ARM GAS  C:\cygwin\tmp\ccaTAaJa.s 			page 1


   1              		.syntax unified
   2              		.cpu cortex-m4
   3              		.fpu softvfp
   4              		.eabi_attribute 20, 1
   5              		.eabi_attribute 21, 1
   6              		.eabi_attribute 23, 3
   7              		.eabi_attribute 24, 1
   8              		.eabi_attribute 25, 1
   9              		.eabi_attribute 26, 1
  10              		.eabi_attribute 30, 2
  11              		.eabi_attribute 34, 1
  12              		.eabi_attribute 18, 4
  13              		.thumb
  14              		.file	"chcore_v7m.c"
  15              		.text
  16              	.Ltext0:
  17              		.cfi_sections	.debug_frame
  18              		.section	.text.SVC_Handler,"ax",%progbits
  19              		.align	2
  20              		.p2align 4,,15
  21              		.global	SVC_Handler
  22              		.thumb
  23              		.thumb_func
  24              		.type	SVC_Handler, %function
  25              	SVC_Handler:
  26              	.LFB226:
  27              		.file 1 "../../../os/rt/ports/ARMCMx/chcore_v7m.c"
  28              		.loc 1 61 0
  29              		.cfi_startproc
  30              		@ args = 0, pretend = 0, frame = 0
  31              		@ frame_needed = 0, uses_anonymous_args = 0
  32              		@ link register save eliminated.
  33              	.LBB38:
  34              	.LBB39:
  35              		.file 2 "../../../os/ext/CMSIS/include/core_cmFunc.h"
  36              		.loc 2 428 0
  37              	@ 428 "../../../os/ext/CMSIS/include/core_cmFunc.h" 1
  38 0000 EFF30983 		MRS r3, psp
  39              	
  40              	@ 0 "" 2
  41              	.LVL0:
  42              		.thumb
  43              	.LBE39:
  44              	.LBE38:
  45              		.loc 1 74 0
  46 0004 2033     		adds	r3, r3, #32
  47              	.LVL1:
  48              	.LBB40:
  49              	.LBB41:
  50              		.loc 2 441 0
  51              	@ 441 "../../../os/ext/CMSIS/include/core_cmFunc.h" 1
  52 0006 83F30988 		MSR psp, r3
  53              	
  54              	@ 0 "" 2
  55              	.LVL2:
  56              		.thumb
  57              	.LBE41:
ARM GAS  C:\cygwin\tmp\ccaTAaJa.s 			page 2


  58              	.LBE40:
  59              	.LBB42:
  60              	.LBB43:
  61              	.LBB44:
  62              	.LBB45:
  63              		.loc 2 546 0
  64 000a 0023     		movs	r3, #0
  65              	.LVL3:
  66              	@ 546 "../../../os/ext/CMSIS/include/core_cmFunc.h" 1
  67 000c 83F31188 		MSR basepri, r3
  68              	@ 0 "" 2
  69              		.thumb
  70 0010 7047     		bx	lr
  71              	.LBE45:
  72              	.LBE44:
  73              	.LBE43:
  74              	.LBE42:
  75              		.cfi_endproc
  76              	.LFE226:
  77              		.size	SVC_Handler, .-SVC_Handler
  78 0012 00BFAFF3 		.section	.text._port_irq_epilogue,"ax",%progbits
  78      0080AFF3 
  78      0080AFF3 
  78      0080
  79              		.align	2
  80              		.p2align 4,,15
  81              		.global	_port_irq_epilogue
  82              		.thumb
  83              		.thumb_func
  84              		.type	_port_irq_epilogue, %function
  85              	_port_irq_epilogue:
  86              	.LFB227:
  87              		.loc 1 118 0
  88              		.cfi_startproc
  89              		@ args = 0, pretend = 0, frame = 0
  90              		@ frame_needed = 0, uses_anonymous_args = 0
  91              	.LVL4:
  92              	.LBB46:
  93              	.LBB47:
  94              	.LBB48:
  95              	.LBB49:
  96              		.loc 2 546 0
  97 0000 2023     		movs	r3, #32
  98              	@ 546 "../../../os/ext/CMSIS/include/core_cmFunc.h" 1
  99 0002 83F31188 		MSR basepri, r3
 100              	@ 0 "" 2
 101              		.thumb
 102              	.LBE49:
 103              	.LBE48:
 104              	.LBE47:
 105              	.LBE46:
 106              		.loc 1 121 0
 107 0006 0F4B     		ldr	r3, .L10
 108 0008 5B68     		ldr	r3, [r3, #4]
 109 000a 13F40063 		ands	r3, r3, #2048
 110 000e 02D1     		bne	.L9
 111              	.LVL5:
ARM GAS  C:\cygwin\tmp\ccaTAaJa.s 			page 3


 112              	.LBB50:
 113              	.LBB51:
 114              	.LBB52:
 115              	.LBB53:
 116              		.loc 2 546 0
 117              	@ 546 "../../../os/ext/CMSIS/include/core_cmFunc.h" 1
 118 0010 83F31188 		MSR basepri, r3
 119              	@ 0 "" 2
 120              		.thumb
 121 0014 7047     		bx	lr
 122              	.LVL6:
 123              	.L9:
 124              	.LBE53:
 125              	.LBE52:
 126              	.LBE51:
 127              	.LBE50:
 128              		.loc 1 118 0
 129 0016 10B5     		push	{r4, lr}
 130              		.cfi_def_cfa_offset 8
 131              		.cfi_offset 4, -8
 132              		.cfi_offset 14, -4
 133              	.LBB54:
 134              	.LBB55:
 135              	.LBB56:
 136              		.loc 2 428 0
 137              	@ 428 "../../../os/ext/CMSIS/include/core_cmFunc.h" 1
 138 0018 EFF30984 		MRS r4, psp
 139              	
 140              	@ 0 "" 2
 141              	.LVL7:
 142              		.thumb
 143              	.LBE56:
 144              	.LBE55:
 145              		.loc 1 137 0
 146 001c 4FF08073 		mov	r3, #16777216
 147 0020 44F8043C 		str	r3, [r4, #-4]
 148              	.LVL8:
 149              		.loc 1 134 0
 150 0024 A4F12003 		sub	r3, r4, #32
 151              	.LVL9:
 152              	.LBB57:
 153              	.LBB58:
 154              		.loc 2 441 0
 155              	@ 441 "../../../os/ext/CMSIS/include/core_cmFunc.h" 1
 156 0028 83F30988 		MSR psp, r3
 157              	
 158              	@ 0 "" 2
 159              		.thumb
 160              	.LBE58:
 161              	.LBE57:
 162              		.loc 1 147 0
 163 002c FFF7FEFF 		bl	chSchIsPreemptionRequired
 164              	.LVL10:
 165 0030 18B1     		cbz	r0, .L4
 166              		.loc 1 149 0
 167 0032 054B     		ldr	r3, .L10+4
 168 0034 44F8083C 		str	r3, [r4, #-8]
ARM GAS  C:\cygwin\tmp\ccaTAaJa.s 			page 4


 169 0038 10BD     		pop	{r4, pc}
 170              	.LVL11:
 171              	.L4:
 172              		.loc 1 154 0
 173 003a 044B     		ldr	r3, .L10+8
 174 003c 44F8083C 		str	r3, [r4, #-8]
 175 0040 10BD     		pop	{r4, pc}
 176              	.LVL12:
 177              	.L11:
 178 0042 00BF     		.align	2
 179              	.L10:
 180 0044 00ED00E0 		.word	-536810240
 181 0048 00000000 		.word	_port_switch_from_isr
 182 004c 00000000 		.word	_port_exit_from_isr
 183              	.LBE54:
 184              		.cfi_endproc
 185              	.LFE227:
 186              		.size	_port_irq_epilogue, .-_port_irq_epilogue
 187              		.text
 188              	.Letext0:
 189              		.file 3 "c:\\program files\\gnu tools arm embedded\\4.9 2014q4\\arm-none-eabi\\include\\machine\\_
 190              		.file 4 "c:\\program files\\gnu tools arm embedded\\4.9 2014q4\\arm-none-eabi\\include\\stdint.h"
 191              		.file 5 "../../../os/rt/ports/ARMCMx/compilers/GCC/chtypes.h"
 192              		.file 6 "../../../os/rt/include/chsystypes.h"
 193              		.file 7 "../../../os/rt/include/chschd.h"
 194              		.file 8 "../../../os/ext/CMSIS/include/core_cm4.h"
 195              		.file 9 "../../../os/rt/ports/ARMCMx/chcore.h"
 196              		.file 10 "../../../os/rt/ports/ARMCMx/chcore_v7m.h"
 197              		.file 11 "../../../os/rt/include/chtm.h"
 198              		.file 12 "../../../os/rt/include/chmtx.h"
 199              		.section	.debug_info,"",%progbits
 200              	.Ldebug_info0:
 201 0000 E6090000 		.4byte	0x9e6
 202 0004 0400     		.2byte	0x4
 203 0006 00000000 		.4byte	.Ldebug_abbrev0
 204 000a 04       		.byte	0x4
 205 000b 01       		.uleb128 0x1
 206 000c 40020000 		.4byte	.LASF125
 207 0010 01       		.byte	0x1
 208 0011 09010000 		.4byte	.LASF126
 209 0015 B7030000 		.4byte	.LASF127
 210 0019 00000000 		.4byte	.Ldebug_ranges0+0
 211 001d 00000000 		.4byte	0
 212 0021 00000000 		.4byte	.Ldebug_line0
 213 0025 02       		.uleb128 0x2
 214 0026 04       		.byte	0x4
 215 0027 05       		.byte	0x5
 216 0028 696E7400 		.ascii	"int\000"
 217 002c 03       		.uleb128 0x3
 218 002d 04       		.byte	0x4
 219 002e 07       		.byte	0x7
 220 002f 9D010000 		.4byte	.LASF0
 221 0033 03       		.uleb128 0x3
 222 0034 01       		.byte	0x1
 223 0035 06       		.byte	0x6
 224 0036 BE000000 		.4byte	.LASF1
 225 003a 04       		.uleb128 0x4
ARM GAS  C:\cygwin\tmp\ccaTAaJa.s 			page 5


 226 003b 1D000000 		.4byte	.LASF5
 227 003f 03       		.byte	0x3
 228 0040 1D       		.byte	0x1d
 229 0041 45000000 		.4byte	0x45
 230 0045 03       		.uleb128 0x3
 231 0046 01       		.byte	0x1
 232 0047 08       		.byte	0x8
 233 0048 58040000 		.4byte	.LASF2
 234 004c 03       		.uleb128 0x3
 235 004d 02       		.byte	0x2
 236 004e 05       		.byte	0x5
 237 004f 83040000 		.4byte	.LASF3
 238 0053 03       		.uleb128 0x3
 239 0054 02       		.byte	0x2
 240 0055 07       		.byte	0x7
 241 0056 B7040000 		.4byte	.LASF4
 242 005a 04       		.uleb128 0x4
 243 005b 36020000 		.4byte	.LASF6
 244 005f 03       		.byte	0x3
 245 0060 3F       		.byte	0x3f
 246 0061 65000000 		.4byte	0x65
 247 0065 03       		.uleb128 0x3
 248 0066 04       		.byte	0x4
 249 0067 05       		.byte	0x5
 250 0068 F7000000 		.4byte	.LASF7
 251 006c 04       		.uleb128 0x4
 252 006d 7D050000 		.4byte	.LASF8
 253 0071 03       		.byte	0x3
 254 0072 41       		.byte	0x41
 255 0073 77000000 		.4byte	0x77
 256 0077 03       		.uleb128 0x3
 257 0078 04       		.byte	0x4
 258 0079 07       		.byte	0x7
 259 007a 23050000 		.4byte	.LASF9
 260 007e 03       		.uleb128 0x3
 261 007f 08       		.byte	0x8
 262 0080 05       		.byte	0x5
 263 0081 B0000000 		.4byte	.LASF10
 264 0085 04       		.uleb128 0x4
 265 0086 AC030000 		.4byte	.LASF11
 266 008a 03       		.byte	0x3
 267 008b 5B       		.byte	0x5b
 268 008c 90000000 		.4byte	0x90
 269 0090 03       		.uleb128 0x3
 270 0091 08       		.byte	0x8
 271 0092 07       		.byte	0x7
 272 0093 4C000000 		.4byte	.LASF12
 273 0097 04       		.uleb128 0x4
 274 0098 09060000 		.4byte	.LASF13
 275 009c 04       		.byte	0x4
 276 009d 15       		.byte	0x15
 277 009e 3A000000 		.4byte	0x3a
 278 00a2 04       		.uleb128 0x4
 279 00a3 50040000 		.4byte	.LASF14
 280 00a7 04       		.byte	0x4
 281 00a8 2C       		.byte	0x2c
 282 00a9 5A000000 		.4byte	0x5a
ARM GAS  C:\cygwin\tmp\ccaTAaJa.s 			page 6


 283 00ad 04       		.uleb128 0x4
 284 00ae F9040000 		.4byte	.LASF15
 285 00b2 04       		.byte	0x4
 286 00b3 2D       		.byte	0x2d
 287 00b4 6C000000 		.4byte	0x6c
 288 00b8 04       		.uleb128 0x4
 289 00b9 14000000 		.4byte	.LASF16
 290 00bd 04       		.byte	0x4
 291 00be 39       		.byte	0x39
 292 00bf 85000000 		.4byte	0x85
 293 00c3 05       		.uleb128 0x5
 294 00c4 A2000000 		.4byte	0xa2
 295 00c8 05       		.uleb128 0x5
 296 00c9 AD000000 		.4byte	0xad
 297 00cd 04       		.uleb128 0x4
 298 00ce BB050000 		.4byte	.LASF17
 299 00d2 05       		.byte	0x5
 300 00d3 45       		.byte	0x45
 301 00d4 AD000000 		.4byte	0xad
 302 00d8 04       		.uleb128 0x4
 303 00d9 05020000 		.4byte	.LASF18
 304 00dd 05       		.byte	0x5
 305 00de 48       		.byte	0x48
 306 00df 97000000 		.4byte	0x97
 307 00e3 04       		.uleb128 0x4
 308 00e4 00010000 		.4byte	.LASF19
 309 00e8 05       		.byte	0x5
 310 00e9 49       		.byte	0x49
 311 00ea 97000000 		.4byte	0x97
 312 00ee 04       		.uleb128 0x4
 313 00ef FE030000 		.4byte	.LASF20
 314 00f3 05       		.byte	0x5
 315 00f4 4A       		.byte	0x4a
 316 00f5 97000000 		.4byte	0x97
 317 00f9 04       		.uleb128 0x4
 318 00fa 2C040000 		.4byte	.LASF21
 319 00fe 05       		.byte	0x5
 320 00ff 4C       		.byte	0x4c
 321 0100 AD000000 		.4byte	0xad
 322 0104 04       		.uleb128 0x4
 323 0105 DB010000 		.4byte	.LASF22
 324 0109 05       		.byte	0x5
 325 010a 4D       		.byte	0x4d
 326 010b A2000000 		.4byte	0xa2
 327 010f 04       		.uleb128 0x4
 328 0110 1B020000 		.4byte	.LASF23
 329 0114 05       		.byte	0x5
 330 0115 4F       		.byte	0x4f
 331 0116 AD000000 		.4byte	0xad
 332 011a 04       		.uleb128 0x4
 333 011b 5F050000 		.4byte	.LASF24
 334 011f 06       		.byte	0x6
 335 0120 33       		.byte	0x33
 336 0121 AD000000 		.4byte	0xad
 337 0125 04       		.uleb128 0x4
 338 0126 4F050000 		.4byte	.LASF25
 339 012a 06       		.byte	0x6
ARM GAS  C:\cygwin\tmp\ccaTAaJa.s 			page 7


 340 012b 3F       		.byte	0x3f
 341 012c 30010000 		.4byte	0x130
 342 0130 06       		.uleb128 0x6
 343 0131 CC010000 		.4byte	.LASF44
 344 0135 44       		.byte	0x44
 345 0136 07       		.byte	0x7
 346 0137 BE       		.byte	0xbe
 347 0138 1D020000 		.4byte	0x21d
 348 013c 07       		.uleb128 0x7
 349 013d A8040000 		.4byte	.LASF26
 350 0141 07       		.byte	0x7
 351 0142 BF       		.byte	0xbf
 352 0143 F8060000 		.4byte	0x6f8
 353 0147 00       		.byte	0
 354 0148 07       		.uleb128 0x7
 355 0149 25040000 		.4byte	.LASF27
 356 014d 07       		.byte	0x7
 357 014e C1       		.byte	0xc1
 358 014f F8060000 		.4byte	0x6f8
 359 0153 04       		.byte	0x4
 360 0154 07       		.uleb128 0x7
 361 0155 A4000000 		.4byte	.LASF28
 362 0159 07       		.byte	0x7
 363 015a C3       		.byte	0xc3
 364 015b F9000000 		.4byte	0xf9
 365 015f 08       		.byte	0x8
 366 0160 07       		.uleb128 0x7
 367 0161 3F060000 		.4byte	.LASF29
 368 0165 07       		.byte	0x7
 369 0166 C4       		.byte	0xc4
 370 0167 D6050000 		.4byte	0x5d6
 371 016b 0C       		.byte	0xc
 372 016c 07       		.uleb128 0x7
 373 016d 4C010000 		.4byte	.LASF30
 374 0171 07       		.byte	0x7
 375 0172 C6       		.byte	0xc6
 376 0173 F8060000 		.4byte	0x6f8
 377 0177 10       		.byte	0x10
 378 0178 07       		.uleb128 0x7
 379 0179 6F030000 		.4byte	.LASF31
 380 017d 07       		.byte	0x7
 381 017e C7       		.byte	0xc7
 382 017f F8060000 		.4byte	0x6f8
 383 0183 14       		.byte	0x14
 384 0184 07       		.uleb128 0x7
 385 0185 18060000 		.4byte	.LASF32
 386 0189 07       		.byte	0x7
 387 018a CE       		.byte	0xce
 388 018b 36070000 		.4byte	0x736
 389 018f 18       		.byte	0x18
 390 0190 07       		.uleb128 0x7
 391 0191 8D040000 		.4byte	.LASF33
 392 0195 07       		.byte	0x7
 393 0196 D9       		.byte	0xd9
 394 0197 E3000000 		.4byte	0xe3
 395 019b 1C       		.byte	0x1c
 396 019c 07       		.uleb128 0x7
ARM GAS  C:\cygwin\tmp\ccaTAaJa.s 			page 8


 397 019d AF040000 		.4byte	.LASF34
 398 01a1 07       		.byte	0x7
 399 01a2 DD       		.byte	0xdd
 400 01a3 D8000000 		.4byte	0xd8
 401 01a7 1D       		.byte	0x1d
 402 01a8 07       		.uleb128 0x7
 403 01a9 F7050000 		.4byte	.LASF35
 404 01ad 07       		.byte	0x7
 405 01ae E2       		.byte	0xe2
 406 01af EE000000 		.4byte	0xee
 407 01b3 1E       		.byte	0x1e
 408 01b4 08       		.uleb128 0x8
 409 01b5 705F7500 		.ascii	"p_u\000"
 410 01b9 07       		.byte	0x7
 411 01ba 1401     		.2byte	0x114
 412 01bc FE060000 		.4byte	0x6fe
 413 01c0 20       		.byte	0x20
 414 01c1 09       		.uleb128 0x9
 415 01c2 34030000 		.4byte	.LASF36
 416 01c6 07       		.byte	0x7
 417 01c7 1901     		.2byte	0x119
 418 01c9 1D020000 		.4byte	0x21d
 419 01cd 24       		.byte	0x24
 420 01ce 09       		.uleb128 0x9
 421 01cf BC010000 		.4byte	.LASF37
 422 01d3 07       		.byte	0x7
 423 01d4 1F01     		.2byte	0x11f
 424 01d6 41020000 		.4byte	0x241
 425 01da 28       		.byte	0x28
 426 01db 09       		.uleb128 0x9
 427 01dc 1F060000 		.4byte	.LASF38
 428 01e0 07       		.byte	0x7
 429 01e1 2301     		.2byte	0x123
 430 01e3 04010000 		.4byte	0x104
 431 01e7 30       		.byte	0x30
 432 01e8 09       		.uleb128 0x9
 433 01e9 EE040000 		.4byte	.LASF39
 434 01ed 07       		.byte	0x7
 435 01ee 2901     		.2byte	0x129
 436 01f0 0F010000 		.4byte	0x10f
 437 01f4 34       		.byte	0x34
 438 01f5 09       		.uleb128 0x9
 439 01f6 79040000 		.4byte	.LASF40
 440 01fa 07       		.byte	0x7
 441 01fb 3001     		.2byte	0x130
 442 01fd 79070000 		.4byte	0x779
 443 0201 38       		.byte	0x38
 444 0202 09       		.uleb128 0x9
 445 0203 69050000 		.4byte	.LASF41
 446 0207 07       		.byte	0x7
 447 0208 3401     		.2byte	0x134
 448 020a F9000000 		.4byte	0xf9
 449 020e 3C       		.byte	0x3c
 450 020f 09       		.uleb128 0x9
 451 0210 CA000000 		.4byte	.LASF42
 452 0214 07       		.byte	0x7
 453 0215 3A01     		.2byte	0x13a
ARM GAS  C:\cygwin\tmp\ccaTAaJa.s 			page 9


 454 0217 F4020000 		.4byte	0x2f4
 455 021b 40       		.byte	0x40
 456 021c 00       		.byte	0
 457 021d 04       		.uleb128 0x4
 458 021e 25030000 		.4byte	.LASF43
 459 0222 06       		.byte	0x6
 460 0223 44       		.byte	0x44
 461 0224 28020000 		.4byte	0x228
 462 0228 06       		.uleb128 0x6
 463 0229 13050000 		.4byte	.LASF45
 464 022d 04       		.byte	0x4
 465 022e 07       		.byte	0x7
 466 022f AC       		.byte	0xac
 467 0230 41020000 		.4byte	0x241
 468 0234 07       		.uleb128 0x7
 469 0235 A8040000 		.4byte	.LASF26
 470 0239 07       		.byte	0x7
 471 023a AD       		.byte	0xad
 472 023b F8060000 		.4byte	0x6f8
 473 023f 00       		.byte	0
 474 0240 00       		.byte	0
 475 0241 04       		.uleb128 0x4
 476 0242 E7050000 		.4byte	.LASF46
 477 0246 06       		.byte	0x6
 478 0247 4B       		.byte	0x4b
 479 0248 4C020000 		.4byte	0x24c
 480 024c 06       		.uleb128 0x6
 481 024d 93000000 		.4byte	.LASF47
 482 0251 08       		.byte	0x8
 483 0252 07       		.byte	0x7
 484 0253 B3       		.byte	0xb3
 485 0254 71020000 		.4byte	0x271
 486 0258 07       		.uleb128 0x7
 487 0259 A8040000 		.4byte	.LASF26
 488 025d 07       		.byte	0x7
 489 025e B4       		.byte	0xb4
 490 025f F8060000 		.4byte	0x6f8
 491 0263 00       		.byte	0
 492 0264 07       		.uleb128 0x7
 493 0265 25040000 		.4byte	.LASF27
 494 0269 07       		.byte	0x7
 495 026a B5       		.byte	0xb5
 496 026b F8060000 		.4byte	0x6f8
 497 026f 04       		.byte	0x4
 498 0270 00       		.byte	0
 499 0271 04       		.uleb128 0x4
 500 0272 00000000 		.4byte	.LASF48
 501 0276 06       		.byte	0x6
 502 0277 52       		.byte	0x52
 503 0278 7C020000 		.4byte	0x27c
 504 027c 0A       		.uleb128 0xa
 505 027d 0D020000 		.4byte	.LASF49
 506 0281 1C       		.byte	0x1c
 507 0282 07       		.byte	0x7
 508 0283 7201     		.2byte	0x172
 509 0285 D8020000 		.4byte	0x2d8
 510 0289 09       		.uleb128 0x9
ARM GAS  C:\cygwin\tmp\ccaTAaJa.s 			page 10


 511 028a 02050000 		.4byte	.LASF50
 512 028e 07       		.byte	0x7
 513 028f 7301     		.2byte	0x173
 514 0291 41020000 		.4byte	0x241
 515 0295 00       		.byte	0
 516 0296 09       		.uleb128 0x9
 517 0297 9A040000 		.4byte	.LASF51
 518 029b 07       		.byte	0x7
 519 029c 7401     		.2byte	0x174
 520 029e F9000000 		.4byte	0xf9
 521 02a2 08       		.byte	0x8
 522 02a3 09       		.uleb128 0x9
 523 02a4 77030000 		.4byte	.LASF52
 524 02a8 07       		.byte	0x7
 525 02a9 7601     		.2byte	0x176
 526 02ab D6050000 		.4byte	0x5d6
 527 02af 0C       		.byte	0xc
 528 02b0 09       		.uleb128 0x9
 529 02b1 5E010000 		.4byte	.LASF53
 530 02b5 07       		.byte	0x7
 531 02b6 7901     		.2byte	0x179
 532 02b8 F8060000 		.4byte	0x6f8
 533 02bc 10       		.byte	0x10
 534 02bd 09       		.uleb128 0x9
 535 02be A4030000 		.4byte	.LASF54
 536 02c2 07       		.byte	0x7
 537 02c3 7A01     		.2byte	0x17a
 538 02c5 F8060000 		.4byte	0x6f8
 539 02c9 14       		.byte	0x14
 540 02ca 09       		.uleb128 0x9
 541 02cb 9A030000 		.4byte	.LASF55
 542 02cf 07       		.byte	0x7
 543 02d0 7D01     		.2byte	0x17d
 544 02d2 F8060000 		.4byte	0x6f8
 545 02d6 18       		.byte	0x18
 546 02d7 00       		.byte	0
 547 02d8 04       		.uleb128 0x4
 548 02d9 74050000 		.4byte	.LASF56
 549 02dd 06       		.byte	0x6
 550 02de 57       		.byte	0x57
 551 02df E3020000 		.4byte	0x2e3
 552 02e3 0B       		.uleb128 0xb
 553 02e4 04       		.byte	0x4
 554 02e5 E9020000 		.4byte	0x2e9
 555 02e9 0C       		.uleb128 0xc
 556 02ea F4020000 		.4byte	0x2f4
 557 02ee 0D       		.uleb128 0xd
 558 02ef F4020000 		.4byte	0x2f4
 559 02f3 00       		.byte	0
 560 02f4 0E       		.uleb128 0xe
 561 02f5 04       		.byte	0x4
 562 02f6 04       		.uleb128 0x4
 563 02f7 15040000 		.4byte	.LASF57
 564 02fb 06       		.byte	0x6
 565 02fc 5C       		.byte	0x5c
 566 02fd 01030000 		.4byte	0x301
 567 0301 0A       		.uleb128 0xa
ARM GAS  C:\cygwin\tmp\ccaTAaJa.s 			page 11


 568 0302 DD040000 		.4byte	.LASF58
 569 0306 14       		.byte	0x14
 570 0307 07       		.byte	0x7
 571 0308 4D01     		.2byte	0x14d
 572 030a 50030000 		.4byte	0x350
 573 030e 09       		.uleb128 0x9
 574 030f B4010000 		.4byte	.LASF59
 575 0313 07       		.byte	0x7
 576 0314 4E01     		.2byte	0x14e
 577 0316 7F070000 		.4byte	0x77f
 578 031a 00       		.byte	0
 579 031b 09       		.uleb128 0x9
 580 031c 6F010000 		.4byte	.LASF60
 581 0320 07       		.byte	0x7
 582 0321 4F01     		.2byte	0x14f
 583 0323 7F070000 		.4byte	0x77f
 584 0327 04       		.byte	0x4
 585 0328 09       		.uleb128 0x9
 586 0329 0A050000 		.4byte	.LASF61
 587 032d 07       		.byte	0x7
 588 032e 5001     		.2byte	0x150
 589 0330 1A010000 		.4byte	0x11a
 590 0334 08       		.byte	0x8
 591 0335 09       		.uleb128 0x9
 592 0336 45060000 		.4byte	.LASF62
 593 033a 07       		.byte	0x7
 594 033b 5101     		.2byte	0x151
 595 033d D8020000 		.4byte	0x2d8
 596 0341 0C       		.byte	0xc
 597 0342 09       		.uleb128 0x9
 598 0343 E0050000 		.4byte	.LASF63
 599 0347 07       		.byte	0x7
 600 0348 5301     		.2byte	0x153
 601 034a F4020000 		.4byte	0x2f4
 602 034e 10       		.byte	0x10
 603 034f 00       		.byte	0
 604 0350 04       		.uleb128 0x4
 605 0351 77000000 		.4byte	.LASF64
 606 0355 06       		.byte	0x6
 607 0356 61       		.byte	0x61
 608 0357 5B030000 		.4byte	0x35b
 609 035b 0A       		.uleb128 0xa
 610 035c 47030000 		.4byte	.LASF65
 611 0360 10       		.byte	0x10
 612 0361 07       		.byte	0x7
 613 0362 5D01     		.2byte	0x15d
 614 0364 9D030000 		.4byte	0x39d
 615 0368 09       		.uleb128 0x9
 616 0369 B4010000 		.4byte	.LASF59
 617 036d 07       		.byte	0x7
 618 036e 5E01     		.2byte	0x15e
 619 0370 7F070000 		.4byte	0x77f
 620 0374 00       		.byte	0
 621 0375 09       		.uleb128 0x9
 622 0376 6F010000 		.4byte	.LASF60
 623 037a 07       		.byte	0x7
 624 037b 6001     		.2byte	0x160
ARM GAS  C:\cygwin\tmp\ccaTAaJa.s 			page 12


 625 037d 7F070000 		.4byte	0x77f
 626 0381 04       		.byte	0x4
 627 0382 09       		.uleb128 0x9
 628 0383 0A050000 		.4byte	.LASF61
 629 0387 07       		.byte	0x7
 630 0388 6201     		.2byte	0x162
 631 038a 1A010000 		.4byte	0x11a
 632 038e 08       		.byte	0x8
 633 038f 09       		.uleb128 0x9
 634 0390 63030000 		.4byte	.LASF66
 635 0394 07       		.byte	0x7
 636 0395 6A01     		.2byte	0x16a
 637 0397 1A010000 		.4byte	0x11a
 638 039b 0C       		.byte	0xc
 639 039c 00       		.byte	0
 640 039d 04       		.uleb128 0x4
 641 039e 33000000 		.4byte	.LASF67
 642 03a2 06       		.byte	0x6
 643 03a3 66       		.byte	0x66
 644 03a4 A8030000 		.4byte	0x3a8
 645 03a8 0A       		.uleb128 0xa
 646 03a9 3A040000 		.4byte	.LASF68
 647 03ad 04       		.byte	0x4
 648 03ae 07       		.byte	0x7
 649 03af 8401     		.2byte	0x184
 650 03b1 C3030000 		.4byte	0x3c3
 651 03b5 09       		.uleb128 0x9
 652 03b6 96050000 		.4byte	.LASF69
 653 03ba 07       		.byte	0x7
 654 03bb 8C01     		.2byte	0x18c
 655 03bd 85070000 		.4byte	0x785
 656 03c1 00       		.byte	0
 657 03c2 00       		.byte	0
 658 03c3 04       		.uleb128 0x4
 659 03c4 AF050000 		.4byte	.LASF70
 660 03c8 06       		.byte	0x6
 661 03c9 6B       		.byte	0x6b
 662 03ca CE030000 		.4byte	0x3ce
 663 03ce 0F       		.uleb128 0xf
 664 03cf ED000000 		.4byte	.LASF71
 665 03d3 5001     		.2byte	0x150
 666 03d5 07       		.byte	0x7
 667 03d6 A401     		.2byte	0x1a4
 668 03d8 2A040000 		.4byte	0x42a
 669 03dc 09       		.uleb128 0x9
 670 03dd 03060000 		.4byte	.LASF72
 671 03e1 07       		.byte	0x7
 672 03e2 A801     		.2byte	0x1a8
 673 03e4 71020000 		.4byte	0x271
 674 03e8 00       		.byte	0
 675 03e9 09       		.uleb128 0x9
 676 03ea DA000000 		.4byte	.LASF73
 677 03ee 07       		.byte	0x7
 678 03ef AC01     		.2byte	0x1ac
 679 03f1 50030000 		.4byte	0x350
 680 03f5 1C       		.byte	0x1c
 681 03f6 08       		.uleb128 0x8
ARM GAS  C:\cygwin\tmp\ccaTAaJa.s 			page 13


 682 03f7 64626700 		.ascii	"dbg\000"
 683 03fb 07       		.byte	0x7
 684 03fc B001     		.2byte	0x1b0
 685 03fe 9D030000 		.4byte	0x39d
 686 0402 2C       		.byte	0x2c
 687 0403 09       		.uleb128 0x9
 688 0404 6C000000 		.4byte	.LASF74
 689 0408 07       		.byte	0x7
 690 0409 B401     		.2byte	0x1b4
 691 040b 25010000 		.4byte	0x125
 692 040f 30       		.byte	0x30
 693 0410 08       		.uleb128 0x8
 694 0411 746D00   		.ascii	"tm\000"
 695 0414 07       		.byte	0x7
 696 0415 B901     		.2byte	0x1b9
 697 0417 ED060000 		.4byte	0x6ed
 698 041b 74       		.byte	0x74
 699 041c 09       		.uleb128 0x9
 700 041d 8E010000 		.4byte	.LASF75
 701 0421 07       		.byte	0x7
 702 0422 C501     		.2byte	0x1c5
 703 0424 8A070000 		.4byte	0x78a
 704 0428 78       		.byte	0x78
 705 0429 00       		.byte	0
 706 042a 03       		.uleb128 0x3
 707 042b 04       		.byte	0x4
 708 042c 07       		.byte	0x7
 709 042d 3E030000 		.4byte	.LASF76
 710 0431 10       		.uleb128 0x10
 711 0432 8C       		.byte	0x8c
 712 0433 08       		.byte	0x8
 713 0434 7001     		.2byte	0x170
 714 0436 4C050000 		.4byte	0x54c
 715 043a 09       		.uleb128 0x9
 716 043b 8D000000 		.4byte	.LASF77
 717 043f 08       		.byte	0x8
 718 0440 7201     		.2byte	0x172
 719 0442 4C050000 		.4byte	0x54c
 720 0446 00       		.byte	0
 721 0447 09       		.uleb128 0x9
 722 0448 D6010000 		.4byte	.LASF78
 723 044c 08       		.byte	0x8
 724 044d 7301     		.2byte	0x173
 725 044f C8000000 		.4byte	0xc8
 726 0453 04       		.byte	0x4
 727 0454 09       		.uleb128 0x9
 728 0455 C7010000 		.4byte	.LASF79
 729 0459 08       		.byte	0x8
 730 045a 7401     		.2byte	0x174
 731 045c C8000000 		.4byte	0xc8
 732 0460 08       		.byte	0x8
 733 0461 09       		.uleb128 0x9
 734 0462 E1010000 		.4byte	.LASF80
 735 0466 08       		.byte	0x8
 736 0467 7501     		.2byte	0x175
 737 0469 C8000000 		.4byte	0xc8
 738 046d 0C       		.byte	0xc
ARM GAS  C:\cygwin\tmp\ccaTAaJa.s 			page 14


 739 046e 08       		.uleb128 0x8
 740 046f 53435200 		.ascii	"SCR\000"
 741 0473 08       		.byte	0x8
 742 0474 7601     		.2byte	0x176
 743 0476 C8000000 		.4byte	0xc8
 744 047a 10       		.byte	0x10
 745 047b 08       		.uleb128 0x8
 746 047c 43435200 		.ascii	"CCR\000"
 747 0480 08       		.byte	0x8
 748 0481 7701     		.2byte	0x177
 749 0483 C8000000 		.4byte	0xc8
 750 0487 14       		.byte	0x14
 751 0488 08       		.uleb128 0x8
 752 0489 53485000 		.ascii	"SHP\000"
 753 048d 08       		.byte	0x8
 754 048e 7801     		.2byte	0x178
 755 0490 61050000 		.4byte	0x561
 756 0494 18       		.byte	0x18
 757 0495 09       		.uleb128 0x9
 758 0496 66040000 		.4byte	.LASF81
 759 049a 08       		.byte	0x8
 760 049b 7901     		.2byte	0x179
 761 049d C8000000 		.4byte	0xc8
 762 04a1 24       		.byte	0x24
 763 04a2 09       		.uleb128 0x9
 764 04a3 5E030000 		.4byte	.LASF82
 765 04a7 08       		.byte	0x8
 766 04a8 7A01     		.2byte	0x17a
 767 04aa C8000000 		.4byte	0xc8
 768 04ae 28       		.byte	0x28
 769 04af 09       		.uleb128 0x9
 770 04b0 2B060000 		.4byte	.LASF83
 771 04b4 08       		.byte	0x8
 772 04b5 7B01     		.2byte	0x17b
 773 04b7 C8000000 		.4byte	0xc8
 774 04bb 2C       		.byte	0x2c
 775 04bc 09       		.uleb128 0x9
 776 04bd E7010000 		.4byte	.LASF84
 777 04c1 08       		.byte	0x8
 778 04c2 7C01     		.2byte	0x17c
 779 04c4 C8000000 		.4byte	0xc8
 780 04c8 30       		.byte	0x30
 781 04c9 09       		.uleb128 0x9
 782 04ca EC010000 		.4byte	.LASF85
 783 04ce 08       		.byte	0x8
 784 04cf 7D01     		.2byte	0x17d
 785 04d1 C8000000 		.4byte	0xc8
 786 04d5 34       		.byte	0x34
 787 04d6 09       		.uleb128 0x9
 788 04d7 54010000 		.4byte	.LASF86
 789 04db 08       		.byte	0x8
 790 04dc 7E01     		.2byte	0x17e
 791 04de C8000000 		.4byte	0xc8
 792 04e2 38       		.byte	0x38
 793 04e3 09       		.uleb128 0x9
 794 04e4 59010000 		.4byte	.LASF87
 795 04e8 08       		.byte	0x8
ARM GAS  C:\cygwin\tmp\ccaTAaJa.s 			page 15


 796 04e9 7F01     		.2byte	0x17f
 797 04eb C8000000 		.4byte	0xc8
 798 04ef 3C       		.byte	0x3c
 799 04f0 08       		.uleb128 0x8
 800 04f1 50465200 		.ascii	"PFR\000"
 801 04f5 08       		.byte	0x8
 802 04f6 8001     		.2byte	0x180
 803 04f8 76050000 		.4byte	0x576
 804 04fc 40       		.byte	0x40
 805 04fd 08       		.uleb128 0x8
 806 04fe 44465200 		.ascii	"DFR\000"
 807 0502 08       		.byte	0x8
 808 0503 8101     		.2byte	0x181
 809 0505 4C050000 		.4byte	0x54c
 810 0509 48       		.byte	0x48
 811 050a 08       		.uleb128 0x8
 812 050b 41445200 		.ascii	"ADR\000"
 813 050f 08       		.byte	0x8
 814 0510 8201     		.2byte	0x182
 815 0512 4C050000 		.4byte	0x54c
 816 0516 4C       		.byte	0x4c
 817 0517 09       		.uleb128 0x9
 818 0518 FE050000 		.4byte	.LASF88
 819 051c 08       		.byte	0x8
 820 051d 8301     		.2byte	0x183
 821 051f 90050000 		.4byte	0x590
 822 0523 50       		.byte	0x50
 823 0524 09       		.uleb128 0x9
 824 0525 AB000000 		.4byte	.LASF89
 825 0529 08       		.byte	0x8
 826 052a 8401     		.2byte	0x184
 827 052c AA050000 		.4byte	0x5aa
 828 0530 60       		.byte	0x60
 829 0531 09       		.uleb128 0x9
 830 0532 06040000 		.4byte	.LASF90
 831 0536 08       		.byte	0x8
 832 0537 8501     		.2byte	0x185
 833 0539 9A050000 		.4byte	0x59a
 834 053d 74       		.byte	0x74
 835 053e 09       		.uleb128 0x9
 836 053f 25060000 		.4byte	.LASF91
 837 0543 08       		.byte	0x8
 838 0544 8601     		.2byte	0x186
 839 0546 C8000000 		.4byte	0xc8
 840 054a 88       		.byte	0x88
 841 054b 00       		.byte	0
 842 054c 11       		.uleb128 0x11
 843 054d C8000000 		.4byte	0xc8
 844 0551 12       		.uleb128 0x12
 845 0552 97000000 		.4byte	0x97
 846 0556 61050000 		.4byte	0x561
 847 055a 13       		.uleb128 0x13
 848 055b 2A040000 		.4byte	0x42a
 849 055f 0B       		.byte	0xb
 850 0560 00       		.byte	0
 851 0561 05       		.uleb128 0x5
 852 0562 51050000 		.4byte	0x551
ARM GAS  C:\cygwin\tmp\ccaTAaJa.s 			page 16


 853 0566 12       		.uleb128 0x12
 854 0567 AD000000 		.4byte	0xad
 855 056b 76050000 		.4byte	0x576
 856 056f 13       		.uleb128 0x13
 857 0570 2A040000 		.4byte	0x42a
 858 0574 01       		.byte	0x1
 859 0575 00       		.byte	0
 860 0576 11       		.uleb128 0x11
 861 0577 7B050000 		.4byte	0x57b
 862 057b 05       		.uleb128 0x5
 863 057c 66050000 		.4byte	0x566
 864 0580 12       		.uleb128 0x12
 865 0581 AD000000 		.4byte	0xad
 866 0585 90050000 		.4byte	0x590
 867 0589 13       		.uleb128 0x13
 868 058a 2A040000 		.4byte	0x42a
 869 058e 03       		.byte	0x3
 870 058f 00       		.byte	0
 871 0590 11       		.uleb128 0x11
 872 0591 95050000 		.4byte	0x595
 873 0595 05       		.uleb128 0x5
 874 0596 80050000 		.4byte	0x580
 875 059a 12       		.uleb128 0x12
 876 059b AD000000 		.4byte	0xad
 877 059f AA050000 		.4byte	0x5aa
 878 05a3 13       		.uleb128 0x13
 879 05a4 2A040000 		.4byte	0x42a
 880 05a8 04       		.byte	0x4
 881 05a9 00       		.byte	0
 882 05aa 11       		.uleb128 0x11
 883 05ab AF050000 		.4byte	0x5af
 884 05af 05       		.uleb128 0x5
 885 05b0 9A050000 		.4byte	0x59a
 886 05b4 14       		.uleb128 0x14
 887 05b5 77010000 		.4byte	.LASF92
 888 05b9 08       		.byte	0x8
 889 05ba 8701     		.2byte	0x187
 890 05bc 31040000 		.4byte	0x431
 891 05c0 04       		.uleb128 0x4
 892 05c1 66010000 		.4byte	.LASF93
 893 05c5 09       		.byte	0x9
 894 05c6 85       		.byte	0x85
 895 05c7 F4020000 		.4byte	0x2f4
 896 05cb 04       		.uleb128 0x4
 897 05cc 1A030000 		.4byte	.LASF94
 898 05d0 09       		.byte	0x9
 899 05d1 8D       		.byte	0x8d
 900 05d2 B8000000 		.4byte	0xb8
 901 05d6 06       		.uleb128 0x6
 902 05d7 A7050000 		.4byte	.LASF95
 903 05db 04       		.byte	0x4
 904 05dc 09       		.byte	0x9
 905 05dd A9       		.byte	0xa9
 906 05de EF050000 		.4byte	0x5ef
 907 05e2 15       		.uleb128 0x15
 908 05e3 72313300 		.ascii	"r13\000"
 909 05e7 09       		.byte	0x9
ARM GAS  C:\cygwin\tmp\ccaTAaJa.s 			page 17


 910 05e8 AA       		.byte	0xaa
 911 05e9 6A060000 		.4byte	0x66a
 912 05ed 00       		.byte	0
 913 05ee 00       		.byte	0
 914 05ef 06       		.uleb128 0x6
 915 05f0 27000000 		.4byte	.LASF96
 916 05f4 24       		.byte	0x24
 917 05f5 0A       		.byte	0xa
 918 05f6 F4       		.byte	0xf4
 919 05f7 6A060000 		.4byte	0x66a
 920 05fb 08       		.uleb128 0x8
 921 05fc 723400   		.ascii	"r4\000"
 922 05ff 0A       		.byte	0xa
 923 0600 0701     		.2byte	0x107
 924 0602 C0050000 		.4byte	0x5c0
 925 0606 00       		.byte	0
 926 0607 08       		.uleb128 0x8
 927 0608 723500   		.ascii	"r5\000"
 928 060b 0A       		.byte	0xa
 929 060c 0801     		.2byte	0x108
 930 060e C0050000 		.4byte	0x5c0
 931 0612 04       		.byte	0x4
 932 0613 08       		.uleb128 0x8
 933 0614 723600   		.ascii	"r6\000"
 934 0617 0A       		.byte	0xa
 935 0618 0901     		.2byte	0x109
 936 061a C0050000 		.4byte	0x5c0
 937 061e 08       		.byte	0x8
 938 061f 08       		.uleb128 0x8
 939 0620 723700   		.ascii	"r7\000"
 940 0623 0A       		.byte	0xa
 941 0624 0A01     		.2byte	0x10a
 942 0626 C0050000 		.4byte	0x5c0
 943 062a 0C       		.byte	0xc
 944 062b 08       		.uleb128 0x8
 945 062c 723800   		.ascii	"r8\000"
 946 062f 0A       		.byte	0xa
 947 0630 0B01     		.2byte	0x10b
 948 0632 C0050000 		.4byte	0x5c0
 949 0636 10       		.byte	0x10
 950 0637 08       		.uleb128 0x8
 951 0638 723900   		.ascii	"r9\000"
 952 063b 0A       		.byte	0xa
 953 063c 0C01     		.2byte	0x10c
 954 063e C0050000 		.4byte	0x5c0
 955 0642 14       		.byte	0x14
 956 0643 08       		.uleb128 0x8
 957 0644 72313000 		.ascii	"r10\000"
 958 0648 0A       		.byte	0xa
 959 0649 0D01     		.2byte	0x10d
 960 064b C0050000 		.4byte	0x5c0
 961 064f 18       		.byte	0x18
 962 0650 08       		.uleb128 0x8
 963 0651 72313100 		.ascii	"r11\000"
 964 0655 0A       		.byte	0xa
 965 0656 0E01     		.2byte	0x10e
 966 0658 C0050000 		.4byte	0x5c0
ARM GAS  C:\cygwin\tmp\ccaTAaJa.s 			page 18


 967 065c 1C       		.byte	0x1c
 968 065d 08       		.uleb128 0x8
 969 065e 6C7200   		.ascii	"lr\000"
 970 0661 0A       		.byte	0xa
 971 0662 0F01     		.2byte	0x10f
 972 0664 C0050000 		.4byte	0x5c0
 973 0668 20       		.byte	0x20
 974 0669 00       		.byte	0
 975 066a 0B       		.uleb128 0xb
 976 066b 04       		.byte	0x4
 977 066c EF050000 		.4byte	0x5ef
 978 0670 06       		.uleb128 0x6
 979 0671 7D030000 		.4byte	.LASF97
 980 0675 20       		.byte	0x20
 981 0676 0A       		.byte	0xa
 982 0677 D5       		.byte	0xd5
 983 0678 D8060000 		.4byte	0x6d8
 984 067c 15       		.uleb128 0x15
 985 067d 723000   		.ascii	"r0\000"
 986 0680 0A       		.byte	0xa
 987 0681 D6       		.byte	0xd6
 988 0682 C0050000 		.4byte	0x5c0
 989 0686 00       		.byte	0
 990 0687 15       		.uleb128 0x15
 991 0688 723100   		.ascii	"r1\000"
 992 068b 0A       		.byte	0xa
 993 068c D7       		.byte	0xd7
 994 068d C0050000 		.4byte	0x5c0
 995 0691 04       		.byte	0x4
 996 0692 15       		.uleb128 0x15
 997 0693 723200   		.ascii	"r2\000"
 998 0696 0A       		.byte	0xa
 999 0697 D8       		.byte	0xd8
 1000 0698 C0050000 		.4byte	0x5c0
 1001 069c 08       		.byte	0x8
 1002 069d 15       		.uleb128 0x15
 1003 069e 723300   		.ascii	"r3\000"
 1004 06a1 0A       		.byte	0xa
 1005 06a2 D9       		.byte	0xd9
 1006 06a3 C0050000 		.4byte	0x5c0
 1007 06a7 0C       		.byte	0xc
 1008 06a8 15       		.uleb128 0x15
 1009 06a9 72313200 		.ascii	"r12\000"
 1010 06ad 0A       		.byte	0xa
 1011 06ae DA       		.byte	0xda
 1012 06af C0050000 		.4byte	0x5c0
 1013 06b3 10       		.byte	0x10
 1014 06b4 07       		.uleb128 0x7
 1015 06b5 CA040000 		.4byte	.LASF98
 1016 06b9 0A       		.byte	0xa
 1017 06ba DB       		.byte	0xdb
 1018 06bb C0050000 		.4byte	0x5c0
 1019 06bf 14       		.byte	0x14
 1020 06c0 15       		.uleb128 0x15
 1021 06c1 706300   		.ascii	"pc\000"
 1022 06c4 0A       		.byte	0xa
 1023 06c5 DC       		.byte	0xdc
ARM GAS  C:\cygwin\tmp\ccaTAaJa.s 			page 19


 1024 06c6 C0050000 		.4byte	0x5c0
 1025 06ca 18       		.byte	0x18
 1026 06cb 07       		.uleb128 0x7
 1027 06cc 95040000 		.4byte	.LASF99
 1028 06d0 0A       		.byte	0xa
 1029 06d1 DD       		.byte	0xdd
 1030 06d2 C0050000 		.4byte	0x5c0
 1031 06d6 1C       		.byte	0x1c
 1032 06d7 00       		.byte	0
 1033 06d8 16       		.uleb128 0x16
 1034 06d9 04       		.byte	0x4
 1035 06da 0B       		.byte	0xb
 1036 06db 38       		.byte	0x38
 1037 06dc ED060000 		.4byte	0x6ed
 1038 06e0 07       		.uleb128 0x7
 1039 06e1 A0050000 		.4byte	.LASF100
 1040 06e5 0B       		.byte	0xb
 1041 06e6 3C       		.byte	0x3c
 1042 06e7 CD000000 		.4byte	0xcd
 1043 06eb 00       		.byte	0
 1044 06ec 00       		.byte	0
 1045 06ed 04       		.uleb128 0x4
 1046 06ee 89030000 		.4byte	.LASF101
 1047 06f2 0B       		.byte	0xb
 1048 06f3 3D       		.byte	0x3d
 1049 06f4 D8060000 		.4byte	0x6d8
 1050 06f8 0B       		.uleb128 0xb
 1051 06f9 04       		.byte	0x4
 1052 06fa 25010000 		.4byte	0x125
 1053 06fe 17       		.uleb128 0x17
 1054 06ff 04       		.byte	0x4
 1055 0700 07       		.byte	0x7
 1056 0701 F6       		.byte	0xf6
 1057 0702 36070000 		.4byte	0x736
 1058 0706 18       		.uleb128 0x18
 1059 0707 0D000000 		.4byte	.LASF102
 1060 070b 07       		.byte	0x7
 1061 070c FD       		.byte	0xfd
 1062 070d 04010000 		.4byte	0x104
 1063 0711 19       		.uleb128 0x19
 1064 0712 63000000 		.4byte	.LASF103
 1065 0716 07       		.byte	0x7
 1066 0717 0401     		.2byte	0x104
 1067 0719 04010000 		.4byte	0x104
 1068 071d 19       		.uleb128 0x19
 1069 071e 11060000 		.4byte	.LASF104
 1070 0722 07       		.byte	0x7
 1071 0723 0B01     		.2byte	0x10b
 1072 0725 F4020000 		.4byte	0x2f4
 1073 0729 19       		.uleb128 0x19
 1074 072a A1040000 		.4byte	.LASF105
 1075 072e 07       		.byte	0x7
 1076 072f 1201     		.2byte	0x112
 1077 0731 0F010000 		.4byte	0x10f
 1078 0735 00       		.byte	0
 1079 0736 0B       		.uleb128 0xb
 1080 0737 04       		.byte	0x4
ARM GAS  C:\cygwin\tmp\ccaTAaJa.s 			page 20


 1081 0738 3C070000 		.4byte	0x73c
 1082 073c 11       		.uleb128 0x11
 1083 073d 41070000 		.4byte	0x741
 1084 0741 03       		.uleb128 0x3
 1085 0742 01       		.byte	0x1
 1086 0743 08       		.byte	0x8
 1087 0744 35050000 		.4byte	.LASF106
 1088 0748 06       		.uleb128 0x6
 1089 0749 34040000 		.4byte	.LASF107
 1090 074d 10       		.byte	0x10
 1091 074e 0C       		.byte	0xc
 1092 074f 39       		.byte	0x39
 1093 0750 79070000 		.4byte	0x779
 1094 0754 07       		.uleb128 0x7
 1095 0755 D2000000 		.4byte	.LASF108
 1096 0759 0C       		.byte	0xc
 1097 075a 3A       		.byte	0x3a
 1098 075b 41020000 		.4byte	0x241
 1099 075f 00       		.byte	0
 1100 0760 07       		.uleb128 0x7
 1101 0761 30060000 		.4byte	.LASF109
 1102 0765 0C       		.byte	0xc
 1103 0766 3C       		.byte	0x3c
 1104 0767 F8060000 		.4byte	0x6f8
 1105 076b 08       		.byte	0x8
 1106 076c 07       		.uleb128 0x7
 1107 076d 58050000 		.4byte	.LASF110
 1108 0771 0C       		.byte	0xc
 1109 0772 3E       		.byte	0x3e
 1110 0773 A5070000 		.4byte	0x7a5
 1111 0777 0C       		.byte	0xc
 1112 0778 00       		.byte	0
 1113 0779 0B       		.uleb128 0xb
 1114 077a 04       		.byte	0x4
 1115 077b 48070000 		.4byte	0x748
 1116 077f 0B       		.uleb128 0xb
 1117 0780 04       		.byte	0x4
 1118 0781 F6020000 		.4byte	0x2f6
 1119 0785 05       		.uleb128 0x5
 1120 0786 36070000 		.4byte	0x736
 1121 078a 12       		.uleb128 0x12
 1122 078b CB050000 		.4byte	0x5cb
 1123 078f 9A070000 		.4byte	0x79a
 1124 0793 13       		.uleb128 0x13
 1125 0794 2A040000 		.4byte	0x42a
 1126 0798 1A       		.byte	0x1a
 1127 0799 00       		.byte	0
 1128 079a 04       		.uleb128 0x4
 1129 079b 80010000 		.4byte	.LASF111
 1130 079f 0C       		.byte	0xc
 1131 07a0 34       		.byte	0x34
 1132 07a1 48070000 		.4byte	0x748
 1133 07a5 0B       		.uleb128 0xb
 1134 07a6 04       		.byte	0x4
 1135 07a7 9A070000 		.4byte	0x79a
 1136 07ab 1A       		.uleb128 0x1a
 1137 07ac 88050000 		.4byte	.LASF114
ARM GAS  C:\cygwin\tmp\ccaTAaJa.s 			page 21


 1138 07b0 02       		.byte	0x2
 1139 07b1 2002     		.2byte	0x220
 1140 07b3 03       		.byte	0x3
 1141 07b4 C5070000 		.4byte	0x7c5
 1142 07b8 1B       		.uleb128 0x1b
 1143 07b9 88010000 		.4byte	.LASF116
 1144 07bd 02       		.byte	0x2
 1145 07be 2002     		.2byte	0x220
 1146 07c0 AD000000 		.4byte	0xad
 1147 07c4 00       		.byte	0
 1148 07c5 1C       		.uleb128 0x1c
 1149 07c6 42000000 		.4byte	.LASF112
 1150 07ca 0A       		.byte	0xa
 1151 07cb BB01     		.2byte	0x1bb
 1152 07cd 03       		.byte	0x3
 1153 07ce 1C       		.uleb128 0x1c
 1154 07cf E1000000 		.4byte	.LASF113
 1155 07d3 0A       		.byte	0xa
 1156 07d4 C901     		.2byte	0x1c9
 1157 07d6 03       		.byte	0x3
 1158 07d7 1D       		.uleb128 0x1d
 1159 07d8 D6050000 		.4byte	.LASF128
 1160 07dc 02       		.byte	0x2
 1161 07dd A801     		.2byte	0x1a8
 1162 07df AD000000 		.4byte	0xad
 1163 07e3 03       		.byte	0x3
 1164 07e4 F5070000 		.4byte	0x7f5
 1165 07e8 1E       		.uleb128 0x1e
 1166 07e9 38060000 		.4byte	.LASF129
 1167 07ed 02       		.byte	0x2
 1168 07ee AA01     		.2byte	0x1aa
 1169 07f0 AD000000 		.4byte	0xad
 1170 07f4 00       		.byte	0
 1171 07f5 1A       		.uleb128 0x1a
 1172 07f6 AA010000 		.4byte	.LASF115
 1173 07fa 02       		.byte	0x2
 1174 07fb B701     		.2byte	0x1b7
 1175 07fd 03       		.byte	0x3
 1176 07fe 0F080000 		.4byte	0x80f
 1177 0802 1B       		.uleb128 0x1b
 1178 0803 27020000 		.4byte	.LASF117
 1179 0807 02       		.byte	0x2
 1180 0808 B701     		.2byte	0x1b7
 1181 080a AD000000 		.4byte	0xad
 1182 080e 00       		.byte	0
 1183 080f 1C       		.uleb128 0x1c
 1184 0810 3A050000 		.4byte	.LASF118
 1185 0814 0A       		.byte	0xa
 1186 0815 E301     		.2byte	0x1e3
 1187 0817 03       		.byte	0x3
 1188 0818 1C       		.uleb128 0x1c
 1189 0819 C3050000 		.4byte	.LASF119
 1190 081d 0A       		.byte	0xa
 1191 081e D801     		.2byte	0x1d8
 1192 0820 03       		.byte	0x3
 1193 0821 1F       		.uleb128 0x1f
 1194 0822 D1040000 		.4byte	.LASF120
ARM GAS  C:\cygwin\tmp\ccaTAaJa.s 			page 22


 1195 0826 01       		.byte	0x1
 1196 0827 3D       		.byte	0x3d
 1197 0828 00000000 		.4byte	.LFB226
 1198 082c 12000000 		.4byte	.LFE226-.LFB226
 1199 0830 01       		.uleb128 0x1
 1200 0831 9C       		.byte	0x9c
 1201 0832 C2080000 		.4byte	0x8c2
 1202 0836 20       		.uleb128 0x20
 1203 0837 10040000 		.4byte	.LASF122
 1204 083b 01       		.byte	0x1
 1205 083c 3E       		.byte	0x3e
 1206 083d C2080000 		.4byte	0x8c2
 1207 0841 00000000 		.4byte	.LLST0
 1208 0845 21       		.uleb128 0x21
 1209 0846 D7070000 		.4byte	0x7d7
 1210 084a 00000000 		.4byte	.LBB38
 1211 084e 04000000 		.4byte	.LBE38-.LBB38
 1212 0852 01       		.byte	0x1
 1213 0853 46       		.byte	0x46
 1214 0854 6C080000 		.4byte	0x86c
 1215 0858 22       		.uleb128 0x22
 1216 0859 00000000 		.4byte	.LBB39
 1217 085d 04000000 		.4byte	.LBE39-.LBB39
 1218 0861 23       		.uleb128 0x23
 1219 0862 E8070000 		.4byte	0x7e8
 1220 0866 20000000 		.4byte	.LLST1
 1221 086a 00       		.byte	0
 1222 086b 00       		.byte	0
 1223 086c 21       		.uleb128 0x21
 1224 086d F5070000 		.4byte	0x7f5
 1225 0871 06000000 		.4byte	.LBB40
 1226 0875 04000000 		.4byte	.LBE40-.LBB40
 1227 0879 01       		.byte	0x1
 1228 087a 4D       		.byte	0x4d
 1229 087b 89080000 		.4byte	0x889
 1230 087f 24       		.uleb128 0x24
 1231 0880 02080000 		.4byte	0x802
 1232 0884 00000000 		.4byte	.LLST0
 1233 0888 00       		.byte	0
 1234 0889 25       		.uleb128 0x25
 1235 088a 0F080000 		.4byte	0x80f
 1236 088e 0A000000 		.4byte	.LBB42
 1237 0892 08000000 		.4byte	.LBE42-.LBB42
 1238 0896 01       		.byte	0x1
 1239 0897 50       		.byte	0x50
 1240 0898 26       		.uleb128 0x26
 1241 0899 CE070000 		.4byte	0x7ce
 1242 089d 0A000000 		.4byte	.LBB43
 1243 08a1 08000000 		.4byte	.LBE43-.LBB43
 1244 08a5 0A       		.byte	0xa
 1245 08a6 E501     		.2byte	0x1e5
 1246 08a8 26       		.uleb128 0x26
 1247 08a9 AB070000 		.4byte	0x7ab
 1248 08ad 0A000000 		.4byte	.LBB44
 1249 08b1 08000000 		.4byte	.LBE44-.LBB44
 1250 08b5 0A       		.byte	0xa
 1251 08b6 CC01     		.2byte	0x1cc
ARM GAS  C:\cygwin\tmp\ccaTAaJa.s 			page 23


 1252 08b8 27       		.uleb128 0x27
 1253 08b9 B8070000 		.4byte	0x7b8
 1254 08bd 00       		.byte	0
 1255 08be 00       		.byte	0
 1256 08bf 00       		.byte	0
 1257 08c0 00       		.byte	0
 1258 08c1 00       		.byte	0
 1259 08c2 0B       		.uleb128 0xb
 1260 08c3 04       		.byte	0x4
 1261 08c4 70060000 		.4byte	0x670
 1262 08c8 1F       		.uleb128 0x1f
 1263 08c9 F2010000 		.4byte	.LASF121
 1264 08cd 01       		.byte	0x1
 1265 08ce 76       		.byte	0x76
 1266 08cf 00000000 		.4byte	.LFB227
 1267 08d3 50000000 		.4byte	.LFE227-.LFB227
 1268 08d7 01       		.uleb128 0x1
 1269 08d8 9C       		.byte	0x9c
 1270 08d9 BF090000 		.4byte	0x9bf
 1271 08dd 21       		.uleb128 0x21
 1272 08de 18080000 		.4byte	0x818
 1273 08e2 00000000 		.4byte	.LBB46
 1274 08e6 06000000 		.4byte	.LBE46-.LBB46
 1275 08ea 01       		.byte	0x1
 1276 08eb 78       		.byte	0x78
 1277 08ec 19090000 		.4byte	0x919
 1278 08f0 26       		.uleb128 0x26
 1279 08f1 C5070000 		.4byte	0x7c5
 1280 08f5 00000000 		.4byte	.LBB47
 1281 08f9 06000000 		.4byte	.LBE47-.LBB47
 1282 08fd 0A       		.byte	0xa
 1283 08fe DA01     		.2byte	0x1da
 1284 0900 26       		.uleb128 0x26
 1285 0901 AB070000 		.4byte	0x7ab
 1286 0905 00000000 		.4byte	.LBB48
 1287 0909 06000000 		.4byte	.LBE48-.LBB48
 1288 090d 0A       		.byte	0xa
 1289 090e BE01     		.2byte	0x1be
 1290 0910 27       		.uleb128 0x27
 1291 0911 B8070000 		.4byte	0x7b8
 1292 0915 20       		.byte	0x20
 1293 0916 00       		.byte	0
 1294 0917 00       		.byte	0
 1295 0918 00       		.byte	0
 1296 0919 21       		.uleb128 0x21
 1297 091a 0F080000 		.4byte	0x80f
 1298 091e 10000000 		.4byte	.LBB50
 1299 0922 06000000 		.4byte	.LBE50-.LBB50
 1300 0926 01       		.byte	0x1
 1301 0927 A1       		.byte	0xa1
 1302 0928 58090000 		.4byte	0x958
 1303 092c 26       		.uleb128 0x26
 1304 092d CE070000 		.4byte	0x7ce
 1305 0931 10000000 		.4byte	.LBB51
 1306 0935 06000000 		.4byte	.LBE51-.LBB51
 1307 0939 0A       		.byte	0xa
 1308 093a E501     		.2byte	0x1e5
ARM GAS  C:\cygwin\tmp\ccaTAaJa.s 			page 24


 1309 093c 26       		.uleb128 0x26
 1310 093d AB070000 		.4byte	0x7ab
 1311 0941 10000000 		.4byte	.LBB52
 1312 0945 06000000 		.4byte	.LBE52-.LBB52
 1313 0949 0A       		.byte	0xa
 1314 094a CC01     		.2byte	0x1cc
 1315 094c 24       		.uleb128 0x24
 1316 094d B8070000 		.4byte	0x7b8
 1317 0951 40000000 		.4byte	.LLST3
 1318 0955 00       		.byte	0
 1319 0956 00       		.byte	0
 1320 0957 00       		.byte	0
 1321 0958 22       		.uleb128 0x22
 1322 0959 18000000 		.4byte	.LBB54
 1323 095d 38000000 		.4byte	.LBE54-.LBB54
 1324 0961 20       		.uleb128 0x20
 1325 0962 10040000 		.4byte	.LASF122
 1326 0966 01       		.byte	0x1
 1327 0967 7A       		.byte	0x7a
 1328 0968 C2080000 		.4byte	0x8c2
 1329 096c 54000000 		.4byte	.LLST4
 1330 0970 21       		.uleb128 0x21
 1331 0971 D7070000 		.4byte	0x7d7
 1332 0975 18000000 		.4byte	.LBB55
 1333 0979 04000000 		.4byte	.LBE55-.LBB55
 1334 097d 01       		.byte	0x1
 1335 097e 82       		.byte	0x82
 1336 097f 97090000 		.4byte	0x997
 1337 0983 22       		.uleb128 0x22
 1338 0984 18000000 		.4byte	.LBB56
 1339 0988 04000000 		.4byte	.LBE56-.LBB56
 1340 098c 23       		.uleb128 0x23
 1341 098d E8070000 		.4byte	0x7e8
 1342 0991 81000000 		.4byte	.LLST5
 1343 0995 00       		.byte	0
 1344 0996 00       		.byte	0
 1345 0997 21       		.uleb128 0x21
 1346 0998 F5070000 		.4byte	0x7f5
 1347 099c 28000000 		.4byte	.LBB57
 1348 09a0 04000000 		.4byte	.LBE57-.LBB57
 1349 09a4 01       		.byte	0x1
 1350 09a5 8F       		.byte	0x8f
 1351 09a6 B4090000 		.4byte	0x9b4
 1352 09aa 24       		.uleb128 0x24
 1353 09ab 02080000 		.4byte	0x802
 1354 09af 94000000 		.4byte	.LLST6
 1355 09b3 00       		.byte	0
 1356 09b4 28       		.uleb128 0x28
 1357 09b5 30000000 		.4byte	.LVL10
 1358 09b9 D6090000 		.4byte	0x9d6
 1359 09bd 00       		.byte	0
 1360 09be 00       		.byte	0
 1361 09bf 29       		.uleb128 0x29
 1362 09c0 6C040000 		.4byte	.LASF123
 1363 09c4 08       		.byte	0x8
 1364 09c5 A706     		.2byte	0x6a7
 1365 09c7 C3000000 		.4byte	0xc3
ARM GAS  C:\cygwin\tmp\ccaTAaJa.s 			page 25


 1366 09cb 2A       		.uleb128 0x2a
 1367 09cc 636800   		.ascii	"ch\000"
 1368 09cf 07       		.byte	0x7
 1369 09d0 EB01     		.2byte	0x1eb
 1370 09d2 C3030000 		.4byte	0x3c3
 1371 09d6 2B       		.uleb128 0x2b
 1372 09d7 32010000 		.4byte	.LASF130
 1373 09db 07       		.byte	0x7
 1374 09dc FA01     		.2byte	0x1fa
 1375 09de E2090000 		.4byte	0x9e2
 1376 09e2 03       		.uleb128 0x3
 1377 09e3 01       		.byte	0x1
 1378 09e4 02       		.byte	0x2
 1379 09e5 4A040000 		.4byte	.LASF124
 1380 09e9 00       		.byte	0
 1381              		.section	.debug_abbrev,"",%progbits
 1382              	.Ldebug_abbrev0:
 1383 0000 01       		.uleb128 0x1
 1384 0001 11       		.uleb128 0x11
 1385 0002 01       		.byte	0x1
 1386 0003 25       		.uleb128 0x25
 1387 0004 0E       		.uleb128 0xe
 1388 0005 13       		.uleb128 0x13
 1389 0006 0B       		.uleb128 0xb
 1390 0007 03       		.uleb128 0x3
 1391 0008 0E       		.uleb128 0xe
 1392 0009 1B       		.uleb128 0x1b
 1393 000a 0E       		.uleb128 0xe
 1394 000b 55       		.uleb128 0x55
 1395 000c 17       		.uleb128 0x17
 1396 000d 11       		.uleb128 0x11
 1397 000e 01       		.uleb128 0x1
 1398 000f 10       		.uleb128 0x10
 1399 0010 17       		.uleb128 0x17
 1400 0011 00       		.byte	0
 1401 0012 00       		.byte	0
 1402 0013 02       		.uleb128 0x2
 1403 0014 24       		.uleb128 0x24
 1404 0015 00       		.byte	0
 1405 0016 0B       		.uleb128 0xb
 1406 0017 0B       		.uleb128 0xb
 1407 0018 3E       		.uleb128 0x3e
 1408 0019 0B       		.uleb128 0xb
 1409 001a 03       		.uleb128 0x3
 1410 001b 08       		.uleb128 0x8
 1411 001c 00       		.byte	0
 1412 001d 00       		.byte	0
 1413 001e 03       		.uleb128 0x3
 1414 001f 24       		.uleb128 0x24
 1415 0020 00       		.byte	0
 1416 0021 0B       		.uleb128 0xb
 1417 0022 0B       		.uleb128 0xb
 1418 0023 3E       		.uleb128 0x3e
 1419 0024 0B       		.uleb128 0xb
 1420 0025 03       		.uleb128 0x3
 1421 0026 0E       		.uleb128 0xe
 1422 0027 00       		.byte	0
ARM GAS  C:\cygwin\tmp\ccaTAaJa.s 			page 26


 1423 0028 00       		.byte	0
 1424 0029 04       		.uleb128 0x4
 1425 002a 16       		.uleb128 0x16
 1426 002b 00       		.byte	0
 1427 002c 03       		.uleb128 0x3
 1428 002d 0E       		.uleb128 0xe
 1429 002e 3A       		.uleb128 0x3a
 1430 002f 0B       		.uleb128 0xb
 1431 0030 3B       		.uleb128 0x3b
 1432 0031 0B       		.uleb128 0xb
 1433 0032 49       		.uleb128 0x49
 1434 0033 13       		.uleb128 0x13
 1435 0034 00       		.byte	0
 1436 0035 00       		.byte	0
 1437 0036 05       		.uleb128 0x5
 1438 0037 35       		.uleb128 0x35
 1439 0038 00       		.byte	0
 1440 0039 49       		.uleb128 0x49
 1441 003a 13       		.uleb128 0x13
 1442 003b 00       		.byte	0
 1443 003c 00       		.byte	0
 1444 003d 06       		.uleb128 0x6
 1445 003e 13       		.uleb128 0x13
 1446 003f 01       		.byte	0x1
 1447 0040 03       		.uleb128 0x3
 1448 0041 0E       		.uleb128 0xe
 1449 0042 0B       		.uleb128 0xb
 1450 0043 0B       		.uleb128 0xb
 1451 0044 3A       		.uleb128 0x3a
 1452 0045 0B       		.uleb128 0xb
 1453 0046 3B       		.uleb128 0x3b
 1454 0047 0B       		.uleb128 0xb
 1455 0048 01       		.uleb128 0x1
 1456 0049 13       		.uleb128 0x13
 1457 004a 00       		.byte	0
 1458 004b 00       		.byte	0
 1459 004c 07       		.uleb128 0x7
 1460 004d 0D       		.uleb128 0xd
 1461 004e 00       		.byte	0
 1462 004f 03       		.uleb128 0x3
 1463 0050 0E       		.uleb128 0xe
 1464 0051 3A       		.uleb128 0x3a
 1465 0052 0B       		.uleb128 0xb
 1466 0053 3B       		.uleb128 0x3b
 1467 0054 0B       		.uleb128 0xb
 1468 0055 49       		.uleb128 0x49
 1469 0056 13       		.uleb128 0x13
 1470 0057 38       		.uleb128 0x38
 1471 0058 0B       		.uleb128 0xb
 1472 0059 00       		.byte	0
 1473 005a 00       		.byte	0
 1474 005b 08       		.uleb128 0x8
 1475 005c 0D       		.uleb128 0xd
 1476 005d 00       		.byte	0
 1477 005e 03       		.uleb128 0x3
 1478 005f 08       		.uleb128 0x8
 1479 0060 3A       		.uleb128 0x3a
ARM GAS  C:\cygwin\tmp\ccaTAaJa.s 			page 27


 1480 0061 0B       		.uleb128 0xb
 1481 0062 3B       		.uleb128 0x3b
 1482 0063 05       		.uleb128 0x5
 1483 0064 49       		.uleb128 0x49
 1484 0065 13       		.uleb128 0x13
 1485 0066 38       		.uleb128 0x38
 1486 0067 0B       		.uleb128 0xb
 1487 0068 00       		.byte	0
 1488 0069 00       		.byte	0
 1489 006a 09       		.uleb128 0x9
 1490 006b 0D       		.uleb128 0xd
 1491 006c 00       		.byte	0
 1492 006d 03       		.uleb128 0x3
 1493 006e 0E       		.uleb128 0xe
 1494 006f 3A       		.uleb128 0x3a
 1495 0070 0B       		.uleb128 0xb
 1496 0071 3B       		.uleb128 0x3b
 1497 0072 05       		.uleb128 0x5
 1498 0073 49       		.uleb128 0x49
 1499 0074 13       		.uleb128 0x13
 1500 0075 38       		.uleb128 0x38
 1501 0076 0B       		.uleb128 0xb
 1502 0077 00       		.byte	0
 1503 0078 00       		.byte	0
 1504 0079 0A       		.uleb128 0xa
 1505 007a 13       		.uleb128 0x13
 1506 007b 01       		.byte	0x1
 1507 007c 03       		.uleb128 0x3
 1508 007d 0E       		.uleb128 0xe
 1509 007e 0B       		.uleb128 0xb
 1510 007f 0B       		.uleb128 0xb
 1511 0080 3A       		.uleb128 0x3a
 1512 0081 0B       		.uleb128 0xb
 1513 0082 3B       		.uleb128 0x3b
 1514 0083 05       		.uleb128 0x5
 1515 0084 01       		.uleb128 0x1
 1516 0085 13       		.uleb128 0x13
 1517 0086 00       		.byte	0
 1518 0087 00       		.byte	0
 1519 0088 0B       		.uleb128 0xb
 1520 0089 0F       		.uleb128 0xf
 1521 008a 00       		.byte	0
 1522 008b 0B       		.uleb128 0xb
 1523 008c 0B       		.uleb128 0xb
 1524 008d 49       		.uleb128 0x49
 1525 008e 13       		.uleb128 0x13
 1526 008f 00       		.byte	0
 1527 0090 00       		.byte	0
 1528 0091 0C       		.uleb128 0xc
 1529 0092 15       		.uleb128 0x15
 1530 0093 01       		.byte	0x1
 1531 0094 27       		.uleb128 0x27
 1532 0095 19       		.uleb128 0x19
 1533 0096 01       		.uleb128 0x1
 1534 0097 13       		.uleb128 0x13
 1535 0098 00       		.byte	0
 1536 0099 00       		.byte	0
ARM GAS  C:\cygwin\tmp\ccaTAaJa.s 			page 28


 1537 009a 0D       		.uleb128 0xd
 1538 009b 05       		.uleb128 0x5
 1539 009c 00       		.byte	0
 1540 009d 49       		.uleb128 0x49
 1541 009e 13       		.uleb128 0x13
 1542 009f 00       		.byte	0
 1543 00a0 00       		.byte	0
 1544 00a1 0E       		.uleb128 0xe
 1545 00a2 0F       		.uleb128 0xf
 1546 00a3 00       		.byte	0
 1547 00a4 0B       		.uleb128 0xb
 1548 00a5 0B       		.uleb128 0xb
 1549 00a6 00       		.byte	0
 1550 00a7 00       		.byte	0
 1551 00a8 0F       		.uleb128 0xf
 1552 00a9 13       		.uleb128 0x13
 1553 00aa 01       		.byte	0x1
 1554 00ab 03       		.uleb128 0x3
 1555 00ac 0E       		.uleb128 0xe
 1556 00ad 0B       		.uleb128 0xb
 1557 00ae 05       		.uleb128 0x5
 1558 00af 3A       		.uleb128 0x3a
 1559 00b0 0B       		.uleb128 0xb
 1560 00b1 3B       		.uleb128 0x3b
 1561 00b2 05       		.uleb128 0x5
 1562 00b3 01       		.uleb128 0x1
 1563 00b4 13       		.uleb128 0x13
 1564 00b5 00       		.byte	0
 1565 00b6 00       		.byte	0
 1566 00b7 10       		.uleb128 0x10
 1567 00b8 13       		.uleb128 0x13
 1568 00b9 01       		.byte	0x1
 1569 00ba 0B       		.uleb128 0xb
 1570 00bb 0B       		.uleb128 0xb
 1571 00bc 3A       		.uleb128 0x3a
 1572 00bd 0B       		.uleb128 0xb
 1573 00be 3B       		.uleb128 0x3b
 1574 00bf 05       		.uleb128 0x5
 1575 00c0 01       		.uleb128 0x1
 1576 00c1 13       		.uleb128 0x13
 1577 00c2 00       		.byte	0
 1578 00c3 00       		.byte	0
 1579 00c4 11       		.uleb128 0x11
 1580 00c5 26       		.uleb128 0x26
 1581 00c6 00       		.byte	0
 1582 00c7 49       		.uleb128 0x49
 1583 00c8 13       		.uleb128 0x13
 1584 00c9 00       		.byte	0
 1585 00ca 00       		.byte	0
 1586 00cb 12       		.uleb128 0x12
 1587 00cc 01       		.uleb128 0x1
 1588 00cd 01       		.byte	0x1
 1589 00ce 49       		.uleb128 0x49
 1590 00cf 13       		.uleb128 0x13
 1591 00d0 01       		.uleb128 0x1
 1592 00d1 13       		.uleb128 0x13
 1593 00d2 00       		.byte	0
ARM GAS  C:\cygwin\tmp\ccaTAaJa.s 			page 29


 1594 00d3 00       		.byte	0
 1595 00d4 13       		.uleb128 0x13
 1596 00d5 21       		.uleb128 0x21
 1597 00d6 00       		.byte	0
 1598 00d7 49       		.uleb128 0x49
 1599 00d8 13       		.uleb128 0x13
 1600 00d9 2F       		.uleb128 0x2f
 1601 00da 0B       		.uleb128 0xb
 1602 00db 00       		.byte	0
 1603 00dc 00       		.byte	0
 1604 00dd 14       		.uleb128 0x14
 1605 00de 16       		.uleb128 0x16
 1606 00df 00       		.byte	0
 1607 00e0 03       		.uleb128 0x3
 1608 00e1 0E       		.uleb128 0xe
 1609 00e2 3A       		.uleb128 0x3a
 1610 00e3 0B       		.uleb128 0xb
 1611 00e4 3B       		.uleb128 0x3b
 1612 00e5 05       		.uleb128 0x5
 1613 00e6 49       		.uleb128 0x49
 1614 00e7 13       		.uleb128 0x13
 1615 00e8 00       		.byte	0
 1616 00e9 00       		.byte	0
 1617 00ea 15       		.uleb128 0x15
 1618 00eb 0D       		.uleb128 0xd
 1619 00ec 00       		.byte	0
 1620 00ed 03       		.uleb128 0x3
 1621 00ee 08       		.uleb128 0x8
 1622 00ef 3A       		.uleb128 0x3a
 1623 00f0 0B       		.uleb128 0xb
 1624 00f1 3B       		.uleb128 0x3b
 1625 00f2 0B       		.uleb128 0xb
 1626 00f3 49       		.uleb128 0x49
 1627 00f4 13       		.uleb128 0x13
 1628 00f5 38       		.uleb128 0x38
 1629 00f6 0B       		.uleb128 0xb
 1630 00f7 00       		.byte	0
 1631 00f8 00       		.byte	0
 1632 00f9 16       		.uleb128 0x16
 1633 00fa 13       		.uleb128 0x13
 1634 00fb 01       		.byte	0x1
 1635 00fc 0B       		.uleb128 0xb
 1636 00fd 0B       		.uleb128 0xb
 1637 00fe 3A       		.uleb128 0x3a
 1638 00ff 0B       		.uleb128 0xb
 1639 0100 3B       		.uleb128 0x3b
 1640 0101 0B       		.uleb128 0xb
 1641 0102 01       		.uleb128 0x1
 1642 0103 13       		.uleb128 0x13
 1643 0104 00       		.byte	0
 1644 0105 00       		.byte	0
 1645 0106 17       		.uleb128 0x17
 1646 0107 17       		.uleb128 0x17
 1647 0108 01       		.byte	0x1
 1648 0109 0B       		.uleb128 0xb
 1649 010a 0B       		.uleb128 0xb
 1650 010b 3A       		.uleb128 0x3a
ARM GAS  C:\cygwin\tmp\ccaTAaJa.s 			page 30


 1651 010c 0B       		.uleb128 0xb
 1652 010d 3B       		.uleb128 0x3b
 1653 010e 0B       		.uleb128 0xb
 1654 010f 01       		.uleb128 0x1
 1655 0110 13       		.uleb128 0x13
 1656 0111 00       		.byte	0
 1657 0112 00       		.byte	0
 1658 0113 18       		.uleb128 0x18
 1659 0114 0D       		.uleb128 0xd
 1660 0115 00       		.byte	0
 1661 0116 03       		.uleb128 0x3
 1662 0117 0E       		.uleb128 0xe
 1663 0118 3A       		.uleb128 0x3a
 1664 0119 0B       		.uleb128 0xb
 1665 011a 3B       		.uleb128 0x3b
 1666 011b 0B       		.uleb128 0xb
 1667 011c 49       		.uleb128 0x49
 1668 011d 13       		.uleb128 0x13
 1669 011e 00       		.byte	0
 1670 011f 00       		.byte	0
 1671 0120 19       		.uleb128 0x19
 1672 0121 0D       		.uleb128 0xd
 1673 0122 00       		.byte	0
 1674 0123 03       		.uleb128 0x3
 1675 0124 0E       		.uleb128 0xe
 1676 0125 3A       		.uleb128 0x3a
 1677 0126 0B       		.uleb128 0xb
 1678 0127 3B       		.uleb128 0x3b
 1679 0128 05       		.uleb128 0x5
 1680 0129 49       		.uleb128 0x49
 1681 012a 13       		.uleb128 0x13
 1682 012b 00       		.byte	0
 1683 012c 00       		.byte	0
 1684 012d 1A       		.uleb128 0x1a
 1685 012e 2E       		.uleb128 0x2e
 1686 012f 01       		.byte	0x1
 1687 0130 03       		.uleb128 0x3
 1688 0131 0E       		.uleb128 0xe
 1689 0132 3A       		.uleb128 0x3a
 1690 0133 0B       		.uleb128 0xb
 1691 0134 3B       		.uleb128 0x3b
 1692 0135 05       		.uleb128 0x5
 1693 0136 27       		.uleb128 0x27
 1694 0137 19       		.uleb128 0x19
 1695 0138 20       		.uleb128 0x20
 1696 0139 0B       		.uleb128 0xb
 1697 013a 01       		.uleb128 0x1
 1698 013b 13       		.uleb128 0x13
 1699 013c 00       		.byte	0
 1700 013d 00       		.byte	0
 1701 013e 1B       		.uleb128 0x1b
 1702 013f 05       		.uleb128 0x5
 1703 0140 00       		.byte	0
 1704 0141 03       		.uleb128 0x3
 1705 0142 0E       		.uleb128 0xe
 1706 0143 3A       		.uleb128 0x3a
 1707 0144 0B       		.uleb128 0xb
ARM GAS  C:\cygwin\tmp\ccaTAaJa.s 			page 31


 1708 0145 3B       		.uleb128 0x3b
 1709 0146 05       		.uleb128 0x5
 1710 0147 49       		.uleb128 0x49
 1711 0148 13       		.uleb128 0x13
 1712 0149 00       		.byte	0
 1713 014a 00       		.byte	0
 1714 014b 1C       		.uleb128 0x1c
 1715 014c 2E       		.uleb128 0x2e
 1716 014d 00       		.byte	0
 1717 014e 03       		.uleb128 0x3
 1718 014f 0E       		.uleb128 0xe
 1719 0150 3A       		.uleb128 0x3a
 1720 0151 0B       		.uleb128 0xb
 1721 0152 3B       		.uleb128 0x3b
 1722 0153 05       		.uleb128 0x5
 1723 0154 27       		.uleb128 0x27
 1724 0155 19       		.uleb128 0x19
 1725 0156 20       		.uleb128 0x20
 1726 0157 0B       		.uleb128 0xb
 1727 0158 00       		.byte	0
 1728 0159 00       		.byte	0
 1729 015a 1D       		.uleb128 0x1d
 1730 015b 2E       		.uleb128 0x2e
 1731 015c 01       		.byte	0x1
 1732 015d 03       		.uleb128 0x3
 1733 015e 0E       		.uleb128 0xe
 1734 015f 3A       		.uleb128 0x3a
 1735 0160 0B       		.uleb128 0xb
 1736 0161 3B       		.uleb128 0x3b
 1737 0162 05       		.uleb128 0x5
 1738 0163 27       		.uleb128 0x27
 1739 0164 19       		.uleb128 0x19
 1740 0165 49       		.uleb128 0x49
 1741 0166 13       		.uleb128 0x13
 1742 0167 20       		.uleb128 0x20
 1743 0168 0B       		.uleb128 0xb
 1744 0169 01       		.uleb128 0x1
 1745 016a 13       		.uleb128 0x13
 1746 016b 00       		.byte	0
 1747 016c 00       		.byte	0
 1748 016d 1E       		.uleb128 0x1e
 1749 016e 34       		.uleb128 0x34
 1750 016f 00       		.byte	0
 1751 0170 03       		.uleb128 0x3
 1752 0171 0E       		.uleb128 0xe
 1753 0172 3A       		.uleb128 0x3a
 1754 0173 0B       		.uleb128 0xb
 1755 0174 3B       		.uleb128 0x3b
 1756 0175 05       		.uleb128 0x5
 1757 0176 49       		.uleb128 0x49
 1758 0177 13       		.uleb128 0x13
 1759 0178 00       		.byte	0
 1760 0179 00       		.byte	0
 1761 017a 1F       		.uleb128 0x1f
 1762 017b 2E       		.uleb128 0x2e
 1763 017c 01       		.byte	0x1
 1764 017d 3F       		.uleb128 0x3f
ARM GAS  C:\cygwin\tmp\ccaTAaJa.s 			page 32


 1765 017e 19       		.uleb128 0x19
 1766 017f 03       		.uleb128 0x3
 1767 0180 0E       		.uleb128 0xe
 1768 0181 3A       		.uleb128 0x3a
 1769 0182 0B       		.uleb128 0xb
 1770 0183 3B       		.uleb128 0x3b
 1771 0184 0B       		.uleb128 0xb
 1772 0185 27       		.uleb128 0x27
 1773 0186 19       		.uleb128 0x19
 1774 0187 11       		.uleb128 0x11
 1775 0188 01       		.uleb128 0x1
 1776 0189 12       		.uleb128 0x12
 1777 018a 06       		.uleb128 0x6
 1778 018b 40       		.uleb128 0x40
 1779 018c 18       		.uleb128 0x18
 1780 018d 9742     		.uleb128 0x2117
 1781 018f 19       		.uleb128 0x19
 1782 0190 01       		.uleb128 0x1
 1783 0191 13       		.uleb128 0x13
 1784 0192 00       		.byte	0
 1785 0193 00       		.byte	0
 1786 0194 20       		.uleb128 0x20
 1787 0195 34       		.uleb128 0x34
 1788 0196 00       		.byte	0
 1789 0197 03       		.uleb128 0x3
 1790 0198 0E       		.uleb128 0xe
 1791 0199 3A       		.uleb128 0x3a
 1792 019a 0B       		.uleb128 0xb
 1793 019b 3B       		.uleb128 0x3b
 1794 019c 0B       		.uleb128 0xb
 1795 019d 49       		.uleb128 0x49
 1796 019e 13       		.uleb128 0x13
 1797 019f 02       		.uleb128 0x2
 1798 01a0 17       		.uleb128 0x17
 1799 01a1 00       		.byte	0
 1800 01a2 00       		.byte	0
 1801 01a3 21       		.uleb128 0x21
 1802 01a4 1D       		.uleb128 0x1d
 1803 01a5 01       		.byte	0x1
 1804 01a6 31       		.uleb128 0x31
 1805 01a7 13       		.uleb128 0x13
 1806 01a8 11       		.uleb128 0x11
 1807 01a9 01       		.uleb128 0x1
 1808 01aa 12       		.uleb128 0x12
 1809 01ab 06       		.uleb128 0x6
 1810 01ac 58       		.uleb128 0x58
 1811 01ad 0B       		.uleb128 0xb
 1812 01ae 59       		.uleb128 0x59
 1813 01af 0B       		.uleb128 0xb
 1814 01b0 01       		.uleb128 0x1
 1815 01b1 13       		.uleb128 0x13
 1816 01b2 00       		.byte	0
 1817 01b3 00       		.byte	0
 1818 01b4 22       		.uleb128 0x22
 1819 01b5 0B       		.uleb128 0xb
 1820 01b6 01       		.byte	0x1
 1821 01b7 11       		.uleb128 0x11
ARM GAS  C:\cygwin\tmp\ccaTAaJa.s 			page 33


 1822 01b8 01       		.uleb128 0x1
 1823 01b9 12       		.uleb128 0x12
 1824 01ba 06       		.uleb128 0x6
 1825 01bb 00       		.byte	0
 1826 01bc 00       		.byte	0
 1827 01bd 23       		.uleb128 0x23
 1828 01be 34       		.uleb128 0x34
 1829 01bf 00       		.byte	0
 1830 01c0 31       		.uleb128 0x31
 1831 01c1 13       		.uleb128 0x13
 1832 01c2 02       		.uleb128 0x2
 1833 01c3 17       		.uleb128 0x17
 1834 01c4 00       		.byte	0
 1835 01c5 00       		.byte	0
 1836 01c6 24       		.uleb128 0x24
 1837 01c7 05       		.uleb128 0x5
 1838 01c8 00       		.byte	0
 1839 01c9 31       		.uleb128 0x31
 1840 01ca 13       		.uleb128 0x13
 1841 01cb 02       		.uleb128 0x2
 1842 01cc 17       		.uleb128 0x17
 1843 01cd 00       		.byte	0
 1844 01ce 00       		.byte	0
 1845 01cf 25       		.uleb128 0x25
 1846 01d0 1D       		.uleb128 0x1d
 1847 01d1 01       		.byte	0x1
 1848 01d2 31       		.uleb128 0x31
 1849 01d3 13       		.uleb128 0x13
 1850 01d4 11       		.uleb128 0x11
 1851 01d5 01       		.uleb128 0x1
 1852 01d6 12       		.uleb128 0x12
 1853 01d7 06       		.uleb128 0x6
 1854 01d8 58       		.uleb128 0x58
 1855 01d9 0B       		.uleb128 0xb
 1856 01da 59       		.uleb128 0x59
 1857 01db 0B       		.uleb128 0xb
 1858 01dc 00       		.byte	0
 1859 01dd 00       		.byte	0
 1860 01de 26       		.uleb128 0x26
 1861 01df 1D       		.uleb128 0x1d
 1862 01e0 01       		.byte	0x1
 1863 01e1 31       		.uleb128 0x31
 1864 01e2 13       		.uleb128 0x13
 1865 01e3 11       		.uleb128 0x11
 1866 01e4 01       		.uleb128 0x1
 1867 01e5 12       		.uleb128 0x12
 1868 01e6 06       		.uleb128 0x6
 1869 01e7 58       		.uleb128 0x58
 1870 01e8 0B       		.uleb128 0xb
 1871 01e9 59       		.uleb128 0x59
 1872 01ea 05       		.uleb128 0x5
 1873 01eb 00       		.byte	0
 1874 01ec 00       		.byte	0
 1875 01ed 27       		.uleb128 0x27
 1876 01ee 05       		.uleb128 0x5
 1877 01ef 00       		.byte	0
 1878 01f0 31       		.uleb128 0x31
ARM GAS  C:\cygwin\tmp\ccaTAaJa.s 			page 34


 1879 01f1 13       		.uleb128 0x13
 1880 01f2 1C       		.uleb128 0x1c
 1881 01f3 0B       		.uleb128 0xb
 1882 01f4 00       		.byte	0
 1883 01f5 00       		.byte	0
 1884 01f6 28       		.uleb128 0x28
 1885 01f7 898201   		.uleb128 0x4109
 1886 01fa 00       		.byte	0
 1887 01fb 11       		.uleb128 0x11
 1888 01fc 01       		.uleb128 0x1
 1889 01fd 31       		.uleb128 0x31
 1890 01fe 13       		.uleb128 0x13
 1891 01ff 00       		.byte	0
 1892 0200 00       		.byte	0
 1893 0201 29       		.uleb128 0x29
 1894 0202 34       		.uleb128 0x34
 1895 0203 00       		.byte	0
 1896 0204 03       		.uleb128 0x3
 1897 0205 0E       		.uleb128 0xe
 1898 0206 3A       		.uleb128 0x3a
 1899 0207 0B       		.uleb128 0xb
 1900 0208 3B       		.uleb128 0x3b
 1901 0209 05       		.uleb128 0x5
 1902 020a 49       		.uleb128 0x49
 1903 020b 13       		.uleb128 0x13
 1904 020c 3F       		.uleb128 0x3f
 1905 020d 19       		.uleb128 0x19
 1906 020e 3C       		.uleb128 0x3c
 1907 020f 19       		.uleb128 0x19
 1908 0210 00       		.byte	0
 1909 0211 00       		.byte	0
 1910 0212 2A       		.uleb128 0x2a
 1911 0213 34       		.uleb128 0x34
 1912 0214 00       		.byte	0
 1913 0215 03       		.uleb128 0x3
 1914 0216 08       		.uleb128 0x8
 1915 0217 3A       		.uleb128 0x3a
 1916 0218 0B       		.uleb128 0xb
 1917 0219 3B       		.uleb128 0x3b
 1918 021a 05       		.uleb128 0x5
 1919 021b 49       		.uleb128 0x49
 1920 021c 13       		.uleb128 0x13
 1921 021d 3F       		.uleb128 0x3f
 1922 021e 19       		.uleb128 0x19
 1923 021f 3C       		.uleb128 0x3c
 1924 0220 19       		.uleb128 0x19
 1925 0221 00       		.byte	0
 1926 0222 00       		.byte	0
 1927 0223 2B       		.uleb128 0x2b
 1928 0224 2E       		.uleb128 0x2e
 1929 0225 00       		.byte	0
 1930 0226 3F       		.uleb128 0x3f
 1931 0227 19       		.uleb128 0x19
 1932 0228 03       		.uleb128 0x3
 1933 0229 0E       		.uleb128 0xe
 1934 022a 3A       		.uleb128 0x3a
 1935 022b 0B       		.uleb128 0xb
ARM GAS  C:\cygwin\tmp\ccaTAaJa.s 			page 35


 1936 022c 3B       		.uleb128 0x3b
 1937 022d 05       		.uleb128 0x5
 1938 022e 27       		.uleb128 0x27
 1939 022f 19       		.uleb128 0x19
 1940 0230 49       		.uleb128 0x49
 1941 0231 13       		.uleb128 0x13
 1942 0232 3C       		.uleb128 0x3c
 1943 0233 19       		.uleb128 0x19
 1944 0234 00       		.byte	0
 1945 0235 00       		.byte	0
 1946 0236 00       		.byte	0
 1947              		.section	.debug_loc,"",%progbits
 1948              	.Ldebug_loc0:
 1949              	.LLST0:
 1950 0000 04000000 		.4byte	.LVL0
 1951 0004 06000000 		.4byte	.LVL1
 1952 0008 0300     		.2byte	0x3
 1953 000a 73       		.byte	0x73
 1954 000b 20       		.sleb128 32
 1955 000c 9F       		.byte	0x9f
 1956 000d 06000000 		.4byte	.LVL1
 1957 0011 0C000000 		.4byte	.LVL3
 1958 0015 0100     		.2byte	0x1
 1959 0017 53       		.byte	0x53
 1960 0018 00000000 		.4byte	0
 1961 001c 00000000 		.4byte	0
 1962              	.LLST1:
 1963 0020 04000000 		.4byte	.LVL0
 1964 0024 06000000 		.4byte	.LVL1
 1965 0028 0100     		.2byte	0x1
 1966 002a 53       		.byte	0x53
 1967 002b 06000000 		.4byte	.LVL1
 1968 002f 0C000000 		.4byte	.LVL3
 1969 0033 0300     		.2byte	0x3
 1970 0035 73       		.byte	0x73
 1971 0036 60       		.sleb128 -32
 1972 0037 9F       		.byte	0x9f
 1973 0038 00000000 		.4byte	0
 1974 003c 00000000 		.4byte	0
 1975              	.LLST3:
 1976 0040 10000000 		.4byte	.LVL5
 1977 0044 16000000 		.4byte	.LVL6
 1978 0048 0200     		.2byte	0x2
 1979 004a 30       		.byte	0x30
 1980 004b 9F       		.byte	0x9f
 1981 004c 00000000 		.4byte	0
 1982 0050 00000000 		.4byte	0
 1983              	.LLST4:
 1984 0054 1C000000 		.4byte	.LVL7
 1985 0058 28000000 		.4byte	.LVL9
 1986 005c 0300     		.2byte	0x3
 1987 005e 74       		.byte	0x74
 1988 005f 60       		.sleb128 -32
 1989 0060 9F       		.byte	0x9f
 1990 0061 28000000 		.4byte	.LVL9
 1991 0065 2F000000 		.4byte	.LVL10-1
 1992 0069 0100     		.2byte	0x1
ARM GAS  C:\cygwin\tmp\ccaTAaJa.s 			page 36


 1993 006b 53       		.byte	0x53
 1994 006c 2F000000 		.4byte	.LVL10-1
 1995 0070 42000000 		.4byte	.LVL12
 1996 0074 0300     		.2byte	0x3
 1997 0076 74       		.byte	0x74
 1998 0077 60       		.sleb128 -32
 1999 0078 9F       		.byte	0x9f
 2000 0079 00000000 		.4byte	0
 2001 007d 00000000 		.4byte	0
 2002              	.LLST5:
 2003 0081 1C000000 		.4byte	.LVL7
 2004 0085 42000000 		.4byte	.LVL12
 2005 0089 0100     		.2byte	0x1
 2006 008b 54       		.byte	0x54
 2007 008c 00000000 		.4byte	0
 2008 0090 00000000 		.4byte	0
 2009              	.LLST6:
 2010 0094 24000000 		.4byte	.LVL8
 2011 0098 28000000 		.4byte	.LVL9
 2012 009c 0300     		.2byte	0x3
 2013 009e 74       		.byte	0x74
 2014 009f 60       		.sleb128 -32
 2015 00a0 9F       		.byte	0x9f
 2016 00a1 28000000 		.4byte	.LVL9
 2017 00a5 2F000000 		.4byte	.LVL10-1
 2018 00a9 0100     		.2byte	0x1
 2019 00ab 53       		.byte	0x53
 2020 00ac 2F000000 		.4byte	.LVL10-1
 2021 00b0 42000000 		.4byte	.LVL12
 2022 00b4 0300     		.2byte	0x3
 2023 00b6 74       		.byte	0x74
 2024 00b7 60       		.sleb128 -32
 2025 00b8 9F       		.byte	0x9f
 2026 00b9 00000000 		.4byte	0
 2027 00bd 00000000 		.4byte	0
 2028              		.section	.debug_aranges,"",%progbits
 2029 0000 24000000 		.4byte	0x24
 2030 0004 0200     		.2byte	0x2
 2031 0006 00000000 		.4byte	.Ldebug_info0
 2032 000a 04       		.byte	0x4
 2033 000b 00       		.byte	0
 2034 000c 0000     		.2byte	0
 2035 000e 0000     		.2byte	0
 2036 0010 00000000 		.4byte	.LFB226
 2037 0014 12000000 		.4byte	.LFE226-.LFB226
 2038 0018 00000000 		.4byte	.LFB227
 2039 001c 50000000 		.4byte	.LFE227-.LFB227
 2040 0020 00000000 		.4byte	0
 2041 0024 00000000 		.4byte	0
 2042              		.section	.debug_ranges,"",%progbits
 2043              	.Ldebug_ranges0:
 2044 0000 00000000 		.4byte	.LFB226
 2045 0004 12000000 		.4byte	.LFE226
 2046 0008 00000000 		.4byte	.LFB227
 2047 000c 50000000 		.4byte	.LFE227
 2048 0010 00000000 		.4byte	0
 2049 0014 00000000 		.4byte	0
ARM GAS  C:\cygwin\tmp\ccaTAaJa.s 			page 37


 2050              		.section	.debug_line,"",%progbits
 2051              	.Ldebug_line0:
 2052 0000 3F020000 		.section	.debug_str,"MS",%progbits,1
 2052      0200D101 
 2052      00000201 
 2052      FB0E0D00 
 2052      01010101 
 2053              	.LASF48:
 2054 0000 72656164 		.ascii	"ready_list_t\000"
 2054      795F6C69 
 2054      73745F74 
 2054      00
 2055              	.LASF102:
 2056 000d 7264796D 		.ascii	"rdymsg\000"
 2056      736700
 2057              	.LASF16:
 2058 0014 75696E74 		.ascii	"uint64_t\000"
 2058      36345F74 
 2058      00
 2059              	.LASF5:
 2060 001d 5F5F7569 		.ascii	"__uint8_t\000"
 2060      6E74385F 
 2060      7400
 2061              	.LASF96:
 2062 0027 706F7274 		.ascii	"port_intctx\000"
 2062      5F696E74 
 2062      63747800 
 2063              	.LASF67:
 2064 0033 73797374 		.ascii	"system_debug_t\000"
 2064      656D5F64 
 2064      65627567 
 2064      5F7400
 2065              	.LASF112:
 2066 0042 706F7274 		.ascii	"port_lock\000"
 2066      5F6C6F63 
 2066      6B00
 2067              	.LASF12:
 2068 004c 6C6F6E67 		.ascii	"long long unsigned int\000"
 2068      206C6F6E 
 2068      6720756E 
 2068      7369676E 
 2068      65642069 
 2069              	.LASF103:
 2070 0063 65786974 		.ascii	"exitcode\000"
 2070      636F6465 
 2070      00
 2071              	.LASF74:
 2072 006c 6D61696E 		.ascii	"mainthread\000"
 2072      74687265 
 2072      616400
 2073              	.LASF64:
 2074 0077 76697274 		.ascii	"virtual_timers_list_t\000"
 2074      75616C5F 
 2074      74696D65 
 2074      72735F6C 
 2074      6973745F 
 2075              	.LASF77:
ARM GAS  C:\cygwin\tmp\ccaTAaJa.s 			page 38


 2076 008d 43505549 		.ascii	"CPUID\000"
 2076      4400
 2077              	.LASF47:
 2078 0093 63685F74 		.ascii	"ch_threads_queue\000"
 2078      68726561 
 2078      64735F71 
 2078      75657565 
 2078      00
 2079              	.LASF28:
 2080 00a4 705F7072 		.ascii	"p_prio\000"
 2080      696F00
 2081              	.LASF89:
 2082 00ab 49534152 		.ascii	"ISAR\000"
 2082      00
 2083              	.LASF10:
 2084 00b0 6C6F6E67 		.ascii	"long long int\000"
 2084      206C6F6E 
 2084      6720696E 
 2084      7400
 2085              	.LASF1:
 2086 00be 7369676E 		.ascii	"signed char\000"
 2086      65642063 
 2086      68617200 
 2087              	.LASF42:
 2088 00ca 705F6D70 		.ascii	"p_mpool\000"
 2088      6F6F6C00 
 2089              	.LASF108:
 2090 00d2 6D5F7175 		.ascii	"m_queue\000"
 2090      65756500 
 2091              	.LASF73:
 2092 00da 76746C69 		.ascii	"vtlist\000"
 2092      737400
 2093              	.LASF113:
 2094 00e1 706F7274 		.ascii	"port_unlock\000"
 2094      5F756E6C 
 2094      6F636B00 
 2095              	.LASF71:
 2096 00ed 63685F73 		.ascii	"ch_system\000"
 2096      79737465 
 2096      6D00
 2097              	.LASF7:
 2098 00f7 6C6F6E67 		.ascii	"long int\000"
 2098      20696E74 
 2098      00
 2099              	.LASF19:
 2100 0100 74737461 		.ascii	"tstate_t\000"
 2100      74655F74 
 2100      00
 2101              	.LASF126:
 2102 0109 2E2E2F2E 		.ascii	"../../../os/rt/ports/ARMCMx/chcore_v7m.c\000"
 2102      2E2F2E2E 
 2102      2F6F732F 
 2102      72742F70 
 2102      6F727473 
 2103              	.LASF130:
 2104 0132 63685363 		.ascii	"chSchIsPreemptionRequired\000"
 2104      68497350 
ARM GAS  C:\cygwin\tmp\ccaTAaJa.s 			page 39


 2104      7265656D 
 2104      7074696F 
 2104      6E526571 
 2105              	.LASF30:
 2106 014c 705F6E65 		.ascii	"p_newer\000"
 2106      77657200 
 2107              	.LASF86:
 2108 0154 42464152 		.ascii	"BFAR\000"
 2108      00
 2109              	.LASF87:
 2110 0159 41465352 		.ascii	"AFSR\000"
 2110      00
 2111              	.LASF53:
 2112 015e 725F6E65 		.ascii	"r_newer\000"
 2112      77657200 
 2113              	.LASF93:
 2114 0166 72656761 		.ascii	"regarm_t\000"
 2114      726D5F74 
 2114      00
 2115              	.LASF60:
 2116 016f 76745F70 		.ascii	"vt_prev\000"
 2116      72657600 
 2117              	.LASF92:
 2118 0177 5343425F 		.ascii	"SCB_Type\000"
 2118      54797065 
 2118      00
 2119              	.LASF111:
 2120 0180 6D757465 		.ascii	"mutex_t\000"
 2120      785F7400 
 2121              	.LASF116:
 2122 0188 76616C75 		.ascii	"value\000"
 2122      6500
 2123              	.LASF75:
 2124 018e 69646C65 		.ascii	"idle_thread_wa\000"
 2124      5F746872 
 2124      6561645F 
 2124      776100
 2125              	.LASF0:
 2126 019d 756E7369 		.ascii	"unsigned int\000"
 2126      676E6564 
 2126      20696E74 
 2126      00
 2127              	.LASF115:
 2128 01aa 5F5F7365 		.ascii	"__set_PSP\000"
 2128      745F5053 
 2128      5000
 2129              	.LASF59:
 2130 01b4 76745F6E 		.ascii	"vt_next\000"
 2130      65787400 
 2131              	.LASF37:
 2132 01bc 705F6D73 		.ascii	"p_msgqueue\000"
 2132      67717565 
 2132      756500
 2133              	.LASF79:
 2134 01c7 56544F52 		.ascii	"VTOR\000"
 2134      00
 2135              	.LASF44:
ARM GAS  C:\cygwin\tmp\ccaTAaJa.s 			page 40


 2136 01cc 63685F74 		.ascii	"ch_thread\000"
 2136      68726561 
 2136      6400
 2137              	.LASF78:
 2138 01d6 49435352 		.ascii	"ICSR\000"
 2138      00
 2139              	.LASF22:
 2140 01db 6D73675F 		.ascii	"msg_t\000"
 2140      7400
 2141              	.LASF80:
 2142 01e1 41495243 		.ascii	"AIRCR\000"
 2142      5200
 2143              	.LASF84:
 2144 01e7 44465352 		.ascii	"DFSR\000"
 2144      00
 2145              	.LASF85:
 2146 01ec 4D4D4641 		.ascii	"MMFAR\000"
 2146      5200
 2147              	.LASF121:
 2148 01f2 5F706F72 		.ascii	"_port_irq_epilogue\000"
 2148      745F6972 
 2148      715F6570 
 2148      696C6F67 
 2148      756500
 2149              	.LASF18:
 2150 0205 746D6F64 		.ascii	"tmode_t\000"
 2150      655F7400 
 2151              	.LASF49:
 2152 020d 63685F72 		.ascii	"ch_ready_list\000"
 2152      65616479 
 2152      5F6C6973 
 2152      7400
 2153              	.LASF23:
 2154 021b 6576656E 		.ascii	"eventmask_t\000"
 2154      746D6173 
 2154      6B5F7400 
 2155              	.LASF117:
 2156 0227 746F704F 		.ascii	"topOfProcStack\000"
 2156      6650726F 
 2156      63537461 
 2156      636B00
 2157              	.LASF6:
 2158 0236 5F5F696E 		.ascii	"__int32_t\000"
 2158      7433325F 
 2158      7400
 2159              	.LASF125:
 2160 0240 474E5520 		.ascii	"GNU C 4.9.3 20141119 (release) [ARM/embedded-4_9-br"
 2160      4320342E 
 2160      392E3320 
 2160      32303134 
 2160      31313139 
 2161 0273 616E6368 		.ascii	"anch revision 218278] -mcpu=cortex-m4 -mno-thumb-in"
 2161      20726576 
 2161      6973696F 
 2161      6E203231 
 2161      38323738 
 2162 02a6 74657277 		.ascii	"terwork -mthumb -ggdb -O2 -fomit-frame-pointer -fal"
ARM GAS  C:\cygwin\tmp\ccaTAaJa.s 			page 41


 2162      6F726B20 
 2162      2D6D7468 
 2162      756D6220 
 2162      2D676764 
 2163 02d9 69676E2D 		.ascii	"ign-functions=16 -ffunction-sections -fdata-section"
 2163      66756E63 
 2163      74696F6E 
 2163      733D3136 
 2163      202D6666 
 2164 030c 73202D66 		.ascii	"s -fno-common\000"
 2164      6E6F2D63 
 2164      6F6D6D6F 
 2164      6E00
 2165              	.LASF94:
 2166 031a 73746B61 		.ascii	"stkalign_t\000"
 2166      6C69676E 
 2166      5F7400
 2167              	.LASF43:
 2168 0325 74687265 		.ascii	"threads_list_t\000"
 2168      6164735F 
 2168      6C697374 
 2168      5F7400
 2169              	.LASF36:
 2170 0334 705F7761 		.ascii	"p_waiting\000"
 2170      6974696E 
 2170      6700
 2171              	.LASF76:
 2172 033e 73697A65 		.ascii	"sizetype\000"
 2172      74797065 
 2172      00
 2173              	.LASF65:
 2174 0347 63685F76 		.ascii	"ch_virtual_timers_list\000"
 2174      69727475 
 2174      616C5F74 
 2174      696D6572 
 2174      735F6C69 
 2175              	.LASF82:
 2176 035e 43465352 		.ascii	"CFSR\000"
 2176      00
 2177              	.LASF66:
 2178 0363 76745F6C 		.ascii	"vt_lasttime\000"
 2178      61737474 
 2178      696D6500 
 2179              	.LASF31:
 2180 036f 705F6F6C 		.ascii	"p_older\000"
 2180      64657200 
 2181              	.LASF52:
 2182 0377 725F6374 		.ascii	"r_ctx\000"
 2182      7800
 2183              	.LASF97:
 2184 037d 706F7274 		.ascii	"port_extctx\000"
 2184      5F657874 
 2184      63747800 
 2185              	.LASF101:
 2186 0389 746D5F63 		.ascii	"tm_calibration_t\000"
 2186      616C6962 
 2186      72617469 
ARM GAS  C:\cygwin\tmp\ccaTAaJa.s 			page 42


 2186      6F6E5F74 
 2186      00
 2187              	.LASF55:
 2188 039a 725F6375 		.ascii	"r_current\000"
 2188      7272656E 
 2188      7400
 2189              	.LASF54:
 2190 03a4 725F6F6C 		.ascii	"r_older\000"
 2190      64657200 
 2191              	.LASF11:
 2192 03ac 5F5F7569 		.ascii	"__uint64_t\000"
 2192      6E743634 
 2192      5F7400
 2193              	.LASF127:
 2194 03b7 433A5C55 		.ascii	"C:\\Users\\Jo\\Documents\\GitHub\\ChibiOS\\demos\\S"
 2194      73657273 
 2194      5C4A6F5C 
 2194      446F6375 
 2194      6D656E74 
 2195 03e3 544D3332 		.ascii	"TM32\\RT-STM32F401RE-NUCLEO\000"
 2195      5C52542D 
 2195      53544D33 
 2195      32463430 
 2195      3152452D 
 2196              	.LASF20:
 2197 03fe 74726566 		.ascii	"trefs_t\000"
 2197      735F7400 
 2198              	.LASF90:
 2199 0406 52455345 		.ascii	"RESERVED0\000"
 2199      52564544 
 2199      3000
 2200              	.LASF122:
 2201 0410 63747870 		.ascii	"ctxp\000"
 2201      00
 2202              	.LASF57:
 2203 0415 76697274 		.ascii	"virtual_timer_t\000"
 2203      75616C5F 
 2203      74696D65 
 2203      725F7400 
 2204              	.LASF27:
 2205 0425 705F7072 		.ascii	"p_prev\000"
 2205      657600
 2206              	.LASF21:
 2207 042c 74707269 		.ascii	"tprio_t\000"
 2207      6F5F7400 
 2208              	.LASF107:
 2209 0434 6D757465 		.ascii	"mutex\000"
 2209      7800
 2210              	.LASF68:
 2211 043a 63685F73 		.ascii	"ch_system_debug\000"
 2211      79737465 
 2211      6D5F6465 
 2211      62756700 
 2212              	.LASF124:
 2213 044a 5F426F6F 		.ascii	"_Bool\000"
 2213      6C00
 2214              	.LASF14:
ARM GAS  C:\cygwin\tmp\ccaTAaJa.s 			page 43


 2215 0450 696E7433 		.ascii	"int32_t\000"
 2215      325F7400 
 2216              	.LASF2:
 2217 0458 756E7369 		.ascii	"unsigned char\000"
 2217      676E6564 
 2217      20636861 
 2217      7200
 2218              	.LASF81:
 2219 0466 53484353 		.ascii	"SHCSR\000"
 2219      5200
 2220              	.LASF123:
 2221 046c 49544D5F 		.ascii	"ITM_RxBuffer\000"
 2221      52784275 
 2221      66666572 
 2221      00
 2222              	.LASF40:
 2223 0479 705F6D74 		.ascii	"p_mtxlist\000"
 2223      786C6973 
 2223      7400
 2224              	.LASF3:
 2225 0483 73686F72 		.ascii	"short int\000"
 2225      7420696E 
 2225      7400
 2226              	.LASF33:
 2227 048d 705F7374 		.ascii	"p_state\000"
 2227      61746500 
 2228              	.LASF99:
 2229 0495 78707372 		.ascii	"xpsr\000"
 2229      00
 2230              	.LASF51:
 2231 049a 725F7072 		.ascii	"r_prio\000"
 2231      696F00
 2232              	.LASF105:
 2233 04a1 65776D61 		.ascii	"ewmask\000"
 2233      736B00
 2234              	.LASF26:
 2235 04a8 705F6E65 		.ascii	"p_next\000"
 2235      787400
 2236              	.LASF34:
 2237 04af 705F666C 		.ascii	"p_flags\000"
 2237      61677300 
 2238              	.LASF4:
 2239 04b7 73686F72 		.ascii	"short unsigned int\000"
 2239      7420756E 
 2239      7369676E 
 2239      65642069 
 2239      6E7400
 2240              	.LASF98:
 2241 04ca 6C725F74 		.ascii	"lr_thd\000"
 2241      686400
 2242              	.LASF120:
 2243 04d1 5356435F 		.ascii	"SVC_Handler\000"
 2243      48616E64 
 2243      6C657200 
 2244              	.LASF58:
 2245 04dd 63685F76 		.ascii	"ch_virtual_timer\000"
 2245      69727475 
ARM GAS  C:\cygwin\tmp\ccaTAaJa.s 			page 44


 2245      616C5F74 
 2245      696D6572 
 2245      00
 2246              	.LASF39:
 2247 04ee 705F6570 		.ascii	"p_epending\000"
 2247      656E6469 
 2247      6E6700
 2248              	.LASF15:
 2249 04f9 75696E74 		.ascii	"uint32_t\000"
 2249      33325F74 
 2249      00
 2250              	.LASF50:
 2251 0502 725F7175 		.ascii	"r_queue\000"
 2251      65756500 
 2252              	.LASF61:
 2253 050a 76745F64 		.ascii	"vt_delta\000"
 2253      656C7461 
 2253      00
 2254              	.LASF45:
 2255 0513 63685F74 		.ascii	"ch_threads_list\000"
 2255      68726561 
 2255      64735F6C 
 2255      69737400 
 2256              	.LASF9:
 2257 0523 6C6F6E67 		.ascii	"long unsigned int\000"
 2257      20756E73 
 2257      69676E65 
 2257      6420696E 
 2257      7400
 2258              	.LASF106:
 2259 0535 63686172 		.ascii	"char\000"
 2259      00
 2260              	.LASF118:
 2261 053a 706F7274 		.ascii	"port_unlock_from_isr\000"
 2261      5F756E6C 
 2261      6F636B5F 
 2261      66726F6D 
 2261      5F697372 
 2262              	.LASF25:
 2263 054f 74687265 		.ascii	"thread_t\000"
 2263      61645F74 
 2263      00
 2264              	.LASF110:
 2265 0558 6D5F6E65 		.ascii	"m_next\000"
 2265      787400
 2266              	.LASF24:
 2267 055f 73797374 		.ascii	"systime_t\000"
 2267      696D655F 
 2267      7400
 2268              	.LASF41:
 2269 0569 705F7265 		.ascii	"p_realprio\000"
 2269      616C7072 
 2269      696F00
 2270              	.LASF56:
 2271 0574 76746675 		.ascii	"vtfunc_t\000"
 2271      6E635F74 
 2271      00
ARM GAS  C:\cygwin\tmp\ccaTAaJa.s 			page 45


 2272              	.LASF8:
 2273 057d 5F5F7569 		.ascii	"__uint32_t\000"
 2273      6E743332 
 2273      5F7400
 2274              	.LASF114:
 2275 0588 5F5F7365 		.ascii	"__set_BASEPRI\000"
 2275      745F4241 
 2275      53455052 
 2275      4900
 2276              	.LASF69:
 2277 0596 70616E69 		.ascii	"panic_msg\000"
 2277      635F6D73 
 2277      6700
 2278              	.LASF100:
 2279 05a0 6F666673 		.ascii	"offset\000"
 2279      657400
 2280              	.LASF95:
 2281 05a7 636F6E74 		.ascii	"context\000"
 2281      65787400 
 2282              	.LASF70:
 2283 05af 63685F73 		.ascii	"ch_system_t\000"
 2283      79737465 
 2283      6D5F7400 
 2284              	.LASF17:
 2285 05bb 7274636E 		.ascii	"rtcnt_t\000"
 2285      745F7400 
 2286              	.LASF119:
 2287 05c3 706F7274 		.ascii	"port_lock_from_isr\000"
 2287      5F6C6F63 
 2287      6B5F6672 
 2287      6F6D5F69 
 2287      737200
 2288              	.LASF128:
 2289 05d6 5F5F6765 		.ascii	"__get_PSP\000"
 2289      745F5053 
 2289      5000
 2290              	.LASF63:
 2291 05e0 76745F70 		.ascii	"vt_par\000"
 2291      617200
 2292              	.LASF46:
 2293 05e7 74687265 		.ascii	"threads_queue_t\000"
 2293      6164735F 
 2293      71756575 
 2293      655F7400 
 2294              	.LASF35:
 2295 05f7 705F7265 		.ascii	"p_refs\000"
 2295      667300
 2296              	.LASF88:
 2297 05fe 4D4D4652 		.ascii	"MMFR\000"
 2297      00
 2298              	.LASF72:
 2299 0603 726C6973 		.ascii	"rlist\000"
 2299      7400
 2300              	.LASF13:
 2301 0609 75696E74 		.ascii	"uint8_t\000"
 2301      385F7400 
 2302              	.LASF104:
ARM GAS  C:\cygwin\tmp\ccaTAaJa.s 			page 46


 2303 0611 77746F62 		.ascii	"wtobjp\000"
 2303      6A7000
 2304              	.LASF32:
 2305 0618 705F6E61 		.ascii	"p_name\000"
 2305      6D6500
 2306              	.LASF38:
 2307 061f 705F6D73 		.ascii	"p_msg\000"
 2307      6700
 2308              	.LASF91:
 2309 0625 43504143 		.ascii	"CPACR\000"
 2309      5200
 2310              	.LASF83:
 2311 062b 48465352 		.ascii	"HFSR\000"
 2311      00
 2312              	.LASF109:
 2313 0630 6D5F6F77 		.ascii	"m_owner\000"
 2313      6E657200 
 2314              	.LASF129:
 2315 0638 72657375 		.ascii	"result\000"
 2315      6C7400
 2316              	.LASF29:
 2317 063f 705F6374 		.ascii	"p_ctx\000"
 2317      7800
 2318              	.LASF62:
 2319 0645 76745F66 		.ascii	"vt_func\000"
 2319      756E6300 
 2320              		.ident	"GCC: (GNU Tools for ARM Embedded Processors) 4.9.3 20141119 (release) [ARM/embedded-4_9-br
ARM GAS  C:\cygwin\tmp\ccaTAaJa.s 			page 47


DEFINED SYMBOLS
                            *ABS*:00000000 chcore_v7m.c
C:\cygwin\tmp\ccaTAaJa.s:19     .text.SVC_Handler:00000000 $t
C:\cygwin\tmp\ccaTAaJa.s:25     .text.SVC_Handler:00000000 SVC_Handler
C:\cygwin\tmp\ccaTAaJa.s:79     .text._port_irq_epilogue:00000000 $t
C:\cygwin\tmp\ccaTAaJa.s:85     .text._port_irq_epilogue:00000000 _port_irq_epilogue
C:\cygwin\tmp\ccaTAaJa.s:180    .text._port_irq_epilogue:00000044 $d
                     .debug_frame:00000010 $d

UNDEFINED SYMBOLS
chSchIsPreemptionRequired
_port_switch_from_isr
_port_exit_from_isr
