ARM GAS  C:\cygwin\tmp\cc42JODk.s 			page 1


   1              		.syntax unified
   2              		.cpu cortex-m4
   3              		.fpu softvfp
   4              		.eabi_attribute 20, 1
   5              		.eabi_attribute 21, 1
   6              		.eabi_attribute 23, 3
   7              		.eabi_attribute 24, 1
   8              		.eabi_attribute 25, 1
   9              		.eabi_attribute 26, 1
  10              		.eabi_attribute 30, 2
  11              		.eabi_attribute 34, 1
  12              		.eabi_attribute 18, 4
  13              		.thumb
  14              		.file	"chheap.c"
  15              		.text
  16              	.Ltext0:
  17              		.cfi_sections	.debug_frame
  18              		.section	.text.chprintf.constprop.0,"ax",%progbits
  19              		.align	2
  20              		.p2align 4,,15
  21              		.thumb
  22              		.thumb_func
  23              		.type	chprintf.constprop.0, %function
  24              	chprintf.constprop.0:
  25              	.LFB232:
  26              		.file 1 "../../../os/hal/lib/streams/chprintf.h"
  27              		.loc 1 69 0
  28              		.cfi_startproc
  29              		@ args = 4, pretend = 12, frame = 8
  30              		@ frame_needed = 0, uses_anonymous_args = 1
  31              	.LVL0:
  32 0000 0EB4     		push	{r1, r2, r3}
  33              		.cfi_def_cfa_offset 12
  34              		.cfi_offset 1, -12
  35              		.cfi_offset 2, -8
  36              		.cfi_offset 3, -4
  37 0002 00B5     		push	{lr}
  38              		.cfi_def_cfa_offset 16
  39              		.cfi_offset 14, -16
  40 0004 82B0     		sub	sp, sp, #8
  41              		.cfi_def_cfa_offset 24
  42              		.loc 1 69 0
  43 0006 03AA     		add	r2, sp, #12
  44              		.loc 1 74 0
  45 0008 0548     		ldr	r0, .L3
  46              	.LVL1:
  47              		.loc 1 69 0
  48 000a 52F8041B 		ldr	r1, [r2], #4
  49              		.loc 1 73 0
  50 000e 0192     		str	r2, [sp, #4]
  51              		.loc 1 74 0
  52 0010 FFF7FEFF 		bl	chvprintf
  53              	.LVL2:
  54              		.loc 1 78 0
  55 0014 02B0     		add	sp, sp, #8
  56              		.cfi_def_cfa_offset 16
  57              		@ sp needed
ARM GAS  C:\cygwin\tmp\cc42JODk.s 			page 2


  58 0016 5DF804EB 		ldr	lr, [sp], #4
  59              		.cfi_restore 14
  60              		.cfi_def_cfa_offset 12
  61 001a 03B0     		add	sp, sp, #12
  62              		.cfi_restore 3
  63              		.cfi_restore 2
  64              		.cfi_restore 1
  65              		.cfi_def_cfa_offset 0
  66 001c 7047     		bx	lr
  67              	.L4:
  68 001e 00BF     		.align	2
  69              	.L3:
  70 0020 00000000 		.word	itm_port
  71              		.cfi_endproc
  72              	.LFE232:
  73              		.size	chprintf.constprop.0, .-chprintf.constprop.0
  74 0024 AFF30080 		.section	.text._heap_init,"ax",%progbits
  74      AFF30080 
  74      AFF30080 
  75              		.align	2
  76              		.p2align 4,,15
  77              		.global	_heap_init
  78              		.thumb
  79              		.thumb_func
  80              		.type	_heap_init, %function
  81              	_heap_init:
  82              	.LFB227:
  83              		.file 2 "../../../os/rt/src/chheap.c"
  84              		.loc 2 89 0
  85              		.cfi_startproc
  86              		@ args = 0, pretend = 0, frame = 0
  87              		@ frame_needed = 0, uses_anonymous_args = 0
  88              		@ link register save eliminated.
  89              		.loc 2 91 0
  90 0000 044B     		ldr	r3, .L6
  91 0002 054A     		ldr	r2, .L6+4
  92 0004 1A60     		str	r2, [r3]
  93              		.loc 2 95 0
  94 0006 03F11000 		add	r0, r3, #16
  95              		.loc 2 92 0
  96 000a 0022     		movs	r2, #0
  97 000c 9A60     		str	r2, [r3, #8]
  98              		.loc 2 93 0
  99 000e DA60     		str	r2, [r3, #12]
 100              		.loc 2 95 0
 101 0010 FFF7FEBF 		b	chMtxObjectInit
 102              	.LVL3:
 103              	.L7:
 104              		.align	2
 105              	.L6:
 106 0014 00000000 		.word	.LANCHOR0
 107 0018 00000000 		.word	chCoreAlloc
 108              		.cfi_endproc
 109              	.LFE227:
 110              		.size	_heap_init, .-_heap_init
 111 001c AFF30080 		.section	.text.chHeapObjectInit,"ax",%progbits
 112              		.align	2
ARM GAS  C:\cygwin\tmp\cc42JODk.s 			page 3


 113              		.p2align 4,,15
 114              		.global	chHeapObjectInit
 115              		.thumb
 116              		.thumb_func
 117              		.type	chHeapObjectInit, %function
 118              	chHeapObjectInit:
 119              	.LFB228:
 120              		.loc 2 112 0
 121              		.cfi_startproc
 122              		@ args = 0, pretend = 0, frame = 0
 123              		@ frame_needed = 0, uses_anonymous_args = 0
 124              		@ link register save eliminated.
 125              	.LVL4:
 126              		.loc 2 117 0
 127 0000 0023     		movs	r3, #0
 128              		.loc 2 121 0
 129 0002 083A     		subs	r2, r2, #8
 130              	.LVL5:
 131              		.loc 2 118 0
 132 0004 8160     		str	r1, [r0, #8]
 133              		.loc 2 117 0
 134 0006 0360     		str	r3, [r0]
 135              	.LVL6:
 136              		.loc 2 119 0
 137 0008 C360     		str	r3, [r0, #12]
 138              		.loc 2 123 0
 139 000a 1030     		adds	r0, r0, #16
 140              	.LVL7:
 141              		.loc 2 121 0
 142 000c 4A60     		str	r2, [r1, #4]
 143              		.loc 2 120 0
 144 000e 0B60     		str	r3, [r1]
 145              		.loc 2 123 0
 146 0010 FFF7FEBF 		b	chMtxObjectInit
 147              	.LVL8:
 148              		.cfi_endproc
 149              	.LFE228:
 150              		.size	chHeapObjectInit, .-chHeapObjectInit
 151 0014 AFF30080 		.section	.text.chHeapAlloc,"ax",%progbits
 151      AFF30080 
 151      AFF30080 
 152              		.align	2
 153              		.p2align 4,,15
 154              		.global	chHeapAlloc
 155              		.thumb
 156              		.thumb_func
 157              		.type	chHeapAlloc, %function
 158              	chHeapAlloc:
 159              	.LFB229:
 160              		.loc 2 145 0
 161              		.cfi_startproc
 162              		@ args = 0, pretend = 0, frame = 0
 163              		@ frame_needed = 0, uses_anonymous_args = 0
 164              	.LVL9:
 165 0000 F8B5     		push	{r3, r4, r5, r6, r7, lr}
 166              		.cfi_def_cfa_offset 24
 167              		.cfi_offset 3, -24
ARM GAS  C:\cygwin\tmp\cc42JODk.s 			page 4


 168              		.cfi_offset 4, -20
 169              		.cfi_offset 5, -16
 170              		.cfi_offset 6, -12
 171              		.cfi_offset 7, -8
 172              		.cfi_offset 14, -4
 173              		.loc 2 149 0
 174 0002 334E     		ldr	r6, .L25
 175              		.loc 2 151 0
 176 0004 334A     		ldr	r2, .L25+4
 177              		.loc 2 149 0
 178 0006 0028     		cmp	r0, #0
 179 0008 18BF     		it	ne
 180 000a 0646     		movne	r6, r0
 181              	.LVL10:
 182              		.loc 2 145 0
 183 000c 0D46     		mov	r5, r1
 184              		.loc 2 151 0
 185 000e 3248     		ldr	r0, .L25+8
 186 0010 3249     		ldr	r1, .L25+12
 187              	.LVL11:
 188 0012 FFF7FEFF 		bl	chprintf.constprop.0
 189              	.LVL12:
 190              		.loc 2 153 0
 191 0016 3149     		ldr	r1, .L25+12
 192 0018 314A     		ldr	r2, .L25+16
 193 001a 2F48     		ldr	r0, .L25+8
 194 001c FFF7FEFF 		bl	chprintf.constprop.0
 195              	.LVL13:
 196              		.loc 2 157 0
 197 0020 06F11007 		add	r7, r6, #16
 198              		.loc 2 156 0
 199 0024 2D49     		ldr	r1, .L25+12
 200 0026 2F4A     		ldr	r2, .L25+20
 201 0028 2B48     		ldr	r0, .L25+8
 202 002a FFF7FEFF 		bl	chprintf.constprop.0
 203              	.LVL14:
 204              		.loc 2 157 0
 205 002e 3846     		mov	r0, r7
 206 0030 FFF7FEFF 		bl	chMtxLock
 207              	.LVL15:
 208              		.loc 2 152 0
 209 0034 0735     		adds	r5, r5, #7
 210              	.LVL16:
 211              		.loc 2 158 0
 212 0036 2949     		ldr	r1, .L25+12
 213 0038 2B4A     		ldr	r2, .L25+24
 214 003a 2748     		ldr	r0, .L25+8
 215              		.loc 2 152 0
 216 003c 25F00705 		bic	r5, r5, #7
 217              	.LVL17:
 218              		.loc 2 154 0
 219 0040 06F10804 		add	r4, r6, #8
 220              	.LVL18:
 221              		.loc 2 158 0
 222 0044 FFF7FEFF 		bl	chprintf.constprop.0
 223              	.LVL19:
 224              		.loc 2 159 0
ARM GAS  C:\cygwin\tmp\cc42JODk.s 			page 5


 225 0048 06E0     		b	.L11
 226              	.L15:
 227              		.loc 2 160 0
 228 004a FFF7FEFF 		bl	chprintf.constprop.0
 229              	.LVL20:
 230              		.loc 2 161 0
 231 004e 2068     		ldr	r0, [r4]
 232              	.LVL21:
 233              		.loc 2 162 0
 234 0050 4368     		ldr	r3, [r0, #4]
 235 0052 9D42     		cmp	r5, r3
 236 0054 1ED9     		bls	.L24
 237 0056 0446     		mov	r4, r0
 238              	.LVL22:
 239              	.L11:
 240              		.loc 2 159 0
 241 0058 2368     		ldr	r3, [r4]
 242              		.loc 2 160 0
 243 005a 1F48     		ldr	r0, .L25+8
 244 005c 2349     		ldr	r1, .L25+28
 245 005e 1A46     		mov	r2, r3
 246              		.loc 2 159 0
 247 0060 002B     		cmp	r3, #0
 248 0062 F2D1     		bne	.L15
 249              		.loc 2 184 0
 250 0064 1D49     		ldr	r1, .L25+12
 251 0066 224A     		ldr	r2, .L25+32
 252 0068 FFF7FEFF 		bl	chprintf.constprop.0
 253              	.LVL23:
 254              		.loc 2 185 0
 255 006c 3846     		mov	r0, r7
 256 006e FFF7FEFF 		bl	chMtxUnlock
 257              	.LVL24:
 258              		.loc 2 186 0
 259 0072 1948     		ldr	r0, .L25+8
 260 0074 1949     		ldr	r1, .L25+12
 261 0076 1F4A     		ldr	r2, .L25+36
 262 0078 FFF7FEFF 		bl	chprintf.constprop.0
 263              	.LVL25:
 264              		.loc 2 190 0
 265 007c 3368     		ldr	r3, [r6]
 266 007e 2BB3     		cbz	r3, .L17
 267              		.loc 2 191 0
 268 0080 05F10800 		add	r0, r5, #8
 269 0084 9847     		blx	r3
 270              	.LVL26:
 271              		.loc 2 192 0
 272 0086 08B3     		cbz	r0, .L17
 273              		.loc 2 193 0
 274 0088 0660     		str	r6, [r0]
 275              		.loc 2 194 0
 276 008a 4560     		str	r5, [r0, #4]
 277              		.loc 2 195 0
 278 008c 00F10804 		add	r4, r0, #8
 279              	.LVL27:
 280              	.L14:
 281              		.loc 2 202 0
ARM GAS  C:\cygwin\tmp\cc42JODk.s 			page 6


 282 0090 2046     		mov	r0, r4
 283 0092 F8BD     		pop	{r3, r4, r5, r6, r7, pc}
 284              	.LVL28:
 285              	.L24:
 286              		.loc 2 163 0
 287 0094 05F10802 		add	r2, r5, #8
 288 0098 9A42     		cmp	r2, r3
 289 009a 09D9     		bls	.L12
 290              		.loc 2 167 0
 291 009c 0368     		ldr	r3, [r0]
 292 009e 2360     		str	r3, [r4]
 293              	.L13:
 294              		.loc 2 177 0
 295 00a0 0446     		mov	r4, r0
 296              	.LVL29:
 297              		.loc 2 178 0
 298 00a2 3846     		mov	r0, r7
 299              	.LVL30:
 300              		.loc 2 177 0
 301 00a4 44F8086B 		str	r6, [r4], #8
 302              	.LVL31:
 303              		.loc 2 178 0
 304 00a8 FFF7FEFF 		bl	chMtxUnlock
 305              	.LVL32:
 306              		.loc 2 202 0
 307 00ac 2046     		mov	r0, r4
 308 00ae F8BD     		pop	{r3, r4, r5, r6, r7, pc}
 309              	.LVL33:
 310              	.L12:
 311 00b0 6FF00701 		mvn	r1, #7
 312 00b4 491B     		subs	r1, r1, r5
 313              		.loc 2 171 0
 314 00b6 00EB020E 		add	lr, r0, r2
 315              	.LVL34:
 316              		.loc 2 173 0
 317 00ba 0B44     		add	r3, r3, r1
 318              		.loc 2 172 0
 319 00bc 0168     		ldr	r1, [r0]
 320 00be 8150     		str	r1, [r0, r2]
 321              		.loc 2 173 0
 322 00c0 CEF80430 		str	r3, [lr, #4]
 323              		.loc 2 174 0
 324 00c4 C4F800E0 		str	lr, [r4]
 325              		.loc 2 175 0
 326 00c8 4560     		str	r5, [r0, #4]
 327 00ca E9E7     		b	.L13
 328              	.LVL35:
 329              	.L17:
 330              		.loc 2 201 0
 331 00cc 0024     		movs	r4, #0
 332              	.LVL36:
 333 00ce DFE7     		b	.L14
 334              	.L26:
 335              		.align	2
 336              	.L25:
 337 00d0 00000000 		.word	.LANCHOR0
 338 00d4 14000000 		.word	.LC1
ARM GAS  C:\cygwin\tmp\cc42JODk.s 			page 7


 339 00d8 00000000 		.word	itm_port
 340 00dc 00000000 		.word	.LC0
 341 00e0 24000000 		.word	.LC2
 342 00e4 34000000 		.word	.LC3
 343 00e8 3C000000 		.word	.LC4
 344 00ec 48000000 		.word	.LC5
 345 00f0 5C000000 		.word	.LC6
 346 00f4 68000000 		.word	.LC7
 347              		.cfi_endproc
 348              	.LFE229:
 349              		.size	chHeapAlloc, .-chHeapAlloc
 350 00f8 AFF30080 		.section	.text.chHeapFree,"ax",%progbits
 350      AFF30080 
 351              		.align	2
 352              		.p2align 4,,15
 353              		.global	chHeapFree
 354              		.thumb
 355              		.thumb_func
 356              		.type	chHeapFree, %function
 357              	chHeapFree:
 358              	.LFB230:
 359              		.loc 2 215 0
 360              		.cfi_startproc
 361              		@ args = 0, pretend = 0, frame = 0
 362              		@ frame_needed = 0, uses_anonymous_args = 0
 363              	.LVL37:
 364 0000 F8B5     		push	{r3, r4, r5, r6, r7, lr}
 365              		.cfi_def_cfa_offset 24
 366              		.cfi_offset 3, -24
 367              		.cfi_offset 4, -20
 368              		.cfi_offset 5, -16
 369              		.cfi_offset 6, -12
 370              		.cfi_offset 7, -8
 371              		.cfi_offset 14, -4
 372              		.loc 2 222 0
 373 0002 50F8085C 		ldr	r5, [r0, #-8]
 374              		.loc 2 225 0
 375 0006 05F11007 		add	r7, r5, #16
 376              		.loc 2 215 0
 377 000a 0646     		mov	r6, r0
 378              		.loc 2 221 0
 379 000c A0F10804 		sub	r4, r0, #8
 380              	.LVL38:
 381              		.loc 2 223 0
 382 0010 0835     		adds	r5, r5, #8
 383              	.LVL39:
 384              		.loc 2 225 0
 385 0012 3846     		mov	r0, r7
 386              	.LVL40:
 387 0014 FFF7FEFF 		bl	chMtxLock
 388              	.LVL41:
 389              		.loc 2 223 0
 390 0018 2B46     		mov	r3, r5
 391              	.LVL42:
 392              	.L34:
 393              		.loc 2 229 0
 394 001a AB42     		cmp	r3, r5
ARM GAS  C:\cygwin\tmp\cc42JODk.s 			page 8


 395 001c 04D0     		beq	.L28
 396              	.L40:
 397              		.loc 2 229 0 is_stmt 0 discriminator 2
 398 001e A342     		cmp	r3, r4
 399 0020 02D3     		bcc	.L28
 400 0022 1B68     		ldr	r3, [r3]
 401              	.LVL43:
 402              		.loc 2 229 0
 403 0024 AB42     		cmp	r3, r5
 404 0026 FAD1     		bne	.L40
 405              	.L28:
 406              		.loc 2 230 0 is_stmt 1 discriminator 3
 407 0028 1A68     		ldr	r2, [r3]
 408              		.loc 2 229 0 discriminator 3
 409 002a 1AB1     		cbz	r2, .L30
 410              		.loc 2 230 0
 411 002c 9442     		cmp	r4, r2
 412 002e 01D3     		bcc	.L30
 413 0030 1346     		mov	r3, r2
 414              	.LVL44:
 415              		.loc 2 248 0
 416 0032 F2E7     		b	.L34
 417              	.LVL45:
 418              	.L30:
 419              		.loc 2 235 0
 420 0034 56F8041C 		ldr	r1, [r6, #-4]
 421              		.loc 2 232 0
 422 0038 46F8082C 		str	r2, [r6, #-8]
 423              		.loc 2 233 0
 424 003c 1C60     		str	r4, [r3]
 425              		.loc 2 235 0
 426 003e 01F10802 		add	r2, r1, #8
 427 0042 56F8085C 		ldr	r5, [r6, #-8]
 428              	.LVL46:
 429 0046 A018     		adds	r0, r4, r2
 430 0048 A842     		cmp	r0, r5
 431 004a 0AD0     		beq	.L41
 432              		.loc 2 240 0
 433 004c 5968     		ldr	r1, [r3, #4]
 434 004e 01F10802 		add	r2, r1, #8
 435 0052 1A44     		add	r2, r2, r3
 436 0054 9442     		cmp	r4, r2
 437 0056 12D0     		beq	.L42
 438              	.L33:
 439              		.loc 2 249 0
 440 0058 3846     		mov	r0, r7
 441              		.loc 2 252 0
 442 005a BDE8F840 		pop	{r3, r4, r5, r6, r7, lr}
 443              		.cfi_remember_state
 444              		.cfi_restore 14
 445              		.cfi_restore 7
 446              		.cfi_restore 6
 447              		.cfi_restore 5
 448              		.cfi_restore 4
 449              		.cfi_restore 3
 450              		.cfi_def_cfa_offset 0
 451              	.LVL47:
ARM GAS  C:\cygwin\tmp\cc42JODk.s 			page 9


 452              		.loc 2 249 0
 453 005e FFF7FEBF 		b	chMtxUnlock
 454              	.LVL48:
 455              	.L41:
 456              		.cfi_restore_state
 457              		.loc 2 237 0
 458 0062 4068     		ldr	r0, [r0, #4]
 459              		.loc 2 238 0
 460 0064 A258     		ldr	r2, [r4, r2]
 461 0066 46F8082C 		str	r2, [r6, #-8]
 462              		.loc 2 237 0
 463 006a 0A18     		adds	r2, r1, r0
 464 006c 0832     		adds	r2, r2, #8
 465 006e 46F8042C 		str	r2, [r6, #-4]
 466              		.loc 2 240 0
 467 0072 5968     		ldr	r1, [r3, #4]
 468 0074 01F10802 		add	r2, r1, #8
 469 0078 1A44     		add	r2, r2, r3
 470 007a 9442     		cmp	r4, r2
 471 007c ECD1     		bne	.L33
 472              	.L42:
 473              		.loc 2 243 0
 474 007e 16E90500 		ldmdb	r6, {r0, r2}
 475              		.loc 2 242 0
 476 0082 0A44     		add	r2, r2, r1
 477 0084 0832     		adds	r2, r2, #8
 478              		.loc 2 243 0
 479 0086 1860     		str	r0, [r3]
 480              		.loc 2 242 0
 481 0088 5A60     		str	r2, [r3, #4]
 482              		.loc 2 249 0
 483 008a 3846     		mov	r0, r7
 484              		.loc 2 252 0
 485 008c BDE8F840 		pop	{r3, r4, r5, r6, r7, lr}
 486              		.cfi_restore 3
 487              		.cfi_restore 4
 488              		.cfi_restore 5
 489              		.cfi_restore 6
 490              		.cfi_restore 7
 491              		.cfi_restore 14
 492              		.cfi_def_cfa_offset 0
 493              	.LVL49:
 494              		.loc 2 249 0
 495 0090 FFF7FEBF 		b	chMtxUnlock
 496              	.LVL50:
 497              		.cfi_endproc
 498              	.LFE230:
 499              		.size	chHeapFree, .-chHeapFree
 500 0094 AFF30080 		.section	.text.chHeapStatus,"ax",%progbits
 500      AFF30080 
 500      AFF30080 
 501              		.align	2
 502              		.p2align 4,,15
 503              		.global	chHeapStatus
 504              		.thumb
 505              		.thumb_func
 506              		.type	chHeapStatus, %function
ARM GAS  C:\cygwin\tmp\cc42JODk.s 			page 10


 507              	chHeapStatus:
 508              	.LFB231:
 509              		.loc 2 267 0
 510              		.cfi_startproc
 511              		@ args = 0, pretend = 0, frame = 0
 512              		@ frame_needed = 0, uses_anonymous_args = 0
 513              	.LVL51:
 514 0000 70B5     		push	{r4, r5, r6, lr}
 515              		.cfi_def_cfa_offset 16
 516              		.cfi_offset 4, -16
 517              		.cfi_offset 5, -12
 518              		.cfi_offset 6, -8
 519              		.cfi_offset 14, -4
 520              		.loc 2 272 0
 521 0002 0F4C     		ldr	r4, .L54
 522 0004 0028     		cmp	r0, #0
 523 0006 18BF     		it	ne
 524 0008 0446     		movne	r4, r0
 525              	.LVL52:
 526              		.loc 2 275 0
 527 000a 04F11005 		add	r5, r4, #16
 528 000e 2846     		mov	r0, r5
 529              		.loc 2 267 0
 530 0010 0E46     		mov	r6, r1
 531              		.loc 2 275 0
 532 0012 FFF7FEFF 		bl	chMtxLock
 533              	.LVL53:
 534              		.loc 2 277 0
 535 0016 A368     		ldr	r3, [r4, #8]
 536 0018 73B1     		cbz	r3, .L48
 537              		.loc 2 277 0 is_stmt 0 discriminator 3
 538 001a 0022     		movs	r2, #0
 539 001c 1446     		mov	r4, r2
 540              	.LVL54:
 541              	.L46:
 542              		.loc 2 278 0 is_stmt 1 discriminator 3
 543 001e 5868     		ldr	r0, [r3, #4]
 544              		.loc 2 277 0 discriminator 3
 545 0020 1B68     		ldr	r3, [r3]
 546 0022 0134     		adds	r4, r4, #1
 547              	.LVL55:
 548              		.loc 2 278 0 discriminator 3
 549 0024 0244     		add	r2, r2, r0
 550              	.LVL56:
 551              		.loc 2 277 0 discriminator 3
 552 0026 002B     		cmp	r3, #0
 553 0028 F9D1     		bne	.L46
 554              	.LVL57:
 555              	.L45:
 556              		.loc 2 280 0
 557 002a 06B1     		cbz	r6, .L47
 558              		.loc 2 281 0
 559 002c 3260     		str	r2, [r6]
 560              	.L47:
 561              		.loc 2 283 0
 562 002e 2846     		mov	r0, r5
 563 0030 FFF7FEFF 		bl	chMtxUnlock
ARM GAS  C:\cygwin\tmp\cc42JODk.s 			page 11


 564              	.LVL58:
 565              		.loc 2 286 0
 566 0034 2046     		mov	r0, r4
 567 0036 70BD     		pop	{r4, r5, r6, pc}
 568              	.LVL59:
 569              	.L48:
 570              		.loc 2 276 0
 571 0038 1A46     		mov	r2, r3
 572              		.loc 2 277 0
 573 003a 1C46     		mov	r4, r3
 574              	.LVL60:
 575 003c F5E7     		b	.L45
 576              	.L55:
 577 003e 00BF     		.align	2
 578              	.L54:
 579 0040 00000000 		.word	.LANCHOR0
 580              		.cfi_endproc
 581              	.LFE231:
 582              		.size	chHeapStatus, .-chHeapStatus
 583 0044 AFF30080 		.section	.rodata.str1.4,"aMS",%progbits,1
 583      AFF30080 
 583      AFF30080 
 584              		.align	2
 585              	.LC0:
 586 0000 63684865 		.ascii	"chHeapAlloc: %s\012\000"
 586      6170416C 
 586      6C6F633A 
 586      2025730A 
 586      00
 587 0011 000000   		.space	3
 588              	.LC1:
 589 0014 6D656D6F 		.ascii	"memory allign\000"
 589      72792061 
 589      6C6C6967 
 589      6E00
 590 0022 0000     		.space	2
 591              	.LC2:
 592 0024 6D656D6F 		.ascii	"memory alligned\000"
 592      72792061 
 592      6C6C6967 
 592      6E656400 
 593              	.LC3:
 594 0034 485F4C4F 		.ascii	"H_LOCK\000"
 594      434B00
 595 003b 00       		.space	1
 596              	.LC4:
 597 003c 485F4C4F 		.ascii	"H_LOCK done\000"
 597      434B2064 
 597      6F6E6500 
 598              	.LC5:
 599 0048 71702D3E 		.ascii	"qp->h.u.next: %i\012\000"
 599      682E752E 
 599      6E657874 
 599      3A202569 
 599      0A00
 600 005a 0000     		.space	2
 601              	.LC6:
ARM GAS  C:\cygwin\tmp\cc42JODk.s 			page 12


 602 005c 485F554E 		.ascii	"H_UNLOCK\000"
 602      4C4F434B 
 602      00
 603 0065 000000   		.space	3
 604              	.LC7:
 605 0068 485F554E 		.ascii	"H_UNLOCK done\000"
 605      4C4F434B 
 605      20646F6E 
 605      6500
 606 0076 0000     		.section	.bss.default_heap,"aw",%nobits
 607              		.align	3
 608              		.set	.LANCHOR0,. + 0
 609              		.type	default_heap, %object
 610              		.size	default_heap, 32
 611              	default_heap:
 612 0000 00000000 		.space	32
 612      00000000 
 612      00000000 
 612      00000000 
 612      00000000 
 613              		.text
 614              	.Letext0:
 615              		.file 3 "c:\\program files\\gnu tools arm embedded\\4.9 2014q4\\lib\\gcc\\arm-none-eabi\\4.9.3\\in
 616              		.file 4 "c:\\program files\\gnu tools arm embedded\\4.9 2014q4\\arm-none-eabi\\include\\machine\\_
 617              		.file 5 "c:\\program files\\gnu tools arm embedded\\4.9 2014q4\\arm-none-eabi\\include\\stdint.h"
 618              		.file 6 "../../../os/rt/ports/ARMCMx/compilers/GCC/chtypes.h"
 619              		.file 7 "../../../os/rt/include/chsystypes.h"
 620              		.file 8 "../../../os/rt/include/chschd.h"
 621              		.file 9 "../../../os/rt/ports/ARMCMx/chcore.h"
 622              		.file 10 "../../../os/rt/ports/ARMCMx/chcore_v7m.h"
 623              		.file 11 "../../../os/rt/include/chtm.h"
 624              		.file 12 "../../../os/rt/include/chmtx.h"
 625              		.file 13 "../../../os/rt/include/chmemcore.h"
 626              		.file 14 "../../../os/rt/include/chheap.h"
 627              		.file 15 "../../../os/rt/include/chstreams.h"
 628              		.file 16 "./ITM_trace.h"
 629              		.file 17 "c:\\program files\\gnu tools arm embedded\\4.9 2014q4\\lib\\gcc\\arm-none-eabi\\4.9.3\\i
 630              		.file 18 "<built-in>"
 631              		.file 19 "../../../os/ext/CMSIS/include/core_cm4.h"