ARM GAS  C:\cygwin\tmp\ccX0bQ12.s 			page 1


   1              		.syntax unified
   2              		.cpu cortex-m4
   3              		.fpu softvfp
   4              		.eabi_attribute 20, 1
   5              		.eabi_attribute 21, 1
   6              		.eabi_attribute 23, 3
   7              		.eabi_attribute 24, 1
   8              		.eabi_attribute 25, 1
   9              		.eabi_attribute 26, 1
  10              		.eabi_attribute 30, 2
  11              		.eabi_attribute 34, 1
  12              		.eabi_attribute 18, 4
  13              		.thumb
  14              		.file	"chmboxes.c"
  15              		.text
  16              	.Ltext0:
  17              		.cfi_sections	.debug_frame
  18              		.section	.text.chMBObjectInit,"ax",%progbits
  19              		.align	2
  20              		.p2align 4,,15
  21              		.global	chMBObjectInit
  22              		.thumb
  23              		.thumb_func
  24              		.type	chMBObjectInit, %function
  25              	chMBObjectInit:
  26              	.LFB226:
  27              		.file 1 "../../../os/rt/src/chmboxes.c"
  28              		.loc 1 86 0
  29              		.cfi_startproc
  30              		@ args = 0, pretend = 0, frame = 0
  31              		@ frame_needed = 0, uses_anonymous_args = 0
  32              	.LVL0:
  33 0000 10B5     		push	{r4, lr}
  34              		.cfi_def_cfa_offset 8
  35              		.cfi_offset 4, -8
  36              		.cfi_offset 14, -4
  37              		.loc 1 86 0
  38 0002 0B46     		mov	r3, r1
  39              		.loc 1 91 0
  40 0004 01EB8201 		add	r1, r1, r2, lsl #2
  41              	.LVL1:
  42 0008 4160     		str	r1, [r0, #4]
  43              		.loc 1 86 0
  44 000a 0446     		mov	r4, r0
  45              		.loc 1 90 0
  46 000c C360     		str	r3, [r0, #12]
  47 000e 8360     		str	r3, [r0, #8]
  48 0010 0360     		str	r3, [r0]
  49              		.loc 1 92 0
  50 0012 1146     		mov	r1, r2
  51 0014 1C30     		adds	r0, r0, #28
  52              	.LVL2:
  53 0016 FFF7FEFF 		bl	chSemObjectInit
  54              	.LVL3:
  55              		.loc 1 93 0
  56 001a 04F11000 		add	r0, r4, #16
  57 001e 0021     		movs	r1, #0
ARM GAS  C:\cygwin\tmp\ccX0bQ12.s 			page 2


  58              		.loc 1 94 0
  59 0020 BDE81040 		pop	{r4, lr}
  60              		.cfi_restore 14
  61              		.cfi_restore 4
  62              		.cfi_def_cfa_offset 0
  63              	.LVL4:
  64              		.loc 1 93 0
  65 0024 FFF7FEBF 		b	chSemObjectInit
  66              	.LVL5:
  67              		.cfi_endproc
  68              	.LFE226:
  69              		.size	chMBObjectInit, .-chMBObjectInit
  70 0028 AFF30080 		.section	.text.chMBResetI,"ax",%progbits
  70      AFF30080 
  71              		.align	2
  72              		.p2align 4,,15
  73              		.global	chMBResetI
  74              		.thumb
  75              		.thumb_func
  76              		.type	chMBResetI, %function
  77              	chMBResetI:
  78              	.LFB228:
  79              		.loc 1 122 0
  80              		.cfi_startproc
  81              		@ args = 0, pretend = 0, frame = 0
  82              		@ frame_needed = 0, uses_anonymous_args = 0
  83              	.LVL6:
  84 0000 10B5     		push	{r4, lr}
  85              		.cfi_def_cfa_offset 8
  86              		.cfi_offset 4, -8
  87              		.cfi_offset 14, -4
  88              		.loc 1 122 0
  89 0002 0446     		mov	r4, r0
  90              		.loc 1 128 0
  91 0004 1C30     		adds	r0, r0, #28
  92              	.LVL7:
  93              		.loc 1 127 0
  94 0006 2368     		ldr	r3, [r4]
  95              		.loc 1 128 0
  96 0008 6168     		ldr	r1, [r4, #4]
  97              		.loc 1 127 0
  98 000a E360     		str	r3, [r4, #12]
  99              		.loc 1 128 0
 100 000c C91A     		subs	r1, r1, r3
 101              		.loc 1 127 0
 102 000e A360     		str	r3, [r4, #8]
 103              		.loc 1 128 0
 104 0010 8910     		asrs	r1, r1, #2
 105 0012 FFF7FEFF 		bl	chSemResetI
 106              	.LVL8:
 107              		.loc 1 129 0
 108 0016 04F11000 		add	r0, r4, #16
 109 001a 0021     		movs	r1, #0
 110              		.loc 1 130 0
 111 001c BDE81040 		pop	{r4, lr}
 112              		.cfi_restore 14
 113              		.cfi_restore 4
ARM GAS  C:\cygwin\tmp\ccX0bQ12.s 			page 3


 114              		.cfi_def_cfa_offset 0
 115              	.LVL9:
 116              		.loc 1 129 0
 117 0020 FFF7FEBF 		b	chSemResetI
 118              	.LVL10:
 119              		.cfi_endproc
 120              	.LFE228:
 121              		.size	chMBResetI, .-chMBResetI
 122 0024 AFF30080 		.section	.text.chMBReset,"ax",%progbits
 122      AFF30080 
 122      AFF30080 
 123              		.align	2
 124              		.p2align 4,,15
 125              		.global	chMBReset
 126              		.thumb
 127              		.thumb_func
 128              		.type	chMBReset, %function
 129              	chMBReset:
 130              	.LFB227:
 131              		.loc 1 105 0
 132              		.cfi_startproc
 133              		@ args = 0, pretend = 0, frame = 0
 134              		@ frame_needed = 0, uses_anonymous_args = 0
 135              	.LVL11:
 136 0000 08B5     		push	{r3, lr}
 137              		.cfi_def_cfa_offset 8
 138              		.cfi_offset 3, -8
 139              		.cfi_offset 14, -4
 140              	.LBB66:
 141              	.LBB67:
 142              	.LBB68:
 143              	.LBB69:
 144              		.file 2 "../../../os/ext/CMSIS/include/core_cmFunc.h"
 145              		.loc 2 546 0
 146 0002 2023     		movs	r3, #32
 147              	@ 546 "../../../os/ext/CMSIS/include/core_cmFunc.h" 1
 148 0004 83F31188 		MSR basepri, r3
 149              	@ 0 "" 2
 150              		.thumb
 151              	.LBE69:
 152              	.LBE68:
 153              	.LBE67:
 154              	.LBE66:
 155              		.loc 1 108 0
 156 0008 FFF7FEFF 		bl	chMBResetI
 157              	.LVL12:
 158              		.loc 1 109 0
 159 000c FFF7FEFF 		bl	chSchRescheduleS
 160              	.LVL13:
 161              	.LBB70:
 162              	.LBB71:
 163              	.LBB72:
 164              	.LBB73:
 165              	.LBB74:
 166              		.loc 2 546 0
 167 0010 0023     		movs	r3, #0
 168              	@ 546 "../../../os/ext/CMSIS/include/core_cmFunc.h" 1
ARM GAS  C:\cygwin\tmp\ccX0bQ12.s 			page 4


 169 0012 83F31188 		MSR basepri, r3
 170              	@ 0 "" 2
 171              		.thumb
 172 0016 08BD     		pop	{r3, pc}
 173              	.LBE74:
 174              	.LBE73:
 175              	.LBE72:
 176              	.LBE71:
 177              	.LBE70:
 178              		.cfi_endproc
 179              	.LFE227:
 180              		.size	chMBReset, .-chMBReset
 181 0018 AFF30080 		.section	.text.chMBPostS,"ax",%progbits
 181      AFF30080 
 182              		.align	2
 183              		.p2align 4,,15
 184              		.global	chMBPostS
 185              		.thumb
 186              		.thumb_func
 187              		.type	chMBPostS, %function
 188              	chMBPostS:
 189              	.LFB230:
 190              		.loc 1 180 0
 191              		.cfi_startproc
 192              		@ args = 0, pretend = 0, frame = 0
 193              		@ frame_needed = 0, uses_anonymous_args = 0
 194              	.LVL14:
 195 0000 70B5     		push	{r4, r5, r6, lr}
 196              		.cfi_def_cfa_offset 16
 197              		.cfi_offset 4, -16
 198              		.cfi_offset 5, -12
 199              		.cfi_offset 6, -8
 200              		.cfi_offset 14, -4
 201              		.loc 1 180 0
 202 0002 0446     		mov	r4, r0
 203 0004 0E46     		mov	r6, r1
 204              		.loc 1 186 0
 205 0006 1C30     		adds	r0, r0, #28
 206              	.LVL15:
 207 0008 1146     		mov	r1, r2
 208              	.LVL16:
 209 000a FFF7FEFF 		bl	chSemWaitTimeoutS
 210              	.LVL17:
 211              		.loc 1 187 0
 212 000e 0546     		mov	r5, r0
 213 0010 78B9     		cbnz	r0, .L8
 214              	.LVL18:
 215              	.LBB77:
 216              	.LBB78:
 217              		.loc 1 188 0
 218 0012 A268     		ldr	r2, [r4, #8]
 219              		.loc 1 189 0
 220 0014 6168     		ldr	r1, [r4, #4]
 221              		.loc 1 188 0
 222 0016 131D     		adds	r3, r2, #4
 223              		.loc 1 189 0
 224 0018 8B42     		cmp	r3, r1
ARM GAS  C:\cygwin\tmp\ccX0bQ12.s 			page 5


 225              		.loc 1 188 0
 226 001a A360     		str	r3, [r4, #8]
 227              		.loc 1 190 0
 228 001c 28BF     		it	cs
 229 001e 2368     		ldrcs	r3, [r4]
 230              		.loc 1 188 0
 231 0020 1660     		str	r6, [r2]
 232              		.loc 1 192 0
 233 0022 04F11000 		add	r0, r4, #16
 234              	.LVL19:
 235              		.loc 1 190 0
 236 0026 28BF     		it	cs
 237 0028 A360     		strcs	r3, [r4, #8]
 238              		.loc 1 192 0
 239 002a FFF7FEFF 		bl	chSemSignalI
 240              	.LVL20:
 241              		.loc 1 193 0
 242 002e FFF7FEFF 		bl	chSchRescheduleS
 243              	.LVL21:
 244              	.L8:
 245              	.LBE78:
 246              	.LBE77:
 247              		.loc 1 197 0
 248 0032 2846     		mov	r0, r5
 249 0034 70BD     		pop	{r4, r5, r6, pc}
 250              		.cfi_endproc
 251              	.LFE230:
 252              		.size	chMBPostS, .-chMBPostS
 253 0036 00BFAFF3 		.section	.text.chMBPost,"ax",%progbits
 253      0080AFF3 
 253      0080
 254              		.align	2
 255              		.p2align 4,,15
 256              		.global	chMBPost
 257              		.thumb
 258              		.thumb_func
 259              		.type	chMBPost, %function
 260              	chMBPost:
 261              	.LFB229:
 262              		.loc 1 151 0
 263              		.cfi_startproc
 264              		@ args = 0, pretend = 0, frame = 0
 265              		@ frame_needed = 0, uses_anonymous_args = 0
 266              	.LVL22:
 267 0000 08B5     		push	{r3, lr}
 268              		.cfi_def_cfa_offset 8
 269              		.cfi_offset 3, -8
 270              		.cfi_offset 14, -4
 271              	.LBB79:
 272              	.LBB80:
 273              	.LBB81:
 274              	.LBB82:
 275              		.loc 2 546 0
 276 0002 2023     		movs	r3, #32
 277              	@ 546 "../../../os/ext/CMSIS/include/core_cmFunc.h" 1
 278 0004 83F31188 		MSR basepri, r3
 279              	@ 0 "" 2
ARM GAS  C:\cygwin\tmp\ccX0bQ12.s 			page 6


 280              		.thumb
 281              	.LBE82:
 282              	.LBE81:
 283              	.LBE80:
 284              	.LBE79:
 285              		.loc 1 155 0
 286 0008 FFF7FEFF 		bl	chMBPostS
 287              	.LVL23:
 288              	.LBB83:
 289              	.LBB84:
 290              	.LBB85:
 291              	.LBB86:
 292              	.LBB87:
 293              		.loc 2 546 0
 294 000c 0023     		movs	r3, #0
 295              	@ 546 "../../../os/ext/CMSIS/include/core_cmFunc.h" 1
 296 000e 83F31188 		MSR basepri, r3
 297              	@ 0 "" 2
 298              		.thumb
 299              	.LBE87:
 300              	.LBE86:
 301              	.LBE85:
 302              	.LBE84:
 303              	.LBE83:
 304              		.loc 1 159 0
 305 0012 08BD     		pop	{r3, pc}
 306              		.cfi_endproc
 307              	.LFE229:
 308              		.size	chMBPost, .-chMBPost
 309 0014 AFF30080 		.section	.text.chMBPostI,"ax",%progbits
 309      AFF30080 
 309      AFF30080 
 310              		.align	2
 311              		.p2align 4,,15
 312              		.global	chMBPostI
 313              		.thumb
 314              		.thumb_func
 315              		.type	chMBPostI, %function
 316              	chMBPostI:
 317              	.LFB231:
 318              		.loc 1 213 0
 319              		.cfi_startproc
 320              		@ args = 0, pretend = 0, frame = 0
 321              		@ frame_needed = 0, uses_anonymous_args = 0
 322              	.LVL24:
 323 0000 38B5     		push	{r3, r4, r5, lr}
 324              		.cfi_def_cfa_offset 16
 325              		.cfi_offset 3, -16
 326              		.cfi_offset 4, -12
 327              		.cfi_offset 5, -8
 328              		.cfi_offset 14, -4
 329 0002 436A     		ldr	r3, [r0, #36]
 330              	.LVL25:
 331              		.loc 1 218 0
 332 0004 002B     		cmp	r3, #0
 333 0006 12DD     		ble	.L17
 334              	.LVL26:
ARM GAS  C:\cygwin\tmp\ccX0bQ12.s 			page 7


 335              		.loc 1 223 0
 336 0008 8468     		ldr	r4, [r0, #8]
 337              		.loc 1 224 0
 338 000a 4568     		ldr	r5, [r0, #4]
 339              		.loc 1 223 0
 340 000c 221D     		adds	r2, r4, #4
 341              	.LBB88:
 342              	.LBB89:
 343              		.file 3 "../../../os/rt/include/chsem.h"
 344              		.loc 3 122 0
 345 000e 013B     		subs	r3, r3, #1
 346              	.LBE89:
 347              	.LBE88:
 348              		.loc 1 224 0
 349 0010 AA42     		cmp	r2, r5
 350              	.LBB91:
 351              	.LBB90:
 352              		.loc 3 122 0
 353 0012 4362     		str	r3, [r0, #36]
 354              	.LBE90:
 355              	.LBE91:
 356              		.loc 1 225 0
 357 0014 28BF     		it	cs
 358 0016 0368     		ldrcs	r3, [r0]
 359              		.loc 1 223 0
 360 0018 8260     		str	r2, [r0, #8]
 361 001a 2160     		str	r1, [r4]
 362              		.loc 1 227 0
 363 001c 00F11000 		add	r0, r0, #16
 364              	.LVL27:
 365              		.loc 1 225 0
 366 0020 28BF     		it	cs
 367 0022 40F8083C 		strcs	r3, [r0, #-8]
 368              		.loc 1 227 0
 369 0026 FFF7FEFF 		bl	chSemSignalI
 370              	.LVL28:
 371              		.loc 1 229 0
 372 002a 0020     		movs	r0, #0
 373 002c 38BD     		pop	{r3, r4, r5, pc}
 374              	.LVL29:
 375              	.L17:
 376              		.loc 1 219 0
 377 002e 4FF0FF30 		mov	r0, #-1
 378              	.LVL30:
 379              		.loc 1 230 0
 380 0032 38BD     		pop	{r3, r4, r5, pc}
 381              		.cfi_endproc
 382              	.LFE231:
 383              		.size	chMBPostI, .-chMBPostI
 384 0034 AFF30080 		.section	.text.chMBPostAheadS,"ax",%progbits
 384      AFF30080 
 384      AFF30080 
 385              		.align	2
 386              		.p2align 4,,15
 387              		.global	chMBPostAheadS
 388              		.thumb
 389              		.thumb_func
ARM GAS  C:\cygwin\tmp\ccX0bQ12.s 			page 8


 390              		.type	chMBPostAheadS, %function
 391              	chMBPostAheadS:
 392              	.LFB233:
 393              		.loc 1 280 0
 394              		.cfi_startproc
 395              		@ args = 0, pretend = 0, frame = 0
 396              		@ frame_needed = 0, uses_anonymous_args = 0
 397              	.LVL31:
 398 0000 70B5     		push	{r4, r5, r6, lr}
 399              		.cfi_def_cfa_offset 16
 400              		.cfi_offset 4, -16
 401              		.cfi_offset 5, -12
 402              		.cfi_offset 6, -8
 403              		.cfi_offset 14, -4
 404              		.loc 1 280 0
 405 0002 0446     		mov	r4, r0
 406 0004 0E46     		mov	r6, r1
 407              		.loc 1 286 0
 408 0006 1C30     		adds	r0, r0, #28
 409              	.LVL32:
 410 0008 1146     		mov	r1, r2
 411              	.LVL33:
 412 000a FFF7FEFF 		bl	chSemWaitTimeoutS
 413              	.LVL34:
 414              		.loc 1 287 0
 415 000e 0546     		mov	r5, r0
 416 0010 60B9     		cbnz	r0, .L20
 417              	.LVL35:
 418              	.LBB94:
 419              	.LBB95:
 420              		.loc 1 288 0
 421 0012 E368     		ldr	r3, [r4, #12]
 422 0014 2268     		ldr	r2, [r4]
 423 0016 043B     		subs	r3, r3, #4
 424 0018 9342     		cmp	r3, r2
 425 001a E360     		str	r3, [r4, #12]
 426 001c 08D3     		bcc	.L23
 427              	.L21:
 428              		.loc 1 291 0
 429 001e 1E60     		str	r6, [r3]
 430              		.loc 1 292 0
 431 0020 04F11000 		add	r0, r4, #16
 432              	.LVL36:
 433 0024 FFF7FEFF 		bl	chSemSignalI
 434              	.LVL37:
 435              		.loc 1 293 0
 436 0028 FFF7FEFF 		bl	chSchRescheduleS
 437              	.LVL38:
 438              	.L20:
 439              	.LBE95:
 440              	.LBE94:
 441              		.loc 1 297 0
 442 002c 2846     		mov	r0, r5
 443 002e 70BD     		pop	{r4, r5, r6, pc}
 444              	.LVL39:
 445              	.L23:
 446              	.LBB97:
ARM GAS  C:\cygwin\tmp\ccX0bQ12.s 			page 9


 447              	.LBB96:
 448              		.loc 1 289 0
 449 0030 6368     		ldr	r3, [r4, #4]
 450 0032 043B     		subs	r3, r3, #4
 451 0034 E360     		str	r3, [r4, #12]
 452 0036 F2E7     		b	.L21
 453              	.LBE96:
 454              	.LBE97:
 455              		.cfi_endproc
 456              	.LFE233:
 457              		.size	chMBPostAheadS, .-chMBPostAheadS
 458 0038 AFF30080 		.section	.text.chMBPostAhead,"ax",%progbits
 458      AFF30080 
 459              		.align	2
 460              		.p2align 4,,15
 461              		.global	chMBPostAhead
 462              		.thumb
 463              		.thumb_func
 464              		.type	chMBPostAhead, %function
 465              	chMBPostAhead:
 466              	.LFB232:
 467              		.loc 1 251 0
 468              		.cfi_startproc
 469              		@ args = 0, pretend = 0, frame = 0
 470              		@ frame_needed = 0, uses_anonymous_args = 0
 471              	.LVL40:
 472 0000 08B5     		push	{r3, lr}
 473              		.cfi_def_cfa_offset 8
 474              		.cfi_offset 3, -8
 475              		.cfi_offset 14, -4
 476              	.LBB98:
 477              	.LBB99:
 478              	.LBB100:
 479              	.LBB101:
 480              		.loc 2 546 0
 481 0002 2023     		movs	r3, #32
 482              	@ 546 "../../../os/ext/CMSIS/include/core_cmFunc.h" 1
 483 0004 83F31188 		MSR basepri, r3
 484              	@ 0 "" 2
 485              		.thumb
 486              	.LBE101:
 487              	.LBE100:
 488              	.LBE99:
 489              	.LBE98:
 490              		.loc 1 255 0
 491 0008 FFF7FEFF 		bl	chMBPostAheadS
 492              	.LVL41:
 493              	.LBB102:
 494              	.LBB103:
 495              	.LBB104:
 496              	.LBB105:
 497              	.LBB106:
 498              		.loc 2 546 0
 499 000c 0023     		movs	r3, #0
 500              	@ 546 "../../../os/ext/CMSIS/include/core_cmFunc.h" 1
 501 000e 83F31188 		MSR basepri, r3
 502              	@ 0 "" 2
ARM GAS  C:\cygwin\tmp\ccX0bQ12.s 			page 10


 503              		.thumb
 504              	.LBE106:
 505              	.LBE105:
 506              	.LBE104:
 507              	.LBE103:
 508              	.LBE102:
 509              		.loc 1 259 0
 510 0012 08BD     		pop	{r3, pc}
 511              		.cfi_endproc
 512              	.LFE232:
 513              		.size	chMBPostAhead, .-chMBPostAhead
 514 0014 AFF30080 		.section	.text.chMBPostAheadI,"ax",%progbits
 514      AFF30080 
 514      AFF30080 
 515              		.align	2
 516              		.p2align 4,,15
 517              		.global	chMBPostAheadI
 518              		.thumb
 519              		.thumb_func
 520              		.type	chMBPostAheadI, %function
 521              	chMBPostAheadI:
 522              	.LFB234:
 523              		.loc 1 313 0
 524              		.cfi_startproc
 525              		@ args = 0, pretend = 0, frame = 0
 526              		@ frame_needed = 0, uses_anonymous_args = 0
 527              	.LVL42:
 528 0000 426A     		ldr	r2, [r0, #36]
 529              	.LVL43:
 530              		.loc 1 318 0
 531 0002 002A     		cmp	r2, #0
 532 0004 11DD     		ble	.L29
 533              	.LVL44:
 534              		.loc 1 322 0
 535 0006 C368     		ldr	r3, [r0, #12]
 536              		.loc 1 313 0
 537 0008 10B5     		push	{r4, lr}
 538              		.cfi_def_cfa_offset 8
 539              		.cfi_offset 4, -8
 540              		.cfi_offset 14, -4
 541              		.loc 1 322 0
 542 000a 0468     		ldr	r4, [r0]
 543 000c 043B     		subs	r3, r3, #4
 544              	.LBB107:
 545              	.LBB108:
 546              		.loc 3 122 0
 547 000e 013A     		subs	r2, r2, #1
 548              	.LBE108:
 549              	.LBE107:
 550              		.loc 1 322 0
 551 0010 A342     		cmp	r3, r4
 552              	.LBB110:
 553              	.LBB109:
 554              		.loc 3 122 0
 555 0012 4262     		str	r2, [r0, #36]
 556              	.LBE109:
 557              	.LBE110:
ARM GAS  C:\cygwin\tmp\ccX0bQ12.s 			page 11


 558              		.loc 1 322 0
 559 0014 C360     		str	r3, [r0, #12]
 560 0016 02D2     		bcs	.L28
 561              		.loc 1 323 0
 562 0018 4368     		ldr	r3, [r0, #4]
 563 001a 043B     		subs	r3, r3, #4
 564 001c C360     		str	r3, [r0, #12]
 565              	.L28:
 566              		.loc 1 325 0
 567 001e 1960     		str	r1, [r3]
 568              		.loc 1 326 0
 569 0020 1030     		adds	r0, r0, #16
 570              	.LVL45:
 571 0022 FFF7FEFF 		bl	chSemSignalI
 572              	.LVL46:
 573              		.loc 1 328 0
 574 0026 0020     		movs	r0, #0
 575 0028 10BD     		pop	{r4, pc}
 576              	.LVL47:
 577              	.L29:
 578              		.cfi_def_cfa_offset 0
 579              		.cfi_restore 4
 580              		.cfi_restore 14
 581              		.loc 1 319 0
 582 002a 4FF0FF30 		mov	r0, #-1
 583              	.LVL48:
 584 002e 7047     		bx	lr
 585              		.cfi_endproc
 586              	.LFE234:
 587              		.size	chMBPostAheadI, .-chMBPostAheadI
 588              		.section	.text.chMBFetchS,"ax",%progbits
 589              		.align	2
 590              		.p2align 4,,15
 591              		.global	chMBFetchS
 592              		.thumb
 593              		.thumb_func
 594              		.type	chMBFetchS, %function
 595              	chMBFetchS:
 596              	.LFB236:
 597              		.loc 1 379 0
 598              		.cfi_startproc
 599              		@ args = 0, pretend = 0, frame = 0
 600              		@ frame_needed = 0, uses_anonymous_args = 0
 601              	.LVL49:
 602 0000 70B5     		push	{r4, r5, r6, lr}
 603              		.cfi_def_cfa_offset 16
 604              		.cfi_offset 4, -16
 605              		.cfi_offset 5, -12
 606              		.cfi_offset 6, -8
 607              		.cfi_offset 14, -4
 608              		.loc 1 379 0
 609 0002 0446     		mov	r4, r0
 610 0004 0E46     		mov	r6, r1
 611              		.loc 1 385 0
 612 0006 1030     		adds	r0, r0, #16
 613              	.LVL50:
 614 0008 1146     		mov	r1, r2
ARM GAS  C:\cygwin\tmp\ccX0bQ12.s 			page 12


 615              	.LVL51:
 616 000a FFF7FEFF 		bl	chSemWaitTimeoutS
 617              	.LVL52:
 618              		.loc 1 386 0
 619 000e 0546     		mov	r5, r0
 620 0010 80B9     		cbnz	r0, .L33
 621              	.LVL53:
 622              	.LBB113:
 623              	.LBB114:
 624              		.loc 1 387 0
 625 0012 E368     		ldr	r3, [r4, #12]
 626              		.loc 1 388 0
 627 0014 6268     		ldr	r2, [r4, #4]
 628              		.loc 1 387 0
 629 0016 1968     		ldr	r1, [r3]
 630 0018 0433     		adds	r3, r3, #4
 631              		.loc 1 388 0
 632 001a 9342     		cmp	r3, r2
 633              		.loc 1 387 0
 634 001c E360     		str	r3, [r4, #12]
 635              		.loc 1 389 0
 636 001e 28BF     		it	cs
 637 0020 2368     		ldrcs	r3, [r4]
 638              		.loc 1 387 0
 639 0022 3160     		str	r1, [r6]
 640              		.loc 1 391 0
 641 0024 04F11C00 		add	r0, r4, #28
 642              	.LVL54:
 643              		.loc 1 389 0
 644 0028 28BF     		it	cs
 645 002a E360     		strcs	r3, [r4, #12]
 646              		.loc 1 391 0
 647 002c FFF7FEFF 		bl	chSemSignalI
 648              	.LVL55:
 649              		.loc 1 392 0
 650 0030 FFF7FEFF 		bl	chSchRescheduleS
 651              	.LVL56:
 652              	.L33:
 653              	.LBE114:
 654              	.LBE113:
 655              		.loc 1 396 0
 656 0034 2846     		mov	r0, r5
 657 0036 70BD     		pop	{r4, r5, r6, pc}
 658              		.cfi_endproc
 659              	.LFE236:
 660              		.size	chMBFetchS, .-chMBFetchS
 661 0038 AFF30080 		.section	.text.chMBFetch,"ax",%progbits
 661      AFF30080 
 662              		.align	2
 663              		.p2align 4,,15
 664              		.global	chMBFetch
 665              		.thumb
 666              		.thumb_func
 667              		.type	chMBFetch, %function
 668              	chMBFetch:
 669              	.LFB235:
 670              		.loc 1 350 0
ARM GAS  C:\cygwin\tmp\ccX0bQ12.s 			page 13


 671              		.cfi_startproc
 672              		@ args = 0, pretend = 0, frame = 0
 673              		@ frame_needed = 0, uses_anonymous_args = 0
 674              	.LVL57:
 675 0000 08B5     		push	{r3, lr}
 676              		.cfi_def_cfa_offset 8
 677              		.cfi_offset 3, -8
 678              		.cfi_offset 14, -4
 679              	.LBB115:
 680              	.LBB116:
 681              	.LBB117:
 682              	.LBB118:
 683              		.loc 2 546 0
 684 0002 2023     		movs	r3, #32
 685              	@ 546 "../../../os/ext/CMSIS/include/core_cmFunc.h" 1
 686 0004 83F31188 		MSR basepri, r3
 687              	@ 0 "" 2
 688              		.thumb
 689              	.LBE118:
 690              	.LBE117:
 691              	.LBE116:
 692              	.LBE115:
 693              		.loc 1 354 0
 694 0008 FFF7FEFF 		bl	chMBFetchS
 695              	.LVL58:
 696              	.LBB119:
 697              	.LBB120:
 698              	.LBB121:
 699              	.LBB122:
 700              	.LBB123:
 701              		.loc 2 546 0
 702 000c 0023     		movs	r3, #0
 703              	@ 546 "../../../os/ext/CMSIS/include/core_cmFunc.h" 1
 704 000e 83F31188 		MSR basepri, r3
 705              	@ 0 "" 2
 706              		.thumb
 707              	.LBE123:
 708              	.LBE122:
 709              	.LBE121:
 710              	.LBE120:
 711              	.LBE119:
 712              		.loc 1 358 0
 713 0012 08BD     		pop	{r3, pc}
 714              		.cfi_endproc
 715              	.LFE235:
 716              		.size	chMBFetch, .-chMBFetch
 717 0014 AFF30080 		.section	.text.chMBFetchI,"ax",%progbits
 717      AFF30080 
 717      AFF30080 
 718              		.align	2
 719              		.p2align 4,,15
 720              		.global	chMBFetchI
 721              		.thumb
 722              		.thumb_func
 723              		.type	chMBFetchI, %function
 724              	chMBFetchI:
 725              	.LFB237:
ARM GAS  C:\cygwin\tmp\ccX0bQ12.s 			page 14


 726              		.loc 1 412 0
 727              		.cfi_startproc
 728              		@ args = 0, pretend = 0, frame = 0
 729              		@ frame_needed = 0, uses_anonymous_args = 0
 730              	.LVL59:
 731 0000 8369     		ldr	r3, [r0, #24]
 732              	.LVL60:
 733              		.loc 1 417 0
 734 0002 002B     		cmp	r3, #0
 735 0004 14DD     		ble	.L41
 736              	.LVL61:
 737              	.LBB124:
 738              	.LBB125:
 739              		.loc 3 122 0
 740 0006 5A1E     		subs	r2, r3, #1
 741              	.LBE125:
 742              	.LBE124:
 743              		.loc 1 421 0
 744 0008 C368     		ldr	r3, [r0, #12]
 745              		.loc 1 412 0
 746 000a 10B5     		push	{r4, lr}
 747              		.cfi_def_cfa_offset 8
 748              		.cfi_offset 4, -8
 749              		.cfi_offset 14, -4
 750              	.LBB127:
 751              	.LBB126:
 752              		.loc 3 122 0
 753 000c 8261     		str	r2, [r0, #24]
 754              	.LBE126:
 755              	.LBE127:
 756              		.loc 1 422 0
 757 000e 4268     		ldr	r2, [r0, #4]
 758              		.loc 1 421 0
 759 0010 1C68     		ldr	r4, [r3]
 760 0012 0433     		adds	r3, r3, #4
 761              		.loc 1 422 0
 762 0014 9342     		cmp	r3, r2
 763              		.loc 1 421 0
 764 0016 C360     		str	r3, [r0, #12]
 765              		.loc 1 423 0
 766 0018 28BF     		it	cs
 767 001a 0368     		ldrcs	r3, [r0]
 768              		.loc 1 421 0
 769 001c 0C60     		str	r4, [r1]
 770              		.loc 1 425 0
 771 001e 00F11C00 		add	r0, r0, #28
 772              	.LVL62:
 773              		.loc 1 423 0
 774 0022 28BF     		it	cs
 775 0024 40F8103C 		strcs	r3, [r0, #-16]
 776              		.loc 1 425 0
 777 0028 FFF7FEFF 		bl	chSemSignalI
 778              	.LVL63:
 779              		.loc 1 427 0
 780 002c 0020     		movs	r0, #0
 781 002e 10BD     		pop	{r4, pc}
 782              	.LVL64:
ARM GAS  C:\cygwin\tmp\ccX0bQ12.s 			page 15


 783              	.L41:
 784              		.cfi_def_cfa_offset 0
 785              		.cfi_restore 4
 786              		.cfi_restore 14
 787              		.loc 1 418 0
 788 0030 4FF0FF30 		mov	r0, #-1
 789              	.LVL65:
 790 0034 7047     		bx	lr
 791              		.cfi_endproc
 792              	.LFE237:
 793              		.size	chMBFetchI, .-chMBFetchI
 794 0036 00BFAFF3 		.text
 794      0080AFF3 
 794      0080
 795              	.Letext0:
 796              		.file 4 "c:\\program files\\gnu tools arm embedded\\4.9 2014q4\\arm-none-eabi\\include\\machine\\_
 797              		.file 5 "c:\\program files\\gnu tools arm embedded\\4.9 2014q4\\arm-none-eabi\\include\\stdint.h"
 798              		.file 6 "../../../os/rt/ports/ARMCMx/compilers/GCC/chtypes.h"
 799              		.file 7 "../../../os/rt/include/chsystypes.h"
 800              		.file 8 "../../../os/rt/include/chschd.h"
 801              		.file 9 "../../../os/rt/ports/ARMCMx/chcore.h"
 802              		.file 10 "../../../os/rt/ports/ARMCMx/chcore_v7m.h"
 803              		.file 11 "../../../os/rt/include/chtm.h"
 804              		.file 12 "../../../os/rt/include/chmtx.h"
 805              		.file 13 "../../../os/rt/include/chmboxes.h"
 806              		.file 14 "../../../os/rt/include/chsys.h"
 807              		.file 15 "../../../os/ext/CMSIS/include/core_cm4.h"
 808              		.section	.debug_info,"",%progbits
 809              	.Ldebug_info0:
 810 0000 92100000 		.4byte	0x1092
 811 0004 0400     		.2byte	0x4
 812 0006 00000000 		.4byte	.Ldebug_abbrev0
 813 000a 04       		.byte	0x4
 814 000b 01       		.uleb128 0x1
 815 000c 89020000 		.4byte	.LASF132
 816 0010 01       		.byte	0x1
 817 0011 10050000 		.4byte	.LASF133
 818 0015 0D040000 		.4byte	.LASF134
 819 0019 60000000 		.4byte	.Ldebug_ranges0+0x60
 820 001d 00000000 		.4byte	0
 821 0021 00000000 		.4byte	.Ldebug_line0
 822 0025 02       		.uleb128 0x2
 823 0026 04       		.byte	0x4
 824 0027 05       		.byte	0x5
 825 0028 696E7400 		.ascii	"int\000"
 826 002c 03       		.uleb128 0x3
 827 002d 04       		.byte	0x4
 828 002e 07       		.byte	0x7
 829 002f D6010000 		.4byte	.LASF0
 830 0033 03       		.uleb128 0x3
 831 0034 01       		.byte	0x1
 832 0035 06       		.byte	0x6
 833 0036 17010000 		.4byte	.LASF1
 834 003a 04       		.uleb128 0x4
 835 003b 39000000 		.4byte	.LASF5
 836 003f 04       		.byte	0x4
 837 0040 1D       		.byte	0x1d
ARM GAS  C:\cygwin\tmp\ccX0bQ12.s 			page 16


 838 0041 45000000 		.4byte	0x45
 839 0045 03       		.uleb128 0x3
 840 0046 01       		.byte	0x1
 841 0047 08       		.byte	0x8
 842 0048 99040000 		.4byte	.LASF2
 843 004c 03       		.uleb128 0x3
 844 004d 02       		.byte	0x2
 845 004e 05       		.byte	0x5
 846 004f C5040000 		.4byte	.LASF3
 847 0053 03       		.uleb128 0x3
 848 0054 02       		.byte	0x2
 849 0055 07       		.byte	0x7
 850 0056 F6000000 		.4byte	.LASF4
 851 005a 04       		.uleb128 0x4
 852 005b 7A020000 		.4byte	.LASF6
 853 005f 04       		.byte	0x4
 854 0060 3F       		.byte	0x3f
 855 0061 65000000 		.4byte	0x65
 856 0065 03       		.uleb128 0x3
 857 0066 04       		.byte	0x4
 858 0067 05       		.byte	0x5
 859 0068 50010000 		.4byte	.LASF7
 860 006c 04       		.uleb128 0x4
 861 006d B5010000 		.4byte	.LASF8
 862 0071 04       		.byte	0x4
 863 0072 41       		.byte	0x41
 864 0073 77000000 		.4byte	0x77
 865 0077 03       		.uleb128 0x3
 866 0078 04       		.byte	0x4
 867 0079 07       		.byte	0x7
 868 007a 80050000 		.4byte	.LASF9
 869 007e 03       		.uleb128 0x3
 870 007f 08       		.byte	0x8
 871 0080 05       		.byte	0x5
 872 0081 09010000 		.4byte	.LASF10
 873 0085 04       		.uleb128 0x4
 874 0086 02040000 		.4byte	.LASF11
 875 008a 04       		.byte	0x4
 876 008b 5B       		.byte	0x5b
 877 008c 90000000 		.4byte	0x90
 878 0090 03       		.uleb128 0x3
 879 0091 08       		.byte	0x8
 880 0092 07       		.byte	0x7
 881 0093 90000000 		.4byte	.LASF12
 882 0097 04       		.uleb128 0x4
 883 0098 6F060000 		.4byte	.LASF13
 884 009c 05       		.byte	0x5
 885 009d 15       		.byte	0x15
 886 009e 3A000000 		.4byte	0x3a
 887 00a2 04       		.uleb128 0x4
 888 00a3 91040000 		.4byte	.LASF14
 889 00a7 05       		.byte	0x5
 890 00a8 2C       		.byte	0x2c
 891 00a9 5A000000 		.4byte	0x5a
 892 00ad 04       		.uleb128 0x4
 893 00ae 56050000 		.4byte	.LASF15
 894 00b2 05       		.byte	0x5
ARM GAS  C:\cygwin\tmp\ccX0bQ12.s 			page 17


 895 00b3 2D       		.byte	0x2d
 896 00b4 6C000000 		.4byte	0x6c
 897 00b8 04       		.uleb128 0x4
 898 00b9 30000000 		.4byte	.LASF16
 899 00bd 05       		.byte	0x5
 900 00be 39       		.byte	0x39
 901 00bf 85000000 		.4byte	0x85
 902 00c3 05       		.uleb128 0x5
 903 00c4 A2000000 		.4byte	0xa2
 904 00c8 04       		.uleb128 0x4
 905 00c9 1D060000 		.4byte	.LASF17
 906 00cd 06       		.byte	0x6
 907 00ce 45       		.byte	0x45
 908 00cf AD000000 		.4byte	0xad
 909 00d3 04       		.uleb128 0x4
 910 00d4 58020000 		.4byte	.LASF18
 911 00d8 06       		.byte	0x6
 912 00d9 48       		.byte	0x48
 913 00da 97000000 		.4byte	0x97
 914 00de 04       		.uleb128 0x4
 915 00df 59010000 		.4byte	.LASF19
 916 00e3 06       		.byte	0x6
 917 00e4 49       		.byte	0x49
 918 00e5 97000000 		.4byte	0x97
 919 00e9 04       		.uleb128 0x4
 920 00ea 54040000 		.4byte	.LASF20
 921 00ee 06       		.byte	0x6
 922 00ef 4A       		.byte	0x4a
 923 00f0 97000000 		.4byte	0x97
 924 00f4 04       		.uleb128 0x4
 925 00f5 73040000 		.4byte	.LASF21
 926 00f9 06       		.byte	0x6
 927 00fa 4C       		.byte	0x4c
 928 00fb AD000000 		.4byte	0xad
 929 00ff 04       		.uleb128 0x4
 930 0100 33020000 		.4byte	.LASF22
 931 0104 06       		.byte	0x6
 932 0105 4D       		.byte	0x4d
 933 0106 A2000000 		.4byte	0xa2
 934 010a 04       		.uleb128 0x4
 935 010b 6E020000 		.4byte	.LASF23
 936 010f 06       		.byte	0x6
 937 0110 4F       		.byte	0x4f
 938 0111 AD000000 		.4byte	0xad
 939 0115 04       		.uleb128 0x4
 940 0116 D0010000 		.4byte	.LASF24
 941 011a 06       		.byte	0x6
 942 011b 51       		.byte	0x51
 943 011c A2000000 		.4byte	0xa2
 944 0120 04       		.uleb128 0x4
 945 0121 B9050000 		.4byte	.LASF25
 946 0125 07       		.byte	0x7
 947 0126 33       		.byte	0x33
 948 0127 AD000000 		.4byte	0xad
 949 012b 04       		.uleb128 0x4
 950 012c A9050000 		.4byte	.LASF26
 951 0130 07       		.byte	0x7
ARM GAS  C:\cygwin\tmp\ccX0bQ12.s 			page 18


 952 0131 3F       		.byte	0x3f
 953 0132 36010000 		.4byte	0x136
 954 0136 06       		.uleb128 0x6
 955 0137 13020000 		.4byte	.LASF45
 956 013b 44       		.byte	0x44
 957 013c 08       		.byte	0x8
 958 013d BE       		.byte	0xbe
 959 013e 23020000 		.4byte	0x223
 960 0142 07       		.uleb128 0x7
 961 0143 E5040000 		.4byte	.LASF27
 962 0147 08       		.byte	0x8
 963 0148 BF       		.byte	0xbf
 964 0149 07050000 		.4byte	0x507
 965 014d 00       		.byte	0
 966 014e 07       		.uleb128 0x7
 967 014f 6C040000 		.4byte	.LASF28
 968 0153 08       		.byte	0x8
 969 0154 C1       		.byte	0xc1
 970 0155 07050000 		.4byte	0x507
 971 0159 04       		.byte	0x4
 972 015a 07       		.uleb128 0x7
 973 015b EF000000 		.4byte	.LASF29
 974 015f 08       		.byte	0x8
 975 0160 C3       		.byte	0xc3
 976 0161 F4000000 		.4byte	0xf4
 977 0165 08       		.byte	0x8
 978 0166 07       		.uleb128 0x7
 979 0167 B8060000 		.4byte	.LASF30
 980 016b 08       		.byte	0x8
 981 016c C4       		.byte	0xc4
 982 016d 4D040000 		.4byte	0x44d
 983 0171 0C       		.byte	0xc
 984 0172 07       		.uleb128 0x7
 985 0173 6C010000 		.4byte	.LASF31
 986 0177 08       		.byte	0x8
 987 0178 C6       		.byte	0xc6
 988 0179 07050000 		.4byte	0x507
 989 017d 10       		.byte	0x10
 990 017e 07       		.uleb128 0x7
 991 017f B8030000 		.4byte	.LASF32
 992 0183 08       		.byte	0x8
 993 0184 C7       		.byte	0xc7
 994 0185 07050000 		.4byte	0x507
 995 0189 14       		.byte	0x14
 996 018a 07       		.uleb128 0x7
 997 018b 7E060000 		.4byte	.LASF33
 998 018f 08       		.byte	0x8
 999 0190 CE       		.byte	0xce
 1000 0191 45050000 		.4byte	0x545
 1001 0195 18       		.byte	0x18
 1002 0196 07       		.uleb128 0x7
 1003 0197 CF040000 		.4byte	.LASF34
 1004 019b 08       		.byte	0x8
 1005 019c D9       		.byte	0xd9
 1006 019d DE000000 		.4byte	0xde
 1007 01a1 1C       		.byte	0x1c
 1008 01a2 07       		.uleb128 0x7
ARM GAS  C:\cygwin\tmp\ccX0bQ12.s 			page 19


 1009 01a3 EC040000 		.4byte	.LASF35
 1010 01a7 08       		.byte	0x8
 1011 01a8 DD       		.byte	0xdd
 1012 01a9 D3000000 		.4byte	0xd3
 1013 01ad 1D       		.byte	0x1d
 1014 01ae 07       		.uleb128 0x7
 1015 01af 56060000 		.4byte	.LASF36
 1016 01b3 08       		.byte	0x8
 1017 01b4 E2       		.byte	0xe2
 1018 01b5 E9000000 		.4byte	0xe9
 1019 01b9 1E       		.byte	0x1e
 1020 01ba 08       		.uleb128 0x8
 1021 01bb 705F7500 		.ascii	"p_u\000"
 1022 01bf 08       		.byte	0x8
 1023 01c0 1401     		.2byte	0x114
 1024 01c2 0D050000 		.4byte	0x50d
 1025 01c6 20       		.byte	0x20
 1026 01c7 09       		.uleb128 0x9
 1027 01c8 6E030000 		.4byte	.LASF37
 1028 01cc 08       		.byte	0x8
 1029 01cd 1901     		.2byte	0x119
 1030 01cf 23020000 		.4byte	0x223
 1031 01d3 24       		.byte	0x24
 1032 01d4 09       		.uleb128 0x9
 1033 01d5 EB010000 		.4byte	.LASF38
 1034 01d9 08       		.byte	0x8
 1035 01da 1F01     		.2byte	0x11f
 1036 01dc 47020000 		.4byte	0x247
 1037 01e0 28       		.byte	0x28
 1038 01e1 09       		.uleb128 0x9
 1039 01e2 A0060000 		.4byte	.LASF39
 1040 01e6 08       		.byte	0x8
 1041 01e7 2301     		.2byte	0x123
 1042 01e9 FF000000 		.4byte	0xff
 1043 01ed 30       		.byte	0x30
 1044 01ee 09       		.uleb128 0x9
 1045 01ef 4B050000 		.4byte	.LASF40
 1046 01f3 08       		.byte	0x8
 1047 01f4 2901     		.2byte	0x129
 1048 01f6 0A010000 		.4byte	0x10a
 1049 01fa 34       		.byte	0x34
 1050 01fb 09       		.uleb128 0x9
 1051 01fc BB040000 		.4byte	.LASF41
 1052 0200 08       		.byte	0x8
 1053 0201 3001     		.2byte	0x130
 1054 0203 88050000 		.4byte	0x588
 1055 0207 38       		.byte	0x38
 1056 0208 09       		.uleb128 0x9
 1057 0209 C3050000 		.4byte	.LASF42
 1058 020d 08       		.byte	0x8
 1059 020e 3401     		.2byte	0x134
 1060 0210 F4000000 		.4byte	0xf4
 1061 0214 3C       		.byte	0x3c
 1062 0215 09       		.uleb128 0x9
 1063 0216 23010000 		.4byte	.LASF43
 1064 021a 08       		.byte	0x8
 1065 021b 3A01     		.2byte	0x13a
ARM GAS  C:\cygwin\tmp\ccX0bQ12.s 			page 20


 1066 021d FA020000 		.4byte	0x2fa
 1067 0221 40       		.byte	0x40
 1068 0222 00       		.byte	0
 1069 0223 04       		.uleb128 0x4
 1070 0224 85060000 		.4byte	.LASF44
 1071 0228 07       		.byte	0x7
 1072 0229 44       		.byte	0x44
 1073 022a 2E020000 		.4byte	0x22e
 1074 022e 06       		.uleb128 0x6
 1075 022f 70050000 		.4byte	.LASF46
 1076 0233 04       		.byte	0x4
 1077 0234 08       		.byte	0x8
 1078 0235 AC       		.byte	0xac
 1079 0236 47020000 		.4byte	0x247
 1080 023a 07       		.uleb128 0x7
 1081 023b E5040000 		.4byte	.LASF27
 1082 023f 08       		.byte	0x8
 1083 0240 AD       		.byte	0xad
 1084 0241 07050000 		.4byte	0x507
 1085 0245 00       		.byte	0
 1086 0246 00       		.byte	0
 1087 0247 04       		.uleb128 0x4
 1088 0248 46060000 		.4byte	.LASF47
 1089 024c 07       		.byte	0x7
 1090 024d 4B       		.byte	0x4b
 1091 024e 52020000 		.4byte	0x252
 1092 0252 06       		.uleb128 0x6
 1093 0253 DE000000 		.4byte	.LASF48
 1094 0257 08       		.byte	0x8
 1095 0258 08       		.byte	0x8
 1096 0259 B3       		.byte	0xb3
 1097 025a 77020000 		.4byte	0x277
 1098 025e 07       		.uleb128 0x7
 1099 025f E5040000 		.4byte	.LASF27
 1100 0263 08       		.byte	0x8
 1101 0264 B4       		.byte	0xb4
 1102 0265 07050000 		.4byte	0x507
 1103 0269 00       		.byte	0
 1104 026a 07       		.uleb128 0x7
 1105 026b 6C040000 		.4byte	.LASF28
 1106 026f 08       		.byte	0x8
 1107 0270 B5       		.byte	0xb5
 1108 0271 07050000 		.4byte	0x507
 1109 0275 04       		.byte	0x4
 1110 0276 00       		.byte	0
 1111 0277 04       		.uleb128 0x4
 1112 0278 00000000 		.4byte	.LASF49
 1113 027c 07       		.byte	0x7
 1114 027d 52       		.byte	0x52
 1115 027e 82020000 		.4byte	0x282
 1116 0282 0A       		.uleb128 0xa
 1117 0283 60020000 		.4byte	.LASF50
 1118 0287 1C       		.byte	0x1c
 1119 0288 08       		.byte	0x8
 1120 0289 7201     		.2byte	0x172
 1121 028b DE020000 		.4byte	0x2de
 1122 028f 09       		.uleb128 0x9
ARM GAS  C:\cygwin\tmp\ccX0bQ12.s 			page 21


 1123 0290 5F050000 		.4byte	.LASF51
 1124 0294 08       		.byte	0x8
 1125 0295 7301     		.2byte	0x173
 1126 0297 47020000 		.4byte	0x247
 1127 029b 00       		.byte	0
 1128 029c 09       		.uleb128 0x9
 1129 029d D7040000 		.4byte	.LASF52
 1130 02a1 08       		.byte	0x8
 1131 02a2 7401     		.2byte	0x174
 1132 02a4 F4000000 		.4byte	0xf4
 1133 02a8 08       		.byte	0x8
 1134 02a9 09       		.uleb128 0x9
 1135 02aa C0030000 		.4byte	.LASF53
 1136 02ae 08       		.byte	0x8
 1137 02af 7601     		.2byte	0x176
 1138 02b1 4D040000 		.4byte	0x44d
 1139 02b5 0C       		.byte	0xc
 1140 02b6 09       		.uleb128 0x9
 1141 02b7 39020000 		.4byte	.LASF54
 1142 02bb 08       		.byte	0x8
 1143 02bc 7901     		.2byte	0x179
 1144 02be 07050000 		.4byte	0x507
 1145 02c2 10       		.byte	0x10
 1146 02c3 09       		.uleb128 0x9
 1147 02c4 FA030000 		.4byte	.LASF55
 1148 02c8 08       		.byte	0x8
 1149 02c9 7A01     		.2byte	0x17a
 1150 02cb 07050000 		.4byte	0x507
 1151 02cf 14       		.byte	0x14
 1152 02d0 09       		.uleb128 0x9
 1153 02d1 F0030000 		.4byte	.LASF56
 1154 02d5 08       		.byte	0x8
 1155 02d6 7D01     		.2byte	0x17d
 1156 02d8 07050000 		.4byte	0x507
 1157 02dc 18       		.byte	0x18
 1158 02dd 00       		.byte	0
 1159 02de 04       		.uleb128 0x4
 1160 02df CE050000 		.4byte	.LASF57
 1161 02e3 07       		.byte	0x7
 1162 02e4 57       		.byte	0x57
 1163 02e5 E9020000 		.4byte	0x2e9
 1164 02e9 0B       		.uleb128 0xb
 1165 02ea 04       		.byte	0x4
 1166 02eb EF020000 		.4byte	0x2ef
 1167 02ef 0C       		.uleb128 0xc
 1168 02f0 FA020000 		.4byte	0x2fa
 1169 02f4 0D       		.uleb128 0xd
 1170 02f5 FA020000 		.4byte	0x2fa
 1171 02f9 00       		.byte	0
 1172 02fa 0E       		.uleb128 0xe
 1173 02fb 04       		.byte	0x4
 1174 02fc 04       		.uleb128 0x4
 1175 02fd 5C040000 		.4byte	.LASF58
 1176 0301 07       		.byte	0x7
 1177 0302 5C       		.byte	0x5c
 1178 0303 07030000 		.4byte	0x307
 1179 0307 0A       		.uleb128 0xa
ARM GAS  C:\cygwin\tmp\ccX0bQ12.s 			page 22


 1180 0308 3A050000 		.4byte	.LASF59
 1181 030c 14       		.byte	0x14
 1182 030d 08       		.byte	0x8
 1183 030e 4D01     		.2byte	0x14d
 1184 0310 56030000 		.4byte	0x356
 1185 0314 09       		.uleb128 0x9
 1186 0315 E3010000 		.4byte	.LASF60
 1187 0319 08       		.byte	0x8
 1188 031a 4E01     		.2byte	0x14e
 1189 031c 8E050000 		.4byte	0x58e
 1190 0320 00       		.byte	0
 1191 0321 09       		.uleb128 0x9
 1192 0322 9F010000 		.4byte	.LASF61
 1193 0326 08       		.byte	0x8
 1194 0327 4F01     		.2byte	0x14f
 1195 0329 8E050000 		.4byte	0x58e
 1196 032d 04       		.byte	0x4
 1197 032e 09       		.uleb128 0x9
 1198 032f 67050000 		.4byte	.LASF62
 1199 0333 08       		.byte	0x8
 1200 0334 5001     		.2byte	0x150
 1201 0336 20010000 		.4byte	0x120
 1202 033a 08       		.byte	0x8
 1203 033b 09       		.uleb128 0x9
 1204 033c BE060000 		.4byte	.LASF63
 1205 0340 08       		.byte	0x8
 1206 0341 5101     		.2byte	0x151
 1207 0343 DE020000 		.4byte	0x2de
 1208 0347 0C       		.byte	0xc
 1209 0348 09       		.uleb128 0x9
 1210 0349 25060000 		.4byte	.LASF64
 1211 034d 08       		.byte	0x8
 1212 034e 5301     		.2byte	0x153
 1213 0350 FA020000 		.4byte	0x2fa
 1214 0354 10       		.byte	0x10
 1215 0355 00       		.byte	0
 1216 0356 04       		.uleb128 0x4
 1217 0357 BF000000 		.4byte	.LASF65
 1218 035b 07       		.byte	0x7
 1219 035c 61       		.byte	0x61
 1220 035d 61030000 		.4byte	0x361
 1221 0361 0A       		.uleb128 0xa
 1222 0362 81030000 		.4byte	.LASF66
 1223 0366 10       		.byte	0x10
 1224 0367 08       		.byte	0x8
 1225 0368 5D01     		.2byte	0x15d
 1226 036a A3030000 		.4byte	0x3a3
 1227 036e 09       		.uleb128 0x9
 1228 036f E3010000 		.4byte	.LASF60
 1229 0373 08       		.byte	0x8
 1230 0374 5E01     		.2byte	0x15e
 1231 0376 8E050000 		.4byte	0x58e
 1232 037a 00       		.byte	0
 1233 037b 09       		.uleb128 0x9
 1234 037c 9F010000 		.4byte	.LASF61
 1235 0380 08       		.byte	0x8
 1236 0381 6001     		.2byte	0x160
ARM GAS  C:\cygwin\tmp\ccX0bQ12.s 			page 23


 1237 0383 8E050000 		.4byte	0x58e
 1238 0387 04       		.byte	0x4
 1239 0388 09       		.uleb128 0x9
 1240 0389 67050000 		.4byte	.LASF62
 1241 038d 08       		.byte	0x8
 1242 038e 6201     		.2byte	0x162
 1243 0390 20010000 		.4byte	0x120
 1244 0394 08       		.byte	0x8
 1245 0395 09       		.uleb128 0x9
 1246 0396 AC030000 		.4byte	.LASF67
 1247 039a 08       		.byte	0x8
 1248 039b 6A01     		.2byte	0x16a
 1249 039d 20010000 		.4byte	0x120
 1250 03a1 0C       		.byte	0xc
 1251 03a2 00       		.byte	0
 1252 03a3 04       		.uleb128 0x4
 1253 03a4 59000000 		.4byte	.LASF68
 1254 03a8 07       		.byte	0x7
 1255 03a9 66       		.byte	0x66
 1256 03aa AE030000 		.4byte	0x3ae
 1257 03ae 0A       		.uleb128 0xa
 1258 03af 81040000 		.4byte	.LASF69
 1259 03b3 04       		.byte	0x4
 1260 03b4 08       		.byte	0x8
 1261 03b5 8401     		.2byte	0x184
 1262 03b7 C9030000 		.4byte	0x3c9
 1263 03bb 09       		.uleb128 0x9
 1264 03bc F6050000 		.4byte	.LASF70
 1265 03c0 08       		.byte	0x8
 1266 03c1 8C01     		.2byte	0x18c
 1267 03c3 94050000 		.4byte	0x594
 1268 03c7 00       		.byte	0
 1269 03c8 00       		.byte	0
 1270 03c9 04       		.uleb128 0x4
 1271 03ca 41020000 		.4byte	.LASF71
 1272 03ce 07       		.byte	0x7
 1273 03cf 6B       		.byte	0x6b
 1274 03d0 D4030000 		.4byte	0x3d4
 1275 03d4 0F       		.uleb128 0xf
 1276 03d5 46010000 		.4byte	.LASF72
 1277 03d9 5001     		.2byte	0x150
 1278 03db 08       		.byte	0x8
 1279 03dc A401     		.2byte	0x1a4
 1280 03de 30040000 		.4byte	0x430
 1281 03e2 09       		.uleb128 0x9
 1282 03e3 69060000 		.4byte	.LASF73
 1283 03e7 08       		.byte	0x8
 1284 03e8 A801     		.2byte	0x1a8
 1285 03ea 77020000 		.4byte	0x277
 1286 03ee 00       		.byte	0
 1287 03ef 09       		.uleb128 0x9
 1288 03f0 33010000 		.4byte	.LASF74
 1289 03f4 08       		.byte	0x8
 1290 03f5 AC01     		.2byte	0x1ac
 1291 03f7 56030000 		.4byte	0x356
 1292 03fb 1C       		.byte	0x1c
 1293 03fc 08       		.uleb128 0x8
ARM GAS  C:\cygwin\tmp\ccX0bQ12.s 			page 24


 1294 03fd 64626700 		.ascii	"dbg\000"
 1295 0401 08       		.byte	0x8
 1296 0402 B001     		.2byte	0x1b0
 1297 0404 A3030000 		.4byte	0x3a3
 1298 0408 2C       		.byte	0x2c
 1299 0409 09       		.uleb128 0x9
 1300 040a 1D020000 		.4byte	.LASF75
 1301 040e 08       		.byte	0x8
 1302 040f B401     		.2byte	0x1b4
 1303 0411 2B010000 		.4byte	0x12b
 1304 0415 30       		.byte	0x30
 1305 0416 08       		.uleb128 0x8
 1306 0417 746D00   		.ascii	"tm\000"
 1307 041a 08       		.byte	0x8
 1308 041b B901     		.2byte	0x1b9
 1309 041d FC040000 		.4byte	0x4fc
 1310 0421 74       		.byte	0x74
 1311 0422 09       		.uleb128 0x9
 1312 0423 68000000 		.4byte	.LASF76
 1313 0427 08       		.byte	0x8
 1314 0428 C501     		.2byte	0x1c5
 1315 042a 99050000 		.4byte	0x599
 1316 042e 78       		.byte	0x78
 1317 042f 00       		.byte	0
 1318 0430 03       		.uleb128 0x3
 1319 0431 04       		.byte	0x4
 1320 0432 07       		.byte	0x7
 1321 0433 78030000 		.4byte	.LASF77
 1322 0437 04       		.uleb128 0x4
 1323 0438 96010000 		.4byte	.LASF78
 1324 043c 09       		.byte	0x9
 1325 043d 85       		.byte	0x85
 1326 043e FA020000 		.4byte	0x2fa
 1327 0442 04       		.uleb128 0x4
 1328 0443 63030000 		.4byte	.LASF79
 1329 0447 09       		.byte	0x9
 1330 0448 8D       		.byte	0x8d
 1331 0449 B8000000 		.4byte	0xb8
 1332 044d 06       		.uleb128 0x6
 1333 044e 07060000 		.4byte	.LASF80
 1334 0452 04       		.byte	0x4
 1335 0453 09       		.byte	0x9
 1336 0454 A9       		.byte	0xa9
 1337 0455 66040000 		.4byte	0x466
 1338 0459 10       		.uleb128 0x10
 1339 045a 72313300 		.ascii	"r13\000"
 1340 045e 09       		.byte	0x9
 1341 045f AA       		.byte	0xaa
 1342 0460 E1040000 		.4byte	0x4e1
 1343 0464 00       		.byte	0
 1344 0465 00       		.byte	0
 1345 0466 06       		.uleb128 0x6
 1346 0467 4D000000 		.4byte	.LASF81
 1347 046b 24       		.byte	0x24
 1348 046c 0A       		.byte	0xa
 1349 046d F4       		.byte	0xf4
 1350 046e E1040000 		.4byte	0x4e1
ARM GAS  C:\cygwin\tmp\ccX0bQ12.s 			page 25


 1351 0472 08       		.uleb128 0x8
 1352 0473 723400   		.ascii	"r4\000"
 1353 0476 0A       		.byte	0xa
 1354 0477 0701     		.2byte	0x107
 1355 0479 37040000 		.4byte	0x437
 1356 047d 00       		.byte	0
 1357 047e 08       		.uleb128 0x8
 1358 047f 723500   		.ascii	"r5\000"
 1359 0482 0A       		.byte	0xa
 1360 0483 0801     		.2byte	0x108
 1361 0485 37040000 		.4byte	0x437
 1362 0489 04       		.byte	0x4
 1363 048a 08       		.uleb128 0x8
 1364 048b 723600   		.ascii	"r6\000"
 1365 048e 0A       		.byte	0xa
 1366 048f 0901     		.2byte	0x109
 1367 0491 37040000 		.4byte	0x437
 1368 0495 08       		.byte	0x8
 1369 0496 08       		.uleb128 0x8
 1370 0497 723700   		.ascii	"r7\000"
 1371 049a 0A       		.byte	0xa
 1372 049b 0A01     		.2byte	0x10a
 1373 049d 37040000 		.4byte	0x437
 1374 04a1 0C       		.byte	0xc
 1375 04a2 08       		.uleb128 0x8
 1376 04a3 723800   		.ascii	"r8\000"
 1377 04a6 0A       		.byte	0xa
 1378 04a7 0B01     		.2byte	0x10b
 1379 04a9 37040000 		.4byte	0x437
 1380 04ad 10       		.byte	0x10
 1381 04ae 08       		.uleb128 0x8
 1382 04af 723900   		.ascii	"r9\000"
 1383 04b2 0A       		.byte	0xa
 1384 04b3 0C01     		.2byte	0x10c
 1385 04b5 37040000 		.4byte	0x437
 1386 04b9 14       		.byte	0x14
 1387 04ba 08       		.uleb128 0x8
 1388 04bb 72313000 		.ascii	"r10\000"
 1389 04bf 0A       		.byte	0xa
 1390 04c0 0D01     		.2byte	0x10d
 1391 04c2 37040000 		.4byte	0x437
 1392 04c6 18       		.byte	0x18
 1393 04c7 08       		.uleb128 0x8
 1394 04c8 72313100 		.ascii	"r11\000"
 1395 04cc 0A       		.byte	0xa
 1396 04cd 0E01     		.2byte	0x10e
 1397 04cf 37040000 		.4byte	0x437
 1398 04d3 1C       		.byte	0x1c
 1399 04d4 08       		.uleb128 0x8
 1400 04d5 6C7200   		.ascii	"lr\000"
 1401 04d8 0A       		.byte	0xa
 1402 04d9 0F01     		.2byte	0x10f
 1403 04db 37040000 		.4byte	0x437
 1404 04df 20       		.byte	0x20
 1405 04e0 00       		.byte	0
 1406 04e1 0B       		.uleb128 0xb
 1407 04e2 04       		.byte	0x4
ARM GAS  C:\cygwin\tmp\ccX0bQ12.s 			page 26


 1408 04e3 66040000 		.4byte	0x466
 1409 04e7 11       		.uleb128 0x11
 1410 04e8 04       		.byte	0x4
 1411 04e9 0B       		.byte	0xb
 1412 04ea 38       		.byte	0x38
 1413 04eb FC040000 		.4byte	0x4fc
 1414 04ef 07       		.uleb128 0x7
 1415 04f0 00060000 		.4byte	.LASF82
 1416 04f4 0B       		.byte	0xb
 1417 04f5 3C       		.byte	0x3c
 1418 04f6 C8000000 		.4byte	0xc8
 1419 04fa 00       		.byte	0
 1420 04fb 00       		.byte	0
 1421 04fc 04       		.uleb128 0x4
 1422 04fd D0030000 		.4byte	.LASF83
 1423 0501 0B       		.byte	0xb
 1424 0502 3D       		.byte	0x3d
 1425 0503 E7040000 		.4byte	0x4e7
 1426 0507 0B       		.uleb128 0xb
 1427 0508 04       		.byte	0x4
 1428 0509 2B010000 		.4byte	0x12b
 1429 050d 12       		.uleb128 0x12
 1430 050e 04       		.byte	0x4
 1431 050f 08       		.byte	0x8
 1432 0510 F6       		.byte	0xf6
 1433 0511 45050000 		.4byte	0x545
 1434 0515 13       		.uleb128 0x13
 1435 0516 29000000 		.4byte	.LASF84
 1436 051a 08       		.byte	0x8
 1437 051b FD       		.byte	0xfd
 1438 051c FF000000 		.4byte	0xff
 1439 0520 14       		.uleb128 0x14
 1440 0521 A7000000 		.4byte	.LASF85
 1441 0525 08       		.byte	0x8
 1442 0526 0401     		.2byte	0x104
 1443 0528 FF000000 		.4byte	0xff
 1444 052c 14       		.uleb128 0x14
 1445 052d 77060000 		.4byte	.LASF86
 1446 0531 08       		.byte	0x8
 1447 0532 0B01     		.2byte	0x10b
 1448 0534 FA020000 		.4byte	0x2fa
 1449 0538 14       		.uleb128 0x14
 1450 0539 DE040000 		.4byte	.LASF87
 1451 053d 08       		.byte	0x8
 1452 053e 1201     		.2byte	0x112
 1453 0540 0A010000 		.4byte	0x10a
 1454 0544 00       		.byte	0
 1455 0545 0B       		.uleb128 0xb
 1456 0546 04       		.byte	0x4
 1457 0547 4B050000 		.4byte	0x54b
 1458 054b 15       		.uleb128 0x15
 1459 054c 50050000 		.4byte	0x550
 1460 0550 03       		.uleb128 0x3
 1461 0551 01       		.byte	0x1
 1462 0552 08       		.byte	0x8
 1463 0553 92050000 		.4byte	.LASF88
 1464 0557 06       		.uleb128 0x6
ARM GAS  C:\cygwin\tmp\ccX0bQ12.s 			page 27


 1465 0558 7B040000 		.4byte	.LASF89
 1466 055c 10       		.byte	0x10
 1467 055d 0C       		.byte	0xc
 1468 055e 39       		.byte	0x39
 1469 055f 88050000 		.4byte	0x588
 1470 0563 07       		.uleb128 0x7
 1471 0564 2B010000 		.4byte	.LASF90
 1472 0568 0C       		.byte	0xc
 1473 0569 3A       		.byte	0x3a
 1474 056a 47020000 		.4byte	0x247
 1475 056e 00       		.byte	0
 1476 056f 07       		.uleb128 0x7
 1477 0570 B0060000 		.4byte	.LASF91
 1478 0574 0C       		.byte	0xc
 1479 0575 3C       		.byte	0x3c
 1480 0576 07050000 		.4byte	0x507
 1481 057a 08       		.byte	0x8
 1482 057b 07       		.uleb128 0x7
 1483 057c B2050000 		.4byte	.LASF92
 1484 0580 0C       		.byte	0xc
 1485 0581 3E       		.byte	0x3e
 1486 0582 E4050000 		.4byte	0x5e4
 1487 0586 0C       		.byte	0xc
 1488 0587 00       		.byte	0
 1489 0588 0B       		.uleb128 0xb
 1490 0589 04       		.byte	0x4
 1491 058a 57050000 		.4byte	0x557
 1492 058e 0B       		.uleb128 0xb
 1493 058f 04       		.byte	0x4
 1494 0590 FC020000 		.4byte	0x2fc
 1495 0594 05       		.uleb128 0x5
 1496 0595 45050000 		.4byte	0x545
 1497 0599 16       		.uleb128 0x16
 1498 059a 42040000 		.4byte	0x442
 1499 059e A9050000 		.4byte	0x5a9
 1500 05a2 17       		.uleb128 0x17
 1501 05a3 30040000 		.4byte	0x430
 1502 05a7 1A       		.byte	0x1a
 1503 05a8 00       		.byte	0
 1504 05a9 06       		.uleb128 0x6
 1505 05aa 62010000 		.4byte	.LASF93
 1506 05ae 0C       		.byte	0xc
 1507 05af 03       		.byte	0x3
 1508 05b0 34       		.byte	0x34
 1509 05b1 CE050000 		.4byte	0x5ce
 1510 05b5 07       		.uleb128 0x7
 1511 05b6 74010000 		.4byte	.LASF94
 1512 05ba 03       		.byte	0x3
 1513 05bb 35       		.byte	0x35
 1514 05bc 47020000 		.4byte	0x247
 1515 05c0 00       		.byte	0
 1516 05c1 07       		.uleb128 0x7
 1517 05c2 02020000 		.4byte	.LASF95
 1518 05c6 03       		.byte	0x3
 1519 05c7 37       		.byte	0x37
 1520 05c8 15010000 		.4byte	0x115
 1521 05cc 08       		.byte	0x8
ARM GAS  C:\cygwin\tmp\ccX0bQ12.s 			page 28


 1522 05cd 00       		.byte	0
 1523 05ce 04       		.uleb128 0x4
 1524 05cf 2E050000 		.4byte	.LASF96
 1525 05d3 03       		.byte	0x3
 1526 05d4 38       		.byte	0x38
 1527 05d5 A9050000 		.4byte	0x5a9
 1528 05d9 04       		.uleb128 0x4
 1529 05da A7010000 		.4byte	.LASF97
 1530 05de 0C       		.byte	0xc
 1531 05df 34       		.byte	0x34
 1532 05e0 57050000 		.4byte	0x557
 1533 05e4 0B       		.uleb128 0xb
 1534 05e5 04       		.byte	0x4
 1535 05e6 D9050000 		.4byte	0x5d9
 1536 05ea 11       		.uleb128 0x11
 1537 05eb 28       		.byte	0x28
 1538 05ec 0D       		.byte	0xd
 1539 05ed 38       		.byte	0x38
 1540 05ee 3B060000 		.4byte	0x63b
 1541 05f2 07       		.uleb128 0x7
 1542 05f3 E1030000 		.4byte	.LASF98
 1543 05f7 0D       		.byte	0xd
 1544 05f8 39       		.byte	0x39
 1545 05f9 3B060000 		.4byte	0x63b
 1546 05fd 00       		.byte	0
 1547 05fe 07       		.uleb128 0x7
 1548 05ff A7040000 		.4byte	.LASF99
 1549 0603 0D       		.byte	0xd
 1550 0604 3B       		.byte	0x3b
 1551 0605 3B060000 		.4byte	0x63b
 1552 0609 04       		.byte	0x4
 1553 060a 07       		.uleb128 0x7
 1554 060b D5000000 		.4byte	.LASF100
 1555 060f 0D       		.byte	0xd
 1556 0610 3D       		.byte	0x3d
 1557 0611 3B060000 		.4byte	0x63b
 1558 0615 08       		.byte	0x8
 1559 0616 07       		.uleb128 0x7
 1560 0617 8D010000 		.4byte	.LASF101
 1561 061b 0D       		.byte	0xd
 1562 061c 3E       		.byte	0x3e
 1563 061d 3B060000 		.4byte	0x63b
 1564 0621 0C       		.byte	0xc
 1565 0622 07       		.uleb128 0x7
 1566 0623 3B060000 		.4byte	.LASF102
 1567 0627 0D       		.byte	0xd
 1568 0628 3F       		.byte	0x3f
 1569 0629 CE050000 		.4byte	0x5ce
 1570 062d 10       		.byte	0x10
 1571 062e 07       		.uleb128 0x7
 1572 062f F6010000 		.4byte	.LASF103
 1573 0633 0D       		.byte	0xd
 1574 0634 41       		.byte	0x41
 1575 0635 CE050000 		.4byte	0x5ce
 1576 0639 1C       		.byte	0x1c
 1577 063a 00       		.byte	0
 1578 063b 0B       		.uleb128 0xb
ARM GAS  C:\cygwin\tmp\ccX0bQ12.s 			page 29


 1579 063c 04       		.byte	0x4
 1580 063d FF000000 		.4byte	0xff
 1581 0641 04       		.uleb128 0x4
 1582 0642 C6030000 		.4byte	.LASF104
 1583 0646 0D       		.byte	0xd
 1584 0647 43       		.byte	0x43
 1585 0648 EA050000 		.4byte	0x5ea
 1586 064c 18       		.uleb128 0x18
 1587 064d E8050000 		.4byte	.LASF107
 1588 0651 02       		.byte	0x2
 1589 0652 2002     		.2byte	0x220
 1590 0654 03       		.byte	0x3
 1591 0655 66060000 		.4byte	0x666
 1592 0659 19       		.uleb128 0x19
 1593 065a AF010000 		.4byte	.LASF109
 1594 065e 02       		.byte	0x2
 1595 065f 2002     		.2byte	0x220
 1596 0661 AD000000 		.4byte	0xad
 1597 0665 00       		.byte	0
 1598 0666 1A       		.uleb128 0x1a
 1599 0667 77000000 		.4byte	.LASF105
 1600 066b 0A       		.byte	0xa
 1601 066c BB01     		.2byte	0x1bb
 1602 066e 03       		.byte	0x3
 1603 066f 1A       		.uleb128 0x1a
 1604 0670 3A010000 		.4byte	.LASF106
 1605 0674 0A       		.byte	0xa
 1606 0675 C901     		.2byte	0x1c9
 1607 0677 03       		.byte	0x3
 1608 0678 1B       		.uleb128 0x1b
 1609 0679 2C060000 		.4byte	.LASF108
 1610 067d 03       		.byte	0x3
 1611 067e 76       		.byte	0x76
 1612 067f 03       		.byte	0x3
 1613 0680 8F060000 		.4byte	0x68f
 1614 0684 1C       		.uleb128 0x1c
 1615 0685 737000   		.ascii	"sp\000"
 1616 0688 03       		.byte	0x3
 1617 0689 76       		.byte	0x76
 1618 068a 8F060000 		.4byte	0x68f
 1619 068e 00       		.byte	0
 1620 068f 0B       		.uleb128 0xb
 1621 0690 04       		.byte	0x4
 1622 0691 CE050000 		.4byte	0x5ce
 1623 0695 1D       		.uleb128 0x1d
 1624 0696 D7050000 		.4byte	.LASF135
 1625 069a 03       		.byte	0x3
 1626 069b 95       		.byte	0x95
 1627 069c 15010000 		.4byte	0x115
 1628 06a0 03       		.byte	0x3
 1629 06a1 B0060000 		.4byte	0x6b0
 1630 06a5 1C       		.uleb128 0x1c
 1631 06a6 737000   		.ascii	"sp\000"
 1632 06a9 03       		.byte	0x3
 1633 06aa 95       		.byte	0x95
 1634 06ab 8F060000 		.4byte	0x68f
 1635 06af 00       		.byte	0
ARM GAS  C:\cygwin\tmp\ccX0bQ12.s 			page 30


 1636 06b0 1A       		.uleb128 0x1a
 1637 06b1 06050000 		.4byte	.LASF110
 1638 06b5 0E       		.byte	0xe
 1639 06b6 2901     		.2byte	0x129
 1640 06b8 03       		.byte	0x3
 1641 06b9 18       		.uleb128 0x18
 1642 06ba 94060000 		.4byte	.LASF111
 1643 06be 0E       		.byte	0xe
 1644 06bf 3501     		.2byte	0x135
 1645 06c1 03       		.byte	0x3
 1646 06c2 D4060000 		.4byte	0x6d4
 1647 06c6 1E       		.uleb128 0x1e
 1648 06c7 F4040000 		.4byte	.LASF113
 1649 06cb E4060000 		.4byte	0x6e4
 1650 06cf 94060000 		.4byte	.LASF111
 1651 06d3 00       		.byte	0
 1652 06d4 16       		.uleb128 0x16
 1653 06d5 50050000 		.4byte	0x550
 1654 06d9 E4060000 		.4byte	0x6e4
 1655 06dd 17       		.uleb128 0x17
 1656 06de 30040000 		.4byte	0x430
 1657 06e2 0B       		.byte	0xb
 1658 06e3 00       		.byte	0
 1659 06e4 15       		.uleb128 0x15
 1660 06e5 D4060000 		.4byte	0x6d4
 1661 06e9 1F       		.uleb128 0x1f
 1662 06ea A6060000 		.4byte	.LASF114
 1663 06ee 01       		.byte	0x1
 1664 06ef B4       		.byte	0xb4
 1665 06f0 FF000000 		.4byte	0xff
 1666 06f4 01       		.byte	0x1
 1667 06f5 33070000 		.4byte	0x733
 1668 06f9 1C       		.uleb128 0x1c
 1669 06fa 6D627000 		.ascii	"mbp\000"
 1670 06fe 01       		.byte	0x1
 1671 06ff B4       		.byte	0xb4
 1672 0700 33070000 		.4byte	0x733
 1673 0704 1C       		.uleb128 0x1c
 1674 0705 6D736700 		.ascii	"msg\000"
 1675 0709 01       		.byte	0x1
 1676 070a B4       		.byte	0xb4
 1677 070b FF000000 		.4byte	0xff
 1678 070f 20       		.uleb128 0x20
 1679 0710 EB030000 		.4byte	.LASF112
 1680 0714 01       		.byte	0x1
 1681 0715 B4       		.byte	0xb4
 1682 0716 20010000 		.4byte	0x120
 1683 071a 21       		.uleb128 0x21
 1684 071b 29000000 		.4byte	.LASF84
 1685 071f 01       		.byte	0x1
 1686 0720 B5       		.byte	0xb5
 1687 0721 FF000000 		.4byte	0xff
 1688 0725 1E       		.uleb128 0x1e
 1689 0726 F4040000 		.4byte	.LASF113
 1690 072a 49070000 		.4byte	0x749
 1691 072e A6060000 		.4byte	.LASF114
 1692 0732 00       		.byte	0
ARM GAS  C:\cygwin\tmp\ccX0bQ12.s 			page 31


 1693 0733 0B       		.uleb128 0xb
 1694 0734 04       		.byte	0x4
 1695 0735 41060000 		.4byte	0x641
 1696 0739 16       		.uleb128 0x16
 1697 073a 50050000 		.4byte	0x550
 1698 073e 49070000 		.4byte	0x749
 1699 0742 17       		.uleb128 0x17
 1700 0743 30040000 		.4byte	0x430
 1701 0747 09       		.byte	0x9
 1702 0748 00       		.byte	0
 1703 0749 15       		.uleb128 0x15
 1704 074a 39070000 		.4byte	0x739
 1705 074e 22       		.uleb128 0x22
 1706 074f B0000000 		.4byte	.LASF115
 1707 0753 01       		.byte	0x1
 1708 0754 1801     		.2byte	0x118
 1709 0756 FF000000 		.4byte	0xff
 1710 075a 01       		.byte	0x1
 1711 075b 9D070000 		.4byte	0x79d
 1712 075f 23       		.uleb128 0x23
 1713 0760 6D627000 		.ascii	"mbp\000"
 1714 0764 01       		.byte	0x1
 1715 0765 1801     		.2byte	0x118
 1716 0767 33070000 		.4byte	0x733
 1717 076b 23       		.uleb128 0x23
 1718 076c 6D736700 		.ascii	"msg\000"
 1719 0770 01       		.byte	0x1
 1720 0771 1801     		.2byte	0x118
 1721 0773 FF000000 		.4byte	0xff
 1722 0777 19       		.uleb128 0x19
 1723 0778 EB030000 		.4byte	.LASF112
 1724 077c 01       		.byte	0x1
 1725 077d 1801     		.2byte	0x118
 1726 077f 20010000 		.4byte	0x120
 1727 0783 24       		.uleb128 0x24
 1728 0784 29000000 		.4byte	.LASF84
 1729 0788 01       		.byte	0x1
 1730 0789 1901     		.2byte	0x119
 1731 078b FF000000 		.4byte	0xff
 1732 078f 1E       		.uleb128 0x1e
 1733 0790 F4040000 		.4byte	.LASF113
 1734 0794 AD070000 		.4byte	0x7ad
 1735 0798 B0000000 		.4byte	.LASF115
 1736 079c 00       		.byte	0
 1737 079d 16       		.uleb128 0x16
 1738 079e 50050000 		.4byte	0x550
 1739 07a2 AD070000 		.4byte	0x7ad
 1740 07a6 17       		.uleb128 0x17
 1741 07a7 30040000 		.4byte	0x430
 1742 07ab 0E       		.byte	0xe
 1743 07ac 00       		.byte	0
 1744 07ad 15       		.uleb128 0x15
 1745 07ae 9D070000 		.4byte	0x79d
 1746 07b2 22       		.uleb128 0x22
 1747 07b3 4D020000 		.4byte	.LASF116
 1748 07b7 01       		.byte	0x1
 1749 07b8 7B01     		.2byte	0x17b
ARM GAS  C:\cygwin\tmp\ccX0bQ12.s 			page 32


 1750 07ba FF000000 		.4byte	0xff
 1751 07be 01       		.byte	0x1
 1752 07bf 01080000 		.4byte	0x801
 1753 07c3 23       		.uleb128 0x23
 1754 07c4 6D627000 		.ascii	"mbp\000"
 1755 07c8 01       		.byte	0x1
 1756 07c9 7B01     		.2byte	0x17b
 1757 07cb 33070000 		.4byte	0x733
 1758 07cf 19       		.uleb128 0x19
 1759 07d0 84020000 		.4byte	.LASF117
 1760 07d4 01       		.byte	0x1
 1761 07d5 7B01     		.2byte	0x17b
 1762 07d7 3B060000 		.4byte	0x63b
 1763 07db 19       		.uleb128 0x19
 1764 07dc EB030000 		.4byte	.LASF112
 1765 07e0 01       		.byte	0x1
 1766 07e1 7B01     		.2byte	0x17b
 1767 07e3 20010000 		.4byte	0x120
 1768 07e7 24       		.uleb128 0x24
 1769 07e8 29000000 		.4byte	.LASF84
 1770 07ec 01       		.byte	0x1
 1771 07ed 7C01     		.2byte	0x17c
 1772 07ef FF000000 		.4byte	0xff
 1773 07f3 1E       		.uleb128 0x1e
 1774 07f4 F4040000 		.4byte	.LASF113
 1775 07f8 11080000 		.4byte	0x811
 1776 07fc 4D020000 		.4byte	.LASF116
 1777 0800 00       		.byte	0
 1778 0801 16       		.uleb128 0x16
 1779 0802 50050000 		.4byte	0x550
 1780 0806 11080000 		.4byte	0x811
 1781 080a 17       		.uleb128 0x17
 1782 080b 30040000 		.4byte	0x430
 1783 080f 0A       		.byte	0xa
 1784 0810 00       		.byte	0
 1785 0811 15       		.uleb128 0x15
 1786 0812 01080000 		.4byte	0x801
 1787 0816 25       		.uleb128 0x25
 1788 0817 0D000000 		.4byte	.LASF118
 1789 081b 01       		.byte	0x1
 1790 081c 56       		.byte	0x56
 1791 081d 00000000 		.4byte	.LFB226
 1792 0821 28000000 		.4byte	.LFE226-.LFB226
 1793 0825 01       		.uleb128 0x1
 1794 0826 9C       		.byte	0x9c
 1795 0827 93080000 		.4byte	0x893
 1796 082b 26       		.uleb128 0x26
 1797 082c 6D627000 		.ascii	"mbp\000"
 1798 0830 01       		.byte	0x1
 1799 0831 56       		.byte	0x56
 1800 0832 33070000 		.4byte	0x733
 1801 0836 00000000 		.4byte	.LLST0
 1802 083a 26       		.uleb128 0x26
 1803 083b 62756600 		.ascii	"buf\000"
 1804 083f 01       		.byte	0x1
 1805 0840 56       		.byte	0x56
 1806 0841 3B060000 		.4byte	0x63b
ARM GAS  C:\cygwin\tmp\ccX0bQ12.s 			page 33


 1807 0845 39000000 		.4byte	.LLST1
 1808 0849 26       		.uleb128 0x26
 1809 084a 6E00     		.ascii	"n\000"
 1810 084c 01       		.byte	0x1
 1811 084d 56       		.byte	0x56
 1812 084e 15010000 		.4byte	0x115
 1813 0852 65000000 		.4byte	.LLST2
 1814 0856 27       		.uleb128 0x27
 1815 0857 F4040000 		.4byte	.LASF113
 1816 085b 93080000 		.4byte	0x893
 1817 085f 28       		.uleb128 0x28
 1818 0860 1A000000 		.4byte	.LVL3
 1819 0864 3A100000 		.4byte	0x103a
 1820 0868 7A080000 		.4byte	0x87a
 1821 086c 29       		.uleb128 0x29
 1822 086d 01       		.uleb128 0x1
 1823 086e 51       		.byte	0x51
 1824 086f 03       		.uleb128 0x3
 1825 0870 F3       		.byte	0xf3
 1826 0871 01       		.uleb128 0x1
 1827 0872 52       		.byte	0x52
 1828 0873 29       		.uleb128 0x29
 1829 0874 01       		.uleb128 0x1
 1830 0875 50       		.byte	0x50
 1831 0876 02       		.uleb128 0x2
 1832 0877 74       		.byte	0x74
 1833 0878 1C       		.sleb128 28
 1834 0879 00       		.byte	0
 1835 087a 2A       		.uleb128 0x2a
 1836 087b 28000000 		.4byte	.LVL5
 1837 087f 3A100000 		.4byte	0x103a
 1838 0883 29       		.uleb128 0x29
 1839 0884 01       		.uleb128 0x1
 1840 0885 51       		.byte	0x51
 1841 0886 01       		.uleb128 0x1
 1842 0887 30       		.byte	0x30
 1843 0888 29       		.uleb128 0x29
 1844 0889 01       		.uleb128 0x1
 1845 088a 50       		.byte	0x50
 1846 088b 05       		.uleb128 0x5
 1847 088c F3       		.byte	0xf3
 1848 088d 01       		.uleb128 0x1
 1849 088e 50       		.byte	0x50
 1850 088f 23       		.byte	0x23
 1851 0890 10       		.uleb128 0x10
 1852 0891 00       		.byte	0
 1853 0892 00       		.byte	0
 1854 0893 15       		.uleb128 0x15
 1855 0894 9D070000 		.4byte	0x79d
 1856 0898 25       		.uleb128 0x25
 1857 0899 08020000 		.4byte	.LASF119
 1858 089d 01       		.byte	0x1
 1859 089e 7A       		.byte	0x7a
 1860 089f 00000000 		.4byte	.LFB228
 1861 08a3 24000000 		.4byte	.LFE228-.LFB228
 1862 08a7 01       		.uleb128 0x1
 1863 08a8 9C       		.byte	0x9c
ARM GAS  C:\cygwin\tmp\ccX0bQ12.s 			page 34


 1864 08a9 F2080000 		.4byte	0x8f2
 1865 08ad 26       		.uleb128 0x26
 1866 08ae 6D627000 		.ascii	"mbp\000"
 1867 08b2 01       		.byte	0x1
 1868 08b3 7A       		.byte	0x7a
 1869 08b4 33070000 		.4byte	0x733
 1870 08b8 86000000 		.4byte	.LLST3
 1871 08bc 27       		.uleb128 0x27
 1872 08bd F4040000 		.4byte	.LASF113
 1873 08c1 F2080000 		.4byte	0x8f2
 1874 08c5 28       		.uleb128 0x28
 1875 08c6 16000000 		.4byte	.LVL8
 1876 08ca 50100000 		.4byte	0x1050
 1877 08ce D9080000 		.4byte	0x8d9
 1878 08d2 29       		.uleb128 0x29
 1879 08d3 01       		.uleb128 0x1
 1880 08d4 50       		.byte	0x50
 1881 08d5 02       		.uleb128 0x2
 1882 08d6 74       		.byte	0x74
 1883 08d7 1C       		.sleb128 28
 1884 08d8 00       		.byte	0
 1885 08d9 2A       		.uleb128 0x2a
 1886 08da 24000000 		.4byte	.LVL10
 1887 08de 50100000 		.4byte	0x1050
 1888 08e2 29       		.uleb128 0x29
 1889 08e3 01       		.uleb128 0x1
 1890 08e4 51       		.byte	0x51
 1891 08e5 01       		.uleb128 0x1
 1892 08e6 30       		.byte	0x30
 1893 08e7 29       		.uleb128 0x29
 1894 08e8 01       		.uleb128 0x1
 1895 08e9 50       		.byte	0x50
 1896 08ea 05       		.uleb128 0x5
 1897 08eb F3       		.byte	0xf3
 1898 08ec 01       		.uleb128 0x1
 1899 08ed 50       		.byte	0x50
 1900 08ee 23       		.byte	0x23
 1901 08ef 10       		.uleb128 0x10
 1902 08f0 00       		.byte	0
 1903 08f1 00       		.byte	0
 1904 08f2 15       		.uleb128 0x15
 1905 08f3 01080000 		.4byte	0x801
 1906 08f7 25       		.uleb128 0x25
 1907 08f8 A2030000 		.4byte	.LASF120
 1908 08fc 01       		.byte	0x1
 1909 08fd 69       		.byte	0x69
 1910 08fe 00000000 		.4byte	.LFB227
 1911 0902 18000000 		.4byte	.LFE227-.LFB227
 1912 0906 01       		.uleb128 0x1
 1913 0907 9C       		.byte	0x9c
 1914 0908 C1090000 		.4byte	0x9c1
 1915 090c 26       		.uleb128 0x26
 1916 090d 6D627000 		.ascii	"mbp\000"
 1917 0911 01       		.byte	0x1
 1918 0912 69       		.byte	0x69
 1919 0913 33070000 		.4byte	0x733
 1920 0917 BF000000 		.4byte	.LLST4
ARM GAS  C:\cygwin\tmp\ccX0bQ12.s 			page 35


 1921 091b 2B       		.uleb128 0x2b
 1922 091c B0060000 		.4byte	0x6b0
 1923 0920 02000000 		.4byte	.LBB66
 1924 0924 06000000 		.4byte	.LBE66-.LBB66
 1925 0928 01       		.byte	0x1
 1926 0929 6B       		.byte	0x6b
 1927 092a 57090000 		.4byte	0x957
 1928 092e 2C       		.uleb128 0x2c
 1929 092f 66060000 		.4byte	0x666
 1930 0933 02000000 		.4byte	.LBB67
 1931 0937 06000000 		.4byte	.LBE67-.LBB67
 1932 093b 0E       		.byte	0xe
 1933 093c 2B01     		.2byte	0x12b
 1934 093e 2C       		.uleb128 0x2c
 1935 093f 4C060000 		.4byte	0x64c
 1936 0943 02000000 		.4byte	.LBB68
 1937 0947 06000000 		.4byte	.LBE68-.LBB68
 1938 094b 0A       		.byte	0xa
 1939 094c BE01     		.2byte	0x1be
 1940 094e 2D       		.uleb128 0x2d
 1941 094f 59060000 		.4byte	0x659
 1942 0953 20       		.byte	0x20
 1943 0954 00       		.byte	0
 1944 0955 00       		.byte	0
 1945 0956 00       		.byte	0
 1946 0957 2B       		.uleb128 0x2b
 1947 0958 B9060000 		.4byte	0x6b9
 1948 095c 10000000 		.4byte	.LBB70
 1949 0960 08000000 		.4byte	.LBE70-.LBB70
 1950 0964 01       		.byte	0x1
 1951 0965 6E       		.byte	0x6e
 1952 0966 A2090000 		.4byte	0x9a2
 1953 096a 2E       		.uleb128 0x2e
 1954 096b 10000000 		.4byte	.LBB71
 1955 096f 08000000 		.4byte	.LBE71-.LBB71
 1956 0973 2F       		.uleb128 0x2f
 1957 0974 C6060000 		.4byte	0x6c6
 1958 0978 2C       		.uleb128 0x2c
 1959 0979 6F060000 		.4byte	0x66f
 1960 097d 10000000 		.4byte	.LBB72
 1961 0981 08000000 		.4byte	.LBE72-.LBB72
 1962 0985 0E       		.byte	0xe
 1963 0986 4101     		.2byte	0x141
 1964 0988 2C       		.uleb128 0x2c
 1965 0989 4C060000 		.4byte	0x64c
 1966 098d 10000000 		.4byte	.LBB73
 1967 0991 08000000 		.4byte	.LBE73-.LBB73
 1968 0995 0A       		.byte	0xa
 1969 0996 CC01     		.2byte	0x1cc
 1970 0998 2D       		.uleb128 0x2d
 1971 0999 59060000 		.4byte	0x659
 1972 099d 00       		.byte	0
 1973 099e 00       		.byte	0
 1974 099f 00       		.byte	0
 1975 09a0 00       		.byte	0
 1976 09a1 00       		.byte	0
 1977 09a2 28       		.uleb128 0x28
ARM GAS  C:\cygwin\tmp\ccX0bQ12.s 			page 36


 1978 09a3 0C000000 		.4byte	.LVL12
 1979 09a7 98080000 		.4byte	0x898
 1980 09ab B7090000 		.4byte	0x9b7
 1981 09af 29       		.uleb128 0x29
 1982 09b0 01       		.uleb128 0x1
 1983 09b1 50       		.byte	0x50
 1984 09b2 03       		.uleb128 0x3
 1985 09b3 F3       		.byte	0xf3
 1986 09b4 01       		.uleb128 0x1
 1987 09b5 50       		.byte	0x50
 1988 09b6 00       		.byte	0
 1989 09b7 30       		.uleb128 0x30
 1990 09b8 10000000 		.4byte	.LVL13
 1991 09bc 66100000 		.4byte	0x1066
 1992 09c0 00       		.byte	0
 1993 09c1 31       		.uleb128 0x31
 1994 09c2 E9060000 		.4byte	0x6e9
 1995 09c6 00000000 		.4byte	.LFB230
 1996 09ca 36000000 		.4byte	.LFE230-.LFB230
 1997 09ce 01       		.uleb128 0x1
 1998 09cf 9C       		.byte	0x9c
 1999 09d0 6F0A0000 		.4byte	0xa6f
 2000 09d4 32       		.uleb128 0x32
 2001 09d5 F9060000 		.4byte	0x6f9
 2002 09d9 E0000000 		.4byte	.LLST5
 2003 09dd 32       		.uleb128 0x32
 2004 09de 04070000 		.4byte	0x704
 2005 09e2 FE000000 		.4byte	.LLST6
 2006 09e6 32       		.uleb128 0x32
 2007 09e7 0F070000 		.4byte	0x70f
 2008 09eb 1C010000 		.4byte	.LLST7
 2009 09ef 33       		.uleb128 0x33
 2010 09f0 1A070000 		.4byte	0x71a
 2011 09f4 3D010000 		.4byte	.LLST8
 2012 09f8 2F       		.uleb128 0x2f
 2013 09f9 25070000 		.4byte	0x725
 2014 09fd 34       		.uleb128 0x34
 2015 09fe 12000000 		.4byte	.LBB77
 2016 0a02 20000000 		.4byte	.LBE77-.LBB77
 2017 0a06 570A0000 		.4byte	0xa57
 2018 0a0a 32       		.uleb128 0x32
 2019 0a0b 0F070000 		.4byte	0x70f
 2020 0a0f 5B010000 		.4byte	.LLST9
 2021 0a13 32       		.uleb128 0x32
 2022 0a14 04070000 		.4byte	0x704
 2023 0a18 71010000 		.4byte	.LLST10
 2024 0a1c 32       		.uleb128 0x32
 2025 0a1d F9060000 		.4byte	0x6f9
 2026 0a21 84010000 		.4byte	.LLST11
 2027 0a25 2E       		.uleb128 0x2e
 2028 0a26 12000000 		.4byte	.LBB78
 2029 0a2a 20000000 		.4byte	.LBE78-.LBB78
 2030 0a2e 2F       		.uleb128 0x2f
 2031 0a2f 1A070000 		.4byte	0x71a
 2032 0a33 2F       		.uleb128 0x2f
 2033 0a34 25070000 		.4byte	0x725
 2034 0a38 28       		.uleb128 0x28
ARM GAS  C:\cygwin\tmp\ccX0bQ12.s 			page 37


 2035 0a39 2E000000 		.4byte	.LVL20
 2036 0a3d 6E100000 		.4byte	0x106e
 2037 0a41 4C0A0000 		.4byte	0xa4c
 2038 0a45 29       		.uleb128 0x29
 2039 0a46 01       		.uleb128 0x1
 2040 0a47 50       		.byte	0x50
 2041 0a48 02       		.uleb128 0x2
 2042 0a49 74       		.byte	0x74
 2043 0a4a 10       		.sleb128 16
 2044 0a4b 00       		.byte	0
 2045 0a4c 30       		.uleb128 0x30
 2046 0a4d 32000000 		.4byte	.LVL21
 2047 0a51 66100000 		.4byte	0x1066
 2048 0a55 00       		.byte	0
 2049 0a56 00       		.byte	0
 2050 0a57 35       		.uleb128 0x35
 2051 0a58 0E000000 		.4byte	.LVL17
 2052 0a5c 7F100000 		.4byte	0x107f
 2053 0a60 29       		.uleb128 0x29
 2054 0a61 01       		.uleb128 0x1
 2055 0a62 51       		.byte	0x51
 2056 0a63 03       		.uleb128 0x3
 2057 0a64 F3       		.byte	0xf3
 2058 0a65 01       		.uleb128 0x1
 2059 0a66 52       		.byte	0x52
 2060 0a67 29       		.uleb128 0x29
 2061 0a68 01       		.uleb128 0x1
 2062 0a69 50       		.byte	0x50
 2063 0a6a 02       		.uleb128 0x2
 2064 0a6b 74       		.byte	0x74
 2065 0a6c 1C       		.sleb128 28
 2066 0a6d 00       		.byte	0
 2067 0a6e 00       		.byte	0
 2068 0a6f 36       		.uleb128 0x36
 2069 0a70 FD040000 		.4byte	.LASF121
 2070 0a74 01       		.byte	0x1
 2071 0a75 97       		.byte	0x97
 2072 0a76 FF000000 		.4byte	0xff
 2073 0a7a 00000000 		.4byte	.LFB229
 2074 0a7e 14000000 		.4byte	.LFE229-.LFB229
 2075 0a82 01       		.uleb128 0x1
 2076 0a83 9C       		.byte	0x9c
 2077 0a84 690B0000 		.4byte	0xb69
 2078 0a88 26       		.uleb128 0x26
 2079 0a89 6D627000 		.ascii	"mbp\000"
 2080 0a8d 01       		.byte	0x1
 2081 0a8e 97       		.byte	0x97
 2082 0a8f 33070000 		.4byte	0x733
 2083 0a93 97010000 		.4byte	.LLST12
 2084 0a97 26       		.uleb128 0x26
 2085 0a98 6D736700 		.ascii	"msg\000"
 2086 0a9c 01       		.byte	0x1
 2087 0a9d 97       		.byte	0x97
 2088 0a9e FF000000 		.4byte	0xff
 2089 0aa2 B8010000 		.4byte	.LLST13
 2090 0aa6 37       		.uleb128 0x37
 2091 0aa7 EB030000 		.4byte	.LASF112
ARM GAS  C:\cygwin\tmp\ccX0bQ12.s 			page 38


 2092 0aab 01       		.byte	0x1
 2093 0aac 97       		.byte	0x97
 2094 0aad 20010000 		.4byte	0x120
 2095 0ab1 D9010000 		.4byte	.LLST14
 2096 0ab5 38       		.uleb128 0x38
 2097 0ab6 29000000 		.4byte	.LASF84
 2098 0aba 01       		.byte	0x1
 2099 0abb 98       		.byte	0x98
 2100 0abc FF000000 		.4byte	0xff
 2101 0ac0 01       		.uleb128 0x1
 2102 0ac1 50       		.byte	0x50
 2103 0ac2 2B       		.uleb128 0x2b
 2104 0ac3 B0060000 		.4byte	0x6b0
 2105 0ac7 02000000 		.4byte	.LBB79
 2106 0acb 06000000 		.4byte	.LBE79-.LBB79
 2107 0acf 01       		.byte	0x1
 2108 0ad0 9A       		.byte	0x9a
 2109 0ad1 FE0A0000 		.4byte	0xafe
 2110 0ad5 2C       		.uleb128 0x2c
 2111 0ad6 66060000 		.4byte	0x666
 2112 0ada 02000000 		.4byte	.LBB80
 2113 0ade 06000000 		.4byte	.LBE80-.LBB80
 2114 0ae2 0E       		.byte	0xe
 2115 0ae3 2B01     		.2byte	0x12b
 2116 0ae5 2C       		.uleb128 0x2c
 2117 0ae6 4C060000 		.4byte	0x64c
 2118 0aea 02000000 		.4byte	.LBB81
 2119 0aee 06000000 		.4byte	.LBE81-.LBB81
 2120 0af2 0A       		.byte	0xa
 2121 0af3 BE01     		.2byte	0x1be
 2122 0af5 2D       		.uleb128 0x2d
 2123 0af6 59060000 		.4byte	0x659
 2124 0afa 20       		.byte	0x20
 2125 0afb 00       		.byte	0
 2126 0afc 00       		.byte	0
 2127 0afd 00       		.byte	0
 2128 0afe 2B       		.uleb128 0x2b
 2129 0aff B9060000 		.4byte	0x6b9
 2130 0b03 0C000000 		.4byte	.LBB83
 2131 0b07 06000000 		.4byte	.LBE83-.LBB83
 2132 0b0b 01       		.byte	0x1
 2133 0b0c 9C       		.byte	0x9c
 2134 0b0d 490B0000 		.4byte	0xb49
 2135 0b11 2E       		.uleb128 0x2e
 2136 0b12 0C000000 		.4byte	.LBB84
 2137 0b16 06000000 		.4byte	.LBE84-.LBB84
 2138 0b1a 2F       		.uleb128 0x2f
 2139 0b1b C6060000 		.4byte	0x6c6
 2140 0b1f 2C       		.uleb128 0x2c
 2141 0b20 6F060000 		.4byte	0x66f
 2142 0b24 0C000000 		.4byte	.LBB85
 2143 0b28 06000000 		.4byte	.LBE85-.LBB85
 2144 0b2c 0E       		.byte	0xe
 2145 0b2d 4101     		.2byte	0x141
 2146 0b2f 2C       		.uleb128 0x2c
 2147 0b30 4C060000 		.4byte	0x64c
 2148 0b34 0C000000 		.4byte	.LBB86
ARM GAS  C:\cygwin\tmp\ccX0bQ12.s 			page 39


 2149 0b38 06000000 		.4byte	.LBE86-.LBB86
 2150 0b3c 0A       		.byte	0xa
 2151 0b3d CC01     		.2byte	0x1cc
 2152 0b3f 2D       		.uleb128 0x2d
 2153 0b40 59060000 		.4byte	0x659
 2154 0b44 00       		.byte	0
 2155 0b45 00       		.byte	0
 2156 0b46 00       		.byte	0
 2157 0b47 00       		.byte	0
 2158 0b48 00       		.byte	0
 2159 0b49 35       		.uleb128 0x35
 2160 0b4a 0C000000 		.4byte	.LVL23
 2161 0b4e E9060000 		.4byte	0x6e9
 2162 0b52 29       		.uleb128 0x29
 2163 0b53 01       		.uleb128 0x1
 2164 0b54 52       		.byte	0x52
 2165 0b55 03       		.uleb128 0x3
 2166 0b56 F3       		.byte	0xf3
 2167 0b57 01       		.uleb128 0x1
 2168 0b58 52       		.byte	0x52
 2169 0b59 29       		.uleb128 0x29
 2170 0b5a 01       		.uleb128 0x1
 2171 0b5b 51       		.byte	0x51
 2172 0b5c 03       		.uleb128 0x3
 2173 0b5d F3       		.byte	0xf3
 2174 0b5e 01       		.uleb128 0x1
 2175 0b5f 51       		.byte	0x51
 2176 0b60 29       		.uleb128 0x29
 2177 0b61 01       		.uleb128 0x1
 2178 0b62 50       		.byte	0x50
 2179 0b63 03       		.uleb128 0x3
 2180 0b64 F3       		.byte	0xf3
 2181 0b65 01       		.uleb128 0x1
 2182 0b66 50       		.byte	0x50
 2183 0b67 00       		.byte	0
 2184 0b68 00       		.byte	0
 2185 0b69 36       		.uleb128 0x36
 2186 0b6a 43000000 		.4byte	.LASF122
 2187 0b6e 01       		.byte	0x1
 2188 0b6f D5       		.byte	0xd5
 2189 0b70 FF000000 		.4byte	0xff
 2190 0b74 00000000 		.4byte	.LFB231
 2191 0b78 34000000 		.4byte	.LFE231-.LFB231
 2192 0b7c 01       		.uleb128 0x1
 2193 0b7d 9C       		.byte	0x9c
 2194 0b7e DA0B0000 		.4byte	0xbda
 2195 0b82 26       		.uleb128 0x26
 2196 0b83 6D627000 		.ascii	"mbp\000"
 2197 0b87 01       		.byte	0x1
 2198 0b88 D5       		.byte	0xd5
 2199 0b89 33070000 		.4byte	0x733
 2200 0b8d FA010000 		.4byte	.LLST15
 2201 0b91 26       		.uleb128 0x26
 2202 0b92 6D736700 		.ascii	"msg\000"
 2203 0b96 01       		.byte	0x1
 2204 0b97 D5       		.byte	0xd5
 2205 0b98 FF000000 		.4byte	0xff
ARM GAS  C:\cygwin\tmp\ccX0bQ12.s 			page 40


 2206 0b9c 41020000 		.4byte	.LLST16
 2207 0ba0 27       		.uleb128 0x27
 2208 0ba1 F4040000 		.4byte	.LASF113
 2209 0ba5 DA0B0000 		.4byte	0xbda
 2210 0ba9 39       		.uleb128 0x39
 2211 0baa 78060000 		.4byte	0x678
 2212 0bae 0E000000 		.4byte	.LBB88
 2213 0bb2 00000000 		.4byte	.Ldebug_ranges0+0
 2214 0bb6 01       		.byte	0x1
 2215 0bb7 DE       		.byte	0xde
 2216 0bb8 C60B0000 		.4byte	0xbc6
 2217 0bbc 32       		.uleb128 0x32
 2218 0bbd 84060000 		.4byte	0x684
 2219 0bc1 6D020000 		.4byte	.LLST17
 2220 0bc5 00       		.byte	0
 2221 0bc6 35       		.uleb128 0x35
 2222 0bc7 2A000000 		.4byte	.LVL28
 2223 0bcb 6E100000 		.4byte	0x106e
 2224 0bcf 29       		.uleb128 0x29
 2225 0bd0 01       		.uleb128 0x1
 2226 0bd1 50       		.byte	0x50
 2227 0bd2 05       		.uleb128 0x5
 2228 0bd3 F3       		.byte	0xf3
 2229 0bd4 01       		.uleb128 0x1
 2230 0bd5 50       		.byte	0x50
 2231 0bd6 23       		.byte	0x23
 2232 0bd7 10       		.uleb128 0x10
 2233 0bd8 00       		.byte	0
 2234 0bd9 00       		.byte	0
 2235 0bda 15       		.uleb128 0x15
 2236 0bdb 39070000 		.4byte	0x739
 2237 0bdf 31       		.uleb128 0x31
 2238 0be0 4E070000 		.4byte	0x74e
 2239 0be4 00000000 		.4byte	.LFB233
 2240 0be8 38000000 		.4byte	.LFE233-.LFB233
 2241 0bec 01       		.uleb128 0x1
 2242 0bed 9C       		.byte	0x9c
 2243 0bee 850C0000 		.4byte	0xc85
 2244 0bf2 32       		.uleb128 0x32
 2245 0bf3 5F070000 		.4byte	0x75f
 2246 0bf7 9F020000 		.4byte	.LLST18
 2247 0bfb 32       		.uleb128 0x32
 2248 0bfc 6B070000 		.4byte	0x76b
 2249 0c00 BD020000 		.4byte	.LLST19
 2250 0c04 32       		.uleb128 0x32
 2251 0c05 77070000 		.4byte	0x777
 2252 0c09 DB020000 		.4byte	.LLST20
 2253 0c0d 33       		.uleb128 0x33
 2254 0c0e 83070000 		.4byte	0x783
 2255 0c12 FC020000 		.4byte	.LLST21
 2256 0c16 2F       		.uleb128 0x2f
 2257 0c17 8F070000 		.4byte	0x78f
 2258 0c1b 3A       		.uleb128 0x3a
 2259 0c1c 18000000 		.4byte	.Ldebug_ranges0+0x18
 2260 0c20 6D0C0000 		.4byte	0xc6d
 2261 0c24 32       		.uleb128 0x32
 2262 0c25 77070000 		.4byte	0x777
ARM GAS  C:\cygwin\tmp\ccX0bQ12.s 			page 41


 2263 0c29 25030000 		.4byte	.LLST22
 2264 0c2d 32       		.uleb128 0x32
 2265 0c2e 6B070000 		.4byte	0x76b
 2266 0c32 49030000 		.4byte	.LLST23
 2267 0c36 32       		.uleb128 0x32
 2268 0c37 5F070000 		.4byte	0x75f
 2269 0c3b 67030000 		.4byte	.LLST24
 2270 0c3f 3B       		.uleb128 0x3b
 2271 0c40 18000000 		.4byte	.Ldebug_ranges0+0x18
 2272 0c44 2F       		.uleb128 0x2f
 2273 0c45 83070000 		.4byte	0x783
 2274 0c49 2F       		.uleb128 0x2f
 2275 0c4a 8F070000 		.4byte	0x78f
 2276 0c4e 28       		.uleb128 0x28
 2277 0c4f 28000000 		.4byte	.LVL37
 2278 0c53 6E100000 		.4byte	0x106e
 2279 0c57 620C0000 		.4byte	0xc62
 2280 0c5b 29       		.uleb128 0x29
 2281 0c5c 01       		.uleb128 0x1
 2282 0c5d 50       		.byte	0x50
 2283 0c5e 02       		.uleb128 0x2
 2284 0c5f 74       		.byte	0x74
 2285 0c60 10       		.sleb128 16
 2286 0c61 00       		.byte	0
 2287 0c62 30       		.uleb128 0x30
 2288 0c63 2C000000 		.4byte	.LVL38
 2289 0c67 66100000 		.4byte	0x1066
 2290 0c6b 00       		.byte	0
 2291 0c6c 00       		.byte	0
 2292 0c6d 35       		.uleb128 0x35
 2293 0c6e 0E000000 		.4byte	.LVL34
 2294 0c72 7F100000 		.4byte	0x107f
 2295 0c76 29       		.uleb128 0x29
 2296 0c77 01       		.uleb128 0x1
 2297 0c78 51       		.byte	0x51
 2298 0c79 03       		.uleb128 0x3
 2299 0c7a F3       		.byte	0xf3
 2300 0c7b 01       		.uleb128 0x1
 2301 0c7c 52       		.byte	0x52
 2302 0c7d 29       		.uleb128 0x29
 2303 0c7e 01       		.uleb128 0x1
 2304 0c7f 50       		.byte	0x50
 2305 0c80 02       		.uleb128 0x2
 2306 0c81 74       		.byte	0x74
 2307 0c82 1C       		.sleb128 28
 2308 0c83 00       		.byte	0
 2309 0c84 00       		.byte	0
 2310 0c85 36       		.uleb128 0x36
 2311 0c86 0F060000 		.4byte	.LASF123
 2312 0c8a 01       		.byte	0x1
 2313 0c8b FB       		.byte	0xfb
 2314 0c8c FF000000 		.4byte	0xff
 2315 0c90 00000000 		.4byte	.LFB232
 2316 0c94 14000000 		.4byte	.LFE232-.LFB232
 2317 0c98 01       		.uleb128 0x1
 2318 0c99 9C       		.byte	0x9c
 2319 0c9a 800D0000 		.4byte	0xd80
ARM GAS  C:\cygwin\tmp\ccX0bQ12.s 			page 42


 2320 0c9e 26       		.uleb128 0x26
 2321 0c9f 6D627000 		.ascii	"mbp\000"
 2322 0ca3 01       		.byte	0x1
 2323 0ca4 FB       		.byte	0xfb
 2324 0ca5 33070000 		.4byte	0x733
 2325 0ca9 85030000 		.4byte	.LLST25
 2326 0cad 26       		.uleb128 0x26
 2327 0cae 6D736700 		.ascii	"msg\000"
 2328 0cb2 01       		.byte	0x1
 2329 0cb3 FB       		.byte	0xfb
 2330 0cb4 FF000000 		.4byte	0xff
 2331 0cb8 A6030000 		.4byte	.LLST26
 2332 0cbc 37       		.uleb128 0x37
 2333 0cbd EB030000 		.4byte	.LASF112
 2334 0cc1 01       		.byte	0x1
 2335 0cc2 FB       		.byte	0xfb
 2336 0cc3 20010000 		.4byte	0x120
 2337 0cc7 C7030000 		.4byte	.LLST27
 2338 0ccb 38       		.uleb128 0x38
 2339 0ccc 29000000 		.4byte	.LASF84
 2340 0cd0 01       		.byte	0x1
 2341 0cd1 FC       		.byte	0xfc
 2342 0cd2 FF000000 		.4byte	0xff
 2343 0cd6 01       		.uleb128 0x1
 2344 0cd7 50       		.byte	0x50
 2345 0cd8 2B       		.uleb128 0x2b
 2346 0cd9 B0060000 		.4byte	0x6b0
 2347 0cdd 02000000 		.4byte	.LBB98
 2348 0ce1 06000000 		.4byte	.LBE98-.LBB98
 2349 0ce5 01       		.byte	0x1
 2350 0ce6 FE       		.byte	0xfe
 2351 0ce7 140D0000 		.4byte	0xd14
 2352 0ceb 2C       		.uleb128 0x2c
 2353 0cec 66060000 		.4byte	0x666
 2354 0cf0 02000000 		.4byte	.LBB99
 2355 0cf4 06000000 		.4byte	.LBE99-.LBB99
 2356 0cf8 0E       		.byte	0xe
 2357 0cf9 2B01     		.2byte	0x12b
 2358 0cfb 2C       		.uleb128 0x2c
 2359 0cfc 4C060000 		.4byte	0x64c
 2360 0d00 02000000 		.4byte	.LBB100
 2361 0d04 06000000 		.4byte	.LBE100-.LBB100
 2362 0d08 0A       		.byte	0xa
 2363 0d09 BE01     		.2byte	0x1be
 2364 0d0b 2D       		.uleb128 0x2d
 2365 0d0c 59060000 		.4byte	0x659
 2366 0d10 20       		.byte	0x20
 2367 0d11 00       		.byte	0
 2368 0d12 00       		.byte	0
 2369 0d13 00       		.byte	0
 2370 0d14 3C       		.uleb128 0x3c
 2371 0d15 B9060000 		.4byte	0x6b9
 2372 0d19 0C000000 		.4byte	.LBB102
 2373 0d1d 06000000 		.4byte	.LBE102-.LBB102
 2374 0d21 01       		.byte	0x1
 2375 0d22 0001     		.2byte	0x100
 2376 0d24 600D0000 		.4byte	0xd60
ARM GAS  C:\cygwin\tmp\ccX0bQ12.s 			page 43


 2377 0d28 2E       		.uleb128 0x2e
 2378 0d29 0C000000 		.4byte	.LBB103
 2379 0d2d 06000000 		.4byte	.LBE103-.LBB103
 2380 0d31 2F       		.uleb128 0x2f
 2381 0d32 C6060000 		.4byte	0x6c6
 2382 0d36 2C       		.uleb128 0x2c
 2383 0d37 6F060000 		.4byte	0x66f
 2384 0d3b 0C000000 		.4byte	.LBB104
 2385 0d3f 06000000 		.4byte	.LBE104-.LBB104
 2386 0d43 0E       		.byte	0xe
 2387 0d44 4101     		.2byte	0x141
 2388 0d46 2C       		.uleb128 0x2c
 2389 0d47 4C060000 		.4byte	0x64c
 2390 0d4b 0C000000 		.4byte	.LBB105
 2391 0d4f 06000000 		.4byte	.LBE105-.LBB105
 2392 0d53 0A       		.byte	0xa
 2393 0d54 CC01     		.2byte	0x1cc
 2394 0d56 2D       		.uleb128 0x2d
 2395 0d57 59060000 		.4byte	0x659
 2396 0d5b 00       		.byte	0
 2397 0d5c 00       		.byte	0
 2398 0d5d 00       		.byte	0
 2399 0d5e 00       		.byte	0
 2400 0d5f 00       		.byte	0
 2401 0d60 35       		.uleb128 0x35
 2402 0d61 0C000000 		.4byte	.LVL41
 2403 0d65 4E070000 		.4byte	0x74e
 2404 0d69 29       		.uleb128 0x29
 2405 0d6a 01       		.uleb128 0x1
 2406 0d6b 52       		.byte	0x52
 2407 0d6c 03       		.uleb128 0x3
 2408 0d6d F3       		.byte	0xf3
 2409 0d6e 01       		.uleb128 0x1
 2410 0d6f 52       		.byte	0x52
 2411 0d70 29       		.uleb128 0x29
 2412 0d71 01       		.uleb128 0x1
 2413 0d72 51       		.byte	0x51
 2414 0d73 03       		.uleb128 0x3
 2415 0d74 F3       		.byte	0xf3
 2416 0d75 01       		.uleb128 0x1
 2417 0d76 51       		.byte	0x51
 2418 0d77 29       		.uleb128 0x29
 2419 0d78 01       		.uleb128 0x1
 2420 0d79 50       		.byte	0x50
 2421 0d7a 03       		.uleb128 0x3
 2422 0d7b F3       		.byte	0xf3
 2423 0d7c 01       		.uleb128 0x1
 2424 0d7d 50       		.byte	0x50
 2425 0d7e 00       		.byte	0
 2426 0d7f 00       		.byte	0
 2427 0d80 3D       		.uleb128 0x3d
 2428 0d81 81000000 		.4byte	.LASF124
 2429 0d85 01       		.byte	0x1
 2430 0d86 3901     		.2byte	0x139
 2431 0d88 FF000000 		.4byte	0xff
 2432 0d8c 00000000 		.4byte	.LFB234
 2433 0d90 30000000 		.4byte	.LFE234-.LFB234
ARM GAS  C:\cygwin\tmp\ccX0bQ12.s 			page 44


 2434 0d94 01       		.uleb128 0x1
 2435 0d95 9C       		.byte	0x9c
 2436 0d96 F50D0000 		.4byte	0xdf5
 2437 0d9a 3E       		.uleb128 0x3e
 2438 0d9b 6D627000 		.ascii	"mbp\000"
 2439 0d9f 01       		.byte	0x1
 2440 0da0 3901     		.2byte	0x139
 2441 0da2 33070000 		.4byte	0x733
 2442 0da6 E8030000 		.4byte	.LLST28
 2443 0daa 3E       		.uleb128 0x3e
 2444 0dab 6D736700 		.ascii	"msg\000"
 2445 0daf 01       		.byte	0x1
 2446 0db0 3901     		.2byte	0x139
 2447 0db2 FF000000 		.4byte	0xff
 2448 0db6 2F040000 		.4byte	.LLST29
 2449 0dba 27       		.uleb128 0x27
 2450 0dbb F4040000 		.4byte	.LASF113
 2451 0dbf F50D0000 		.4byte	0xdf5
 2452 0dc3 3F       		.uleb128 0x3f
 2453 0dc4 78060000 		.4byte	0x678
 2454 0dc8 0E000000 		.4byte	.LBB107
 2455 0dcc 30000000 		.4byte	.Ldebug_ranges0+0x30
 2456 0dd0 01       		.byte	0x1
 2457 0dd1 4101     		.2byte	0x141
 2458 0dd3 E10D0000 		.4byte	0xde1
 2459 0dd7 32       		.uleb128 0x32
 2460 0dd8 84060000 		.4byte	0x684
 2461 0ddc 5B040000 		.4byte	.LLST30
 2462 0de0 00       		.byte	0
 2463 0de1 35       		.uleb128 0x35
 2464 0de2 26000000 		.4byte	.LVL46
 2465 0de6 6E100000 		.4byte	0x106e
 2466 0dea 29       		.uleb128 0x29
 2467 0deb 01       		.uleb128 0x1
 2468 0dec 50       		.byte	0x50
 2469 0ded 05       		.uleb128 0x5
 2470 0dee F3       		.byte	0xf3
 2471 0def 01       		.uleb128 0x1
 2472 0df0 50       		.byte	0x50
 2473 0df1 23       		.byte	0x23
 2474 0df2 10       		.uleb128 0x10
 2475 0df3 00       		.byte	0
 2476 0df4 00       		.byte	0
 2477 0df5 15       		.uleb128 0x15
 2478 0df6 9D070000 		.4byte	0x79d
 2479 0dfa 31       		.uleb128 0x31
 2480 0dfb B2070000 		.4byte	0x7b2
 2481 0dff 00000000 		.4byte	.LFB236
 2482 0e03 38000000 		.4byte	.LFE236-.LFB236
 2483 0e07 01       		.uleb128 0x1
 2484 0e08 9C       		.byte	0x9c
 2485 0e09 A80E0000 		.4byte	0xea8
 2486 0e0d 32       		.uleb128 0x32
 2487 0e0e C3070000 		.4byte	0x7c3
 2488 0e12 8D040000 		.4byte	.LLST31
 2489 0e16 32       		.uleb128 0x32
 2490 0e17 CF070000 		.4byte	0x7cf
ARM GAS  C:\cygwin\tmp\ccX0bQ12.s 			page 45


 2491 0e1b AB040000 		.4byte	.LLST32
 2492 0e1f 32       		.uleb128 0x32
 2493 0e20 DB070000 		.4byte	0x7db
 2494 0e24 C9040000 		.4byte	.LLST33
 2495 0e28 33       		.uleb128 0x33
 2496 0e29 E7070000 		.4byte	0x7e7
 2497 0e2d EA040000 		.4byte	.LLST34
 2498 0e31 2F       		.uleb128 0x2f
 2499 0e32 F3070000 		.4byte	0x7f3
 2500 0e36 34       		.uleb128 0x34
 2501 0e37 12000000 		.4byte	.LBB113
 2502 0e3b 22000000 		.4byte	.LBE113-.LBB113
 2503 0e3f 900E0000 		.4byte	0xe90
 2504 0e43 32       		.uleb128 0x32
 2505 0e44 DB070000 		.4byte	0x7db
 2506 0e48 08050000 		.4byte	.LLST35
 2507 0e4c 32       		.uleb128 0x32
 2508 0e4d CF070000 		.4byte	0x7cf
 2509 0e51 1E050000 		.4byte	.LLST36
 2510 0e55 32       		.uleb128 0x32
 2511 0e56 C3070000 		.4byte	0x7c3
 2512 0e5a 31050000 		.4byte	.LLST37
 2513 0e5e 2E       		.uleb128 0x2e
 2514 0e5f 12000000 		.4byte	.LBB114
 2515 0e63 22000000 		.4byte	.LBE114-.LBB114
 2516 0e67 2F       		.uleb128 0x2f
 2517 0e68 E7070000 		.4byte	0x7e7
 2518 0e6c 2F       		.uleb128 0x2f
 2519 0e6d F3070000 		.4byte	0x7f3
 2520 0e71 28       		.uleb128 0x28
 2521 0e72 30000000 		.4byte	.LVL55
 2522 0e76 6E100000 		.4byte	0x106e
 2523 0e7a 850E0000 		.4byte	0xe85
 2524 0e7e 29       		.uleb128 0x29
 2525 0e7f 01       		.uleb128 0x1
 2526 0e80 50       		.byte	0x50
 2527 0e81 02       		.uleb128 0x2
 2528 0e82 74       		.byte	0x74
 2529 0e83 1C       		.sleb128 28
 2530 0e84 00       		.byte	0
 2531 0e85 30       		.uleb128 0x30
 2532 0e86 34000000 		.4byte	.LVL56
 2533 0e8a 66100000 		.4byte	0x1066
 2534 0e8e 00       		.byte	0
 2535 0e8f 00       		.byte	0
 2536 0e90 35       		.uleb128 0x35
 2537 0e91 0E000000 		.4byte	.LVL52
 2538 0e95 7F100000 		.4byte	0x107f
 2539 0e99 29       		.uleb128 0x29
 2540 0e9a 01       		.uleb128 0x1
 2541 0e9b 51       		.byte	0x51
 2542 0e9c 03       		.uleb128 0x3
 2543 0e9d F3       		.byte	0xf3
 2544 0e9e 01       		.uleb128 0x1
 2545 0e9f 52       		.byte	0x52
 2546 0ea0 29       		.uleb128 0x29
 2547 0ea1 01       		.uleb128 0x1
ARM GAS  C:\cygwin\tmp\ccX0bQ12.s 			page 46


 2548 0ea2 50       		.byte	0x50
 2549 0ea3 02       		.uleb128 0x2
 2550 0ea4 74       		.byte	0x74
 2551 0ea5 10       		.sleb128 16
 2552 0ea6 00       		.byte	0
 2553 0ea7 00       		.byte	0
 2554 0ea8 3D       		.uleb128 0x3d
 2555 0ea9 98030000 		.4byte	.LASF125
 2556 0ead 01       		.byte	0x1
 2557 0eae 5E01     		.2byte	0x15e
 2558 0eb0 FF000000 		.4byte	0xff
 2559 0eb4 00000000 		.4byte	.LFB235
 2560 0eb8 14000000 		.4byte	.LFE235-.LFB235
 2561 0ebc 01       		.uleb128 0x1
 2562 0ebd 9C       		.byte	0x9c
 2563 0ebe A90F0000 		.4byte	0xfa9
 2564 0ec2 3E       		.uleb128 0x3e
 2565 0ec3 6D627000 		.ascii	"mbp\000"
 2566 0ec7 01       		.byte	0x1
 2567 0ec8 5E01     		.2byte	0x15e
 2568 0eca 33070000 		.4byte	0x733
 2569 0ece 44050000 		.4byte	.LLST38
 2570 0ed2 40       		.uleb128 0x40
 2571 0ed3 84020000 		.4byte	.LASF117
 2572 0ed7 01       		.byte	0x1
 2573 0ed8 5E01     		.2byte	0x15e
 2574 0eda 3B060000 		.4byte	0x63b
 2575 0ede 65050000 		.4byte	.LLST39
 2576 0ee2 40       		.uleb128 0x40
 2577 0ee3 EB030000 		.4byte	.LASF112
 2578 0ee7 01       		.byte	0x1
 2579 0ee8 5E01     		.2byte	0x15e
 2580 0eea 20010000 		.4byte	0x120
 2581 0eee 86050000 		.4byte	.LLST40
 2582 0ef2 41       		.uleb128 0x41
 2583 0ef3 29000000 		.4byte	.LASF84
 2584 0ef7 01       		.byte	0x1
 2585 0ef8 5F01     		.2byte	0x15f
 2586 0efa FF000000 		.4byte	0xff
 2587 0efe 01       		.uleb128 0x1
 2588 0eff 50       		.byte	0x50
 2589 0f00 3C       		.uleb128 0x3c
 2590 0f01 B0060000 		.4byte	0x6b0
 2591 0f05 02000000 		.4byte	.LBB115
 2592 0f09 06000000 		.4byte	.LBE115-.LBB115
 2593 0f0d 01       		.byte	0x1
 2594 0f0e 6101     		.2byte	0x161
 2595 0f10 3D0F0000 		.4byte	0xf3d
 2596 0f14 2C       		.uleb128 0x2c
 2597 0f15 66060000 		.4byte	0x666
 2598 0f19 02000000 		.4byte	.LBB116
 2599 0f1d 06000000 		.4byte	.LBE116-.LBB116
 2600 0f21 0E       		.byte	0xe
 2601 0f22 2B01     		.2byte	0x12b
 2602 0f24 2C       		.uleb128 0x2c
 2603 0f25 4C060000 		.4byte	0x64c
 2604 0f29 02000000 		.4byte	.LBB117
ARM GAS  C:\cygwin\tmp\ccX0bQ12.s 			page 47


 2605 0f2d 06000000 		.4byte	.LBE117-.LBB117
 2606 0f31 0A       		.byte	0xa
 2607 0f32 BE01     		.2byte	0x1be
 2608 0f34 2D       		.uleb128 0x2d
 2609 0f35 59060000 		.4byte	0x659
 2610 0f39 20       		.byte	0x20
 2611 0f3a 00       		.byte	0
 2612 0f3b 00       		.byte	0
 2613 0f3c 00       		.byte	0
 2614 0f3d 3C       		.uleb128 0x3c
 2615 0f3e B9060000 		.4byte	0x6b9
 2616 0f42 0C000000 		.4byte	.LBB119
 2617 0f46 06000000 		.4byte	.LBE119-.LBB119
 2618 0f4a 01       		.byte	0x1
 2619 0f4b 6301     		.2byte	0x163
 2620 0f4d 890F0000 		.4byte	0xf89
 2621 0f51 2E       		.uleb128 0x2e
 2622 0f52 0C000000 		.4byte	.LBB120
 2623 0f56 06000000 		.4byte	.LBE120-.LBB120
 2624 0f5a 2F       		.uleb128 0x2f
 2625 0f5b C6060000 		.4byte	0x6c6
 2626 0f5f 2C       		.uleb128 0x2c
 2627 0f60 6F060000 		.4byte	0x66f
 2628 0f64 0C000000 		.4byte	.LBB121
 2629 0f68 06000000 		.4byte	.LBE121-.LBB121
 2630 0f6c 0E       		.byte	0xe
 2631 0f6d 4101     		.2byte	0x141
 2632 0f6f 2C       		.uleb128 0x2c
 2633 0f70 4C060000 		.4byte	0x64c
 2634 0f74 0C000000 		.4byte	.LBB122
 2635 0f78 06000000 		.4byte	.LBE122-.LBB122
 2636 0f7c 0A       		.byte	0xa
 2637 0f7d CC01     		.2byte	0x1cc
 2638 0f7f 2D       		.uleb128 0x2d
 2639 0f80 59060000 		.4byte	0x659
 2640 0f84 00       		.byte	0
 2641 0f85 00       		.byte	0
 2642 0f86 00       		.byte	0
 2643 0f87 00       		.byte	0
 2644 0f88 00       		.byte	0
 2645 0f89 35       		.uleb128 0x35
 2646 0f8a 0C000000 		.4byte	.LVL58
 2647 0f8e B2070000 		.4byte	0x7b2
 2648 0f92 29       		.uleb128 0x29
 2649 0f93 01       		.uleb128 0x1
 2650 0f94 52       		.byte	0x52
 2651 0f95 03       		.uleb128 0x3
 2652 0f96 F3       		.byte	0xf3
 2653 0f97 01       		.uleb128 0x1
 2654 0f98 52       		.byte	0x52
 2655 0f99 29       		.uleb128 0x29
 2656 0f9a 01       		.uleb128 0x1
 2657 0f9b 51       		.byte	0x51
 2658 0f9c 03       		.uleb128 0x3
 2659 0f9d F3       		.byte	0xf3
 2660 0f9e 01       		.uleb128 0x1
 2661 0f9f 51       		.byte	0x51
ARM GAS  C:\cygwin\tmp\ccX0bQ12.s 			page 48


 2662 0fa0 29       		.uleb128 0x29
 2663 0fa1 01       		.uleb128 0x1
 2664 0fa2 50       		.byte	0x50
 2665 0fa3 03       		.uleb128 0x3
 2666 0fa4 F3       		.byte	0xf3
 2667 0fa5 01       		.uleb128 0x1
 2668 0fa6 50       		.byte	0x50
 2669 0fa7 00       		.byte	0
 2670 0fa8 00       		.byte	0
 2671 0fa9 3D       		.uleb128 0x3d
 2672 0faa 28020000 		.4byte	.LASF126
 2673 0fae 01       		.byte	0x1
 2674 0faf 9C01     		.2byte	0x19c
 2675 0fb1 FF000000 		.4byte	0xff
 2676 0fb5 00000000 		.4byte	.LFB237
 2677 0fb9 36000000 		.4byte	.LFE237-.LFB237
 2678 0fbd 01       		.uleb128 0x1
 2679 0fbe 9C       		.byte	0x9c
 2680 0fbf 1E100000 		.4byte	0x101e
 2681 0fc3 3E       		.uleb128 0x3e
 2682 0fc4 6D627000 		.ascii	"mbp\000"
 2683 0fc8 01       		.byte	0x1
 2684 0fc9 9C01     		.2byte	0x19c
 2685 0fcb 33070000 		.4byte	0x733
 2686 0fcf A7050000 		.4byte	.LLST41
 2687 0fd3 40       		.uleb128 0x40
 2688 0fd4 84020000 		.4byte	.LASF117
 2689 0fd8 01       		.byte	0x1
 2690 0fd9 9C01     		.2byte	0x19c
 2691 0fdb 3B060000 		.4byte	0x63b
 2692 0fdf EE050000 		.4byte	.LLST42
 2693 0fe3 27       		.uleb128 0x27
 2694 0fe4 F4040000 		.4byte	.LASF113
 2695 0fe8 1E100000 		.4byte	0x101e
 2696 0fec 3F       		.uleb128 0x3f
 2697 0fed 78060000 		.4byte	0x678
 2698 0ff1 06000000 		.4byte	.LBB124
 2699 0ff5 48000000 		.4byte	.Ldebug_ranges0+0x48
 2700 0ff9 01       		.byte	0x1
 2701 0ffa A401     		.2byte	0x1a4
 2702 0ffc 0A100000 		.4byte	0x100a
 2703 1000 32       		.uleb128 0x32
 2704 1001 84060000 		.4byte	0x684
 2705 1005 1A060000 		.4byte	.LLST43
 2706 1009 00       		.byte	0
 2707 100a 35       		.uleb128 0x35
 2708 100b 2C000000 		.4byte	.LVL63
 2709 100f 6E100000 		.4byte	0x106e
 2710 1013 29       		.uleb128 0x29
 2711 1014 01       		.uleb128 0x1
 2712 1015 50       		.byte	0x50
 2713 1016 05       		.uleb128 0x5
 2714 1017 F3       		.byte	0xf3
 2715 1018 01       		.uleb128 0x1
 2716 1019 50       		.byte	0x50
 2717 101a 23       		.byte	0x23
 2718 101b 1C       		.uleb128 0x1c
ARM GAS  C:\cygwin\tmp\ccX0bQ12.s 			page 49


 2719 101c 00       		.byte	0
 2720 101d 00       		.byte	0
 2721 101e 15       		.uleb128 0x15
 2722 101f 01080000 		.4byte	0x801
 2723 1023 42       		.uleb128 0x42
 2724 1024 AE040000 		.4byte	.LASF127
 2725 1028 0F       		.byte	0xf
 2726 1029 A706     		.2byte	0x6a7
 2727 102b C3000000 		.4byte	0xc3
 2728 102f 43       		.uleb128 0x43
 2729 1030 636800   		.ascii	"ch\000"
 2730 1033 08       		.byte	0x8
 2731 1034 EB01     		.2byte	0x1eb
 2732 1036 C9030000 		.4byte	0x3c9
 2733 103a 44       		.uleb128 0x44
 2734 103b C0010000 		.4byte	.LASF128
 2735 103f 03       		.byte	0x3
 2736 1040 5B       		.byte	0x5b
 2737 1041 50100000 		.4byte	0x1050
 2738 1045 0D       		.uleb128 0xd
 2739 1046 8F060000 		.4byte	0x68f
 2740 104a 0D       		.uleb128 0xd
 2741 104b 15010000 		.4byte	0x115
 2742 104f 00       		.byte	0
 2743 1050 44       		.uleb128 0x44
 2744 1051 5D060000 		.4byte	.LASF129
 2745 1055 03       		.byte	0x3
 2746 1056 5D       		.byte	0x5d
 2747 1057 66100000 		.4byte	0x1066
 2748 105b 0D       		.uleb128 0xd
 2749 105c 8F060000 		.4byte	0x68f
 2750 1060 0D       		.uleb128 0xd
 2751 1061 15010000 		.4byte	0x115
 2752 1065 00       		.byte	0
 2753 1066 45       		.uleb128 0x45
 2754 1067 7C010000 		.4byte	.LASF136
 2755 106b 08       		.byte	0x8
 2756 106c F901     		.2byte	0x1f9
 2757 106e 44       		.uleb128 0x44
 2758 106f 1C000000 		.4byte	.LASF130
 2759 1073 03       		.byte	0x3
 2760 1074 63       		.byte	0x63
 2761 1075 7F100000 		.4byte	0x107f
 2762 1079 0D       		.uleb128 0xd
 2763 107a 8F060000 		.4byte	0x68f
 2764 107e 00       		.byte	0
 2765 107f 46       		.uleb128 0x46
 2766 1080 97050000 		.4byte	.LASF131
 2767 1084 03       		.byte	0x3
 2768 1085 61       		.byte	0x61
 2769 1086 FF000000 		.4byte	0xff
 2770 108a 0D       		.uleb128 0xd
 2771 108b 8F060000 		.4byte	0x68f
 2772 108f 0D       		.uleb128 0xd
 2773 1090 20010000 		.4byte	0x120
 2774 1094 00       		.byte	0
 2775 1095 00       		.byte	0
ARM GAS  C:\cygwin\tmp\ccX0bQ12.s 			page 50


 2776              		.section	.debug_abbrev,"",%progbits
 2777              	.Ldebug_abbrev0:
 2778 0000 01       		.uleb128 0x1
 2779 0001 11       		.uleb128 0x11
 2780 0002 01       		.byte	0x1
 2781 0003 25       		.uleb128 0x25
 2782 0004 0E       		.uleb128 0xe
 2783 0005 13       		.uleb128 0x13
 2784 0006 0B       		.uleb128 0xb
 2785 0007 03       		.uleb128 0x3
 2786 0008 0E       		.uleb128 0xe
 2787 0009 1B       		.uleb128 0x1b
 2788 000a 0E       		.uleb128 0xe
 2789 000b 55       		.uleb128 0x55
 2790 000c 17       		.uleb128 0x17
 2791 000d 11       		.uleb128 0x11
 2792 000e 01       		.uleb128 0x1
 2793 000f 10       		.uleb128 0x10
 2794 0010 17       		.uleb128 0x17
 2795 0011 00       		.byte	0
 2796 0012 00       		.byte	0
 2797 0013 02       		.uleb128 0x2
 2798 0014 24       		.uleb128 0x24
 2799 0015 00       		.byte	0
 2800 0016 0B       		.uleb128 0xb
 2801 0017 0B       		.uleb128 0xb
 2802 0018 3E       		.uleb128 0x3e
 2803 0019 0B       		.uleb128 0xb
 2804 001a 03       		.uleb128 0x3
 2805 001b 08       		.uleb128 0x8
 2806 001c 00       		.byte	0
 2807 001d 00       		.byte	0
 2808 001e 03       		.uleb128 0x3
 2809 001f 24       		.uleb128 0x24
 2810 0020 00       		.byte	0
 2811 0021 0B       		.uleb128 0xb
 2812 0022 0B       		.uleb128 0xb
 2813 0023 3E       		.uleb128 0x3e
 2814 0024 0B       		.uleb128 0xb
 2815 0025 03       		.uleb128 0x3
 2816 0026 0E       		.uleb128 0xe
 2817 0027 00       		.byte	0
 2818 0028 00       		.byte	0
 2819 0029 04       		.uleb128 0x4
 2820 002a 16       		.uleb128 0x16
 2821 002b 00       		.byte	0
 2822 002c 03       		.uleb128 0x3
 2823 002d 0E       		.uleb128 0xe
 2824 002e 3A       		.uleb128 0x3a
 2825 002f 0B       		.uleb128 0xb
 2826 0030 3B       		.uleb128 0x3b
 2827 0031 0B       		.uleb128 0xb
 2828 0032 49       		.uleb128 0x49
 2829 0033 13       		.uleb128 0x13
 2830 0034 00       		.byte	0
 2831 0035 00       		.byte	0
 2832 0036 05       		.uleb128 0x5
ARM GAS  C:\cygwin\tmp\ccX0bQ12.s 			page 51


 2833 0037 35       		.uleb128 0x35
 2834 0038 00       		.byte	0
 2835 0039 49       		.uleb128 0x49
 2836 003a 13       		.uleb128 0x13
 2837 003b 00       		.byte	0
 2838 003c 00       		.byte	0
 2839 003d 06       		.uleb128 0x6
 2840 003e 13       		.uleb128 0x13
 2841 003f 01       		.byte	0x1
 2842 0040 03       		.uleb128 0x3
 2843 0041 0E       		.uleb128 0xe
 2844 0042 0B       		.uleb128 0xb
 2845 0043 0B       		.uleb128 0xb
 2846 0044 3A       		.uleb128 0x3a
 2847 0045 0B       		.uleb128 0xb
 2848 0046 3B       		.uleb128 0x3b
 2849 0047 0B       		.uleb128 0xb
 2850 0048 01       		.uleb128 0x1
 2851 0049 13       		.uleb128 0x13
 2852 004a 00       		.byte	0
 2853 004b 00       		.byte	0
 2854 004c 07       		.uleb128 0x7
 2855 004d 0D       		.uleb128 0xd
 2856 004e 00       		.byte	0
 2857 004f 03       		.uleb128 0x3
 2858 0050 0E       		.uleb128 0xe
 2859 0051 3A       		.uleb128 0x3a
 2860 0052 0B       		.uleb128 0xb
 2861 0053 3B       		.uleb128 0x3b
 2862 0054 0B       		.uleb128 0xb
 2863 0055 49       		.uleb128 0x49
 2864 0056 13       		.uleb128 0x13
 2865 0057 38       		.uleb128 0x38
 2866 0058 0B       		.uleb128 0xb
 2867 0059 00       		.byte	0
 2868 005a 00       		.byte	0
 2869 005b 08       		.uleb128 0x8
 2870 005c 0D       		.uleb128 0xd
 2871 005d 00       		.byte	0
 2872 005e 03       		.uleb128 0x3
 2873 005f 08       		.uleb128 0x8
 2874 0060 3A       		.uleb128 0x3a
 2875 0061 0B       		.uleb128 0xb
 2876 0062 3B       		.uleb128 0x3b
 2877 0063 05       		.uleb128 0x5
 2878 0064 49       		.uleb128 0x49
 2879 0065 13       		.uleb128 0x13
 2880 0066 38       		.uleb128 0x38
 2881 0067 0B       		.uleb128 0xb
 2882 0068 00       		.byte	0
 2883 0069 00       		.byte	0
 2884 006a 09       		.uleb128 0x9
 2885 006b 0D       		.uleb128 0xd
 2886 006c 00       		.byte	0
 2887 006d 03       		.uleb128 0x3
 2888 006e 0E       		.uleb128 0xe
 2889 006f 3A       		.uleb128 0x3a
ARM GAS  C:\cygwin\tmp\ccX0bQ12.s 			page 52


 2890 0070 0B       		.uleb128 0xb
 2891 0071 3B       		.uleb128 0x3b
 2892 0072 05       		.uleb128 0x5
 2893 0073 49       		.uleb128 0x49
 2894 0074 13       		.uleb128 0x13
 2895 0075 38       		.uleb128 0x38
 2896 0076 0B       		.uleb128 0xb
 2897 0077 00       		.byte	0
 2898 0078 00       		.byte	0
 2899 0079 0A       		.uleb128 0xa
 2900 007a 13       		.uleb128 0x13
 2901 007b 01       		.byte	0x1
 2902 007c 03       		.uleb128 0x3
 2903 007d 0E       		.uleb128 0xe
 2904 007e 0B       		.uleb128 0xb
 2905 007f 0B       		.uleb128 0xb
 2906 0080 3A       		.uleb128 0x3a
 2907 0081 0B       		.uleb128 0xb
 2908 0082 3B       		.uleb128 0x3b
 2909 0083 05       		.uleb128 0x5
 2910 0084 01       		.uleb128 0x1
 2911 0085 13       		.uleb128 0x13
 2912 0086 00       		.byte	0
 2913 0087 00       		.byte	0
 2914 0088 0B       		.uleb128 0xb
 2915 0089 0F       		.uleb128 0xf
 2916 008a 00       		.byte	0
 2917 008b 0B       		.uleb128 0xb
 2918 008c 0B       		.uleb128 0xb
 2919 008d 49       		.uleb128 0x49
 2920 008e 13       		.uleb128 0x13
 2921 008f 00       		.byte	0
 2922 0090 00       		.byte	0
 2923 0091 0C       		.uleb128 0xc
 2924 0092 15       		.uleb128 0x15
 2925 0093 01       		.byte	0x1
 2926 0094 27       		.uleb128 0x27
 2927 0095 19       		.uleb128 0x19
 2928 0096 01       		.uleb128 0x1
 2929 0097 13       		.uleb128 0x13
 2930 0098 00       		.byte	0
 2931 0099 00       		.byte	0
 2932 009a 0D       		.uleb128 0xd
 2933 009b 05       		.uleb128 0x5
 2934 009c 00       		.byte	0
 2935 009d 49       		.uleb128 0x49
 2936 009e 13       		.uleb128 0x13
 2937 009f 00       		.byte	0
 2938 00a0 00       		.byte	0
 2939 00a1 0E       		.uleb128 0xe
 2940 00a2 0F       		.uleb128 0xf
 2941 00a3 00       		.byte	0
 2942 00a4 0B       		.uleb128 0xb
 2943 00a5 0B       		.uleb128 0xb
 2944 00a6 00       		.byte	0
 2945 00a7 00       		.byte	0
 2946 00a8 0F       		.uleb128 0xf
ARM GAS  C:\cygwin\tmp\ccX0bQ12.s 			page 53


 2947 00a9 13       		.uleb128 0x13
 2948 00aa 01       		.byte	0x1
 2949 00ab 03       		.uleb128 0x3
 2950 00ac 0E       		.uleb128 0xe
 2951 00ad 0B       		.uleb128 0xb
 2952 00ae 05       		.uleb128 0x5
 2953 00af 3A       		.uleb128 0x3a
 2954 00b0 0B       		.uleb128 0xb
 2955 00b1 3B       		.uleb128 0x3b
 2956 00b2 05       		.uleb128 0x5
 2957 00b3 01       		.uleb128 0x1
 2958 00b4 13       		.uleb128 0x13
 2959 00b5 00       		.byte	0
 2960 00b6 00       		.byte	0
 2961 00b7 10       		.uleb128 0x10
 2962 00b8 0D       		.uleb128 0xd
 2963 00b9 00       		.byte	0
 2964 00ba 03       		.uleb128 0x3
 2965 00bb 08       		.uleb128 0x8
 2966 00bc 3A       		.uleb128 0x3a
 2967 00bd 0B       		.uleb128 0xb
 2968 00be 3B       		.uleb128 0x3b
 2969 00bf 0B       		.uleb128 0xb
 2970 00c0 49       		.uleb128 0x49
 2971 00c1 13       		.uleb128 0x13
 2972 00c2 38       		.uleb128 0x38
 2973 00c3 0B       		.uleb128 0xb
 2974 00c4 00       		.byte	0
 2975 00c5 00       		.byte	0
 2976 00c6 11       		.uleb128 0x11
 2977 00c7 13       		.uleb128 0x13
 2978 00c8 01       		.byte	0x1
 2979 00c9 0B       		.uleb128 0xb
 2980 00ca 0B       		.uleb128 0xb
 2981 00cb 3A       		.uleb128 0x3a
 2982 00cc 0B       		.uleb128 0xb
 2983 00cd 3B       		.uleb128 0x3b
 2984 00ce 0B       		.uleb128 0xb
 2985 00cf 01       		.uleb128 0x1
 2986 00d0 13       		.uleb128 0x13
 2987 00d1 00       		.byte	0
 2988 00d2 00       		.byte	0
 2989 00d3 12       		.uleb128 0x12
 2990 00d4 17       		.uleb128 0x17
 2991 00d5 01       		.byte	0x1
 2992 00d6 0B       		.uleb128 0xb
 2993 00d7 0B       		.uleb128 0xb
 2994 00d8 3A       		.uleb128 0x3a
 2995 00d9 0B       		.uleb128 0xb
 2996 00da 3B       		.uleb128 0x3b
 2997 00db 0B       		.uleb128 0xb
 2998 00dc 01       		.uleb128 0x1
 2999 00dd 13       		.uleb128 0x13
 3000 00de 00       		.byte	0
 3001 00df 00       		.byte	0
 3002 00e0 13       		.uleb128 0x13
 3003 00e1 0D       		.uleb128 0xd
ARM GAS  C:\cygwin\tmp\ccX0bQ12.s 			page 54


 3004 00e2 00       		.byte	0
 3005 00e3 03       		.uleb128 0x3
 3006 00e4 0E       		.uleb128 0xe
 3007 00e5 3A       		.uleb128 0x3a
 3008 00e6 0B       		.uleb128 0xb
 3009 00e7 3B       		.uleb128 0x3b
 3010 00e8 0B       		.uleb128 0xb
 3011 00e9 49       		.uleb128 0x49
 3012 00ea 13       		.uleb128 0x13
 3013 00eb 00       		.byte	0
 3014 00ec 00       		.byte	0
 3015 00ed 14       		.uleb128 0x14
 3016 00ee 0D       		.uleb128 0xd
 3017 00ef 00       		.byte	0
 3018 00f0 03       		.uleb128 0x3
 3019 00f1 0E       		.uleb128 0xe
 3020 00f2 3A       		.uleb128 0x3a
 3021 00f3 0B       		.uleb128 0xb
 3022 00f4 3B       		.uleb128 0x3b
 3023 00f5 05       		.uleb128 0x5
 3024 00f6 49       		.uleb128 0x49
 3025 00f7 13       		.uleb128 0x13
 3026 00f8 00       		.byte	0
 3027 00f9 00       		.byte	0
 3028 00fa 15       		.uleb128 0x15
 3029 00fb 26       		.uleb128 0x26
 3030 00fc 00       		.byte	0
 3031 00fd 49       		.uleb128 0x49
 3032 00fe 13       		.uleb128 0x13
 3033 00ff 00       		.byte	0
 3034 0100 00       		.byte	0
 3035 0101 16       		.uleb128 0x16
 3036 0102 01       		.uleb128 0x1
 3037 0103 01       		.byte	0x1
 3038 0104 49       		.uleb128 0x49
 3039 0105 13       		.uleb128 0x13
 3040 0106 01       		.uleb128 0x1
 3041 0107 13       		.uleb128 0x13
 3042 0108 00       		.byte	0
 3043 0109 00       		.byte	0
 3044 010a 17       		.uleb128 0x17
 3045 010b 21       		.uleb128 0x21
 3046 010c 00       		.byte	0
 3047 010d 49       		.uleb128 0x49
 3048 010e 13       		.uleb128 0x13
 3049 010f 2F       		.uleb128 0x2f
 3050 0110 0B       		.uleb128 0xb
 3051 0111 00       		.byte	0
 3052 0112 00       		.byte	0
 3053 0113 18       		.uleb128 0x18
 3054 0114 2E       		.uleb128 0x2e
 3055 0115 01       		.byte	0x1
 3056 0116 03       		.uleb128 0x3
 3057 0117 0E       		.uleb128 0xe
 3058 0118 3A       		.uleb128 0x3a
 3059 0119 0B       		.uleb128 0xb
 3060 011a 3B       		.uleb128 0x3b
ARM GAS  C:\cygwin\tmp\ccX0bQ12.s 			page 55


 3061 011b 05       		.uleb128 0x5
 3062 011c 27       		.uleb128 0x27
 3063 011d 19       		.uleb128 0x19
 3064 011e 20       		.uleb128 0x20
 3065 011f 0B       		.uleb128 0xb
 3066 0120 01       		.uleb128 0x1
 3067 0121 13       		.uleb128 0x13
 3068 0122 00       		.byte	0
 3069 0123 00       		.byte	0
 3070 0124 19       		.uleb128 0x19
 3071 0125 05       		.uleb128 0x5
 3072 0126 00       		.byte	0
 3073 0127 03       		.uleb128 0x3
 3074 0128 0E       		.uleb128 0xe
 3075 0129 3A       		.uleb128 0x3a
 3076 012a 0B       		.uleb128 0xb
 3077 012b 3B       		.uleb128 0x3b
 3078 012c 05       		.uleb128 0x5
 3079 012d 49       		.uleb128 0x49
 3080 012e 13       		.uleb128 0x13
 3081 012f 00       		.byte	0
 3082 0130 00       		.byte	0
 3083 0131 1A       		.uleb128 0x1a
 3084 0132 2E       		.uleb128 0x2e
 3085 0133 00       		.byte	0
 3086 0134 03       		.uleb128 0x3
 3087 0135 0E       		.uleb128 0xe
 3088 0136 3A       		.uleb128 0x3a
 3089 0137 0B       		.uleb128 0xb
 3090 0138 3B       		.uleb128 0x3b
 3091 0139 05       		.uleb128 0x5
 3092 013a 27       		.uleb128 0x27
 3093 013b 19       		.uleb128 0x19
 3094 013c 20       		.uleb128 0x20
 3095 013d 0B       		.uleb128 0xb
 3096 013e 00       		.byte	0
 3097 013f 00       		.byte	0
 3098 0140 1B       		.uleb128 0x1b
 3099 0141 2E       		.uleb128 0x2e
 3100 0142 01       		.byte	0x1
 3101 0143 03       		.uleb128 0x3
 3102 0144 0E       		.uleb128 0xe
 3103 0145 3A       		.uleb128 0x3a
 3104 0146 0B       		.uleb128 0xb
 3105 0147 3B       		.uleb128 0x3b
 3106 0148 0B       		.uleb128 0xb
 3107 0149 27       		.uleb128 0x27
 3108 014a 19       		.uleb128 0x19
 3109 014b 20       		.uleb128 0x20
 3110 014c 0B       		.uleb128 0xb
 3111 014d 01       		.uleb128 0x1
 3112 014e 13       		.uleb128 0x13
 3113 014f 00       		.byte	0
 3114 0150 00       		.byte	0
 3115 0151 1C       		.uleb128 0x1c
 3116 0152 05       		.uleb128 0x5
 3117 0153 00       		.byte	0
ARM GAS  C:\cygwin\tmp\ccX0bQ12.s 			page 56


 3118 0154 03       		.uleb128 0x3
 3119 0155 08       		.uleb128 0x8
 3120 0156 3A       		.uleb128 0x3a
 3121 0157 0B       		.uleb128 0xb
 3122 0158 3B       		.uleb128 0x3b
 3123 0159 0B       		.uleb128 0xb
 3124 015a 49       		.uleb128 0x49
 3125 015b 13       		.uleb128 0x13
 3126 015c 00       		.byte	0
 3127 015d 00       		.byte	0
 3128 015e 1D       		.uleb128 0x1d
 3129 015f 2E       		.uleb128 0x2e
 3130 0160 01       		.byte	0x1
 3131 0161 03       		.uleb128 0x3
 3132 0162 0E       		.uleb128 0xe
 3133 0163 3A       		.uleb128 0x3a
 3134 0164 0B       		.uleb128 0xb
 3135 0165 3B       		.uleb128 0x3b
 3136 0166 0B       		.uleb128 0xb
 3137 0167 27       		.uleb128 0x27
 3138 0168 19       		.uleb128 0x19
 3139 0169 49       		.uleb128 0x49
 3140 016a 13       		.uleb128 0x13
 3141 016b 20       		.uleb128 0x20
 3142 016c 0B       		.uleb128 0xb
 3143 016d 01       		.uleb128 0x1
 3144 016e 13       		.uleb128 0x13
 3145 016f 00       		.byte	0
 3146 0170 00       		.byte	0
 3147 0171 1E       		.uleb128 0x1e
 3148 0172 34       		.uleb128 0x34
 3149 0173 00       		.byte	0
 3150 0174 03       		.uleb128 0x3
 3151 0175 0E       		.uleb128 0xe
 3152 0176 49       		.uleb128 0x49
 3153 0177 13       		.uleb128 0x13
 3154 0178 34       		.uleb128 0x34
 3155 0179 19       		.uleb128 0x19
 3156 017a 1C       		.uleb128 0x1c
 3157 017b 0E       		.uleb128 0xe
 3158 017c 00       		.byte	0
 3159 017d 00       		.byte	0
 3160 017e 1F       		.uleb128 0x1f
 3161 017f 2E       		.uleb128 0x2e
 3162 0180 01       		.byte	0x1
 3163 0181 3F       		.uleb128 0x3f
 3164 0182 19       		.uleb128 0x19
 3165 0183 03       		.uleb128 0x3
 3166 0184 0E       		.uleb128 0xe
 3167 0185 3A       		.uleb128 0x3a
 3168 0186 0B       		.uleb128 0xb
 3169 0187 3B       		.uleb128 0x3b
 3170 0188 0B       		.uleb128 0xb
 3171 0189 27       		.uleb128 0x27
 3172 018a 19       		.uleb128 0x19
 3173 018b 49       		.uleb128 0x49
 3174 018c 13       		.uleb128 0x13
ARM GAS  C:\cygwin\tmp\ccX0bQ12.s 			page 57


 3175 018d 20       		.uleb128 0x20
 3176 018e 0B       		.uleb128 0xb
 3177 018f 01       		.uleb128 0x1
 3178 0190 13       		.uleb128 0x13
 3179 0191 00       		.byte	0
 3180 0192 00       		.byte	0
 3181 0193 20       		.uleb128 0x20
 3182 0194 05       		.uleb128 0x5
 3183 0195 00       		.byte	0
 3184 0196 03       		.uleb128 0x3
 3185 0197 0E       		.uleb128 0xe
 3186 0198 3A       		.uleb128 0x3a
 3187 0199 0B       		.uleb128 0xb
 3188 019a 3B       		.uleb128 0x3b
 3189 019b 0B       		.uleb128 0xb
 3190 019c 49       		.uleb128 0x49
 3191 019d 13       		.uleb128 0x13
 3192 019e 00       		.byte	0
 3193 019f 00       		.byte	0
 3194 01a0 21       		.uleb128 0x21
 3195 01a1 34       		.uleb128 0x34
 3196 01a2 00       		.byte	0
 3197 01a3 03       		.uleb128 0x3
 3198 01a4 0E       		.uleb128 0xe
 3199 01a5 3A       		.uleb128 0x3a
 3200 01a6 0B       		.uleb128 0xb
 3201 01a7 3B       		.uleb128 0x3b
 3202 01a8 0B       		.uleb128 0xb
 3203 01a9 49       		.uleb128 0x49
 3204 01aa 13       		.uleb128 0x13
 3205 01ab 00       		.byte	0
 3206 01ac 00       		.byte	0
 3207 01ad 22       		.uleb128 0x22
 3208 01ae 2E       		.uleb128 0x2e
 3209 01af 01       		.byte	0x1
 3210 01b0 3F       		.uleb128 0x3f
 3211 01b1 19       		.uleb128 0x19
 3212 01b2 03       		.uleb128 0x3
 3213 01b3 0E       		.uleb128 0xe
 3214 01b4 3A       		.uleb128 0x3a
 3215 01b5 0B       		.uleb128 0xb
 3216 01b6 3B       		.uleb128 0x3b
 3217 01b7 05       		.uleb128 0x5
 3218 01b8 27       		.uleb128 0x27
 3219 01b9 19       		.uleb128 0x19
 3220 01ba 49       		.uleb128 0x49
 3221 01bb 13       		.uleb128 0x13
 3222 01bc 20       		.uleb128 0x20
 3223 01bd 0B       		.uleb128 0xb
 3224 01be 01       		.uleb128 0x1
 3225 01bf 13       		.uleb128 0x13
 3226 01c0 00       		.byte	0
 3227 01c1 00       		.byte	0
 3228 01c2 23       		.uleb128 0x23
 3229 01c3 05       		.uleb128 0x5
 3230 01c4 00       		.byte	0
 3231 01c5 03       		.uleb128 0x3
ARM GAS  C:\cygwin\tmp\ccX0bQ12.s 			page 58


 3232 01c6 08       		.uleb128 0x8
 3233 01c7 3A       		.uleb128 0x3a
 3234 01c8 0B       		.uleb128 0xb
 3235 01c9 3B       		.uleb128 0x3b
 3236 01ca 05       		.uleb128 0x5
 3237 01cb 49       		.uleb128 0x49
 3238 01cc 13       		.uleb128 0x13
 3239 01cd 00       		.byte	0
 3240 01ce 00       		.byte	0
 3241 01cf 24       		.uleb128 0x24
 3242 01d0 34       		.uleb128 0x34
 3243 01d1 00       		.byte	0
 3244 01d2 03       		.uleb128 0x3
 3245 01d3 0E       		.uleb128 0xe
 3246 01d4 3A       		.uleb128 0x3a
 3247 01d5 0B       		.uleb128 0xb
 3248 01d6 3B       		.uleb128 0x3b
 3249 01d7 05       		.uleb128 0x5
 3250 01d8 49       		.uleb128 0x49
 3251 01d9 13       		.uleb128 0x13
 3252 01da 00       		.byte	0
 3253 01db 00       		.byte	0
 3254 01dc 25       		.uleb128 0x25
 3255 01dd 2E       		.uleb128 0x2e
 3256 01de 01       		.byte	0x1
 3257 01df 3F       		.uleb128 0x3f
 3258 01e0 19       		.uleb128 0x19
 3259 01e1 03       		.uleb128 0x3
 3260 01e2 0E       		.uleb128 0xe
 3261 01e3 3A       		.uleb128 0x3a
 3262 01e4 0B       		.uleb128 0xb
 3263 01e5 3B       		.uleb128 0x3b
 3264 01e6 0B       		.uleb128 0xb
 3265 01e7 27       		.uleb128 0x27
 3266 01e8 19       		.uleb128 0x19
 3267 01e9 11       		.uleb128 0x11
 3268 01ea 01       		.uleb128 0x1
 3269 01eb 12       		.uleb128 0x12
 3270 01ec 06       		.uleb128 0x6
 3271 01ed 40       		.uleb128 0x40
 3272 01ee 18       		.uleb128 0x18
 3273 01ef 9742     		.uleb128 0x2117
 3274 01f1 19       		.uleb128 0x19
 3275 01f2 01       		.uleb128 0x1
 3276 01f3 13       		.uleb128 0x13
 3277 01f4 00       		.byte	0
 3278 01f5 00       		.byte	0
 3279 01f6 26       		.uleb128 0x26
 3280 01f7 05       		.uleb128 0x5
 3281 01f8 00       		.byte	0
 3282 01f9 03       		.uleb128 0x3
 3283 01fa 08       		.uleb128 0x8
 3284 01fb 3A       		.uleb128 0x3a
 3285 01fc 0B       		.uleb128 0xb
 3286 01fd 3B       		.uleb128 0x3b
 3287 01fe 0B       		.uleb128 0xb
 3288 01ff 49       		.uleb128 0x49
ARM GAS  C:\cygwin\tmp\ccX0bQ12.s 			page 59


 3289 0200 13       		.uleb128 0x13
 3290 0201 02       		.uleb128 0x2
 3291 0202 17       		.uleb128 0x17
 3292 0203 00       		.byte	0
 3293 0204 00       		.byte	0
 3294 0205 27       		.uleb128 0x27
 3295 0206 34       		.uleb128 0x34
 3296 0207 00       		.byte	0
 3297 0208 03       		.uleb128 0x3
 3298 0209 0E       		.uleb128 0xe
 3299 020a 49       		.uleb128 0x49
 3300 020b 13       		.uleb128 0x13
 3301 020c 34       		.uleb128 0x34
 3302 020d 19       		.uleb128 0x19
 3303 020e 00       		.byte	0
 3304 020f 00       		.byte	0
 3305 0210 28       		.uleb128 0x28
 3306 0211 898201   		.uleb128 0x4109
 3307 0214 01       		.byte	0x1
 3308 0215 11       		.uleb128 0x11
 3309 0216 01       		.uleb128 0x1
 3310 0217 31       		.uleb128 0x31
 3311 0218 13       		.uleb128 0x13
 3312 0219 01       		.uleb128 0x1
 3313 021a 13       		.uleb128 0x13
 3314 021b 00       		.byte	0
 3315 021c 00       		.byte	0
 3316 021d 29       		.uleb128 0x29
 3317 021e 8A8201   		.uleb128 0x410a
 3318 0221 00       		.byte	0
 3319 0222 02       		.uleb128 0x2
 3320 0223 18       		.uleb128 0x18
 3321 0224 9142     		.uleb128 0x2111
 3322 0226 18       		.uleb128 0x18
 3323 0227 00       		.byte	0
 3324 0228 00       		.byte	0
 3325 0229 2A       		.uleb128 0x2a
 3326 022a 898201   		.uleb128 0x4109
 3327 022d 01       		.byte	0x1
 3328 022e 11       		.uleb128 0x11
 3329 022f 01       		.uleb128 0x1
 3330 0230 9542     		.uleb128 0x2115
 3331 0232 19       		.uleb128 0x19
 3332 0233 31       		.uleb128 0x31
 3333 0234 13       		.uleb128 0x13
 3334 0235 00       		.byte	0
 3335 0236 00       		.byte	0
 3336 0237 2B       		.uleb128 0x2b
 3337 0238 1D       		.uleb128 0x1d
 3338 0239 01       		.byte	0x1
 3339 023a 31       		.uleb128 0x31
 3340 023b 13       		.uleb128 0x13
 3341 023c 11       		.uleb128 0x11
 3342 023d 01       		.uleb128 0x1
 3343 023e 12       		.uleb128 0x12
 3344 023f 06       		.uleb128 0x6
 3345 0240 58       		.uleb128 0x58
ARM GAS  C:\cygwin\tmp\ccX0bQ12.s 			page 60


 3346 0241 0B       		.uleb128 0xb
 3347 0242 59       		.uleb128 0x59
 3348 0243 0B       		.uleb128 0xb
 3349 0244 01       		.uleb128 0x1
 3350 0245 13       		.uleb128 0x13
 3351 0246 00       		.byte	0
 3352 0247 00       		.byte	0
 3353 0248 2C       		.uleb128 0x2c
 3354 0249 1D       		.uleb128 0x1d
 3355 024a 01       		.byte	0x1
 3356 024b 31       		.uleb128 0x31
 3357 024c 13       		.uleb128 0x13
 3358 024d 11       		.uleb128 0x11
 3359 024e 01       		.uleb128 0x1
 3360 024f 12       		.uleb128 0x12
 3361 0250 06       		.uleb128 0x6
 3362 0251 58       		.uleb128 0x58
 3363 0252 0B       		.uleb128 0xb
 3364 0253 59       		.uleb128 0x59
 3365 0254 05       		.uleb128 0x5
 3366 0255 00       		.byte	0
 3367 0256 00       		.byte	0
 3368 0257 2D       		.uleb128 0x2d
 3369 0258 05       		.uleb128 0x5
 3370 0259 00       		.byte	0
 3371 025a 31       		.uleb128 0x31
 3372 025b 13       		.uleb128 0x13
 3373 025c 1C       		.uleb128 0x1c
 3374 025d 0B       		.uleb128 0xb
 3375 025e 00       		.byte	0
 3376 025f 00       		.byte	0
 3377 0260 2E       		.uleb128 0x2e
 3378 0261 0B       		.uleb128 0xb
 3379 0262 01       		.byte	0x1
 3380 0263 11       		.uleb128 0x11
 3381 0264 01       		.uleb128 0x1
 3382 0265 12       		.uleb128 0x12
 3383 0266 06       		.uleb128 0x6
 3384 0267 00       		.byte	0
 3385 0268 00       		.byte	0
 3386 0269 2F       		.uleb128 0x2f
 3387 026a 34       		.uleb128 0x34
 3388 026b 00       		.byte	0
 3389 026c 31       		.uleb128 0x31
 3390 026d 13       		.uleb128 0x13
 3391 026e 00       		.byte	0
 3392 026f 00       		.byte	0
 3393 0270 30       		.uleb128 0x30
 3394 0271 898201   		.uleb128 0x4109
 3395 0274 00       		.byte	0
 3396 0275 11       		.uleb128 0x11
 3397 0276 01       		.uleb128 0x1
 3398 0277 31       		.uleb128 0x31
 3399 0278 13       		.uleb128 0x13
 3400 0279 00       		.byte	0
 3401 027a 00       		.byte	0
 3402 027b 31       		.uleb128 0x31
ARM GAS  C:\cygwin\tmp\ccX0bQ12.s 			page 61


 3403 027c 2E       		.uleb128 0x2e
 3404 027d 01       		.byte	0x1
 3405 027e 31       		.uleb128 0x31
 3406 027f 13       		.uleb128 0x13
 3407 0280 11       		.uleb128 0x11
 3408 0281 01       		.uleb128 0x1
 3409 0282 12       		.uleb128 0x12
 3410 0283 06       		.uleb128 0x6
 3411 0284 40       		.uleb128 0x40
 3412 0285 18       		.uleb128 0x18
 3413 0286 9742     		.uleb128 0x2117
 3414 0288 19       		.uleb128 0x19
 3415 0289 01       		.uleb128 0x1
 3416 028a 13       		.uleb128 0x13
 3417 028b 00       		.byte	0
 3418 028c 00       		.byte	0
 3419 028d 32       		.uleb128 0x32
 3420 028e 05       		.uleb128 0x5
 3421 028f 00       		.byte	0
 3422 0290 31       		.uleb128 0x31
 3423 0291 13       		.uleb128 0x13
 3424 0292 02       		.uleb128 0x2
 3425 0293 17       		.uleb128 0x17
 3426 0294 00       		.byte	0
 3427 0295 00       		.byte	0
 3428 0296 33       		.uleb128 0x33
 3429 0297 34       		.uleb128 0x34
 3430 0298 00       		.byte	0
 3431 0299 31       		.uleb128 0x31
 3432 029a 13       		.uleb128 0x13
 3433 029b 02       		.uleb128 0x2
 3434 029c 17       		.uleb128 0x17
 3435 029d 00       		.byte	0
 3436 029e 00       		.byte	0
 3437 029f 34       		.uleb128 0x34
 3438 02a0 0B       		.uleb128 0xb
 3439 02a1 01       		.byte	0x1
 3440 02a2 11       		.uleb128 0x11
 3441 02a3 01       		.uleb128 0x1
 3442 02a4 12       		.uleb128 0x12
 3443 02a5 06       		.uleb128 0x6
 3444 02a6 01       		.uleb128 0x1
 3445 02a7 13       		.uleb128 0x13
 3446 02a8 00       		.byte	0
 3447 02a9 00       		.byte	0
 3448 02aa 35       		.uleb128 0x35
 3449 02ab 898201   		.uleb128 0x4109
 3450 02ae 01       		.byte	0x1
 3451 02af 11       		.uleb128 0x11
 3452 02b0 01       		.uleb128 0x1
 3453 02b1 31       		.uleb128 0x31
 3454 02b2 13       		.uleb128 0x13
 3455 02b3 00       		.byte	0
 3456 02b4 00       		.byte	0
 3457 02b5 36       		.uleb128 0x36
 3458 02b6 2E       		.uleb128 0x2e
 3459 02b7 01       		.byte	0x1
ARM GAS  C:\cygwin\tmp\ccX0bQ12.s 			page 62


 3460 02b8 3F       		.uleb128 0x3f
 3461 02b9 19       		.uleb128 0x19
 3462 02ba 03       		.uleb128 0x3
 3463 02bb 0E       		.uleb128 0xe
 3464 02bc 3A       		.uleb128 0x3a
 3465 02bd 0B       		.uleb128 0xb
 3466 02be 3B       		.uleb128 0x3b
 3467 02bf 0B       		.uleb128 0xb
 3468 02c0 27       		.uleb128 0x27
 3469 02c1 19       		.uleb128 0x19
 3470 02c2 49       		.uleb128 0x49
 3471 02c3 13       		.uleb128 0x13
 3472 02c4 11       		.uleb128 0x11
 3473 02c5 01       		.uleb128 0x1
 3474 02c6 12       		.uleb128 0x12
 3475 02c7 06       		.uleb128 0x6
 3476 02c8 40       		.uleb128 0x40
 3477 02c9 18       		.uleb128 0x18
 3478 02ca 9742     		.uleb128 0x2117
 3479 02cc 19       		.uleb128 0x19
 3480 02cd 01       		.uleb128 0x1
 3481 02ce 13       		.uleb128 0x13
 3482 02cf 00       		.byte	0
 3483 02d0 00       		.byte	0
 3484 02d1 37       		.uleb128 0x37
 3485 02d2 05       		.uleb128 0x5
 3486 02d3 00       		.byte	0
 3487 02d4 03       		.uleb128 0x3
 3488 02d5 0E       		.uleb128 0xe
 3489 02d6 3A       		.uleb128 0x3a
 3490 02d7 0B       		.uleb128 0xb
 3491 02d8 3B       		.uleb128 0x3b
 3492 02d9 0B       		.uleb128 0xb
 3493 02da 49       		.uleb128 0x49
 3494 02db 13       		.uleb128 0x13
 3495 02dc 02       		.uleb128 0x2
 3496 02dd 17       		.uleb128 0x17
 3497 02de 00       		.byte	0
 3498 02df 00       		.byte	0
 3499 02e0 38       		.uleb128 0x38
 3500 02e1 34       		.uleb128 0x34
 3501 02e2 00       		.byte	0
 3502 02e3 03       		.uleb128 0x3
 3503 02e4 0E       		.uleb128 0xe
 3504 02e5 3A       		.uleb128 0x3a
 3505 02e6 0B       		.uleb128 0xb
 3506 02e7 3B       		.uleb128 0x3b
 3507 02e8 0B       		.uleb128 0xb
 3508 02e9 49       		.uleb128 0x49
 3509 02ea 13       		.uleb128 0x13
 3510 02eb 02       		.uleb128 0x2
 3511 02ec 18       		.uleb128 0x18
 3512 02ed 00       		.byte	0
 3513 02ee 00       		.byte	0
 3514 02ef 39       		.uleb128 0x39
 3515 02f0 1D       		.uleb128 0x1d
 3516 02f1 01       		.byte	0x1
ARM GAS  C:\cygwin\tmp\ccX0bQ12.s 			page 63


 3517 02f2 31       		.uleb128 0x31
 3518 02f3 13       		.uleb128 0x13
 3519 02f4 52       		.uleb128 0x52
 3520 02f5 01       		.uleb128 0x1
 3521 02f6 55       		.uleb128 0x55
 3522 02f7 17       		.uleb128 0x17
 3523 02f8 58       		.uleb128 0x58
 3524 02f9 0B       		.uleb128 0xb
 3525 02fa 59       		.uleb128 0x59
 3526 02fb 0B       		.uleb128 0xb
 3527 02fc 01       		.uleb128 0x1
 3528 02fd 13       		.uleb128 0x13
 3529 02fe 00       		.byte	0
 3530 02ff 00       		.byte	0
 3531 0300 3A       		.uleb128 0x3a
 3532 0301 0B       		.uleb128 0xb
 3533 0302 01       		.byte	0x1
 3534 0303 55       		.uleb128 0x55
 3535 0304 17       		.uleb128 0x17
 3536 0305 01       		.uleb128 0x1
 3537 0306 13       		.uleb128 0x13
 3538 0307 00       		.byte	0
 3539 0308 00       		.byte	0
 3540 0309 3B       		.uleb128 0x3b
 3541 030a 0B       		.uleb128 0xb
 3542 030b 01       		.byte	0x1
 3543 030c 55       		.uleb128 0x55
 3544 030d 17       		.uleb128 0x17
 3545 030e 00       		.byte	0
 3546 030f 00       		.byte	0
 3547 0310 3C       		.uleb128 0x3c
 3548 0311 1D       		.uleb128 0x1d
 3549 0312 01       		.byte	0x1
 3550 0313 31       		.uleb128 0x31
 3551 0314 13       		.uleb128 0x13
 3552 0315 11       		.uleb128 0x11
 3553 0316 01       		.uleb128 0x1
 3554 0317 12       		.uleb128 0x12
 3555 0318 06       		.uleb128 0x6
 3556 0319 58       		.uleb128 0x58
 3557 031a 0B       		.uleb128 0xb
 3558 031b 59       		.uleb128 0x59
 3559 031c 05       		.uleb128 0x5
 3560 031d 01       		.uleb128 0x1
 3561 031e 13       		.uleb128 0x13
 3562 031f 00       		.byte	0
 3563 0320 00       		.byte	0
 3564 0321 3D       		.uleb128 0x3d
 3565 0322 2E       		.uleb128 0x2e
 3566 0323 01       		.byte	0x1
 3567 0324 3F       		.uleb128 0x3f
 3568 0325 19       		.uleb128 0x19
 3569 0326 03       		.uleb128 0x3
 3570 0327 0E       		.uleb128 0xe
 3571 0328 3A       		.uleb128 0x3a
 3572 0329 0B       		.uleb128 0xb
 3573 032a 3B       		.uleb128 0x3b
ARM GAS  C:\cygwin\tmp\ccX0bQ12.s 			page 64


 3574 032b 05       		.uleb128 0x5
 3575 032c 27       		.uleb128 0x27
 3576 032d 19       		.uleb128 0x19
 3577 032e 49       		.uleb128 0x49
 3578 032f 13       		.uleb128 0x13
 3579 0330 11       		.uleb128 0x11
 3580 0331 01       		.uleb128 0x1
 3581 0332 12       		.uleb128 0x12
 3582 0333 06       		.uleb128 0x6
 3583 0334 40       		.uleb128 0x40
 3584 0335 18       		.uleb128 0x18
 3585 0336 9742     		.uleb128 0x2117
 3586 0338 19       		.uleb128 0x19
 3587 0339 01       		.uleb128 0x1
 3588 033a 13       		.uleb128 0x13
 3589 033b 00       		.byte	0
 3590 033c 00       		.byte	0
 3591 033d 3E       		.uleb128 0x3e
 3592 033e 05       		.uleb128 0x5
 3593 033f 00       		.byte	0
 3594 0340 03       		.uleb128 0x3
 3595 0341 08       		.uleb128 0x8
 3596 0342 3A       		.uleb128 0x3a
 3597 0343 0B       		.uleb128 0xb
 3598 0344 3B       		.uleb128 0x3b
 3599 0345 05       		.uleb128 0x5
 3600 0346 49       		.uleb128 0x49
 3601 0347 13       		.uleb128 0x13
 3602 0348 02       		.uleb128 0x2
 3603 0349 17       		.uleb128 0x17
 3604 034a 00       		.byte	0
 3605 034b 00       		.byte	0
 3606 034c 3F       		.uleb128 0x3f
 3607 034d 1D       		.uleb128 0x1d
 3608 034e 01       		.byte	0x1
 3609 034f 31       		.uleb128 0x31
 3610 0350 13       		.uleb128 0x13
 3611 0351 52       		.uleb128 0x52
 3612 0352 01       		.uleb128 0x1
 3613 0353 55       		.uleb128 0x55
 3614 0354 17       		.uleb128 0x17
 3615 0355 58       		.uleb128 0x58
 3616 0356 0B       		.uleb128 0xb
 3617 0357 59       		.uleb128 0x59
 3618 0358 05       		.uleb128 0x5
 3619 0359 01       		.uleb128 0x1
 3620 035a 13       		.uleb128 0x13
 3621 035b 00       		.byte	0
 3622 035c 00       		.byte	0
 3623 035d 40       		.uleb128 0x40
 3624 035e 05       		.uleb128 0x5
 3625 035f 00       		.byte	0
 3626 0360 03       		.uleb128 0x3
 3627 0361 0E       		.uleb128 0xe
 3628 0362 3A       		.uleb128 0x3a
 3629 0363 0B       		.uleb128 0xb
 3630 0364 3B       		.uleb128 0x3b
ARM GAS  C:\cygwin\tmp\ccX0bQ12.s 			page 65


 3631 0365 05       		.uleb128 0x5
 3632 0366 49       		.uleb128 0x49
 3633 0367 13       		.uleb128 0x13
 3634 0368 02       		.uleb128 0x2
 3635 0369 17       		.uleb128 0x17
 3636 036a 00       		.byte	0
 3637 036b 00       		.byte	0
 3638 036c 41       		.uleb128 0x41
 3639 036d 34       		.uleb128 0x34
 3640 036e 00       		.byte	0
 3641 036f 03       		.uleb128 0x3
 3642 0370 0E       		.uleb128 0xe
 3643 0371 3A       		.uleb128 0x3a
 3644 0372 0B       		.uleb128 0xb
 3645 0373 3B       		.uleb128 0x3b
 3646 0374 05       		.uleb128 0x5
 3647 0375 49       		.uleb128 0x49
 3648 0376 13       		.uleb128 0x13
 3649 0377 02       		.uleb128 0x2
 3650 0378 18       		.uleb128 0x18
 3651 0379 00       		.byte	0
 3652 037a 00       		.byte	0
 3653 037b 42       		.uleb128 0x42
 3654 037c 34       		.uleb128 0x34
 3655 037d 00       		.byte	0
 3656 037e 03       		.uleb128 0x3
 3657 037f 0E       		.uleb128 0xe
 3658 0380 3A       		.uleb128 0x3a
 3659 0381 0B       		.uleb128 0xb
 3660 0382 3B       		.uleb128 0x3b
 3661 0383 05       		.uleb128 0x5
 3662 0384 49       		.uleb128 0x49
 3663 0385 13       		.uleb128 0x13
 3664 0386 3F       		.uleb128 0x3f
 3665 0387 19       		.uleb128 0x19
 3666 0388 3C       		.uleb128 0x3c
 3667 0389 19       		.uleb128 0x19
 3668 038a 00       		.byte	0
 3669 038b 00       		.byte	0
 3670 038c 43       		.uleb128 0x43
 3671 038d 34       		.uleb128 0x34
 3672 038e 00       		.byte	0
 3673 038f 03       		.uleb128 0x3
 3674 0390 08       		.uleb128 0x8
 3675 0391 3A       		.uleb128 0x3a
 3676 0392 0B       		.uleb128 0xb
 3677 0393 3B       		.uleb128 0x3b
 3678 0394 05       		.uleb128 0x5
 3679 0395 49       		.uleb128 0x49
 3680 0396 13       		.uleb128 0x13
 3681 0397 3F       		.uleb128 0x3f
 3682 0398 19       		.uleb128 0x19
 3683 0399 3C       		.uleb128 0x3c
 3684 039a 19       		.uleb128 0x19
 3685 039b 00       		.byte	0
 3686 039c 00       		.byte	0
 3687 039d 44       		.uleb128 0x44
ARM GAS  C:\cygwin\tmp\ccX0bQ12.s 			page 66


 3688 039e 2E       		.uleb128 0x2e
 3689 039f 01       		.byte	0x1
 3690 03a0 3F       		.uleb128 0x3f
 3691 03a1 19       		.uleb128 0x19
 3692 03a2 03       		.uleb128 0x3
 3693 03a3 0E       		.uleb128 0xe
 3694 03a4 3A       		.uleb128 0x3a
 3695 03a5 0B       		.uleb128 0xb
 3696 03a6 3B       		.uleb128 0x3b
 3697 03a7 0B       		.uleb128 0xb
 3698 03a8 27       		.uleb128 0x27
 3699 03a9 19       		.uleb128 0x19
 3700 03aa 3C       		.uleb128 0x3c
 3701 03ab 19       		.uleb128 0x19
 3702 03ac 01       		.uleb128 0x1
 3703 03ad 13       		.uleb128 0x13
 3704 03ae 00       		.byte	0
 3705 03af 00       		.byte	0
 3706 03b0 45       		.uleb128 0x45
 3707 03b1 2E       		.uleb128 0x2e
 3708 03b2 00       		.byte	0
 3709 03b3 3F       		.uleb128 0x3f
 3710 03b4 19       		.uleb128 0x19
 3711 03b5 03       		.uleb128 0x3
 3712 03b6 0E       		.uleb128 0xe
 3713 03b7 3A       		.uleb128 0x3a
 3714 03b8 0B       		.uleb128 0xb
 3715 03b9 3B       		.uleb128 0x3b
 3716 03ba 05       		.uleb128 0x5
 3717 03bb 27       		.uleb128 0x27
 3718 03bc 19       		.uleb128 0x19
 3719 03bd 3C       		.uleb128 0x3c
 3720 03be 19       		.uleb128 0x19
 3721 03bf 00       		.byte	0
 3722 03c0 00       		.byte	0
 3723 03c1 46       		.uleb128 0x46
 3724 03c2 2E       		.uleb128 0x2e
 3725 03c3 01       		.byte	0x1
 3726 03c4 3F       		.uleb128 0x3f
 3727 03c5 19       		.uleb128 0x19
 3728 03c6 03       		.uleb128 0x3
 3729 03c7 0E       		.uleb128 0xe
 3730 03c8 3A       		.uleb128 0x3a
 3731 03c9 0B       		.uleb128 0xb
 3732 03ca 3B       		.uleb128 0x3b
 3733 03cb 0B       		.uleb128 0xb
 3734 03cc 27       		.uleb128 0x27
 3735 03cd 19       		.uleb128 0x19
 3736 03ce 49       		.uleb128 0x49
 3737 03cf 13       		.uleb128 0x13
 3738 03d0 3C       		.uleb128 0x3c
 3739 03d1 19       		.uleb128 0x19
 3740 03d2 00       		.byte	0
 3741 03d3 00       		.byte	0
 3742 03d4 00       		.byte	0
 3743              		.section	.debug_loc,"",%progbits
 3744              	.Ldebug_loc0:
ARM GAS  C:\cygwin\tmp\ccX0bQ12.s 			page 67


 3745              	.LLST0:
 3746 0000 00000000 		.4byte	.LVL0
 3747 0004 16000000 		.4byte	.LVL2
 3748 0008 0100     		.2byte	0x1
 3749 000a 50       		.byte	0x50
 3750 000b 16000000 		.4byte	.LVL2
 3751 000f 24000000 		.4byte	.LVL4
 3752 0013 0100     		.2byte	0x1
 3753 0015 54       		.byte	0x54
 3754 0016 24000000 		.4byte	.LVL4
 3755 001a 27000000 		.4byte	.LVL5-1
 3756 001e 0300     		.2byte	0x3
 3757 0020 70       		.byte	0x70
 3758 0021 70       		.sleb128 -16
 3759 0022 9F       		.byte	0x9f
 3760 0023 27000000 		.4byte	.LVL5-1
 3761 0027 28000000 		.4byte	.LFE226
 3762 002b 0400     		.2byte	0x4
 3763 002d F3       		.byte	0xf3
 3764 002e 01       		.uleb128 0x1
 3765 002f 50       		.byte	0x50
 3766 0030 9F       		.byte	0x9f
 3767 0031 00000000 		.4byte	0
 3768 0035 00000000 		.4byte	0
 3769              	.LLST1:
 3770 0039 00000000 		.4byte	.LVL0
 3771 003d 08000000 		.4byte	.LVL1
 3772 0041 0100     		.2byte	0x1
 3773 0043 51       		.byte	0x51
 3774 0044 08000000 		.4byte	.LVL1
 3775 0048 19000000 		.4byte	.LVL3-1
 3776 004c 0100     		.2byte	0x1
 3777 004e 53       		.byte	0x53
 3778 004f 19000000 		.4byte	.LVL3-1
 3779 0053 28000000 		.4byte	.LFE226
 3780 0057 0400     		.2byte	0x4
 3781 0059 F3       		.byte	0xf3
 3782 005a 01       		.uleb128 0x1
 3783 005b 51       		.byte	0x51
 3784 005c 9F       		.byte	0x9f
 3785 005d 00000000 		.4byte	0
 3786 0061 00000000 		.4byte	0
 3787              	.LLST2:
 3788 0065 00000000 		.4byte	.LVL0
 3789 0069 19000000 		.4byte	.LVL3-1
 3790 006d 0100     		.2byte	0x1
 3791 006f 52       		.byte	0x52
 3792 0070 19000000 		.4byte	.LVL3-1
 3793 0074 28000000 		.4byte	.LFE226
 3794 0078 0400     		.2byte	0x4
 3795 007a F3       		.byte	0xf3
 3796 007b 01       		.uleb128 0x1
 3797 007c 52       		.byte	0x52
 3798 007d 9F       		.byte	0x9f
 3799 007e 00000000 		.4byte	0
 3800 0082 00000000 		.4byte	0
 3801              	.LLST3:
ARM GAS  C:\cygwin\tmp\ccX0bQ12.s 			page 68


 3802 0086 00000000 		.4byte	.LVL6
 3803 008a 06000000 		.4byte	.LVL7
 3804 008e 0100     		.2byte	0x1
 3805 0090 50       		.byte	0x50
 3806 0091 06000000 		.4byte	.LVL7
 3807 0095 20000000 		.4byte	.LVL9
 3808 0099 0100     		.2byte	0x1
 3809 009b 54       		.byte	0x54
 3810 009c 20000000 		.4byte	.LVL9
 3811 00a0 23000000 		.4byte	.LVL10-1
 3812 00a4 0300     		.2byte	0x3
 3813 00a6 70       		.byte	0x70
 3814 00a7 70       		.sleb128 -16
 3815 00a8 9F       		.byte	0x9f
 3816 00a9 23000000 		.4byte	.LVL10-1
 3817 00ad 24000000 		.4byte	.LFE228
 3818 00b1 0400     		.2byte	0x4
 3819 00b3 F3       		.byte	0xf3
 3820 00b4 01       		.uleb128 0x1
 3821 00b5 50       		.byte	0x50
 3822 00b6 9F       		.byte	0x9f
 3823 00b7 00000000 		.4byte	0
 3824 00bb 00000000 		.4byte	0
 3825              	.LLST4:
 3826 00bf 00000000 		.4byte	.LVL11
 3827 00c3 0B000000 		.4byte	.LVL12-1
 3828 00c7 0100     		.2byte	0x1
 3829 00c9 50       		.byte	0x50
 3830 00ca 0B000000 		.4byte	.LVL12-1
 3831 00ce 18000000 		.4byte	.LFE227
 3832 00d2 0400     		.2byte	0x4
 3833 00d4 F3       		.byte	0xf3
 3834 00d5 01       		.uleb128 0x1
 3835 00d6 50       		.byte	0x50
 3836 00d7 9F       		.byte	0x9f
 3837 00d8 00000000 		.4byte	0
 3838 00dc 00000000 		.4byte	0
 3839              	.LLST5:
 3840 00e0 00000000 		.4byte	.LVL14
 3841 00e4 08000000 		.4byte	.LVL15
 3842 00e8 0100     		.2byte	0x1
 3843 00ea 50       		.byte	0x50
 3844 00eb 08000000 		.4byte	.LVL15
 3845 00ef 36000000 		.4byte	.LFE230
 3846 00f3 0100     		.2byte	0x1
 3847 00f5 54       		.byte	0x54
 3848 00f6 00000000 		.4byte	0
 3849 00fa 00000000 		.4byte	0
 3850              	.LLST6:
 3851 00fe 00000000 		.4byte	.LVL14
 3852 0102 0A000000 		.4byte	.LVL16
 3853 0106 0100     		.2byte	0x1
 3854 0108 51       		.byte	0x51
 3855 0109 0A000000 		.4byte	.LVL16
 3856 010d 36000000 		.4byte	.LFE230
 3857 0111 0100     		.2byte	0x1
 3858 0113 56       		.byte	0x56
ARM GAS  C:\cygwin\tmp\ccX0bQ12.s 			page 69


 3859 0114 00000000 		.4byte	0
 3860 0118 00000000 		.4byte	0
 3861              	.LLST7:
 3862 011c 00000000 		.4byte	.LVL14
 3863 0120 0D000000 		.4byte	.LVL17-1
 3864 0124 0100     		.2byte	0x1
 3865 0126 52       		.byte	0x52
 3866 0127 0D000000 		.4byte	.LVL17-1
 3867 012b 36000000 		.4byte	.LFE230
 3868 012f 0400     		.2byte	0x4
 3869 0131 F3       		.byte	0xf3
 3870 0132 01       		.uleb128 0x1
 3871 0133 52       		.byte	0x52
 3872 0134 9F       		.byte	0x9f
 3873 0135 00000000 		.4byte	0
 3874 0139 00000000 		.4byte	0
 3875              	.LLST8:
 3876 013d 0E000000 		.4byte	.LVL17
 3877 0141 26000000 		.4byte	.LVL19
 3878 0145 0100     		.2byte	0x1
 3879 0147 50       		.byte	0x50
 3880 0148 26000000 		.4byte	.LVL19
 3881 014c 36000000 		.4byte	.LFE230
 3882 0150 0100     		.2byte	0x1
 3883 0152 55       		.byte	0x55
 3884 0153 00000000 		.4byte	0
 3885 0157 00000000 		.4byte	0
 3886              	.LLST9:
 3887 015b 12000000 		.4byte	.LVL18
 3888 015f 32000000 		.4byte	.LVL21
 3889 0163 0400     		.2byte	0x4
 3890 0165 F3       		.byte	0xf3
 3891 0166 01       		.uleb128 0x1
 3892 0167 52       		.byte	0x52
 3893 0168 9F       		.byte	0x9f
 3894 0169 00000000 		.4byte	0
 3895 016d 00000000 		.4byte	0
 3896              	.LLST10:
 3897 0171 12000000 		.4byte	.LVL18
 3898 0175 32000000 		.4byte	.LVL21
 3899 0179 0100     		.2byte	0x1
 3900 017b 56       		.byte	0x56
 3901 017c 00000000 		.4byte	0
 3902 0180 00000000 		.4byte	0
 3903              	.LLST11:
 3904 0184 12000000 		.4byte	.LVL18
 3905 0188 32000000 		.4byte	.LVL21
 3906 018c 0100     		.2byte	0x1
 3907 018e 54       		.byte	0x54
 3908 018f 00000000 		.4byte	0
 3909 0193 00000000 		.4byte	0
 3910              	.LLST12:
 3911 0197 00000000 		.4byte	.LVL22
 3912 019b 0B000000 		.4byte	.LVL23-1
 3913 019f 0100     		.2byte	0x1
 3914 01a1 50       		.byte	0x50
 3915 01a2 0B000000 		.4byte	.LVL23-1
ARM GAS  C:\cygwin\tmp\ccX0bQ12.s 			page 70


 3916 01a6 14000000 		.4byte	.LFE229
 3917 01aa 0400     		.2byte	0x4
 3918 01ac F3       		.byte	0xf3
 3919 01ad 01       		.uleb128 0x1
 3920 01ae 50       		.byte	0x50
 3921 01af 9F       		.byte	0x9f
 3922 01b0 00000000 		.4byte	0
 3923 01b4 00000000 		.4byte	0
 3924              	.LLST13:
 3925 01b8 00000000 		.4byte	.LVL22
 3926 01bc 0B000000 		.4byte	.LVL23-1
 3927 01c0 0100     		.2byte	0x1
 3928 01c2 51       		.byte	0x51
 3929 01c3 0B000000 		.4byte	.LVL23-1
 3930 01c7 14000000 		.4byte	.LFE229
 3931 01cb 0400     		.2byte	0x4
 3932 01cd F3       		.byte	0xf3
 3933 01ce 01       		.uleb128 0x1
 3934 01cf 51       		.byte	0x51
 3935 01d0 9F       		.byte	0x9f
 3936 01d1 00000000 		.4byte	0
 3937 01d5 00000000 		.4byte	0
 3938              	.LLST14:
 3939 01d9 00000000 		.4byte	.LVL22
 3940 01dd 0B000000 		.4byte	.LVL23-1
 3941 01e1 0100     		.2byte	0x1
 3942 01e3 52       		.byte	0x52
 3943 01e4 0B000000 		.4byte	.LVL23-1
 3944 01e8 14000000 		.4byte	.LFE229
 3945 01ec 0400     		.2byte	0x4
 3946 01ee F3       		.byte	0xf3
 3947 01ef 01       		.uleb128 0x1
 3948 01f0 52       		.byte	0x52
 3949 01f1 9F       		.byte	0x9f
 3950 01f2 00000000 		.4byte	0
 3951 01f6 00000000 		.4byte	0
 3952              	.LLST15:
 3953 01fa 00000000 		.4byte	.LVL24
 3954 01fe 20000000 		.4byte	.LVL27
 3955 0202 0100     		.2byte	0x1
 3956 0204 50       		.byte	0x50
 3957 0205 20000000 		.4byte	.LVL27
 3958 0209 29000000 		.4byte	.LVL28-1
 3959 020d 0300     		.2byte	0x3
 3960 020f 70       		.byte	0x70
 3961 0210 70       		.sleb128 -16
 3962 0211 9F       		.byte	0x9f
 3963 0212 29000000 		.4byte	.LVL28-1
 3964 0216 2E000000 		.4byte	.LVL29
 3965 021a 0400     		.2byte	0x4
 3966 021c F3       		.byte	0xf3
 3967 021d 01       		.uleb128 0x1
 3968 021e 50       		.byte	0x50
 3969 021f 9F       		.byte	0x9f
 3970 0220 2E000000 		.4byte	.LVL29
 3971 0224 32000000 		.4byte	.LVL30
 3972 0228 0100     		.2byte	0x1
ARM GAS  C:\cygwin\tmp\ccX0bQ12.s 			page 71


 3973 022a 50       		.byte	0x50
 3974 022b 32000000 		.4byte	.LVL30
 3975 022f 34000000 		.4byte	.LFE231
 3976 0233 0400     		.2byte	0x4
 3977 0235 F3       		.byte	0xf3
 3978 0236 01       		.uleb128 0x1
 3979 0237 50       		.byte	0x50
 3980 0238 9F       		.byte	0x9f
 3981 0239 00000000 		.4byte	0
 3982 023d 00000000 		.4byte	0
 3983              	.LLST16:
 3984 0241 00000000 		.4byte	.LVL24
 3985 0245 29000000 		.4byte	.LVL28-1
 3986 0249 0100     		.2byte	0x1
 3987 024b 51       		.byte	0x51
 3988 024c 29000000 		.4byte	.LVL28-1
 3989 0250 2E000000 		.4byte	.LVL29
 3990 0254 0400     		.2byte	0x4
 3991 0256 F3       		.byte	0xf3
 3992 0257 01       		.uleb128 0x1
 3993 0258 51       		.byte	0x51
 3994 0259 9F       		.byte	0x9f
 3995 025a 2E000000 		.4byte	.LVL29
 3996 025e 34000000 		.4byte	.LFE231
 3997 0262 0100     		.2byte	0x1
 3998 0264 51       		.byte	0x51
 3999 0265 00000000 		.4byte	0
 4000 0269 00000000 		.4byte	0
 4001              	.LLST17:
 4002 026d 08000000 		.4byte	.LVL26
 4003 0271 20000000 		.4byte	.LVL27
 4004 0275 0300     		.2byte	0x3
 4005 0277 70       		.byte	0x70
 4006 0278 1C       		.sleb128 28
 4007 0279 9F       		.byte	0x9f
 4008 027a 20000000 		.4byte	.LVL27
 4009 027e 29000000 		.4byte	.LVL28-1
 4010 0282 0300     		.2byte	0x3
 4011 0284 70       		.byte	0x70
 4012 0285 0C       		.sleb128 12
 4013 0286 9F       		.byte	0x9f
 4014 0287 29000000 		.4byte	.LVL28-1
 4015 028b 2E000000 		.4byte	.LVL29
 4016 028f 0600     		.2byte	0x6
 4017 0291 F3       		.byte	0xf3
 4018 0292 01       		.uleb128 0x1
 4019 0293 50       		.byte	0x50
 4020 0294 23       		.byte	0x23
 4021 0295 1C       		.uleb128 0x1c
 4022 0296 9F       		.byte	0x9f
 4023 0297 00000000 		.4byte	0
 4024 029b 00000000 		.4byte	0
 4025              	.LLST18:
 4026 029f 00000000 		.4byte	.LVL31
 4027 02a3 08000000 		.4byte	.LVL32
 4028 02a7 0100     		.2byte	0x1
 4029 02a9 50       		.byte	0x50
ARM GAS  C:\cygwin\tmp\ccX0bQ12.s 			page 72


 4030 02aa 08000000 		.4byte	.LVL32
 4031 02ae 38000000 		.4byte	.LFE233
 4032 02b2 0100     		.2byte	0x1
 4033 02b4 54       		.byte	0x54
 4034 02b5 00000000 		.4byte	0
 4035 02b9 00000000 		.4byte	0
 4036              	.LLST19:
 4037 02bd 00000000 		.4byte	.LVL31
 4038 02c1 0A000000 		.4byte	.LVL33
 4039 02c5 0100     		.2byte	0x1
 4040 02c7 51       		.byte	0x51
 4041 02c8 0A000000 		.4byte	.LVL33
 4042 02cc 38000000 		.4byte	.LFE233
 4043 02d0 0100     		.2byte	0x1
 4044 02d2 56       		.byte	0x56
 4045 02d3 00000000 		.4byte	0
 4046 02d7 00000000 		.4byte	0
 4047              	.LLST20:
 4048 02db 00000000 		.4byte	.LVL31
 4049 02df 0D000000 		.4byte	.LVL34-1
 4050 02e3 0100     		.2byte	0x1
 4051 02e5 52       		.byte	0x52
 4052 02e6 0D000000 		.4byte	.LVL34-1
 4053 02ea 38000000 		.4byte	.LFE233
 4054 02ee 0400     		.2byte	0x4
 4055 02f0 F3       		.byte	0xf3
 4056 02f1 01       		.uleb128 0x1
 4057 02f2 52       		.byte	0x52
 4058 02f3 9F       		.byte	0x9f
 4059 02f4 00000000 		.4byte	0
 4060 02f8 00000000 		.4byte	0
 4061              	.LLST21:
 4062 02fc 0E000000 		.4byte	.LVL34
 4063 0300 24000000 		.4byte	.LVL36
 4064 0304 0100     		.2byte	0x1
 4065 0306 50       		.byte	0x50
 4066 0307 24000000 		.4byte	.LVL36
 4067 030b 30000000 		.4byte	.LVL39
 4068 030f 0100     		.2byte	0x1
 4069 0311 55       		.byte	0x55
 4070 0312 30000000 		.4byte	.LVL39
 4071 0316 38000000 		.4byte	.LFE233
 4072 031a 0100     		.2byte	0x1
 4073 031c 50       		.byte	0x50
 4074 031d 00000000 		.4byte	0
 4075 0321 00000000 		.4byte	0
 4076              	.LLST22:
 4077 0325 12000000 		.4byte	.LVL35
 4078 0329 2C000000 		.4byte	.LVL38
 4079 032d 0400     		.2byte	0x4
 4080 032f F3       		.byte	0xf3
 4081 0330 01       		.uleb128 0x1
 4082 0331 52       		.byte	0x52
 4083 0332 9F       		.byte	0x9f
 4084 0333 30000000 		.4byte	.LVL39
 4085 0337 38000000 		.4byte	.LFE233
 4086 033b 0400     		.2byte	0x4
ARM GAS  C:\cygwin\tmp\ccX0bQ12.s 			page 73


 4087 033d F3       		.byte	0xf3
 4088 033e 01       		.uleb128 0x1
 4089 033f 52       		.byte	0x52
 4090 0340 9F       		.byte	0x9f
 4091 0341 00000000 		.4byte	0
 4092 0345 00000000 		.4byte	0
 4093              	.LLST23:
 4094 0349 12000000 		.4byte	.LVL35
 4095 034d 2C000000 		.4byte	.LVL38
 4096 0351 0100     		.2byte	0x1
 4097 0353 56       		.byte	0x56
 4098 0354 30000000 		.4byte	.LVL39
 4099 0358 38000000 		.4byte	.LFE233
 4100 035c 0100     		.2byte	0x1
 4101 035e 56       		.byte	0x56
 4102 035f 00000000 		.4byte	0
 4103 0363 00000000 		.4byte	0
 4104              	.LLST24:
 4105 0367 12000000 		.4byte	.LVL35
 4106 036b 2C000000 		.4byte	.LVL38
 4107 036f 0100     		.2byte	0x1
 4108 0371 54       		.byte	0x54
 4109 0372 30000000 		.4byte	.LVL39
 4110 0376 38000000 		.4byte	.LFE233
 4111 037a 0100     		.2byte	0x1
 4112 037c 54       		.byte	0x54
 4113 037d 00000000 		.4byte	0
 4114 0381 00000000 		.4byte	0
 4115              	.LLST25:
 4116 0385 00000000 		.4byte	.LVL40
 4117 0389 0B000000 		.4byte	.LVL41-1
 4118 038d 0100     		.2byte	0x1
 4119 038f 50       		.byte	0x50
 4120 0390 0B000000 		.4byte	.LVL41-1
 4121 0394 14000000 		.4byte	.LFE232
 4122 0398 0400     		.2byte	0x4
 4123 039a F3       		.byte	0xf3
 4124 039b 01       		.uleb128 0x1
 4125 039c 50       		.byte	0x50
 4126 039d 9F       		.byte	0x9f
 4127 039e 00000000 		.4byte	0
 4128 03a2 00000000 		.4byte	0
 4129              	.LLST26:
 4130 03a6 00000000 		.4byte	.LVL40
 4131 03aa 0B000000 		.4byte	.LVL41-1
 4132 03ae 0100     		.2byte	0x1
 4133 03b0 51       		.byte	0x51
 4134 03b1 0B000000 		.4byte	.LVL41-1
 4135 03b5 14000000 		.4byte	.LFE232
 4136 03b9 0400     		.2byte	0x4
 4137 03bb F3       		.byte	0xf3
 4138 03bc 01       		.uleb128 0x1
 4139 03bd 51       		.byte	0x51
 4140 03be 9F       		.byte	0x9f
 4141 03bf 00000000 		.4byte	0
 4142 03c3 00000000 		.4byte	0
 4143              	.LLST27:
ARM GAS  C:\cygwin\tmp\ccX0bQ12.s 			page 74


 4144 03c7 00000000 		.4byte	.LVL40
 4145 03cb 0B000000 		.4byte	.LVL41-1
 4146 03cf 0100     		.2byte	0x1
 4147 03d1 52       		.byte	0x52
 4148 03d2 0B000000 		.4byte	.LVL41-1
 4149 03d6 14000000 		.4byte	.LFE232
 4150 03da 0400     		.2byte	0x4
 4151 03dc F3       		.byte	0xf3
 4152 03dd 01       		.uleb128 0x1
 4153 03de 52       		.byte	0x52
 4154 03df 9F       		.byte	0x9f
 4155 03e0 00000000 		.4byte	0
 4156 03e4 00000000 		.4byte	0
 4157              	.LLST28:
 4158 03e8 00000000 		.4byte	.LVL42
 4159 03ec 22000000 		.4byte	.LVL45
 4160 03f0 0100     		.2byte	0x1
 4161 03f2 50       		.byte	0x50
 4162 03f3 22000000 		.4byte	.LVL45
 4163 03f7 25000000 		.4byte	.LVL46-1
 4164 03fb 0300     		.2byte	0x3
 4165 03fd 70       		.byte	0x70
 4166 03fe 70       		.sleb128 -16
 4167 03ff 9F       		.byte	0x9f
 4168 0400 25000000 		.4byte	.LVL46-1
 4169 0404 2A000000 		.4byte	.LVL47
 4170 0408 0400     		.2byte	0x4
 4171 040a F3       		.byte	0xf3
 4172 040b 01       		.uleb128 0x1
 4173 040c 50       		.byte	0x50
 4174 040d 9F       		.byte	0x9f
 4175 040e 2A000000 		.4byte	.LVL47
 4176 0412 2E000000 		.4byte	.LVL48
 4177 0416 0100     		.2byte	0x1
 4178 0418 50       		.byte	0x50
 4179 0419 2E000000 		.4byte	.LVL48
 4180 041d 30000000 		.4byte	.LFE234
 4181 0421 0400     		.2byte	0x4
 4182 0423 F3       		.byte	0xf3
 4183 0424 01       		.uleb128 0x1
 4184 0425 50       		.byte	0x50
 4185 0426 9F       		.byte	0x9f
 4186 0427 00000000 		.4byte	0
 4187 042b 00000000 		.4byte	0
 4188              	.LLST29:
 4189 042f 00000000 		.4byte	.LVL42
 4190 0433 25000000 		.4byte	.LVL46-1
 4191 0437 0100     		.2byte	0x1
 4192 0439 51       		.byte	0x51
 4193 043a 25000000 		.4byte	.LVL46-1
 4194 043e 2A000000 		.4byte	.LVL47
 4195 0442 0400     		.2byte	0x4
 4196 0444 F3       		.byte	0xf3
 4197 0445 01       		.uleb128 0x1
 4198 0446 51       		.byte	0x51
 4199 0447 9F       		.byte	0x9f
 4200 0448 2A000000 		.4byte	.LVL47
ARM GAS  C:\cygwin\tmp\ccX0bQ12.s 			page 75


 4201 044c 30000000 		.4byte	.LFE234
 4202 0450 0100     		.2byte	0x1
 4203 0452 51       		.byte	0x51
 4204 0453 00000000 		.4byte	0
 4205 0457 00000000 		.4byte	0
 4206              	.LLST30:
 4207 045b 06000000 		.4byte	.LVL44
 4208 045f 22000000 		.4byte	.LVL45
 4209 0463 0300     		.2byte	0x3
 4210 0465 70       		.byte	0x70
 4211 0466 1C       		.sleb128 28
 4212 0467 9F       		.byte	0x9f
 4213 0468 22000000 		.4byte	.LVL45
 4214 046c 25000000 		.4byte	.LVL46-1
 4215 0470 0300     		.2byte	0x3
 4216 0472 70       		.byte	0x70
 4217 0473 0C       		.sleb128 12
 4218 0474 9F       		.byte	0x9f
 4219 0475 25000000 		.4byte	.LVL46-1
 4220 0479 2A000000 		.4byte	.LVL47
 4221 047d 0600     		.2byte	0x6
 4222 047f F3       		.byte	0xf3
 4223 0480 01       		.uleb128 0x1
 4224 0481 50       		.byte	0x50
 4225 0482 23       		.byte	0x23
 4226 0483 1C       		.uleb128 0x1c
 4227 0484 9F       		.byte	0x9f
 4228 0485 00000000 		.4byte	0
 4229 0489 00000000 		.4byte	0
 4230              	.LLST31:
 4231 048d 00000000 		.4byte	.LVL49
 4232 0491 08000000 		.4byte	.LVL50
 4233 0495 0100     		.2byte	0x1
 4234 0497 50       		.byte	0x50
 4235 0498 08000000 		.4byte	.LVL50
 4236 049c 38000000 		.4byte	.LFE236
 4237 04a0 0100     		.2byte	0x1
 4238 04a2 54       		.byte	0x54
 4239 04a3 00000000 		.4byte	0
 4240 04a7 00000000 		.4byte	0
 4241              	.LLST32:
 4242 04ab 00000000 		.4byte	.LVL49
 4243 04af 0A000000 		.4byte	.LVL51
 4244 04b3 0100     		.2byte	0x1
 4245 04b5 51       		.byte	0x51
 4246 04b6 0A000000 		.4byte	.LVL51
 4247 04ba 38000000 		.4byte	.LFE236
 4248 04be 0100     		.2byte	0x1
 4249 04c0 56       		.byte	0x56
 4250 04c1 00000000 		.4byte	0
 4251 04c5 00000000 		.4byte	0
 4252              	.LLST33:
 4253 04c9 00000000 		.4byte	.LVL49
 4254 04cd 0D000000 		.4byte	.LVL52-1
 4255 04d1 0100     		.2byte	0x1
 4256 04d3 52       		.byte	0x52
 4257 04d4 0D000000 		.4byte	.LVL52-1
ARM GAS  C:\cygwin\tmp\ccX0bQ12.s 			page 76


 4258 04d8 38000000 		.4byte	.LFE236
 4259 04dc 0400     		.2byte	0x4
 4260 04de F3       		.byte	0xf3
 4261 04df 01       		.uleb128 0x1
 4262 04e0 52       		.byte	0x52
 4263 04e1 9F       		.byte	0x9f
 4264 04e2 00000000 		.4byte	0
 4265 04e6 00000000 		.4byte	0
 4266              	.LLST34:
 4267 04ea 0E000000 		.4byte	.LVL52
 4268 04ee 28000000 		.4byte	.LVL54
 4269 04f2 0100     		.2byte	0x1
 4270 04f4 50       		.byte	0x50
 4271 04f5 28000000 		.4byte	.LVL54
 4272 04f9 38000000 		.4byte	.LFE236
 4273 04fd 0100     		.2byte	0x1
 4274 04ff 55       		.byte	0x55
 4275 0500 00000000 		.4byte	0
 4276 0504 00000000 		.4byte	0
 4277              	.LLST35:
 4278 0508 12000000 		.4byte	.LVL53
 4279 050c 34000000 		.4byte	.LVL56
 4280 0510 0400     		.2byte	0x4
 4281 0512 F3       		.byte	0xf3
 4282 0513 01       		.uleb128 0x1
 4283 0514 52       		.byte	0x52
 4284 0515 9F       		.byte	0x9f
 4285 0516 00000000 		.4byte	0
 4286 051a 00000000 		.4byte	0
 4287              	.LLST36:
 4288 051e 12000000 		.4byte	.LVL53
 4289 0522 34000000 		.4byte	.LVL56
 4290 0526 0100     		.2byte	0x1
 4291 0528 56       		.byte	0x56
 4292 0529 00000000 		.4byte	0
 4293 052d 00000000 		.4byte	0
 4294              	.LLST37:
 4295 0531 12000000 		.4byte	.LVL53
 4296 0535 34000000 		.4byte	.LVL56
 4297 0539 0100     		.2byte	0x1
 4298 053b 54       		.byte	0x54
 4299 053c 00000000 		.4byte	0
 4300 0540 00000000 		.4byte	0
 4301              	.LLST38:
 4302 0544 00000000 		.4byte	.LVL57
 4303 0548 0B000000 		.4byte	.LVL58-1
 4304 054c 0100     		.2byte	0x1
 4305 054e 50       		.byte	0x50
 4306 054f 0B000000 		.4byte	.LVL58-1
 4307 0553 14000000 		.4byte	.LFE235
 4308 0557 0400     		.2byte	0x4
 4309 0559 F3       		.byte	0xf3
 4310 055a 01       		.uleb128 0x1
 4311 055b 50       		.byte	0x50
 4312 055c 9F       		.byte	0x9f
 4313 055d 00000000 		.4byte	0
 4314 0561 00000000 		.4byte	0
ARM GAS  C:\cygwin\tmp\ccX0bQ12.s 			page 77


 4315              	.LLST39:
 4316 0565 00000000 		.4byte	.LVL57
 4317 0569 0B000000 		.4byte	.LVL58-1
 4318 056d 0100     		.2byte	0x1
 4319 056f 51       		.byte	0x51
 4320 0570 0B000000 		.4byte	.LVL58-1
 4321 0574 14000000 		.4byte	.LFE235
 4322 0578 0400     		.2byte	0x4
 4323 057a F3       		.byte	0xf3
 4324 057b 01       		.uleb128 0x1
 4325 057c 51       		.byte	0x51
 4326 057d 9F       		.byte	0x9f
 4327 057e 00000000 		.4byte	0
 4328 0582 00000000 		.4byte	0
 4329              	.LLST40:
 4330 0586 00000000 		.4byte	.LVL57
 4331 058a 0B000000 		.4byte	.LVL58-1
 4332 058e 0100     		.2byte	0x1
 4333 0590 52       		.byte	0x52
 4334 0591 0B000000 		.4byte	.LVL58-1
 4335 0595 14000000 		.4byte	.LFE235
 4336 0599 0400     		.2byte	0x4
 4337 059b F3       		.byte	0xf3
 4338 059c 01       		.uleb128 0x1
 4339 059d 52       		.byte	0x52
 4340 059e 9F       		.byte	0x9f
 4341 059f 00000000 		.4byte	0
 4342 05a3 00000000 		.4byte	0
 4343              	.LLST41:
 4344 05a7 00000000 		.4byte	.LVL59
 4345 05ab 22000000 		.4byte	.LVL62
 4346 05af 0100     		.2byte	0x1
 4347 05b1 50       		.byte	0x50
 4348 05b2 22000000 		.4byte	.LVL62
 4349 05b6 2B000000 		.4byte	.LVL63-1
 4350 05ba 0300     		.2byte	0x3
 4351 05bc 70       		.byte	0x70
 4352 05bd 64       		.sleb128 -28
 4353 05be 9F       		.byte	0x9f
 4354 05bf 2B000000 		.4byte	.LVL63-1
 4355 05c3 30000000 		.4byte	.LVL64
 4356 05c7 0400     		.2byte	0x4
 4357 05c9 F3       		.byte	0xf3
 4358 05ca 01       		.uleb128 0x1
 4359 05cb 50       		.byte	0x50
 4360 05cc 9F       		.byte	0x9f
 4361 05cd 30000000 		.4byte	.LVL64
 4362 05d1 34000000 		.4byte	.LVL65
 4363 05d5 0100     		.2byte	0x1
 4364 05d7 50       		.byte	0x50
 4365 05d8 34000000 		.4byte	.LVL65
 4366 05dc 36000000 		.4byte	.LFE237
 4367 05e0 0400     		.2byte	0x4
 4368 05e2 F3       		.byte	0xf3
 4369 05e3 01       		.uleb128 0x1
 4370 05e4 50       		.byte	0x50
 4371 05e5 9F       		.byte	0x9f
ARM GAS  C:\cygwin\tmp\ccX0bQ12.s 			page 78


 4372 05e6 00000000 		.4byte	0
 4373 05ea 00000000 		.4byte	0
 4374              	.LLST42:
 4375 05ee 00000000 		.4byte	.LVL59
 4376 05f2 2B000000 		.4byte	.LVL63-1
 4377 05f6 0100     		.2byte	0x1
 4378 05f8 51       		.byte	0x51
 4379 05f9 2B000000 		.4byte	.LVL63-1
 4380 05fd 30000000 		.4byte	.LVL64
 4381 0601 0400     		.2byte	0x4
 4382 0603 F3       		.byte	0xf3
 4383 0604 01       		.uleb128 0x1
 4384 0605 51       		.byte	0x51
 4385 0606 9F       		.byte	0x9f
 4386 0607 30000000 		.4byte	.LVL64
 4387 060b 36000000 		.4byte	.LFE237
 4388 060f 0100     		.2byte	0x1
 4389 0611 51       		.byte	0x51
 4390 0612 00000000 		.4byte	0
 4391 0616 00000000 		.4byte	0
 4392              	.LLST43:
 4393 061a 06000000 		.4byte	.LVL61
 4394 061e 22000000 		.4byte	.LVL62
 4395 0622 0300     		.2byte	0x3
 4396 0624 70       		.byte	0x70
 4397 0625 10       		.sleb128 16
 4398 0626 9F       		.byte	0x9f
 4399 0627 22000000 		.4byte	.LVL62
 4400 062b 2B000000 		.4byte	.LVL63-1
 4401 062f 0300     		.2byte	0x3
 4402 0631 70       		.byte	0x70
 4403 0632 74       		.sleb128 -12
 4404 0633 9F       		.byte	0x9f
 4405 0634 2B000000 		.4byte	.LVL63-1
 4406 0638 30000000 		.4byte	.LVL64
 4407 063c 0600     		.2byte	0x6
 4408 063e F3       		.byte	0xf3
 4409 063f 01       		.uleb128 0x1
 4410 0640 50       		.byte	0x50
 4411 0641 23       		.byte	0x23
 4412 0642 10       		.uleb128 0x10
 4413 0643 9F       		.byte	0x9f
 4414 0644 00000000 		.4byte	0
 4415 0648 00000000 		.4byte	0
 4416              		.section	.debug_aranges,"",%progbits
 4417 0000 74000000 		.4byte	0x74
 4418 0004 0200     		.2byte	0x2
 4419 0006 00000000 		.4byte	.Ldebug_info0
 4420 000a 04       		.byte	0x4
 4421 000b 00       		.byte	0
 4422 000c 0000     		.2byte	0
 4423 000e 0000     		.2byte	0
 4424 0010 00000000 		.4byte	.LFB226
 4425 0014 28000000 		.4byte	.LFE226-.LFB226
 4426 0018 00000000 		.4byte	.LFB228
 4427 001c 24000000 		.4byte	.LFE228-.LFB228
 4428 0020 00000000 		.4byte	.LFB227
ARM GAS  C:\cygwin\tmp\ccX0bQ12.s 			page 79


 4429 0024 18000000 		.4byte	.LFE227-.LFB227
 4430 0028 00000000 		.4byte	.LFB230
 4431 002c 36000000 		.4byte	.LFE230-.LFB230
 4432 0030 00000000 		.4byte	.LFB229
 4433 0034 14000000 		.4byte	.LFE229-.LFB229
 4434 0038 00000000 		.4byte	.LFB231
 4435 003c 34000000 		.4byte	.LFE231-.LFB231
 4436 0040 00000000 		.4byte	.LFB233
 4437 0044 38000000 		.4byte	.LFE233-.LFB233
 4438 0048 00000000 		.4byte	.LFB232
 4439 004c 14000000 		.4byte	.LFE232-.LFB232
 4440 0050 00000000 		.4byte	.LFB234
 4441 0054 30000000 		.4byte	.LFE234-.LFB234
 4442 0058 00000000 		.4byte	.LFB236
 4443 005c 38000000 		.4byte	.LFE236-.LFB236
 4444 0060 00000000 		.4byte	.LFB235
 4445 0064 14000000 		.4byte	.LFE235-.LFB235
 4446 0068 00000000 		.4byte	.LFB237
 4447 006c 36000000 		.4byte	.LFE237-.LFB237
 4448 0070 00000000 		.4byte	0
 4449 0074 00000000 		.4byte	0
 4450              		.section	.debug_ranges,"",%progbits
 4451              	.Ldebug_ranges0:
 4452 0000 0E000000 		.4byte	.LBB88
 4453 0004 10000000 		.4byte	.LBE88
 4454 0008 12000000 		.4byte	.LBB91
 4455 000c 14000000 		.4byte	.LBE91
 4456 0010 00000000 		.4byte	0
 4457 0014 00000000 		.4byte	0
 4458 0018 12000000 		.4byte	.LBB94
 4459 001c 2C000000 		.4byte	.LBE94
 4460 0020 30000000 		.4byte	.LBB97
 4461 0024 38000000 		.4byte	.LBE97
 4462 0028 00000000 		.4byte	0
 4463 002c 00000000 		.4byte	0
 4464 0030 0E000000 		.4byte	.LBB107
 4465 0034 10000000 		.4byte	.LBE107
 4466 0038 12000000 		.4byte	.LBB110
 4467 003c 14000000 		.4byte	.LBE110
 4468 0040 00000000 		.4byte	0
 4469 0044 00000000 		.4byte	0
 4470 0048 06000000 		.4byte	.LBB124
 4471 004c 08000000 		.4byte	.LBE124
 4472 0050 0C000000 		.4byte	.LBB127
 4473 0054 0E000000 		.4byte	.LBE127
 4474 0058 00000000 		.4byte	0
 4475 005c 00000000 		.4byte	0
 4476 0060 00000000 		.4byte	.LFB226
 4477 0064 28000000 		.4byte	.LFE226
 4478 0068 00000000 		.4byte	.LFB228
 4479 006c 24000000 		.4byte	.LFE228
 4480 0070 00000000 		.4byte	.LFB227
 4481 0074 18000000 		.4byte	.LFE227
 4482 0078 00000000 		.4byte	.LFB230
 4483 007c 36000000 		.4byte	.LFE230
 4484 0080 00000000 		.4byte	.LFB229
 4485 0084 14000000 		.4byte	.LFE229
ARM GAS  C:\cygwin\tmp\ccX0bQ12.s 			page 80


 4486 0088 00000000 		.4byte	.LFB231
 4487 008c 34000000 		.4byte	.LFE231
 4488 0090 00000000 		.4byte	.LFB233
 4489 0094 38000000 		.4byte	.LFE233
 4490 0098 00000000 		.4byte	.LFB232
 4491 009c 14000000 		.4byte	.LFE232
 4492 00a0 00000000 		.4byte	.LFB234
 4493 00a4 30000000 		.4byte	.LFE234
 4494 00a8 00000000 		.4byte	.LFB236
 4495 00ac 38000000 		.4byte	.LFE236
 4496 00b0 00000000 		.4byte	.LFB235
 4497 00b4 14000000 		.4byte	.LFE235
 4498 00b8 00000000 		.4byte	.LFB237
 4499 00bc 36000000 		.4byte	.LFE237
 4500 00c0 00000000 		.4byte	0
 4501 00c4 00000000 		.4byte	0
 4502              		.section	.debug_line,"",%progbits
 4503              	.Ldebug_line0:
 4504 0000 D9030000 		.section	.debug_str,"MS",%progbits,1
 4504      02000602 
 4504      00000201 
 4504      FB0E0D00 
 4504      01010101 
 4505              	.LASF49:
 4506 0000 72656164 		.ascii	"ready_list_t\000"
 4506      795F6C69 
 4506      73745F74 
 4506      00
 4507              	.LASF118:
 4508 000d 63684D42 		.ascii	"chMBObjectInit\000"
 4508      4F626A65 
 4508      6374496E 
 4508      697400
 4509              	.LASF130:
 4510 001c 63685365 		.ascii	"chSemSignalI\000"
 4510      6D536967 
 4510      6E616C49 
 4510      00
 4511              	.LASF84:
 4512 0029 7264796D 		.ascii	"rdymsg\000"
 4512      736700
 4513              	.LASF16:
 4514 0030 75696E74 		.ascii	"uint64_t\000"
 4514      36345F74 
 4514      00
 4515              	.LASF5:
 4516 0039 5F5F7569 		.ascii	"__uint8_t\000"
 4516      6E74385F 
 4516      7400
 4517              	.LASF122:
 4518 0043 63684D42 		.ascii	"chMBPostI\000"
 4518      506F7374 
 4518      4900
 4519              	.LASF81:
 4520 004d 706F7274 		.ascii	"port_intctx\000"
 4520      5F696E74 
 4520      63747800 
ARM GAS  C:\cygwin\tmp\ccX0bQ12.s 			page 81


 4521              	.LASF68:
 4522 0059 73797374 		.ascii	"system_debug_t\000"
 4522      656D5F64 
 4522      65627567 
 4522      5F7400
 4523              	.LASF76:
 4524 0068 69646C65 		.ascii	"idle_thread_wa\000"
 4524      5F746872 
 4524      6561645F 
 4524      776100
 4525              	.LASF105:
 4526 0077 706F7274 		.ascii	"port_lock\000"
 4526      5F6C6F63 
 4526      6B00
 4527              	.LASF124:
 4528 0081 63684D42 		.ascii	"chMBPostAheadI\000"
 4528      506F7374 
 4528      41686561 
 4528      644900
 4529              	.LASF12:
 4530 0090 6C6F6E67 		.ascii	"long long unsigned int\000"
 4530      206C6F6E 
 4530      6720756E 
 4530      7369676E 
 4530      65642069 
 4531              	.LASF85:
 4532 00a7 65786974 		.ascii	"exitcode\000"
 4532      636F6465 
 4532      00
 4533              	.LASF115:
 4534 00b0 63684D42 		.ascii	"chMBPostAheadS\000"
 4534      506F7374 
 4534      41686561 
 4534      645300
 4535              	.LASF65:
 4536 00bf 76697274 		.ascii	"virtual_timers_list_t\000"
 4536      75616C5F 
 4536      74696D65 
 4536      72735F6C 
 4536      6973745F 
 4537              	.LASF100:
 4538 00d5 6D625F77 		.ascii	"mb_wrptr\000"
 4538      72707472 
 4538      00
 4539              	.LASF48:
 4540 00de 63685F74 		.ascii	"ch_threads_queue\000"
 4540      68726561 
 4540      64735F71 
 4540      75657565 
 4540      00
 4541              	.LASF29:
 4542 00ef 705F7072 		.ascii	"p_prio\000"
 4542      696F00
 4543              	.LASF4:
 4544 00f6 73686F72 		.ascii	"short unsigned int\000"
 4544      7420756E 
 4544      7369676E 
ARM GAS  C:\cygwin\tmp\ccX0bQ12.s 			page 82


 4544      65642069 
 4544      6E7400
 4545              	.LASF10:
 4546 0109 6C6F6E67 		.ascii	"long long int\000"
 4546      206C6F6E 
 4546      6720696E 
 4546      7400
 4547              	.LASF1:
 4548 0117 7369676E 		.ascii	"signed char\000"
 4548      65642063 
 4548      68617200 
 4549              	.LASF43:
 4550 0123 705F6D70 		.ascii	"p_mpool\000"
 4550      6F6F6C00 
 4551              	.LASF90:
 4552 012b 6D5F7175 		.ascii	"m_queue\000"
 4552      65756500 
 4553              	.LASF74:
 4554 0133 76746C69 		.ascii	"vtlist\000"
 4554      737400
 4555              	.LASF106:
 4556 013a 706F7274 		.ascii	"port_unlock\000"
 4556      5F756E6C 
 4556      6F636B00 
 4557              	.LASF72:
 4558 0146 63685F73 		.ascii	"ch_system\000"
 4558      79737465 
 4558      6D00
 4559              	.LASF7:
 4560 0150 6C6F6E67 		.ascii	"long int\000"
 4560      20696E74 
 4560      00
 4561              	.LASF19:
 4562 0159 74737461 		.ascii	"tstate_t\000"
 4562      74655F74 
 4562      00
 4563              	.LASF93:
 4564 0162 73656D61 		.ascii	"semaphore\000"
 4564      70686F72 
 4564      6500
 4565              	.LASF31:
 4566 016c 705F6E65 		.ascii	"p_newer\000"
 4566      77657200 
 4567              	.LASF94:
 4568 0174 735F7175 		.ascii	"s_queue\000"
 4568      65756500 
 4569              	.LASF136:
 4570 017c 63685363 		.ascii	"chSchRescheduleS\000"
 4570      68526573 
 4570      63686564 
 4570      756C6553 
 4570      00
 4571              	.LASF101:
 4572 018d 6D625F72 		.ascii	"mb_rdptr\000"
 4572      64707472 
 4572      00
 4573              	.LASF78:
ARM GAS  C:\cygwin\tmp\ccX0bQ12.s 			page 83


 4574 0196 72656761 		.ascii	"regarm_t\000"
 4574      726D5F74 
 4574      00
 4575              	.LASF61:
 4576 019f 76745F70 		.ascii	"vt_prev\000"
 4576      72657600 
 4577              	.LASF97:
 4578 01a7 6D757465 		.ascii	"mutex_t\000"
 4578      785F7400 
 4579              	.LASF109:
 4580 01af 76616C75 		.ascii	"value\000"
 4580      6500
 4581              	.LASF8:
 4582 01b5 5F5F7569 		.ascii	"__uint32_t\000"
 4582      6E743332 
 4582      5F7400
 4583              	.LASF128:
 4584 01c0 63685365 		.ascii	"chSemObjectInit\000"
 4584      6D4F626A 
 4584      65637449 
 4584      6E697400 
 4585              	.LASF24:
 4586 01d0 636E745F 		.ascii	"cnt_t\000"
 4586      7400
 4587              	.LASF0:
 4588 01d6 756E7369 		.ascii	"unsigned int\000"
 4588      676E6564 
 4588      20696E74 
 4588      00
 4589              	.LASF60:
 4590 01e3 76745F6E 		.ascii	"vt_next\000"
 4590      65787400 
 4591              	.LASF38:
 4592 01eb 705F6D73 		.ascii	"p_msgqueue\000"
 4592      67717565 
 4592      756500
 4593              	.LASF103:
 4594 01f6 6D625F65 		.ascii	"mb_emptysem\000"
 4594      6D707479 
 4594      73656D00 
 4595              	.LASF95:
 4596 0202 735F636E 		.ascii	"s_cnt\000"
 4596      7400
 4597              	.LASF119:
 4598 0208 63684D42 		.ascii	"chMBResetI\000"
 4598      52657365 
 4598      744900
 4599              	.LASF45:
 4600 0213 63685F74 		.ascii	"ch_thread\000"
 4600      68726561 
 4600      6400
 4601              	.LASF75:
 4602 021d 6D61696E 		.ascii	"mainthread\000"
 4602      74687265 
 4602      616400
 4603              	.LASF126:
 4604 0228 63684D42 		.ascii	"chMBFetchI\000"
ARM GAS  C:\cygwin\tmp\ccX0bQ12.s 			page 84


 4604      46657463 
 4604      684900
 4605              	.LASF22:
 4606 0233 6D73675F 		.ascii	"msg_t\000"
 4606      7400
 4607              	.LASF54:
 4608 0239 725F6E65 		.ascii	"r_newer\000"
 4608      77657200 
 4609              	.LASF71:
 4610 0241 63685F73 		.ascii	"ch_system_t\000"
 4610      79737465 
 4610      6D5F7400 
 4611              	.LASF116:
 4612 024d 63684D42 		.ascii	"chMBFetchS\000"
 4612      46657463 
 4612      685300
 4613              	.LASF18:
 4614 0258 746D6F64 		.ascii	"tmode_t\000"
 4614      655F7400 
 4615              	.LASF50:
 4616 0260 63685F72 		.ascii	"ch_ready_list\000"
 4616      65616479 
 4616      5F6C6973 
 4616      7400
 4617              	.LASF23:
 4618 026e 6576656E 		.ascii	"eventmask_t\000"
 4618      746D6173 
 4618      6B5F7400 
 4619              	.LASF6:
 4620 027a 5F5F696E 		.ascii	"__int32_t\000"
 4620      7433325F 
 4620      7400
 4621              	.LASF117:
 4622 0284 6D736770 		.ascii	"msgp\000"
 4622      00
 4623              	.LASF132:
 4624 0289 474E5520 		.ascii	"GNU C 4.9.3 20141119 (release) [ARM/embedded-4_9-br"
 4624      4320342E 
 4624      392E3320 
 4624      32303134 
 4624      31313139 
 4625 02bc 616E6368 		.ascii	"anch revision 218278] -mcpu=cortex-m4 -mno-thumb-in"
 4625      20726576 
 4625      6973696F 
 4625      6E203231 
 4625      38323738 
 4626 02ef 74657277 		.ascii	"terwork -mthumb -ggdb -O2 -fomit-frame-pointer -fal"
 4626      6F726B20 
 4626      2D6D7468 
 4626      756D6220 
 4626      2D676764 
 4627 0322 69676E2D 		.ascii	"ign-functions=16 -ffunction-sections -fdata-section"
 4627      66756E63 
 4627      74696F6E 
 4627      733D3136 
 4627      202D6666 
 4628 0355 73202D66 		.ascii	"s -fno-common\000"
ARM GAS  C:\cygwin\tmp\ccX0bQ12.s 			page 85


 4628      6E6F2D63 
 4628      6F6D6D6F 
 4628      6E00
 4629              	.LASF79:
 4630 0363 73746B61 		.ascii	"stkalign_t\000"
 4630      6C69676E 
 4630      5F7400
 4631              	.LASF37:
 4632 036e 705F7761 		.ascii	"p_waiting\000"
 4632      6974696E 
 4632      6700
 4633              	.LASF77:
 4634 0378 73697A65 		.ascii	"sizetype\000"
 4634      74797065 
 4634      00
 4635              	.LASF66:
 4636 0381 63685F76 		.ascii	"ch_virtual_timers_list\000"
 4636      69727475 
 4636      616C5F74 
 4636      696D6572 
 4636      735F6C69 
 4637              	.LASF125:
 4638 0398 63684D42 		.ascii	"chMBFetch\000"
 4638      46657463 
 4638      6800
 4639              	.LASF120:
 4640 03a2 63684D42 		.ascii	"chMBReset\000"
 4640      52657365 
 4640      7400
 4641              	.LASF67:
 4642 03ac 76745F6C 		.ascii	"vt_lasttime\000"
 4642      61737474 
 4642      696D6500 
 4643              	.LASF32:
 4644 03b8 705F6F6C 		.ascii	"p_older\000"
 4644      64657200 
 4645              	.LASF53:
 4646 03c0 725F6374 		.ascii	"r_ctx\000"
 4646      7800
 4647              	.LASF104:
 4648 03c6 6D61696C 		.ascii	"mailbox_t\000"
 4648      626F785F 
 4648      7400
 4649              	.LASF83:
 4650 03d0 746D5F63 		.ascii	"tm_calibration_t\000"
 4650      616C6962 
 4650      72617469 
 4650      6F6E5F74 
 4650      00
 4651              	.LASF98:
 4652 03e1 6D625F62 		.ascii	"mb_buffer\000"
 4652      75666665 
 4652      7200
 4653              	.LASF112:
 4654 03eb 74696D65 		.ascii	"time\000"
 4654      00
 4655              	.LASF56:
ARM GAS  C:\cygwin\tmp\ccX0bQ12.s 			page 86


 4656 03f0 725F6375 		.ascii	"r_current\000"
 4656      7272656E 
 4656      7400
 4657              	.LASF55:
 4658 03fa 725F6F6C 		.ascii	"r_older\000"
 4658      64657200 
 4659              	.LASF11:
 4660 0402 5F5F7569 		.ascii	"__uint64_t\000"
 4660      6E743634 
 4660      5F7400
 4661              	.LASF134:
 4662 040d 433A5C55 		.ascii	"C:\\Users\\Jo\\Documents\\GitHub\\ChibiOS\\demos\\S"
 4662      73657273 
 4662      5C4A6F5C 
 4662      446F6375 
 4662      6D656E74 
 4663 0439 544D3332 		.ascii	"TM32\\RT-STM32F401RE-NUCLEO\000"
 4663      5C52542D 
 4663      53544D33 
 4663      32463430 
 4663      3152452D 
 4664              	.LASF20:
 4665 0454 74726566 		.ascii	"trefs_t\000"
 4665      735F7400 
 4666              	.LASF58:
 4667 045c 76697274 		.ascii	"virtual_timer_t\000"
 4667      75616C5F 
 4667      74696D65 
 4667      725F7400 
 4668              	.LASF28:
 4669 046c 705F7072 		.ascii	"p_prev\000"
 4669      657600
 4670              	.LASF21:
 4671 0473 74707269 		.ascii	"tprio_t\000"
 4671      6F5F7400 
 4672              	.LASF89:
 4673 047b 6D757465 		.ascii	"mutex\000"
 4673      7800
 4674              	.LASF69:
 4675 0481 63685F73 		.ascii	"ch_system_debug\000"
 4675      79737465 
 4675      6D5F6465 
 4675      62756700 
 4676              	.LASF14:
 4677 0491 696E7433 		.ascii	"int32_t\000"
 4677      325F7400 
 4678              	.LASF2:
 4679 0499 756E7369 		.ascii	"unsigned char\000"
 4679      676E6564 
 4679      20636861 
 4679      7200
 4680              	.LASF99:
 4681 04a7 6D625F74 		.ascii	"mb_top\000"
 4681      6F7000
 4682              	.LASF127:
 4683 04ae 49544D5F 		.ascii	"ITM_RxBuffer\000"
 4683      52784275 
ARM GAS  C:\cygwin\tmp\ccX0bQ12.s 			page 87


 4683      66666572 
 4683      00
 4684              	.LASF41:
 4685 04bb 705F6D74 		.ascii	"p_mtxlist\000"
 4685      786C6973 
 4685      7400
 4686              	.LASF3:
 4687 04c5 73686F72 		.ascii	"short int\000"
 4687      7420696E 
 4687      7400
 4688              	.LASF34:
 4689 04cf 705F7374 		.ascii	"p_state\000"
 4689      61746500 
 4690              	.LASF52:
 4691 04d7 725F7072 		.ascii	"r_prio\000"
 4691      696F00
 4692              	.LASF87:
 4693 04de 65776D61 		.ascii	"ewmask\000"
 4693      736B00
 4694              	.LASF27:
 4695 04e5 705F6E65 		.ascii	"p_next\000"
 4695      787400
 4696              	.LASF35:
 4697 04ec 705F666C 		.ascii	"p_flags\000"
 4697      61677300 
 4698              	.LASF113:
 4699 04f4 5F5F6675 		.ascii	"__func__\000"
 4699      6E635F5F 
 4699      00
 4700              	.LASF121:
 4701 04fd 63684D42 		.ascii	"chMBPost\000"
 4701      506F7374 
 4701      00
 4702              	.LASF110:
 4703 0506 63685379 		.ascii	"chSysLock\000"
 4703      734C6F63 
 4703      6B00
 4704              	.LASF133:
 4705 0510 2E2E2F2E 		.ascii	"../../../os/rt/src/chmboxes.c\000"
 4705      2E2F2E2E 
 4705      2F6F732F 
 4705      72742F73 
 4705      72632F63 
 4706              	.LASF96:
 4707 052e 73656D61 		.ascii	"semaphore_t\000"
 4707      70686F72 
 4707      655F7400 
 4708              	.LASF59:
 4709 053a 63685F76 		.ascii	"ch_virtual_timer\000"
 4709      69727475 
 4709      616C5F74 
 4709      696D6572 
 4709      00
 4710              	.LASF40:
 4711 054b 705F6570 		.ascii	"p_epending\000"
 4711      656E6469 
 4711      6E6700
ARM GAS  C:\cygwin\tmp\ccX0bQ12.s 			page 88


 4712              	.LASF15:
 4713 0556 75696E74 		.ascii	"uint32_t\000"
 4713      33325F74 
 4713      00
 4714              	.LASF51:
 4715 055f 725F7175 		.ascii	"r_queue\000"
 4715      65756500 
 4716              	.LASF62:
 4717 0567 76745F64 		.ascii	"vt_delta\000"
 4717      656C7461 
 4717      00
 4718              	.LASF46:
 4719 0570 63685F74 		.ascii	"ch_threads_list\000"
 4719      68726561 
 4719      64735F6C 
 4719      69737400 
 4720              	.LASF9:
 4721 0580 6C6F6E67 		.ascii	"long unsigned int\000"
 4721      20756E73 
 4721      69676E65 
 4721      6420696E 
 4721      7400
 4722              	.LASF88:
 4723 0592 63686172 		.ascii	"char\000"
 4723      00
 4724              	.LASF131:
 4725 0597 63685365 		.ascii	"chSemWaitTimeoutS\000"
 4725      6D576169 
 4725      7454696D 
 4725      656F7574 
 4725      5300
 4726              	.LASF26:
 4727 05a9 74687265 		.ascii	"thread_t\000"
 4727      61645F74 
 4727      00
 4728              	.LASF92:
 4729 05b2 6D5F6E65 		.ascii	"m_next\000"
 4729      787400
 4730              	.LASF25:
 4731 05b9 73797374 		.ascii	"systime_t\000"
 4731      696D655F 
 4731      7400
 4732              	.LASF42:
 4733 05c3 705F7265 		.ascii	"p_realprio\000"
 4733      616C7072 
 4733      696F00
 4734              	.LASF57:
 4735 05ce 76746675 		.ascii	"vtfunc_t\000"
 4735      6E635F74 
 4735      00
 4736              	.LASF135:
 4737 05d7 63685365 		.ascii	"chSemGetCounterI\000"
 4737      6D476574 
 4737      436F756E 
 4737      74657249 
 4737      00
 4738              	.LASF107:
ARM GAS  C:\cygwin\tmp\ccX0bQ12.s 			page 89


 4739 05e8 5F5F7365 		.ascii	"__set_BASEPRI\000"
 4739      745F4241 
 4739      53455052 
 4739      4900
 4740              	.LASF70:
 4741 05f6 70616E69 		.ascii	"panic_msg\000"
 4741      635F6D73 
 4741      6700
 4742              	.LASF82:
 4743 0600 6F666673 		.ascii	"offset\000"
 4743      657400
 4744              	.LASF80:
 4745 0607 636F6E74 		.ascii	"context\000"
 4745      65787400 
 4746              	.LASF123:
 4747 060f 63684D42 		.ascii	"chMBPostAhead\000"
 4747      506F7374 
 4747      41686561 
 4747      6400
 4748              	.LASF17:
 4749 061d 7274636E 		.ascii	"rtcnt_t\000"
 4749      745F7400 
 4750              	.LASF64:
 4751 0625 76745F70 		.ascii	"vt_par\000"
 4751      617200
 4752              	.LASF108:
 4753 062c 63685365 		.ascii	"chSemFastWaitI\000"
 4753      6D466173 
 4753      74576169 
 4753      744900
 4754              	.LASF102:
 4755 063b 6D625F66 		.ascii	"mb_fullsem\000"
 4755      756C6C73 
 4755      656D00
 4756              	.LASF47:
 4757 0646 74687265 		.ascii	"threads_queue_t\000"
 4757      6164735F 
 4757      71756575 
 4757      655F7400 
 4758              	.LASF36:
 4759 0656 705F7265 		.ascii	"p_refs\000"
 4759      667300
 4760              	.LASF129:
 4761 065d 63685365 		.ascii	"chSemResetI\000"
 4761      6D526573 
 4761      65744900 
 4762              	.LASF73:
 4763 0669 726C6973 		.ascii	"rlist\000"
 4763      7400
 4764              	.LASF13:
 4765 066f 75696E74 		.ascii	"uint8_t\000"
 4765      385F7400 
 4766              	.LASF86:
 4767 0677 77746F62 		.ascii	"wtobjp\000"
 4767      6A7000
 4768              	.LASF33:
 4769 067e 705F6E61 		.ascii	"p_name\000"
ARM GAS  C:\cygwin\tmp\ccX0bQ12.s 			page 90


 4769      6D6500
 4770              	.LASF44:
 4771 0685 74687265 		.ascii	"threads_list_t\000"
 4771      6164735F 
 4771      6C697374 
 4771      5F7400
 4772              	.LASF111:
 4773 0694 63685379 		.ascii	"chSysUnlock\000"
 4773      73556E6C 
 4773      6F636B00 
 4774              	.LASF39:
 4775 06a0 705F6D73 		.ascii	"p_msg\000"
 4775      6700
 4776              	.LASF114:
 4777 06a6 63684D42 		.ascii	"chMBPostS\000"
 4777      506F7374 
 4777      5300
 4778              	.LASF91:
 4779 06b0 6D5F6F77 		.ascii	"m_owner\000"
 4779      6E657200 
 4780              	.LASF30:
 4781 06b8 705F6374 		.ascii	"p_ctx\000"
 4781      7800
 4782              	.LASF63:
 4783 06be 76745F66 		.ascii	"vt_func\000"
 4783      756E6300 
 4784              		.ident	"GCC: (GNU Tools for ARM Embedded Processors) 4.9.3 20141119 (release) [ARM/embedded-4_9-br
ARM GAS  C:\cygwin\tmp\ccX0bQ12.s 			page 91


DEFINED SYMBOLS
                            *ABS*:00000000 chmboxes.c
C:\cygwin\tmp\ccX0bQ12.s:19     .text.chMBObjectInit:00000000 $t
C:\cygwin\tmp\ccX0bQ12.s:25     .text.chMBObjectInit:00000000 chMBObjectInit
C:\cygwin\tmp\ccX0bQ12.s:71     .text.chMBResetI:00000000 $t
C:\cygwin\tmp\ccX0bQ12.s:77     .text.chMBResetI:00000000 chMBResetI
C:\cygwin\tmp\ccX0bQ12.s:123    .text.chMBReset:00000000 $t
C:\cygwin\tmp\ccX0bQ12.s:129    .text.chMBReset:00000000 chMBReset
C:\cygwin\tmp\ccX0bQ12.s:182    .text.chMBPostS:00000000 $t
C:\cygwin\tmp\ccX0bQ12.s:188    .text.chMBPostS:00000000 chMBPostS
C:\cygwin\tmp\ccX0bQ12.s:254    .text.chMBPost:00000000 $t
C:\cygwin\tmp\ccX0bQ12.s:260    .text.chMBPost:00000000 chMBPost
C:\cygwin\tmp\ccX0bQ12.s:310    .text.chMBPostI:00000000 $t
C:\cygwin\tmp\ccX0bQ12.s:316    .text.chMBPostI:00000000 chMBPostI
C:\cygwin\tmp\ccX0bQ12.s:385    .text.chMBPostAheadS:00000000 $t
C:\cygwin\tmp\ccX0bQ12.s:391    .text.chMBPostAheadS:00000000 chMBPostAheadS
C:\cygwin\tmp\ccX0bQ12.s:459    .text.chMBPostAhead:00000000 $t
C:\cygwin\tmp\ccX0bQ12.s:465    .text.chMBPostAhead:00000000 chMBPostAhead
C:\cygwin\tmp\ccX0bQ12.s:515    .text.chMBPostAheadI:00000000 $t
C:\cygwin\tmp\ccX0bQ12.s:521    .text.chMBPostAheadI:00000000 chMBPostAheadI
C:\cygwin\tmp\ccX0bQ12.s:589    .text.chMBFetchS:00000000 $t
C:\cygwin\tmp\ccX0bQ12.s:595    .text.chMBFetchS:00000000 chMBFetchS
C:\cygwin\tmp\ccX0bQ12.s:662    .text.chMBFetch:00000000 $t
C:\cygwin\tmp\ccX0bQ12.s:668    .text.chMBFetch:00000000 chMBFetch
C:\cygwin\tmp\ccX0bQ12.s:718    .text.chMBFetchI:00000000 $t
C:\cygwin\tmp\ccX0bQ12.s:724    .text.chMBFetchI:00000000 chMBFetchI
                     .debug_frame:00000010 $d

UNDEFINED SYMBOLS
chSemObjectInit
chSemResetI
chSchRescheduleS
chSemWaitTimeoutS
chSemSignalI
