ARM GAS  C:\cygwin\tmp\ccK3yYiy.s 			page 1


   1              		.syntax unified
   2              		.cpu cortex-m4
   3              		.fpu softvfp
   4              		.eabi_attribute 20, 1
   5              		.eabi_attribute 21, 1
   6              		.eabi_attribute 23, 3
   7              		.eabi_attribute 24, 1
   8              		.eabi_attribute 25, 1
   9              		.eabi_attribute 26, 1
  10              		.eabi_attribute 30, 2
  11              		.eabi_attribute 34, 1
  12              		.eabi_attribute 18, 4
  13              		.thumb
  14              		.file	"chmemcore.c"
  15              		.text
  16              	.Ltext0:
  17              		.cfi_sections	.debug_frame
  18              		.section	.text._core_init,"ax",%progbits
  19              		.align	2
  20              		.p2align 4,,15
  21              		.global	_core_init
  22              		.thumb
  23              		.thumb_func
  24              		.type	_core_init, %function
  25              	_core_init:
  26              	.LFB226:
  27              		.file 1 "../../../os/rt/src/chmemcore.c"
  28              		.loc 1 78 0
  29              		.cfi_startproc
  30              		@ args = 0, pretend = 0, frame = 0
  31              		@ frame_needed = 0, uses_anonymous_args = 0
  32              		@ link register save eliminated.
  33              		.loc 1 83 0
  34 0000 054A     		ldr	r2, .L2
  35              		.loc 1 84 0
  36 0002 064B     		ldr	r3, .L2+4
  37              		.loc 1 83 0
  38 0004 0648     		ldr	r0, .L2+8
  39              		.loc 1 84 0
  40 0006 0749     		ldr	r1, .L2+12
  41              		.loc 1 83 0
  42 0008 22F00702 		bic	r2, r2, #7
  43              		.loc 1 84 0
  44 000c 23F00703 		bic	r3, r3, #7
  45              		.loc 1 83 0
  46 0010 0260     		str	r2, [r0]
  47              		.loc 1 84 0
  48 0012 0B60     		str	r3, [r1]
  49 0014 7047     		bx	lr
  50              	.L3:
  51 0016 00BF     		.align	2
  52              	.L2:
  53 0018 07000000 		.word	__heap_base__+7
  54 001c 00000000 		.word	__heap_end__
  55 0020 00000000 		.word	.LANCHOR0
  56 0024 00000000 		.word	.LANCHOR1
  57              		.cfi_endproc
ARM GAS  C:\cygwin\tmp\ccK3yYiy.s 			page 2


  58              	.LFE226:
  59              		.size	_core_init, .-_core_init
  60 0028 AFF30080 		.section	.text.chCoreAlloc,"ax",%progbits
  60      AFF30080 
  61              		.align	2
  62              		.p2align 4,,15
  63              		.global	chCoreAlloc
  64              		.thumb
  65              		.thumb_func
  66              		.type	chCoreAlloc, %function
  67              	chCoreAlloc:
  68              	.LFB227:
  69              		.loc 1 105 0
  70              		.cfi_startproc
  71              		@ args = 0, pretend = 0, frame = 0
  72              		@ frame_needed = 0, uses_anonymous_args = 0
  73              		@ link register save eliminated.
  74              	.LVL0:
  75 0000 10B4     		push	{r4}
  76              		.cfi_def_cfa_offset 4
  77              		.cfi_offset 4, -4
  78              	.LBB26:
  79              	.LBB27:
  80              	.LBB28:
  81              	.LBB29:
  82              		.file 2 "../../../os/ext/CMSIS/include/core_cmFunc.h"
  83              		.loc 2 546 0
  84 0002 2023     		movs	r3, #32
  85              	@ 546 "../../../os/ext/CMSIS/include/core_cmFunc.h" 1
  86 0004 83F31188 		MSR basepri, r3
  87              	@ 0 "" 2
  88              	.LVL1:
  89              		.thumb
  90              	.LBE29:
  91              	.LBE28:
  92              	.LBE27:
  93              	.LBE26:
  94              	.LBB30:
  95              	.LBB31:
  96              		.loc 1 133 0
  97 0008 094C     		ldr	r4, .L8
  98 000a 0A4B     		ldr	r3, .L8+4
  99 000c 2268     		ldr	r2, [r4]
 100 000e 1968     		ldr	r1, [r3]
 101              		.loc 1 132 0
 102 0010 C31D     		adds	r3, r0, #7
 103 0012 23F00703 		bic	r3, r3, #7
 104              	.LVL2:
 105              		.loc 1 133 0
 106 0016 891A     		subs	r1, r1, r2
 107 0018 8B42     		cmp	r3, r1
 108              	.LVL3:
 109              		.loc 1 137 0
 110 001a 9DBF     		ittte	ls
 111 001c 9B18     		addls	r3, r3, r2
 112              	.LVL4:
 113 001e 2360     		strls	r3, [r4]
ARM GAS  C:\cygwin\tmp\ccK3yYiy.s 			page 3


 114              		.loc 1 139 0
 115 0020 1046     		movls	r0, r2
 116              	.LVL5:
 117              		.loc 1 134 0
 118 0022 0020     		movhi	r0, #0
 119              	.LVL6:
 120              	.LBE31:
 121              	.LBE30:
 122              	.LBB32:
 123              	.LBB33:
 124              	.LBB34:
 125              	.LBB35:
 126              	.LBB36:
 127              		.loc 2 546 0
 128 0024 0023     		movs	r3, #0
 129              	@ 546 "../../../os/ext/CMSIS/include/core_cmFunc.h" 1
 130 0026 83F31188 		MSR basepri, r3
 131              	@ 0 "" 2
 132              		.thumb
 133              	.LBE36:
 134              	.LBE35:
 135              	.LBE34:
 136              	.LBE33:
 137              	.LBE32:
 138              		.loc 1 113 0
 139 002a 5DF8044B 		ldr	r4, [sp], #4
 140              		.cfi_restore 4
 141              		.cfi_def_cfa_offset 0
 142 002e 7047     		bx	lr
 143              	.L9:
 144              		.align	2
 145              	.L8:
 146 0030 00000000 		.word	.LANCHOR0
 147 0034 00000000 		.word	.LANCHOR1
 148              		.cfi_endproc
 149              	.LFE227:
 150              		.size	chCoreAlloc, .-chCoreAlloc
 151 0038 AFF30080 		.section	.text.chCoreAllocI,"ax",%progbits
 151      AFF30080 
 152              		.align	2
 153              		.p2align 4,,15
 154              		.global	chCoreAllocI
 155              		.thumb
 156              		.thumb_func
 157              		.type	chCoreAllocI, %function
 158              	chCoreAllocI:
 159              	.LFB228:
 160              		.loc 1 127 0
 161              		.cfi_startproc
 162              		@ args = 0, pretend = 0, frame = 0
 163              		@ frame_needed = 0, uses_anonymous_args = 0
 164              		@ link register save eliminated.
 165              	.LVL7:
 166 0000 10B4     		push	{r4}
 167              		.cfi_def_cfa_offset 4
 168              		.cfi_offset 4, -4
 169              		.loc 1 133 0
ARM GAS  C:\cygwin\tmp\ccK3yYiy.s 			page 4


 170 0002 084B     		ldr	r3, .L14
 171 0004 084C     		ldr	r4, .L14+4
 172 0006 1968     		ldr	r1, [r3]
 173 0008 2268     		ldr	r2, [r4]
 174              		.loc 1 132 0
 175 000a 0730     		adds	r0, r0, #7
 176              	.LVL8:
 177 000c 20F00703 		bic	r3, r0, #7
 178              	.LVL9:
 179              		.loc 1 133 0
 180 0010 891A     		subs	r1, r1, r2
 181 0012 8B42     		cmp	r3, r1
 182              	.LVL10:
 183              		.loc 1 137 0
 184 0014 9DBF     		ittte	ls
 185 0016 9B18     		addls	r3, r3, r2
 186              	.LVL11:
 187 0018 2360     		strls	r3, [r4]
 188              		.loc 1 139 0
 189 001a 1046     		movls	r0, r2
 190              	.LVL12:
 191              		.loc 1 134 0
 192 001c 0020     		movhi	r0, #0
 193              		.loc 1 140 0
 194 001e 5DF8044B 		ldr	r4, [sp], #4
 195              		.cfi_restore 4
 196              		.cfi_def_cfa_offset 0
 197 0022 7047     		bx	lr
 198              	.L15:
 199              		.align	2
 200              	.L14:
 201 0024 00000000 		.word	.LANCHOR1
 202 0028 00000000 		.word	.LANCHOR0
 203              		.cfi_endproc
 204              	.LFE228:
 205              		.size	chCoreAllocI, .-chCoreAllocI
 206 002c AFF30080 		.section	.text.chCoreGetStatusX,"ax",%progbits
 207              		.align	2
 208              		.p2align 4,,15
 209              		.global	chCoreGetStatusX
 210              		.thumb
 211              		.thumb_func
 212              		.type	chCoreGetStatusX, %function
 213              	chCoreGetStatusX:
 214              	.LFB229:
 215              		.loc 1 149 0
 216              		.cfi_startproc
 217              		@ args = 0, pretend = 0, frame = 0
 218              		@ frame_needed = 0, uses_anonymous_args = 0
 219              		@ link register save eliminated.
 220              		.loc 1 151 0
 221 0000 024A     		ldr	r2, .L17
 222 0002 034B     		ldr	r3, .L17+4
 223 0004 1068     		ldr	r0, [r2]
 224 0006 1B68     		ldr	r3, [r3]
 225              		.loc 1 152 0
 226 0008 C01A     		subs	r0, r0, r3
ARM GAS  C:\cygwin\tmp\ccK3yYiy.s 			page 5


 227 000a 7047     		bx	lr
 228              	.L18:
 229              		.align	2
 230              	.L17:
 231 000c 00000000 		.word	.LANCHOR1
 232 0010 00000000 		.word	.LANCHOR0
 233              		.cfi_endproc
 234              	.LFE229:
 235              		.size	chCoreGetStatusX, .-chCoreGetStatusX
 236 0014 AFF30080 		.section	.bss.endmem,"aw",%nobits
 236      AFF30080 
 236      AFF30080 
 237              		.align	2
 238              		.set	.LANCHOR1,. + 0
 239              		.type	endmem, %object
 240              		.size	endmem, 4
 241              	endmem:
 242 0000 00000000 		.space	4
 243              		.section	.bss.nextmem,"aw",%nobits
 244              		.align	2
 245              		.set	.LANCHOR0,. + 0
 246              		.type	nextmem, %object
 247              		.size	nextmem, 4
 248              	nextmem:
 249 0000 00000000 		.space	4
 250              		.text
 251              	.Letext0:
 252              		.file 3 "c:\\program files\\gnu tools arm embedded\\4.9 2014q4\\lib\\gcc\\arm-none-eabi\\4.9.3\\in
 253              		.file 4 "c:\\program files\\gnu tools arm embedded\\4.9 2014q4\\arm-none-eabi\\include\\machine\\_
 254              		.file 5 "c:\\program files\\gnu tools arm embedded\\4.9 2014q4\\arm-none-eabi\\include\\stdint.h"
 255              		.file 6 "../../../os/rt/ports/ARMCMx/compilers/GCC/chtypes.h"
 256              		.file 7 "../../../os/rt/include/chsystypes.h"
 257              		.file 8 "../../../os/rt/include/chschd.h"
 258              		.file 9 "../../../os/rt/ports/ARMCMx/chcore.h"
 259              		.file 10 "../../../os/rt/ports/ARMCMx/chcore_v7m.h"
 260              		.file 11 "../../../os/rt/include/chtm.h"
 261              		.file 12 "../../../os/rt/include/chmtx.h"
 262              		.file 13 "../../../os/rt/include/chsys.h"
 263              		.file 14 "../../../os/ext/CMSIS/include/core_cm4.h"