ARM GAS  C:\cygwin\tmp\ccw8sNme.s 			page 1


   1              		.syntax unified
   2              		.cpu cortex-m4
   3              		.fpu softvfp
   4              		.eabi_attribute 20, 1
   5              		.eabi_attribute 21, 1
   6              		.eabi_attribute 23, 3
   7              		.eabi_attribute 24, 1
   8              		.eabi_attribute 25, 1
   9              		.eabi_attribute 26, 1
  10              		.eabi_attribute 30, 2
  11              		.eabi_attribute 34, 1
  12              		.eabi_attribute 18, 4
  13              		.thumb
  14              		.file	"chqueues.c"
  15              		.text
  16              	.Ltext0:
  17              		.cfi_sections	.debug_frame
  18              		.section	.text.chIQObjectInit,"ax",%progbits
  19              		.align	2
  20              		.p2align 4,,15
  21              		.global	chIQObjectInit
  22              		.thumb
  23              		.thumb_func
  24              		.type	chIQObjectInit, %function
  25              	chIQObjectInit:
  26              	.LFB226:
  27              		.file 1 "../../../os/rt/src/chqueues.c"
  28              		.loc 1 88 0
  29              		.cfi_startproc
  30              		@ args = 4, pretend = 0, frame = 0
  31              		@ frame_needed = 0, uses_anonymous_args = 0
  32              		@ link register save eliminated.
  33              	.LVL0:
  34 0000 30B4     		push	{r4, r5}
  35              		.cfi_def_cfa_offset 8
  36              		.cfi_offset 4, -8
  37              		.cfi_offset 5, -4
  38              		.loc 1 88 0
  39 0002 029C     		ldr	r4, [sp, #8]
  40              		.loc 1 95 0
  41 0004 0462     		str	r4, [r0, #32]
  42              		.loc 1 91 0
  43 0006 0025     		movs	r5, #0
  44              		.loc 1 93 0
  45 0008 0A44     		add	r2, r2, r1
  46              	.LVL1:
  47              		.loc 1 91 0
  48 000a 8560     		str	r5, [r0, #8]
  49              		.loc 1 93 0
  50 000c 0261     		str	r2, [r0, #16]
  51              	.LBB108:
  52              	.LBB109:
  53              	.LBB110:
  54              		.file 2 "../../../os/rt/include/chschd.h"
  55              		.loc 2 574 0
  56 000e 4060     		str	r0, [r0, #4]
  57 0010 0060     		str	r0, [r0]
ARM GAS  C:\cygwin\tmp\ccw8sNme.s 			page 2


  58              	.LBE110:
  59              	.LBE109:
  60              	.LBE108:
  61              		.loc 1 92 0
  62 0012 4161     		str	r1, [r0, #20]
  63 0014 8161     		str	r1, [r0, #24]
  64 0016 C160     		str	r1, [r0, #12]
  65              		.loc 1 94 0
  66 0018 C361     		str	r3, [r0, #28]
  67              		.loc 1 96 0
  68 001a 30BC     		pop	{r4, r5}
  69              		.cfi_restore 5
  70              		.cfi_restore 4
  71              		.cfi_def_cfa_offset 0
  72              	.LVL2:
  73 001c 7047     		bx	lr
  74              		.cfi_endproc
  75              	.LFE226:
  76              		.size	chIQObjectInit, .-chIQObjectInit
  77 001e 00BF     		.section	.text.chIQResetI,"ax",%progbits
  78              		.align	2
  79              		.p2align 4,,15
  80              		.global	chIQResetI
  81              		.thumb
  82              		.thumb_func
  83              		.type	chIQResetI, %function
  84              	chIQResetI:
  85              	.LFB227:
  86              		.loc 1 109 0
  87              		.cfi_startproc
  88              		@ args = 0, pretend = 0, frame = 0
  89              		@ frame_needed = 0, uses_anonymous_args = 0
  90              		@ link register save eliminated.
  91              	.LVL3:
  92              		.loc 1 114 0
  93 0000 0021     		movs	r1, #0
  94              		.loc 1 113 0
  95 0002 C268     		ldr	r2, [r0, #12]
  96              		.loc 1 114 0
  97 0004 8160     		str	r1, [r0, #8]
  98              		.loc 1 113 0
  99 0006 4261     		str	r2, [r0, #20]
 100 0008 8261     		str	r2, [r0, #24]
 101              		.loc 1 115 0
 102 000a 6FF00101 		mvn	r1, #1
 103 000e FFF7FEBF 		b	chThdDequeueAllI
 104              	.LVL4:
 105              		.cfi_endproc
 106              	.LFE227:
 107              		.size	chIQResetI, .-chIQResetI
 108 0012 00BFAFF3 		.section	.text.chIQPutI,"ax",%progbits
 108      0080AFF3 
 108      0080AFF3 
 108      0080
 109              		.align	2
 110              		.p2align 4,,15
 111              		.global	chIQPutI
ARM GAS  C:\cygwin\tmp\ccw8sNme.s 			page 3


 112              		.thumb
 113              		.thumb_func
 114              		.type	chIQPutI, %function
 115              	chIQPutI:
 116              	.LFB228:
 117              		.loc 1 131 0
 118              		.cfi_startproc
 119              		@ args = 0, pretend = 0, frame = 0
 120              		@ frame_needed = 0, uses_anonymous_args = 0
 121              	.LVL5:
 122              	.LBB111:
 123              	.LBB112:
 124              		.file 3 "../../../os/rt/include/chqueues.h"
 125              		.loc 3 321 0
 126 0000 8369     		ldr	r3, [r0, #24]
 127 0002 4269     		ldr	r2, [r0, #20]
 128 0004 9A42     		cmp	r2, r3
 129              	.LBE112:
 130              	.LBE111:
 131              		.loc 1 131 0
 132 0006 10B5     		push	{r4, lr}
 133              		.cfi_def_cfa_offset 8
 134              		.cfi_offset 4, -8
 135              		.cfi_offset 14, -4
 136              	.LBB115:
 137              	.LBB113:
 138              		.loc 3 321 0
 139 0008 8368     		ldr	r3, [r0, #8]
 140 000a 0FD0     		beq	.L14
 141              	.L7:
 142              	.LBE113:
 143              	.LBE115:
 144              		.loc 1 139 0
 145 000c 0133     		adds	r3, r3, #1
 146              		.loc 1 140 0
 147 000e 541C     		adds	r4, r2, #1
 148              		.loc 1 139 0
 149 0010 8360     		str	r3, [r0, #8]
 150              		.loc 1 140 0
 151 0012 4461     		str	r4, [r0, #20]
 152 0014 1170     		strb	r1, [r2]
 153              		.loc 1 141 0
 154 0016 4269     		ldr	r2, [r0, #20]
 155 0018 0369     		ldr	r3, [r0, #16]
 156 001a 9A42     		cmp	r2, r3
 157 001c 01D3     		bcc	.L9
 158              		.loc 1 142 0
 159 001e C368     		ldr	r3, [r0, #12]
 160 0020 4361     		str	r3, [r0, #20]
 161              	.L9:
 162              		.loc 1 145 0
 163 0022 0021     		movs	r1, #0
 164              	.LVL6:
 165 0024 FFF7FEFF 		bl	chThdDequeueNextI
 166              	.LVL7:
 167              		.loc 1 147 0
 168 0028 0020     		movs	r0, #0
ARM GAS  C:\cygwin\tmp\ccw8sNme.s 			page 4


 169 002a 10BD     		pop	{r4, pc}
 170              	.LVL8:
 171              	.L14:
 172              	.LBB116:
 173              	.LBB114:
 174              		.loc 3 321 0
 175 002c 002B     		cmp	r3, #0
 176 002e EDD0     		beq	.L7
 177              	.LBE114:
 178              	.LBE116:
 179              		.loc 1 136 0
 180 0030 6FF00300 		mvn	r0, #3
 181              	.LVL9:
 182 0034 10BD     		pop	{r4, pc}
 183              		.cfi_endproc
 184              	.LFE228:
 185              		.size	chIQPutI, .-chIQPutI
 186 0036 00BFAFF3 		.section	.text.chIQGetTimeout,"ax",%progbits
 186      0080AFF3 
 186      0080
 187              		.align	2
 188              		.p2align 4,,15
 189              		.global	chIQGetTimeout
 190              		.thumb
 191              		.thumb_func
 192              		.type	chIQGetTimeout, %function
 193              	chIQGetTimeout:
 194              	.LFB229:
 195              		.loc 1 170 0
 196              		.cfi_startproc
 197              		@ args = 0, pretend = 0, frame = 0
 198              		@ frame_needed = 0, uses_anonymous_args = 0
 199              	.LVL10:
 200 0000 70B5     		push	{r4, r5, r6, lr}
 201              		.cfi_def_cfa_offset 16
 202              		.cfi_offset 4, -16
 203              		.cfi_offset 5, -12
 204              		.cfi_offset 6, -8
 205              		.cfi_offset 14, -4
 206              	.LBB117:
 207              	.LBB118:
 208              	.LBB119:
 209              	.LBB120:
 210              		.file 4 "../../../os/ext/CMSIS/include/core_cmFunc.h"
 211              		.loc 4 546 0
 212 0002 2023     		movs	r3, #32
 213              	.LBE120:
 214              	.LBE119:
 215              	.LBE118:
 216              	.LBE117:
 217              		.loc 1 170 0
 218 0004 0E46     		mov	r6, r1
 219 0006 0446     		mov	r4, r0
 220              	.LBB124:
 221              	.LBB123:
 222              	.LBB122:
 223              	.LBB121:
ARM GAS  C:\cygwin\tmp\ccw8sNme.s 			page 5


 224              		.loc 4 546 0
 225              	@ 546 "../../../os/ext/CMSIS/include/core_cmFunc.h" 1
 226 0008 83F31188 		MSR basepri, r3
 227              	@ 0 "" 2
 228              		.thumb
 229              	.LBE121:
 230              	.LBE122:
 231              	.LBE123:
 232              	.LBE124:
 233              		.loc 1 174 0
 234 000c C369     		ldr	r3, [r0, #28]
 235 000e 2BB1     		cbz	r3, .L17
 236              		.loc 1 175 0
 237 0010 9847     		blx	r3
 238              	.LVL11:
 239 0012 03E0     		b	.L17
 240              	.LVL12:
 241              	.L19:
 242              	.LBB125:
 243              		.loc 1 180 0
 244 0014 FFF7FEFF 		bl	chThdEnqueueTimeoutS
 245              	.LVL13:
 246 0018 0028     		cmp	r0, #0
 247 001a 15DB     		blt	.L26
 248              	.LVL14:
 249              	.L17:
 250 001c A568     		ldr	r5, [r4, #8]
 251              	.LVL15:
 252 001e 2046     		mov	r0, r4
 253 0020 3146     		mov	r1, r6
 254              	.LBE125:
 255              		.loc 1 178 0
 256 0022 002D     		cmp	r5, #0
 257 0024 F6D0     		beq	.L19
 258              	.LVL16:
 259              		.loc 1 187 0
 260 0026 A269     		ldr	r2, [r4, #24]
 261              		.loc 1 188 0
 262 0028 2169     		ldr	r1, [r4, #16]
 263              	.LVL17:
 264              		.loc 1 187 0
 265 002a 531C     		adds	r3, r2, #1
 266              		.loc 1 188 0
 267 002c 8B42     		cmp	r3, r1
 268              		.loc 1 186 0
 269 002e 05F1FF35 		add	r5, r5, #-1
 270              		.loc 1 187 0
 271 0032 A361     		str	r3, [r4, #24]
 272              		.loc 1 186 0
 273 0034 A560     		str	r5, [r4, #8]
 274              		.loc 1 189 0
 275 0036 28BF     		it	cs
 276 0038 E368     		ldrcs	r3, [r4, #12]
 277              		.loc 1 187 0
 278 003a 1078     		ldrb	r0, [r2]	@ zero_extendqisi2
 279              	.LVL18:
 280              		.loc 1 189 0
ARM GAS  C:\cygwin\tmp\ccw8sNme.s 			page 6


 281 003c 28BF     		it	cs
 282 003e A361     		strcs	r3, [r4, #24]
 283              	.LVL19:
 284              	.LBB131:
 285              	.LBB132:
 286              	.LBB133:
 287              	.LBB134:
 288              	.LBB135:
 289              		.loc 4 546 0
 290 0040 0023     		movs	r3, #0
 291              	@ 546 "../../../os/ext/CMSIS/include/core_cmFunc.h" 1
 292 0042 83F31188 		MSR basepri, r3
 293              	@ 0 "" 2
 294              		.thumb
 295              	.LBE135:
 296              	.LBE134:
 297              	.LBE133:
 298              	.LBE132:
 299              	.LBE131:
 300              		.loc 1 194 0
 301 0046 70BD     		pop	{r4, r5, r6, pc}
 302              	.LVL20:
 303              	.L26:
 304              	.LBB136:
 305              	.LBB126:
 306              	.LBB127:
 307              	.LBB128:
 308              	.LBB129:
 309              	.LBB130:
 310              		.loc 4 546 0
 311              	@ 546 "../../../os/ext/CMSIS/include/core_cmFunc.h" 1
 312 0048 85F31188 		MSR basepri, r5
 313              	@ 0 "" 2
 314              		.thumb
 315              	.LBE130:
 316              	.LBE129:
 317              	.LBE128:
 318              	.LBE127:
 319              	.LBE126:
 320              		.loc 1 182 0
 321 004c 70BD     		pop	{r4, r5, r6, pc}
 322              	.LBE136:
 323              		.cfi_endproc
 324              	.LFE229:
 325              		.size	chIQGetTimeout, .-chIQGetTimeout
 326 004e 00BF     		.section	.text.chIQReadTimeout,"ax",%progbits
 327              		.align	2
 328              		.p2align 4,,15
 329              		.global	chIQReadTimeout
 330              		.thumb
 331              		.thumb_func
 332              		.type	chIQReadTimeout, %function
 333              	chIQReadTimeout:
 334              	.LFB230:
 335              		.loc 1 221 0
 336              		.cfi_startproc
 337              		@ args = 0, pretend = 0, frame = 8
ARM GAS  C:\cygwin\tmp\ccw8sNme.s 			page 7


 338              		@ frame_needed = 0, uses_anonymous_args = 0
 339              	.LVL21:
 340 0000 2DE9F04F 		push	{r4, r5, r6, r7, r8, r9, r10, fp, lr}
 341              		.cfi_def_cfa_offset 36
 342              		.cfi_offset 4, -36
 343              		.cfi_offset 5, -32
 344              		.cfi_offset 6, -28
 345              		.cfi_offset 7, -24
 346              		.cfi_offset 8, -20
 347              		.cfi_offset 9, -16
 348              		.cfi_offset 10, -12
 349              		.cfi_offset 11, -8
 350              		.cfi_offset 14, -4
 351 0004 0446     		mov	r4, r0
 352 0006 83B0     		sub	sp, sp, #12
 353              		.cfi_def_cfa_offset 48
 354              		.loc 1 221 0
 355 0008 8946     		mov	r9, r1
 356 000a 9346     		mov	fp, r2
 357 000c 1D46     		mov	r5, r3
 358              		.loc 1 222 0
 359 000e D0F81C80 		ldr	r8, [r0, #28]
 360              	.LVL22:
 361              	.LBB137:
 362              	.LBB138:
 363              	.LBB139:
 364              	.LBB140:
 365              		.loc 4 546 0
 366 0012 2027     		movs	r7, #32
 367              	@ 546 "../../../os/ext/CMSIS/include/core_cmFunc.h" 1
 368 0014 87F31188 		MSR basepri, r7
 369              	@ 0 "" 2
 370              		.thumb
 371              	.LBE140:
 372              	.LBE139:
 373              	.LBE138:
 374              	.LBE137:
 375              		.loc 1 223 0
 376 0018 0026     		movs	r6, #0
 377              	.LBB141:
 378              	.LBB142:
 379              	.LBB143:
 380              	.LBB144:
 381              		.loc 4 546 0
 382 001a 0197     		str	r7, [sp, #4]
 383              	.LBE144:
 384              	.LBE143:
 385              	.LBE142:
 386              	.LBE141:
 387              	.LBB148:
 388              	.LBB149:
 389              	.LBB150:
 390              	.LBB151:
 391              	.LBB152:
 392 001c B246     		mov	r10, r6
 393              	.LVL23:
 394              	.L33:
ARM GAS  C:\cygwin\tmp\ccw8sNme.s 			page 8


 395              	.LBE152:
 396              	.LBE151:
 397              	.LBE150:
 398              	.LBE149:
 399              	.LBE148:
 400              		.loc 1 229 0
 401 001e B8F1000F 		cmp	r8, #0
 402 0022 05D0     		beq	.L29
 403              		.loc 1 230 0
 404 0024 2046     		mov	r0, r4
 405              	.LVL24:
 406 0026 C047     		blx	r8
 407              	.LVL25:
 408 0028 02E0     		b	.L29
 409              	.LVL26:
 410              	.L31:
 411              		.loc 1 234 0
 412 002a FFF7FEFF 		bl	chThdEnqueueTimeoutS
 413              	.LVL27:
 414 002e D8B9     		cbnz	r0, .L40
 415              	.LVL28:
 416              	.L29:
 417 0030 A768     		ldr	r7, [r4, #8]
 418              	.LVL29:
 419 0032 2046     		mov	r0, r4
 420 0034 2946     		mov	r1, r5
 421              		.loc 1 233 0
 422 0036 002F     		cmp	r7, #0
 423 0038 F7D0     		beq	.L31
 424              	.LVL30:
 425              		.loc 1 241 0
 426 003a A269     		ldr	r2, [r4, #24]
 427              		.loc 1 240 0
 428 003c 7B1E     		subs	r3, r7, #1
 429              		.loc 1 241 0
 430 003e 511C     		adds	r1, r2, #1
 431              	.LVL31:
 432 0040 A161     		str	r1, [r4, #24]
 433              		.loc 1 240 0
 434 0042 A360     		str	r3, [r4, #8]
 435              		.loc 1 241 0
 436 0044 1378     		ldrb	r3, [r2]	@ zero_extendqisi2
 437 0046 09F8013B 		strb	r3, [r9], #1
 438              	.LVL32:
 439              		.loc 1 242 0
 440 004a 2369     		ldr	r3, [r4, #16]
 441 004c A269     		ldr	r2, [r4, #24]
 442 004e 9A42     		cmp	r2, r3
 443              		.loc 1 243 0
 444 0050 24BF     		itt	cs
 445 0052 E368     		ldrcs	r3, [r4, #12]
 446 0054 A361     		strcs	r3, [r4, #24]
 447              	.LVL33:
 448              	.LBB157:
 449              	.LBB156:
 450              	.LBB155:
 451              	.LBB154:
ARM GAS  C:\cygwin\tmp\ccw8sNme.s 			page 9


 452              	.LBB153:
 453              		.loc 4 546 0
 454              	@ 546 "../../../os/ext/CMSIS/include/core_cmFunc.h" 1
 455 0056 8AF31188 		MSR basepri, r10
 456              	@ 0 "" 2
 457              		.thumb
 458              	.LBE153:
 459              	.LBE154:
 460              	.LBE155:
 461              	.LBE156:
 462              	.LBE157:
 463              		.loc 1 246 0
 464 005a 0136     		adds	r6, r6, #1
 465              	.LVL34:
 466              		.loc 1 247 0
 467 005c B345     		cmp	fp, r6
 468 005e 05D0     		beq	.L30
 469              	.LVL35:
 470              	.LBB158:
 471              	.LBB147:
 472              	.LBB146:
 473              	.LBB145:
 474              		.loc 4 546 0
 475 0060 019B     		ldr	r3, [sp, #4]
 476              	@ 546 "../../../os/ext/CMSIS/include/core_cmFunc.h" 1
 477 0062 83F31188 		MSR basepri, r3
 478              	@ 0 "" 2
 479              		.thumb
 480 0066 DAE7     		b	.L33
 481              	.LVL36:
 482              	.L40:
 483              	.LBE145:
 484              	.LBE146:
 485              	.LBE147:
 486              	.LBE158:
 487              	.LBB159:
 488              	.LBB160:
 489              	.LBB161:
 490              	.LBB162:
 491              	.LBB163:
 492              	@ 546 "../../../os/ext/CMSIS/include/core_cmFunc.h" 1
 493 0068 87F31188 		MSR basepri, r7
 494              	@ 0 "" 2
 495              	.LVL37:
 496              		.thumb
 497              	.L30:
 498              	.LBE163:
 499              	.LBE162:
 500              	.LBE161:
 501              	.LBE160:
 502              	.LBE159:
 503              		.loc 1 253 0
 504 006c 3046     		mov	r0, r6
 505 006e 03B0     		add	sp, sp, #12
 506              		.cfi_def_cfa_offset 36
 507              		@ sp needed
 508 0070 BDE8F08F 		pop	{r4, r5, r6, r7, r8, r9, r10, fp, pc}
ARM GAS  C:\cygwin\tmp\ccw8sNme.s 			page 10


 509              		.cfi_endproc
 510              	.LFE230:
 511              		.size	chIQReadTimeout, .-chIQReadTimeout
 512 0074 AFF30080 		.section	.text.chOQObjectInit,"ax",%progbits
 512      AFF30080 
 512      AFF30080 
 513              		.align	2
 514              		.p2align 4,,15
 515              		.global	chOQObjectInit
 516              		.thumb
 517              		.thumb_func
 518              		.type	chOQObjectInit, %function
 519              	chOQObjectInit:
 520              	.LFB231:
 521              		.loc 1 272 0
 522              		.cfi_startproc
 523              		@ args = 4, pretend = 0, frame = 0
 524              		@ frame_needed = 0, uses_anonymous_args = 0
 525              		@ link register save eliminated.
 526              	.LVL38:
 527 0000 30B4     		push	{r4, r5}
 528              		.cfi_def_cfa_offset 8
 529              		.cfi_offset 4, -8
 530              		.cfi_offset 5, -4
 531              		.loc 1 272 0
 532 0002 029C     		ldr	r4, [sp, #8]
 533              		.loc 1 279 0
 534 0004 0462     		str	r4, [r0, #32]
 535              		.loc 1 277 0
 536 0006 8D18     		adds	r5, r1, r2
 537 0008 0561     		str	r5, [r0, #16]
 538              	.LBB164:
 539              	.LBB165:
 540              	.LBB166:
 541              		.loc 2 574 0
 542 000a 4060     		str	r0, [r0, #4]
 543 000c 0060     		str	r0, [r0]
 544              	.LBE166:
 545              	.LBE165:
 546              	.LBE164:
 547              		.loc 1 275 0
 548 000e 8260     		str	r2, [r0, #8]
 549              		.loc 1 276 0
 550 0010 4161     		str	r1, [r0, #20]
 551 0012 8161     		str	r1, [r0, #24]
 552 0014 C160     		str	r1, [r0, #12]
 553              		.loc 1 278 0
 554 0016 C361     		str	r3, [r0, #28]
 555              		.loc 1 280 0
 556 0018 30BC     		pop	{r4, r5}
 557              		.cfi_restore 5
 558              		.cfi_restore 4
 559              		.cfi_def_cfa_offset 0
 560              	.LVL39:
 561 001a 7047     		bx	lr
 562              		.cfi_endproc
 563              	.LFE231:
ARM GAS  C:\cygwin\tmp\ccw8sNme.s 			page 11


 564              		.size	chOQObjectInit, .-chOQObjectInit
 565 001c AFF30080 		.section	.text.chOQResetI,"ax",%progbits
 566              		.align	2
 567              		.p2align 4,,15
 568              		.global	chOQResetI
 569              		.thumb
 570              		.thumb_func
 571              		.type	chOQResetI, %function
 572              	chOQResetI:
 573              	.LFB232:
 574              		.loc 1 293 0
 575              		.cfi_startproc
 576              		@ args = 0, pretend = 0, frame = 0
 577              		@ frame_needed = 0, uses_anonymous_args = 0
 578              		@ link register save eliminated.
 579              	.LVL40:
 580 0000 10B4     		push	{r4}
 581              		.cfi_def_cfa_offset 4
 582              		.cfi_offset 4, -4
 583              		.loc 1 298 0
 584 0002 0269     		ldr	r2, [r0, #16]
 585              		.loc 1 297 0
 586 0004 C468     		ldr	r4, [r0, #12]
 587 0006 4461     		str	r4, [r0, #20]
 588              		.loc 1 298 0
 589 0008 121B     		subs	r2, r2, r4
 590              		.loc 1 297 0
 591 000a 8461     		str	r4, [r0, #24]
 592              		.loc 1 299 0
 593 000c 6FF00101 		mvn	r1, #1
 594              		.loc 1 298 0
 595 0010 8260     		str	r2, [r0, #8]
 596              		.loc 1 300 0
 597 0012 5DF8044B 		ldr	r4, [sp], #4
 598              		.cfi_restore 4
 599              		.cfi_def_cfa_offset 0
 600              		.loc 1 299 0
 601 0016 FFF7FEBF 		b	chThdDequeueAllI
 602              	.LVL41:
 603              		.cfi_endproc
 604              	.LFE232:
 605              		.size	chOQResetI, .-chOQResetI
 606 001a 00BFAFF3 		.section	.text.chOQPutTimeout,"ax",%progbits
 606      0080
 607              		.align	2
 608              		.p2align 4,,15
 609              		.global	chOQPutTimeout
 610              		.thumb
 611              		.thumb_func
 612              		.type	chOQPutTimeout, %function
 613              	chOQPutTimeout:
 614              	.LFB233:
 615              		.loc 1 324 0
 616              		.cfi_startproc
 617              		@ args = 0, pretend = 0, frame = 0
 618              		@ frame_needed = 0, uses_anonymous_args = 0
 619              	.LVL42:
ARM GAS  C:\cygwin\tmp\ccw8sNme.s 			page 12


 620 0000 F8B5     		push	{r3, r4, r5, r6, r7, lr}
 621              		.cfi_def_cfa_offset 24
 622              		.cfi_offset 3, -24
 623              		.cfi_offset 4, -20
 624              		.cfi_offset 5, -16
 625              		.cfi_offset 6, -12
 626              		.cfi_offset 7, -8
 627              		.cfi_offset 14, -4
 628              		.loc 1 324 0
 629 0002 0446     		mov	r4, r0
 630 0004 0F46     		mov	r7, r1
 631 0006 1646     		mov	r6, r2
 632              	.LBB167:
 633              	.LBB168:
 634              	.LBB169:
 635              	.LBB170:
 636              		.loc 4 546 0
 637 0008 2023     		movs	r3, #32
 638              	@ 546 "../../../os/ext/CMSIS/include/core_cmFunc.h" 1
 639 000a 83F31188 		MSR basepri, r3
 640              	@ 0 "" 2
 641              		.thumb
 642 000e 03E0     		b	.L46
 643              	.LVL43:
 644              	.L48:
 645              	.LBE170:
 646              	.LBE169:
 647              	.LBE168:
 648              	.LBE167:
 649              	.LBB171:
 650              		.loc 1 330 0
 651 0010 FFF7FEFF 		bl	chThdEnqueueTimeoutS
 652              	.LVL44:
 653 0014 0028     		cmp	r0, #0
 654 0016 18DB     		blt	.L56
 655              	.LVL45:
 656              	.L46:
 657 0018 A568     		ldr	r5, [r4, #8]
 658              	.LVL46:
 659 001a 2046     		mov	r0, r4
 660 001c 3146     		mov	r1, r6
 661              	.LBE171:
 662              		.loc 1 327 0
 663 001e 002D     		cmp	r5, #0
 664 0020 F6D0     		beq	.L48
 665              	.LVL47:
 666              		.loc 1 337 0
 667 0022 6369     		ldr	r3, [r4, #20]
 668              		.loc 1 336 0
 669 0024 013D     		subs	r5, r5, #1
 670              		.loc 1 337 0
 671 0026 5A1C     		adds	r2, r3, #1
 672 0028 6261     		str	r2, [r4, #20]
 673              		.loc 1 336 0
 674 002a A560     		str	r5, [r4, #8]
 675              		.loc 1 337 0
 676 002c 1F70     		strb	r7, [r3]
ARM GAS  C:\cygwin\tmp\ccw8sNme.s 			page 13


 677              		.loc 1 338 0
 678 002e 2369     		ldr	r3, [r4, #16]
 679 0030 6269     		ldr	r2, [r4, #20]
 680 0032 9A42     		cmp	r2, r3
 681              		.loc 1 339 0
 682 0034 24BF     		itt	cs
 683 0036 E368     		ldrcs	r3, [r4, #12]
 684 0038 6361     		strcs	r3, [r4, #20]
 685              		.loc 1 342 0
 686 003a E369     		ldr	r3, [r4, #28]
 687 003c 0BB1     		cbz	r3, .L50
 688              		.loc 1 343 0
 689 003e 2046     		mov	r0, r4
 690              	.LVL48:
 691 0040 9847     		blx	r3
 692              	.LVL49:
 693              	.L50:
 694              	.LBB177:
 695              	.LBB178:
 696              	.LBB179:
 697              	.LBB180:
 698              	.LBB181:
 699              		.loc 4 546 0
 700 0042 0020     		movs	r0, #0
 701              	@ 546 "../../../os/ext/CMSIS/include/core_cmFunc.h" 1
 702 0044 80F31188 		MSR basepri, r0
 703              	@ 0 "" 2
 704              		.thumb
 705              	.LBE181:
 706              	.LBE180:
 707              	.LBE179:
 708              	.LBE178:
 709              	.LBE177:
 710              		.loc 1 348 0
 711 0048 F8BD     		pop	{r3, r4, r5, r6, r7, pc}
 712              	.LVL50:
 713              	.L56:
 714              	.LBB182:
 715              	.LBB172:
 716              	.LBB173:
 717              	.LBB174:
 718              	.LBB175:
 719              	.LBB176:
 720              		.loc 4 546 0
 721              	@ 546 "../../../os/ext/CMSIS/include/core_cmFunc.h" 1
 722 004a 85F31188 		MSR basepri, r5
 723              	@ 0 "" 2
 724              		.thumb
 725              	.LBE176:
 726              	.LBE175:
 727              	.LBE174:
 728              	.LBE173:
 729              	.LBE172:
 730              		.loc 1 332 0
 731 004e F8BD     		pop	{r3, r4, r5, r6, r7, pc}
 732              	.LBE182:
 733              		.cfi_endproc
ARM GAS  C:\cygwin\tmp\ccw8sNme.s 			page 14


 734              	.LFE233:
 735              		.size	chOQPutTimeout, .-chOQPutTimeout
 736              		.section	.text.chOQGetI,"ax",%progbits
 737              		.align	2
 738              		.p2align 4,,15
 739              		.global	chOQGetI
 740              		.thumb
 741              		.thumb_func
 742              		.type	chOQGetI, %function
 743              	chOQGetI:
 744              	.LFB234:
 745              		.loc 1 360 0
 746              		.cfi_startproc
 747              		@ args = 0, pretend = 0, frame = 0
 748              		@ frame_needed = 0, uses_anonymous_args = 0
 749              	.LVL51:
 750 0000 38B5     		push	{r3, r4, r5, lr}
 751              		.cfi_def_cfa_offset 16
 752              		.cfi_offset 3, -16
 753              		.cfi_offset 4, -12
 754              		.cfi_offset 5, -8
 755              		.cfi_offset 14, -4
 756              	.LBB183:
 757              	.LBB184:
 758              		.loc 3 387 0
 759 0002 8269     		ldr	r2, [r0, #24]
 760 0004 4369     		ldr	r3, [r0, #20]
 761 0006 9342     		cmp	r3, r2
 762 0008 8368     		ldr	r3, [r0, #8]
 763 000a 0ED0     		beq	.L66
 764              	.L60:
 765              	.LBE184:
 766              	.LBE183:
 767              		.loc 1 371 0
 768 000c 0569     		ldr	r5, [r0, #16]
 769              		.loc 1 370 0
 770 000e 511C     		adds	r1, r2, #1
 771              		.loc 1 369 0
 772 0010 0133     		adds	r3, r3, #1
 773 0012 8360     		str	r3, [r0, #8]
 774              		.loc 1 370 0
 775 0014 8161     		str	r1, [r0, #24]
 776              		.loc 1 371 0
 777 0016 A942     		cmp	r1, r5
 778              		.loc 1 370 0
 779 0018 1478     		ldrb	r4, [r2]	@ zero_extendqisi2
 780              	.LVL52:
 781              		.loc 1 371 0
 782 001a 01D3     		bcc	.L62
 783              		.loc 1 372 0
 784 001c C368     		ldr	r3, [r0, #12]
 785 001e 8361     		str	r3, [r0, #24]
 786              	.L62:
 787              		.loc 1 375 0
 788 0020 0021     		movs	r1, #0
 789 0022 FFF7FEFF 		bl	chThdDequeueNextI
 790              	.LVL53:
ARM GAS  C:\cygwin\tmp\ccw8sNme.s 			page 15


 791              		.loc 1 377 0
 792 0026 2046     		mov	r0, r4
 793 0028 38BD     		pop	{r3, r4, r5, pc}
 794              	.LVL54:
 795              	.L66:
 796              	.LBB186:
 797              	.LBB185:
 798              		.loc 3 387 0
 799 002a 002B     		cmp	r3, #0
 800 002c EED0     		beq	.L60
 801              	.LBE185:
 802              	.LBE186:
 803              		.loc 1 366 0
 804 002e 6FF00200 		mvn	r0, #2
 805              	.LVL55:
 806 0032 38BD     		pop	{r3, r4, r5, pc}
 807              		.cfi_endproc
 808              	.LFE234:
 809              		.size	chOQGetI, .-chOQGetI
 810 0034 AFF30080 		.section	.text.chOQWriteTimeout,"ax",%progbits
 810      AFF30080 
 810      AFF30080 
 811              		.align	2
 812              		.p2align 4,,15
 813              		.global	chOQWriteTimeout
 814              		.thumb
 815              		.thumb_func
 816              		.type	chOQWriteTimeout, %function
 817              	chOQWriteTimeout:
 818              	.LFB235:
 819              		.loc 1 405 0
 820              		.cfi_startproc
 821              		@ args = 0, pretend = 0, frame = 8
 822              		@ frame_needed = 0, uses_anonymous_args = 0
 823              	.LVL56:
 824 0000 2DE9F04F 		push	{r4, r5, r6, r7, r8, r9, r10, fp, lr}
 825              		.cfi_def_cfa_offset 36
 826              		.cfi_offset 4, -36
 827              		.cfi_offset 5, -32
 828              		.cfi_offset 6, -28
 829              		.cfi_offset 7, -24
 830              		.cfi_offset 8, -20
 831              		.cfi_offset 9, -16
 832              		.cfi_offset 10, -12
 833              		.cfi_offset 11, -8
 834              		.cfi_offset 14, -4
 835 0004 83B0     		sub	sp, sp, #12
 836              		.cfi_def_cfa_offset 48
 837              		.loc 1 405 0
 838 0006 0446     		mov	r4, r0
 839 0008 8B46     		mov	fp, r1
 840 000a 1646     		mov	r6, r2
 841 000c 0193     		str	r3, [sp, #4]
 842              		.loc 1 406 0
 843 000e D0F81C80 		ldr	r8, [r0, #28]
 844              	.LVL57:
 845              	.LBB187:
ARM GAS  C:\cygwin\tmp\ccw8sNme.s 			page 16


 846              	.LBB188:
 847              	.LBB189:
 848              	.LBB190:
 849              		.loc 4 546 0
 850 0012 4FF02009 		mov	r9, #32
 851              	@ 546 "../../../os/ext/CMSIS/include/core_cmFunc.h" 1
 852 0016 89F31188 		MSR basepri, r9
 853              	@ 0 "" 2
 854              		.thumb
 855              	.LBE190:
 856              	.LBE189:
 857              	.LBE188:
 858              	.LBE187:
 859              		.loc 1 407 0
 860 001a 0027     		movs	r7, #0
 861              	.LBB191:
 862              	.LBB192:
 863              	.LBB193:
 864              	.LBB194:
 865              		.loc 4 546 0
 866 001c CDF80090 		str	r9, [sp]
 867              	.LBE194:
 868              	.LBE193:
 869              	.LBE192:
 870              	.LBE191:
 871              	.LBB198:
 872              	.LBB199:
 873              	.LBB200:
 874              	.LBB201:
 875              	.LBB202:
 876 0020 BA46     		mov	r10, r7
 877              	.LVL58:
 878              	.L68:
 879 0022 A568     		ldr	r5, [r4, #8]
 880              	.LVL59:
 881              	.LBE202:
 882              	.LBE201:
 883              	.LBE200:
 884              	.LBE199:
 885              	.LBE198:
 886              		.loc 1 420 0
 887 0024 0BF10109 		add	r9, fp, #1
 888              	.LVL60:
 889              		.loc 1 419 0
 890 0028 6A1E     		subs	r2, r5, #1
 891              		.loc 1 426 0
 892 002a 2046     		mov	r0, r4
 893              		.loc 1 413 0
 894 002c 0DB3     		cbz	r5, .L71
 895              	.LVL61:
 896              	.L84:
 897              		.loc 1 420 0
 898 002e 6369     		ldr	r3, [r4, #20]
 899              		.loc 1 419 0
 900 0030 A260     		str	r2, [r4, #8]
 901              		.loc 1 420 0
 902 0032 5A1C     		adds	r2, r3, #1
ARM GAS  C:\cygwin\tmp\ccw8sNme.s 			page 17


 903 0034 6261     		str	r2, [r4, #20]
 904 0036 9BF80020 		ldrb	r2, [fp]	@ zero_extendqisi2
 905 003a 1A70     		strb	r2, [r3]
 906              		.loc 1 421 0
 907 003c 2369     		ldr	r3, [r4, #16]
 908 003e 6269     		ldr	r2, [r4, #20]
 909 0040 9A42     		cmp	r2, r3
 910              		.loc 1 422 0
 911 0042 24BF     		itt	cs
 912 0044 E368     		ldrcs	r3, [r4, #12]
 913 0046 6361     		strcs	r3, [r4, #20]
 914              		.loc 1 425 0
 915 0048 B8F1000F 		cmp	r8, #0
 916 004c 00D0     		beq	.L73
 917              		.loc 1 426 0
 918 004e C047     		blx	r8
 919              	.LVL62:
 920              	.L73:
 921              	.LBB207:
 922              	.LBB206:
 923              	.LBB205:
 924              	.LBB204:
 925              	.LBB203:
 926              		.loc 4 546 0
 927              	@ 546 "../../../os/ext/CMSIS/include/core_cmFunc.h" 1
 928 0050 8AF31188 		MSR basepri, r10
 929              	@ 0 "" 2
 930              	.LVL63:
 931              		.thumb
 932              	.LBE203:
 933              	.LBE204:
 934              	.LBE205:
 935              	.LBE206:
 936              	.LBE207:
 937              		.loc 1 431 0
 938 0054 013E     		subs	r6, r6, #1
 939              	.LVL64:
 940              		.loc 1 430 0
 941 0056 07F10107 		add	r7, r7, #1
 942              	.LVL65:
 943              		.loc 1 431 0
 944 005a 12D0     		beq	.L70
 945              	.LBB208:
 946              	.LBB197:
 947              	.LBB196:
 948              	.LBB195:
 949              		.loc 4 546 0
 950 005c 009B     		ldr	r3, [sp]
 951              	@ 546 "../../../os/ext/CMSIS/include/core_cmFunc.h" 1
 952 005e 83F31188 		MSR basepri, r3
 953              	@ 0 "" 2
 954              		.thumb
 955 0062 A568     		ldr	r5, [r4, #8]
 956              	.LBE195:
 957              	.LBE196:
 958              	.LBE197:
 959              	.LBE208:
ARM GAS  C:\cygwin\tmp\ccw8sNme.s 			page 18


 960              		.loc 1 420 0
 961 0064 CB46     		mov	fp, r9
 962              	.LVL66:
 963              		.loc 1 419 0
 964 0066 6A1E     		subs	r2, r5, #1
 965              		.loc 1 420 0
 966 0068 0BF10109 		add	r9, fp, #1
 967              	.LVL67:
 968              		.loc 1 426 0
 969 006c 2046     		mov	r0, r4
 970              		.loc 1 413 0
 971 006e 002D     		cmp	r5, #0
 972 0070 DDD1     		bne	.L84
 973              	.LVL68:
 974              	.L71:
 975              		.loc 1 414 0
 976 0072 2046     		mov	r0, r4
 977              	.LVL69:
 978 0074 0199     		ldr	r1, [sp, #4]
 979 0076 FFF7FEFF 		bl	chThdEnqueueTimeoutS
 980              	.LVL70:
 981 007a 0028     		cmp	r0, #0
 982 007c D1D0     		beq	.L68
 983              	.LVL71:
 984              	.LBB209:
 985              	.LBB210:
 986              	.LBB211:
 987              	.LBB212:
 988              	.LBB213:
 989              		.loc 4 546 0
 990              	@ 546 "../../../os/ext/CMSIS/include/core_cmFunc.h" 1
 991 007e 85F31188 		MSR basepri, r5
 992              	@ 0 "" 2
 993              	.LVL72:
 994              		.thumb
 995              	.L70:
 996              	.LBE213:
 997              	.LBE212:
 998              	.LBE211:
 999              	.LBE210:
 1000              	.LBE209:
 1001              		.loc 1 436 0
 1002 0082 3846     		mov	r0, r7
 1003 0084 03B0     		add	sp, sp, #12
 1004              		.cfi_def_cfa_offset 36
 1005              		@ sp needed
 1006 0086 BDE8F08F 		pop	{r4, r5, r6, r7, r8, r9, r10, fp, pc}
 1007              		.cfi_endproc
 1008              	.LFE235:
 1009              		.size	chOQWriteTimeout, .-chOQWriteTimeout
 1010 008a 00BFAFF3 		.text
 1010      0080
 1011              	.Letext0:
 1012              		.file 5 "c:\\program files\\gnu tools arm embedded\\4.9 2014q4\\lib\\gcc\\arm-none-eabi\\4.9.3\\in
 1013              		.file 6 "c:\\program files\\gnu tools arm embedded\\4.9 2014q4\\arm-none-eabi\\include\\machine\\_
 1014              		.file 7 "c:\\program files\\gnu tools arm embedded\\4.9 2014q4\\arm-none-eabi\\include\\stdint.h"
 1015              		.file 8 "../../../os/rt/ports/ARMCMx/compilers/GCC/chtypes.h"
ARM GAS  C:\cygwin\tmp\ccw8sNme.s 			page 19


 1016              		.file 9 "../../../os/rt/include/chsystypes.h"
 1017              		.file 10 "../../../os/rt/ports/ARMCMx/chcore.h"
 1018              		.file 11 "../../../os/rt/ports/ARMCMx/chcore_v7m.h"
 1019              		.file 12 "../../../os/rt/include/chtm.h"
 1020              		.file 13 "../../../os/rt/include/chmtx.h"
 1021              		.file 14 "../../../os/rt/include/chthreads.h"
 1022              		.file 15 "../../../os/rt/include/chsys.h"
 1023              		.file 16 "../../../os/ext/CMSIS/include/core_cm4.h"