ARM GAS  C:\cygwin\tmp\ccJQ5vtq.s 			page 1


   1              		.syntax unified
   2              		.cpu cortex-m4
   3              		.fpu softvfp
   4              		.eabi_attribute 20, 1
   5              		.eabi_attribute 21, 1
   6              		.eabi_attribute 23, 3
   7              		.eabi_attribute 24, 1
   8              		.eabi_attribute 25, 1
   9              		.eabi_attribute 26, 1
  10              		.eabi_attribute 30, 2
  11              		.eabi_attribute 34, 1
  12              		.eabi_attribute 18, 4
  13              		.thumb
  14              		.file	"hal.c"
  15              		.text
  16              	.Ltext0:
  17              		.cfi_sections	.debug_frame
  18              		.section	.text.chprintf.constprop.0,"ax",%progbits
  19              		.align	2
  20              		.p2align 4,,15
  21              		.thumb
  22              		.thumb_func
  23              		.type	chprintf.constprop.0, %function
  24              	chprintf.constprop.0:
  25              	.LFB257:
  26              		.file 1 "../../../os/hal/lib/streams/chprintf.h"
  27              		.loc 1 69 0
  28              		.cfi_startproc
  29              		@ args = 4, pretend = 12, frame = 8
  30              		@ frame_needed = 0, uses_anonymous_args = 1
  31              	.LVL0:
  32 0000 0EB4     		push	{r1, r2, r3}
  33              		.cfi_def_cfa_offset 12
  34              		.cfi_offset 1, -12
  35              		.cfi_offset 2, -8
  36              		.cfi_offset 3, -4
  37 0002 00B5     		push	{lr}
  38              		.cfi_def_cfa_offset 16
  39              		.cfi_offset 14, -16
  40 0004 82B0     		sub	sp, sp, #8
  41              		.cfi_def_cfa_offset 24
  42              		.loc 1 73 0
  43 0006 04AB     		add	r3, sp, #16
  44              		.loc 1 74 0
  45 0008 1A46     		mov	r2, r3
  46 000a 0549     		ldr	r1, .L3
  47 000c 0548     		ldr	r0, .L3+4
  48              	.LVL1:
  49              		.loc 1 73 0
  50 000e 0193     		str	r3, [sp, #4]
  51              		.loc 1 74 0
  52 0010 FFF7FEFF 		bl	chvprintf
  53              	.LVL2:
  54              		.loc 1 78 0
  55 0014 02B0     		add	sp, sp, #8
  56              		.cfi_def_cfa_offset 16
  57              		@ sp needed
ARM GAS  C:\cygwin\tmp\ccJQ5vtq.s 			page 2


  58 0016 5DF804EB 		ldr	lr, [sp], #4
  59              		.cfi_restore 14
  60              		.cfi_def_cfa_offset 12
  61 001a 03B0     		add	sp, sp, #12
  62              		.cfi_restore 3
  63              		.cfi_restore 2
  64              		.cfi_restore 1
  65              		.cfi_def_cfa_offset 0
  66 001c 7047     		bx	lr
  67              	.L4:
  68 001e 00BF     		.align	2
  69              	.L3:
  70 0020 00000000 		.word	.LC0
  71 0024 00000000 		.word	itm_port
  72              		.cfi_endproc
  73              	.LFE257:
  74              		.size	chprintf.constprop.0, .-chprintf.constprop.0
  75 0028 AFF30080 		.section	.text.halInit,"ax",%progbits
  75      AFF30080 
  76              		.align	2
  77              		.p2align 4,,15
  78              		.global	halInit
  79              		.thumb
  80              		.thumb_func
  81              		.type	halInit, %function
  82              	halInit:
  83              	.LFB256:
  84              		.file 2 "../../../os/hal/src/hal.c"
  85              		.loc 2 63 0
  86              		.cfi_startproc
  87              		@ args = 0, pretend = 0, frame = 0
  88              		@ frame_needed = 0, uses_anonymous_args = 0
  89 0000 38B5     		push	{r3, r4, r5, lr}
  90              		.cfi_def_cfa_offset 16
  91              		.cfi_offset 3, -16
  92              		.cfi_offset 4, -12
  93              		.cfi_offset 5, -8
  94              		.cfi_offset 14, -4
  95              		.loc 2 71 0
  96 0002 0C4D     		ldr	r5, .L7
  97 0004 0C4C     		ldr	r4, .L7+4
  98              		.loc 2 69 0
  99 0006 FFF7FEFF 		bl	hal_lld_init
 100              	.LVL3:
 101              		.loc 2 71 0
 102 000a 2146     		mov	r1, r4
 103 000c 0B4A     		ldr	r2, .L7+8
 104 000e 2846     		mov	r0, r5
 105 0010 FFF7FEFF 		bl	chprintf.constprop.0
 106              	.LVL4:
 107              		.loc 2 74 0
 108 0014 0A48     		ldr	r0, .L7+12
 109 0016 FFF7FEFF 		bl	_pal_lld_init
 110              	.LVL5:
 111              		.loc 2 75 0
 112 001a 2146     		mov	r1, r4
 113 001c 094A     		ldr	r2, .L7+16
ARM GAS  C:\cygwin\tmp\ccJQ5vtq.s 			page 3


 114 001e 2846     		mov	r0, r5
 115 0020 FFF7FEFF 		bl	chprintf.constprop.0
 116              	.LVL6:
 117              		.loc 2 106 0
 118 0024 FFF7FEFF 		bl	sdInit
 119              	.LVL7:
 120              		.loc 2 136 0
 121 0028 FFF7FEFF 		bl	boardInit
 122              	.LVL8:
 123              		.loc 2 145 0
 124 002c BDE83840 		pop	{r3, r4, r5, lr}
 125              		.cfi_restore 14
 126              		.cfi_restore 5
 127              		.cfi_restore 4
 128              		.cfi_restore 3
 129              		.cfi_def_cfa_offset 0
 130              		.loc 2 143 0
 131 0030 FFF7FEBF 		b	stInit
 132              	.LVL9:
 133              	.L8:
 134              		.align	2
 135              	.L7:
 136 0034 00000000 		.word	itm_port
 137 0038 00000000 		.word	.LC0
 138 003c 04000000 		.word	.LC1
 139 0040 00000000 		.word	pal_default_config
 140 0044 14000000 		.word	.LC2
 141              		.cfi_endproc
 142              	.LFE256:
 143              		.size	halInit, .-halInit
 144 0048 AFF30080 		.section	.rodata.str1.4,"aMS",%progbits,1
 144      AFF30080 
 145              		.align	2
 146              	.LC0:
 147 0000 25730A00 		.ascii	"%s\012\000"
 148              	.LC1:
 149 0004 68616C5F 		.ascii	"hal_lld_init\000"
 149      6C6C645F 
 149      696E6974 
 149      00
 150 0011 000000   		.space	3
 151              	.LC2:
 152 0014 70616C49 		.ascii	"palInit\000"
 152      6E697400 
 153              		.text
 154              	.Letext0:
 155              		.file 3 "c:\\program files\\gnu tools arm embedded\\4.9 2014q4\\lib\\gcc\\arm-none-eabi\\4.9.3\\in
 156              		.file 4 "c:\\program files\\gnu tools arm embedded\\4.9 2014q4\\arm-none-eabi\\include\\machine\\_
 157              		.file 5 "c:\\program files\\gnu tools arm embedded\\4.9 2014q4\\arm-none-eabi\\include\\stdint.h"
 158              		.file 6 "../../../os/rt/ports/ARMCMx/compilers/GCC/chtypes.h"
 159              		.file 7 "../../../os/rt/include/chsystypes.h"
 160              		.file 8 "../../../os/rt/include/chschd.h"
 161              		.file 9 "../../../os/rt/ports/ARMCMx/chcore.h"
 162              		.file 10 "../../../os/rt/ports/ARMCMx/chcore_v7m.h"
 163              		.file 11 "../../../os/rt/include/chtm.h"
 164              		.file 12 "../../../os/rt/include/chmtx.h"
 165              		.file 13 "../../../os/rt/include/chstreams.h"
ARM GAS  C:\cygwin\tmp\ccJQ5vtq.s 			page 4


 166              		.file 14 "../../../os/hal/ports/STM32/LLD/GPIOv2/pal_lld.h"
 167              		.file 15 "./ITM_trace.h"
 168              		.file 16 "c:\\program files\\gnu tools arm embedded\\4.9 2014q4\\lib\\gcc\\arm-none-eabi\\4.9.3\\i
 169              		.file 17 "<built-in>"
 170              		.file 18 "../../../os/ext/CMSIS/include/core_cm4.h"
 171              		.file 19 "../../../os/hal/ports/STM32/STM32F4xx/hal_lld.h"
 172              		.file 20 "../../../os/hal/include/serial.h"
 173              		.file 21 "../../../os/hal/boards/ST_NUCLEO_F401RE/board.h"
 174              		.file 22 "../../../os/hal/include/st.h"
 175              		.file 23 "../../../os/hal/osal/rt/osal.h"