ARM GAS  C:\cygwin\tmp\ccqhWB2v.s 			page 1


   1              		.syntax unified
   2              		.cpu cortex-m4
   3              		.fpu softvfp
   4              		.eabi_attribute 20, 1
   5              		.eabi_attribute 21, 1
   6              		.eabi_attribute 23, 3
   7              		.eabi_attribute 24, 1
   8              		.eabi_attribute 25, 1
   9              		.eabi_attribute 26, 1
  10              		.eabi_attribute 30, 2
  11              		.eabi_attribute 34, 1
  12              		.eabi_attribute 18, 4
  13              		.thumb
  14              		.file	"ITM_trace.c"
  15              		.text
  16              	.Ltext0:
  17              		.cfi_sections	.debug_frame
  18              		.section	.text.get,"ax",%progbits
  19              		.align	2
  20              		.p2align 4,,15
  21              		.thumb
  22              		.thumb_func
  23              		.type	get, %function
  24              	get:
  25              	.LFB256:
  26              		.file 1 "ITM_trace.c"
  27              		.loc 1 48 0
  28              		.cfi_startproc
  29              		@ args = 0, pretend = 0, frame = 0
  30              		@ frame_needed = 0, uses_anonymous_args = 0
  31              		@ link register save eliminated.
  32              	.LVL0:
  33              		.loc 1 53 0
  34 0000 0420     		movs	r0, #4
  35              	.LVL1:
  36 0002 7047     		bx	lr
  37              		.cfi_endproc
  38              	.LFE256:
  39              		.size	get, .-get
  40 0004 AFF30080 		.section	.text.reads,"ax",%progbits
  40      AFF30080 
  40      AFF30080 
  41              		.align	2
  42              		.p2align 4,,15
  43              		.thumb
  44              		.thumb_func
  45              		.type	reads, %function
  46              	reads:
  47              	.LFB258:
  48              		.loc 1 67 0
  49              		.cfi_startproc
  50              		@ args = 0, pretend = 0, frame = 0
  51              		@ frame_needed = 0, uses_anonymous_args = 0
  52              		@ link register save eliminated.
  53              	.LVL2:
  54              		.loc 1 74 0
  55 0000 0020     		movs	r0, #0
ARM GAS  C:\cygwin\tmp\ccqhWB2v.s 			page 2


  56              	.LVL3:
  57 0002 7047     		bx	lr
  58              		.cfi_endproc
  59              	.LFE258:
  60              		.size	reads, .-reads
  61 0004 AFF30080 		.section	.text.put,"ax",%progbits
  61      AFF30080 
  61      AFF30080 
  62              		.align	2
  63              		.p2align 4,,15
  64              		.thumb
  65              		.thumb_func
  66              		.type	put, %function
  67              	put:
  68              	.LFB255:
  69              		.loc 1 39 0
  70              		.cfi_startproc
  71              		@ args = 0, pretend = 0, frame = 0
  72              		@ frame_needed = 0, uses_anonymous_args = 0
  73              	.LVL4:
  74 0000 08B5     		push	{r3, lr}
  75              		.cfi_def_cfa_offset 8
  76              		.cfi_offset 3, -8
  77              		.cfi_offset 14, -4
  78              		.loc 1 43 0
  79 0002 0846     		mov	r0, r1
  80              	.LVL5:
  81 0004 FFF7FEFF 		bl	Debug_ITMDebugOutputChar
  82              	.LVL6:
  83              		.loc 1 46 0
  84 0008 0020     		movs	r0, #0
  85 000a 08BD     		pop	{r3, pc}
  86              		.cfi_endproc
  87              	.LFE255:
  88              		.size	put, .-put
  89 000c AFF30080 		.section	.text.writes,"ax",%progbits
  90              		.align	2
  91              		.p2align 4,,15
  92              		.thumb
  93              		.thumb_func
  94              		.type	writes, %function
  95              	writes:
  96              	.LFB257:
  97              		.loc 1 55 0
  98              		.cfi_startproc
  99              		@ args = 0, pretend = 0, frame = 0
 100              		@ frame_needed = 0, uses_anonymous_args = 0
 101              	.LVL7:
 102 0000 70B5     		push	{r4, r5, r6, lr}
 103              		.cfi_def_cfa_offset 16
 104              		.cfi_offset 4, -16
 105              		.cfi_offset 5, -12
 106              		.cfi_offset 6, -8
 107              		.cfi_offset 14, -4
 108              		.loc 1 58 0
 109 0002 1646     		mov	r6, r2
 110 0004 3AB1     		cbz	r2, .L10
ARM GAS  C:\cygwin\tmp\ccqhWB2v.s 			page 3


 111 0006 0D46     		mov	r5, r1
 112              	.LVL8:
 113 0008 1446     		mov	r4, r2
 114              	.LVL9:
 115              	.L7:
 116              	.LBB4:
 117              	.LBB5:
 118              		.loc 1 43 0
 119 000a 15F8010B 		ldrb	r0, [r5], #1	@ zero_extendqisi2
 120              	.LVL10:
 121 000e FFF7FEFF 		bl	Debug_ITMDebugOutputChar
 122              	.LVL11:
 123              	.LBE5:
 124              	.LBE4:
 125              		.loc 1 58 0
 126 0012 013C     		subs	r4, r4, #1
 127              	.LVL12:
 128 0014 F9D1     		bne	.L7
 129              	.LVL13:
 130              	.L10:
 131              		.loc 1 65 0
 132 0016 3046     		mov	r0, r6
 133 0018 70BD     		pop	{r4, r5, r6, pc}
 134              		.cfi_endproc
 135              	.LFE257:
 136              		.size	writes, .-writes
 137 001a 00BFAFF3 		.section	.text.itmObjectInit,"ax",%progbits
 137      0080
 138              		.align	2
 139              		.p2align 4,,15
 140              		.global	itmObjectInit
 141              		.thumb
 142              		.thumb_func
 143              		.type	itmObjectInit, %function
 144              	itmObjectInit:
 145              	.LFB259:
 146              		.loc 1 87 0
 147              		.cfi_startproc
 148              		@ args = 0, pretend = 0, frame = 0
 149              		@ frame_needed = 0, uses_anonymous_args = 0
 150              		@ link register save eliminated.
 151              	.LVL14:
 152              		.loc 1 88 0
 153 0000 014B     		ldr	r3, .L14
 154 0002 0360     		str	r3, [r0]
 155 0004 7047     		bx	lr
 156              	.L15:
 157 0006 00BF     		.align	2
 158              	.L14:
 159 0008 00000000 		.word	.LANCHOR0
 160              		.cfi_endproc
 161              	.LFE259:
 162              		.size	itmObjectInit, .-itmObjectInit
 163 000c AFF30080 		.section	.rodata.vmt,"a",%progbits
 164              		.align	2
 165              		.set	.LANCHOR0,. + 0
 166              		.type	vmt, %object
ARM GAS  C:\cygwin\tmp\ccqhWB2v.s 			page 4


 167              		.size	vmt, 16
 168              	vmt:
 169 0000 00000000 		.word	writes
 170 0004 00000000 		.word	reads
 171 0008 00000000 		.word	put
 172 000c 00000000 		.word	get
 173              		.text
 174              	.Letext0:
 175              		.file 2 "c:\\program files\\gnu tools arm embedded\\4.9 2014q4\\lib\\gcc\\arm-none-eabi\\4.9.3\\in
 176              		.file 3 "c:\\program files\\gnu tools arm embedded\\4.9 2014q4\\arm-none-eabi\\include\\machine\\_
 177              		.file 4 "c:\\program files\\gnu tools arm embedded\\4.9 2014q4\\arm-none-eabi\\include\\stdint.h"
 178              		.file 5 "../../../os/rt/ports/ARMCMx/compilers/GCC/chtypes.h"
 179              		.file 6 "../../../os/rt/include/chsystypes.h"
 180              		.file 7 "../../../os/rt/include/chschd.h"
 181              		.file 8 "../../../os/rt/ports/ARMCMx/chcore.h"
 182              		.file 9 "../../../os/rt/ports/ARMCMx/chcore_v7m.h"
 183              		.file 10 "../../../os/rt/include/chtm.h"
 184              		.file 11 "../../../os/rt/include/chmtx.h"
 185              		.file 12 "ITM_trace.h"
 186              		.file 13 "../../../os/ext/CMSIS/include/core_cm4.h"
 187              		.section	.debug_info,"",%progbits
 188              	.Ldebug_info0:
 189 0000 39080000 		.4byte	0x839
 190 0004 0400     		.2byte	0x4
 191 0006 00000000 		.4byte	.Ldebug_abbrev0
 192 000a 04       		.byte	0x4
 193 000b 01       		.uleb128 0x1
 194 000c DD010000 		.4byte	.LASF103
 195 0010 01       		.byte	0x1
 196 0011 16050000 		.4byte	.LASF104
 197 0015 3A030000 		.4byte	.LASF105
 198 0019 00000000 		.4byte	.Ldebug_ranges0+0
 199 001d 00000000 		.4byte	0
 200 0021 00000000 		.4byte	.Ldebug_line0
 201 0025 02       		.uleb128 0x2
 202 0026 04       		.byte	0x4
 203 0027 05       		.byte	0x5
 204 0028 696E7400 		.ascii	"int\000"
 205 002c 03       		.uleb128 0x3
 206 002d 15000000 		.4byte	.LASF2
 207 0031 02       		.byte	0x2
 208 0032 D4       		.byte	0xd4
 209 0033 37000000 		.4byte	0x37
 210 0037 04       		.uleb128 0x4
 211 0038 04       		.byte	0x4
 212 0039 07       		.byte	0x7
 213 003a 5B010000 		.4byte	.LASF0
 214 003e 04       		.uleb128 0x4
 215 003f 01       		.byte	0x1
 216 0040 06       		.byte	0x6
 217 0041 E4000000 		.4byte	.LASF1
 218 0045 03       		.uleb128 0x3
 219 0046 45000000 		.4byte	.LASF3
 220 004a 03       		.byte	0x3
 221 004b 1D       		.byte	0x1d
 222 004c 50000000 		.4byte	0x50
 223 0050 04       		.uleb128 0x4
ARM GAS  C:\cygwin\tmp\ccqhWB2v.s 			page 5


 224 0051 01       		.byte	0x1
 225 0052 08       		.byte	0x8
 226 0053 CE030000 		.4byte	.LASF4
 227 0057 04       		.uleb128 0x4
 228 0058 02       		.byte	0x2
 229 0059 05       		.byte	0x5
 230 005a EE030000 		.4byte	.LASF5
 231 005e 04       		.uleb128 0x4
 232 005f 02       		.byte	0x2
 233 0060 07       		.byte	0x7
 234 0061 7B010000 		.4byte	.LASF6
 235 0065 03       		.uleb128 0x3
 236 0066 D3010000 		.4byte	.LASF7
 237 006a 03       		.byte	0x3
 238 006b 3F       		.byte	0x3f
 239 006c 70000000 		.4byte	0x70
 240 0070 04       		.uleb128 0x4
 241 0071 04       		.byte	0x4
 242 0072 05       		.byte	0x5
 243 0073 11010000 		.4byte	.LASF8
 244 0077 03       		.uleb128 0x3
 245 0078 B2040000 		.4byte	.LASF9
 246 007c 03       		.byte	0x3
 247 007d 41       		.byte	0x41
 248 007e 82000000 		.4byte	0x82
 249 0082 04       		.uleb128 0x4
 250 0083 04       		.byte	0x4
 251 0084 07       		.byte	0x7
 252 0085 5B040000 		.4byte	.LASF10
 253 0089 04       		.uleb128 0x4
 254 008a 08       		.byte	0x8
 255 008b 05       		.byte	0x5
 256 008c D6000000 		.4byte	.LASF11
 257 0090 03       		.uleb128 0x3
 258 0091 2F030000 		.4byte	.LASF12
 259 0095 03       		.byte	0x3
 260 0096 5B       		.byte	0x5b
 261 0097 9B000000 		.4byte	0x9b
 262 009b 04       		.uleb128 0x4
 263 009c 08       		.byte	0x8
 264 009d 07       		.byte	0x7
 265 009e 6A000000 		.4byte	.LASF13
 266 00a2 03       		.uleb128 0x3
 267 00a3 28050000 		.4byte	.LASF14
 268 00a7 04       		.byte	0x4
 269 00a8 15       		.byte	0x15
 270 00a9 45000000 		.4byte	0x45
 271 00ad 03       		.uleb128 0x3
 272 00ae C6030000 		.4byte	.LASF15
 273 00b2 04       		.byte	0x4
 274 00b3 2C       		.byte	0x2c
 275 00b4 65000000 		.4byte	0x65
 276 00b8 03       		.uleb128 0x3
 277 00b9 31040000 		.4byte	.LASF16
 278 00bd 04       		.byte	0x4
 279 00be 2D       		.byte	0x2d
 280 00bf 77000000 		.4byte	0x77
ARM GAS  C:\cygwin\tmp\ccqhWB2v.s 			page 6


 281 00c3 03       		.uleb128 0x3
 282 00c4 23000000 		.4byte	.LASF17
 283 00c8 04       		.byte	0x4
 284 00c9 39       		.byte	0x39
 285 00ca 90000000 		.4byte	0x90
 286 00ce 05       		.uleb128 0x5
 287 00cf AD000000 		.4byte	0xad
 288 00d3 03       		.uleb128 0x3
 289 00d4 E4040000 		.4byte	.LASF18
 290 00d8 05       		.byte	0x5
 291 00d9 45       		.byte	0x45
 292 00da B8000000 		.4byte	0xb8
 293 00de 03       		.uleb128 0x3
 294 00df B1010000 		.4byte	.LASF19
 295 00e3 05       		.byte	0x5
 296 00e4 48       		.byte	0x48
 297 00e5 A2000000 		.4byte	0xa2
 298 00e9 03       		.uleb128 0x3
 299 00ea 1A010000 		.4byte	.LASF20
 300 00ee 05       		.byte	0x5
 301 00ef 49       		.byte	0x49
 302 00f0 A2000000 		.4byte	0xa2
 303 00f4 03       		.uleb128 0x3
 304 00f5 00000000 		.4byte	.LASF21
 305 00f9 05       		.byte	0x5
 306 00fa 4A       		.byte	0x4a
 307 00fb A2000000 		.4byte	0xa2
 308 00ff 03       		.uleb128 0x3
 309 0100 A2030000 		.4byte	.LASF22
 310 0104 05       		.byte	0x5
 311 0105 4C       		.byte	0x4c
 312 0106 B8000000 		.4byte	0xb8
 313 010a 03       		.uleb128 0x3
 314 010b 98010000 		.4byte	.LASF23
 315 010f 05       		.byte	0x5
 316 0110 4D       		.byte	0x4d
 317 0111 AD000000 		.4byte	0xad
 318 0115 03       		.uleb128 0x3
 319 0116 C7010000 		.4byte	.LASF24
 320 011a 05       		.byte	0x5
 321 011b 4F       		.byte	0x4f
 322 011c B8000000 		.4byte	0xb8
 323 0120 03       		.uleb128 0x3
 324 0121 94040000 		.4byte	.LASF25
 325 0125 06       		.byte	0x6
 326 0126 33       		.byte	0x33
 327 0127 B8000000 		.4byte	0xb8
 328 012b 03       		.uleb128 0x3
 329 012c 84040000 		.4byte	.LASF26
 330 0130 06       		.byte	0x6
 331 0131 3F       		.byte	0x3f
 332 0132 36010000 		.4byte	0x136
 333 0136 06       		.uleb128 0x6
 334 0137 8E010000 		.4byte	.LASF45
 335 013b 44       		.byte	0x44
 336 013c 07       		.byte	0x7
 337 013d BE       		.byte	0xbe
ARM GAS  C:\cygwin\tmp\ccqhWB2v.s 			page 7


 338 013e 23020000 		.4byte	0x223
 339 0142 07       		.uleb128 0x7
 340 0143 06040000 		.4byte	.LASF27
 341 0147 07       		.byte	0x7
 342 0148 BF       		.byte	0xbf
 343 0149 07050000 		.4byte	0x507
 344 014d 00       		.byte	0
 345 014e 07       		.uleb128 0x7
 346 014f 9B030000 		.4byte	.LASF28
 347 0153 07       		.byte	0x7
 348 0154 C1       		.byte	0xc1
 349 0155 07050000 		.4byte	0x507
 350 0159 04       		.byte	0x4
 351 015a 07       		.uleb128 0x7
 352 015b C9000000 		.4byte	.LASF29
 353 015f 07       		.byte	0x7
 354 0160 C3       		.byte	0xc3
 355 0161 FF000000 		.4byte	0xff
 356 0165 08       		.byte	0x8
 357 0166 07       		.uleb128 0x7
 358 0167 54050000 		.4byte	.LASF30
 359 016b 07       		.byte	0x7
 360 016c C4       		.byte	0xc4
 361 016d 4D040000 		.4byte	0x44d
 362 0171 0C       		.byte	0xc
 363 0172 07       		.uleb128 0x7
 364 0173 23010000 		.4byte	.LASF31
 365 0177 07       		.byte	0x7
 366 0178 C6       		.byte	0xc6
 367 0179 07050000 		.4byte	0x507
 368 017d 10       		.byte	0x10
 369 017e 07       		.uleb128 0x7
 370 017f FE020000 		.4byte	.LASF32
 371 0183 07       		.byte	0x7
 372 0184 C7       		.byte	0xc7
 373 0185 07050000 		.4byte	0x507
 374 0189 14       		.byte	0x14
 375 018a 07       		.uleb128 0x7
 376 018b 08050000 		.4byte	.LASF33
 377 018f 07       		.byte	0x7
 378 0190 CE       		.byte	0xce
 379 0191 45050000 		.4byte	0x545
 380 0195 18       		.byte	0x18
 381 0196 07       		.uleb128 0x7
 382 0197 DC030000 		.4byte	.LASF34
 383 019b 07       		.byte	0x7
 384 019c D9       		.byte	0xd9
 385 019d E9000000 		.4byte	0xe9
 386 01a1 1C       		.byte	0x1c
 387 01a2 07       		.uleb128 0x7
 388 01a3 0D040000 		.4byte	.LASF35
 389 01a7 07       		.byte	0x7
 390 01a8 DD       		.byte	0xdd
 391 01a9 DE000000 		.4byte	0xde
 392 01ad 1D       		.byte	0x1d
 393 01ae 07       		.uleb128 0x7
 394 01af 0F050000 		.4byte	.LASF36
ARM GAS  C:\cygwin\tmp\ccqhWB2v.s 			page 8


 395 01b3 07       		.byte	0x7
 396 01b4 E2       		.byte	0xe2
 397 01b5 F4000000 		.4byte	0xf4
 398 01b9 1E       		.byte	0x1e
 399 01ba 08       		.uleb128 0x8
 400 01bb 705F7500 		.ascii	"p_u\000"
 401 01bf 07       		.byte	0x7
 402 01c0 1401     		.2byte	0x114
 403 01c2 0D050000 		.4byte	0x50d
 404 01c6 20       		.byte	0x20
 405 01c7 09       		.uleb128 0x9
 406 01c8 C8020000 		.4byte	.LASF37
 407 01cc 07       		.byte	0x7
 408 01cd 1901     		.2byte	0x119
 409 01cf 23020000 		.4byte	0x223
 410 01d3 24       		.byte	0x24
 411 01d4 09       		.uleb128 0x9
 412 01d5 70010000 		.4byte	.LASF38
 413 01d9 07       		.byte	0x7
 414 01da 1F01     		.2byte	0x11f
 415 01dc 47020000 		.4byte	0x247
 416 01e0 28       		.byte	0x28
 417 01e1 09       		.uleb128 0x9
 418 01e2 46050000 		.4byte	.LASF39
 419 01e6 07       		.byte	0x7
 420 01e7 2301     		.2byte	0x123
 421 01e9 0A010000 		.4byte	0x10a
 422 01ed 30       		.byte	0x30
 423 01ee 09       		.uleb128 0x9
 424 01ef 26040000 		.4byte	.LASF40
 425 01f3 07       		.byte	0x7
 426 01f4 2901     		.2byte	0x129
 427 01f6 15010000 		.4byte	0x115
 428 01fa 34       		.byte	0x34
 429 01fb 09       		.uleb128 0x9
 430 01fc E4030000 		.4byte	.LASF41
 431 0200 07       		.byte	0x7
 432 0201 3001     		.2byte	0x130
 433 0203 88050000 		.4byte	0x588
 434 0207 38       		.byte	0x38
 435 0208 09       		.uleb128 0x9
 436 0209 9E040000 		.4byte	.LASF42
 437 020d 07       		.byte	0x7
 438 020e 3401     		.2byte	0x134
 439 0210 FF000000 		.4byte	0xff
 440 0214 3C       		.byte	0x3c
 441 0215 09       		.uleb128 0x9
 442 0216 F0000000 		.4byte	.LASF43
 443 021a 07       		.byte	0x7
 444 021b 3A01     		.2byte	0x13a
 445 021d FA020000 		.4byte	0x2fa
 446 0221 40       		.byte	0x40
 447 0222 00       		.byte	0
 448 0223 03       		.uleb128 0x3
 449 0224 37050000 		.4byte	.LASF44
 450 0228 06       		.byte	0x6
 451 0229 44       		.byte	0x44
ARM GAS  C:\cygwin\tmp\ccqhWB2v.s 			page 9


 452 022a 2E020000 		.4byte	0x22e
 453 022e 06       		.uleb128 0x6
 454 022f 4B040000 		.4byte	.LASF46
 455 0233 04       		.byte	0x4
 456 0234 07       		.byte	0x7
 457 0235 AC       		.byte	0xac
 458 0236 47020000 		.4byte	0x247
 459 023a 07       		.uleb128 0x7
 460 023b 06040000 		.4byte	.LASF27
 461 023f 07       		.byte	0x7
 462 0240 AD       		.byte	0xad
 463 0241 07050000 		.4byte	0x507
 464 0245 00       		.byte	0
 465 0246 00       		.byte	0
 466 0247 03       		.uleb128 0x3
 467 0248 F8040000 		.4byte	.LASF47
 468 024c 06       		.byte	0x6
 469 024d 4B       		.byte	0x4b
 470 024e 52020000 		.4byte	0x252
 471 0252 06       		.uleb128 0x6
 472 0253 B8000000 		.4byte	.LASF48
 473 0257 08       		.byte	0x8
 474 0258 07       		.byte	0x7
 475 0259 B3       		.byte	0xb3
 476 025a 77020000 		.4byte	0x277
 477 025e 07       		.uleb128 0x7
 478 025f 06040000 		.4byte	.LASF27
 479 0263 07       		.byte	0x7
 480 0264 B4       		.byte	0xb4
 481 0265 07050000 		.4byte	0x507
 482 0269 00       		.byte	0
 483 026a 07       		.uleb128 0x7
 484 026b 9B030000 		.4byte	.LASF28
 485 026f 07       		.byte	0x7
 486 0270 B5       		.byte	0xb5
 487 0271 07050000 		.4byte	0x507
 488 0275 04       		.byte	0x4
 489 0276 00       		.byte	0
 490 0277 03       		.uleb128 0x3
 491 0278 08000000 		.4byte	.LASF49
 492 027c 06       		.byte	0x6
 493 027d 52       		.byte	0x52
 494 027e 82020000 		.4byte	0x282
 495 0282 0A       		.uleb128 0xa
 496 0283 B9010000 		.4byte	.LASF50
 497 0287 1C       		.byte	0x1c
 498 0288 07       		.byte	0x7
 499 0289 7201     		.2byte	0x172
 500 028b DE020000 		.4byte	0x2de
 501 028f 09       		.uleb128 0x9
 502 0290 3A040000 		.4byte	.LASF51
 503 0294 07       		.byte	0x7
 504 0295 7301     		.2byte	0x173
 505 0297 47020000 		.4byte	0x247
 506 029b 00       		.byte	0
 507 029c 09       		.uleb128 0x9
 508 029d F8030000 		.4byte	.LASF52
ARM GAS  C:\cygwin\tmp\ccqhWB2v.s 			page 10


 509 02a1 07       		.byte	0x7
 510 02a2 7401     		.2byte	0x174
 511 02a4 FF000000 		.4byte	0xff
 512 02a8 08       		.byte	0x8
 513 02a9 09       		.uleb128 0x9
 514 02aa 06030000 		.4byte	.LASF53
 515 02ae 07       		.byte	0x7
 516 02af 7601     		.2byte	0x176
 517 02b1 4D040000 		.4byte	0x44d
 518 02b5 0C       		.byte	0xc
 519 02b6 09       		.uleb128 0x9
 520 02b7 2B010000 		.4byte	.LASF54
 521 02bb 07       		.byte	0x7
 522 02bc 7901     		.2byte	0x179
 523 02be 07050000 		.4byte	0x507
 524 02c2 10       		.byte	0x10
 525 02c3 09       		.uleb128 0x9
 526 02c4 27030000 		.4byte	.LASF55
 527 02c8 07       		.byte	0x7
 528 02c9 7A01     		.2byte	0x17a
 529 02cb 07050000 		.4byte	0x507
 530 02cf 14       		.byte	0x14
 531 02d0 09       		.uleb128 0x9
 532 02d1 1D030000 		.4byte	.LASF56
 533 02d5 07       		.byte	0x7
 534 02d6 7D01     		.2byte	0x17d
 535 02d8 07050000 		.4byte	0x507
 536 02dc 18       		.byte	0x18
 537 02dd 00       		.byte	0
 538 02de 03       		.uleb128 0x3
 539 02df A9040000 		.4byte	.LASF57
 540 02e3 06       		.byte	0x6
 541 02e4 57       		.byte	0x57
 542 02e5 E9020000 		.4byte	0x2e9
 543 02e9 0B       		.uleb128 0xb
 544 02ea 04       		.byte	0x4
 545 02eb EF020000 		.4byte	0x2ef
 546 02ef 0C       		.uleb128 0xc
 547 02f0 FA020000 		.4byte	0x2fa
 548 02f4 0D       		.uleb128 0xd
 549 02f5 FA020000 		.4byte	0x2fa
 550 02f9 00       		.byte	0
 551 02fa 0E       		.uleb128 0xe
 552 02fb 04       		.byte	0x4
 553 02fc 03       		.uleb128 0x3
 554 02fd 8B030000 		.4byte	.LASF58
 555 0301 06       		.byte	0x6
 556 0302 5C       		.byte	0x5c
 557 0303 07030000 		.4byte	0x307
 558 0307 0A       		.uleb128 0xa
 559 0308 15040000 		.4byte	.LASF59
 560 030c 14       		.byte	0x14
 561 030d 07       		.byte	0x7
 562 030e 4D01     		.2byte	0x14d
 563 0310 56030000 		.4byte	0x356
 564 0314 09       		.uleb128 0x9
 565 0315 68010000 		.4byte	.LASF60
ARM GAS  C:\cygwin\tmp\ccqhWB2v.s 			page 11


 566 0319 07       		.byte	0x7
 567 031a 4E01     		.2byte	0x14e
 568 031c 8E050000 		.4byte	0x58e
 569 0320 00       		.byte	0
 570 0321 09       		.uleb128 0x9
 571 0322 3C010000 		.4byte	.LASF61
 572 0326 07       		.byte	0x7
 573 0327 4F01     		.2byte	0x14f
 574 0329 8E050000 		.4byte	0x58e
 575 032d 04       		.byte	0x4
 576 032e 09       		.uleb128 0x9
 577 032f 42040000 		.4byte	.LASF62
 578 0333 07       		.byte	0x7
 579 0334 5001     		.2byte	0x150
 580 0336 20010000 		.4byte	0x120
 581 033a 08       		.byte	0x8
 582 033b 09       		.uleb128 0x9
 583 033c 5A050000 		.4byte	.LASF63
 584 0340 07       		.byte	0x7
 585 0341 5101     		.2byte	0x151
 586 0343 DE020000 		.4byte	0x2de
 587 0347 0C       		.byte	0xc
 588 0348 09       		.uleb128 0x9
 589 0349 EC040000 		.4byte	.LASF64
 590 034d 07       		.byte	0x7
 591 034e 5301     		.2byte	0x153
 592 0350 FA020000 		.4byte	0x2fa
 593 0354 10       		.byte	0x10
 594 0355 00       		.byte	0
 595 0356 03       		.uleb128 0x3
 596 0357 95000000 		.4byte	.LASF65
 597 035b 06       		.byte	0x6
 598 035c 61       		.byte	0x61
 599 035d 61030000 		.4byte	0x361
 600 0361 0A       		.uleb128 0xa
 601 0362 DB020000 		.4byte	.LASF66
 602 0366 10       		.byte	0x10
 603 0367 07       		.byte	0x7
 604 0368 5D01     		.2byte	0x15d
 605 036a A3030000 		.4byte	0x3a3
 606 036e 09       		.uleb128 0x9
 607 036f 68010000 		.4byte	.LASF60
 608 0373 07       		.byte	0x7
 609 0374 5E01     		.2byte	0x15e
 610 0376 8E050000 		.4byte	0x58e
 611 037a 00       		.byte	0
 612 037b 09       		.uleb128 0x9
 613 037c 3C010000 		.4byte	.LASF61
 614 0380 07       		.byte	0x7
 615 0381 6001     		.2byte	0x160
 616 0383 8E050000 		.4byte	0x58e
 617 0387 04       		.byte	0x4
 618 0388 09       		.uleb128 0x9
 619 0389 42040000 		.4byte	.LASF62
 620 038d 07       		.byte	0x7
 621 038e 6201     		.2byte	0x162
 622 0390 20010000 		.4byte	0x120
ARM GAS  C:\cygwin\tmp\ccqhWB2v.s 			page 12


 623 0394 08       		.byte	0x8
 624 0395 09       		.uleb128 0x9
 625 0396 F2020000 		.4byte	.LASF67
 626 039a 07       		.byte	0x7
 627 039b 6A01     		.2byte	0x16a
 628 039d 20010000 		.4byte	0x120
 629 03a1 0C       		.byte	0xc
 630 03a2 00       		.byte	0
 631 03a3 03       		.uleb128 0x3
 632 03a4 5B000000 		.4byte	.LASF68
 633 03a8 06       		.byte	0x6
 634 03a9 66       		.byte	0x66
 635 03aa AE030000 		.4byte	0x3ae
 636 03ae 0A       		.uleb128 0xa
 637 03af B0030000 		.4byte	.LASF69
 638 03b3 04       		.byte	0x4
 639 03b4 07       		.byte	0x7
 640 03b5 8401     		.2byte	0x184
 641 03b7 C9030000 		.4byte	0x3c9
 642 03bb 09       		.uleb128 0x9
 643 03bc CB040000 		.4byte	.LASF70
 644 03c0 07       		.byte	0x7
 645 03c1 8C01     		.2byte	0x18c
 646 03c3 94050000 		.4byte	0x594
 647 03c7 00       		.byte	0
 648 03c8 00       		.byte	0
 649 03c9 03       		.uleb128 0x3
 650 03ca 9E010000 		.4byte	.LASF71
 651 03ce 06       		.byte	0x6
 652 03cf 6B       		.byte	0x6b
 653 03d0 D4030000 		.4byte	0x3d4
 654 03d4 0F       		.uleb128 0xf
 655 03d5 07010000 		.4byte	.LASF72
 656 03d9 5001     		.2byte	0x150
 657 03db 07       		.byte	0x7
 658 03dc A401     		.2byte	0x1a4
 659 03de 30040000 		.4byte	0x430
 660 03e2 09       		.uleb128 0x9
 661 03e3 22050000 		.4byte	.LASF73
 662 03e7 07       		.byte	0x7
 663 03e8 A801     		.2byte	0x1a8
 664 03ea 77020000 		.4byte	0x277
 665 03ee 00       		.byte	0
 666 03ef 09       		.uleb128 0x9
 667 03f0 00010000 		.4byte	.LASF74
 668 03f4 07       		.byte	0x7
 669 03f5 AC01     		.2byte	0x1ac
 670 03f7 56030000 		.4byte	0x356
 671 03fb 1C       		.byte	0x1c
 672 03fc 08       		.uleb128 0x8
 673 03fd 64626700 		.ascii	"dbg\000"
 674 0401 07       		.byte	0x7
 675 0402 B001     		.2byte	0x1b0
 676 0404 A3030000 		.4byte	0x3a3
 677 0408 2C       		.byte	0x2c
 678 0409 09       		.uleb128 0x9
 679 040a 8A000000 		.4byte	.LASF75
ARM GAS  C:\cygwin\tmp\ccqhWB2v.s 			page 13


 680 040e 07       		.byte	0x7
 681 040f B401     		.2byte	0x1b4
 682 0411 2B010000 		.4byte	0x12b
 683 0415 30       		.byte	0x30
 684 0416 08       		.uleb128 0x8
 685 0417 746D00   		.ascii	"tm\000"
 686 041a 07       		.byte	0x7
 687 041b B901     		.2byte	0x1b9
 688 041d FC040000 		.4byte	0x4fc
 689 0421 74       		.byte	0x74
 690 0422 09       		.uleb128 0x9
 691 0423 4C010000 		.4byte	.LASF76
 692 0427 07       		.byte	0x7
 693 0428 C501     		.2byte	0x1c5
 694 042a 99050000 		.4byte	0x599
 695 042e 78       		.byte	0x78
 696 042f 00       		.byte	0
 697 0430 04       		.uleb128 0x4
 698 0431 04       		.byte	0x4
 699 0432 07       		.byte	0x7
 700 0433 D2020000 		.4byte	.LASF77
 701 0437 03       		.uleb128 0x3
 702 0438 33010000 		.4byte	.LASF78
 703 043c 08       		.byte	0x8
 704 043d 85       		.byte	0x85
 705 043e FA020000 		.4byte	0x2fa
 706 0442 03       		.uleb128 0x3
 707 0443 B7020000 		.4byte	.LASF79
 708 0447 08       		.byte	0x8
 709 0448 8D       		.byte	0x8d
 710 0449 C3000000 		.4byte	0xc3
 711 044d 06       		.uleb128 0x6
 712 044e DC040000 		.4byte	.LASF80
 713 0452 04       		.byte	0x4
 714 0453 08       		.byte	0x8
 715 0454 A9       		.byte	0xa9
 716 0455 66040000 		.4byte	0x466
 717 0459 10       		.uleb128 0x10
 718 045a 72313300 		.ascii	"r13\000"
 719 045e 08       		.byte	0x8
 720 045f AA       		.byte	0xaa
 721 0460 E1040000 		.4byte	0x4e1
 722 0464 00       		.byte	0
 723 0465 00       		.byte	0
 724 0466 06       		.uleb128 0x6
 725 0467 4F000000 		.4byte	.LASF81
 726 046b 24       		.byte	0x24
 727 046c 09       		.byte	0x9
 728 046d F4       		.byte	0xf4
 729 046e E1040000 		.4byte	0x4e1
 730 0472 08       		.uleb128 0x8
 731 0473 723400   		.ascii	"r4\000"
 732 0476 09       		.byte	0x9
 733 0477 0701     		.2byte	0x107
 734 0479 37040000 		.4byte	0x437
 735 047d 00       		.byte	0
 736 047e 08       		.uleb128 0x8
ARM GAS  C:\cygwin\tmp\ccqhWB2v.s 			page 14


 737 047f 723500   		.ascii	"r5\000"
 738 0482 09       		.byte	0x9
 739 0483 0801     		.2byte	0x108
 740 0485 37040000 		.4byte	0x437
 741 0489 04       		.byte	0x4
 742 048a 08       		.uleb128 0x8
 743 048b 723600   		.ascii	"r6\000"
 744 048e 09       		.byte	0x9
 745 048f 0901     		.2byte	0x109
 746 0491 37040000 		.4byte	0x437
 747 0495 08       		.byte	0x8
 748 0496 08       		.uleb128 0x8
 749 0497 723700   		.ascii	"r7\000"
 750 049a 09       		.byte	0x9
 751 049b 0A01     		.2byte	0x10a
 752 049d 37040000 		.4byte	0x437
 753 04a1 0C       		.byte	0xc
 754 04a2 08       		.uleb128 0x8
 755 04a3 723800   		.ascii	"r8\000"
 756 04a6 09       		.byte	0x9
 757 04a7 0B01     		.2byte	0x10b
 758 04a9 37040000 		.4byte	0x437
 759 04ad 10       		.byte	0x10
 760 04ae 08       		.uleb128 0x8
 761 04af 723900   		.ascii	"r9\000"
 762 04b2 09       		.byte	0x9
 763 04b3 0C01     		.2byte	0x10c
 764 04b5 37040000 		.4byte	0x437
 765 04b9 14       		.byte	0x14
 766 04ba 08       		.uleb128 0x8
 767 04bb 72313000 		.ascii	"r10\000"
 768 04bf 09       		.byte	0x9
 769 04c0 0D01     		.2byte	0x10d
 770 04c2 37040000 		.4byte	0x437
 771 04c6 18       		.byte	0x18
 772 04c7 08       		.uleb128 0x8
 773 04c8 72313100 		.ascii	"r11\000"
 774 04cc 09       		.byte	0x9
 775 04cd 0E01     		.2byte	0x10e
 776 04cf 37040000 		.4byte	0x437
 777 04d3 1C       		.byte	0x1c
 778 04d4 08       		.uleb128 0x8
 779 04d5 6C7200   		.ascii	"lr\000"
 780 04d8 09       		.byte	0x9
 781 04d9 0F01     		.2byte	0x10f
 782 04db 37040000 		.4byte	0x437
 783 04df 20       		.byte	0x20
 784 04e0 00       		.byte	0
 785 04e1 0B       		.uleb128 0xb
 786 04e2 04       		.byte	0x4
 787 04e3 66040000 		.4byte	0x466
 788 04e7 11       		.uleb128 0x11
 789 04e8 04       		.byte	0x4
 790 04e9 0A       		.byte	0xa
 791 04ea 38       		.byte	0x38
 792 04eb FC040000 		.4byte	0x4fc
 793 04ef 07       		.uleb128 0x7
ARM GAS  C:\cygwin\tmp\ccqhWB2v.s 			page 15


 794 04f0 D5040000 		.4byte	.LASF82
 795 04f4 0A       		.byte	0xa
 796 04f5 3C       		.byte	0x3c
 797 04f6 D3000000 		.4byte	0xd3
 798 04fa 00       		.byte	0
 799 04fb 00       		.byte	0
 800 04fc 03       		.uleb128 0x3
 801 04fd 0C030000 		.4byte	.LASF83
 802 0501 0A       		.byte	0xa
 803 0502 3D       		.byte	0x3d
 804 0503 E7040000 		.4byte	0x4e7
 805 0507 0B       		.uleb128 0xb
 806 0508 04       		.byte	0x4
 807 0509 2B010000 		.4byte	0x12b
 808 050d 12       		.uleb128 0x12
 809 050e 04       		.byte	0x4
 810 050f 07       		.byte	0x7
 811 0510 F6       		.byte	0xf6
 812 0511 45050000 		.4byte	0x545
 813 0515 13       		.uleb128 0x13
 814 0516 1C000000 		.4byte	.LASF84
 815 051a 07       		.byte	0x7
 816 051b FD       		.byte	0xfd
 817 051c 0A010000 		.4byte	0x10a
 818 0520 14       		.uleb128 0x14
 819 0521 81000000 		.4byte	.LASF85
 820 0525 07       		.byte	0x7
 821 0526 0401     		.2byte	0x104
 822 0528 0A010000 		.4byte	0x10a
 823 052c 14       		.uleb128 0x14
 824 052d 30050000 		.4byte	.LASF86
 825 0531 07       		.byte	0x7
 826 0532 0B01     		.2byte	0x10b
 827 0534 FA020000 		.4byte	0x2fa
 828 0538 14       		.uleb128 0x14
 829 0539 FF030000 		.4byte	.LASF87
 830 053d 07       		.byte	0x7
 831 053e 1201     		.2byte	0x112
 832 0540 15010000 		.4byte	0x115
 833 0544 00       		.byte	0
 834 0545 0B       		.uleb128 0xb
 835 0546 04       		.byte	0x4
 836 0547 4B050000 		.4byte	0x54b
 837 054b 15       		.uleb128 0x15
 838 054c 50050000 		.4byte	0x550
 839 0550 04       		.uleb128 0x4
 840 0551 01       		.byte	0x1
 841 0552 08       		.byte	0x8
 842 0553 72040000 		.4byte	.LASF88
 843 0557 06       		.uleb128 0x6
 844 0558 AA030000 		.4byte	.LASF89
 845 055c 10       		.byte	0x10
 846 055d 0B       		.byte	0xb
 847 055e 39       		.byte	0x39
 848 055f 88050000 		.4byte	0x588
 849 0563 07       		.uleb128 0x7
 850 0564 F8000000 		.4byte	.LASF90
ARM GAS  C:\cygwin\tmp\ccqhWB2v.s 			page 16


 851 0568 0B       		.byte	0xb
 852 0569 3A       		.byte	0x3a
 853 056a 47020000 		.4byte	0x247
 854 056e 00       		.byte	0
 855 056f 07       		.uleb128 0x7
 856 0570 4C050000 		.4byte	.LASF91
 857 0574 0B       		.byte	0xb
 858 0575 3C       		.byte	0x3c
 859 0576 07050000 		.4byte	0x507
 860 057a 08       		.byte	0x8
 861 057b 07       		.uleb128 0x7
 862 057c 8D040000 		.4byte	.LASF92
 863 0580 0B       		.byte	0xb
 864 0581 3E       		.byte	0x3e
 865 0582 C9050000 		.4byte	0x5c9
 866 0586 0C       		.byte	0xc
 867 0587 00       		.byte	0
 868 0588 0B       		.uleb128 0xb
 869 0589 04       		.byte	0x4
 870 058a 57050000 		.4byte	0x557
 871 058e 0B       		.uleb128 0xb
 872 058f 04       		.byte	0x4
 873 0590 FC020000 		.4byte	0x2fc
 874 0594 05       		.uleb128 0x5
 875 0595 45050000 		.4byte	0x545
 876 0599 16       		.uleb128 0x16
 877 059a 42040000 		.4byte	0x442
 878 059e A9050000 		.4byte	0x5a9
 879 05a2 17       		.uleb128 0x17
 880 05a3 30040000 		.4byte	0x430
 881 05a7 1A       		.byte	0x1a
 882 05a8 00       		.byte	0
 883 05a9 0B       		.uleb128 0xb
 884 05aa 04       		.byte	0x4
 885 05ab AF050000 		.4byte	0x5af
 886 05af 18       		.uleb128 0x18
 887 05b0 0A010000 		.4byte	0x10a
 888 05b4 BE050000 		.4byte	0x5be
 889 05b8 0D       		.uleb128 0xd
 890 05b9 FA020000 		.4byte	0x2fa
 891 05bd 00       		.byte	0
 892 05be 03       		.uleb128 0x3
 893 05bf 44010000 		.4byte	.LASF93
 894 05c3 0B       		.byte	0xb
 895 05c4 34       		.byte	0x34
 896 05c5 57050000 		.4byte	0x557
 897 05c9 0B       		.uleb128 0xb
 898 05ca 04       		.byte	0x4
 899 05cb BE050000 		.4byte	0x5be
 900 05cf 0B       		.uleb128 0xb
 901 05d0 04       		.byte	0x4
 902 05d1 A2000000 		.4byte	0xa2
 903 05d5 18       		.uleb128 0x18
 904 05d6 2C000000 		.4byte	0x2c
 905 05da EE050000 		.4byte	0x5ee
 906 05de 0D       		.uleb128 0xd
 907 05df FA020000 		.4byte	0x2fa
ARM GAS  C:\cygwin\tmp\ccqhWB2v.s 			page 17


 908 05e3 0D       		.uleb128 0xd
 909 05e4 EE050000 		.4byte	0x5ee
 910 05e8 0D       		.uleb128 0xd
 911 05e9 2C000000 		.4byte	0x2c
 912 05ed 00       		.byte	0
 913 05ee 0B       		.uleb128 0xb
 914 05ef 04       		.byte	0x4
 915 05f0 F4050000 		.4byte	0x5f4
 916 05f4 15       		.uleb128 0x15
 917 05f5 A2000000 		.4byte	0xa2
 918 05f9 0B       		.uleb128 0xb
 919 05fa 04       		.byte	0x4
 920 05fb D5050000 		.4byte	0x5d5
 921 05ff 18       		.uleb128 0x18
 922 0600 2C000000 		.4byte	0x2c
 923 0604 18060000 		.4byte	0x618
 924 0608 0D       		.uleb128 0xd
 925 0609 FA020000 		.4byte	0x2fa
 926 060d 0D       		.uleb128 0xd
 927 060e CF050000 		.4byte	0x5cf
 928 0612 0D       		.uleb128 0xd
 929 0613 2C000000 		.4byte	0x2c
 930 0617 00       		.byte	0
 931 0618 0B       		.uleb128 0xb
 932 0619 04       		.byte	0x4
 933 061a FF050000 		.4byte	0x5ff
 934 061e 18       		.uleb128 0x18
 935 061f 0A010000 		.4byte	0x10a
 936 0623 32060000 		.4byte	0x632
 937 0627 0D       		.uleb128 0xd
 938 0628 FA020000 		.4byte	0x2fa
 939 062c 0D       		.uleb128 0xd
 940 062d A2000000 		.4byte	0xa2
 941 0631 00       		.byte	0
 942 0632 0B       		.uleb128 0xb
 943 0633 04       		.byte	0x4
 944 0634 1E060000 		.4byte	0x61e
 945 0638 04       		.uleb128 0x4
 946 0639 01       		.byte	0x1
 947 063a 02       		.byte	0x2
 948 063b C0030000 		.4byte	.LASF94
 949 063f 06       		.uleb128 0x6
 950 0640 77040000 		.4byte	.LASF95
 951 0644 10       		.byte	0x10
 952 0645 0C       		.byte	0xc
 953 0646 2E       		.byte	0x2e
 954 0647 7C060000 		.4byte	0x67c
 955 064b 07       		.uleb128 0x7
 956 064c C2020000 		.4byte	.LASF96
 957 0650 0C       		.byte	0xc
 958 0651 2F       		.byte	0x2f
 959 0652 F9050000 		.4byte	0x5f9
 960 0656 00       		.byte	0
 961 0657 07       		.uleb128 0x7
 962 0658 6D040000 		.4byte	.LASF97
 963 065c 0C       		.byte	0xc
 964 065d 2F       		.byte	0x2f
ARM GAS  C:\cygwin\tmp\ccqhWB2v.s 			page 18


 965 065e 18060000 		.4byte	0x618
 966 0662 04       		.byte	0x4
 967 0663 10       		.uleb128 0x10
 968 0664 70757400 		.ascii	"put\000"
 969 0668 0C       		.byte	0xc
 970 0669 2F       		.byte	0x2f
 971 066a 32060000 		.4byte	0x632
 972 066e 08       		.byte	0x8
 973 066f 10       		.uleb128 0x10
 974 0670 67657400 		.ascii	"get\000"
 975 0674 0C       		.byte	0xc
 976 0675 2F       		.byte	0x2f
 977 0676 A9050000 		.4byte	0x5a9
 978 067a 0C       		.byte	0xc
 979 067b 00       		.byte	0
 980 067c 11       		.uleb128 0x11
 981 067d 04       		.byte	0x4
 982 067e 0C       		.byte	0xc
 983 067f 39       		.byte	0x39
 984 0680 91060000 		.4byte	0x691
 985 0684 10       		.uleb128 0x10
 986 0685 766D7400 		.ascii	"vmt\000"
 987 0689 0C       		.byte	0xc
 988 068a 3B       		.byte	0x3b
 989 068b 91060000 		.4byte	0x691
 990 068f 00       		.byte	0
 991 0690 00       		.byte	0
 992 0691 0B       		.uleb128 0xb
 993 0692 04       		.byte	0x4
 994 0693 97060000 		.4byte	0x697
 995 0697 15       		.uleb128 0x15
 996 0698 3F060000 		.4byte	0x63f
 997 069c 03       		.uleb128 0x3
 998 069d 81030000 		.4byte	.LASF98
 999 06a1 0C       		.byte	0xc
 1000 06a2 3D       		.byte	0x3d
 1001 06a3 7C060000 		.4byte	0x67c
 1002 06a7 19       		.uleb128 0x19
 1003 06a8 70757400 		.ascii	"put\000"
 1004 06ac 01       		.byte	0x1
 1005 06ad 27       		.byte	0x27
 1006 06ae 0A010000 		.4byte	0x10a
 1007 06b2 01       		.byte	0x1
 1008 06b3 CB060000 		.4byte	0x6cb
 1009 06b7 1A       		.uleb128 0x1a
 1010 06b8 697000   		.ascii	"ip\000"
 1011 06bb 01       		.byte	0x1
 1012 06bc 27       		.byte	0x27
 1013 06bd FA020000 		.4byte	0x2fa
 1014 06c1 1A       		.uleb128 0x1a
 1015 06c2 6200     		.ascii	"b\000"
 1016 06c4 01       		.byte	0x1
 1017 06c5 27       		.byte	0x27
 1018 06c6 A2000000 		.4byte	0xa2
 1019 06ca 00       		.byte	0
 1020 06cb 1B       		.uleb128 0x1b
 1021 06cc 67657400 		.ascii	"get\000"
ARM GAS  C:\cygwin\tmp\ccqhWB2v.s 			page 19


 1022 06d0 01       		.byte	0x1
 1023 06d1 30       		.byte	0x30
 1024 06d2 0A010000 		.4byte	0x10a
 1025 06d6 00000000 		.4byte	.LFB256
 1026 06da 04000000 		.4byte	.LFE256-.LFB256
 1027 06de 01       		.uleb128 0x1
 1028 06df 9C       		.byte	0x9c
 1029 06e0 F3060000 		.4byte	0x6f3
 1030 06e4 1C       		.uleb128 0x1c
 1031 06e5 697000   		.ascii	"ip\000"
 1032 06e8 01       		.byte	0x1
 1033 06e9 30       		.byte	0x30
 1034 06ea FA020000 		.4byte	0x2fa
 1035 06ee 00000000 		.4byte	.LLST0
 1036 06f2 00       		.byte	0
 1037 06f3 1D       		.uleb128 0x1d
 1038 06f4 D0000000 		.4byte	.LASF99
 1039 06f8 01       		.byte	0x1
 1040 06f9 43       		.byte	0x43
 1041 06fa 2C000000 		.4byte	0x2c
 1042 06fe 00000000 		.4byte	.LFB258
 1043 0702 04000000 		.4byte	.LFE258-.LFB258
 1044 0706 01       		.uleb128 0x1
 1045 0707 9C       		.byte	0x9c
 1046 0708 32070000 		.4byte	0x732
 1047 070c 1C       		.uleb128 0x1c
 1048 070d 697000   		.ascii	"ip\000"
 1049 0710 01       		.byte	0x1
 1050 0711 43       		.byte	0x43
 1051 0712 FA020000 		.4byte	0x2fa
 1052 0716 21000000 		.4byte	.LLST1
 1053 071a 1E       		.uleb128 0x1e
 1054 071b 627000   		.ascii	"bp\000"
 1055 071e 01       		.byte	0x1
 1056 071f 43       		.byte	0x43
 1057 0720 CF050000 		.4byte	0x5cf
 1058 0724 01       		.uleb128 0x1
 1059 0725 51       		.byte	0x51
 1060 0726 1E       		.uleb128 0x1e
 1061 0727 6E00     		.ascii	"n\000"
 1062 0729 01       		.byte	0x1
 1063 072a 43       		.byte	0x43
 1064 072b 2C000000 		.4byte	0x2c
 1065 072f 01       		.uleb128 0x1
 1066 0730 52       		.byte	0x52
 1067 0731 00       		.byte	0
 1068 0732 1F       		.uleb128 0x1f
 1069 0733 A7060000 		.4byte	0x6a7
 1070 0737 00000000 		.4byte	.LFB255
 1071 073b 0C000000 		.4byte	.LFE255-.LFB255
 1072 073f 01       		.uleb128 0x1
 1073 0740 9C       		.byte	0x9c
 1074 0741 61070000 		.4byte	0x761
 1075 0745 20       		.uleb128 0x20
 1076 0746 B7060000 		.4byte	0x6b7
 1077 074a 42000000 		.4byte	.LLST2
 1078 074e 20       		.uleb128 0x20
ARM GAS  C:\cygwin\tmp\ccqhWB2v.s 			page 20


 1079 074f C1060000 		.4byte	0x6c1
 1080 0753 63000000 		.4byte	.LLST3
 1081 0757 21       		.uleb128 0x21
 1082 0758 08000000 		.4byte	.LVL6
 1083 075c 2F080000 		.4byte	0x82f
 1084 0760 00       		.byte	0
 1085 0761 1D       		.uleb128 0x1d
 1086 0762 AA010000 		.4byte	.LASF100
 1087 0766 01       		.byte	0x1
 1088 0767 37       		.byte	0x37
 1089 0768 2C000000 		.4byte	0x2c
 1090 076c 00000000 		.4byte	.LFB257
 1091 0770 1A000000 		.4byte	.LFE257-.LFB257
 1092 0774 01       		.uleb128 0x1
 1093 0775 9C       		.byte	0x9c
 1094 0776 DE070000 		.4byte	0x7de
 1095 077a 1C       		.uleb128 0x1c
 1096 077b 697000   		.ascii	"ip\000"
 1097 077e 01       		.byte	0x1
 1098 077f 37       		.byte	0x37
 1099 0780 FA020000 		.4byte	0x2fa
 1100 0784 84000000 		.4byte	.LLST4
 1101 0788 1C       		.uleb128 0x1c
 1102 0789 627000   		.ascii	"bp\000"
 1103 078c 01       		.byte	0x1
 1104 078d 37       		.byte	0x37
 1105 078e EE050000 		.4byte	0x5ee
 1106 0792 A5000000 		.4byte	.LLST5
 1107 0796 1C       		.uleb128 0x1c
 1108 0797 6E00     		.ascii	"n\000"
 1109 0799 01       		.byte	0x1
 1110 079a 37       		.byte	0x37
 1111 079b 2C000000 		.4byte	0x2c
 1112 079f E6000000 		.4byte	.LLST6
 1113 07a3 22       		.uleb128 0x22
 1114 07a4 636E7400 		.ascii	"cnt\000"
 1115 07a8 01       		.byte	0x1
 1116 07a9 38       		.byte	0x38
 1117 07aa 2C000000 		.4byte	0x2c
 1118 07ae 04010000 		.4byte	.LLST7
 1119 07b2 23       		.uleb128 0x23
 1120 07b3 A7060000 		.4byte	0x6a7
 1121 07b7 0A000000 		.4byte	.LBB4
 1122 07bb 08000000 		.4byte	.LBE4-.LBB4
 1123 07bf 01       		.byte	0x1
 1124 07c0 3B       		.byte	0x3b
 1125 07c1 20       		.uleb128 0x20
 1126 07c2 C1060000 		.4byte	0x6c1
 1127 07c6 3A010000 		.4byte	.LLST8
 1128 07ca 20       		.uleb128 0x20
 1129 07cb B7060000 		.4byte	0x6b7
 1130 07cf 5A010000 		.4byte	.LLST9
 1131 07d3 21       		.uleb128 0x21
 1132 07d4 12000000 		.4byte	.LVL11
 1133 07d8 2F080000 		.4byte	0x82f
 1134 07dc 00       		.byte	0
 1135 07dd 00       		.byte	0
ARM GAS  C:\cygwin\tmp\ccqhWB2v.s 			page 21


 1136 07de 24       		.uleb128 0x24
 1137 07df BD040000 		.4byte	.LASF106
 1138 07e3 01       		.byte	0x1
 1139 07e4 57       		.byte	0x57
 1140 07e5 00000000 		.4byte	.LFB259
 1141 07e9 0C000000 		.4byte	.LFE259-.LFB259
 1142 07ed 01       		.uleb128 0x1
 1143 07ee 9C       		.byte	0x9c
 1144 07ef 01080000 		.4byte	0x801
 1145 07f3 25       		.uleb128 0x25
 1146 07f4 F3040000 		.4byte	.LASF101
 1147 07f8 01       		.byte	0x1
 1148 07f9 57       		.byte	0x57
 1149 07fa 01080000 		.4byte	0x801
 1150 07fe 01       		.uleb128 0x1
 1151 07ff 50       		.byte	0x50
 1152 0800 00       		.byte	0
 1153 0801 0B       		.uleb128 0xb
 1154 0802 04       		.byte	0x4
 1155 0803 9C060000 		.4byte	0x69c
 1156 0807 26       		.uleb128 0x26
 1157 0808 766D7400 		.ascii	"vmt\000"
 1158 080c 01       		.byte	0x1
 1159 080d 4C       		.byte	0x4c
 1160 080e 97060000 		.4byte	0x697
 1161 0812 05       		.uleb128 0x5
 1162 0813 03       		.byte	0x3
 1163 0814 00000000 		.4byte	vmt
 1164 0818 27       		.uleb128 0x27
 1165 0819 AB000000 		.4byte	.LASF102
 1166 081d 0D       		.byte	0xd
 1167 081e A706     		.2byte	0x6a7
 1168 0820 CE000000 		.4byte	0xce
 1169 0824 28       		.uleb128 0x28
 1170 0825 636800   		.ascii	"ch\000"
 1171 0828 07       		.byte	0x7
 1172 0829 EB01     		.2byte	0x1eb
 1173 082b C9030000 		.4byte	0x3c9
 1174 082f 29       		.uleb128 0x29
 1175 0830 2C000000 		.4byte	.LASF107
 1176 0834 01       		.byte	0x1
 1177 0835 22       		.byte	0x22
 1178 0836 0D       		.uleb128 0xd
 1179 0837 50050000 		.4byte	0x550
 1180 083b 00       		.byte	0
 1181 083c 00       		.byte	0
 1182              		.section	.debug_abbrev,"",%progbits
 1183              	.Ldebug_abbrev0:
 1184 0000 01       		.uleb128 0x1
 1185 0001 11       		.uleb128 0x11
 1186 0002 01       		.byte	0x1
 1187 0003 25       		.uleb128 0x25
 1188 0004 0E       		.uleb128 0xe
 1189 0005 13       		.uleb128 0x13
 1190 0006 0B       		.uleb128 0xb
 1191 0007 03       		.uleb128 0x3
 1192 0008 0E       		.uleb128 0xe
ARM GAS  C:\cygwin\tmp\ccqhWB2v.s 			page 22


 1193 0009 1B       		.uleb128 0x1b
 1194 000a 0E       		.uleb128 0xe
 1195 000b 55       		.uleb128 0x55
 1196 000c 17       		.uleb128 0x17
 1197 000d 11       		.uleb128 0x11
 1198 000e 01       		.uleb128 0x1
 1199 000f 10       		.uleb128 0x10
 1200 0010 17       		.uleb128 0x17
 1201 0011 00       		.byte	0
 1202 0012 00       		.byte	0
 1203 0013 02       		.uleb128 0x2
 1204 0014 24       		.uleb128 0x24
 1205 0015 00       		.byte	0
 1206 0016 0B       		.uleb128 0xb
 1207 0017 0B       		.uleb128 0xb
 1208 0018 3E       		.uleb128 0x3e
 1209 0019 0B       		.uleb128 0xb
 1210 001a 03       		.uleb128 0x3
 1211 001b 08       		.uleb128 0x8
 1212 001c 00       		.byte	0
 1213 001d 00       		.byte	0
 1214 001e 03       		.uleb128 0x3
 1215 001f 16       		.uleb128 0x16
 1216 0020 00       		.byte	0
 1217 0021 03       		.uleb128 0x3
 1218 0022 0E       		.uleb128 0xe
 1219 0023 3A       		.uleb128 0x3a
 1220 0024 0B       		.uleb128 0xb
 1221 0025 3B       		.uleb128 0x3b
 1222 0026 0B       		.uleb128 0xb
 1223 0027 49       		.uleb128 0x49
 1224 0028 13       		.uleb128 0x13
 1225 0029 00       		.byte	0
 1226 002a 00       		.byte	0
 1227 002b 04       		.uleb128 0x4
 1228 002c 24       		.uleb128 0x24
 1229 002d 00       		.byte	0
 1230 002e 0B       		.uleb128 0xb
 1231 002f 0B       		.uleb128 0xb
 1232 0030 3E       		.uleb128 0x3e
 1233 0031 0B       		.uleb128 0xb
 1234 0032 03       		.uleb128 0x3
 1235 0033 0E       		.uleb128 0xe
 1236 0034 00       		.byte	0
 1237 0035 00       		.byte	0
 1238 0036 05       		.uleb128 0x5
 1239 0037 35       		.uleb128 0x35
 1240 0038 00       		.byte	0
 1241 0039 49       		.uleb128 0x49
 1242 003a 13       		.uleb128 0x13
 1243 003b 00       		.byte	0
 1244 003c 00       		.byte	0
 1245 003d 06       		.uleb128 0x6
 1246 003e 13       		.uleb128 0x13
 1247 003f 01       		.byte	0x1
 1248 0040 03       		.uleb128 0x3
 1249 0041 0E       		.uleb128 0xe
ARM GAS  C:\cygwin\tmp\ccqhWB2v.s 			page 23


 1250 0042 0B       		.uleb128 0xb
 1251 0043 0B       		.uleb128 0xb
 1252 0044 3A       		.uleb128 0x3a
 1253 0045 0B       		.uleb128 0xb
 1254 0046 3B       		.uleb128 0x3b
 1255 0047 0B       		.uleb128 0xb
 1256 0048 01       		.uleb128 0x1
 1257 0049 13       		.uleb128 0x13
 1258 004a 00       		.byte	0
 1259 004b 00       		.byte	0
 1260 004c 07       		.uleb128 0x7
 1261 004d 0D       		.uleb128 0xd
 1262 004e 00       		.byte	0
 1263 004f 03       		.uleb128 0x3
 1264 0050 0E       		.uleb128 0xe
 1265 0051 3A       		.uleb128 0x3a
 1266 0052 0B       		.uleb128 0xb
 1267 0053 3B       		.uleb128 0x3b
 1268 0054 0B       		.uleb128 0xb
 1269 0055 49       		.uleb128 0x49
 1270 0056 13       		.uleb128 0x13
 1271 0057 38       		.uleb128 0x38
 1272 0058 0B       		.uleb128 0xb
 1273 0059 00       		.byte	0
 1274 005a 00       		.byte	0
 1275 005b 08       		.uleb128 0x8
 1276 005c 0D       		.uleb128 0xd
 1277 005d 00       		.byte	0
 1278 005e 03       		.uleb128 0x3
 1279 005f 08       		.uleb128 0x8
 1280 0060 3A       		.uleb128 0x3a
 1281 0061 0B       		.uleb128 0xb
 1282 0062 3B       		.uleb128 0x3b
 1283 0063 05       		.uleb128 0x5
 1284 0064 49       		.uleb128 0x49
 1285 0065 13       		.uleb128 0x13
 1286 0066 38       		.uleb128 0x38
 1287 0067 0B       		.uleb128 0xb
 1288 0068 00       		.byte	0
 1289 0069 00       		.byte	0
 1290 006a 09       		.uleb128 0x9
 1291 006b 0D       		.uleb128 0xd
 1292 006c 00       		.byte	0
 1293 006d 03       		.uleb128 0x3
 1294 006e 0E       		.uleb128 0xe
 1295 006f 3A       		.uleb128 0x3a
 1296 0070 0B       		.uleb128 0xb
 1297 0071 3B       		.uleb128 0x3b
 1298 0072 05       		.uleb128 0x5
 1299 0073 49       		.uleb128 0x49
 1300 0074 13       		.uleb128 0x13
 1301 0075 38       		.uleb128 0x38
 1302 0076 0B       		.uleb128 0xb
 1303 0077 00       		.byte	0
 1304 0078 00       		.byte	0
 1305 0079 0A       		.uleb128 0xa
 1306 007a 13       		.uleb128 0x13
ARM GAS  C:\cygwin\tmp\ccqhWB2v.s 			page 24


 1307 007b 01       		.byte	0x1
 1308 007c 03       		.uleb128 0x3
 1309 007d 0E       		.uleb128 0xe
 1310 007e 0B       		.uleb128 0xb
 1311 007f 0B       		.uleb128 0xb
 1312 0080 3A       		.uleb128 0x3a
 1313 0081 0B       		.uleb128 0xb
 1314 0082 3B       		.uleb128 0x3b
 1315 0083 05       		.uleb128 0x5
 1316 0084 01       		.uleb128 0x1
 1317 0085 13       		.uleb128 0x13
 1318 0086 00       		.byte	0
 1319 0087 00       		.byte	0
 1320 0088 0B       		.uleb128 0xb
 1321 0089 0F       		.uleb128 0xf
 1322 008a 00       		.byte	0
 1323 008b 0B       		.uleb128 0xb
 1324 008c 0B       		.uleb128 0xb
 1325 008d 49       		.uleb128 0x49
 1326 008e 13       		.uleb128 0x13
 1327 008f 00       		.byte	0
 1328 0090 00       		.byte	0
 1329 0091 0C       		.uleb128 0xc
 1330 0092 15       		.uleb128 0x15
 1331 0093 01       		.byte	0x1
 1332 0094 27       		.uleb128 0x27
 1333 0095 19       		.uleb128 0x19
 1334 0096 01       		.uleb128 0x1
 1335 0097 13       		.uleb128 0x13
 1336 0098 00       		.byte	0
 1337 0099 00       		.byte	0
 1338 009a 0D       		.uleb128 0xd
 1339 009b 05       		.uleb128 0x5
 1340 009c 00       		.byte	0
 1341 009d 49       		.uleb128 0x49
 1342 009e 13       		.uleb128 0x13
 1343 009f 00       		.byte	0
 1344 00a0 00       		.byte	0
 1345 00a1 0E       		.uleb128 0xe
 1346 00a2 0F       		.uleb128 0xf
 1347 00a3 00       		.byte	0
 1348 00a4 0B       		.uleb128 0xb
 1349 00a5 0B       		.uleb128 0xb
 1350 00a6 00       		.byte	0
 1351 00a7 00       		.byte	0
 1352 00a8 0F       		.uleb128 0xf
 1353 00a9 13       		.uleb128 0x13
 1354 00aa 01       		.byte	0x1
 1355 00ab 03       		.uleb128 0x3
 1356 00ac 0E       		.uleb128 0xe
 1357 00ad 0B       		.uleb128 0xb
 1358 00ae 05       		.uleb128 0x5
 1359 00af 3A       		.uleb128 0x3a
 1360 00b0 0B       		.uleb128 0xb
 1361 00b1 3B       		.uleb128 0x3b
 1362 00b2 05       		.uleb128 0x5
 1363 00b3 01       		.uleb128 0x1
ARM GAS  C:\cygwin\tmp\ccqhWB2v.s 			page 25


 1364 00b4 13       		.uleb128 0x13
 1365 00b5 00       		.byte	0
 1366 00b6 00       		.byte	0
 1367 00b7 10       		.uleb128 0x10
 1368 00b8 0D       		.uleb128 0xd
 1369 00b9 00       		.byte	0
 1370 00ba 03       		.uleb128 0x3
 1371 00bb 08       		.uleb128 0x8
 1372 00bc 3A       		.uleb128 0x3a
 1373 00bd 0B       		.uleb128 0xb
 1374 00be 3B       		.uleb128 0x3b
 1375 00bf 0B       		.uleb128 0xb
 1376 00c0 49       		.uleb128 0x49
 1377 00c1 13       		.uleb128 0x13
 1378 00c2 38       		.uleb128 0x38
 1379 00c3 0B       		.uleb128 0xb
 1380 00c4 00       		.byte	0
 1381 00c5 00       		.byte	0
 1382 00c6 11       		.uleb128 0x11
 1383 00c7 13       		.uleb128 0x13
 1384 00c8 01       		.byte	0x1
 1385 00c9 0B       		.uleb128 0xb
 1386 00ca 0B       		.uleb128 0xb
 1387 00cb 3A       		.uleb128 0x3a
 1388 00cc 0B       		.uleb128 0xb
 1389 00cd 3B       		.uleb128 0x3b
 1390 00ce 0B       		.uleb128 0xb
 1391 00cf 01       		.uleb128 0x1
 1392 00d0 13       		.uleb128 0x13
 1393 00d1 00       		.byte	0
 1394 00d2 00       		.byte	0
 1395 00d3 12       		.uleb128 0x12
 1396 00d4 17       		.uleb128 0x17
 1397 00d5 01       		.byte	0x1
 1398 00d6 0B       		.uleb128 0xb
 1399 00d7 0B       		.uleb128 0xb
 1400 00d8 3A       		.uleb128 0x3a
 1401 00d9 0B       		.uleb128 0xb
 1402 00da 3B       		.uleb128 0x3b
 1403 00db 0B       		.uleb128 0xb
 1404 00dc 01       		.uleb128 0x1
 1405 00dd 13       		.uleb128 0x13
 1406 00de 00       		.byte	0
 1407 00df 00       		.byte	0
 1408 00e0 13       		.uleb128 0x13
 1409 00e1 0D       		.uleb128 0xd
 1410 00e2 00       		.byte	0
 1411 00e3 03       		.uleb128 0x3
 1412 00e4 0E       		.uleb128 0xe
 1413 00e5 3A       		.uleb128 0x3a
 1414 00e6 0B       		.uleb128 0xb
 1415 00e7 3B       		.uleb128 0x3b
 1416 00e8 0B       		.uleb128 0xb
 1417 00e9 49       		.uleb128 0x49
 1418 00ea 13       		.uleb128 0x13
 1419 00eb 00       		.byte	0
 1420 00ec 00       		.byte	0
ARM GAS  C:\cygwin\tmp\ccqhWB2v.s 			page 26


 1421 00ed 14       		.uleb128 0x14
 1422 00ee 0D       		.uleb128 0xd
 1423 00ef 00       		.byte	0
 1424 00f0 03       		.uleb128 0x3
 1425 00f1 0E       		.uleb128 0xe
 1426 00f2 3A       		.uleb128 0x3a
 1427 00f3 0B       		.uleb128 0xb
 1428 00f4 3B       		.uleb128 0x3b
 1429 00f5 05       		.uleb128 0x5
 1430 00f6 49       		.uleb128 0x49
 1431 00f7 13       		.uleb128 0x13
 1432 00f8 00       		.byte	0
 1433 00f9 00       		.byte	0
 1434 00fa 15       		.uleb128 0x15
 1435 00fb 26       		.uleb128 0x26
 1436 00fc 00       		.byte	0
 1437 00fd 49       		.uleb128 0x49
 1438 00fe 13       		.uleb128 0x13
 1439 00ff 00       		.byte	0
 1440 0100 00       		.byte	0
 1441 0101 16       		.uleb128 0x16
 1442 0102 01       		.uleb128 0x1
 1443 0103 01       		.byte	0x1
 1444 0104 49       		.uleb128 0x49
 1445 0105 13       		.uleb128 0x13
 1446 0106 01       		.uleb128 0x1
 1447 0107 13       		.uleb128 0x13
 1448 0108 00       		.byte	0
 1449 0109 00       		.byte	0
 1450 010a 17       		.uleb128 0x17
 1451 010b 21       		.uleb128 0x21
 1452 010c 00       		.byte	0
 1453 010d 49       		.uleb128 0x49
 1454 010e 13       		.uleb128 0x13
 1455 010f 2F       		.uleb128 0x2f
 1456 0110 0B       		.uleb128 0xb
 1457 0111 00       		.byte	0
 1458 0112 00       		.byte	0
 1459 0113 18       		.uleb128 0x18
 1460 0114 15       		.uleb128 0x15
 1461 0115 01       		.byte	0x1
 1462 0116 27       		.uleb128 0x27
 1463 0117 19       		.uleb128 0x19
 1464 0118 49       		.uleb128 0x49
 1465 0119 13       		.uleb128 0x13
 1466 011a 01       		.uleb128 0x1
 1467 011b 13       		.uleb128 0x13
 1468 011c 00       		.byte	0
 1469 011d 00       		.byte	0
 1470 011e 19       		.uleb128 0x19
 1471 011f 2E       		.uleb128 0x2e
 1472 0120 01       		.byte	0x1
 1473 0121 03       		.uleb128 0x3
 1474 0122 08       		.uleb128 0x8
 1475 0123 3A       		.uleb128 0x3a
 1476 0124 0B       		.uleb128 0xb
 1477 0125 3B       		.uleb128 0x3b
ARM GAS  C:\cygwin\tmp\ccqhWB2v.s 			page 27


 1478 0126 0B       		.uleb128 0xb
 1479 0127 27       		.uleb128 0x27
 1480 0128 19       		.uleb128 0x19
 1481 0129 49       		.uleb128 0x49
 1482 012a 13       		.uleb128 0x13
 1483 012b 20       		.uleb128 0x20
 1484 012c 0B       		.uleb128 0xb
 1485 012d 01       		.uleb128 0x1
 1486 012e 13       		.uleb128 0x13
 1487 012f 00       		.byte	0
 1488 0130 00       		.byte	0
 1489 0131 1A       		.uleb128 0x1a
 1490 0132 05       		.uleb128 0x5
 1491 0133 00       		.byte	0
 1492 0134 03       		.uleb128 0x3
 1493 0135 08       		.uleb128 0x8
 1494 0136 3A       		.uleb128 0x3a
 1495 0137 0B       		.uleb128 0xb
 1496 0138 3B       		.uleb128 0x3b
 1497 0139 0B       		.uleb128 0xb
 1498 013a 49       		.uleb128 0x49
 1499 013b 13       		.uleb128 0x13
 1500 013c 00       		.byte	0
 1501 013d 00       		.byte	0
 1502 013e 1B       		.uleb128 0x1b
 1503 013f 2E       		.uleb128 0x2e
 1504 0140 01       		.byte	0x1
 1505 0141 03       		.uleb128 0x3
 1506 0142 08       		.uleb128 0x8
 1507 0143 3A       		.uleb128 0x3a
 1508 0144 0B       		.uleb128 0xb
 1509 0145 3B       		.uleb128 0x3b
 1510 0146 0B       		.uleb128 0xb
 1511 0147 27       		.uleb128 0x27
 1512 0148 19       		.uleb128 0x19
 1513 0149 49       		.uleb128 0x49
 1514 014a 13       		.uleb128 0x13
 1515 014b 11       		.uleb128 0x11
 1516 014c 01       		.uleb128 0x1
 1517 014d 12       		.uleb128 0x12
 1518 014e 06       		.uleb128 0x6
 1519 014f 40       		.uleb128 0x40
 1520 0150 18       		.uleb128 0x18
 1521 0151 9742     		.uleb128 0x2117
 1522 0153 19       		.uleb128 0x19
 1523 0154 01       		.uleb128 0x1
 1524 0155 13       		.uleb128 0x13
 1525 0156 00       		.byte	0
 1526 0157 00       		.byte	0
 1527 0158 1C       		.uleb128 0x1c
 1528 0159 05       		.uleb128 0x5
 1529 015a 00       		.byte	0
 1530 015b 03       		.uleb128 0x3
 1531 015c 08       		.uleb128 0x8
 1532 015d 3A       		.uleb128 0x3a
 1533 015e 0B       		.uleb128 0xb
 1534 015f 3B       		.uleb128 0x3b
ARM GAS  C:\cygwin\tmp\ccqhWB2v.s 			page 28


 1535 0160 0B       		.uleb128 0xb
 1536 0161 49       		.uleb128 0x49
 1537 0162 13       		.uleb128 0x13
 1538 0163 02       		.uleb128 0x2
 1539 0164 17       		.uleb128 0x17
 1540 0165 00       		.byte	0
 1541 0166 00       		.byte	0
 1542 0167 1D       		.uleb128 0x1d
 1543 0168 2E       		.uleb128 0x2e
 1544 0169 01       		.byte	0x1
 1545 016a 03       		.uleb128 0x3
 1546 016b 0E       		.uleb128 0xe
 1547 016c 3A       		.uleb128 0x3a
 1548 016d 0B       		.uleb128 0xb
 1549 016e 3B       		.uleb128 0x3b
 1550 016f 0B       		.uleb128 0xb
 1551 0170 27       		.uleb128 0x27
 1552 0171 19       		.uleb128 0x19
 1553 0172 49       		.uleb128 0x49
 1554 0173 13       		.uleb128 0x13
 1555 0174 11       		.uleb128 0x11
 1556 0175 01       		.uleb128 0x1
 1557 0176 12       		.uleb128 0x12
 1558 0177 06       		.uleb128 0x6
 1559 0178 40       		.uleb128 0x40
 1560 0179 18       		.uleb128 0x18
 1561 017a 9742     		.uleb128 0x2117
 1562 017c 19       		.uleb128 0x19
 1563 017d 01       		.uleb128 0x1
 1564 017e 13       		.uleb128 0x13
 1565 017f 00       		.byte	0
 1566 0180 00       		.byte	0
 1567 0181 1E       		.uleb128 0x1e
 1568 0182 05       		.uleb128 0x5
 1569 0183 00       		.byte	0
 1570 0184 03       		.uleb128 0x3
 1571 0185 08       		.uleb128 0x8
 1572 0186 3A       		.uleb128 0x3a
 1573 0187 0B       		.uleb128 0xb
 1574 0188 3B       		.uleb128 0x3b
 1575 0189 0B       		.uleb128 0xb
 1576 018a 49       		.uleb128 0x49
 1577 018b 13       		.uleb128 0x13
 1578 018c 02       		.uleb128 0x2
 1579 018d 18       		.uleb128 0x18
 1580 018e 00       		.byte	0
 1581 018f 00       		.byte	0
 1582 0190 1F       		.uleb128 0x1f
 1583 0191 2E       		.uleb128 0x2e
 1584 0192 01       		.byte	0x1
 1585 0193 31       		.uleb128 0x31
 1586 0194 13       		.uleb128 0x13
 1587 0195 11       		.uleb128 0x11
 1588 0196 01       		.uleb128 0x1
 1589 0197 12       		.uleb128 0x12
 1590 0198 06       		.uleb128 0x6
 1591 0199 40       		.uleb128 0x40
ARM GAS  C:\cygwin\tmp\ccqhWB2v.s 			page 29


 1592 019a 18       		.uleb128 0x18
 1593 019b 9742     		.uleb128 0x2117
 1594 019d 19       		.uleb128 0x19
 1595 019e 01       		.uleb128 0x1
 1596 019f 13       		.uleb128 0x13
 1597 01a0 00       		.byte	0
 1598 01a1 00       		.byte	0
 1599 01a2 20       		.uleb128 0x20
 1600 01a3 05       		.uleb128 0x5
 1601 01a4 00       		.byte	0
 1602 01a5 31       		.uleb128 0x31
 1603 01a6 13       		.uleb128 0x13
 1604 01a7 02       		.uleb128 0x2
 1605 01a8 17       		.uleb128 0x17
 1606 01a9 00       		.byte	0
 1607 01aa 00       		.byte	0
 1608 01ab 21       		.uleb128 0x21
 1609 01ac 898201   		.uleb128 0x4109
 1610 01af 00       		.byte	0
 1611 01b0 11       		.uleb128 0x11
 1612 01b1 01       		.uleb128 0x1
 1613 01b2 31       		.uleb128 0x31
 1614 01b3 13       		.uleb128 0x13
 1615 01b4 00       		.byte	0
 1616 01b5 00       		.byte	0
 1617 01b6 22       		.uleb128 0x22
 1618 01b7 34       		.uleb128 0x34
 1619 01b8 00       		.byte	0
 1620 01b9 03       		.uleb128 0x3
 1621 01ba 08       		.uleb128 0x8
 1622 01bb 3A       		.uleb128 0x3a
 1623 01bc 0B       		.uleb128 0xb
 1624 01bd 3B       		.uleb128 0x3b
 1625 01be 0B       		.uleb128 0xb
 1626 01bf 49       		.uleb128 0x49
 1627 01c0 13       		.uleb128 0x13
 1628 01c1 02       		.uleb128 0x2
 1629 01c2 17       		.uleb128 0x17
 1630 01c3 00       		.byte	0
 1631 01c4 00       		.byte	0
 1632 01c5 23       		.uleb128 0x23
 1633 01c6 1D       		.uleb128 0x1d
 1634 01c7 01       		.byte	0x1
 1635 01c8 31       		.uleb128 0x31
 1636 01c9 13       		.uleb128 0x13
 1637 01ca 11       		.uleb128 0x11
 1638 01cb 01       		.uleb128 0x1
 1639 01cc 12       		.uleb128 0x12
 1640 01cd 06       		.uleb128 0x6
 1641 01ce 58       		.uleb128 0x58
 1642 01cf 0B       		.uleb128 0xb
 1643 01d0 59       		.uleb128 0x59
 1644 01d1 0B       		.uleb128 0xb
 1645 01d2 00       		.byte	0
 1646 01d3 00       		.byte	0
 1647 01d4 24       		.uleb128 0x24
 1648 01d5 2E       		.uleb128 0x2e
ARM GAS  C:\cygwin\tmp\ccqhWB2v.s 			page 30


 1649 01d6 01       		.byte	0x1
 1650 01d7 3F       		.uleb128 0x3f
 1651 01d8 19       		.uleb128 0x19
 1652 01d9 03       		.uleb128 0x3
 1653 01da 0E       		.uleb128 0xe
 1654 01db 3A       		.uleb128 0x3a
 1655 01dc 0B       		.uleb128 0xb
 1656 01dd 3B       		.uleb128 0x3b
 1657 01de 0B       		.uleb128 0xb
 1658 01df 27       		.uleb128 0x27
 1659 01e0 19       		.uleb128 0x19
 1660 01e1 11       		.uleb128 0x11
 1661 01e2 01       		.uleb128 0x1
 1662 01e3 12       		.uleb128 0x12
 1663 01e4 06       		.uleb128 0x6
 1664 01e5 40       		.uleb128 0x40
 1665 01e6 18       		.uleb128 0x18
 1666 01e7 9742     		.uleb128 0x2117
 1667 01e9 19       		.uleb128 0x19
 1668 01ea 01       		.uleb128 0x1
 1669 01eb 13       		.uleb128 0x13
 1670 01ec 00       		.byte	0
 1671 01ed 00       		.byte	0
 1672 01ee 25       		.uleb128 0x25
 1673 01ef 05       		.uleb128 0x5
 1674 01f0 00       		.byte	0
 1675 01f1 03       		.uleb128 0x3
 1676 01f2 0E       		.uleb128 0xe
 1677 01f3 3A       		.uleb128 0x3a
 1678 01f4 0B       		.uleb128 0xb
 1679 01f5 3B       		.uleb128 0x3b
 1680 01f6 0B       		.uleb128 0xb
 1681 01f7 49       		.uleb128 0x49
 1682 01f8 13       		.uleb128 0x13
 1683 01f9 02       		.uleb128 0x2
 1684 01fa 18       		.uleb128 0x18
 1685 01fb 00       		.byte	0
 1686 01fc 00       		.byte	0
 1687 01fd 26       		.uleb128 0x26
 1688 01fe 34       		.uleb128 0x34
 1689 01ff 00       		.byte	0
 1690 0200 03       		.uleb128 0x3
 1691 0201 08       		.uleb128 0x8
 1692 0202 3A       		.uleb128 0x3a
 1693 0203 0B       		.uleb128 0xb
 1694 0204 3B       		.uleb128 0x3b
 1695 0205 0B       		.uleb128 0xb
 1696 0206 49       		.uleb128 0x49
 1697 0207 13       		.uleb128 0x13
 1698 0208 02       		.uleb128 0x2
 1699 0209 18       		.uleb128 0x18
 1700 020a 00       		.byte	0
 1701 020b 00       		.byte	0
 1702 020c 27       		.uleb128 0x27
 1703 020d 34       		.uleb128 0x34
 1704 020e 00       		.byte	0
 1705 020f 03       		.uleb128 0x3
ARM GAS  C:\cygwin\tmp\ccqhWB2v.s 			page 31


 1706 0210 0E       		.uleb128 0xe
 1707 0211 3A       		.uleb128 0x3a
 1708 0212 0B       		.uleb128 0xb
 1709 0213 3B       		.uleb128 0x3b
 1710 0214 05       		.uleb128 0x5
 1711 0215 49       		.uleb128 0x49
 1712 0216 13       		.uleb128 0x13
 1713 0217 3F       		.uleb128 0x3f
 1714 0218 19       		.uleb128 0x19
 1715 0219 3C       		.uleb128 0x3c
 1716 021a 19       		.uleb128 0x19
 1717 021b 00       		.byte	0
 1718 021c 00       		.byte	0
 1719 021d 28       		.uleb128 0x28
 1720 021e 34       		.uleb128 0x34
 1721 021f 00       		.byte	0
 1722 0220 03       		.uleb128 0x3
 1723 0221 08       		.uleb128 0x8
 1724 0222 3A       		.uleb128 0x3a
 1725 0223 0B       		.uleb128 0xb
 1726 0224 3B       		.uleb128 0x3b
 1727 0225 05       		.uleb128 0x5
 1728 0226 49       		.uleb128 0x49
 1729 0227 13       		.uleb128 0x13
 1730 0228 3F       		.uleb128 0x3f
 1731 0229 19       		.uleb128 0x19
 1732 022a 3C       		.uleb128 0x3c
 1733 022b 19       		.uleb128 0x19
 1734 022c 00       		.byte	0
 1735 022d 00       		.byte	0
 1736 022e 29       		.uleb128 0x29
 1737 022f 2E       		.uleb128 0x2e
 1738 0230 01       		.byte	0x1
 1739 0231 3F       		.uleb128 0x3f
 1740 0232 19       		.uleb128 0x19
 1741 0233 03       		.uleb128 0x3
 1742 0234 0E       		.uleb128 0xe
 1743 0235 3A       		.uleb128 0x3a
 1744 0236 0B       		.uleb128 0xb
 1745 0237 3B       		.uleb128 0x3b
 1746 0238 0B       		.uleb128 0xb
 1747 0239 27       		.uleb128 0x27
 1748 023a 19       		.uleb128 0x19
 1749 023b 3C       		.uleb128 0x3c
 1750 023c 19       		.uleb128 0x19
 1751 023d 00       		.byte	0
 1752 023e 00       		.byte	0
 1753 023f 00       		.byte	0
 1754              		.section	.debug_loc,"",%progbits
 1755              	.Ldebug_loc0:
 1756              	.LLST0:
 1757 0000 00000000 		.4byte	.LVL0
 1758 0004 02000000 		.4byte	.LVL1
 1759 0008 0100     		.2byte	0x1
 1760 000a 50       		.byte	0x50
 1761 000b 02000000 		.4byte	.LVL1
 1762 000f 04000000 		.4byte	.LFE256
ARM GAS  C:\cygwin\tmp\ccqhWB2v.s 			page 32


 1763 0013 0400     		.2byte	0x4
 1764 0015 F3       		.byte	0xf3
 1765 0016 01       		.uleb128 0x1
 1766 0017 50       		.byte	0x50
 1767 0018 9F       		.byte	0x9f
 1768 0019 00000000 		.4byte	0
 1769 001d 00000000 		.4byte	0
 1770              	.LLST1:
 1771 0021 00000000 		.4byte	.LVL2
 1772 0025 02000000 		.4byte	.LVL3
 1773 0029 0100     		.2byte	0x1
 1774 002b 50       		.byte	0x50
 1775 002c 02000000 		.4byte	.LVL3
 1776 0030 04000000 		.4byte	.LFE258
 1777 0034 0400     		.2byte	0x4
 1778 0036 F3       		.byte	0xf3
 1779 0037 01       		.uleb128 0x1
 1780 0038 50       		.byte	0x50
 1781 0039 9F       		.byte	0x9f
 1782 003a 00000000 		.4byte	0
 1783 003e 00000000 		.4byte	0
 1784              	.LLST2:
 1785 0042 00000000 		.4byte	.LVL4
 1786 0046 04000000 		.4byte	.LVL5
 1787 004a 0100     		.2byte	0x1
 1788 004c 50       		.byte	0x50
 1789 004d 04000000 		.4byte	.LVL5
 1790 0051 0C000000 		.4byte	.LFE255
 1791 0055 0400     		.2byte	0x4
 1792 0057 F3       		.byte	0xf3
 1793 0058 01       		.uleb128 0x1
 1794 0059 50       		.byte	0x50
 1795 005a 9F       		.byte	0x9f
 1796 005b 00000000 		.4byte	0
 1797 005f 00000000 		.4byte	0
 1798              	.LLST3:
 1799 0063 00000000 		.4byte	.LVL4
 1800 0067 07000000 		.4byte	.LVL6-1
 1801 006b 0100     		.2byte	0x1
 1802 006d 51       		.byte	0x51
 1803 006e 07000000 		.4byte	.LVL6-1
 1804 0072 0C000000 		.4byte	.LFE255
 1805 0076 0400     		.2byte	0x4
 1806 0078 F3       		.byte	0xf3
 1807 0079 01       		.uleb128 0x1
 1808 007a 51       		.byte	0x51
 1809 007b 9F       		.byte	0x9f
 1810 007c 00000000 		.4byte	0
 1811 0080 00000000 		.4byte	0
 1812              	.LLST4:
 1813 0084 00000000 		.4byte	.LVL7
 1814 0088 0A000000 		.4byte	.LVL9
 1815 008c 0100     		.2byte	0x1
 1816 008e 50       		.byte	0x50
 1817 008f 0A000000 		.4byte	.LVL9
 1818 0093 1A000000 		.4byte	.LFE257
 1819 0097 0400     		.2byte	0x4
ARM GAS  C:\cygwin\tmp\ccqhWB2v.s 			page 33


 1820 0099 F3       		.byte	0xf3
 1821 009a 01       		.uleb128 0x1
 1822 009b 50       		.byte	0x50
 1823 009c 9F       		.byte	0x9f
 1824 009d 00000000 		.4byte	0
 1825 00a1 00000000 		.4byte	0
 1826              	.LLST5:
 1827 00a5 00000000 		.4byte	.LVL7
 1828 00a9 00000000 		.4byte	.LVL7
 1829 00ad 0100     		.2byte	0x1
 1830 00af 51       		.byte	0x51
 1831 00b0 00000000 		.4byte	.LVL7
 1832 00b4 08000000 		.4byte	.LVL8
 1833 00b8 0100     		.2byte	0x1
 1834 00ba 55       		.byte	0x55
 1835 00bb 0A000000 		.4byte	.LVL9
 1836 00bf 0E000000 		.4byte	.LVL10
 1837 00c3 0100     		.2byte	0x1
 1838 00c5 55       		.byte	0x55
 1839 00c6 0E000000 		.4byte	.LVL10
 1840 00ca 12000000 		.4byte	.LVL11
 1841 00ce 0300     		.2byte	0x3
 1842 00d0 75       		.byte	0x75
 1843 00d1 7F       		.sleb128 -1
 1844 00d2 9F       		.byte	0x9f
 1845 00d3 12000000 		.4byte	.LVL11
 1846 00d7 16000000 		.4byte	.LVL13
 1847 00db 0100     		.2byte	0x1
 1848 00dd 55       		.byte	0x55
 1849 00de 00000000 		.4byte	0
 1850 00e2 00000000 		.4byte	0
 1851              	.LLST6:
 1852 00e6 00000000 		.4byte	.LVL7
 1853 00ea 0A000000 		.4byte	.LVL9
 1854 00ee 0100     		.2byte	0x1
 1855 00f0 52       		.byte	0x52
 1856 00f1 0A000000 		.4byte	.LVL9
 1857 00f5 1A000000 		.4byte	.LFE257
 1858 00f9 0100     		.2byte	0x1
 1859 00fb 56       		.byte	0x56
 1860 00fc 00000000 		.4byte	0
 1861 0100 00000000 		.4byte	0
 1862              	.LLST7:
 1863 0104 00000000 		.4byte	.LVL7
 1864 0108 0A000000 		.4byte	.LVL9
 1865 010c 0100     		.2byte	0x1
 1866 010e 52       		.byte	0x52
 1867 010f 0A000000 		.4byte	.LVL9
 1868 0113 12000000 		.4byte	.LVL11
 1869 0117 0100     		.2byte	0x1
 1870 0119 54       		.byte	0x54
 1871 011a 12000000 		.4byte	.LVL11
 1872 011e 14000000 		.4byte	.LVL12
 1873 0122 0300     		.2byte	0x3
 1874 0124 74       		.byte	0x74
 1875 0125 7F       		.sleb128 -1
 1876 0126 9F       		.byte	0x9f
ARM GAS  C:\cygwin\tmp\ccqhWB2v.s 			page 34


 1877 0127 14000000 		.4byte	.LVL12
 1878 012b 16000000 		.4byte	.LVL13
 1879 012f 0100     		.2byte	0x1
 1880 0131 54       		.byte	0x54
 1881 0132 00000000 		.4byte	0
 1882 0136 00000000 		.4byte	0
 1883              	.LLST8:
 1884 013a 0A000000 		.4byte	.LVL9
 1885 013e 0E000000 		.4byte	.LVL10
 1886 0142 0200     		.2byte	0x2
 1887 0144 75       		.byte	0x75
 1888 0145 00       		.sleb128 0
 1889 0146 0E000000 		.4byte	.LVL10
 1890 014a 11000000 		.4byte	.LVL11-1
 1891 014e 0200     		.2byte	0x2
 1892 0150 75       		.byte	0x75
 1893 0151 7F       		.sleb128 -1
 1894 0152 00000000 		.4byte	0
 1895 0156 00000000 		.4byte	0
 1896              	.LLST9:
 1897 015a 0A000000 		.4byte	.LVL9
 1898 015e 16000000 		.4byte	.LVL13
 1899 0162 0400     		.2byte	0x4
 1900 0164 F3       		.byte	0xf3
 1901 0165 01       		.uleb128 0x1
 1902 0166 50       		.byte	0x50
 1903 0167 9F       		.byte	0x9f
 1904 0168 00000000 		.4byte	0
 1905 016c 00000000 		.4byte	0
 1906              		.section	.debug_aranges,"",%progbits
 1907 0000 3C000000 		.4byte	0x3c
 1908 0004 0200     		.2byte	0x2
 1909 0006 00000000 		.4byte	.Ldebug_info0
 1910 000a 04       		.byte	0x4
 1911 000b 00       		.byte	0
 1912 000c 0000     		.2byte	0
 1913 000e 0000     		.2byte	0
 1914 0010 00000000 		.4byte	.LFB256
 1915 0014 04000000 		.4byte	.LFE256-.LFB256
 1916 0018 00000000 		.4byte	.LFB258
 1917 001c 04000000 		.4byte	.LFE258-.LFB258
 1918 0020 00000000 		.4byte	.LFB255
 1919 0024 0C000000 		.4byte	.LFE255-.LFB255
 1920 0028 00000000 		.4byte	.LFB257
 1921 002c 1A000000 		.4byte	.LFE257-.LFB257
 1922 0030 00000000 		.4byte	.LFB259
 1923 0034 0C000000 		.4byte	.LFE259-.LFB259
 1924 0038 00000000 		.4byte	0
 1925 003c 00000000 		.4byte	0
 1926              		.section	.debug_ranges,"",%progbits
 1927              	.Ldebug_ranges0:
 1928 0000 00000000 		.4byte	.LFB256
 1929 0004 04000000 		.4byte	.LFE256
 1930 0008 00000000 		.4byte	.LFB258
 1931 000c 04000000 		.4byte	.LFE258
 1932 0010 00000000 		.4byte	.LFB255
 1933 0014 0C000000 		.4byte	.LFE255
ARM GAS  C:\cygwin\tmp\ccqhWB2v.s 			page 35


 1934 0018 00000000 		.4byte	.LFB257
 1935 001c 1A000000 		.4byte	.LFE257
 1936 0020 00000000 		.4byte	.LFB259
 1937 0024 0C000000 		.4byte	.LFE259
 1938 0028 00000000 		.4byte	0
 1939 002c 00000000 		.4byte	0
 1940              		.section	.debug_line,"",%progbits
 1941              	.Ldebug_line0:
 1942 0000 91020000 		.section	.debug_str,"MS",%progbits,1
 1942      02003102 
 1942      00000201 
 1942      FB0E0D00 
 1942      01010101 
 1943              	.LASF21:
 1944 0000 74726566 		.ascii	"trefs_t\000"
 1944      735F7400 
 1945              	.LASF49:
 1946 0008 72656164 		.ascii	"ready_list_t\000"
 1946      795F6C69 
 1946      73745F74 
 1946      00
 1947              	.LASF2:
 1948 0015 73697A65 		.ascii	"size_t\000"
 1948      5F7400
 1949              	.LASF84:
 1950 001c 7264796D 		.ascii	"rdymsg\000"
 1950      736700
 1951              	.LASF17:
 1952 0023 75696E74 		.ascii	"uint64_t\000"
 1952      36345F74 
 1952      00
 1953              	.LASF107:
 1954 002c 44656275 		.ascii	"Debug_ITMDebugOutputChar\000"
 1954      675F4954 
 1954      4D446562 
 1954      75674F75 
 1954      74707574 
 1955              	.LASF3:
 1956 0045 5F5F7569 		.ascii	"__uint8_t\000"
 1956      6E74385F 
 1956      7400
 1957              	.LASF81:
 1958 004f 706F7274 		.ascii	"port_intctx\000"
 1958      5F696E74 
 1958      63747800 
 1959              	.LASF68:
 1960 005b 73797374 		.ascii	"system_debug_t\000"
 1960      656D5F64 
 1960      65627567 
 1960      5F7400
 1961              	.LASF13:
 1962 006a 6C6F6E67 		.ascii	"long long unsigned int\000"
 1962      206C6F6E 
 1962      6720756E 
 1962      7369676E 
 1962      65642069 
 1963              	.LASF85:
ARM GAS  C:\cygwin\tmp\ccqhWB2v.s 			page 36


 1964 0081 65786974 		.ascii	"exitcode\000"
 1964      636F6465 
 1964      00
 1965              	.LASF75:
 1966 008a 6D61696E 		.ascii	"mainthread\000"
 1966      74687265 
 1966      616400
 1967              	.LASF65:
 1968 0095 76697274 		.ascii	"virtual_timers_list_t\000"
 1968      75616C5F 
 1968      74696D65 
 1968      72735F6C 
 1968      6973745F 
 1969              	.LASF102:
 1970 00ab 49544D5F 		.ascii	"ITM_RxBuffer\000"
 1970      52784275 
 1970      66666572 
 1970      00
 1971              	.LASF48:
 1972 00b8 63685F74 		.ascii	"ch_threads_queue\000"
 1972      68726561 
 1972      64735F71 
 1972      75657565 
 1972      00
 1973              	.LASF29:
 1974 00c9 705F7072 		.ascii	"p_prio\000"
 1974      696F00
 1975              	.LASF99:
 1976 00d0 72656164 		.ascii	"reads\000"
 1976      7300
 1977              	.LASF11:
 1978 00d6 6C6F6E67 		.ascii	"long long int\000"
 1978      206C6F6E 
 1978      6720696E 
 1978      7400
 1979              	.LASF1:
 1980 00e4 7369676E 		.ascii	"signed char\000"
 1980      65642063 
 1980      68617200 
 1981              	.LASF43:
 1982 00f0 705F6D70 		.ascii	"p_mpool\000"
 1982      6F6F6C00 
 1983              	.LASF90:
 1984 00f8 6D5F7175 		.ascii	"m_queue\000"
 1984      65756500 
 1985              	.LASF74:
 1986 0100 76746C69 		.ascii	"vtlist\000"
 1986      737400
 1987              	.LASF72:
 1988 0107 63685F73 		.ascii	"ch_system\000"
 1988      79737465 
 1988      6D00
 1989              	.LASF8:
 1990 0111 6C6F6E67 		.ascii	"long int\000"
 1990      20696E74 
 1990      00
 1991              	.LASF20:
ARM GAS  C:\cygwin\tmp\ccqhWB2v.s 			page 37


 1992 011a 74737461 		.ascii	"tstate_t\000"
 1992      74655F74 
 1992      00
 1993              	.LASF31:
 1994 0123 705F6E65 		.ascii	"p_newer\000"
 1994      77657200 
 1995              	.LASF54:
 1996 012b 725F6E65 		.ascii	"r_newer\000"
 1996      77657200 
 1997              	.LASF78:
 1998 0133 72656761 		.ascii	"regarm_t\000"
 1998      726D5F74 
 1998      00
 1999              	.LASF61:
 2000 013c 76745F70 		.ascii	"vt_prev\000"
 2000      72657600 
 2001              	.LASF93:
 2002 0144 6D757465 		.ascii	"mutex_t\000"
 2002      785F7400 
 2003              	.LASF76:
 2004 014c 69646C65 		.ascii	"idle_thread_wa\000"
 2004      5F746872 
 2004      6561645F 
 2004      776100
 2005              	.LASF0:
 2006 015b 756E7369 		.ascii	"unsigned int\000"
 2006      676E6564 
 2006      20696E74 
 2006      00
 2007              	.LASF60:
 2008 0168 76745F6E 		.ascii	"vt_next\000"
 2008      65787400 
 2009              	.LASF38:
 2010 0170 705F6D73 		.ascii	"p_msgqueue\000"
 2010      67717565 
 2010      756500
 2011              	.LASF6:
 2012 017b 73686F72 		.ascii	"short unsigned int\000"
 2012      7420756E 
 2012      7369676E 
 2012      65642069 
 2012      6E7400
 2013              	.LASF45:
 2014 018e 63685F74 		.ascii	"ch_thread\000"
 2014      68726561 
 2014      6400
 2015              	.LASF23:
 2016 0198 6D73675F 		.ascii	"msg_t\000"
 2016      7400
 2017              	.LASF71:
 2018 019e 63685F73 		.ascii	"ch_system_t\000"
 2018      79737465 
 2018      6D5F7400 
 2019              	.LASF100:
 2020 01aa 77726974 		.ascii	"writes\000"
 2020      657300
 2021              	.LASF19:
ARM GAS  C:\cygwin\tmp\ccqhWB2v.s 			page 38


 2022 01b1 746D6F64 		.ascii	"tmode_t\000"
 2022      655F7400 
 2023              	.LASF50:
 2024 01b9 63685F72 		.ascii	"ch_ready_list\000"
 2024      65616479 
 2024      5F6C6973 
 2024      7400
 2025              	.LASF24:
 2026 01c7 6576656E 		.ascii	"eventmask_t\000"
 2026      746D6173 
 2026      6B5F7400 
 2027              	.LASF7:
 2028 01d3 5F5F696E 		.ascii	"__int32_t\000"
 2028      7433325F 
 2028      7400
 2029              	.LASF103:
 2030 01dd 474E5520 		.ascii	"GNU C 4.9.3 20141119 (release) [ARM/embedded-4_9-br"
 2030      4320342E 
 2030      392E3320 
 2030      32303134 
 2030      31313139 
 2031 0210 616E6368 		.ascii	"anch revision 218278] -mcpu=cortex-m4 -mno-thumb-in"
 2031      20726576 
 2031      6973696F 
 2031      6E203231 
 2031      38323738 
 2032 0243 74657277 		.ascii	"terwork -mthumb -ggdb -O2 -fomit-frame-pointer -fal"
 2032      6F726B20 
 2032      2D6D7468 
 2032      756D6220 
 2032      2D676764 
 2033 0276 69676E2D 		.ascii	"ign-functions=16 -ffunction-sections -fdata-section"
 2033      66756E63 
 2033      74696F6E 
 2033      733D3136 
 2033      202D6666 
 2034 02a9 73202D66 		.ascii	"s -fno-common\000"
 2034      6E6F2D63 
 2034      6F6D6D6F 
 2034      6E00
 2035              	.LASF79:
 2036 02b7 73746B61 		.ascii	"stkalign_t\000"
 2036      6C69676E 
 2036      5F7400
 2037              	.LASF96:
 2038 02c2 77726974 		.ascii	"write\000"
 2038      6500
 2039              	.LASF37:
 2040 02c8 705F7761 		.ascii	"p_waiting\000"
 2040      6974696E 
 2040      6700
 2041              	.LASF77:
 2042 02d2 73697A65 		.ascii	"sizetype\000"
 2042      74797065 
 2042      00
 2043              	.LASF66:
 2044 02db 63685F76 		.ascii	"ch_virtual_timers_list\000"
ARM GAS  C:\cygwin\tmp\ccqhWB2v.s 			page 39


 2044      69727475 
 2044      616C5F74 
 2044      696D6572 
 2044      735F6C69 
 2045              	.LASF67:
 2046 02f2 76745F6C 		.ascii	"vt_lasttime\000"
 2046      61737474 
 2046      696D6500 
 2047              	.LASF32:
 2048 02fe 705F6F6C 		.ascii	"p_older\000"
 2048      64657200 
 2049              	.LASF53:
 2050 0306 725F6374 		.ascii	"r_ctx\000"
 2050      7800
 2051              	.LASF83:
 2052 030c 746D5F63 		.ascii	"tm_calibration_t\000"
 2052      616C6962 
 2052      72617469 
 2052      6F6E5F74 
 2052      00
 2053              	.LASF56:
 2054 031d 725F6375 		.ascii	"r_current\000"
 2054      7272656E 
 2054      7400
 2055              	.LASF55:
 2056 0327 725F6F6C 		.ascii	"r_older\000"
 2056      64657200 
 2057              	.LASF12:
 2058 032f 5F5F7569 		.ascii	"__uint64_t\000"
 2058      6E743634 
 2058      5F7400
 2059              	.LASF105:
 2060 033a 433A5C55 		.ascii	"C:\\Users\\Jo\\Documents\\GitHub\\ChibiOS\\demos\\S"
 2060      73657273 
 2060      5C4A6F5C 
 2060      446F6375 
 2060      6D656E74 
 2061 0366 544D3332 		.ascii	"TM32\\RT-STM32F401RE-NUCLEO\000"
 2061      5C52542D 
 2061      53544D33 
 2061      32463430 
 2061      3152452D 
 2062              	.LASF98:
 2063 0381 49544D53 		.ascii	"ITMStream\000"
 2063      74726561 
 2063      6D00
 2064              	.LASF58:
 2065 038b 76697274 		.ascii	"virtual_timer_t\000"
 2065      75616C5F 
 2065      74696D65 
 2065      725F7400 
 2066              	.LASF28:
 2067 039b 705F7072 		.ascii	"p_prev\000"
 2067      657600
 2068              	.LASF22:
 2069 03a2 74707269 		.ascii	"tprio_t\000"
 2069      6F5F7400 
ARM GAS  C:\cygwin\tmp\ccqhWB2v.s 			page 40


 2070              	.LASF89:
 2071 03aa 6D757465 		.ascii	"mutex\000"
 2071      7800
 2072              	.LASF69:
 2073 03b0 63685F73 		.ascii	"ch_system_debug\000"
 2073      79737465 
 2073      6D5F6465 
 2073      62756700 
 2074              	.LASF94:
 2075 03c0 5F426F6F 		.ascii	"_Bool\000"
 2075      6C00
 2076              	.LASF15:
 2077 03c6 696E7433 		.ascii	"int32_t\000"
 2077      325F7400 
 2078              	.LASF4:
 2079 03ce 756E7369 		.ascii	"unsigned char\000"
 2079      676E6564 
 2079      20636861 
 2079      7200
 2080              	.LASF34:
 2081 03dc 705F7374 		.ascii	"p_state\000"
 2081      61746500 
 2082              	.LASF41:
 2083 03e4 705F6D74 		.ascii	"p_mtxlist\000"
 2083      786C6973 
 2083      7400
 2084              	.LASF5:
 2085 03ee 73686F72 		.ascii	"short int\000"
 2085      7420696E 
 2085      7400
 2086              	.LASF52:
 2087 03f8 725F7072 		.ascii	"r_prio\000"
 2087      696F00
 2088              	.LASF87:
 2089 03ff 65776D61 		.ascii	"ewmask\000"
 2089      736B00
 2090              	.LASF27:
 2091 0406 705F6E65 		.ascii	"p_next\000"
 2091      787400
 2092              	.LASF35:
 2093 040d 705F666C 		.ascii	"p_flags\000"
 2093      61677300 
 2094              	.LASF59:
 2095 0415 63685F76 		.ascii	"ch_virtual_timer\000"
 2095      69727475 
 2095      616C5F74 
 2095      696D6572 
 2095      00
 2096              	.LASF40:
 2097 0426 705F6570 		.ascii	"p_epending\000"
 2097      656E6469 
 2097      6E6700
 2098              	.LASF16:
 2099 0431 75696E74 		.ascii	"uint32_t\000"
 2099      33325F74 
 2099      00
 2100              	.LASF51:
ARM GAS  C:\cygwin\tmp\ccqhWB2v.s 			page 41


 2101 043a 725F7175 		.ascii	"r_queue\000"
 2101      65756500 
 2102              	.LASF62:
 2103 0442 76745F64 		.ascii	"vt_delta\000"
 2103      656C7461 
 2103      00
 2104              	.LASF46:
 2105 044b 63685F74 		.ascii	"ch_threads_list\000"
 2105      68726561 
 2105      64735F6C 
 2105      69737400 
 2106              	.LASF10:
 2107 045b 6C6F6E67 		.ascii	"long unsigned int\000"
 2107      20756E73 
 2107      69676E65 
 2107      6420696E 
 2107      7400
 2108              	.LASF97:
 2109 046d 72656164 		.ascii	"read\000"
 2109      00
 2110              	.LASF88:
 2111 0472 63686172 		.ascii	"char\000"
 2111      00
 2112              	.LASF95:
 2113 0477 49544D53 		.ascii	"ITMStreamVMT\000"
 2113      74726561 
 2113      6D564D54 
 2113      00
 2114              	.LASF26:
 2115 0484 74687265 		.ascii	"thread_t\000"
 2115      61645F74 
 2115      00
 2116              	.LASF92:
 2117 048d 6D5F6E65 		.ascii	"m_next\000"
 2117      787400
 2118              	.LASF25:
 2119 0494 73797374 		.ascii	"systime_t\000"
 2119      696D655F 
 2119      7400
 2120              	.LASF42:
 2121 049e 705F7265 		.ascii	"p_realprio\000"
 2121      616C7072 
 2121      696F00
 2122              	.LASF57:
 2123 04a9 76746675 		.ascii	"vtfunc_t\000"
 2123      6E635F74 
 2123      00
 2124              	.LASF9:
 2125 04b2 5F5F7569 		.ascii	"__uint32_t\000"
 2125      6E743332 
 2125      5F7400
 2126              	.LASF106:
 2127 04bd 69746D4F 		.ascii	"itmObjectInit\000"
 2127      626A6563 
 2127      74496E69 
 2127      7400
 2128              	.LASF70:
ARM GAS  C:\cygwin\tmp\ccqhWB2v.s 			page 42


 2129 04cb 70616E69 		.ascii	"panic_msg\000"
 2129      635F6D73 
 2129      6700
 2130              	.LASF82:
 2131 04d5 6F666673 		.ascii	"offset\000"
 2131      657400
 2132              	.LASF80:
 2133 04dc 636F6E74 		.ascii	"context\000"
 2133      65787400 
 2134              	.LASF18:
 2135 04e4 7274636E 		.ascii	"rtcnt_t\000"
 2135      745F7400 
 2136              	.LASF64:
 2137 04ec 76745F70 		.ascii	"vt_par\000"
 2137      617200
 2138              	.LASF101:
 2139 04f3 7069746D 		.ascii	"pitm\000"
 2139      00
 2140              	.LASF47:
 2141 04f8 74687265 		.ascii	"threads_queue_t\000"
 2141      6164735F 
 2141      71756575 
 2141      655F7400 
 2142              	.LASF33:
 2143 0508 705F6E61 		.ascii	"p_name\000"
 2143      6D6500
 2144              	.LASF36:
 2145 050f 705F7265 		.ascii	"p_refs\000"
 2145      667300
 2146              	.LASF104:
 2147 0516 49544D5F 		.ascii	"ITM_trace.c\000"
 2147      74726163 
 2147      652E6300 
 2148              	.LASF73:
 2149 0522 726C6973 		.ascii	"rlist\000"
 2149      7400
 2150              	.LASF14:
 2151 0528 75696E74 		.ascii	"uint8_t\000"
 2151      385F7400 
 2152              	.LASF86:
 2153 0530 77746F62 		.ascii	"wtobjp\000"
 2153      6A7000
 2154              	.LASF44:
 2155 0537 74687265 		.ascii	"threads_list_t\000"
 2155      6164735F 
 2155      6C697374 
 2155      5F7400
 2156              	.LASF39:
 2157 0546 705F6D73 		.ascii	"p_msg\000"
 2157      6700
 2158              	.LASF91:
 2159 054c 6D5F6F77 		.ascii	"m_owner\000"
 2159      6E657200 
 2160              	.LASF30:
 2161 0554 705F6374 		.ascii	"p_ctx\000"
 2161      7800
 2162              	.LASF63:
ARM GAS  C:\cygwin\tmp\ccqhWB2v.s 			page 43


 2163 055a 76745F66 		.ascii	"vt_func\000"
 2163      756E6300 
 2164              		.ident	"GCC: (GNU Tools for ARM Embedded Processors) 4.9.3 20141119 (release) [ARM/embedded-4_9-br
ARM GAS  C:\cygwin\tmp\ccqhWB2v.s 			page 44


DEFINED SYMBOLS
                            *ABS*:00000000 ITM_trace.c
C:\cygwin\tmp\ccqhWB2v.s:19     .text.get:00000000 $t
C:\cygwin\tmp\ccqhWB2v.s:24     .text.get:00000000 get
C:\cygwin\tmp\ccqhWB2v.s:41     .text.reads:00000000 $t
C:\cygwin\tmp\ccqhWB2v.s:46     .text.reads:00000000 reads
C:\cygwin\tmp\ccqhWB2v.s:62     .text.put:00000000 $t
C:\cygwin\tmp\ccqhWB2v.s:67     .text.put:00000000 put
C:\cygwin\tmp\ccqhWB2v.s:90     .text.writes:00000000 $t
C:\cygwin\tmp\ccqhWB2v.s:95     .text.writes:00000000 writes
C:\cygwin\tmp\ccqhWB2v.s:138    .text.itmObjectInit:00000000 $t
C:\cygwin\tmp\ccqhWB2v.s:144    .text.itmObjectInit:00000000 itmObjectInit
C:\cygwin\tmp\ccqhWB2v.s:159    .text.itmObjectInit:00000008 $d
C:\cygwin\tmp\ccqhWB2v.s:164    .rodata.vmt:00000000 $d
C:\cygwin\tmp\ccqhWB2v.s:168    .rodata.vmt:00000000 vmt
                     .debug_frame:00000010 $d
C:\cygwin\tmp\ccqhWB2v.s:163    .text.itmObjectInit:0000000c $t

UNDEFINED SYMBOLS
Debug_ITMDebugOutputChar
