ARM GAS  C:\cygwin\tmp\ccqhWB2v.s 			page 1


   1              		.syntax unified
   2              		.cpu cortex-m4
   3              		.fpu softvfp
   4              		.eabi_attribute 20, 1
   5              		.eabi_attribute 21, 1
   6              		.eabi_attribute 23, 3
   7              		.eabi_attribute 24, 1
   8              		.eabi_attribute 25, 1
   9              		.eabi_attribute 26, 1
  10              		.eabi_attribute 30, 2
  11              		.eabi_attribute 34, 1
  12              		.eabi_attribute 18, 4
  13              		.thumb
  14              		.file	"ITM_trace.c"
  15              		.text
  16              	.Ltext0:
  17              		.cfi_sections	.debug_frame
  18              		.section	.text.get,"ax",%progbits
  19              		.align	2
  20              		.p2align 4,,15
  21              		.thumb
  22              		.thumb_func
  23              		.type	get, %function
  24              	get:
  25              	.LFB256:
  26              		.file 1 "ITM_trace.c"
  27              		.loc 1 48 0
  28              		.cfi_startproc
  29              		@ args = 0, pretend = 0, frame = 0
  30              		@ frame_needed = 0, uses_anonymous_args = 0
  31              		@ link register save eliminated.
  32              	.LVL0:
  33              		.loc 1 53 0
  34 0000 0420     		movs	r0, #4
  35              	.LVL1:
  36 0002 7047     		bx	lr
  37              		.cfi_endproc
  38              	.LFE256:
  39              		.size	get, .-get
  40 0004 AFF30080 		.section	.text.reads,"ax",%progbits
  40      AFF30080 
  40      AFF30080 
  41              		.align	2
  42              		.p2align 4,,15
  43              		.thumb
  44              		.thumb_func
  45              		.type	reads, %function
  46              	reads:
  47              	.LFB258:
  48              		.loc 1 67 0
  49              		.cfi_startproc
  50              		@ args = 0, pretend = 0, frame = 0
  51              		@ frame_needed = 0, uses_anonymous_args = 0
  52              		@ link register save eliminated.
  53              	.LVL2:
  54              		.loc 1 74 0
  55 0000 0020     		movs	r0, #0
ARM GAS  C:\cygwin\tmp\ccqhWB2v.s 			page 2


  56              	.LVL3:
  57 0002 7047     		bx	lr
  58              		.cfi_endproc
  59              	.LFE258:
  60              		.size	reads, .-reads
  61 0004 AFF30080 		.section	.text.put,"ax",%progbits
  61      AFF30080 
  61      AFF30080 
  62              		.align	2
  63              		.p2align 4,,15
  64              		.thumb
  65              		.thumb_func
  66              		.type	put, %function
  67              	put:
  68              	.LFB255:
  69              		.loc 1 39 0
  70              		.cfi_startproc
  71              		@ args = 0, pretend = 0, frame = 0
  72              		@ frame_needed = 0, uses_anonymous_args = 0
  73              	.LVL4:
  74 0000 08B5     		push	{r3, lr}
  75              		.cfi_def_cfa_offset 8
  76              		.cfi_offset 3, -8
  77              		.cfi_offset 14, -4
  78              		.loc 1 43 0
  79 0002 0846     		mov	r0, r1
  80              	.LVL5:
  81 0004 FFF7FEFF 		bl	Debug_ITMDebugOutputChar
  82              	.LVL6:
  83              		.loc 1 46 0
  84 0008 0020     		movs	r0, #0
  85 000a 08BD     		pop	{r3, pc}
  86              		.cfi_endproc
  87              	.LFE255:
  88              		.size	put, .-put
  89 000c AFF30080 		.section	.text.writes,"ax",%progbits
  90              		.align	2
  91              		.p2align 4,,15
  92              		.thumb
  93              		.thumb_func
  94              		.type	writes, %function
  95              	writes:
  96              	.LFB257:
  97              		.loc 1 55 0
  98              		.cfi_startproc
  99              		@ args = 0, pretend = 0, frame = 0
 100              		@ frame_needed = 0, uses_anonymous_args = 0
 101              	.LVL7:
 102 0000 70B5     		push	{r4, r5, r6, lr}
 103              		.cfi_def_cfa_offset 16
 104              		.cfi_offset 4, -16
 105              		.cfi_offset 5, -12
 106              		.cfi_offset 6, -8
 107              		.cfi_offset 14, -4
 108              		.loc 1 58 0
 109 0002 1646     		mov	r6, r2
 110 0004 3AB1     		cbz	r2, .L10
ARM GAS  C:\cygwin\tmp\ccqhWB2v.s 			page 3


 111 0006 0D46     		mov	r5, r1
 112              	.LVL8:
 113 0008 1446     		mov	r4, r2
 114              	.LVL9:
 115              	.L7:
 116              	.LBB4:
 117              	.LBB5:
 118              		.loc 1 43 0
 119 000a 15F8010B 		ldrb	r0, [r5], #1	@ zero_extendqisi2
 120              	.LVL10:
 121 000e FFF7FEFF 		bl	Debug_ITMDebugOutputChar
 122              	.LVL11:
 123              	.LBE5:
 124              	.LBE4:
 125              		.loc 1 58 0
 126 0012 013C     		subs	r4, r4, #1
 127              	.LVL12:
 128 0014 F9D1     		bne	.L7
 129              	.LVL13:
 130              	.L10:
 131              		.loc 1 65 0
 132 0016 3046     		mov	r0, r6
 133 0018 70BD     		pop	{r4, r5, r6, pc}
 134              		.cfi_endproc
 135              	.LFE257:
 136              		.size	writes, .-writes
 137 001a 00BFAFF3 		.section	.text.itmObjectInit,"ax",%progbits
 137      0080
 138              		.align	2
 139              		.p2align 4,,15
 140              		.global	itmObjectInit
 141              		.thumb
 142              		.thumb_func
 143              		.type	itmObjectInit, %function
 144              	itmObjectInit:
 145              	.LFB259:
 146              		.loc 1 87 0
 147              		.cfi_startproc
 148              		@ args = 0, pretend = 0, frame = 0
 149              		@ frame_needed = 0, uses_anonymous_args = 0
 150              		@ link register save eliminated.
 151              	.LVL14:
 152              		.loc 1 88 0
 153 0000 014B     		ldr	r3, .L14
 154 0002 0360     		str	r3, [r0]
 155 0004 7047     		bx	lr
 156              	.L15:
 157 0006 00BF     		.align	2
 158              	.L14:
 159 0008 00000000 		.word	.LANCHOR0
 160              		.cfi_endproc
 161              	.LFE259:
 162              		.size	itmObjectInit, .-itmObjectInit
 163 000c AFF30080 		.section	.rodata.vmt,"a",%progbits
 164              		.align	2
 165              		.set	.LANCHOR0,. + 0
 166              		.type	vmt, %object
ARM GAS  C:\cygwin\tmp\ccqhWB2v.s 			page 4


 167              		.size	vmt, 16
 168              	vmt:
 169 0000 00000000 		.word	writes
 170 0004 00000000 		.word	reads
 171 0008 00000000 		.word	put
 172 000c 00000000 		.word	get
 173              		.text
 174              	.Letext0:
 175              		.file 2 "c:\\program files\\gnu tools arm embedded\\4.9 2014q4\\lib\\gcc\\arm-none-eabi\\4.9.3\\in
 176              		.file 3 "c:\\program files\\gnu tools arm embedded\\4.9 2014q4\\arm-none-eabi\\include\\machine\\_
 177              		.file 4 "c:\\program files\\gnu tools arm embedded\\4.9 2014q4\\arm-none-eabi\\include\\stdint.h"
 178              		.file 5 "../../../os/rt/ports/ARMCMx/compilers/GCC/chtypes.h"
 179              		.file 6 "../../../os/rt/include/chsystypes.h"
 180              		.file 7 "../../../os/rt/include/chschd.h"
 181              		.file 8 "../../../os/rt/ports/ARMCMx/chcore.h"
 182              		.file 9 "../../../os/rt/ports/ARMCMx/chcore_v7m.h"
 183              		.file 10 "../../../os/rt/include/chtm.h"
 184              		.file 11 "../../../os/rt/include/chmtx.h"
 185              		.file 12 "ITM_trace.h"
 186              		.file 13 "../../../os/ext/CMSIS/include/core_cm4.h"