ARM GAS  C:\cygwin\tmp\cc1n3Cbg.s 			page 1


   1              		.syntax unified
   2              		.cpu cortex-m4
   3              		.fpu softvfp
   4              		.eabi_attribute 20, 1
   5              		.eabi_attribute 21, 1
   6              		.eabi_attribute 23, 3
   7              		.eabi_attribute 24, 1
   8              		.eabi_attribute 25, 1
   9              		.eabi_attribute 26, 1
  10              		.eabi_attribute 30, 2
  11              		.eabi_attribute 34, 1
  12              		.eabi_attribute 18, 4
  13              		.thumb
  14              		.file	"main.c"
  15              		.text
  16              	.Ltext0:
  17              		.cfi_sections	.debug_frame
  18              		.section	.text.Thread1,"ax",%progbits
  19              		.align	2
  20              		.p2align 4,,15
  21              		.thumb
  22              		.thumb_func
  23              		.type	Thread1, %function
  24              	Thread1:
  25              	.LFB259:
  26              		.file 1 "main.c"
  27              		.loc 1 68 0
  28              		.cfi_startproc
  29              		@ Volatile: function does not return.
  30              		@ args = 0, pretend = 0, frame = 0
  31              		@ frame_needed = 0, uses_anonymous_args = 0
  32              	.LVL0:
  33 0000 08B5     		push	{r3, lr}
  34              		.cfi_def_cfa_offset 8
  35              		.cfi_offset 3, -8
  36              		.cfi_offset 14, -4
  37              		.loc 1 71 0
  38 0002 094B     		ldr	r3, .L5
  39 0004 094A     		ldr	r2, .L5+4
  40 0006 9B69     		ldr	r3, [r3, #24]
  41              		.loc 1 73 0
  42 0008 094C     		ldr	r4, .L5+8
  43              		.loc 1 71 0
  44 000a 9A61     		str	r2, [r3, #24]
  45              		.loc 1 73 0
  46 000c 2025     		movs	r5, #32
  47 000e 2E46     		mov	r6, r5	@ movhi
  48              	.LVL1:
  49              	.L2:
  50              		.loc 1 73 0 is_stmt 0 discriminator 1
  51 0010 6683     		strh	r6, [r4, #26]	@ movhi
  52              		.loc 1 74 0 is_stmt 1 discriminator 1
  53 0012 41F28830 		movw	r0, #5000
  54 0016 FFF7FEFF 		bl	chThdSleep
  55              	.LVL2:
  56              		.loc 1 75 0 discriminator 1
  57 001a 2583     		strh	r5, [r4, #24]	@ movhi
ARM GAS  C:\cygwin\tmp\cc1n3Cbg.s 			page 2


  58              		.loc 1 76 0 discriminator 1
  59 001c 41F28830 		movw	r0, #5000
  60 0020 FFF7FEFF 		bl	chThdSleep
  61              	.LVL3:
  62              		.loc 1 77 0 discriminator 1
  63 0024 F4E7     		b	.L2
  64              	.L6:
  65 0026 00BF     		.align	2
  66              	.L5:
  67 0028 00000000 		.word	ch
  68 002c 00000000 		.word	.LC0
  69 0030 00000240 		.word	1073872896
  70              		.cfi_endproc
  71              	.LFE259:
  72              		.size	Thread1, .-Thread1
  73 0034 AFF30080 		.section	.text.chprintf.constprop.3,"ax",%progbits
  73      AFF30080 
  73      AFF30080 
  74              		.align	2
  75              		.p2align 4,,15
  76              		.thumb
  77              		.thumb_func
  78              		.type	chprintf.constprop.3, %function
  79              	chprintf.constprop.3:
  80              	.LFB264:
  81              		.file 2 "../../../os/hal/lib/streams/chprintf.h"
  82              		.loc 2 69 0
  83              		.cfi_startproc
  84              		@ args = 4, pretend = 12, frame = 8
  85              		@ frame_needed = 0, uses_anonymous_args = 1
  86              	.LVL4:
  87 0000 0EB4     		push	{r1, r2, r3}
  88              		.cfi_def_cfa_offset 12
  89              		.cfi_offset 1, -12
  90              		.cfi_offset 2, -8
  91              		.cfi_offset 3, -4
  92 0002 00B5     		push	{lr}
  93              		.cfi_def_cfa_offset 16
  94              		.cfi_offset 14, -16
  95 0004 82B0     		sub	sp, sp, #8
  96              		.cfi_def_cfa_offset 24
  97              		.loc 2 73 0
  98 0006 04AB     		add	r3, sp, #16
  99              		.loc 2 74 0
 100 0008 1A46     		mov	r2, r3
 101 000a 0549     		ldr	r1, .L9
 102 000c 0548     		ldr	r0, .L9+4
 103              	.LVL5:
 104              		.loc 2 73 0
 105 000e 0193     		str	r3, [sp, #4]
 106              		.loc 2 74 0
 107 0010 FFF7FEFF 		bl	chvprintf
 108              	.LVL6:
 109              		.loc 2 78 0
 110 0014 02B0     		add	sp, sp, #8
 111              		.cfi_def_cfa_offset 16
 112              		@ sp needed
ARM GAS  C:\cygwin\tmp\cc1n3Cbg.s 			page 3


 113 0016 5DF804EB 		ldr	lr, [sp], #4
 114              		.cfi_restore 14
 115              		.cfi_def_cfa_offset 12
 116 001a 03B0     		add	sp, sp, #12
 117              		.cfi_restore 3
 118              		.cfi_restore 2
 119              		.cfi_restore 1
 120              		.cfi_def_cfa_offset 0
 121 001c 7047     		bx	lr
 122              	.L10:
 123 001e 00BF     		.align	2
 124              	.L9:
 125 0020 08000000 		.word	.LC1
 126 0024 00000000 		.word	.LANCHOR0
 127              		.cfi_endproc
 128              	.LFE264:
 129              		.size	chprintf.constprop.3, .-chprintf.constprop.3
 130 0028 AFF30080 		.section	.text.Debug_ITMDebugEnable,"ax",%progbits
 130      AFF30080 
 131              		.align	2
 132              		.p2align 4,,15
 133              		.global	Debug_ITMDebugEnable
 134              		.thumb
 135              		.thumb_func
 136              		.type	Debug_ITMDebugEnable, %function
 137              	Debug_ITMDebugEnable:
 138              	.LFB256:
 139              		.loc 1 30 0
 140              		.cfi_startproc
 141              		@ args = 0, pretend = 0, frame = 0
 142              		@ frame_needed = 0, uses_anonymous_args = 0
 143              		@ link register save eliminated.
 144              	.LVL7:
 145              		.loc 1 35 0
 146 0000 084A     		ldr	r2, .L19
 147              		.loc 1 37 0
 148 0002 0949     		ldr	r1, .L19+4
 149              		.loc 1 35 0
 150 0004 1368     		ldr	r3, [r2]
 151 0006 43F02703 		orr	r3, r3, #39
 152 000a 1360     		str	r3, [r2]
 153              		.loc 1 37 0
 154 000c 0B68     		ldr	r3, [r1]
 155 000e DA07     		lsls	r2, r3, #31
 156 0010 06D5     		bpl	.L11
 157              	.LBB6:
 158 0012 064B     		ldr	r3, .L19+8
 159 0014 1B68     		ldr	r3, [r3]
 160 0016 DB07     		lsls	r3, r3, #31
 161 0018 02D5     		bpl	.L11
 162              		.loc 1 38 0
 163 001a 054B     		ldr	r3, .L19+12
 164 001c 0122     		movs	r2, #1
 165 001e 1A60     		str	r2, [r3]
 166              	.L11:
 167 0020 7047     		bx	lr
 168              	.L20:
ARM GAS  C:\cygwin\tmp\cc1n3Cbg.s 			page 4


 169 0022 00BF     		.align	2
 170              	.L19:
 171 0024 042004E0 		.word	-536600572
 172 0028 F0ED00E0 		.word	-536810000
 173 002c 000E00E0 		.word	-536867328
 174 0030 00000000 		.word	.LANCHOR1
 175              	.LBE6:
 176              		.cfi_endproc
 177              	.LFE256:
 178              		.size	Debug_ITMDebugEnable, .-Debug_ITMDebugEnable
 179 0034 AFF30080 		.section	.text.Debug_ITMDebugOutputChar,"ax",%progbits
 179      AFF30080 
 179      AFF30080 
 180              		.align	2
 181              		.p2align 4,,15
 182              		.global	Debug_ITMDebugOutputChar
 183              		.thumb
 184              		.thumb_func
 185              		.type	Debug_ITMDebugOutputChar, %function
 186              	Debug_ITMDebugOutputChar:
 187              	.LFB257:
 188              		.loc 1 43 0
 189              		.cfi_startproc
 190              		@ args = 0, pretend = 0, frame = 0
 191              		@ frame_needed = 0, uses_anonymous_args = 0
 192              		@ link register save eliminated.
 193              	.LVL8:
 194              		.loc 1 47 0
 195 0000 074B     		ldr	r3, .L33
 196 0002 1B68     		ldr	r3, [r3]
 197 0004 5BB1     		cbz	r3, .L21
 198              		.loc 1 47 0 is_stmt 0 discriminator 1
 199 0006 074B     		ldr	r3, .L33+4
 200 0008 1B68     		ldr	r3, [r3]
 201 000a DB01     		lsls	r3, r3, #7
 202 000c 07D5     		bpl	.L21
 203              	.LBB9:
 204              	.LBB10:
 205              		.loc 1 49 0 is_stmt 1
 206 000e 4FF06041 		mov	r1, #-536870912
 207              	.L29:
 208 0012 0B68     		ldr	r3, [r1]
 209 0014 4FF06042 		mov	r2, #-536870912
 210 0018 002B     		cmp	r3, #0
 211 001a FAD0     		beq	.L29
 212              		.loc 1 50 0
 213 001c 1070     		strb	r0, [r2]
 214              	.L21:
 215 001e 7047     		bx	lr
 216              	.L34:
 217              		.align	2
 218              	.L33:
 219 0020 00000000 		.word	.LANCHOR1
 220 0024 FCED00E0 		.word	-536809988
 221              	.LBE10:
 222              	.LBE9:
 223              		.cfi_endproc
ARM GAS  C:\cygwin\tmp\cc1n3Cbg.s 			page 5


 224              	.LFE257:
 225              		.size	Debug_ITMDebugOutputChar, .-Debug_ITMDebugOutputChar
 226 0028 AFF30080 		.section	.text.Debug_ITMDebugOutputString,"ax",%progbits
 226      AFF30080 
 227              		.align	2
 228              		.p2align 4,,15
 229              		.global	Debug_ITMDebugOutputString
 230              		.thumb
 231              		.thumb_func
 232              		.type	Debug_ITMDebugOutputString, %function
 233              	Debug_ITMDebugOutputString:
 234              	.LFB258:
 235              		.loc 1 56 0
 236              		.cfi_startproc
 237              		@ args = 0, pretend = 0, frame = 0
 238              		@ frame_needed = 0, uses_anonymous_args = 0
 239              	.LVL9:
 240              		.loc 1 57 0
 241 0000 074B     		ldr	r3, .L45
 242 0002 1B68     		ldr	r3, [r3]
 243 0004 53B1     		cbz	r3, .L44
 244              	.LVL10:
 245              		.loc 1 56 0
 246 0006 10B5     		push	{r4, lr}
 247              		.cfi_def_cfa_offset 8
 248              		.cfi_offset 4, -8
 249              		.cfi_offset 14, -4
 250 0008 0446     		mov	r4, r0
 251              	.LBB13:
 252              	.LBB14:
 253              		.loc 1 58 0
 254 000a 0078     		ldrb	r0, [r0]	@ zero_extendqisi2
 255              	.LVL11:
 256 000c 28B1     		cbz	r0, .L35
 257              	.LVL12:
 258              	.L38:
 259              		.loc 1 59 0
 260 000e FFF7FEFF 		bl	Debug_ITMDebugOutputChar
 261              	.LVL13:
 262              		.loc 1 58 0
 263 0012 14F8010F 		ldrb	r0, [r4, #1]!	@ zero_extendqisi2
 264              	.LVL14:
 265 0016 0028     		cmp	r0, #0
 266 0018 F9D1     		bne	.L38
 267              	.LVL15:
 268              	.L35:
 269 001a 10BD     		pop	{r4, pc}
 270              	.LVL16:
 271              	.L44:
 272              		.cfi_def_cfa_offset 0
 273              		.cfi_restore 4
 274              		.cfi_restore 14
 275 001c 7047     		bx	lr
 276              	.L46:
 277 001e 00BF     		.align	2
 278              	.L45:
 279 0020 00000000 		.word	.LANCHOR1
ARM GAS  C:\cygwin\tmp\cc1n3Cbg.s 			page 6


 280              	.LBE14:
 281              	.LBE13:
 282              		.cfi_endproc
 283              	.LFE258:
 284              		.size	Debug_ITMDebugOutputString, .-Debug_ITMDebugOutputString
 285 0024 AFF30080 		.section	.text.startup.main,"ax",%progbits
 285      AFF30080 
 285      AFF30080 
 286              		.align	2
 287              		.p2align 4,,15
 288              		.global	main
 289              		.thumb
 290              		.thumb_func
 291              		.type	main, %function
 292              	main:
 293              	.LFB260:
 294              		.loc 1 83 0
 295              		.cfi_startproc
 296              		@ args = 0, pretend = 0, frame = 16
 297              		@ frame_needed = 0, uses_anonymous_args = 0
 298 0000 10B5     		push	{r4, lr}
 299              		.cfi_def_cfa_offset 8
 300              		.cfi_offset 4, -8
 301              		.cfi_offset 14, -4
 302 0002 86B0     		sub	sp, sp, #24
 303              		.cfi_def_cfa_offset 32
 304              		.loc 1 85 0
 305 0004 FFF7FEFF 		bl	Debug_ITMDebugEnable
 306              	.LVL17:
 307              	.LBB19:
 308              	.LBB20:
 309              		.loc 1 57 0
 310 0008 204B     		ldr	r3, .L54
 311 000a 1B68     		ldr	r3, [r3]
 312 000c 002B     		cmp	r3, #0
 313 000e 33D1     		bne	.L51
 314              	.L50:
 315              	.LBE20:
 316              	.LBE19:
 317              		.loc 1 88 0
 318 0010 1F48     		ldr	r0, .L54+4
 319 0012 FFF7FEFF 		bl	itmObjectInit
 320              	.LVL18:
 321              		.loc 1 90 0
 322 0016 1F4A     		ldr	r2, .L54+8
 323 0018 1F49     		ldr	r1, .L54+12
 324 001a 1D48     		ldr	r0, .L54+4
 325 001c FFF7FEFF 		bl	chprintf.constprop.3
 326              	.LVL19:
 327              		.loc 1 95 0
 328 0020 02A8     		add	r0, sp, #8
 329 0022 FFF7FEFF 		bl	init
 330              	.LVL20:
 331              		.loc 1 96 0
 332 0026 0A21     		movs	r1, #10
 333 0028 02A8     		add	r0, sp, #8
 334 002a FFF7FEFF 		bl	add
ARM GAS  C:\cygwin\tmp\cc1n3Cbg.s 			page 7


 335              	.LVL21:
 336              		.loc 1 97 0
 337 002e 3221     		movs	r1, #50
 338 0030 02A8     		add	r0, sp, #8
 339 0032 FFF7FEFF 		bl	add
 340              	.LVL22:
 341              		.loc 1 98 0
 342 0036 6421     		movs	r1, #100
 343 0038 02A8     		add	r0, sp, #8
 344 003a FFF7FEFF 		bl	add
 345              	.LVL23:
 346              		.loc 1 99 0
 347 003e 02A8     		add	r0, sp, #8
 348 0040 FFF7FEFF 		bl	print
 349              	.LVL24:
 350              		.loc 1 101 0
 351 0044 1421     		movs	r1, #20
 352 0046 0122     		movs	r2, #1
 353 0048 02A8     		add	r0, sp, #8
 354 004a FFF7FEFF 		bl	insert
 355              	.LVL25:
 356              		.loc 1 102 0
 357 004e 02A8     		add	r0, sp, #8
 358 0050 FFF7FEFF 		bl	print
 359              	.LVL26:
 360              		.loc 1 111 0
 361 0054 FFF7FEFF 		bl	halInit
 362              	.LVL27:
 363              		.loc 1 112 0
 364 0058 FFF7FEFF 		bl	chSysInit
 365              	.LVL28:
 366              		.loc 1 122 0
 367 005c 0023     		movs	r3, #0
 368 005e 0093     		str	r3, [sp]
 369 0060 0E48     		ldr	r0, .L54+16
 370 0062 0F4B     		ldr	r3, .L54+20
 371 0064 4FF4A471 		mov	r1, #328
 372 0068 4022     		movs	r2, #64
 373 006a FFF7FEFF 		bl	chThdCreateStatic
 374              	.LVL29:
 375              	.L49:
 376              		.loc 1 131 0 discriminator 1
 377 006e 41F28830 		movw	r0, #5000
 378 0072 FFF7FEFF 		bl	chThdSleep
 379              	.LVL30:
 380              		.loc 1 132 0 discriminator 1
 381 0076 FAE7     		b	.L49
 382              	.L51:
 383              	.LBB24:
 384              	.LBB23:
 385              		.loc 1 57 0
 386 0078 0A4C     		ldr	r4, .L54+24
 387 007a 5320     		movs	r0, #83
 388              	.L48:
 389              	.LVL31:
 390              	.LBB21:
 391              	.LBB22:
ARM GAS  C:\cygwin\tmp\cc1n3Cbg.s 			page 8


 392              		.loc 1 59 0
 393 007c FFF7FEFF 		bl	Debug_ITMDebugOutputChar
 394              	.LVL32:
 395              		.loc 1 58 0
 396 0080 14F8010F 		ldrb	r0, [r4, #1]!	@ zero_extendqisi2
 397              	.LVL33:
 398 0084 0028     		cmp	r0, #0
 399 0086 F9D1     		bne	.L48
 400 0088 C2E7     		b	.L50
 401              	.L55:
 402 008a 00BF     		.align	2
 403              	.L54:
 404 008c 00000000 		.word	.LANCHOR1
 405 0090 00000000 		.word	.LANCHOR0
 406 0094 1C000000 		.word	.LC3
 407 0098 08000000 		.word	.LC1
 408 009c 00000000 		.word	.LANCHOR2
 409 00a0 00000000 		.word	Thread1
 410 00a4 0C000000 		.word	.LC2
 411              	.LBE22:
 412              	.LBE21:
 413              	.LBE23:
 414              	.LBE24:
 415              		.cfi_endproc
 416              	.LFE260:
 417              		.size	main, .-main
 418              		.global	itm_port
 419 00a8 AFF30080 		.section	.bss.waThread1,"aw",%nobits
 419      AFF30080 
 420              		.align	3
 421              		.set	.LANCHOR2,. + 0
 422              		.type	waThread1, %object
 423              		.size	waThread1, 328
 424              	waThread1:
 425 0000 00000000 		.space	328
 425      00000000 
 425      00000000 
 425      00000000 
 425      00000000 
 426              		.section	.bss.Debug_ITMDebug,"aw",%nobits
 427              		.align	2
 428              		.set	.LANCHOR1,. + 0
 429              		.type	Debug_ITMDebug, %object
 430              		.size	Debug_ITMDebug, 4
 431              	Debug_ITMDebug:
 432 0000 00000000 		.space	4
 433              		.section	.bss.itm_port,"aw",%nobits
 434              		.align	2
 435              		.set	.LANCHOR0,. + 0
 436              		.type	itm_port, %object
 437              		.size	itm_port, 4
 438              	itm_port:
 439 0000 00000000 		.space	4
 440              		.section	.rodata.str1.4,"aMS",%progbits,1
 441              		.align	2
 442              	.LC0:
 443 0000 626C696E 		.ascii	"blinker\000"
ARM GAS  C:\cygwin\tmp\cc1n3Cbg.s 			page 9


 443      6B657200 
 444              	.LC1:
 445 0008 257300   		.ascii	"%s\000"
 446 000b 00       		.space	1
 447              	.LC2:
 448 000c 53575620 		.ascii	"SWV Enabled\012\000"
 448      456E6162 
 448      6C65640A 
 448      00
 449 0019 000000   		.space	3
 450              	.LC3:
 451 001c 43686962 		.ascii	"ChibiOS V3.0\012\000"
 451      694F5320 
 451      56332E30 
 451      0A00
 452 002a 0000     		.text
 453              	.Letext0:
 454              		.file 3 "c:\\program files\\gnu tools arm embedded\\4.9 2014q4\\lib\\gcc\\arm-none-eabi\\4.9.3\\in
 455              		.file 4 "c:\\program files\\gnu tools arm embedded\\4.9 2014q4\\arm-none-eabi\\include\\machine\\_
 456              		.file 5 "c:\\program files\\gnu tools arm embedded\\4.9 2014q4\\arm-none-eabi\\include\\stdint.h"
 457              		.file 6 "../../../os/rt/ports/ARMCMx/compilers/GCC/chtypes.h"
 458              		.file 7 "../../../os/rt/include/chsystypes.h"
 459              		.file 8 "../../../os/rt/include/chschd.h"
 460              		.file 9 "../../../os/rt/ports/ARMCMx/chcore.h"
 461              		.file 10 "../../../os/rt/ports/ARMCMx/chcore_v7m.h"
 462              		.file 11 "../../../os/rt/include/chtm.h"
 463              		.file 12 "../../../os/rt/include/chmtx.h"
 464              		.file 13 "../../../os/rt/include/chthreads.h"
 465              		.file 14 "../../../os/rt/include/chstreams.h"
 466              		.file 15 "../../../os/hal/ports/STM32/LLD/GPIOv2/pal_lld.h"
 467              		.file 16 "ITM_trace.h"
 468              		.file 17 "c:\\program files\\gnu tools arm embedded\\4.9 2014q4\\lib\\gcc\\arm-none-eabi\\4.9.3\\i
 469              		.file 18 "<built-in>"
 470              		.file 19 "ArrayList.h"
 471              		.file 20 "../../../os/ext/CMSIS/include/core_cm4.h"
 472              		.file 21 "../../../os/hal/include/hal.h"
 473              		.file 22 "../../../os/rt/include/chsys.h"