ARM GAS  C:\cygwin\tmp\ccQYD40O.s 			page 1


   1              		.syntax unified
   2              		.cpu cortex-m4
   3              		.fpu softvfp
   4              		.eabi_attribute 20, 1
   5              		.eabi_attribute 21, 1
   6              		.eabi_attribute 23, 3
   7              		.eabi_attribute 24, 1
   8              		.eabi_attribute 25, 1
   9              		.eabi_attribute 26, 1
  10              		.eabi_attribute 30, 2
  11              		.eabi_attribute 34, 1
  12              		.eabi_attribute 18, 4
  13              		.thumb
  14              		.file	"pal_lld.c"
  15              		.text
  16              	.Ltext0:
  17              		.cfi_sections	.debug_frame
  18              		.section	.text._pal_lld_init,"ax",%progbits
  19              		.align	2
  20              		.p2align 4,,15
  21              		.global	_pal_lld_init
  22              		.thumb
  23              		.thumb_func
  24              		.type	_pal_lld_init, %function
  25              	_pal_lld_init:
  26              	.LFB256:
  27              		.file 1 "../../../os/hal/ports/STM32/LLD/GPIOv2/pal_lld.c"
  28              		.loc 1 92 0
  29              		.cfi_startproc
  30              		@ args = 0, pretend = 0, frame = 0
  31              		@ frame_needed = 0, uses_anonymous_args = 0
  32              	.LVL0:
  33 0000 F0B5     		push	{r4, r5, r6, r7, lr}
  34              		.cfi_def_cfa_offset 20
  35              		.cfi_offset 4, -20
  36              		.cfi_offset 5, -16
  37              		.cfi_offset 6, -12
  38              		.cfi_offset 7, -8
  39              		.cfi_offset 14, -4
  40              		.loc 1 105 0
  41 0002 394F     		ldr	r7, .L3
  42              	.LBB14:
  43              	.LBB15:
  44              		.loc 1 67 0
  45 0004 394E     		ldr	r6, .L3+4
  46              	.LBE15:
  47              	.LBE14:
  48              		.loc 1 105 0
  49 0006 D7F830E0 		ldr	lr, [r7, #48]
  50              	.LBB17:
  51              	.LBB18:
  52              		.loc 1 67 0
  53 000a 394D     		ldr	r5, .L3+8
  54              	.LBE18:
  55              	.LBE17:
  56              	.LBB20:
  57              	.LBB21:
ARM GAS  C:\cygwin\tmp\ccQYD40O.s 			page 2


  58 000c 394C     		ldr	r4, .L3+12
  59              	.LBE21:
  60              	.LBE20:
  61              	.LBB23:
  62              	.LBB24:
  63 000e 3A49     		ldr	r1, .L3+16
  64              	.LBE24:
  65              	.LBE23:
  66              	.LBB26:
  67              	.LBB27:
  68 0010 3A4A     		ldr	r2, .L3+20
  69              	.LBE27:
  70              	.LBE26:
  71              	.LBB29:
  72              	.LBB30:
  73 0012 3B4B     		ldr	r3, .L3+24
  74              	.LBE30:
  75              	.LBE29:
  76              		.loc 1 105 0
  77 0014 4EF01F0E 		orr	lr, lr, #31
  78 0018 C7F830E0 		str	lr, [r7, #48]
  79              		.loc 1 106 0
  80 001c D7F850E0 		ldr	lr, [r7, #80]
  81 0020 4EF01F0E 		orr	lr, lr, #31
  82 0024 C7F850E0 		str	lr, [r7, #80]
  83              	.LVL1:
  84              	.LBB32:
  85              	.LBB16:
  86              		.loc 1 67 0
  87 0028 4768     		ldr	r7, [r0, #4]
  88 002a 7760     		str	r7, [r6, #4]
  89              		.loc 1 68 0
  90 002c 8768     		ldr	r7, [r0, #8]
  91 002e B760     		str	r7, [r6, #8]
  92              		.loc 1 69 0
  93 0030 C768     		ldr	r7, [r0, #12]
  94 0032 F760     		str	r7, [r6, #12]
  95              		.loc 1 70 0
  96 0034 0769     		ldr	r7, [r0, #16]
  97 0036 7761     		str	r7, [r6, #20]
  98              		.loc 1 71 0
  99 0038 4769     		ldr	r7, [r0, #20]
 100 003a 3762     		str	r7, [r6, #32]
 101              		.loc 1 72 0
 102 003c 8769     		ldr	r7, [r0, #24]
 103 003e 7762     		str	r7, [r6, #36]
 104              		.loc 1 73 0
 105 0040 0768     		ldr	r7, [r0]
 106 0042 3760     		str	r7, [r6]
 107              	.LVL2:
 108              	.LBE16:
 109              	.LBE32:
 110              	.LBB33:
 111              	.LBB19:
 112              		.loc 1 67 0
 113 0044 066A     		ldr	r6, [r0, #32]
 114 0046 6E60     		str	r6, [r5, #4]
ARM GAS  C:\cygwin\tmp\ccQYD40O.s 			page 3


 115              		.loc 1 68 0
 116 0048 466A     		ldr	r6, [r0, #36]
 117 004a AE60     		str	r6, [r5, #8]
 118              		.loc 1 69 0
 119 004c 866A     		ldr	r6, [r0, #40]
 120 004e EE60     		str	r6, [r5, #12]
 121              		.loc 1 70 0
 122 0050 C66A     		ldr	r6, [r0, #44]
 123 0052 6E61     		str	r6, [r5, #20]
 124              		.loc 1 71 0
 125 0054 066B     		ldr	r6, [r0, #48]
 126 0056 2E62     		str	r6, [r5, #32]
 127              		.loc 1 72 0
 128 0058 466B     		ldr	r6, [r0, #52]
 129 005a 6E62     		str	r6, [r5, #36]
 130              		.loc 1 73 0
 131 005c C669     		ldr	r6, [r0, #28]
 132 005e 2E60     		str	r6, [r5]
 133              	.LVL3:
 134              	.LBE19:
 135              	.LBE33:
 136              	.LBB34:
 137              	.LBB22:
 138              		.loc 1 67 0
 139 0060 C56B     		ldr	r5, [r0, #60]
 140 0062 6560     		str	r5, [r4, #4]
 141              		.loc 1 68 0
 142 0064 056C     		ldr	r5, [r0, #64]
 143 0066 A560     		str	r5, [r4, #8]
 144              		.loc 1 69 0
 145 0068 456C     		ldr	r5, [r0, #68]
 146 006a E560     		str	r5, [r4, #12]
 147              		.loc 1 70 0
 148 006c 856C     		ldr	r5, [r0, #72]
 149 006e 6561     		str	r5, [r4, #20]
 150              		.loc 1 71 0
 151 0070 C56C     		ldr	r5, [r0, #76]
 152 0072 2562     		str	r5, [r4, #32]
 153              		.loc 1 72 0
 154 0074 056D     		ldr	r5, [r0, #80]
 155 0076 6562     		str	r5, [r4, #36]
 156              		.loc 1 73 0
 157 0078 856B     		ldr	r5, [r0, #56]
 158 007a 2560     		str	r5, [r4]
 159              	.LVL4:
 160              	.LBE22:
 161              	.LBE34:
 162              	.LBB35:
 163              	.LBB25:
 164              		.loc 1 67 0
 165 007c 846D     		ldr	r4, [r0, #88]
 166 007e 4C60     		str	r4, [r1, #4]
 167              		.loc 1 68 0
 168 0080 C46D     		ldr	r4, [r0, #92]
 169 0082 8C60     		str	r4, [r1, #8]
 170              		.loc 1 69 0
 171 0084 046E     		ldr	r4, [r0, #96]
ARM GAS  C:\cygwin\tmp\ccQYD40O.s 			page 4


 172 0086 CC60     		str	r4, [r1, #12]
 173              		.loc 1 70 0
 174 0088 446E     		ldr	r4, [r0, #100]
 175 008a 4C61     		str	r4, [r1, #20]
 176              		.loc 1 71 0
 177 008c 846E     		ldr	r4, [r0, #104]
 178 008e 0C62     		str	r4, [r1, #32]
 179              		.loc 1 72 0
 180 0090 C46E     		ldr	r4, [r0, #108]
 181 0092 4C62     		str	r4, [r1, #36]
 182              		.loc 1 73 0
 183 0094 446D     		ldr	r4, [r0, #84]
 184 0096 0C60     		str	r4, [r1]
 185              	.LVL5:
 186              	.LBE25:
 187              	.LBE35:
 188              	.LBB36:
 189              	.LBB28:
 190              		.loc 1 67 0
 191 0098 416F     		ldr	r1, [r0, #116]
 192 009a 5160     		str	r1, [r2, #4]
 193              		.loc 1 68 0
 194 009c 816F     		ldr	r1, [r0, #120]
 195 009e 9160     		str	r1, [r2, #8]
 196              		.loc 1 69 0
 197 00a0 C16F     		ldr	r1, [r0, #124]
 198 00a2 D160     		str	r1, [r2, #12]
 199              		.loc 1 70 0
 200 00a4 D0F88010 		ldr	r1, [r0, #128]
 201 00a8 5161     		str	r1, [r2, #20]
 202              		.loc 1 71 0
 203 00aa D0F88410 		ldr	r1, [r0, #132]
 204 00ae 1162     		str	r1, [r2, #32]
 205              		.loc 1 72 0
 206 00b0 D0F88810 		ldr	r1, [r0, #136]
 207 00b4 5162     		str	r1, [r2, #36]
 208              		.loc 1 73 0
 209 00b6 016F     		ldr	r1, [r0, #112]
 210 00b8 1160     		str	r1, [r2]
 211              	.LVL6:
 212              	.LBE28:
 213              	.LBE36:
 214              	.LBB37:
 215              	.LBB31:
 216              		.loc 1 67 0
 217 00ba D0F89020 		ldr	r2, [r0, #144]
 218 00be 5A60     		str	r2, [r3, #4]
 219              		.loc 1 68 0
 220 00c0 D0F89420 		ldr	r2, [r0, #148]
 221 00c4 9A60     		str	r2, [r3, #8]
 222              		.loc 1 69 0
 223 00c6 D0F89820 		ldr	r2, [r0, #152]
 224 00ca DA60     		str	r2, [r3, #12]
 225              		.loc 1 70 0
 226 00cc D0F89C20 		ldr	r2, [r0, #156]
 227 00d0 5A61     		str	r2, [r3, #20]
 228              		.loc 1 71 0
ARM GAS  C:\cygwin\tmp\ccQYD40O.s 			page 5


 229 00d2 D0F8A020 		ldr	r2, [r0, #160]
 230 00d6 1A62     		str	r2, [r3, #32]
 231              		.loc 1 72 0
 232 00d8 D0F8A420 		ldr	r2, [r0, #164]
 233 00dc 5A62     		str	r2, [r3, #36]
 234              		.loc 1 73 0
 235 00de D0F88C20 		ldr	r2, [r0, #140]
 236 00e2 1A60     		str	r2, [r3]
 237 00e4 F0BD     		pop	{r4, r5, r6, r7, pc}
 238              	.L4:
 239 00e6 00BF     		.align	2
 240              	.L3:
 241 00e8 00380240 		.word	1073887232
 242 00ec 00000240 		.word	1073872896
 243 00f0 00040240 		.word	1073873920
 244 00f4 00080240 		.word	1073874944
 245 00f8 000C0240 		.word	1073875968
 246 00fc 00100240 		.word	1073876992
 247 0100 001C0240 		.word	1073880064
 248              	.LBE31:
 249              	.LBE37:
 250              		.cfi_endproc
 251              	.LFE256:
 252              		.size	_pal_lld_init, .-_pal_lld_init
 253 0104 AFF30080 		.section	.text._pal_lld_setgroupmode,"ax",%progbits
 253      AFF30080 
 253      AFF30080 
 254              		.align	2
 255              		.p2align 4,,15
 256              		.global	_pal_lld_setgroupmode
 257              		.thumb
 258              		.thumb_func
 259              		.type	_pal_lld_setgroupmode, %function
 260              	_pal_lld_setgroupmode:
 261              	.LFB257:
 262              		.loc 1 157 0
 263              		.cfi_startproc
 264              		@ args = 0, pretend = 0, frame = 0
 265              		@ frame_needed = 0, uses_anonymous_args = 0
 266              	.LVL7:
 267 0000 2DE9F04F 		push	{r4, r5, r6, r7, r8, r9, r10, fp, lr}
 268              		.cfi_def_cfa_offset 36
 269              		.cfi_offset 4, -36
 270              		.cfi_offset 5, -32
 271              		.cfi_offset 6, -28
 272              		.cfi_offset 7, -24
 273              		.cfi_offset 8, -20
 274              		.cfi_offset 9, -16
 275              		.cfi_offset 10, -12
 276              		.cfi_offset 11, -8
 277              		.cfi_offset 14, -4
 278              	.LBB38:
 279              		.loc 1 170 0
 280 0004 4FF00F0C 		mov	ip, #15
 281              	.LBE38:
 282              		.loc 1 159 0
 283 0008 02F0030E 		and	lr, r2, #3
ARM GAS  C:\cygwin\tmp\ccQYD40O.s 			page 6


 284              	.LVL8:
 285              		.loc 1 160 0
 286 000c C2F38007 		ubfx	r7, r2, #2, #1
 287              	.LVL9:
 288              		.loc 1 161 0
 289 0010 C2F3C106 		ubfx	r6, r2, #3, #2
 290              	.LVL10:
 291              		.loc 1 162 0
 292 0014 C2F34115 		ubfx	r5, r2, #5, #2
 293              	.LVL11:
 294              		.loc 1 164 0
 295 0018 0024     		movs	r4, #0
 296              		.loc 1 163 0
 297 001a C2F3C312 		ubfx	r2, r2, #7, #4
 298              	.LVL12:
 299              	.LBB39:
 300              		.loc 1 175 0
 301 001e 4FF00109 		mov	r9, #1
 302              		.loc 1 177 0
 303 0022 4FF00308 		mov	r8, #3
 304 0026 2BE0     		b	.L10
 305              	.LVL13:
 306              	.L16:
 307              		.loc 1 172 0
 308 0028 D0F820B0 		ldr	fp, [r0, #32]
 309 002c 2BEA0303 		bic	r3, fp, r3
 310              	.LVL14:
 311 0030 43EA0A03 		orr	r3, r3, r10
 312 0034 0362     		str	r3, [r0, #32]
 313              	.L8:
 314              	.LVL15:
 315              		.loc 1 176 0
 316 0036 4368     		ldr	r3, [r0, #4]
 317              		.loc 1 175 0
 318 0038 09FA04FA 		lsl	r10, r9, r4
 319              	.LVL16:
 320              		.loc 1 176 0
 321 003c 23EA0A03 		bic	r3, r3, r10
 322 0040 3B43     		orrs	r3, r3, r7
 323 0042 4360     		str	r3, [r0, #4]
 324              	.LVL17:
 325 0044 4FEA440A 		lsl	r10, r4, #1
 326              		.loc 1 178 0
 327 0048 8368     		ldr	r3, [r0, #8]
 328              		.loc 1 177 0
 329 004a 08FA0AFA 		lsl	r10, r8, r10
 330              		.loc 1 178 0
 331 004e 6FEA0A0A 		mvn	r10, r10
 332 0052 0AEA0303 		and	r3, r10, r3
 333 0056 3343     		orrs	r3, r3, r6
 334 0058 8360     		str	r3, [r0, #8]
 335              		.loc 1 179 0
 336 005a C368     		ldr	r3, [r0, #12]
 337 005c 0AEA0303 		and	r3, r10, r3
 338 0060 2B43     		orrs	r3, r3, r5
 339 0062 C360     		str	r3, [r0, #12]
 340              		.loc 1 180 0
ARM GAS  C:\cygwin\tmp\ccQYD40O.s 			page 7


 341 0064 0368     		ldr	r3, [r0]
 342 0066 0AEA0303 		and	r3, r10, r3
 343 006a 43EA0E03 		orr	r3, r3, lr
 344 006e 0360     		str	r3, [r0]
 345              	.LVL18:
 346              	.L6:
 347              	.LBE39:
 348              		.loc 1 183 0
 349 0070 4908     		lsrs	r1, r1, #1
 350              	.LVL19:
 351 0072 19D0     		beq	.L5
 352              		.loc 1 185 0
 353 0074 7F00     		lsls	r7, r7, #1
 354              	.LVL20:
 355              		.loc 1 186 0
 356 0076 B600     		lsls	r6, r6, #2
 357              	.LVL21:
 358              		.loc 1 187 0
 359 0078 AD00     		lsls	r5, r5, #2
 360              	.LVL22:
 361              		.loc 1 188 0
 362 007a 4FEA8E0E 		lsl	lr, lr, #2
 363              	.LVL23:
 364              		.loc 1 189 0
 365 007e 0134     		adds	r4, r4, #1
 366              	.LVL24:
 367              	.L10:
 368              	.LBB40:
 369              		.loc 1 169 0
 370 0080 04F00703 		and	r3, r4, #7
 371 0084 9B00     		lsls	r3, r3, #2
 372              	.LBE40:
 373              		.loc 1 166 0
 374 0086 11F0010F 		tst	r1, #1
 375              	.LBB41:
 376              		.loc 1 169 0
 377 008a 02FA03FA 		lsl	r10, r2, r3
 378              	.LVL25:
 379              		.loc 1 170 0
 380 008e 0CFA03F3 		lsl	r3, ip, r3
 381              	.LVL26:
 382              	.LBE41:
 383              		.loc 1 166 0
 384 0092 EDD0     		beq	.L6
 385              	.LBB42:
 386              		.loc 1 171 0
 387 0094 072C     		cmp	r4, #7
 388 0096 C7D9     		bls	.L16
 389              		.loc 1 174 0
 390 0098 D0F824B0 		ldr	fp, [r0, #36]
 391 009c 2BEA0303 		bic	r3, fp, r3
 392              	.LVL27:
 393 00a0 43EA0A03 		orr	r3, r3, r10
 394 00a4 4362     		str	r3, [r0, #36]
 395 00a6 C6E7     		b	.L8
 396              	.LVL28:
 397              	.L5:
ARM GAS  C:\cygwin\tmp\ccQYD40O.s 			page 8


 398 00a8 BDE8F08F 		pop	{r4, r5, r6, r7, r8, r9, r10, fp, pc}
 399              	.LBE42:
 400              		.cfi_endproc
 401              	.LFE257:
 402              		.size	_pal_lld_setgroupmode, .-_pal_lld_setgroupmode
 403 00ac AFF30080 		.text
 404              	.Letext0:
 405              		.file 2 "c:\\program files\\gnu tools arm embedded\\4.9 2014q4\\arm-none-eabi\\include\\machine\\_
 406              		.file 3 "c:\\program files\\gnu tools arm embedded\\4.9 2014q4\\arm-none-eabi\\include\\stdint.h"
 407              		.file 4 "../../../os/rt/ports/ARMCMx/compilers/GCC/chtypes.h"
 408              		.file 5 "../../../os/rt/include/chsystypes.h"
 409              		.file 6 "../../../os/rt/include/chschd.h"
 410              		.file 7 "../../../os/ext/CMSIS/ST/stm32f401xe.h"
 411              		.file 8 "../../../os/rt/ports/ARMCMx/chcore.h"
 412              		.file 9 "../../../os/rt/ports/ARMCMx/chcore_v7m.h"
 413              		.file 10 "../../../os/rt/include/chtm.h"
 414              		.file 11 "../../../os/rt/include/chmtx.h"
 415              		.file 12 "../../../os/hal/ports/STM32/LLD/GPIOv2/pal_lld.h"
 416              		.file 13 "../../../os/ext/CMSIS/include/core_cm4.h"
 417              		.section	.debug_info,"",%progbits
 418              	.Ldebug_info0:
 419 0000 640B0000 		.4byte	0xb64
 420 0004 0400     		.2byte	0x4
 421 0006 00000000 		.4byte	.Ldebug_abbrev0
 422 000a 04       		.byte	0x4
 423 000b 01       		.uleb128 0x1
 424 000c 98020000 		.4byte	.LASF161
 425 0010 01       		.byte	0x1
 426 0011 01070000 		.4byte	.LASF162
 427 0015 3F040000 		.4byte	.LASF163
 428 0019 C0000000 		.4byte	.Ldebug_ranges0+0xc0
 429 001d 00000000 		.4byte	0
 430 0021 00000000 		.4byte	.Ldebug_line0
 431 0025 02       		.uleb128 0x2
 432 0026 04       		.byte	0x4
 433 0027 05       		.byte	0x5
 434 0028 696E7400 		.ascii	"int\000"
 435 002c 03       		.uleb128 0x3
 436 002d 04       		.byte	0x4
 437 002e 07       		.byte	0x7
 438 002f EB010000 		.4byte	.LASF0
 439 0033 03       		.uleb128 0x3
 440 0034 01       		.byte	0x1
 441 0035 06       		.byte	0x6
 442 0036 FA000000 		.4byte	.LASF1
 443 003a 04       		.uleb128 0x4
 444 003b 30000000 		.4byte	.LASF4
 445 003f 02       		.byte	0x2
 446 0040 1D       		.byte	0x1d
 447 0041 45000000 		.4byte	0x45
 448 0045 03       		.uleb128 0x3
 449 0046 01       		.byte	0x1
 450 0047 08       		.byte	0x8
 451 0048 02050000 		.4byte	.LASF2
 452 004c 03       		.uleb128 0x3
 453 004d 02       		.byte	0x2
 454 004e 05       		.byte	0x5
ARM GAS  C:\cygwin\tmp\ccQYD40O.s 			page 9


 455 004f 1F050000 		.4byte	.LASF3
 456 0053 04       		.uleb128 0x4
 457 0054 DE050000 		.4byte	.LASF5
 458 0058 02       		.byte	0x2
 459 0059 2B       		.byte	0x2b
 460 005a 5E000000 		.4byte	0x5e
 461 005e 03       		.uleb128 0x3
 462 005f 02       		.byte	0x2
 463 0060 07       		.byte	0x7
 464 0061 1F020000 		.4byte	.LASF6
 465 0065 04       		.uleb128 0x4
 466 0066 8E020000 		.4byte	.LASF7
 467 006a 02       		.byte	0x2
 468 006b 3F       		.byte	0x3f
 469 006c 70000000 		.4byte	0x70
 470 0070 03       		.uleb128 0x3
 471 0071 04       		.byte	0x4
 472 0072 05       		.byte	0x5
 473 0073 40010000 		.4byte	.LASF8
 474 0077 04       		.uleb128 0x4
 475 0078 20060000 		.4byte	.LASF9
 476 007c 02       		.byte	0x2
 477 007d 41       		.byte	0x41
 478 007e 82000000 		.4byte	0x82
 479 0082 03       		.uleb128 0x3
 480 0083 04       		.byte	0x4
 481 0084 07       		.byte	0x7
 482 0085 B6050000 		.4byte	.LASF10
 483 0089 03       		.uleb128 0x3
 484 008a 08       		.byte	0x8
 485 008b 05       		.byte	0x5
 486 008c EC000000 		.4byte	.LASF11
 487 0090 04       		.uleb128 0x4
 488 0091 2F040000 		.4byte	.LASF12
 489 0095 02       		.byte	0x2
 490 0096 5B       		.byte	0x5b
 491 0097 9B000000 		.4byte	0x9b
 492 009b 03       		.uleb128 0x3
 493 009c 08       		.byte	0x8
 494 009d 07       		.byte	0x7
 495 009e 76000000 		.4byte	.LASF13
 496 00a2 04       		.uleb128 0x4
 497 00a3 CB060000 		.4byte	.LASF14
 498 00a7 03       		.byte	0x3
 499 00a8 15       		.byte	0x15
 500 00a9 3A000000 		.4byte	0x3a
 501 00ad 04       		.uleb128 0x4
 502 00ae 6C010000 		.4byte	.LASF15
 503 00b2 03       		.byte	0x3
 504 00b3 21       		.byte	0x21
 505 00b4 53000000 		.4byte	0x53
 506 00b8 04       		.uleb128 0x4
 507 00b9 FA040000 		.4byte	.LASF16
 508 00bd 03       		.byte	0x3
 509 00be 2C       		.byte	0x2c
 510 00bf 65000000 		.4byte	0x65
 511 00c3 04       		.uleb128 0x4
ARM GAS  C:\cygwin\tmp\ccQYD40O.s 			page 10


 512 00c4 8C050000 		.4byte	.LASF17
 513 00c8 03       		.byte	0x3
 514 00c9 2D       		.byte	0x2d
 515 00ca 77000000 		.4byte	0x77
 516 00ce 04       		.uleb128 0x4
 517 00cf 27000000 		.4byte	.LASF18
 518 00d3 03       		.byte	0x3
 519 00d4 39       		.byte	0x39
 520 00d5 90000000 		.4byte	0x90
 521 00d9 05       		.uleb128 0x5
 522 00da B8000000 		.4byte	0xb8
 523 00de 05       		.uleb128 0x5
 524 00df C3000000 		.4byte	0xc3
 525 00e3 04       		.uleb128 0x4
 526 00e4 86060000 		.4byte	.LASF19
 527 00e8 04       		.byte	0x4
 528 00e9 45       		.byte	0x45
 529 00ea C3000000 		.4byte	0xc3
 530 00ee 04       		.uleb128 0x4
 531 00ef 62020000 		.4byte	.LASF20
 532 00f3 04       		.byte	0x4
 533 00f4 48       		.byte	0x48
 534 00f5 A2000000 		.4byte	0xa2
 535 00f9 04       		.uleb128 0x4
 536 00fa 63010000 		.4byte	.LASF21
 537 00fe 04       		.byte	0x4
 538 00ff 49       		.byte	0x49
 539 0100 A2000000 		.4byte	0xa2
 540 0104 04       		.uleb128 0x4
 541 0105 8B040000 		.4byte	.LASF22
 542 0109 04       		.byte	0x4
 543 010a 4A       		.byte	0x4a
 544 010b A2000000 		.4byte	0xa2
 545 010f 04       		.uleb128 0x4
 546 0110 D6040000 		.4byte	.LASF23
 547 0114 04       		.byte	0x4
 548 0115 4C       		.byte	0x4c
 549 0116 C3000000 		.4byte	0xc3
 550 011a 04       		.uleb128 0x4
 551 011b 47020000 		.4byte	.LASF24
 552 011f 04       		.byte	0x4
 553 0120 4D       		.byte	0x4d
 554 0121 B8000000 		.4byte	0xb8
 555 0125 04       		.uleb128 0x4
 556 0126 82020000 		.4byte	.LASF25
 557 012a 04       		.byte	0x4
 558 012b 4F       		.byte	0x4f
 559 012c C3000000 		.4byte	0xc3
 560 0130 04       		.uleb128 0x4
 561 0131 02060000 		.4byte	.LASF26
 562 0135 05       		.byte	0x5
 563 0136 33       		.byte	0x33
 564 0137 C3000000 		.4byte	0xc3
 565 013b 04       		.uleb128 0x4
 566 013c F2050000 		.4byte	.LASF27
 567 0140 05       		.byte	0x5
 568 0141 3F       		.byte	0x3f
ARM GAS  C:\cygwin\tmp\ccQYD40O.s 			page 11


 569 0142 46010000 		.4byte	0x146
 570 0146 06       		.uleb128 0x6
 571 0147 32020000 		.4byte	.LASF46
 572 014b 44       		.byte	0x44
 573 014c 06       		.byte	0x6
 574 014d BE       		.byte	0xbe
 575 014e 33020000 		.4byte	0x233
 576 0152 07       		.uleb128 0x7
 577 0153 CC030000 		.4byte	.LASF28
 578 0157 06       		.byte	0x6
 579 0158 BF       		.byte	0xbf
 580 0159 C2060000 		.4byte	0x6c2
 581 015d 00       		.byte	0
 582 015e 07       		.uleb128 0x7
 583 015f C5040000 		.4byte	.LASF29
 584 0163 06       		.byte	0x6
 585 0164 C1       		.byte	0xc1
 586 0165 C2060000 		.4byte	0x6c2
 587 0169 04       		.byte	0x4
 588 016a 07       		.uleb128 0x7
 589 016b E5000000 		.4byte	.LASF30
 590 016f 06       		.byte	0x6
 591 0170 C3       		.byte	0xc3
 592 0171 0F010000 		.4byte	0x10f
 593 0175 08       		.byte	0x8
 594 0176 07       		.uleb128 0x7
 595 0177 4D070000 		.4byte	.LASF31
 596 017b 06       		.byte	0x6
 597 017c C4       		.byte	0xc4
 598 017d 08060000 		.4byte	0x608
 599 0181 0C       		.byte	0xc
 600 0182 07       		.uleb128 0x7
 601 0183 7E010000 		.4byte	.LASF32
 602 0187 06       		.byte	0x6
 603 0188 C6       		.byte	0xc6
 604 0189 C2060000 		.4byte	0x6c2
 605 018d 10       		.byte	0x10
 606 018e 07       		.uleb128 0x7
 607 018f E7030000 		.4byte	.LASF33
 608 0193 06       		.byte	0x6
 609 0194 C7       		.byte	0xc7
 610 0195 C2060000 		.4byte	0x6c2
 611 0199 14       		.byte	0x14
 612 019a 07       		.uleb128 0x7
 613 019b E0060000 		.4byte	.LASF34
 614 019f 06       		.byte	0x6
 615 01a0 CE       		.byte	0xce
 616 01a1 00070000 		.4byte	0x700
 617 01a5 18       		.byte	0x18
 618 01a6 07       		.uleb128 0x7
 619 01a7 29050000 		.4byte	.LASF35
 620 01ab 06       		.byte	0x6
 621 01ac D9       		.byte	0xd9
 622 01ad F9000000 		.4byte	0xf9
 623 01b1 1C       		.byte	0x1c
 624 01b2 07       		.uleb128 0x7
 625 01b3 50050000 		.4byte	.LASF36
ARM GAS  C:\cygwin\tmp\ccQYD40O.s 			page 12


 626 01b7 06       		.byte	0x6
 627 01b8 DD       		.byte	0xdd
 628 01b9 EE000000 		.4byte	0xee
 629 01bd 1D       		.byte	0x1d
 630 01be 07       		.uleb128 0x7
 631 01bf AB060000 		.4byte	.LASF37
 632 01c3 06       		.byte	0x6
 633 01c4 E2       		.byte	0xe2
 634 01c5 04010000 		.4byte	0x104
 635 01c9 1E       		.byte	0x1e
 636 01ca 08       		.uleb128 0x8
 637 01cb 705F7500 		.ascii	"p_u\000"
 638 01cf 06       		.byte	0x6
 639 01d0 1401     		.2byte	0x114
 640 01d2 C8060000 		.4byte	0x6c8
 641 01d6 20       		.byte	0x20
 642 01d7 09       		.uleb128 0x9
 643 01d8 9C030000 		.4byte	.LASF38
 644 01dc 06       		.byte	0x6
 645 01dd 1901     		.2byte	0x119
 646 01df 33020000 		.4byte	0x233
 647 01e3 24       		.byte	0x24
 648 01e4 09       		.uleb128 0x9
 649 01e5 00020000 		.4byte	.LASF39
 650 01e9 06       		.byte	0x6
 651 01ea 1F01     		.2byte	0x11f
 652 01ec 57020000 		.4byte	0x257
 653 01f0 28       		.byte	0x28
 654 01f1 09       		.uleb128 0x9
 655 01f2 FB060000 		.4byte	.LASF40
 656 01f6 06       		.byte	0x6
 657 01f7 2301     		.2byte	0x123
 658 01f9 1A010000 		.4byte	0x11a
 659 01fd 30       		.byte	0x30
 660 01fe 09       		.uleb128 0x9
 661 01ff 77050000 		.4byte	.LASF41
 662 0203 06       		.byte	0x6
 663 0204 2901     		.2byte	0x129
 664 0206 25010000 		.4byte	0x125
 665 020a 34       		.byte	0x34
 666 020b 09       		.uleb128 0x9
 667 020c 15050000 		.4byte	.LASF42
 668 0210 06       		.byte	0x6
 669 0211 3001     		.2byte	0x130
 670 0213 43070000 		.4byte	0x743
 671 0217 38       		.byte	0x38
 672 0218 09       		.uleb128 0x9
 673 0219 0C060000 		.4byte	.LASF43
 674 021d 06       		.byte	0x6
 675 021e 3401     		.2byte	0x134
 676 0220 0F010000 		.4byte	0x10f
 677 0224 3C       		.byte	0x3c
 678 0225 09       		.uleb128 0x9
 679 0226 14010000 		.4byte	.LASF44
 680 022a 06       		.byte	0x6
 681 022b 3A01     		.2byte	0x13a
 682 022d 0A030000 		.4byte	0x30a
ARM GAS  C:\cygwin\tmp\ccQYD40O.s 			page 13


 683 0231 40       		.byte	0x40
 684 0232 00       		.byte	0
 685 0233 04       		.uleb128 0x4
 686 0234 7D030000 		.4byte	.LASF45
 687 0238 05       		.byte	0x5
 688 0239 44       		.byte	0x44
 689 023a 3E020000 		.4byte	0x23e
 690 023e 06       		.uleb128 0x6
 691 023f A6050000 		.4byte	.LASF47
 692 0243 04       		.byte	0x4
 693 0244 06       		.byte	0x6
 694 0245 AC       		.byte	0xac
 695 0246 57020000 		.4byte	0x257
 696 024a 07       		.uleb128 0x7
 697 024b CC030000 		.4byte	.LASF28
 698 024f 06       		.byte	0x6
 699 0250 AD       		.byte	0xad
 700 0251 C2060000 		.4byte	0x6c2
 701 0255 00       		.byte	0
 702 0256 00       		.byte	0
 703 0257 04       		.uleb128 0x4
 704 0258 9B060000 		.4byte	.LASF48
 705 025c 05       		.byte	0x5
 706 025d 4B       		.byte	0x4b
 707 025e 62020000 		.4byte	0x262
 708 0262 06       		.uleb128 0x6
 709 0263 CA000000 		.4byte	.LASF49
 710 0267 08       		.byte	0x8
 711 0268 06       		.byte	0x6
 712 0269 B3       		.byte	0xb3
 713 026a 87020000 		.4byte	0x287
 714 026e 07       		.uleb128 0x7
 715 026f CC030000 		.4byte	.LASF28
 716 0273 06       		.byte	0x6
 717 0274 B4       		.byte	0xb4
 718 0275 C2060000 		.4byte	0x6c2
 719 0279 00       		.byte	0
 720 027a 07       		.uleb128 0x7
 721 027b C5040000 		.4byte	.LASF29
 722 027f 06       		.byte	0x6
 723 0280 B5       		.byte	0xb5
 724 0281 C2060000 		.4byte	0x6c2
 725 0285 04       		.byte	0x4
 726 0286 00       		.byte	0
 727 0287 04       		.uleb128 0x4
 728 0288 13000000 		.4byte	.LASF50
 729 028c 05       		.byte	0x5
 730 028d 52       		.byte	0x52
 731 028e 92020000 		.4byte	0x292
 732 0292 0A       		.uleb128 0xa
 733 0293 74020000 		.4byte	.LASF51
 734 0297 1C       		.byte	0x1c
 735 0298 06       		.byte	0x6
 736 0299 7201     		.2byte	0x172
 737 029b EE020000 		.4byte	0x2ee
 738 029f 09       		.uleb128 0x9
 739 02a0 95050000 		.4byte	.LASF52
ARM GAS  C:\cygwin\tmp\ccQYD40O.s 			page 14


 740 02a4 06       		.byte	0x6
 741 02a5 7301     		.2byte	0x173
 742 02a7 57020000 		.4byte	0x257
 743 02ab 00       		.byte	0
 744 02ac 09       		.uleb128 0x9
 745 02ad 3B050000 		.4byte	.LASF53
 746 02b1 06       		.byte	0x6
 747 02b2 7401     		.2byte	0x174
 748 02b4 0F010000 		.4byte	0x10f
 749 02b8 08       		.byte	0x8
 750 02b9 09       		.uleb128 0x9
 751 02ba EF030000 		.4byte	.LASF54
 752 02be 06       		.byte	0x6
 753 02bf 7601     		.2byte	0x176
 754 02c1 08060000 		.4byte	0x608
 755 02c5 0C       		.byte	0xc
 756 02c6 09       		.uleb128 0x9
 757 02c7 96010000 		.4byte	.LASF55
 758 02cb 06       		.byte	0x6
 759 02cc 7901     		.2byte	0x179
 760 02ce C2060000 		.4byte	0x6c2
 761 02d2 10       		.byte	0x10
 762 02d3 09       		.uleb128 0x9
 763 02d4 68060000 		.4byte	.LASF56
 764 02d8 06       		.byte	0x6
 765 02d9 7A01     		.2byte	0x17a
 766 02db C2060000 		.4byte	0x6c2
 767 02df 14       		.byte	0x14
 768 02e0 09       		.uleb128 0x9
 769 02e1 1C040000 		.4byte	.LASF57
 770 02e5 06       		.byte	0x6
 771 02e6 7D01     		.2byte	0x17d
 772 02e8 C2060000 		.4byte	0x6c2
 773 02ec 18       		.byte	0x18
 774 02ed 00       		.byte	0
 775 02ee 04       		.uleb128 0x4
 776 02ef 17060000 		.4byte	.LASF58
 777 02f3 05       		.byte	0x5
 778 02f4 57       		.byte	0x57
 779 02f5 F9020000 		.4byte	0x2f9
 780 02f9 0B       		.uleb128 0xb
 781 02fa 04       		.byte	0x4
 782 02fb FF020000 		.4byte	0x2ff
 783 02ff 0C       		.uleb128 0xc
 784 0300 0A030000 		.4byte	0x30a
 785 0304 0D       		.uleb128 0xd
 786 0305 0A030000 		.4byte	0x30a
 787 0309 00       		.byte	0
 788 030a 0E       		.uleb128 0xe
 789 030b 04       		.byte	0x4
 790 030c 04       		.uleb128 0x4
 791 030d 8C030000 		.4byte	.LASF59
 792 0311 05       		.byte	0x5
 793 0312 5C       		.byte	0x5c
 794 0313 17030000 		.4byte	0x317
 795 0317 0A       		.uleb128 0xa
 796 0318 66050000 		.4byte	.LASF60
ARM GAS  C:\cygwin\tmp\ccQYD40O.s 			page 15


 797 031c 14       		.byte	0x14
 798 031d 06       		.byte	0x6
 799 031e 4D01     		.2byte	0x14d
 800 0320 66030000 		.4byte	0x366
 801 0324 09       		.uleb128 0x9
 802 0325 F8010000 		.4byte	.LASF61
 803 0329 06       		.byte	0x6
 804 032a 4E01     		.2byte	0x14e
 805 032c 49070000 		.4byte	0x749
 806 0330 00       		.byte	0
 807 0331 09       		.uleb128 0x9
 808 0332 AC010000 		.4byte	.LASF62
 809 0336 06       		.byte	0x6
 810 0337 4F01     		.2byte	0x14f
 811 0339 49070000 		.4byte	0x749
 812 033d 04       		.byte	0x4
 813 033e 09       		.uleb128 0x9
 814 033f 9D050000 		.4byte	.LASF63
 815 0343 06       		.byte	0x6
 816 0344 5001     		.2byte	0x150
 817 0346 30010000 		.4byte	0x130
 818 034a 08       		.byte	0x8
 819 034b 09       		.uleb128 0x9
 820 034c 53070000 		.4byte	.LASF64
 821 0350 06       		.byte	0x6
 822 0351 5101     		.2byte	0x151
 823 0353 EE020000 		.4byte	0x2ee
 824 0357 0C       		.byte	0xc
 825 0358 09       		.uleb128 0x9
 826 0359 8E060000 		.4byte	.LASF65
 827 035d 06       		.byte	0x6
 828 035e 5301     		.2byte	0x153
 829 0360 0A030000 		.4byte	0x30a
 830 0364 10       		.byte	0x10
 831 0365 00       		.byte	0
 832 0366 04       		.uleb128 0x4
 833 0367 A7000000 		.4byte	.LASF66
 834 036b 05       		.byte	0x5
 835 036c 61       		.byte	0x61
 836 036d 71030000 		.4byte	0x371
 837 0371 0A       		.uleb128 0xa
 838 0372 AF030000 		.4byte	.LASF67
 839 0376 10       		.byte	0x10
 840 0377 06       		.byte	0x6
 841 0378 5D01     		.2byte	0x15d
 842 037a B3030000 		.4byte	0x3b3
 843 037e 09       		.uleb128 0x9
 844 037f F8010000 		.4byte	.LASF61
 845 0383 06       		.byte	0x6
 846 0384 5E01     		.2byte	0x15e
 847 0386 49070000 		.4byte	0x749
 848 038a 00       		.byte	0
 849 038b 09       		.uleb128 0x9
 850 038c AC010000 		.4byte	.LASF62
 851 0390 06       		.byte	0x6
 852 0391 6001     		.2byte	0x160
 853 0393 49070000 		.4byte	0x749
ARM GAS  C:\cygwin\tmp\ccQYD40O.s 			page 16


 854 0397 04       		.byte	0x4
 855 0398 09       		.uleb128 0x9
 856 0399 9D050000 		.4byte	.LASF63
 857 039d 06       		.byte	0x6
 858 039e 6201     		.2byte	0x162
 859 03a0 30010000 		.4byte	0x130
 860 03a4 08       		.byte	0x8
 861 03a5 09       		.uleb128 0x9
 862 03a6 DB030000 		.4byte	.LASF68
 863 03aa 06       		.byte	0x6
 864 03ab 6A01     		.2byte	0x16a
 865 03ad 30010000 		.4byte	0x130
 866 03b1 0C       		.byte	0xc
 867 03b2 00       		.byte	0
 868 03b3 04       		.uleb128 0x4
 869 03b4 4D000000 		.4byte	.LASF69
 870 03b8 05       		.byte	0x5
 871 03b9 66       		.byte	0x66
 872 03ba BE030000 		.4byte	0x3be
 873 03be 0A       		.uleb128 0xa
 874 03bf E4040000 		.4byte	.LASF70
 875 03c3 04       		.byte	0x4
 876 03c4 06       		.byte	0x6
 877 03c5 8401     		.2byte	0x184
 878 03c7 D9030000 		.4byte	0x3d9
 879 03cb 09       		.uleb128 0x9
 880 03cc 34060000 		.4byte	.LASF71
 881 03d0 06       		.byte	0x6
 882 03d1 8C01     		.2byte	0x18c
 883 03d3 4F070000 		.4byte	0x74f
 884 03d7 00       		.byte	0
 885 03d8 00       		.byte	0
 886 03d9 04       		.uleb128 0x4
 887 03da 56020000 		.4byte	.LASF72
 888 03de 05       		.byte	0x5
 889 03df 6B       		.byte	0x6b
 890 03e0 E4030000 		.4byte	0x3e4
 891 03e4 0F       		.uleb128 0xf
 892 03e5 36010000 		.4byte	.LASF73
 893 03e9 5001     		.2byte	0x150
 894 03eb 06       		.byte	0x6
 895 03ec A401     		.2byte	0x1a4
 896 03ee 40040000 		.4byte	0x440
 897 03f2 09       		.uleb128 0x9
 898 03f3 C5060000 		.4byte	.LASF74
 899 03f7 06       		.byte	0x6
 900 03f8 A801     		.2byte	0x1a8
 901 03fa 87020000 		.4byte	0x287
 902 03fe 00       		.byte	0
 903 03ff 09       		.uleb128 0x9
 904 0400 B4010000 		.4byte	.LASF75
 905 0404 06       		.byte	0x6
 906 0405 AC01     		.2byte	0x1ac
 907 0407 66030000 		.4byte	0x366
 908 040b 1C       		.byte	0x1c
 909 040c 08       		.uleb128 0x8
 910 040d 64626700 		.ascii	"dbg\000"
ARM GAS  C:\cygwin\tmp\ccQYD40O.s 			page 17


 911 0411 06       		.byte	0x6
 912 0412 B001     		.2byte	0x1b0
 913 0414 B3030000 		.4byte	0x3b3
 914 0418 2C       		.byte	0x2c
 915 0419 09       		.uleb128 0x9
 916 041a 9C000000 		.4byte	.LASF76
 917 041e 06       		.byte	0x6
 918 041f B401     		.2byte	0x1b4
 919 0421 3B010000 		.4byte	0x13b
 920 0425 30       		.byte	0x30
 921 0426 08       		.uleb128 0x8
 922 0427 746D00   		.ascii	"tm\000"
 923 042a 06       		.byte	0x6
 924 042b B901     		.2byte	0x1b9
 925 042d B7060000 		.4byte	0x6b7
 926 0431 74       		.byte	0x74
 927 0432 09       		.uleb128 0x9
 928 0433 DC010000 		.4byte	.LASF77
 929 0437 06       		.byte	0x6
 930 0438 C501     		.2byte	0x1c5
 931 043a 54070000 		.4byte	0x754
 932 043e 78       		.byte	0x78
 933 043f 00       		.byte	0
 934 0440 03       		.uleb128 0x3
 935 0441 04       		.byte	0x4
 936 0442 07       		.byte	0x7
 937 0443 A6030000 		.4byte	.LASF78
 938 0447 10       		.uleb128 0x10
 939 0448 C3000000 		.4byte	0xc3
 940 044c 57040000 		.4byte	0x457
 941 0450 11       		.uleb128 0x11
 942 0451 40040000 		.4byte	0x440
 943 0455 01       		.byte	0x1
 944 0456 00       		.byte	0
 945 0457 12       		.uleb128 0x12
 946 0458 88       		.byte	0x88
 947 0459 07       		.byte	0x7
 948 045a 6401     		.2byte	0x164
 949 045c E6050000 		.4byte	0x5e6
 950 0460 08       		.uleb128 0x8
 951 0461 435200   		.ascii	"CR\000"
 952 0464 07       		.byte	0x7
 953 0465 6601     		.2byte	0x166
 954 0467 DE000000 		.4byte	0xde
 955 046b 00       		.byte	0
 956 046c 09       		.uleb128 0x9
 957 046d 86010000 		.4byte	.LASF79
 958 0471 07       		.byte	0x7
 959 0472 6701     		.2byte	0x167
 960 0474 DE000000 		.4byte	0xde
 961 0478 04       		.byte	0x4
 962 0479 09       		.uleb128 0x9
 963 047a F6060000 		.4byte	.LASF80
 964 047e 07       		.byte	0x7
 965 047f 6801     		.2byte	0x168
 966 0481 DE000000 		.4byte	0xde
 967 0485 08       		.byte	0x8
ARM GAS  C:\cygwin\tmp\ccQYD40O.s 			page 18


 968 0486 08       		.uleb128 0x8
 969 0487 43495200 		.ascii	"CIR\000"
 970 048b 07       		.byte	0x7
 971 048c 6901     		.2byte	0x169
 972 048e DE000000 		.4byte	0xde
 973 0492 0C       		.byte	0xc
 974 0493 09       		.uleb128 0x9
 975 0494 0B010000 		.4byte	.LASF81
 976 0498 07       		.byte	0x7
 977 0499 6A01     		.2byte	0x16a
 978 049b DE000000 		.4byte	0xde
 979 049f 10       		.byte	0x10
 980 04a0 09       		.uleb128 0x9
 981 04a1 E9050000 		.4byte	.LASF82
 982 04a5 07       		.byte	0x7
 983 04a6 6B01     		.2byte	0x16b
 984 04a8 DE000000 		.4byte	0xde
 985 04ac 14       		.byte	0x14
 986 04ad 09       		.uleb128 0x9
 987 04ae 4D020000 		.4byte	.LASF83
 988 04b2 07       		.byte	0x7
 989 04b3 6C01     		.2byte	0x16c
 990 04b5 DE000000 		.4byte	0xde
 991 04b9 18       		.byte	0x18
 992 04ba 09       		.uleb128 0x9
 993 04bb 93040000 		.4byte	.LASF84
 994 04bf 07       		.byte	0x7
 995 04c0 6D01     		.2byte	0x16d
 996 04c2 C3000000 		.4byte	0xc3
 997 04c6 1C       		.byte	0x1c
 998 04c7 09       		.uleb128 0x9
 999 04c8 26040000 		.4byte	.LASF85
 1000 04cc 07       		.byte	0x7
 1001 04cd 6E01     		.2byte	0x16e
 1002 04cf DE000000 		.4byte	0xde
 1003 04d3 20       		.byte	0x20
 1004 04d4 09       		.uleb128 0x9
 1005 04d5 50010000 		.4byte	.LASF86
 1006 04d9 07       		.byte	0x7
 1007 04da 6F01     		.2byte	0x16f
 1008 04dc DE000000 		.4byte	0xde
 1009 04e0 24       		.byte	0x24
 1010 04e1 09       		.uleb128 0x9
 1011 04e2 9D040000 		.4byte	.LASF87
 1012 04e6 07       		.byte	0x7
 1013 04e7 7001     		.2byte	0x170
 1014 04e9 47040000 		.4byte	0x447
 1015 04ed 28       		.byte	0x28
 1016 04ee 09       		.uleb128 0x9
 1017 04ef E7060000 		.4byte	.LASF88
 1018 04f3 07       		.byte	0x7
 1019 04f4 7101     		.2byte	0x171
 1020 04f6 DE000000 		.4byte	0xde
 1021 04fa 30       		.byte	0x30
 1022 04fb 09       		.uleb128 0x9
 1023 04fc 58060000 		.4byte	.LASF89
 1024 0500 07       		.byte	0x7
ARM GAS  C:\cygwin\tmp\ccQYD40O.s 			page 19


 1025 0501 7201     		.2byte	0x172
 1026 0503 DE000000 		.4byte	0xde
 1027 0507 34       		.byte	0x34
 1028 0508 09       		.uleb128 0x9
 1029 0509 D3030000 		.4byte	.LASF90
 1030 050d 07       		.byte	0x7
 1031 050e 7301     		.2byte	0x173
 1032 0510 DE000000 		.4byte	0xde
 1033 0514 38       		.byte	0x38
 1034 0515 09       		.uleb128 0x9
 1035 0516 A7040000 		.4byte	.LASF91
 1036 051a 07       		.byte	0x7
 1037 051b 7401     		.2byte	0x174
 1038 051d C3000000 		.4byte	0xc3
 1039 0521 3C       		.byte	0x3c
 1040 0522 09       		.uleb128 0x9
 1041 0523 45060000 		.4byte	.LASF92
 1042 0527 07       		.byte	0x7
 1043 0528 7501     		.2byte	0x175
 1044 052a DE000000 		.4byte	0xde
 1045 052e 40       		.byte	0x40
 1046 052f 09       		.uleb128 0x9
 1047 0530 5E050000 		.4byte	.LASF93
 1048 0534 07       		.byte	0x7
 1049 0535 7601     		.2byte	0x176
 1050 0537 DE000000 		.4byte	0xde
 1051 053b 44       		.byte	0x44
 1052 053c 09       		.uleb128 0x9
 1053 053d B1040000 		.4byte	.LASF94
 1054 0541 07       		.byte	0x7
 1055 0542 7701     		.2byte	0x177
 1056 0544 47040000 		.4byte	0x447
 1057 0548 48       		.byte	0x48
 1058 0549 09       		.uleb128 0x9
 1059 054a DB000000 		.4byte	.LASF95
 1060 054e 07       		.byte	0x7
 1061 054f 7801     		.2byte	0x178
 1062 0551 DE000000 		.4byte	0xde
 1063 0555 50       		.byte	0x50
 1064 0556 09       		.uleb128 0x9
 1065 0557 F5030000 		.4byte	.LASF96
 1066 055b 07       		.byte	0x7
 1067 055c 7901     		.2byte	0x179
 1068 055e DE000000 		.4byte	0xde
 1069 0562 54       		.byte	0x54
 1070 0563 09       		.uleb128 0x9
 1071 0564 31050000 		.4byte	.LASF97
 1072 0568 07       		.byte	0x7
 1073 0569 7A01     		.2byte	0x17a
 1074 056b DE000000 		.4byte	0xde
 1075 056f 58       		.byte	0x58
 1076 0570 09       		.uleb128 0x9
 1077 0571 BB040000 		.4byte	.LASF98
 1078 0575 07       		.byte	0x7
 1079 0576 7B01     		.2byte	0x17b
 1080 0578 C3000000 		.4byte	0xc3
 1081 057c 5C       		.byte	0x5c
ARM GAS  C:\cygwin\tmp\ccQYD40O.s 			page 20


 1082 057d 09       		.uleb128 0x9
 1083 057e 59010000 		.4byte	.LASF99
 1084 0582 07       		.byte	0x7
 1085 0583 7C01     		.2byte	0x17c
 1086 0585 DE000000 		.4byte	0xde
 1087 0589 60       		.byte	0x60
 1088 058a 09       		.uleb128 0x9
 1089 058b 6A020000 		.4byte	.LASF100
 1090 058f 07       		.byte	0x7
 1091 0590 7D01     		.2byte	0x17d
 1092 0592 DE000000 		.4byte	0xde
 1093 0596 64       		.byte	0x64
 1094 0597 09       		.uleb128 0x9
 1095 0598 82050000 		.4byte	.LASF101
 1096 059c 07       		.byte	0x7
 1097 059d 7E01     		.2byte	0x17e
 1098 059f 47040000 		.4byte	0x447
 1099 05a3 68       		.byte	0x68
 1100 05a4 09       		.uleb128 0x9
 1101 05a5 C0060000 		.4byte	.LASF102
 1102 05a9 07       		.byte	0x7
 1103 05aa 7F01     		.2byte	0x17f
 1104 05ac DE000000 		.4byte	0xde
 1105 05b0 70       		.byte	0x70
 1106 05b1 08       		.uleb128 0x8
 1107 05b2 43535200 		.ascii	"CSR\000"
 1108 05b6 07       		.byte	0x7
 1109 05b7 8001     		.2byte	0x180
 1110 05b9 DE000000 		.4byte	0xde
 1111 05bd 74       		.byte	0x74
 1112 05be 09       		.uleb128 0x9
 1113 05bf CC040000 		.4byte	.LASF103
 1114 05c3 07       		.byte	0x7
 1115 05c4 8101     		.2byte	0x181
 1116 05c6 47040000 		.4byte	0x447
 1117 05ca 78       		.byte	0x78
 1118 05cb 09       		.uleb128 0x9
 1119 05cc 95060000 		.4byte	.LASF104
 1120 05d0 07       		.byte	0x7
 1121 05d1 8201     		.2byte	0x182
 1122 05d3 DE000000 		.4byte	0xde
 1123 05d7 80       		.byte	0x80
 1124 05d8 09       		.uleb128 0x9
 1125 05d9 3C020000 		.4byte	.LASF105
 1126 05dd 07       		.byte	0x7
 1127 05de 8301     		.2byte	0x183
 1128 05e0 DE000000 		.4byte	0xde
 1129 05e4 84       		.byte	0x84
 1130 05e5 00       		.byte	0
 1131 05e6 13       		.uleb128 0x13
 1132 05e7 2A010000 		.4byte	.LASF106
 1133 05eb 07       		.byte	0x7
 1134 05ec 8501     		.2byte	0x185
 1135 05ee 57040000 		.4byte	0x457
 1136 05f2 04       		.uleb128 0x4
 1137 05f3 A3010000 		.4byte	.LASF107
 1138 05f7 08       		.byte	0x8
ARM GAS  C:\cygwin\tmp\ccQYD40O.s 			page 21


 1139 05f8 85       		.byte	0x85
 1140 05f9 0A030000 		.4byte	0x30a
 1141 05fd 04       		.uleb128 0x4
 1142 05fe 72030000 		.4byte	.LASF108
 1143 0602 08       		.byte	0x8
 1144 0603 8D       		.byte	0x8d
 1145 0604 CE000000 		.4byte	0xce
 1146 0608 06       		.uleb128 0x6
 1147 0609 60060000 		.4byte	.LASF109
 1148 060d 04       		.byte	0x4
 1149 060e 08       		.byte	0x8
 1150 060f A9       		.byte	0xa9
 1151 0610 21060000 		.4byte	0x621
 1152 0614 14       		.uleb128 0x14
 1153 0615 72313300 		.ascii	"r13\000"
 1154 0619 08       		.byte	0x8
 1155 061a AA       		.byte	0xaa
 1156 061b 9C060000 		.4byte	0x69c
 1157 061f 00       		.byte	0
 1158 0620 00       		.byte	0
 1159 0621 06       		.uleb128 0x6
 1160 0622 41000000 		.4byte	.LASF110
 1161 0626 24       		.byte	0x24
 1162 0627 09       		.byte	0x9
 1163 0628 F4       		.byte	0xf4
 1164 0629 9C060000 		.4byte	0x69c
 1165 062d 08       		.uleb128 0x8
 1166 062e 723400   		.ascii	"r4\000"
 1167 0631 09       		.byte	0x9
 1168 0632 0701     		.2byte	0x107
 1169 0634 F2050000 		.4byte	0x5f2
 1170 0638 00       		.byte	0
 1171 0639 08       		.uleb128 0x8
 1172 063a 723500   		.ascii	"r5\000"
 1173 063d 09       		.byte	0x9
 1174 063e 0801     		.2byte	0x108
 1175 0640 F2050000 		.4byte	0x5f2
 1176 0644 04       		.byte	0x4
 1177 0645 08       		.uleb128 0x8
 1178 0646 723600   		.ascii	"r6\000"
 1179 0649 09       		.byte	0x9
 1180 064a 0901     		.2byte	0x109
 1181 064c F2050000 		.4byte	0x5f2
 1182 0650 08       		.byte	0x8
 1183 0651 08       		.uleb128 0x8
 1184 0652 723700   		.ascii	"r7\000"
 1185 0655 09       		.byte	0x9
 1186 0656 0A01     		.2byte	0x10a
 1187 0658 F2050000 		.4byte	0x5f2
 1188 065c 0C       		.byte	0xc
 1189 065d 08       		.uleb128 0x8
 1190 065e 723800   		.ascii	"r8\000"
 1191 0661 09       		.byte	0x9
 1192 0662 0B01     		.2byte	0x10b
 1193 0664 F2050000 		.4byte	0x5f2
 1194 0668 10       		.byte	0x10
 1195 0669 08       		.uleb128 0x8
ARM GAS  C:\cygwin\tmp\ccQYD40O.s 			page 22


 1196 066a 723900   		.ascii	"r9\000"
 1197 066d 09       		.byte	0x9
 1198 066e 0C01     		.2byte	0x10c
 1199 0670 F2050000 		.4byte	0x5f2
 1200 0674 14       		.byte	0x14
 1201 0675 08       		.uleb128 0x8
 1202 0676 72313000 		.ascii	"r10\000"
 1203 067a 09       		.byte	0x9
 1204 067b 0D01     		.2byte	0x10d
 1205 067d F2050000 		.4byte	0x5f2
 1206 0681 18       		.byte	0x18
 1207 0682 08       		.uleb128 0x8
 1208 0683 72313100 		.ascii	"r11\000"
 1209 0687 09       		.byte	0x9
 1210 0688 0E01     		.2byte	0x10e
 1211 068a F2050000 		.4byte	0x5f2
 1212 068e 1C       		.byte	0x1c
 1213 068f 08       		.uleb128 0x8
 1214 0690 6C7200   		.ascii	"lr\000"
 1215 0693 09       		.byte	0x9
 1216 0694 0F01     		.2byte	0x10f
 1217 0696 F2050000 		.4byte	0x5f2
 1218 069a 20       		.byte	0x20
 1219 069b 00       		.byte	0
 1220 069c 0B       		.uleb128 0xb
 1221 069d 04       		.byte	0x4
 1222 069e 21060000 		.4byte	0x621
 1223 06a2 15       		.uleb128 0x15
 1224 06a3 04       		.byte	0x4
 1225 06a4 0A       		.byte	0xa
 1226 06a5 38       		.byte	0x38
 1227 06a6 B7060000 		.4byte	0x6b7
 1228 06aa 07       		.uleb128 0x7
 1229 06ab 3E060000 		.4byte	.LASF111
 1230 06af 0A       		.byte	0xa
 1231 06b0 3C       		.byte	0x3c
 1232 06b1 E3000000 		.4byte	0xe3
 1233 06b5 00       		.byte	0
 1234 06b6 00       		.byte	0
 1235 06b7 04       		.uleb128 0x4
 1236 06b8 FF030000 		.4byte	.LASF112
 1237 06bc 0A       		.byte	0xa
 1238 06bd 3D       		.byte	0x3d
 1239 06be A2060000 		.4byte	0x6a2
 1240 06c2 0B       		.uleb128 0xb
 1241 06c3 04       		.byte	0x4
 1242 06c4 3B010000 		.4byte	0x13b
 1243 06c8 16       		.uleb128 0x16
 1244 06c9 04       		.byte	0x4
 1245 06ca 06       		.byte	0x6
 1246 06cb F6       		.byte	0xf6
 1247 06cc 00070000 		.4byte	0x700
 1248 06d0 17       		.uleb128 0x17
 1249 06d1 20000000 		.4byte	.LASF113
 1250 06d5 06       		.byte	0x6
 1251 06d6 FD       		.byte	0xfd
 1252 06d7 1A010000 		.4byte	0x11a
ARM GAS  C:\cygwin\tmp\ccQYD40O.s 			page 23


 1253 06db 18       		.uleb128 0x18
 1254 06dc 93000000 		.4byte	.LASF114
 1255 06e0 06       		.byte	0x6
 1256 06e1 0401     		.2byte	0x104
 1257 06e3 1A010000 		.4byte	0x11a
 1258 06e7 18       		.uleb128 0x18
 1259 06e8 D9060000 		.4byte	.LASF115
 1260 06ec 06       		.byte	0x6
 1261 06ed 0B01     		.2byte	0x10b
 1262 06ef 0A030000 		.4byte	0x30a
 1263 06f3 18       		.uleb128 0x18
 1264 06f4 49050000 		.4byte	.LASF116
 1265 06f8 06       		.byte	0x6
 1266 06f9 1201     		.2byte	0x112
 1267 06fb 25010000 		.4byte	0x125
 1268 06ff 00       		.byte	0
 1269 0700 0B       		.uleb128 0xb
 1270 0701 04       		.byte	0x4
 1271 0702 06070000 		.4byte	0x706
 1272 0706 19       		.uleb128 0x19
 1273 0707 0B070000 		.4byte	0x70b
 1274 070b 03       		.uleb128 0x3
 1275 070c 01       		.byte	0x1
 1276 070d 08       		.byte	0x8
 1277 070e CD050000 		.4byte	.LASF117
 1278 0712 06       		.uleb128 0x6
 1279 0713 DE040000 		.4byte	.LASF118
 1280 0717 10       		.byte	0x10
 1281 0718 0B       		.byte	0xb
 1282 0719 39       		.byte	0x39
 1283 071a 43070000 		.4byte	0x743
 1284 071e 07       		.uleb128 0x7
 1285 071f 1C010000 		.4byte	.LASF119
 1286 0723 0B       		.byte	0xb
 1287 0724 3A       		.byte	0x3a
 1288 0725 57020000 		.4byte	0x257
 1289 0729 00       		.byte	0
 1290 072a 07       		.uleb128 0x7
 1291 072b 45070000 		.4byte	.LASF120
 1292 072f 0B       		.byte	0xb
 1293 0730 3C       		.byte	0x3c
 1294 0731 C2060000 		.4byte	0x6c2
 1295 0735 08       		.byte	0x8
 1296 0736 07       		.uleb128 0x7
 1297 0737 FB050000 		.4byte	.LASF121
 1298 073b 0B       		.byte	0xb
 1299 073c 3E       		.byte	0x3e
 1300 073d 6F070000 		.4byte	0x76f
 1301 0741 0C       		.byte	0xc
 1302 0742 00       		.byte	0
 1303 0743 0B       		.uleb128 0xb
 1304 0744 04       		.byte	0x4
 1305 0745 12070000 		.4byte	0x712
 1306 0749 0B       		.uleb128 0xb
 1307 074a 04       		.byte	0x4
 1308 074b 0C030000 		.4byte	0x30c
 1309 074f 05       		.uleb128 0x5
ARM GAS  C:\cygwin\tmp\ccQYD40O.s 			page 24


 1310 0750 00070000 		.4byte	0x700
 1311 0754 10       		.uleb128 0x10
 1312 0755 FD050000 		.4byte	0x5fd
 1313 0759 64070000 		.4byte	0x764
 1314 075d 11       		.uleb128 0x11
 1315 075e 40040000 		.4byte	0x440
 1316 0762 1A       		.byte	0x1a
 1317 0763 00       		.byte	0
 1318 0764 04       		.uleb128 0x4
 1319 0765 CD010000 		.4byte	.LASF122
 1320 0769 0B       		.byte	0xb
 1321 076a 34       		.byte	0x34
 1322 076b 12070000 		.4byte	0x712
 1323 076f 0B       		.uleb128 0xb
 1324 0770 04       		.byte	0x4
 1325 0771 64070000 		.4byte	0x764
 1326 0775 03       		.uleb128 0x3
 1327 0776 01       		.byte	0x1
 1328 0777 02       		.byte	0x2
 1329 0778 F4040000 		.4byte	.LASF123
 1330 077c 15       		.uleb128 0x15
 1331 077d 04       		.byte	0x4
 1332 077e 0C       		.byte	0xc
 1333 077f B3       		.byte	0xb3
 1334 0780 9D070000 		.4byte	0x79d
 1335 0784 14       		.uleb128 0x14
 1336 0785 73657400 		.ascii	"set\000"
 1337 0789 0C       		.byte	0xc
 1338 078a B4       		.byte	0xb4
 1339 078b AD000000 		.4byte	0xad
 1340 078f 00       		.byte	0
 1341 0790 07       		.uleb128 0x7
 1342 0791 C6030000 		.4byte	.LASF124
 1343 0795 0C       		.byte	0xc
 1344 0796 B5       		.byte	0xb5
 1345 0797 AD000000 		.4byte	0xad
 1346 079b 02       		.byte	0x2
 1347 079c 00       		.byte	0
 1348 079d 16       		.uleb128 0x16
 1349 079e 04       		.byte	0x4
 1350 079f 0C       		.byte	0xc
 1351 07a0 B1       		.byte	0xb1
 1352 07a1 B8070000 		.4byte	0x7b8
 1353 07a5 1A       		.uleb128 0x1a
 1354 07a6 5700     		.ascii	"W\000"
 1355 07a8 0C       		.byte	0xc
 1356 07a9 B2       		.byte	0xb2
 1357 07aa C3000000 		.4byte	0xc3
 1358 07ae 1A       		.uleb128 0x1a
 1359 07af 4800     		.ascii	"H\000"
 1360 07b1 0C       		.byte	0xc
 1361 07b2 B6       		.byte	0xb6
 1362 07b3 7C070000 		.4byte	0x77c
 1363 07b7 00       		.byte	0
 1364 07b8 15       		.uleb128 0x15
 1365 07b9 2C       		.byte	0x2c
 1366 07ba 0C       		.byte	0xc
ARM GAS  C:\cygwin\tmp\ccQYD40O.s 			page 25


 1367 07bb A9       		.byte	0xa9
 1368 07bc 45080000 		.4byte	0x845
 1369 07c0 07       		.uleb128 0x7
 1370 07c1 70000000 		.4byte	.LASF125
 1371 07c5 0C       		.byte	0xc
 1372 07c6 AB       		.byte	0xab
 1373 07c7 DE000000 		.4byte	0xde
 1374 07cb 00       		.byte	0
 1375 07cc 07       		.uleb128 0x7
 1376 07cd 3A000000 		.4byte	.LASF126
 1377 07d1 0C       		.byte	0xc
 1378 07d2 AC       		.byte	0xac
 1379 07d3 DE000000 		.4byte	0xde
 1380 07d7 04       		.byte	0x4
 1381 07d8 07       		.uleb128 0x7
 1382 07d9 8E010000 		.4byte	.LASF127
 1383 07dd 0C       		.byte	0xc
 1384 07de AD       		.byte	0xad
 1385 07df DE000000 		.4byte	0xde
 1386 07e3 08       		.byte	0x8
 1387 07e4 07       		.uleb128 0x7
 1388 07e5 8D000000 		.4byte	.LASF128
 1389 07e9 0C       		.byte	0xc
 1390 07ea AE       		.byte	0xae
 1391 07eb DE000000 		.4byte	0xde
 1392 07ef 0C       		.byte	0xc
 1393 07f0 14       		.uleb128 0x14
 1394 07f1 49445200 		.ascii	"IDR\000"
 1395 07f5 0C       		.byte	0xc
 1396 07f6 AF       		.byte	0xaf
 1397 07f7 DE000000 		.4byte	0xde
 1398 07fb 10       		.byte	0x10
 1399 07fc 14       		.uleb128 0x14
 1400 07fd 4F445200 		.ascii	"ODR\000"
 1401 0801 0C       		.byte	0xc
 1402 0802 B0       		.byte	0xb0
 1403 0803 DE000000 		.4byte	0xde
 1404 0807 14       		.byte	0x14
 1405 0808 07       		.uleb128 0x7
 1406 0809 06010000 		.4byte	.LASF129
 1407 080d 0C       		.byte	0xc
 1408 080e B7       		.byte	0xb7
 1409 080f 45080000 		.4byte	0x845
 1410 0813 18       		.byte	0x18
 1411 0814 07       		.uleb128 0x7
 1412 0815 13020000 		.4byte	.LASF130
 1413 0819 0C       		.byte	0xc
 1414 081a B8       		.byte	0xb8
 1415 081b DE000000 		.4byte	0xde
 1416 081f 1C       		.byte	0x1c
 1417 0820 07       		.uleb128 0x7
 1418 0821 86040000 		.4byte	.LASF131
 1419 0825 0C       		.byte	0xc
 1420 0826 B9       		.byte	0xb9
 1421 0827 DE000000 		.4byte	0xde
 1422 082b 20       		.byte	0x20
 1423 082c 07       		.uleb128 0x7
ARM GAS  C:\cygwin\tmp\ccQYD40O.s 			page 26


 1424 082d 3A040000 		.4byte	.LASF132
 1425 0831 0C       		.byte	0xc
 1426 0832 BA       		.byte	0xba
 1427 0833 DE000000 		.4byte	0xde
 1428 0837 24       		.byte	0x24
 1429 0838 14       		.uleb128 0x14
 1430 0839 42525200 		.ascii	"BRR\000"
 1431 083d 0C       		.byte	0xc
 1432 083e BB       		.byte	0xbb
 1433 083f DE000000 		.4byte	0xde
 1434 0843 28       		.byte	0x28
 1435 0844 00       		.byte	0
 1436 0845 05       		.uleb128 0x5
 1437 0846 9D070000 		.4byte	0x79d
 1438 084a 04       		.uleb128 0x4
 1439 084b BB010000 		.4byte	.LASF133
 1440 084f 0C       		.byte	0xc
 1441 0850 BC       		.byte	0xbc
 1442 0851 B8070000 		.4byte	0x7b8
 1443 0855 15       		.uleb128 0x15
 1444 0856 1C       		.byte	0x1c
 1445 0857 0C       		.byte	0xc
 1446 0858 C1       		.byte	0xc1
 1447 0859 B2080000 		.4byte	0x8b2
 1448 085d 07       		.uleb128 0x7
 1449 085e 24010000 		.4byte	.LASF134
 1450 0862 0C       		.byte	0xc
 1451 0863 C3       		.byte	0xc3
 1452 0864 C3000000 		.4byte	0xc3
 1453 0868 00       		.byte	0
 1454 0869 07       		.uleb128 0x7
 1455 086a 18020000 		.4byte	.LASF135
 1456 086e 0C       		.byte	0xc
 1457 086f C5       		.byte	0xc5
 1458 0870 C3000000 		.4byte	0xc3
 1459 0874 04       		.byte	0x4
 1460 0875 07       		.uleb128 0x7
 1461 0876 0B020000 		.4byte	.LASF136
 1462 087a 0C       		.byte	0xc
 1463 087b C7       		.byte	0xc7
 1464 087c C3000000 		.4byte	0xc3
 1465 0880 08       		.byte	0x8
 1466 0881 07       		.uleb128 0x7
 1467 0882 D3060000 		.4byte	.LASF137
 1468 0886 0C       		.byte	0xc
 1469 0887 C9       		.byte	0xc9
 1470 0888 C3000000 		.4byte	0xc3
 1471 088c 0C       		.byte	0xc
 1472 088d 14       		.uleb128 0x14
 1473 088e 6F647200 		.ascii	"odr\000"
 1474 0892 0C       		.byte	0xc
 1475 0893 CB       		.byte	0xcb
 1476 0894 C3000000 		.4byte	0xc3
 1477 0898 10       		.byte	0x10
 1478 0899 07       		.uleb128 0x7
 1479 089a 10050000 		.4byte	.LASF138
 1480 089e 0C       		.byte	0xc
ARM GAS  C:\cygwin\tmp\ccQYD40O.s 			page 27


 1481 089f CD       		.byte	0xcd
 1482 08a0 C3000000 		.4byte	0xc3
 1483 08a4 14       		.byte	0x14
 1484 08a5 07       		.uleb128 0x7
 1485 08a6 10040000 		.4byte	.LASF139
 1486 08aa 0C       		.byte	0xc
 1487 08ab CF       		.byte	0xcf
 1488 08ac C3000000 		.4byte	0xc3
 1489 08b0 18       		.byte	0x18
 1490 08b1 00       		.byte	0
 1491 08b2 04       		.uleb128 0x4
 1492 08b3 00000000 		.4byte	.LASF140
 1493 08b7 0C       		.byte	0xc
 1494 08b8 D0       		.byte	0xd0
 1495 08b9 55080000 		.4byte	0x855
 1496 08bd 15       		.uleb128 0x15
 1497 08be A8       		.byte	0xa8
 1498 08bf 0C       		.byte	0xc
 1499 08c0 D9       		.byte	0xd9
 1500 08c1 0E090000 		.4byte	0x90e
 1501 08c5 07       		.uleb128 0x7
 1502 08c6 42050000 		.4byte	.LASF141
 1503 08ca 0C       		.byte	0xc
 1504 08cb DC       		.byte	0xdc
 1505 08cc B2080000 		.4byte	0x8b2
 1506 08d0 00       		.byte	0
 1507 08d1 07       		.uleb128 0x7
 1508 08d2 D5010000 		.4byte	.LASF142
 1509 08d6 0C       		.byte	0xc
 1510 08d7 E0       		.byte	0xe0
 1511 08d8 B2080000 		.4byte	0x8b2
 1512 08dc 1C       		.byte	0x1c
 1513 08dd 07       		.uleb128 0x7
 1514 08de EF060000 		.4byte	.LASF143
 1515 08e2 0C       		.byte	0xc
 1516 08e3 E4       		.byte	0xe4
 1517 08e4 B2080000 		.4byte	0x8b2
 1518 08e8 38       		.byte	0x38
 1519 08e9 07       		.uleb128 0x7
 1520 08ea 15040000 		.4byte	.LASF144
 1521 08ee 0C       		.byte	0xc
 1522 08ef E8       		.byte	0xe8
 1523 08f0 B2080000 		.4byte	0x8b2
 1524 08f4 54       		.byte	0x54
 1525 08f5 07       		.uleb128 0x7
 1526 08f6 49010000 		.4byte	.LASF145
 1527 08fa 0C       		.byte	0xc
 1528 08fb EC       		.byte	0xec
 1529 08fc B2080000 		.4byte	0x8b2
 1530 0900 70       		.byte	0x70
 1531 0901 07       		.uleb128 0x7
 1532 0902 69000000 		.4byte	.LASF146
 1533 0906 0C       		.byte	0xc
 1534 0907 F8       		.byte	0xf8
 1535 0908 B2080000 		.4byte	0x8b2
 1536 090c 8C       		.byte	0x8c
 1537 090d 00       		.byte	0
ARM GAS  C:\cygwin\tmp\ccQYD40O.s 			page 28


 1538 090e 04       		.uleb128 0x4
 1539 090f 3B070000 		.4byte	.LASF147
 1540 0913 0C       		.byte	0xc
 1541 0914 FE       		.byte	0xfe
 1542 0915 BD080000 		.4byte	0x8bd
 1543 0919 13       		.uleb128 0x13
 1544 091a 5C000000 		.4byte	.LASF148
 1545 091e 0C       		.byte	0xc
 1546 091f 0E01     		.2byte	0x10e
 1547 0921 C3000000 		.4byte	0xc3
 1548 0925 13       		.uleb128 0x13
 1549 0926 32070000 		.4byte	.LASF149
 1550 092a 0C       		.byte	0xc
 1551 092b 1301     		.2byte	0x113
 1552 092d C3000000 		.4byte	0xc3
 1553 0931 13       		.uleb128 0x13
 1554 0932 4D060000 		.4byte	.LASF150
 1555 0936 0C       		.byte	0xc
 1556 0937 1B01     		.2byte	0x11b
 1557 0939 3D090000 		.4byte	0x93d
 1558 093d 0B       		.uleb128 0xb
 1559 093e 04       		.byte	0x4
 1560 093f 4A080000 		.4byte	0x84a
 1561 0943 1B       		.uleb128 0x1b
 1562 0944 2B060000 		.4byte	.LASF164
 1563 0948 01       		.byte	0x1
 1564 0949 41       		.byte	0x41
 1565 094a 01       		.byte	0x1
 1566 094b 66090000 		.4byte	0x966
 1567 094f 1C       		.uleb128 0x1c
 1568 0950 58050000 		.4byte	.LASF151
 1569 0954 01       		.byte	0x1
 1570 0955 41       		.byte	0x41
 1571 0956 3D090000 		.4byte	0x93d
 1572 095a 1C       		.uleb128 0x1c
 1573 095b D7050000 		.4byte	.LASF152
 1574 095f 01       		.byte	0x1
 1575 0960 41       		.byte	0x41
 1576 0961 66090000 		.4byte	0x966
 1577 0965 00       		.byte	0
 1578 0966 0B       		.uleb128 0xb
 1579 0967 04       		.byte	0x4
 1580 0968 6C090000 		.4byte	0x96c
 1581 096c 19       		.uleb128 0x19
 1582 096d B2080000 		.4byte	0x8b2
 1583 0971 1D       		.uleb128 0x1d
 1584 0972 B2060000 		.4byte	.LASF153
 1585 0976 01       		.byte	0x1
 1586 0977 5C       		.byte	0x5c
 1587 0978 00000000 		.4byte	.LFB256
 1588 097c 04010000 		.4byte	.LFE256-.LFB256
 1589 0980 01       		.uleb128 0x1
 1590 0981 9C       		.byte	0x9c
 1591 0982 750A0000 		.4byte	0xa75
 1592 0986 1E       		.uleb128 0x1e
 1593 0987 D7050000 		.4byte	.LASF152
 1594 098b 01       		.byte	0x1
ARM GAS  C:\cygwin\tmp\ccQYD40O.s 			page 29


 1595 098c 5C       		.byte	0x5c
 1596 098d 750A0000 		.4byte	0xa75
 1597 0991 01       		.uleb128 0x1
 1598 0992 50       		.byte	0x50
 1599 0993 1F       		.uleb128 0x1f
 1600 0994 43090000 		.4byte	0x943
 1601 0998 04000000 		.4byte	.LBB14
 1602 099c 00000000 		.4byte	.Ldebug_ranges0+0
 1603 09a0 01       		.byte	0x1
 1604 09a1 71       		.byte	0x71
 1605 09a2 B7090000 		.4byte	0x9b7
 1606 09a6 20       		.uleb128 0x20
 1607 09a7 5A090000 		.4byte	0x95a
 1608 09ab 01       		.uleb128 0x1
 1609 09ac 50       		.byte	0x50
 1610 09ad 21       		.uleb128 0x21
 1611 09ae 4F090000 		.4byte	0x94f
 1612 09b2 00000240 		.4byte	0x40020000
 1613 09b6 00       		.byte	0
 1614 09b7 1F       		.uleb128 0x1f
 1615 09b8 43090000 		.4byte	0x943
 1616 09bc 0A000000 		.4byte	.LBB17
 1617 09c0 18000000 		.4byte	.Ldebug_ranges0+0x18
 1618 09c4 01       		.byte	0x1
 1619 09c5 74       		.byte	0x74
 1620 09c6 DD090000 		.4byte	0x9dd
 1621 09ca 20       		.uleb128 0x20
 1622 09cb 5A090000 		.4byte	0x95a
 1623 09cf 03       		.uleb128 0x3
 1624 09d0 70       		.byte	0x70
 1625 09d1 1C       		.sleb128 28
 1626 09d2 9F       		.byte	0x9f
 1627 09d3 21       		.uleb128 0x21
 1628 09d4 4F090000 		.4byte	0x94f
 1629 09d8 00040240 		.4byte	0x40020400
 1630 09dc 00       		.byte	0
 1631 09dd 1F       		.uleb128 0x1f
 1632 09de 43090000 		.4byte	0x943
 1633 09e2 0C000000 		.4byte	.LBB20
 1634 09e6 30000000 		.4byte	.Ldebug_ranges0+0x30
 1635 09ea 01       		.byte	0x1
 1636 09eb 77       		.byte	0x77
 1637 09ec 030A0000 		.4byte	0xa03
 1638 09f0 20       		.uleb128 0x20
 1639 09f1 5A090000 		.4byte	0x95a
 1640 09f5 03       		.uleb128 0x3
 1641 09f6 70       		.byte	0x70
 1642 09f7 38       		.sleb128 56
 1643 09f8 9F       		.byte	0x9f
 1644 09f9 21       		.uleb128 0x21
 1645 09fa 4F090000 		.4byte	0x94f
 1646 09fe 00080240 		.4byte	0x40020800
 1647 0a02 00       		.byte	0
 1648 0a03 1F       		.uleb128 0x1f
 1649 0a04 43090000 		.4byte	0x943
 1650 0a08 0E000000 		.4byte	.LBB23
 1651 0a0c 48000000 		.4byte	.Ldebug_ranges0+0x48
ARM GAS  C:\cygwin\tmp\ccQYD40O.s 			page 30


 1652 0a10 01       		.byte	0x1
 1653 0a11 7A       		.byte	0x7a
 1654 0a12 2A0A0000 		.4byte	0xa2a
 1655 0a16 20       		.uleb128 0x20
 1656 0a17 5A090000 		.4byte	0x95a
 1657 0a1b 04       		.uleb128 0x4
 1658 0a1c 70       		.byte	0x70
 1659 0a1d D400     		.sleb128 84
 1660 0a1f 9F       		.byte	0x9f
 1661 0a20 21       		.uleb128 0x21
 1662 0a21 4F090000 		.4byte	0x94f
 1663 0a25 000C0240 		.4byte	0x40020c00
 1664 0a29 00       		.byte	0
 1665 0a2a 1F       		.uleb128 0x1f
 1666 0a2b 43090000 		.4byte	0x943
 1667 0a2f 10000000 		.4byte	.LBB26
 1668 0a33 60000000 		.4byte	.Ldebug_ranges0+0x60
 1669 0a37 01       		.byte	0x1
 1670 0a38 7D       		.byte	0x7d
 1671 0a39 510A0000 		.4byte	0xa51
 1672 0a3d 20       		.uleb128 0x20
 1673 0a3e 5A090000 		.4byte	0x95a
 1674 0a42 04       		.uleb128 0x4
 1675 0a43 70       		.byte	0x70
 1676 0a44 F000     		.sleb128 112
 1677 0a46 9F       		.byte	0x9f
 1678 0a47 21       		.uleb128 0x21
 1679 0a48 4F090000 		.4byte	0x94f
 1680 0a4c 00100240 		.4byte	0x40021000
 1681 0a50 00       		.byte	0
 1682 0a51 22       		.uleb128 0x22
 1683 0a52 43090000 		.4byte	0x943
 1684 0a56 12000000 		.4byte	.LBB29
 1685 0a5a 78000000 		.4byte	.Ldebug_ranges0+0x78
 1686 0a5e 01       		.byte	0x1
 1687 0a5f 86       		.byte	0x86
 1688 0a60 20       		.uleb128 0x20
 1689 0a61 5A090000 		.4byte	0x95a
 1690 0a65 04       		.uleb128 0x4
 1691 0a66 70       		.byte	0x70
 1692 0a67 8C01     		.sleb128 140
 1693 0a69 9F       		.byte	0x9f
 1694 0a6a 21       		.uleb128 0x21
 1695 0a6b 4F090000 		.4byte	0x94f
 1696 0a6f 001C0240 		.4byte	0x40021c00
 1697 0a73 00       		.byte	0
 1698 0a74 00       		.byte	0
 1699 0a75 0B       		.uleb128 0xb
 1700 0a76 04       		.byte	0x4
 1701 0a77 7B0A0000 		.4byte	0xa7b
 1702 0a7b 19       		.uleb128 0x19
 1703 0a7c 0E090000 		.4byte	0x90e
 1704 0a80 1D       		.uleb128 0x1d
 1705 0a81 70060000 		.4byte	.LASF154
 1706 0a85 01       		.byte	0x1
 1707 0a86 9B       		.byte	0x9b
 1708 0a87 00000000 		.4byte	.LFB257
ARM GAS  C:\cygwin\tmp\ccQYD40O.s 			page 31


 1709 0a8b AC000000 		.4byte	.LFE257-.LFB257
 1710 0a8f 01       		.uleb128 0x1
 1711 0a90 9C       		.byte	0x9c
 1712 0a91 500B0000 		.4byte	0xb50
 1713 0a95 1E       		.uleb128 0x1e
 1714 0a96 C8010000 		.4byte	.LASF155
 1715 0a9a 01       		.byte	0x1
 1716 0a9b 9B       		.byte	0x9b
 1717 0a9c 31090000 		.4byte	0x931
 1718 0aa0 01       		.uleb128 0x1
 1719 0aa1 50       		.byte	0x50
 1720 0aa2 23       		.uleb128 0x23
 1721 0aa3 9E010000 		.4byte	.LASF156
 1722 0aa7 01       		.byte	0x1
 1723 0aa8 9C       		.byte	0x9c
 1724 0aa9 19090000 		.4byte	0x919
 1725 0aad 00000000 		.4byte	.LLST0
 1726 0ab1 23       		.uleb128 0x23
 1727 0ab2 D2050000 		.4byte	.LASF157
 1728 0ab6 01       		.byte	0x1
 1729 0ab7 9D       		.byte	0x9d
 1730 0ab8 25090000 		.4byte	0x925
 1731 0abc 2D000000 		.4byte	.LLST1
 1732 0ac0 24       		.uleb128 0x24
 1733 0ac1 24010000 		.4byte	.LASF134
 1734 0ac5 01       		.byte	0x1
 1735 0ac6 9F       		.byte	0x9f
 1736 0ac7 C3000000 		.4byte	0xc3
 1737 0acb 01       		.uleb128 0x1
 1738 0acc 5E       		.byte	0x5e
 1739 0acd 24       		.uleb128 0x24
 1740 0ace 18020000 		.4byte	.LASF135
 1741 0ad2 01       		.byte	0x1
 1742 0ad3 A0       		.byte	0xa0
 1743 0ad4 C3000000 		.4byte	0xc3
 1744 0ad8 01       		.uleb128 0x1
 1745 0ad9 57       		.byte	0x57
 1746 0ada 24       		.uleb128 0x24
 1747 0adb 0B020000 		.4byte	.LASF136
 1748 0adf 01       		.byte	0x1
 1749 0ae0 A1       		.byte	0xa1
 1750 0ae1 C3000000 		.4byte	0xc3
 1751 0ae5 01       		.uleb128 0x1
 1752 0ae6 56       		.byte	0x56
 1753 0ae7 24       		.uleb128 0x24
 1754 0ae8 D3060000 		.4byte	.LASF137
 1755 0aec 01       		.byte	0x1
 1756 0aed A2       		.byte	0xa2
 1757 0aee C3000000 		.4byte	0xc3
 1758 0af2 01       		.uleb128 0x1
 1759 0af3 55       		.byte	0x55
 1760 0af4 24       		.uleb128 0x24
 1761 0af5 C8050000 		.4byte	.LASF158
 1762 0af9 01       		.byte	0x1
 1763 0afa A3       		.byte	0xa3
 1764 0afb C3000000 		.4byte	0xc3
 1765 0aff 01       		.uleb128 0x1
ARM GAS  C:\cygwin\tmp\ccQYD40O.s 			page 32


 1766 0b00 52       		.byte	0x52
 1767 0b01 25       		.uleb128 0x25
 1768 0b02 62697400 		.ascii	"bit\000"
 1769 0b06 01       		.byte	0x1
 1770 0b07 A4       		.byte	0xa4
 1771 0b08 C3000000 		.4byte	0xc3
 1772 0b0c 4E000000 		.4byte	.LLST2
 1773 0b10 26       		.uleb128 0x26
 1774 0b11 90000000 		.4byte	.Ldebug_ranges0+0x90
 1775 0b15 27       		.uleb128 0x27
 1776 0b16 75010000 		.4byte	.LASF159
 1777 0b1a 01       		.byte	0x1
 1778 0b1b A7       		.byte	0xa7
 1779 0b1c C3000000 		.4byte	0xc3
 1780 0b20 6D000000 		.4byte	.LLST3
 1781 0b24 25       		.uleb128 0x25
 1782 0b25 6D3100   		.ascii	"m1\000"
 1783 0b28 01       		.byte	0x1
 1784 0b29 A7       		.byte	0xa7
 1785 0b2a C3000000 		.4byte	0xc3
 1786 0b2e B3000000 		.4byte	.LLST4
 1787 0b32 25       		.uleb128 0x25
 1788 0b33 6D3200   		.ascii	"m2\000"
 1789 0b36 01       		.byte	0x1
 1790 0b37 A7       		.byte	0xa7
 1791 0b38 C3000000 		.4byte	0xc3
 1792 0b3c CA000000 		.4byte	.LLST5
 1793 0b40 25       		.uleb128 0x25
 1794 0b41 6D3400   		.ascii	"m4\000"
 1795 0b44 01       		.byte	0x1
 1796 0b45 A7       		.byte	0xa7
 1797 0b46 C3000000 		.4byte	0xc3
 1798 0b4a E3000000 		.4byte	.LLST6
 1799 0b4e 00       		.byte	0
 1800 0b4f 00       		.byte	0
 1801 0b50 28       		.uleb128 0x28
 1802 0b51 BD000000 		.4byte	.LASF160
 1803 0b55 0D       		.byte	0xd
 1804 0b56 A706     		.2byte	0x6a7
 1805 0b58 D9000000 		.4byte	0xd9
 1806 0b5c 29       		.uleb128 0x29
 1807 0b5d 636800   		.ascii	"ch\000"
 1808 0b60 06       		.byte	0x6
 1809 0b61 EB01     		.2byte	0x1eb
 1810 0b63 D9030000 		.4byte	0x3d9
 1811 0b67 00       		.byte	0
 1812              		.section	.debug_abbrev,"",%progbits
 1813              	.Ldebug_abbrev0:
 1814 0000 01       		.uleb128 0x1
 1815 0001 11       		.uleb128 0x11
 1816 0002 01       		.byte	0x1
 1817 0003 25       		.uleb128 0x25
 1818 0004 0E       		.uleb128 0xe
 1819 0005 13       		.uleb128 0x13
 1820 0006 0B       		.uleb128 0xb
 1821 0007 03       		.uleb128 0x3
 1822 0008 0E       		.uleb128 0xe
ARM GAS  C:\cygwin\tmp\ccQYD40O.s 			page 33


 1823 0009 1B       		.uleb128 0x1b
 1824 000a 0E       		.uleb128 0xe
 1825 000b 55       		.uleb128 0x55
 1826 000c 17       		.uleb128 0x17
 1827 000d 11       		.uleb128 0x11
 1828 000e 01       		.uleb128 0x1
 1829 000f 10       		.uleb128 0x10
 1830 0010 17       		.uleb128 0x17
 1831 0011 00       		.byte	0
 1832 0012 00       		.byte	0
 1833 0013 02       		.uleb128 0x2
 1834 0014 24       		.uleb128 0x24
 1835 0015 00       		.byte	0
 1836 0016 0B       		.uleb128 0xb
 1837 0017 0B       		.uleb128 0xb
 1838 0018 3E       		.uleb128 0x3e
 1839 0019 0B       		.uleb128 0xb
 1840 001a 03       		.uleb128 0x3
 1841 001b 08       		.uleb128 0x8
 1842 001c 00       		.byte	0
 1843 001d 00       		.byte	0
 1844 001e 03       		.uleb128 0x3
 1845 001f 24       		.uleb128 0x24
 1846 0020 00       		.byte	0
 1847 0021 0B       		.uleb128 0xb
 1848 0022 0B       		.uleb128 0xb
 1849 0023 3E       		.uleb128 0x3e
 1850 0024 0B       		.uleb128 0xb
 1851 0025 03       		.uleb128 0x3
 1852 0026 0E       		.uleb128 0xe
 1853 0027 00       		.byte	0
 1854 0028 00       		.byte	0
 1855 0029 04       		.uleb128 0x4
 1856 002a 16       		.uleb128 0x16
 1857 002b 00       		.byte	0
 1858 002c 03       		.uleb128 0x3
 1859 002d 0E       		.uleb128 0xe
 1860 002e 3A       		.uleb128 0x3a
 1861 002f 0B       		.uleb128 0xb
 1862 0030 3B       		.uleb128 0x3b
 1863 0031 0B       		.uleb128 0xb
 1864 0032 49       		.uleb128 0x49
 1865 0033 13       		.uleb128 0x13
 1866 0034 00       		.byte	0
 1867 0035 00       		.byte	0
 1868 0036 05       		.uleb128 0x5
 1869 0037 35       		.uleb128 0x35
 1870 0038 00       		.byte	0
 1871 0039 49       		.uleb128 0x49
 1872 003a 13       		.uleb128 0x13
 1873 003b 00       		.byte	0
 1874 003c 00       		.byte	0
 1875 003d 06       		.uleb128 0x6
 1876 003e 13       		.uleb128 0x13
 1877 003f 01       		.byte	0x1
 1878 0040 03       		.uleb128 0x3
 1879 0041 0E       		.uleb128 0xe
ARM GAS  C:\cygwin\tmp\ccQYD40O.s 			page 34


 1880 0042 0B       		.uleb128 0xb
 1881 0043 0B       		.uleb128 0xb
 1882 0044 3A       		.uleb128 0x3a
 1883 0045 0B       		.uleb128 0xb
 1884 0046 3B       		.uleb128 0x3b
 1885 0047 0B       		.uleb128 0xb
 1886 0048 01       		.uleb128 0x1
 1887 0049 13       		.uleb128 0x13
 1888 004a 00       		.byte	0
 1889 004b 00       		.byte	0
 1890 004c 07       		.uleb128 0x7
 1891 004d 0D       		.uleb128 0xd
 1892 004e 00       		.byte	0
 1893 004f 03       		.uleb128 0x3
 1894 0050 0E       		.uleb128 0xe
 1895 0051 3A       		.uleb128 0x3a
 1896 0052 0B       		.uleb128 0xb
 1897 0053 3B       		.uleb128 0x3b
 1898 0054 0B       		.uleb128 0xb
 1899 0055 49       		.uleb128 0x49
 1900 0056 13       		.uleb128 0x13
 1901 0057 38       		.uleb128 0x38
 1902 0058 0B       		.uleb128 0xb
 1903 0059 00       		.byte	0
 1904 005a 00       		.byte	0
 1905 005b 08       		.uleb128 0x8
 1906 005c 0D       		.uleb128 0xd
 1907 005d 00       		.byte	0
 1908 005e 03       		.uleb128 0x3
 1909 005f 08       		.uleb128 0x8
 1910 0060 3A       		.uleb128 0x3a
 1911 0061 0B       		.uleb128 0xb
 1912 0062 3B       		.uleb128 0x3b
 1913 0063 05       		.uleb128 0x5
 1914 0064 49       		.uleb128 0x49
 1915 0065 13       		.uleb128 0x13
 1916 0066 38       		.uleb128 0x38
 1917 0067 0B       		.uleb128 0xb
 1918 0068 00       		.byte	0
 1919 0069 00       		.byte	0
 1920 006a 09       		.uleb128 0x9
 1921 006b 0D       		.uleb128 0xd
 1922 006c 00       		.byte	0
 1923 006d 03       		.uleb128 0x3
 1924 006e 0E       		.uleb128 0xe
 1925 006f 3A       		.uleb128 0x3a
 1926 0070 0B       		.uleb128 0xb
 1927 0071 3B       		.uleb128 0x3b
 1928 0072 05       		.uleb128 0x5
 1929 0073 49       		.uleb128 0x49
 1930 0074 13       		.uleb128 0x13
 1931 0075 38       		.uleb128 0x38
 1932 0076 0B       		.uleb128 0xb
 1933 0077 00       		.byte	0
 1934 0078 00       		.byte	0
 1935 0079 0A       		.uleb128 0xa
 1936 007a 13       		.uleb128 0x13
ARM GAS  C:\cygwin\tmp\ccQYD40O.s 			page 35


 1937 007b 01       		.byte	0x1
 1938 007c 03       		.uleb128 0x3
 1939 007d 0E       		.uleb128 0xe
 1940 007e 0B       		.uleb128 0xb
 1941 007f 0B       		.uleb128 0xb
 1942 0080 3A       		.uleb128 0x3a
 1943 0081 0B       		.uleb128 0xb
 1944 0082 3B       		.uleb128 0x3b
 1945 0083 05       		.uleb128 0x5
 1946 0084 01       		.uleb128 0x1
 1947 0085 13       		.uleb128 0x13
 1948 0086 00       		.byte	0
 1949 0087 00       		.byte	0
 1950 0088 0B       		.uleb128 0xb
 1951 0089 0F       		.uleb128 0xf
 1952 008a 00       		.byte	0
 1953 008b 0B       		.uleb128 0xb
 1954 008c 0B       		.uleb128 0xb
 1955 008d 49       		.uleb128 0x49
 1956 008e 13       		.uleb128 0x13
 1957 008f 00       		.byte	0
 1958 0090 00       		.byte	0
 1959 0091 0C       		.uleb128 0xc
 1960 0092 15       		.uleb128 0x15
 1961 0093 01       		.byte	0x1
 1962 0094 27       		.uleb128 0x27
 1963 0095 19       		.uleb128 0x19
 1964 0096 01       		.uleb128 0x1
 1965 0097 13       		.uleb128 0x13
 1966 0098 00       		.byte	0
 1967 0099 00       		.byte	0
 1968 009a 0D       		.uleb128 0xd
 1969 009b 05       		.uleb128 0x5
 1970 009c 00       		.byte	0
 1971 009d 49       		.uleb128 0x49
 1972 009e 13       		.uleb128 0x13
 1973 009f 00       		.byte	0
 1974 00a0 00       		.byte	0
 1975 00a1 0E       		.uleb128 0xe
 1976 00a2 0F       		.uleb128 0xf
 1977 00a3 00       		.byte	0
 1978 00a4 0B       		.uleb128 0xb
 1979 00a5 0B       		.uleb128 0xb
 1980 00a6 00       		.byte	0
 1981 00a7 00       		.byte	0
 1982 00a8 0F       		.uleb128 0xf
 1983 00a9 13       		.uleb128 0x13
 1984 00aa 01       		.byte	0x1
 1985 00ab 03       		.uleb128 0x3
 1986 00ac 0E       		.uleb128 0xe
 1987 00ad 0B       		.uleb128 0xb
 1988 00ae 05       		.uleb128 0x5
 1989 00af 3A       		.uleb128 0x3a
 1990 00b0 0B       		.uleb128 0xb
 1991 00b1 3B       		.uleb128 0x3b
 1992 00b2 05       		.uleb128 0x5
 1993 00b3 01       		.uleb128 0x1
ARM GAS  C:\cygwin\tmp\ccQYD40O.s 			page 36


 1994 00b4 13       		.uleb128 0x13
 1995 00b5 00       		.byte	0
 1996 00b6 00       		.byte	0
 1997 00b7 10       		.uleb128 0x10
 1998 00b8 01       		.uleb128 0x1
 1999 00b9 01       		.byte	0x1
 2000 00ba 49       		.uleb128 0x49
 2001 00bb 13       		.uleb128 0x13
 2002 00bc 01       		.uleb128 0x1
 2003 00bd 13       		.uleb128 0x13
 2004 00be 00       		.byte	0
 2005 00bf 00       		.byte	0
 2006 00c0 11       		.uleb128 0x11
 2007 00c1 21       		.uleb128 0x21
 2008 00c2 00       		.byte	0
 2009 00c3 49       		.uleb128 0x49
 2010 00c4 13       		.uleb128 0x13
 2011 00c5 2F       		.uleb128 0x2f
 2012 00c6 0B       		.uleb128 0xb
 2013 00c7 00       		.byte	0
 2014 00c8 00       		.byte	0
 2015 00c9 12       		.uleb128 0x12
 2016 00ca 13       		.uleb128 0x13
 2017 00cb 01       		.byte	0x1
 2018 00cc 0B       		.uleb128 0xb
 2019 00cd 0B       		.uleb128 0xb
 2020 00ce 3A       		.uleb128 0x3a
 2021 00cf 0B       		.uleb128 0xb
 2022 00d0 3B       		.uleb128 0x3b
 2023 00d1 05       		.uleb128 0x5
 2024 00d2 01       		.uleb128 0x1
 2025 00d3 13       		.uleb128 0x13
 2026 00d4 00       		.byte	0
 2027 00d5 00       		.byte	0
 2028 00d6 13       		.uleb128 0x13
 2029 00d7 16       		.uleb128 0x16
 2030 00d8 00       		.byte	0
 2031 00d9 03       		.uleb128 0x3
 2032 00da 0E       		.uleb128 0xe
 2033 00db 3A       		.uleb128 0x3a
 2034 00dc 0B       		.uleb128 0xb
 2035 00dd 3B       		.uleb128 0x3b
 2036 00de 05       		.uleb128 0x5
 2037 00df 49       		.uleb128 0x49
 2038 00e0 13       		.uleb128 0x13
 2039 00e1 00       		.byte	0
 2040 00e2 00       		.byte	0
 2041 00e3 14       		.uleb128 0x14
 2042 00e4 0D       		.uleb128 0xd
 2043 00e5 00       		.byte	0
 2044 00e6 03       		.uleb128 0x3
 2045 00e7 08       		.uleb128 0x8
 2046 00e8 3A       		.uleb128 0x3a
 2047 00e9 0B       		.uleb128 0xb
 2048 00ea 3B       		.uleb128 0x3b
 2049 00eb 0B       		.uleb128 0xb
 2050 00ec 49       		.uleb128 0x49
ARM GAS  C:\cygwin\tmp\ccQYD40O.s 			page 37


 2051 00ed 13       		.uleb128 0x13
 2052 00ee 38       		.uleb128 0x38
 2053 00ef 0B       		.uleb128 0xb
 2054 00f0 00       		.byte	0
 2055 00f1 00       		.byte	0
 2056 00f2 15       		.uleb128 0x15
 2057 00f3 13       		.uleb128 0x13
 2058 00f4 01       		.byte	0x1
 2059 00f5 0B       		.uleb128 0xb
 2060 00f6 0B       		.uleb128 0xb
 2061 00f7 3A       		.uleb128 0x3a
 2062 00f8 0B       		.uleb128 0xb
 2063 00f9 3B       		.uleb128 0x3b
 2064 00fa 0B       		.uleb128 0xb
 2065 00fb 01       		.uleb128 0x1
 2066 00fc 13       		.uleb128 0x13
 2067 00fd 00       		.byte	0
 2068 00fe 00       		.byte	0
 2069 00ff 16       		.uleb128 0x16
 2070 0100 17       		.uleb128 0x17
 2071 0101 01       		.byte	0x1
 2072 0102 0B       		.uleb128 0xb
 2073 0103 0B       		.uleb128 0xb
 2074 0104 3A       		.uleb128 0x3a
 2075 0105 0B       		.uleb128 0xb
 2076 0106 3B       		.uleb128 0x3b
 2077 0107 0B       		.uleb128 0xb
 2078 0108 01       		.uleb128 0x1
 2079 0109 13       		.uleb128 0x13
 2080 010a 00       		.byte	0
 2081 010b 00       		.byte	0
 2082 010c 17       		.uleb128 0x17
 2083 010d 0D       		.uleb128 0xd
 2084 010e 00       		.byte	0
 2085 010f 03       		.uleb128 0x3
 2086 0110 0E       		.uleb128 0xe
 2087 0111 3A       		.uleb128 0x3a
 2088 0112 0B       		.uleb128 0xb
 2089 0113 3B       		.uleb128 0x3b
 2090 0114 0B       		.uleb128 0xb
 2091 0115 49       		.uleb128 0x49
 2092 0116 13       		.uleb128 0x13
 2093 0117 00       		.byte	0
 2094 0118 00       		.byte	0
 2095 0119 18       		.uleb128 0x18
 2096 011a 0D       		.uleb128 0xd
 2097 011b 00       		.byte	0
 2098 011c 03       		.uleb128 0x3
 2099 011d 0E       		.uleb128 0xe
 2100 011e 3A       		.uleb128 0x3a
 2101 011f 0B       		.uleb128 0xb
 2102 0120 3B       		.uleb128 0x3b
 2103 0121 05       		.uleb128 0x5
 2104 0122 49       		.uleb128 0x49
 2105 0123 13       		.uleb128 0x13
 2106 0124 00       		.byte	0
 2107 0125 00       		.byte	0
ARM GAS  C:\cygwin\tmp\ccQYD40O.s 			page 38


 2108 0126 19       		.uleb128 0x19
 2109 0127 26       		.uleb128 0x26
 2110 0128 00       		.byte	0
 2111 0129 49       		.uleb128 0x49
 2112 012a 13       		.uleb128 0x13
 2113 012b 00       		.byte	0
 2114 012c 00       		.byte	0
 2115 012d 1A       		.uleb128 0x1a
 2116 012e 0D       		.uleb128 0xd
 2117 012f 00       		.byte	0
 2118 0130 03       		.uleb128 0x3
 2119 0131 08       		.uleb128 0x8
 2120 0132 3A       		.uleb128 0x3a
 2121 0133 0B       		.uleb128 0xb
 2122 0134 3B       		.uleb128 0x3b
 2123 0135 0B       		.uleb128 0xb
 2124 0136 49       		.uleb128 0x49
 2125 0137 13       		.uleb128 0x13
 2126 0138 00       		.byte	0
 2127 0139 00       		.byte	0
 2128 013a 1B       		.uleb128 0x1b
 2129 013b 2E       		.uleb128 0x2e
 2130 013c 01       		.byte	0x1
 2131 013d 03       		.uleb128 0x3
 2132 013e 0E       		.uleb128 0xe
 2133 013f 3A       		.uleb128 0x3a
 2134 0140 0B       		.uleb128 0xb
 2135 0141 3B       		.uleb128 0x3b
 2136 0142 0B       		.uleb128 0xb
 2137 0143 27       		.uleb128 0x27
 2138 0144 19       		.uleb128 0x19
 2139 0145 20       		.uleb128 0x20
 2140 0146 0B       		.uleb128 0xb
 2141 0147 01       		.uleb128 0x1
 2142 0148 13       		.uleb128 0x13
 2143 0149 00       		.byte	0
 2144 014a 00       		.byte	0
 2145 014b 1C       		.uleb128 0x1c
 2146 014c 05       		.uleb128 0x5
 2147 014d 00       		.byte	0
 2148 014e 03       		.uleb128 0x3
 2149 014f 0E       		.uleb128 0xe
 2150 0150 3A       		.uleb128 0x3a
 2151 0151 0B       		.uleb128 0xb
 2152 0152 3B       		.uleb128 0x3b
 2153 0153 0B       		.uleb128 0xb
 2154 0154 49       		.uleb128 0x49
 2155 0155 13       		.uleb128 0x13
 2156 0156 00       		.byte	0
 2157 0157 00       		.byte	0
 2158 0158 1D       		.uleb128 0x1d
 2159 0159 2E       		.uleb128 0x2e
 2160 015a 01       		.byte	0x1
 2161 015b 3F       		.uleb128 0x3f
 2162 015c 19       		.uleb128 0x19
 2163 015d 03       		.uleb128 0x3
 2164 015e 0E       		.uleb128 0xe
ARM GAS  C:\cygwin\tmp\ccQYD40O.s 			page 39


 2165 015f 3A       		.uleb128 0x3a
 2166 0160 0B       		.uleb128 0xb
 2167 0161 3B       		.uleb128 0x3b
 2168 0162 0B       		.uleb128 0xb
 2169 0163 27       		.uleb128 0x27
 2170 0164 19       		.uleb128 0x19
 2171 0165 11       		.uleb128 0x11
 2172 0166 01       		.uleb128 0x1
 2173 0167 12       		.uleb128 0x12
 2174 0168 06       		.uleb128 0x6
 2175 0169 40       		.uleb128 0x40
 2176 016a 18       		.uleb128 0x18
 2177 016b 9742     		.uleb128 0x2117
 2178 016d 19       		.uleb128 0x19
 2179 016e 01       		.uleb128 0x1
 2180 016f 13       		.uleb128 0x13
 2181 0170 00       		.byte	0
 2182 0171 00       		.byte	0
 2183 0172 1E       		.uleb128 0x1e
 2184 0173 05       		.uleb128 0x5
 2185 0174 00       		.byte	0
 2186 0175 03       		.uleb128 0x3
 2187 0176 0E       		.uleb128 0xe
 2188 0177 3A       		.uleb128 0x3a
 2189 0178 0B       		.uleb128 0xb
 2190 0179 3B       		.uleb128 0x3b
 2191 017a 0B       		.uleb128 0xb
 2192 017b 49       		.uleb128 0x49
 2193 017c 13       		.uleb128 0x13
 2194 017d 02       		.uleb128 0x2
 2195 017e 18       		.uleb128 0x18
 2196 017f 00       		.byte	0
 2197 0180 00       		.byte	0
 2198 0181 1F       		.uleb128 0x1f
 2199 0182 1D       		.uleb128 0x1d
 2200 0183 01       		.byte	0x1
 2201 0184 31       		.uleb128 0x31
 2202 0185 13       		.uleb128 0x13
 2203 0186 52       		.uleb128 0x52
 2204 0187 01       		.uleb128 0x1
 2205 0188 55       		.uleb128 0x55
 2206 0189 17       		.uleb128 0x17
 2207 018a 58       		.uleb128 0x58
 2208 018b 0B       		.uleb128 0xb
 2209 018c 59       		.uleb128 0x59
 2210 018d 0B       		.uleb128 0xb
 2211 018e 01       		.uleb128 0x1
 2212 018f 13       		.uleb128 0x13
 2213 0190 00       		.byte	0
 2214 0191 00       		.byte	0
 2215 0192 20       		.uleb128 0x20
 2216 0193 05       		.uleb128 0x5
 2217 0194 00       		.byte	0
 2218 0195 31       		.uleb128 0x31
 2219 0196 13       		.uleb128 0x13
 2220 0197 02       		.uleb128 0x2
 2221 0198 18       		.uleb128 0x18
ARM GAS  C:\cygwin\tmp\ccQYD40O.s 			page 40


 2222 0199 00       		.byte	0
 2223 019a 00       		.byte	0
 2224 019b 21       		.uleb128 0x21
 2225 019c 05       		.uleb128 0x5
 2226 019d 00       		.byte	0
 2227 019e 31       		.uleb128 0x31
 2228 019f 13       		.uleb128 0x13
 2229 01a0 1C       		.uleb128 0x1c
 2230 01a1 06       		.uleb128 0x6
 2231 01a2 00       		.byte	0
 2232 01a3 00       		.byte	0
 2233 01a4 22       		.uleb128 0x22
 2234 01a5 1D       		.uleb128 0x1d
 2235 01a6 01       		.byte	0x1
 2236 01a7 31       		.uleb128 0x31
 2237 01a8 13       		.uleb128 0x13
 2238 01a9 52       		.uleb128 0x52
 2239 01aa 01       		.uleb128 0x1
 2240 01ab 55       		.uleb128 0x55
 2241 01ac 17       		.uleb128 0x17
 2242 01ad 58       		.uleb128 0x58
 2243 01ae 0B       		.uleb128 0xb
 2244 01af 59       		.uleb128 0x59
 2245 01b0 0B       		.uleb128 0xb
 2246 01b1 00       		.byte	0
 2247 01b2 00       		.byte	0
 2248 01b3 23       		.uleb128 0x23
 2249 01b4 05       		.uleb128 0x5
 2250 01b5 00       		.byte	0
 2251 01b6 03       		.uleb128 0x3
 2252 01b7 0E       		.uleb128 0xe
 2253 01b8 3A       		.uleb128 0x3a
 2254 01b9 0B       		.uleb128 0xb
 2255 01ba 3B       		.uleb128 0x3b
 2256 01bb 0B       		.uleb128 0xb
 2257 01bc 49       		.uleb128 0x49
 2258 01bd 13       		.uleb128 0x13
 2259 01be 02       		.uleb128 0x2
 2260 01bf 17       		.uleb128 0x17
 2261 01c0 00       		.byte	0
 2262 01c1 00       		.byte	0
 2263 01c2 24       		.uleb128 0x24
 2264 01c3 34       		.uleb128 0x34
 2265 01c4 00       		.byte	0
 2266 01c5 03       		.uleb128 0x3
 2267 01c6 0E       		.uleb128 0xe
 2268 01c7 3A       		.uleb128 0x3a
 2269 01c8 0B       		.uleb128 0xb
 2270 01c9 3B       		.uleb128 0x3b
 2271 01ca 0B       		.uleb128 0xb
 2272 01cb 49       		.uleb128 0x49
 2273 01cc 13       		.uleb128 0x13
 2274 01cd 02       		.uleb128 0x2
 2275 01ce 18       		.uleb128 0x18
 2276 01cf 00       		.byte	0
 2277 01d0 00       		.byte	0
 2278 01d1 25       		.uleb128 0x25
ARM GAS  C:\cygwin\tmp\ccQYD40O.s 			page 41


 2279 01d2 34       		.uleb128 0x34
 2280 01d3 00       		.byte	0
 2281 01d4 03       		.uleb128 0x3
 2282 01d5 08       		.uleb128 0x8
 2283 01d6 3A       		.uleb128 0x3a
 2284 01d7 0B       		.uleb128 0xb
 2285 01d8 3B       		.uleb128 0x3b
 2286 01d9 0B       		.uleb128 0xb
 2287 01da 49       		.uleb128 0x49
 2288 01db 13       		.uleb128 0x13
 2289 01dc 02       		.uleb128 0x2
 2290 01dd 17       		.uleb128 0x17
 2291 01de 00       		.byte	0
 2292 01df 00       		.byte	0
 2293 01e0 26       		.uleb128 0x26
 2294 01e1 0B       		.uleb128 0xb
 2295 01e2 01       		.byte	0x1
 2296 01e3 55       		.uleb128 0x55
 2297 01e4 17       		.uleb128 0x17
 2298 01e5 00       		.byte	0
 2299 01e6 00       		.byte	0
 2300 01e7 27       		.uleb128 0x27
 2301 01e8 34       		.uleb128 0x34
 2302 01e9 00       		.byte	0
 2303 01ea 03       		.uleb128 0x3
 2304 01eb 0E       		.uleb128 0xe
 2305 01ec 3A       		.uleb128 0x3a
 2306 01ed 0B       		.uleb128 0xb
 2307 01ee 3B       		.uleb128 0x3b
 2308 01ef 0B       		.uleb128 0xb
 2309 01f0 49       		.uleb128 0x49
 2310 01f1 13       		.uleb128 0x13
 2311 01f2 02       		.uleb128 0x2
 2312 01f3 17       		.uleb128 0x17
 2313 01f4 00       		.byte	0
 2314 01f5 00       		.byte	0
 2315 01f6 28       		.uleb128 0x28
 2316 01f7 34       		.uleb128 0x34
 2317 01f8 00       		.byte	0
 2318 01f9 03       		.uleb128 0x3
 2319 01fa 0E       		.uleb128 0xe
 2320 01fb 3A       		.uleb128 0x3a
 2321 01fc 0B       		.uleb128 0xb
 2322 01fd 3B       		.uleb128 0x3b
 2323 01fe 05       		.uleb128 0x5
 2324 01ff 49       		.uleb128 0x49
 2325 0200 13       		.uleb128 0x13
 2326 0201 3F       		.uleb128 0x3f
 2327 0202 19       		.uleb128 0x19
 2328 0203 3C       		.uleb128 0x3c
 2329 0204 19       		.uleb128 0x19
 2330 0205 00       		.byte	0
 2331 0206 00       		.byte	0
 2332 0207 29       		.uleb128 0x29
 2333 0208 34       		.uleb128 0x34
 2334 0209 00       		.byte	0
 2335 020a 03       		.uleb128 0x3
ARM GAS  C:\cygwin\tmp\ccQYD40O.s 			page 42


 2336 020b 08       		.uleb128 0x8
 2337 020c 3A       		.uleb128 0x3a
 2338 020d 0B       		.uleb128 0xb
 2339 020e 3B       		.uleb128 0x3b
 2340 020f 05       		.uleb128 0x5
 2341 0210 49       		.uleb128 0x49
 2342 0211 13       		.uleb128 0x13
 2343 0212 3F       		.uleb128 0x3f
 2344 0213 19       		.uleb128 0x19
 2345 0214 3C       		.uleb128 0x3c
 2346 0215 19       		.uleb128 0x19
 2347 0216 00       		.byte	0
 2348 0217 00       		.byte	0
 2349 0218 00       		.byte	0
 2350              		.section	.debug_loc,"",%progbits
 2351              	.Ldebug_loc0:
 2352              	.LLST0:
 2353 0000 00000000 		.4byte	.LVL7
 2354 0004 70000000 		.4byte	.LVL18
 2355 0008 0100     		.2byte	0x1
 2356 000a 51       		.byte	0x51
 2357 000b 70000000 		.4byte	.LVL18
 2358 000f 72000000 		.4byte	.LVL19
 2359 0013 0500     		.2byte	0x5
 2360 0015 71       		.byte	0x71
 2361 0016 00       		.sleb128 0
 2362 0017 31       		.byte	0x31
 2363 0018 25       		.byte	0x25
 2364 0019 9F       		.byte	0x9f
 2365 001a 72000000 		.4byte	.LVL19
 2366 001e AC000000 		.4byte	.LFE257
 2367 0022 0100     		.2byte	0x1
 2368 0024 51       		.byte	0x51
 2369 0025 00000000 		.4byte	0
 2370 0029 00000000 		.4byte	0
 2371              	.LLST1:
 2372 002d 00000000 		.4byte	.LVL7
 2373 0031 1E000000 		.4byte	.LVL12
 2374 0035 0100     		.2byte	0x1
 2375 0037 52       		.byte	0x52
 2376 0038 1E000000 		.4byte	.LVL12
 2377 003c AC000000 		.4byte	.LFE257
 2378 0040 0400     		.2byte	0x4
 2379 0042 F3       		.byte	0xf3
 2380 0043 01       		.uleb128 0x1
 2381 0044 52       		.byte	0x52
 2382 0045 9F       		.byte	0x9f
 2383 0046 00000000 		.4byte	0
 2384 004a 00000000 		.4byte	0
 2385              	.LLST2:
 2386 004e 1E000000 		.4byte	.LVL12
 2387 0052 28000000 		.4byte	.LVL13
 2388 0056 0200     		.2byte	0x2
 2389 0058 30       		.byte	0x30
 2390 0059 9F       		.byte	0x9f
 2391 005a 28000000 		.4byte	.LVL13
 2392 005e AC000000 		.4byte	.LFE257
ARM GAS  C:\cygwin\tmp\ccQYD40O.s 			page 43


 2393 0062 0100     		.2byte	0x1
 2394 0064 54       		.byte	0x54
 2395 0065 00000000 		.4byte	0
 2396 0069 00000000 		.4byte	0
 2397              	.LLST3:
 2398 006d 28000000 		.4byte	.LVL13
 2399 0071 3C000000 		.4byte	.LVL16
 2400 0075 0100     		.2byte	0x1
 2401 0077 5A       		.byte	0x5a
 2402 0078 3C000000 		.4byte	.LVL16
 2403 007c 80000000 		.4byte	.LVL24
 2404 0080 0A00     		.2byte	0xa
 2405 0082 72       		.byte	0x72
 2406 0083 00       		.sleb128 0
 2407 0084 74       		.byte	0x74
 2408 0085 00       		.sleb128 0
 2409 0086 37       		.byte	0x37
 2410 0087 1A       		.byte	0x1a
 2411 0088 32       		.byte	0x32
 2412 0089 24       		.byte	0x24
 2413 008a 24       		.byte	0x24
 2414 008b 9F       		.byte	0x9f
 2415 008c 8E000000 		.4byte	.LVL25
 2416 0090 A8000000 		.4byte	.LVL28
 2417 0094 0100     		.2byte	0x1
 2418 0096 5A       		.byte	0x5a
 2419 0097 A8000000 		.4byte	.LVL28
 2420 009b AC000000 		.4byte	.LFE257
 2421 009f 0A00     		.2byte	0xa
 2422 00a1 72       		.byte	0x72
 2423 00a2 00       		.sleb128 0
 2424 00a3 74       		.byte	0x74
 2425 00a4 00       		.sleb128 0
 2426 00a5 37       		.byte	0x37
 2427 00a6 1A       		.byte	0x1a
 2428 00a7 32       		.byte	0x32
 2429 00a8 24       		.byte	0x24
 2430 00a9 24       		.byte	0x24
 2431 00aa 9F       		.byte	0x9f
 2432 00ab 00000000 		.4byte	0
 2433 00af 00000000 		.4byte	0
 2434              	.LLST4:
 2435 00b3 36000000 		.4byte	.LVL15
 2436 00b7 70000000 		.4byte	.LVL18
 2437 00bb 0500     		.2byte	0x5
 2438 00bd 31       		.byte	0x31
 2439 00be 74       		.byte	0x74
 2440 00bf 00       		.sleb128 0
 2441 00c0 24       		.byte	0x24
 2442 00c1 9F       		.byte	0x9f
 2443 00c2 00000000 		.4byte	0
 2444 00c6 00000000 		.4byte	0
 2445              	.LLST5:
 2446 00ca 44000000 		.4byte	.LVL17
 2447 00ce 70000000 		.4byte	.LVL18
 2448 00d2 0700     		.2byte	0x7
 2449 00d4 33       		.byte	0x33
ARM GAS  C:\cygwin\tmp\ccQYD40O.s 			page 44


 2450 00d5 74       		.byte	0x74
 2451 00d6 00       		.sleb128 0
 2452 00d7 31       		.byte	0x31
 2453 00d8 24       		.byte	0x24
 2454 00d9 24       		.byte	0x24
 2455 00da 9F       		.byte	0x9f
 2456 00db 00000000 		.4byte	0
 2457 00df 00000000 		.4byte	0
 2458              	.LLST6:
 2459 00e3 28000000 		.4byte	.LVL13
 2460 00e7 30000000 		.4byte	.LVL14
 2461 00eb 0100     		.2byte	0x1
 2462 00ed 53       		.byte	0x53
 2463 00ee 30000000 		.4byte	.LVL14
 2464 00f2 80000000 		.4byte	.LVL24
 2465 00f6 0A00     		.2byte	0xa
 2466 00f8 7C       		.byte	0x7c
 2467 00f9 00       		.sleb128 0
 2468 00fa 74       		.byte	0x74
 2469 00fb 00       		.sleb128 0
 2470 00fc 37       		.byte	0x37
 2471 00fd 1A       		.byte	0x1a
 2472 00fe 32       		.byte	0x32
 2473 00ff 24       		.byte	0x24
 2474 0100 24       		.byte	0x24
 2475 0101 9F       		.byte	0x9f
 2476 0102 92000000 		.4byte	.LVL26
 2477 0106 A0000000 		.4byte	.LVL27
 2478 010a 0100     		.2byte	0x1
 2479 010c 53       		.byte	0x53
 2480 010d A0000000 		.4byte	.LVL27
 2481 0111 AC000000 		.4byte	.LFE257
 2482 0115 0A00     		.2byte	0xa
 2483 0117 7C       		.byte	0x7c
 2484 0118 00       		.sleb128 0
 2485 0119 74       		.byte	0x74
 2486 011a 00       		.sleb128 0
 2487 011b 37       		.byte	0x37
 2488 011c 1A       		.byte	0x1a
 2489 011d 32       		.byte	0x32
 2490 011e 24       		.byte	0x24
 2491 011f 24       		.byte	0x24
 2492 0120 9F       		.byte	0x9f
 2493 0121 00000000 		.4byte	0
 2494 0125 00000000 		.4byte	0
 2495              		.section	.debug_aranges,"",%progbits
 2496 0000 24000000 		.4byte	0x24
 2497 0004 0200     		.2byte	0x2
 2498 0006 00000000 		.4byte	.Ldebug_info0
 2499 000a 04       		.byte	0x4
 2500 000b 00       		.byte	0
 2501 000c 0000     		.2byte	0
 2502 000e 0000     		.2byte	0
 2503 0010 00000000 		.4byte	.LFB256
 2504 0014 04010000 		.4byte	.LFE256-.LFB256
 2505 0018 00000000 		.4byte	.LFB257
 2506 001c AC000000 		.4byte	.LFE257-.LFB257
ARM GAS  C:\cygwin\tmp\ccQYD40O.s 			page 45


 2507 0020 00000000 		.4byte	0
 2508 0024 00000000 		.4byte	0
 2509              		.section	.debug_ranges,"",%progbits
 2510              	.Ldebug_ranges0:
 2511 0000 04000000 		.4byte	.LBB14
 2512 0004 06000000 		.4byte	.LBE14
 2513 0008 28000000 		.4byte	.LBB32
 2514 000c 44000000 		.4byte	.LBE32
 2515 0010 00000000 		.4byte	0
 2516 0014 00000000 		.4byte	0
 2517 0018 0A000000 		.4byte	.LBB17
 2518 001c 0C000000 		.4byte	.LBE17
 2519 0020 44000000 		.4byte	.LBB33
 2520 0024 60000000 		.4byte	.LBE33
 2521 0028 00000000 		.4byte	0
 2522 002c 00000000 		.4byte	0
 2523 0030 0C000000 		.4byte	.LBB20
 2524 0034 0E000000 		.4byte	.LBE20
 2525 0038 60000000 		.4byte	.LBB34
 2526 003c 7C000000 		.4byte	.LBE34
 2527 0040 00000000 		.4byte	0
 2528 0044 00000000 		.4byte	0
 2529 0048 0E000000 		.4byte	.LBB23
 2530 004c 10000000 		.4byte	.LBE23
 2531 0050 7C000000 		.4byte	.LBB35
 2532 0054 98000000 		.4byte	.LBE35
 2533 0058 00000000 		.4byte	0
 2534 005c 00000000 		.4byte	0
 2535 0060 10000000 		.4byte	.LBB26
 2536 0064 12000000 		.4byte	.LBE26
 2537 0068 98000000 		.4byte	.LBB36
 2538 006c BA000000 		.4byte	.LBE36
 2539 0070 00000000 		.4byte	0
 2540 0074 00000000 		.4byte	0
 2541 0078 12000000 		.4byte	.LBB29
 2542 007c 14000000 		.4byte	.LBE29
 2543 0080 BA000000 		.4byte	.LBB37
 2544 0084 04010000 		.4byte	.LBE37
 2545 0088 00000000 		.4byte	0
 2546 008c 00000000 		.4byte	0
 2547 0090 04000000 		.4byte	.LBB38
 2548 0094 08000000 		.4byte	.LBE38
 2549 0098 1E000000 		.4byte	.LBB39
 2550 009c 70000000 		.4byte	.LBE39
 2551 00a0 80000000 		.4byte	.LBB40
 2552 00a4 86000000 		.4byte	.LBE40
 2553 00a8 8A000000 		.4byte	.LBB41
 2554 00ac 92000000 		.4byte	.LBE41
 2555 00b0 94000000 		.4byte	.LBB42
 2556 00b4 AC000000 		.4byte	.LBE42
 2557 00b8 00000000 		.4byte	0
 2558 00bc 00000000 		.4byte	0
 2559 00c0 00000000 		.4byte	.LFB256
 2560 00c4 04010000 		.4byte	.LFE256
 2561 00c8 00000000 		.4byte	.LFB257
 2562 00cc AC000000 		.4byte	.LFE257
 2563 00d0 00000000 		.4byte	0
ARM GAS  C:\cygwin\tmp\ccQYD40O.s 			page 46


 2564 00d4 00000000 		.4byte	0
 2565              		.section	.debug_line,"",%progbits
 2566              	.Ldebug_line0:
 2567 0000 AE020000 		.section	.debug_str,"MS",%progbits,1
 2567      02001B02 
 2567      00000201 
 2567      FB0E0D00 
 2567      01010101 
 2568              	.LASF140:
 2569 0000 73746D33 		.ascii	"stm32_gpio_setup_t\000"
 2569      325F6770 
 2569      696F5F73 
 2569      65747570 
 2569      5F7400
 2570              	.LASF50:
 2571 0013 72656164 		.ascii	"ready_list_t\000"
 2571      795F6C69 
 2571      73745F74 
 2571      00
 2572              	.LASF113:
 2573 0020 7264796D 		.ascii	"rdymsg\000"
 2573      736700
 2574              	.LASF18:
 2575 0027 75696E74 		.ascii	"uint64_t\000"
 2575      36345F74 
 2575      00
 2576              	.LASF4:
 2577 0030 5F5F7569 		.ascii	"__uint8_t\000"
 2577      6E74385F 
 2577      7400
 2578              	.LASF126:
 2579 003a 4F545950 		.ascii	"OTYPER\000"
 2579      455200
 2580              	.LASF110:
 2581 0041 706F7274 		.ascii	"port_intctx\000"
 2581      5F696E74 
 2581      63747800 
 2582              	.LASF69:
 2583 004d 73797374 		.ascii	"system_debug_t\000"
 2583      656D5F64 
 2583      65627567 
 2583      5F7400
 2584              	.LASF148:
 2585 005c 696F706F 		.ascii	"ioportmask_t\000"
 2585      72746D61 
 2585      736B5F74 
 2585      00
 2586              	.LASF146:
 2587 0069 50484461 		.ascii	"PHData\000"
 2587      746100
 2588              	.LASF125:
 2589 0070 4D4F4445 		.ascii	"MODER\000"
 2589      5200
 2590              	.LASF13:
 2591 0076 6C6F6E67 		.ascii	"long long unsigned int\000"
 2591      206C6F6E 
 2591      6720756E 
ARM GAS  C:\cygwin\tmp\ccQYD40O.s 			page 47


 2591      7369676E 
 2591      65642069 
 2592              	.LASF128:
 2593 008d 50555044 		.ascii	"PUPDR\000"
 2593      5200
 2594              	.LASF114:
 2595 0093 65786974 		.ascii	"exitcode\000"
 2595      636F6465 
 2595      00
 2596              	.LASF76:
 2597 009c 6D61696E 		.ascii	"mainthread\000"
 2597      74687265 
 2597      616400
 2598              	.LASF66:
 2599 00a7 76697274 		.ascii	"virtual_timers_list_t\000"
 2599      75616C5F 
 2599      74696D65 
 2599      72735F6C 
 2599      6973745F 
 2600              	.LASF160:
 2601 00bd 49544D5F 		.ascii	"ITM_RxBuffer\000"
 2601      52784275 
 2601      66666572 
 2601      00
 2602              	.LASF49:
 2603 00ca 63685F74 		.ascii	"ch_threads_queue\000"
 2603      68726561 
 2603      64735F71 
 2603      75657565 
 2603      00
 2604              	.LASF95:
 2605 00db 41484231 		.ascii	"AHB1LPENR\000"
 2605      4C50454E 
 2605      5200
 2606              	.LASF30:
 2607 00e5 705F7072 		.ascii	"p_prio\000"
 2607      696F00
 2608              	.LASF11:
 2609 00ec 6C6F6E67 		.ascii	"long long int\000"
 2609      206C6F6E 
 2609      6720696E 
 2609      7400
 2610              	.LASF1:
 2611 00fa 7369676E 		.ascii	"signed char\000"
 2611      65642063 
 2611      68617200 
 2612              	.LASF129:
 2613 0106 42535252 		.ascii	"BSRR\000"
 2613      00
 2614              	.LASF81:
 2615 010b 41484231 		.ascii	"AHB1RSTR\000"
 2615      52535452 
 2615      00
 2616              	.LASF44:
 2617 0114 705F6D70 		.ascii	"p_mpool\000"
 2617      6F6F6C00 
 2618              	.LASF119:
ARM GAS  C:\cygwin\tmp\ccQYD40O.s 			page 48


 2619 011c 6D5F7175 		.ascii	"m_queue\000"
 2619      65756500 
 2620              	.LASF134:
 2621 0124 6D6F6465 		.ascii	"moder\000"
 2621      7200
 2622              	.LASF106:
 2623 012a 5243435F 		.ascii	"RCC_TypeDef\000"
 2623      54797065 
 2623      44656600 
 2624              	.LASF73:
 2625 0136 63685F73 		.ascii	"ch_system\000"
 2625      79737465 
 2625      6D00
 2626              	.LASF8:
 2627 0140 6C6F6E67 		.ascii	"long int\000"
 2627      20696E74 
 2627      00
 2628              	.LASF145:
 2629 0149 50454461 		.ascii	"PEData\000"
 2629      746100
 2630              	.LASF86:
 2631 0150 41504232 		.ascii	"APB2RSTR\000"
 2631      52535452 
 2631      00
 2632              	.LASF99:
 2633 0159 41504231 		.ascii	"APB1LPENR\000"
 2633      4C50454E 
 2633      5200
 2634              	.LASF21:
 2635 0163 74737461 		.ascii	"tstate_t\000"
 2635      74655F74 
 2635      00
 2636              	.LASF15:
 2637 016c 75696E74 		.ascii	"uint16_t\000"
 2637      31365F74 
 2637      00
 2638              	.LASF159:
 2639 0175 616C7472 		.ascii	"altrmask\000"
 2639      6D61736B 
 2639      00
 2640              	.LASF32:
 2641 017e 705F6E65 		.ascii	"p_newer\000"
 2641      77657200 
 2642              	.LASF79:
 2643 0186 504C4C43 		.ascii	"PLLCFGR\000"
 2643      46475200 
 2644              	.LASF127:
 2645 018e 4F535045 		.ascii	"OSPEEDR\000"
 2645      45445200 
 2646              	.LASF55:
 2647 0196 725F6E65 		.ascii	"r_newer\000"
 2647      77657200 
 2648              	.LASF156:
 2649 019e 6D61736B 		.ascii	"mask\000"
 2649      00
 2650              	.LASF107:
 2651 01a3 72656761 		.ascii	"regarm_t\000"
ARM GAS  C:\cygwin\tmp\ccQYD40O.s 			page 49


 2651      726D5F74 
 2651      00
 2652              	.LASF62:
 2653 01ac 76745F70 		.ascii	"vt_prev\000"
 2653      72657600 
 2654              	.LASF75:
 2655 01b4 76746C69 		.ascii	"vtlist\000"
 2655      737400
 2656              	.LASF133:
 2657 01bb 73746D33 		.ascii	"stm32_gpio_t\000"
 2657      325F6770 
 2657      696F5F74 
 2657      00
 2658              	.LASF155:
 2659 01c8 706F7274 		.ascii	"port\000"
 2659      00
 2660              	.LASF122:
 2661 01cd 6D757465 		.ascii	"mutex_t\000"
 2661      785F7400 
 2662              	.LASF142:
 2663 01d5 50424461 		.ascii	"PBData\000"
 2663      746100
 2664              	.LASF77:
 2665 01dc 69646C65 		.ascii	"idle_thread_wa\000"
 2665      5F746872 
 2665      6561645F 
 2665      776100
 2666              	.LASF0:
 2667 01eb 756E7369 		.ascii	"unsigned int\000"
 2667      676E6564 
 2667      20696E74 
 2667      00
 2668              	.LASF61:
 2669 01f8 76745F6E 		.ascii	"vt_next\000"
 2669      65787400 
 2670              	.LASF39:
 2671 0200 705F6D73 		.ascii	"p_msgqueue\000"
 2671      67717565 
 2671      756500
 2672              	.LASF136:
 2673 020b 6F737065 		.ascii	"ospeedr\000"
 2673      65647200 
 2674              	.LASF130:
 2675 0213 4C434B52 		.ascii	"LCKR\000"
 2675      00
 2676              	.LASF135:
 2677 0218 6F747970 		.ascii	"otyper\000"
 2677      657200
 2678              	.LASF6:
 2679 021f 73686F72 		.ascii	"short unsigned int\000"
 2679      7420756E 
 2679      7369676E 
 2679      65642069 
 2679      6E7400
 2680              	.LASF46:
 2681 0232 63685F74 		.ascii	"ch_thread\000"
 2681      68726561 
ARM GAS  C:\cygwin\tmp\ccQYD40O.s 			page 50


 2681      6400
 2682              	.LASF105:
 2683 023c 504C4C49 		.ascii	"PLLI2SCFGR\000"
 2683      32534346 
 2683      475200
 2684              	.LASF24:
 2685 0247 6D73675F 		.ascii	"msg_t\000"
 2685      7400
 2686              	.LASF83:
 2687 024d 41484233 		.ascii	"AHB3RSTR\000"
 2687      52535452 
 2687      00
 2688              	.LASF72:
 2689 0256 63685F73 		.ascii	"ch_system_t\000"
 2689      79737465 
 2689      6D5F7400 
 2690              	.LASF20:
 2691 0262 746D6F64 		.ascii	"tmode_t\000"
 2691      655F7400 
 2692              	.LASF100:
 2693 026a 41504232 		.ascii	"APB2LPENR\000"
 2693      4C50454E 
 2693      5200
 2694              	.LASF51:
 2695 0274 63685F72 		.ascii	"ch_ready_list\000"
 2695      65616479 
 2695      5F6C6973 
 2695      7400
 2696              	.LASF25:
 2697 0282 6576656E 		.ascii	"eventmask_t\000"
 2697      746D6173 
 2697      6B5F7400 
 2698              	.LASF7:
 2699 028e 5F5F696E 		.ascii	"__int32_t\000"
 2699      7433325F 
 2699      7400
 2700              	.LASF161:
 2701 0298 474E5520 		.ascii	"GNU C 4.9.3 20141119 (release) [ARM/embedded-4_9-br"
 2701      4320342E 
 2701      392E3320 
 2701      32303134 
 2701      31313139 
 2702 02cb 616E6368 		.ascii	"anch revision 218278] -mcpu=cortex-m4 -mno-thumb-in"
 2702      20726576 
 2702      6973696F 
 2702      6E203231 
 2702      38323738 
 2703 02fe 74657277 		.ascii	"terwork -mthumb -ggdb -O2 -fomit-frame-pointer -fal"
 2703      6F726B20 
 2703      2D6D7468 
 2703      756D6220 
 2703      2D676764 
 2704 0331 69676E2D 		.ascii	"ign-functions=16 -ffunction-sections -fdata-section"
 2704      66756E63 
 2704      74696F6E 
 2704      733D3136 
 2704      202D6666 
ARM GAS  C:\cygwin\tmp\ccQYD40O.s 			page 51


 2705 0364 73202D66 		.ascii	"s -fno-common\000"
 2705      6E6F2D63 
 2705      6F6D6D6F 
 2705      6E00
 2706              	.LASF108:
 2707 0372 73746B61 		.ascii	"stkalign_t\000"
 2707      6C69676E 
 2707      5F7400
 2708              	.LASF45:
 2709 037d 74687265 		.ascii	"threads_list_t\000"
 2709      6164735F 
 2709      6C697374 
 2709      5F7400
 2710              	.LASF59:
 2711 038c 76697274 		.ascii	"virtual_timer_t\000"
 2711      75616C5F 
 2711      74696D65 
 2711      725F7400 
 2712              	.LASF38:
 2713 039c 705F7761 		.ascii	"p_waiting\000"
 2713      6974696E 
 2713      6700
 2714              	.LASF78:
 2715 03a6 73697A65 		.ascii	"sizetype\000"
 2715      74797065 
 2715      00
 2716              	.LASF67:
 2717 03af 63685F76 		.ascii	"ch_virtual_timers_list\000"
 2717      69727475 
 2717      616C5F74 
 2717      696D6572 
 2717      735F6C69 
 2718              	.LASF124:
 2719 03c6 636C6561 		.ascii	"clear\000"
 2719      7200
 2720              	.LASF28:
 2721 03cc 705F6E65 		.ascii	"p_next\000"
 2721      787400
 2722              	.LASF90:
 2723 03d3 41484233 		.ascii	"AHB3ENR\000"
 2723      454E5200 
 2724              	.LASF68:
 2725 03db 76745F6C 		.ascii	"vt_lasttime\000"
 2725      61737474 
 2725      696D6500 
 2726              	.LASF33:
 2727 03e7 705F6F6C 		.ascii	"p_older\000"
 2727      64657200 
 2728              	.LASF54:
 2729 03ef 725F6374 		.ascii	"r_ctx\000"
 2729      7800
 2730              	.LASF96:
 2731 03f5 41484232 		.ascii	"AHB2LPENR\000"
 2731      4C50454E 
 2731      5200
 2732              	.LASF112:
 2733 03ff 746D5F63 		.ascii	"tm_calibration_t\000"
ARM GAS  C:\cygwin\tmp\ccQYD40O.s 			page 52


 2733      616C6962 
 2733      72617469 
 2733      6F6E5F74 
 2733      00
 2734              	.LASF139:
 2735 0410 61667268 		.ascii	"afrh\000"
 2735      00
 2736              	.LASF144:
 2737 0415 50444461 		.ascii	"PDData\000"
 2737      746100
 2738              	.LASF57:
 2739 041c 725F6375 		.ascii	"r_current\000"
 2739      7272656E 
 2739      7400
 2740              	.LASF85:
 2741 0426 41504231 		.ascii	"APB1RSTR\000"
 2741      52535452 
 2741      00
 2742              	.LASF12:
 2743 042f 5F5F7569 		.ascii	"__uint64_t\000"
 2743      6E743634 
 2743      5F7400
 2744              	.LASF132:
 2745 043a 41465248 		.ascii	"AFRH\000"
 2745      00
 2746              	.LASF163:
 2747 043f 433A5C55 		.ascii	"C:\\Users\\Jo\\Documents\\GitHub\\ChibiOS\\demos\\S"
 2747      73657273 
 2747      5C4A6F5C 
 2747      446F6375 
 2747      6D656E74 
 2748 046b 544D3332 		.ascii	"TM32\\RT-STM32F401RE-NUCLEO\000"
 2748      5C52542D 
 2748      53544D33 
 2748      32463430 
 2748      3152452D 
 2749              	.LASF131:
 2750 0486 4146524C 		.ascii	"AFRL\000"
 2750      00
 2751              	.LASF22:
 2752 048b 74726566 		.ascii	"trefs_t\000"
 2752      735F7400 
 2753              	.LASF84:
 2754 0493 52455345 		.ascii	"RESERVED0\000"
 2754      52564544 
 2754      3000
 2755              	.LASF87:
 2756 049d 52455345 		.ascii	"RESERVED1\000"
 2756      52564544 
 2756      3100
 2757              	.LASF91:
 2758 04a7 52455345 		.ascii	"RESERVED2\000"
 2758      52564544 
 2758      3200
 2759              	.LASF94:
 2760 04b1 52455345 		.ascii	"RESERVED3\000"
 2760      52564544 
ARM GAS  C:\cygwin\tmp\ccQYD40O.s 			page 53


 2760      3300
 2761              	.LASF98:
 2762 04bb 52455345 		.ascii	"RESERVED4\000"
 2762      52564544 
 2762      3400
 2763              	.LASF29:
 2764 04c5 705F7072 		.ascii	"p_prev\000"
 2764      657600
 2765              	.LASF103:
 2766 04cc 52455345 		.ascii	"RESERVED6\000"
 2766      52564544 
 2766      3600
 2767              	.LASF23:
 2768 04d6 74707269 		.ascii	"tprio_t\000"
 2768      6F5F7400 
 2769              	.LASF118:
 2770 04de 6D757465 		.ascii	"mutex\000"
 2770      7800
 2771              	.LASF70:
 2772 04e4 63685F73 		.ascii	"ch_system_debug\000"
 2772      79737465 
 2772      6D5F6465 
 2772      62756700 
 2773              	.LASF123:
 2774 04f4 5F426F6F 		.ascii	"_Bool\000"
 2774      6C00
 2775              	.LASF16:
 2776 04fa 696E7433 		.ascii	"int32_t\000"
 2776      325F7400 
 2777              	.LASF2:
 2778 0502 756E7369 		.ascii	"unsigned char\000"
 2778      676E6564 
 2778      20636861 
 2778      7200
 2779              	.LASF138:
 2780 0510 6166726C 		.ascii	"afrl\000"
 2780      00
 2781              	.LASF42:
 2782 0515 705F6D74 		.ascii	"p_mtxlist\000"
 2782      786C6973 
 2782      7400
 2783              	.LASF3:
 2784 051f 73686F72 		.ascii	"short int\000"
 2784      7420696E 
 2784      7400
 2785              	.LASF35:
 2786 0529 705F7374 		.ascii	"p_state\000"
 2786      61746500 
 2787              	.LASF97:
 2788 0531 41484233 		.ascii	"AHB3LPENR\000"
 2788      4C50454E 
 2788      5200
 2789              	.LASF53:
 2790 053b 725F7072 		.ascii	"r_prio\000"
 2790      696F00
 2791              	.LASF141:
 2792 0542 50414461 		.ascii	"PAData\000"
ARM GAS  C:\cygwin\tmp\ccQYD40O.s 			page 54


 2792      746100
 2793              	.LASF116:
 2794 0549 65776D61 		.ascii	"ewmask\000"
 2794      736B00
 2795              	.LASF36:
 2796 0550 705F666C 		.ascii	"p_flags\000"
 2796      61677300 
 2797              	.LASF151:
 2798 0558 6770696F 		.ascii	"gpiop\000"
 2798      7000
 2799              	.LASF93:
 2800 055e 41504232 		.ascii	"APB2ENR\000"
 2800      454E5200 
 2801              	.LASF60:
 2802 0566 63685F76 		.ascii	"ch_virtual_timer\000"
 2802      69727475 
 2802      616C5F74 
 2802      696D6572 
 2802      00
 2803              	.LASF41:
 2804 0577 705F6570 		.ascii	"p_epending\000"
 2804      656E6469 
 2804      6E6700
 2805              	.LASF101:
 2806 0582 52455345 		.ascii	"RESERVED5\000"
 2806      52564544 
 2806      3500
 2807              	.LASF17:
 2808 058c 75696E74 		.ascii	"uint32_t\000"
 2808      33325F74 
 2808      00
 2809              	.LASF52:
 2810 0595 725F7175 		.ascii	"r_queue\000"
 2810      65756500 
 2811              	.LASF63:
 2812 059d 76745F64 		.ascii	"vt_delta\000"
 2812      656C7461 
 2812      00
 2813              	.LASF47:
 2814 05a6 63685F74 		.ascii	"ch_threads_list\000"
 2814      68726561 
 2814      64735F6C 
 2814      69737400 
 2815              	.LASF10:
 2816 05b6 6C6F6E67 		.ascii	"long unsigned int\000"
 2816      20756E73 
 2816      69676E65 
 2816      6420696E 
 2816      7400
 2817              	.LASF158:
 2818 05c8 616C7472 		.ascii	"altr\000"
 2818      00
 2819              	.LASF117:
 2820 05cd 63686172 		.ascii	"char\000"
 2820      00
 2821              	.LASF157:
 2822 05d2 6D6F6465 		.ascii	"mode\000"
ARM GAS  C:\cygwin\tmp\ccQYD40O.s 			page 55


 2822      00
 2823              	.LASF152:
 2824 05d7 636F6E66 		.ascii	"config\000"
 2824      696700
 2825              	.LASF5:
 2826 05de 5F5F7569 		.ascii	"__uint16_t\000"
 2826      6E743136 
 2826      5F7400
 2827              	.LASF82:
 2828 05e9 41484232 		.ascii	"AHB2RSTR\000"
 2828      52535452 
 2828      00
 2829              	.LASF27:
 2830 05f2 74687265 		.ascii	"thread_t\000"
 2830      61645F74 
 2830      00
 2831              	.LASF121:
 2832 05fb 6D5F6E65 		.ascii	"m_next\000"
 2832      787400
 2833              	.LASF26:
 2834 0602 73797374 		.ascii	"systime_t\000"
 2834      696D655F 
 2834      7400
 2835              	.LASF43:
 2836 060c 705F7265 		.ascii	"p_realprio\000"
 2836      616C7072 
 2836      696F00
 2837              	.LASF58:
 2838 0617 76746675 		.ascii	"vtfunc_t\000"
 2838      6E635F74 
 2838      00
 2839              	.LASF9:
 2840 0620 5F5F7569 		.ascii	"__uint32_t\000"
 2840      6E743332 
 2840      5F7400
 2841              	.LASF164:
 2842 062b 696E6974 		.ascii	"initgpio\000"
 2842      6770696F 
 2842      00
 2843              	.LASF71:
 2844 0634 70616E69 		.ascii	"panic_msg\000"
 2844      635F6D73 
 2844      6700
 2845              	.LASF111:
 2846 063e 6F666673 		.ascii	"offset\000"
 2846      657400
 2847              	.LASF92:
 2848 0645 41504231 		.ascii	"APB1ENR\000"
 2848      454E5200 
 2849              	.LASF150:
 2850 064d 696F706F 		.ascii	"ioportid_t\000"
 2850      72746964 
 2850      5F7400
 2851              	.LASF89:
 2852 0658 41484232 		.ascii	"AHB2ENR\000"
 2852      454E5200 
 2853              	.LASF109:
ARM GAS  C:\cygwin\tmp\ccQYD40O.s 			page 56


 2854 0660 636F6E74 		.ascii	"context\000"
 2854      65787400 
 2855              	.LASF56:
 2856 0668 725F6F6C 		.ascii	"r_older\000"
 2856      64657200 
 2857              	.LASF154:
 2858 0670 5F70616C 		.ascii	"_pal_lld_setgroupmode\000"
 2858      5F6C6C64 
 2858      5F736574 
 2858      67726F75 
 2858      706D6F64 
 2859              	.LASF19:
 2860 0686 7274636E 		.ascii	"rtcnt_t\000"
 2860      745F7400 
 2861              	.LASF65:
 2862 068e 76745F70 		.ascii	"vt_par\000"
 2862      617200
 2863              	.LASF104:
 2864 0695 53534347 		.ascii	"SSCGR\000"
 2864      5200
 2865              	.LASF48:
 2866 069b 74687265 		.ascii	"threads_queue_t\000"
 2866      6164735F 
 2866      71756575 
 2866      655F7400 
 2867              	.LASF37:
 2868 06ab 705F7265 		.ascii	"p_refs\000"
 2868      667300
 2869              	.LASF153:
 2870 06b2 5F70616C 		.ascii	"_pal_lld_init\000"
 2870      5F6C6C64 
 2870      5F696E69 
 2870      7400
 2871              	.LASF102:
 2872 06c0 42444352 		.ascii	"BDCR\000"
 2872      00
 2873              	.LASF74:
 2874 06c5 726C6973 		.ascii	"rlist\000"
 2874      7400
 2875              	.LASF14:
 2876 06cb 75696E74 		.ascii	"uint8_t\000"
 2876      385F7400 
 2877              	.LASF137:
 2878 06d3 70757064 		.ascii	"pupdr\000"
 2878      7200
 2879              	.LASF115:
 2880 06d9 77746F62 		.ascii	"wtobjp\000"
 2880      6A7000
 2881              	.LASF34:
 2882 06e0 705F6E61 		.ascii	"p_name\000"
 2882      6D6500
 2883              	.LASF88:
 2884 06e7 41484231 		.ascii	"AHB1ENR\000"
 2884      454E5200 
 2885              	.LASF143:
 2886 06ef 50434461 		.ascii	"PCData\000"
 2886      746100
ARM GAS  C:\cygwin\tmp\ccQYD40O.s 			page 57


 2887              	.LASF80:
 2888 06f6 43464752 		.ascii	"CFGR\000"
 2888      00
 2889              	.LASF40:
 2890 06fb 705F6D73 		.ascii	"p_msg\000"
 2890      6700
 2891              	.LASF162:
 2892 0701 2E2E2F2E 		.ascii	"../../../os/hal/ports/STM32/LLD/GPIOv2/pal_lld.c\000"
 2892      2E2F2E2E 
 2892      2F6F732F 
 2892      68616C2F 
 2892      706F7274 
 2893              	.LASF149:
 2894 0732 696F6D6F 		.ascii	"iomode_t\000"
 2894      64655F74 
 2894      00
 2895              	.LASF147:
 2896 073b 50414C43 		.ascii	"PALConfig\000"
 2896      6F6E6669 
 2896      6700
 2897              	.LASF120:
 2898 0745 6D5F6F77 		.ascii	"m_owner\000"
 2898      6E657200 
 2899              	.LASF31:
 2900 074d 705F6374 		.ascii	"p_ctx\000"
 2900      7800
 2901              	.LASF64:
 2902 0753 76745F66 		.ascii	"vt_func\000"
 2902      756E6300 
 2903              		.ident	"GCC: (GNU Tools for ARM Embedded Processors) 4.9.3 20141119 (release) [ARM/embedded-4_9-br
ARM GAS  C:\cygwin\tmp\ccQYD40O.s 			page 58


DEFINED SYMBOLS
                            *ABS*:00000000 pal_lld.c
C:\cygwin\tmp\ccQYD40O.s:19     .text._pal_lld_init:00000000 $t
C:\cygwin\tmp\ccQYD40O.s:25     .text._pal_lld_init:00000000 _pal_lld_init
C:\cygwin\tmp\ccQYD40O.s:241    .text._pal_lld_init:000000e8 $d
C:\cygwin\tmp\ccQYD40O.s:254    .text._pal_lld_setgroupmode:00000000 $t
C:\cygwin\tmp\ccQYD40O.s:260    .text._pal_lld_setgroupmode:00000000 _pal_lld_setgroupmode
                     .debug_frame:00000010 $d
C:\cygwin\tmp\ccQYD40O.s:253    .text._pal_lld_init:00000104 $t

NO UNDEFINED SYMBOLS
