ARM GAS  C:\cygwin\tmp\ccQYD40O.s 			page 1


   1              		.syntax unified
   2              		.cpu cortex-m4
   3              		.fpu softvfp
   4              		.eabi_attribute 20, 1
   5              		.eabi_attribute 21, 1
   6              		.eabi_attribute 23, 3
   7              		.eabi_attribute 24, 1
   8              		.eabi_attribute 25, 1
   9              		.eabi_attribute 26, 1
  10              		.eabi_attribute 30, 2
  11              		.eabi_attribute 34, 1
  12              		.eabi_attribute 18, 4
  13              		.thumb
  14              		.file	"pal_lld.c"
  15              		.text
  16              	.Ltext0:
  17              		.cfi_sections	.debug_frame
  18              		.section	.text._pal_lld_init,"ax",%progbits
  19              		.align	2
  20              		.p2align 4,,15
  21              		.global	_pal_lld_init
  22              		.thumb
  23              		.thumb_func
  24              		.type	_pal_lld_init, %function
  25              	_pal_lld_init:
  26              	.LFB256:
  27              		.file 1 "../../../os/hal/ports/STM32/LLD/GPIOv2/pal_lld.c"
  28              		.loc 1 92 0
  29              		.cfi_startproc
  30              		@ args = 0, pretend = 0, frame = 0
  31              		@ frame_needed = 0, uses_anonymous_args = 0
  32              	.LVL0:
  33 0000 F0B5     		push	{r4, r5, r6, r7, lr}
  34              		.cfi_def_cfa_offset 20
  35              		.cfi_offset 4, -20
  36              		.cfi_offset 5, -16
  37              		.cfi_offset 6, -12
  38              		.cfi_offset 7, -8
  39              		.cfi_offset 14, -4
  40              		.loc 1 105 0
  41 0002 394F     		ldr	r7, .L3
  42              	.LBB14:
  43              	.LBB15:
  44              		.loc 1 67 0
  45 0004 394E     		ldr	r6, .L3+4
  46              	.LBE15:
  47              	.LBE14:
  48              		.loc 1 105 0
  49 0006 D7F830E0 		ldr	lr, [r7, #48]
  50              	.LBB17:
  51              	.LBB18:
  52              		.loc 1 67 0
  53 000a 394D     		ldr	r5, .L3+8
  54              	.LBE18:
  55              	.LBE17:
  56              	.LBB20:
  57              	.LBB21:
ARM GAS  C:\cygwin\tmp\ccQYD40O.s 			page 2


  58 000c 394C     		ldr	r4, .L3+12
  59              	.LBE21:
  60              	.LBE20:
  61              	.LBB23:
  62              	.LBB24:
  63 000e 3A49     		ldr	r1, .L3+16
  64              	.LBE24:
  65              	.LBE23:
  66              	.LBB26:
  67              	.LBB27:
  68 0010 3A4A     		ldr	r2, .L3+20
  69              	.LBE27:
  70              	.LBE26:
  71              	.LBB29:
  72              	.LBB30:
  73 0012 3B4B     		ldr	r3, .L3+24
  74              	.LBE30:
  75              	.LBE29:
  76              		.loc 1 105 0
  77 0014 4EF01F0E 		orr	lr, lr, #31
  78 0018 C7F830E0 		str	lr, [r7, #48]
  79              		.loc 1 106 0
  80 001c D7F850E0 		ldr	lr, [r7, #80]
  81 0020 4EF01F0E 		orr	lr, lr, #31
  82 0024 C7F850E0 		str	lr, [r7, #80]
  83              	.LVL1:
  84              	.LBB32:
  85              	.LBB16:
  86              		.loc 1 67 0
  87 0028 4768     		ldr	r7, [r0, #4]
  88 002a 7760     		str	r7, [r6, #4]
  89              		.loc 1 68 0
  90 002c 8768     		ldr	r7, [r0, #8]
  91 002e B760     		str	r7, [r6, #8]
  92              		.loc 1 69 0
  93 0030 C768     		ldr	r7, [r0, #12]
  94 0032 F760     		str	r7, [r6, #12]
  95              		.loc 1 70 0
  96 0034 0769     		ldr	r7, [r0, #16]
  97 0036 7761     		str	r7, [r6, #20]
  98              		.loc 1 71 0
  99 0038 4769     		ldr	r7, [r0, #20]
 100 003a 3762     		str	r7, [r6, #32]
 101              		.loc 1 72 0
 102 003c 8769     		ldr	r7, [r0, #24]
 103 003e 7762     		str	r7, [r6, #36]
 104              		.loc 1 73 0
 105 0040 0768     		ldr	r7, [r0]
 106 0042 3760     		str	r7, [r6]
 107              	.LVL2:
 108              	.LBE16:
 109              	.LBE32:
 110              	.LBB33:
 111              	.LBB19:
 112              		.loc 1 67 0
 113 0044 066A     		ldr	r6, [r0, #32]
 114 0046 6E60     		str	r6, [r5, #4]
ARM GAS  C:\cygwin\tmp\ccQYD40O.s 			page 3


 115              		.loc 1 68 0
 116 0048 466A     		ldr	r6, [r0, #36]
 117 004a AE60     		str	r6, [r5, #8]
 118              		.loc 1 69 0
 119 004c 866A     		ldr	r6, [r0, #40]
 120 004e EE60     		str	r6, [r5, #12]
 121              		.loc 1 70 0
 122 0050 C66A     		ldr	r6, [r0, #44]
 123 0052 6E61     		str	r6, [r5, #20]
 124              		.loc 1 71 0
 125 0054 066B     		ldr	r6, [r0, #48]
 126 0056 2E62     		str	r6, [r5, #32]
 127              		.loc 1 72 0
 128 0058 466B     		ldr	r6, [r0, #52]
 129 005a 6E62     		str	r6, [r5, #36]
 130              		.loc 1 73 0
 131 005c C669     		ldr	r6, [r0, #28]
 132 005e 2E60     		str	r6, [r5]
 133              	.LVL3:
 134              	.LBE19:
 135              	.LBE33:
 136              	.LBB34:
 137              	.LBB22:
 138              		.loc 1 67 0
 139 0060 C56B     		ldr	r5, [r0, #60]
 140 0062 6560     		str	r5, [r4, #4]
 141              		.loc 1 68 0
 142 0064 056C     		ldr	r5, [r0, #64]
 143 0066 A560     		str	r5, [r4, #8]
 144              		.loc 1 69 0
 145 0068 456C     		ldr	r5, [r0, #68]
 146 006a E560     		str	r5, [r4, #12]
 147              		.loc 1 70 0
 148 006c 856C     		ldr	r5, [r0, #72]
 149 006e 6561     		str	r5, [r4, #20]
 150              		.loc 1 71 0
 151 0070 C56C     		ldr	r5, [r0, #76]
 152 0072 2562     		str	r5, [r4, #32]
 153              		.loc 1 72 0
 154 0074 056D     		ldr	r5, [r0, #80]
 155 0076 6562     		str	r5, [r4, #36]
 156              		.loc 1 73 0
 157 0078 856B     		ldr	r5, [r0, #56]
 158 007a 2560     		str	r5, [r4]
 159              	.LVL4:
 160              	.LBE22:
 161              	.LBE34:
 162              	.LBB35:
 163              	.LBB25:
 164              		.loc 1 67 0
 165 007c 846D     		ldr	r4, [r0, #88]
 166 007e 4C60     		str	r4, [r1, #4]
 167              		.loc 1 68 0
 168 0080 C46D     		ldr	r4, [r0, #92]
 169 0082 8C60     		str	r4, [r1, #8]
 170              		.loc 1 69 0
 171 0084 046E     		ldr	r4, [r0, #96]
ARM GAS  C:\cygwin\tmp\ccQYD40O.s 			page 4


 172 0086 CC60     		str	r4, [r1, #12]
 173              		.loc 1 70 0
 174 0088 446E     		ldr	r4, [r0, #100]
 175 008a 4C61     		str	r4, [r1, #20]
 176              		.loc 1 71 0
 177 008c 846E     		ldr	r4, [r0, #104]
 178 008e 0C62     		str	r4, [r1, #32]
 179              		.loc 1 72 0
 180 0090 C46E     		ldr	r4, [r0, #108]
 181 0092 4C62     		str	r4, [r1, #36]
 182              		.loc 1 73 0
 183 0094 446D     		ldr	r4, [r0, #84]
 184 0096 0C60     		str	r4, [r1]
 185              	.LVL5:
 186              	.LBE25:
 187              	.LBE35:
 188              	.LBB36:
 189              	.LBB28:
 190              		.loc 1 67 0
 191 0098 416F     		ldr	r1, [r0, #116]
 192 009a 5160     		str	r1, [r2, #4]
 193              		.loc 1 68 0
 194 009c 816F     		ldr	r1, [r0, #120]
 195 009e 9160     		str	r1, [r2, #8]
 196              		.loc 1 69 0
 197 00a0 C16F     		ldr	r1, [r0, #124]
 198 00a2 D160     		str	r1, [r2, #12]
 199              		.loc 1 70 0
 200 00a4 D0F88010 		ldr	r1, [r0, #128]
 201 00a8 5161     		str	r1, [r2, #20]
 202              		.loc 1 71 0
 203 00aa D0F88410 		ldr	r1, [r0, #132]
 204 00ae 1162     		str	r1, [r2, #32]
 205              		.loc 1 72 0
 206 00b0 D0F88810 		ldr	r1, [r0, #136]
 207 00b4 5162     		str	r1, [r2, #36]
 208              		.loc 1 73 0
 209 00b6 016F     		ldr	r1, [r0, #112]
 210 00b8 1160     		str	r1, [r2]
 211              	.LVL6:
 212              	.LBE28:
 213              	.LBE36:
 214              	.LBB37:
 215              	.LBB31:
 216              		.loc 1 67 0
 217 00ba D0F89020 		ldr	r2, [r0, #144]
 218 00be 5A60     		str	r2, [r3, #4]
 219              		.loc 1 68 0
 220 00c0 D0F89420 		ldr	r2, [r0, #148]
 221 00c4 9A60     		str	r2, [r3, #8]
 222              		.loc 1 69 0
 223 00c6 D0F89820 		ldr	r2, [r0, #152]
 224 00ca DA60     		str	r2, [r3, #12]
 225              		.loc 1 70 0
 226 00cc D0F89C20 		ldr	r2, [r0, #156]
 227 00d0 5A61     		str	r2, [r3, #20]
 228              		.loc 1 71 0
ARM GAS  C:\cygwin\tmp\ccQYD40O.s 			page 5


 229 00d2 D0F8A020 		ldr	r2, [r0, #160]
 230 00d6 1A62     		str	r2, [r3, #32]
 231              		.loc 1 72 0
 232 00d8 D0F8A420 		ldr	r2, [r0, #164]
 233 00dc 5A62     		str	r2, [r3, #36]
 234              		.loc 1 73 0
 235 00de D0F88C20 		ldr	r2, [r0, #140]
 236 00e2 1A60     		str	r2, [r3]
 237 00e4 F0BD     		pop	{r4, r5, r6, r7, pc}
 238              	.L4:
 239 00e6 00BF     		.align	2
 240              	.L3:
 241 00e8 00380240 		.word	1073887232
 242 00ec 00000240 		.word	1073872896
 243 00f0 00040240 		.word	1073873920
 244 00f4 00080240 		.word	1073874944
 245 00f8 000C0240 		.word	1073875968
 246 00fc 00100240 		.word	1073876992
 247 0100 001C0240 		.word	1073880064
 248              	.LBE31:
 249              	.LBE37:
 250              		.cfi_endproc
 251              	.LFE256:
 252              		.size	_pal_lld_init, .-_pal_lld_init
 253 0104 AFF30080 		.section	.text._pal_lld_setgroupmode,"ax",%progbits
 253      AFF30080 
 253      AFF30080 
 254              		.align	2
 255              		.p2align 4,,15
 256              		.global	_pal_lld_setgroupmode
 257              		.thumb
 258              		.thumb_func
 259              		.type	_pal_lld_setgroupmode, %function
 260              	_pal_lld_setgroupmode:
 261              	.LFB257:
 262              		.loc 1 157 0
 263              		.cfi_startproc
 264              		@ args = 0, pretend = 0, frame = 0
 265              		@ frame_needed = 0, uses_anonymous_args = 0
 266              	.LVL7:
 267 0000 2DE9F04F 		push	{r4, r5, r6, r7, r8, r9, r10, fp, lr}
 268              		.cfi_def_cfa_offset 36
 269              		.cfi_offset 4, -36
 270              		.cfi_offset 5, -32
 271              		.cfi_offset 6, -28
 272              		.cfi_offset 7, -24
 273              		.cfi_offset 8, -20
 274              		.cfi_offset 9, -16
 275              		.cfi_offset 10, -12
 276              		.cfi_offset 11, -8
 277              		.cfi_offset 14, -4
 278              	.LBB38:
 279              		.loc 1 170 0
 280 0004 4FF00F0C 		mov	ip, #15
 281              	.LBE38:
 282              		.loc 1 159 0
 283 0008 02F0030E 		and	lr, r2, #3
ARM GAS  C:\cygwin\tmp\ccQYD40O.s 			page 6


 284              	.LVL8:
 285              		.loc 1 160 0
 286 000c C2F38007 		ubfx	r7, r2, #2, #1
 287              	.LVL9:
 288              		.loc 1 161 0
 289 0010 C2F3C106 		ubfx	r6, r2, #3, #2
 290              	.LVL10:
 291              		.loc 1 162 0
 292 0014 C2F34115 		ubfx	r5, r2, #5, #2
 293              	.LVL11:
 294              		.loc 1 164 0
 295 0018 0024     		movs	r4, #0
 296              		.loc 1 163 0
 297 001a C2F3C312 		ubfx	r2, r2, #7, #4
 298              	.LVL12:
 299              	.LBB39:
 300              		.loc 1 175 0
 301 001e 4FF00109 		mov	r9, #1
 302              		.loc 1 177 0
 303 0022 4FF00308 		mov	r8, #3
 304 0026 2BE0     		b	.L10
 305              	.LVL13:
 306              	.L16:
 307              		.loc 1 172 0
 308 0028 D0F820B0 		ldr	fp, [r0, #32]
 309 002c 2BEA0303 		bic	r3, fp, r3
 310              	.LVL14:
 311 0030 43EA0A03 		orr	r3, r3, r10
 312 0034 0362     		str	r3, [r0, #32]
 313              	.L8:
 314              	.LVL15:
 315              		.loc 1 176 0
 316 0036 4368     		ldr	r3, [r0, #4]
 317              		.loc 1 175 0
 318 0038 09FA04FA 		lsl	r10, r9, r4
 319              	.LVL16:
 320              		.loc 1 176 0
 321 003c 23EA0A03 		bic	r3, r3, r10
 322 0040 3B43     		orrs	r3, r3, r7
 323 0042 4360     		str	r3, [r0, #4]
 324              	.LVL17:
 325 0044 4FEA440A 		lsl	r10, r4, #1
 326              		.loc 1 178 0
 327 0048 8368     		ldr	r3, [r0, #8]
 328              		.loc 1 177 0
 329 004a 08FA0AFA 		lsl	r10, r8, r10
 330              		.loc 1 178 0
 331 004e 6FEA0A0A 		mvn	r10, r10
 332 0052 0AEA0303 		and	r3, r10, r3
 333 0056 3343     		orrs	r3, r3, r6
 334 0058 8360     		str	r3, [r0, #8]
 335              		.loc 1 179 0
 336 005a C368     		ldr	r3, [r0, #12]
 337 005c 0AEA0303 		and	r3, r10, r3
 338 0060 2B43     		orrs	r3, r3, r5
 339 0062 C360     		str	r3, [r0, #12]
 340              		.loc 1 180 0
ARM GAS  C:\cygwin\tmp\ccQYD40O.s 			page 7


 341 0064 0368     		ldr	r3, [r0]
 342 0066 0AEA0303 		and	r3, r10, r3
 343 006a 43EA0E03 		orr	r3, r3, lr
 344 006e 0360     		str	r3, [r0]
 345              	.LVL18:
 346              	.L6:
 347              	.LBE39:
 348              		.loc 1 183 0
 349 0070 4908     		lsrs	r1, r1, #1
 350              	.LVL19:
 351 0072 19D0     		beq	.L5
 352              		.loc 1 185 0
 353 0074 7F00     		lsls	r7, r7, #1
 354              	.LVL20:
 355              		.loc 1 186 0
 356 0076 B600     		lsls	r6, r6, #2
 357              	.LVL21:
 358              		.loc 1 187 0
 359 0078 AD00     		lsls	r5, r5, #2
 360              	.LVL22:
 361              		.loc 1 188 0
 362 007a 4FEA8E0E 		lsl	lr, lr, #2
 363              	.LVL23:
 364              		.loc 1 189 0
 365 007e 0134     		adds	r4, r4, #1
 366              	.LVL24:
 367              	.L10:
 368              	.LBB40:
 369              		.loc 1 169 0
 370 0080 04F00703 		and	r3, r4, #7
 371 0084 9B00     		lsls	r3, r3, #2
 372              	.LBE40:
 373              		.loc 1 166 0
 374 0086 11F0010F 		tst	r1, #1
 375              	.LBB41:
 376              		.loc 1 169 0
 377 008a 02FA03FA 		lsl	r10, r2, r3
 378              	.LVL25:
 379              		.loc 1 170 0
 380 008e 0CFA03F3 		lsl	r3, ip, r3
 381              	.LVL26:
 382              	.LBE41:
 383              		.loc 1 166 0
 384 0092 EDD0     		beq	.L6
 385              	.LBB42:
 386              		.loc 1 171 0
 387 0094 072C     		cmp	r4, #7
 388 0096 C7D9     		bls	.L16
 389              		.loc 1 174 0
 390 0098 D0F824B0 		ldr	fp, [r0, #36]
 391 009c 2BEA0303 		bic	r3, fp, r3
 392              	.LVL27:
 393 00a0 43EA0A03 		orr	r3, r3, r10
 394 00a4 4362     		str	r3, [r0, #36]
 395 00a6 C6E7     		b	.L8
 396              	.LVL28:
 397              	.L5:
ARM GAS  C:\cygwin\tmp\ccQYD40O.s 			page 8


 398 00a8 BDE8F08F 		pop	{r4, r5, r6, r7, r8, r9, r10, fp, pc}
 399              	.LBE42:
 400              		.cfi_endproc
 401              	.LFE257:
 402              		.size	_pal_lld_setgroupmode, .-_pal_lld_setgroupmode
 403 00ac AFF30080 		.text
 404              	.Letext0:
 405              		.file 2 "c:\\program files\\gnu tools arm embedded\\4.9 2014q4\\arm-none-eabi\\include\\machine\\_
 406              		.file 3 "c:\\program files\\gnu tools arm embedded\\4.9 2014q4\\arm-none-eabi\\include\\stdint.h"
 407              		.file 4 "../../../os/rt/ports/ARMCMx/compilers/GCC/chtypes.h"
 408              		.file 5 "../../../os/rt/include/chsystypes.h"
 409              		.file 6 "../../../os/rt/include/chschd.h"
 410              		.file 7 "../../../os/ext/CMSIS/ST/stm32f401xe.h"
 411              		.file 8 "../../../os/rt/ports/ARMCMx/chcore.h"
 412              		.file 9 "../../../os/rt/ports/ARMCMx/chcore_v7m.h"
 413              		.file 10 "../../../os/rt/include/chtm.h"
 414              		.file 11 "../../../os/rt/include/chmtx.h"
 415              		.file 12 "../../../os/hal/ports/STM32/LLD/GPIOv2/pal_lld.h"
 416              		.file 13 "../../../os/ext/CMSIS/include/core_cm4.h"