ARM GAS  C:\cygwin\tmp\ccIihOke.s 			page 1


   1              		.syntax unified
   2              		.cpu cortex-m4
   3              		.fpu softvfp
   4              		.eabi_attribute 20, 1
   5              		.eabi_attribute 21, 1
   6              		.eabi_attribute 23, 3
   7              		.eabi_attribute 24, 1
   8              		.eabi_attribute 25, 1
   9              		.eabi_attribute 26, 1
  10              		.eabi_attribute 30, 2
  11              		.eabi_attribute 34, 1
  12              		.eabi_attribute 18, 4
  13              		.thumb
  14              		.file	"stubs.c"
  15              		.text
  16              	.Ltext0:
  17              		.cfi_sections	.debug_frame
  18              		.section	.text._exit,"ax",%progbits
  19              		.align	2
  20              		.p2align 4,,15
  21              		.global	_exit
  22              		.thumb
  23              		.thumb_func
  24              		.type	_exit, %function
  25              	_exit:
  26              	.LFB255:
  27              		.file 1 "stubs.c"
  28              		.loc 1 15 0
  29              		.cfi_startproc
  30              		@ Volatile: function does not return.
  31              		@ args = 0, pretend = 0, frame = 0
  32              		@ frame_needed = 0, uses_anonymous_args = 0
  33              	.LVL0:
  34 0000 08B5     		push	{r3, lr}
  35              		.cfi_def_cfa_offset 8
  36              		.cfi_offset 3, -8
  37              		.cfi_offset 14, -4
  38              		.loc 1 17 0
  39 0002 0248     		ldr	r0, .L5
  40              	.LVL1:
  41 0004 FFF7FEFF 		bl	chSysHalt
  42              	.LVL2:
  43              	.L2:
  44              		.loc 1 19 0 discriminator 1
  45 0008 FEE7     		b	.L2
  46              	.L6:
  47 000a 00BF     		.align	2
  48              	.L5:
  49 000c 00000000 		.word	.LC0
  50              		.cfi_endproc
  51              	.LFE255:
  52              		.size	_exit, .-_exit
  53              		.section	.text._getpid,"ax",%progbits
  54              		.align	2
  55              		.p2align 4,,15
  56              		.global	_getpid
  57              		.thumb
ARM GAS  C:\cygwin\tmp\ccIihOke.s 			page 2


  58              		.thumb_func
  59              		.type	_getpid, %function
  60              	_getpid:
  61              	.LFB256:
  62              		.loc 1 22 0
  63              		.cfi_startproc
  64              		@ args = 0, pretend = 0, frame = 0
  65              		@ frame_needed = 0, uses_anonymous_args = 0
  66              		@ link register save eliminated.
  67              		.loc 1 24 0
  68 0000 0120     		movs	r0, #1
  69 0002 7047     		bx	lr
  70              		.cfi_endproc
  71              	.LFE256:
  72              		.size	_getpid, .-_getpid
  73 0004 AFF30080 		.section	.text._kill,"ax",%progbits
  73      AFF30080 
  73      AFF30080 
  74              		.align	2
  75              		.p2align 4,,15
  76              		.global	_kill
  77              		.thumb
  78              		.thumb_func
  79              		.type	_kill, %function
  80              	_kill:
  81              	.LFB257:
  82              		.loc 1 26 0
  83              		.cfi_startproc
  84              		@ args = 0, pretend = 0, frame = 0
  85              		@ frame_needed = 0, uses_anonymous_args = 0
  86              		@ link register save eliminated.
  87              	.LVL3:
  88 0000 7047     		bx	lr
  89              		.cfi_endproc
  90              	.LFE257:
  91              		.size	_kill, .-_kill
  92 0002 00BFAFF3 		.section	.text.__cxa_pure_virtual,"ax",%progbits
  92      0080AFF3 
  92      0080AFF3 
  92      0080
  93              		.align	2
  94              		.p2align 4,,15
  95              		.global	__cxa_pure_virtual
  96              		.thumb
  97              		.thumb_func
  98              		.type	__cxa_pure_virtual, %function
  99              	__cxa_pure_virtual:
 100              	.LFB258:
 101              		.loc 1 30 0
 102              		.cfi_startproc
 103              		@ args = 0, pretend = 0, frame = 0
 104              		@ frame_needed = 0, uses_anonymous_args = 0
 105              		@ link register save eliminated.
 106              		.loc 1 31 0
 107 0000 0148     		ldr	r0, .L10
 108 0002 FFF7FEBF 		b	chDbgPanic
 109              	.LVL4:
ARM GAS  C:\cygwin\tmp\ccIihOke.s 			page 3


 110              	.L11:
 111 0006 00BF     		.align	2
 112              	.L10:
 113 0008 08000000 		.word	.LC1
 114              		.cfi_endproc
 115              	.LFE258:
 116              		.size	__cxa_pure_virtual, .-__cxa_pure_virtual
 117 000c AFF30080 		.section	.text.__cxa_guard_acquire,"ax",%progbits
 118              		.align	2
 119              		.p2align 4,,15
 120              		.global	__cxa_guard_acquire
 121              		.thumb
 122              		.thumb_func
 123              		.type	__cxa_guard_acquire, %function
 124              	__cxa_guard_acquire:
 125              	.LFB259:
 126              		.loc 1 34 0
 127              		.cfi_startproc
 128              		@ args = 0, pretend = 0, frame = 0
 129              		@ frame_needed = 0, uses_anonymous_args = 0
 130              		@ link register save eliminated.
 131              	.LVL5:
 132              	.LBB44:
 133              	.LBB45:
 134              	.LBB46:
 135              	.LBB47:
 136              		.file 2 "../../../os/ext/CMSIS/include/core_cmFunc.h"
 137              		.loc 2 546 0
 138 0000 2023     		movs	r3, #32
 139              	@ 546 "../../../os/ext/CMSIS/include/core_cmFunc.h" 1
 140 0002 83F31188 		MSR basepri, r3
 141              	@ 0 "" 2
 142              		.thumb
 143              	.LBE47:
 144              	.LBE46:
 145              	.LBE45:
 146              	.LBE44:
 147              	.LBB48:
 148              	.LBB49:
 149              	.LBB50:
 150              	.LBB51:
 151              	.LBB52:
 152 0006 0023     		movs	r3, #0
 153              	.LBE52:
 154              	.LBE51:
 155              	.LBE50:
 156              	.LBE49:
 157              	.LBE48:
 158              		.loc 1 36 0
 159 0008 0078     		ldrb	r0, [r0]	@ zero_extendqisi2
 160              	.LVL6:
 161 000a B0FA80F0 		clz	r0, r0
 162 000e 4009     		lsrs	r0, r0, #5
 163              	.LVL7:
 164              	.LBB57:
 165              	.LBB56:
 166              	.LBB55:
ARM GAS  C:\cygwin\tmp\ccIihOke.s 			page 4


 167              	.LBB54:
 168              	.LBB53:
 169              		.loc 2 546 0
 170              	@ 546 "../../../os/ext/CMSIS/include/core_cmFunc.h" 1
 171 0010 83F31188 		MSR basepri, r3
 172              	@ 0 "" 2
 173              		.thumb
 174              	.LBE53:
 175              	.LBE54:
 176              	.LBE55:
 177              	.LBE56:
 178              	.LBE57:
 179              		.loc 1 40 0
 180 0014 7047     		bx	lr
 181              		.cfi_endproc
 182              	.LFE259:
 183              		.size	__cxa_guard_acquire, .-__cxa_guard_acquire
 184 0016 00BFAFF3 		.section	.text.__cxa_guard_release,"ax",%progbits
 184      0080AFF3 
 184      0080
 185              		.align	2
 186              		.p2align 4,,15
 187              		.global	__cxa_guard_release
 188              		.thumb
 189              		.thumb_func
 190              		.type	__cxa_guard_release, %function
 191              	__cxa_guard_release:
 192              	.LFB260:
 193              		.loc 1 42 0
 194              		.cfi_startproc
 195              		@ args = 0, pretend = 0, frame = 0
 196              		@ frame_needed = 0, uses_anonymous_args = 0
 197              		@ link register save eliminated.
 198              	.LVL8:
 199              	.LBB58:
 200              	.LBB59:
 201              	.LBB60:
 202              	.LBB61:
 203              		.loc 2 546 0
 204 0000 2023     		movs	r3, #32
 205              	@ 546 "../../../os/ext/CMSIS/include/core_cmFunc.h" 1
 206 0002 83F31188 		MSR basepri, r3
 207              	@ 0 "" 2
 208              		.thumb
 209              	.LBE61:
 210              	.LBE60:
 211              	.LBE59:
 212              	.LBE58:
 213              		.loc 1 44 0
 214 0006 0123     		movs	r3, #1
 215 0008 0370     		strb	r3, [r0]
 216              	.LVL9:
 217              	.LBB62:
 218              	.LBB63:
 219              	.LBB64:
 220              	.LBB65:
 221              	.LBB66:
ARM GAS  C:\cygwin\tmp\ccIihOke.s 			page 5


 222              		.loc 2 546 0
 223 000a 0023     		movs	r3, #0
 224              	@ 546 "../../../os/ext/CMSIS/include/core_cmFunc.h" 1
 225 000c 83F31188 		MSR basepri, r3
 226              	@ 0 "" 2
 227              		.thumb
 228 0010 7047     		bx	lr
 229              	.LBE66:
 230              	.LBE65:
 231              	.LBE64:
 232              	.LBE63:
 233              	.LBE62:
 234              		.cfi_endproc
 235              	.LFE260:
 236              		.size	__cxa_guard_release, .-__cxa_guard_release
 237 0012 00BFAFF3 		.section	.text.__cxa_guard_abort,"ax",%progbits
 237      0080AFF3 
 237      0080AFF3 
 237      0080
 238              		.align	2
 239              		.p2align 4,,15
 240              		.global	__cxa_guard_abort
 241              		.thumb
 242              		.thumb_func
 243              		.type	__cxa_guard_abort, %function
 244              	__cxa_guard_abort:
 245              	.LFB261:
 246              		.loc 1 48 0
 247              		.cfi_startproc
 248              		@ args = 0, pretend = 0, frame = 0
 249              		@ frame_needed = 0, uses_anonymous_args = 0
 250              		@ link register save eliminated.
 251              	.LVL10:
 252              	.LBB67:
 253              	.LBB68:
 254              	.LBB69:
 255              	.LBB70:
 256              		.loc 2 546 0
 257 0000 2023     		movs	r3, #32
 258              	@ 546 "../../../os/ext/CMSIS/include/core_cmFunc.h" 1
 259 0002 83F31188 		MSR basepri, r3
 260              	@ 0 "" 2
 261              		.thumb
 262              	.LBE70:
 263              	.LBE69:
 264              	.LBE68:
 265              	.LBE67:
 266              		.loc 1 50 0
 267 0006 0123     		movs	r3, #1
 268 0008 0370     		strb	r3, [r0]
 269              	.LVL11:
 270              	.LBB71:
 271              	.LBB72:
 272              	.LBB73:
 273              	.LBB74:
 274              	.LBB75:
 275              		.loc 2 546 0
ARM GAS  C:\cygwin\tmp\ccIihOke.s 			page 6


 276 000a 0023     		movs	r3, #0
 277              	@ 546 "../../../os/ext/CMSIS/include/core_cmFunc.h" 1
 278 000c 83F31188 		MSR basepri, r3
 279              	@ 0 "" 2
 280              		.thumb
 281 0010 7047     		bx	lr
 282              	.LBE75:
 283              	.LBE74:
 284              	.LBE73:
 285              	.LBE72:
 286              	.LBE71:
 287              		.cfi_endproc
 288              	.LFE261:
 289              		.size	__cxa_guard_abort, .-__cxa_guard_abort
 290 0012 00BFAFF3 		.section	.text._open_r,"ax",%progbits
 290      0080AFF3 
 290      0080AFF3 
 290      0080
 291              		.align	2
 292              		.p2align 4,,15
 293              		.global	_open_r
 294              		.thumb
 295              		.thumb_func
 296              		.type	_open_r, %function
 297              	_open_r:
 298              	.LFB262:
 299              		.loc 1 54 0
 300              		.cfi_startproc
 301              		@ args = 0, pretend = 0, frame = 0
 302              		@ frame_needed = 0, uses_anonymous_args = 0
 303              		@ link register save eliminated.
 304              	.LVL12:
 305              		.loc 1 57 0
 306 0000 4FF0FF30 		mov	r0, #-1
 307              	.LVL13:
 308 0004 7047     		bx	lr
 309              		.cfi_endproc
 310              	.LFE262:
 311              		.size	_open_r, .-_open_r
 312 0006 00BFAFF3 		.section	.text.__register_exitproc,"ax",%progbits
 312      0080AFF3 
 312      0080
 313              		.align	2
 314              		.p2align 4,,15
 315              		.global	__register_exitproc
 316              		.thumb
 317              		.thumb_func
 318              		.type	__register_exitproc, %function
 319              	__register_exitproc:
 320              	.LFB263:
 321              		.loc 1 59 0
 322              		.cfi_startproc
 323              		@ args = 0, pretend = 0, frame = 0
 324              		@ frame_needed = 0, uses_anonymous_args = 0
 325              		@ link register save eliminated.
 326              	.LVL14:
 327              		.loc 1 67 0
ARM GAS  C:\cygwin\tmp\ccIihOke.s 			page 7


 328 0000 0020     		movs	r0, #0
 329              	.LVL15:
 330 0002 7047     		bx	lr
 331              		.cfi_endproc
 332              	.LFE263:
 333              		.size	__register_exitproc, .-__register_exitproc
 334              		.global	__dso_handle
 335 0004 AFF30080 		.section	.bss.__dso_handle,"aw",%nobits
 335      AFF30080 
 335      AFF30080 
 336              		.align	2
 337              		.type	__dso_handle, %object
 338              		.size	__dso_handle, 4
 339              	__dso_handle:
 340 0000 00000000 		.space	4
 341              		.section	.rodata.str1.4,"aMS",%progbits,1
 342              		.align	2
 343              	.LC0:
 344 0000 5F657869 		.ascii	"_exit\000"
 344      7400
 345 0006 0000     		.space	2
 346              	.LC1:
 347 0008 5F5F6378 		.ascii	"__cxa_pure_virtual() #1\000"
 347      615F7075 
 347      72655F76 
 347      69727475 
 347      616C2829 
 348              		.text
 349              	.Letext0:
 350              		.file 3 "c:\\program files\\gnu tools arm embedded\\4.9 2014q4\\arm-none-eabi\\include\\machine\\_
 351              		.file 4 "c:\\program files\\gnu tools arm embedded\\4.9 2014q4\\lib\\gcc\\arm-none-eabi\\4.9.3\\in
 352              		.file 5 "c:\\program files\\gnu tools arm embedded\\4.9 2014q4\\arm-none-eabi\\include\\sys\\types
 353              		.file 6 "c:\\program files\\gnu tools arm embedded\\4.9 2014q4\\arm-none-eabi\\include\\stdint.h"
 354              		.file 7 "../../../os/rt/ports/ARMCMx/compilers/GCC/chtypes.h"
 355              		.file 8 "../../../os/rt/include/chsystypes.h"
 356              		.file 9 "../../../os/rt/include/chschd.h"
 357              		.file 10 "../../../os/rt/ports/ARMCMx/chcore.h"
 358              		.file 11 "../../../os/rt/ports/ARMCMx/chcore_v7m.h"
 359              		.file 12 "../../../os/rt/include/chtm.h"
 360              		.file 13 "../../../os/rt/include/chmtx.h"
 361              		.file 14 "stubs.h"
 362              		.file 15 "../../../os/rt/include/chsys.h"
 363              		.file 16 "../../../os/ext/CMSIS/include/core_cm4.h"