ARM GAS  C:\cygwin\tmp\ccONsRSx.s 			page 1


   1              		.syntax unified
   2              		.cpu cortex-m4
   3              		.fpu softvfp
   4              		.eabi_attribute 20, 1
   5              		.eabi_attribute 21, 1
   6              		.eabi_attribute 23, 3
   7              		.eabi_attribute 24, 1
   8              		.eabi_attribute 25, 1
   9              		.eabi_attribute 26, 1
  10              		.eabi_attribute 30, 2
  11              		.eabi_attribute 34, 1
  12              		.eabi_attribute 18, 4
  13              		.thumb
  14              		.file	"testqueues.c"
  15              		.text
  16              	.Ltext0:
  17              		.cfi_sections	.debug_frame
  18              		.section	.text.notify,"ax",%progbits
  19              		.align	2
  20              		.p2align 4,,15
  21              		.thumb
  22              		.thumb_func
  23              		.type	notify, %function
  24              	notify:
  25              	.LFB226:
  26              		.file 1 "../../../test/rt/testqueues.c"
  27              		.loc 1 57 0
  28              		.cfi_startproc
  29              		@ args = 0, pretend = 0, frame = 0
  30              		@ frame_needed = 0, uses_anonymous_args = 0
  31              		@ link register save eliminated.
  32              	.LVL0:
  33 0000 7047     		bx	lr
  34              		.cfi_endproc
  35              	.LFE226:
  36              		.size	notify, .-notify
  37 0002 00BFAFF3 		.section	.text.thread1,"ax",%progbits
  37      0080AFF3 
  37      0080AFF3 
  37      0080
  38              		.align	2
  39              		.p2align 4,,15
  40              		.thumb
  41              		.thumb_func
  42              		.type	thread1, %function
  43              	thread1:
  44              	.LFB228:
  45              		.loc 1 83 0
  46              		.cfi_startproc
  47              		@ args = 0, pretend = 0, frame = 0
  48              		@ frame_needed = 0, uses_anonymous_args = 0
  49              	.LVL1:
  50              		.loc 1 83 0
  51 0000 08B5     		push	{r3, lr}
  52              		.cfi_def_cfa_offset 8
  53              		.cfi_offset 3, -8
  54              		.cfi_offset 14, -4
ARM GAS  C:\cygwin\tmp\ccONsRSx.s 			page 2


  55              		.loc 1 86 0
  56 0002 4FF4FA61 		mov	r1, #2000
  57 0006 0248     		ldr	r0, .L4
  58              	.LVL2:
  59 0008 FFF7FEFF 		bl	chIQGetTimeout
  60              	.LVL3:
  61              		.loc 1 88 0
  62 000c 0020     		movs	r0, #0
  63 000e 08BD     		pop	{r3, pc}
  64              	.L5:
  65              		.align	2
  66              	.L4:
  67 0010 00000000 		.word	.LANCHOR0
  68              		.cfi_endproc
  69              	.LFE228:
  70              		.size	thread1, .-thread1
  71 0014 AFF30080 		.section	.text.queues1_setup,"ax",%progbits
  71      AFF30080 
  71      AFF30080 
  72              		.align	2
  73              		.p2align 4,,15
  74              		.thumb
  75              		.thumb_func
  76              		.type	queues1_setup, %function
  77              	queues1_setup:
  78              	.LFB227:
  79              		.loc 1 78 0
  80              		.cfi_startproc
  81              		@ args = 0, pretend = 0, frame = 0
  82              		@ frame_needed = 0, uses_anonymous_args = 0
  83 0000 00B5     		push	{lr}
  84              		.cfi_def_cfa_offset 4
  85              		.cfi_offset 14, -4
  86              		.loc 1 80 0
  87 0002 064B     		ldr	r3, .L8
  88 0004 0648     		ldr	r0, .L8+4
  89 0006 1968     		ldr	r1, [r3]
  90 0008 064B     		ldr	r3, .L8+8
  91              		.loc 1 78 0
  92 000a 83B0     		sub	sp, sp, #12
  93              		.cfi_def_cfa_offset 16
  94              		.loc 1 80 0
  95 000c 0022     		movs	r2, #0
  96 000e 0092     		str	r2, [sp]
  97 0010 0422     		movs	r2, #4
  98 0012 FFF7FEFF 		bl	chIQObjectInit
  99              	.LVL4:
 100              		.loc 1 81 0
 101 0016 03B0     		add	sp, sp, #12
 102              		.cfi_def_cfa_offset 4
 103              		@ sp needed
 104 0018 5DF804FB 		ldr	pc, [sp], #4
 105              	.L9:
 106              		.align	2
 107              	.L8:
 108 001c 00000000 		.word	wa
 109 0020 00000000 		.word	.LANCHOR0
ARM GAS  C:\cygwin\tmp\ccONsRSx.s 			page 3


 110 0024 00000000 		.word	notify
 111              		.cfi_endproc
 112              	.LFE227:
 113              		.size	queues1_setup, .-queues1_setup
 114 0028 AFF30080 		.section	.text.thread2,"ax",%progbits
 114      AFF30080 
 115              		.align	2
 116              		.p2align 4,,15
 117              		.thumb
 118              		.thumb_func
 119              		.type	thread2, %function
 120              	thread2:
 121              	.LFB231:
 122              		.loc 1 170 0
 123              		.cfi_startproc
 124              		@ args = 0, pretend = 0, frame = 0
 125              		@ frame_needed = 0, uses_anonymous_args = 0
 126              	.LVL5:
 127 0000 08B5     		push	{r3, lr}
 128              		.cfi_def_cfa_offset 8
 129              		.cfi_offset 3, -8
 130              		.cfi_offset 14, -4
 131              		.loc 1 173 0
 132 0002 0021     		movs	r1, #0
 133 0004 4FF4FA62 		mov	r2, #2000
 134 0008 0248     		ldr	r0, .L12
 135              	.LVL6:
 136 000a FFF7FEFF 		bl	chOQPutTimeout
 137              	.LVL7:
 138              		.loc 1 175 0
 139 000e 0020     		movs	r0, #0
 140 0010 08BD     		pop	{r3, pc}
 141              	.L13:
 142 0012 00BF     		.align	2
 143              	.L12:
 144 0014 00000000 		.word	.LANCHOR1
 145              		.cfi_endproc
 146              	.LFE231:
 147              		.size	thread2, .-thread2
 148 0018 AFF30080 		.section	.text.queues2_setup,"ax",%progbits
 148      AFF30080 
 149              		.align	2
 150              		.p2align 4,,15
 151              		.thumb
 152              		.thumb_func
 153              		.type	queues2_setup, %function
 154              	queues2_setup:
 155              	.LFB230:
 156              		.loc 1 165 0
 157              		.cfi_startproc
 158              		@ args = 0, pretend = 0, frame = 0
 159              		@ frame_needed = 0, uses_anonymous_args = 0
 160 0000 00B5     		push	{lr}
 161              		.cfi_def_cfa_offset 4
 162              		.cfi_offset 14, -4
 163              		.loc 1 167 0
 164 0002 064B     		ldr	r3, .L16
ARM GAS  C:\cygwin\tmp\ccONsRSx.s 			page 4


 165 0004 0648     		ldr	r0, .L16+4
 166 0006 1968     		ldr	r1, [r3]
 167 0008 064B     		ldr	r3, .L16+8
 168              		.loc 1 165 0
 169 000a 83B0     		sub	sp, sp, #12
 170              		.cfi_def_cfa_offset 16
 171              		.loc 1 167 0
 172 000c 0022     		movs	r2, #0
 173 000e 0092     		str	r2, [sp]
 174 0010 0422     		movs	r2, #4
 175 0012 FFF7FEFF 		bl	chOQObjectInit
 176              	.LVL8:
 177              		.loc 1 168 0
 178 0016 03B0     		add	sp, sp, #12
 179              		.cfi_def_cfa_offset 4
 180              		@ sp needed
 181 0018 5DF804FB 		ldr	pc, [sp], #4
 182              	.L17:
 183              		.align	2
 184              	.L16:
 185 001c 00000000 		.word	wa
 186 0020 00000000 		.word	.LANCHOR1
 187 0024 00000000 		.word	notify
 188              		.cfi_endproc
 189              	.LFE230:
 190              		.size	queues2_setup, .-queues2_setup
 191 0028 AFF30080 		.section	.text.queues1_execute,"ax",%progbits
 191      AFF30080 
 192              		.align	2
 193              		.p2align 4,,15
 194              		.thumb
 195              		.thumb_func
 196              		.type	queues1_execute, %function
 197              	queues1_execute:
 198              	.LFB229:
 199              		.loc 1 90 0
 200              		.cfi_startproc
 201              		@ args = 0, pretend = 0, frame = 0
 202              		@ frame_needed = 0, uses_anonymous_args = 0
 203              	.LVL9:
 204 0000 2DE9F041 		push	{r4, r5, r6, r7, r8, lr}
 205              		.cfi_def_cfa_offset 24
 206              		.cfi_offset 4, -24
 207              		.cfi_offset 5, -20
 208              		.cfi_offset 6, -16
 209              		.cfi_offset 7, -12
 210              		.cfi_offset 8, -8
 211              		.cfi_offset 14, -4
 212              	.LBB882:
 213              	.LBB883:
 214              	.LBB884:
 215              	.LBB885:
 216              		.file 2 "../../../os/ext/CMSIS/include/core_cmFunc.h"
 217              		.loc 2 546 0
 218 0004 2024     		movs	r4, #32
 219              	.LBE885:
 220              	.LBE884:
ARM GAS  C:\cygwin\tmp\ccONsRSx.s 			page 5


 221              	.LBE883:
 222              	.LBE882:
 223              		.loc 1 90 0
 224 0006 82B0     		sub	sp, sp, #8
 225              		.cfi_def_cfa_offset 32
 226              	.LBB889:
 227              	.LBB888:
 228              	.LBB887:
 229              	.LBB886:
 230              		.loc 2 546 0
 231              	@ 546 "../../../os/ext/CMSIS/include/core_cmFunc.h" 1
 232 0008 84F31188 		MSR basepri, r4
 233              	@ 0 "" 2
 234              	.LVL10:
 235              		.thumb
 236 000c 904B     		ldr	r3, .L47
 237              	.LBE886:
 238              	.LBE887:
 239              	.LBE888:
 240              	.LBE889:
 241              		.loc 1 95 0
 242 000e 0120     		movs	r0, #1
 243              	.LBB890:
 244              	.LBB891:
 245              		.file 3 "../../../os/rt/include/chqueues.h"
 246              		.loc 3 304 0
 247 0010 9968     		ldr	r1, [r3, #8]
 248              	.LBE891:
 249              	.LBE890:
 250              		.loc 1 95 0
 251 0012 B1FA81F1 		clz	r1, r1
 252 0016 4909     		lsrs	r1, r1, #5
 253 0018 FFF7FEFF 		bl	_test_assert
 254              	.LVL11:
 255 001c 0646     		mov	r6, r0
 256 001e E8B9     		cbnz	r0, .L41
 257              	.LVL12:
 258              	.LBB892:
 259              	.LBB893:
 260              	.LBB894:
 261              	.LBB895:
 262              	.LBB896:
 263              		.loc 2 546 0
 264              	@ 546 "../../../os/ext/CMSIS/include/core_cmFunc.h" 1
 265 0020 80F31188 		MSR basepri, r0
 266              	@ 0 "" 2
 267              	.LVL13:
 268              		.thumb
 269              	.LBE896:
 270              	.LBE895:
 271              	.LBE894:
 272              	.LBE893:
 273              	.LBE892:
 274              	.LBB897:
 275              	.LBB898:
 276              	.LBB899:
 277              	.LBB900:
ARM GAS  C:\cygwin\tmp\ccONsRSx.s 			page 6


 278              	@ 546 "../../../os/ext/CMSIS/include/core_cmFunc.h" 1
 279 0024 84F31188 		MSR basepri, r4
 280              	@ 0 "" 2
 281              	.LVL14:
 282              		.thumb
 283 0028 4124     		movs	r4, #65
 284              	.LVL15:
 285              	.L21:
 286              	.LBE900:
 287              	.LBE899:
 288              	.LBE898:
 289              	.LBE897:
 290              		.loc 1 100 0 discriminator 3
 291 002a 894D     		ldr	r5, .L47
 292 002c 2146     		mov	r1, r4
 293 002e 0134     		adds	r4, r4, #1
 294 0030 2846     		mov	r0, r5
 295 0032 E4B2     		uxtb	r4, r4
 296 0034 FFF7FEFF 		bl	chIQPutI
 297              	.LVL16:
 298              		.loc 1 99 0 discriminator 3
 299 0038 452C     		cmp	r4, #69
 300 003a F6D1     		bne	.L21
 301              	.LVL17:
 302              	.LBB901:
 303              	.LBB902:
 304              	.LBB903:
 305              	.LBB904:
 306              	.LBB905:
 307              		.loc 2 546 0
 308 003c 0023     		movs	r3, #0
 309              	@ 546 "../../../os/ext/CMSIS/include/core_cmFunc.h" 1
 310 003e 83F31188 		MSR basepri, r3
 311              	@ 0 "" 2
 312              	.LVL18:
 313              		.thumb
 314              	.LBE905:
 315              	.LBE904:
 316              	.LBE903:
 317              	.LBE902:
 318              	.LBE901:
 319              	.LBB906:
 320              	.LBB907:
 321              	.LBB908:
 322              	.LBB909:
 323 0042 2023     		movs	r3, #32
 324              	@ 546 "../../../os/ext/CMSIS/include/core_cmFunc.h" 1
 325 0044 83F31188 		MSR basepri, r3
 326              	@ 0 "" 2
 327              	.LVL19:
 328              		.thumb
 329              	.LBE909:
 330              	.LBE908:
 331              	.LBE907:
 332              	.LBE906:
 333              	.LBB910:
 334              	.LBB911:
ARM GAS  C:\cygwin\tmp\ccONsRSx.s 			page 7


 335              		.loc 3 321 0
 336 0048 AA69     		ldr	r2, [r5, #24]
 337 004a 6B69     		ldr	r3, [r5, #20]
 338 004c 9A42     		cmp	r2, r3
 339 004e 3AD0     		beq	.L44
 340              	.L22:
 341              	.LBE911:
 342              	.LBE910:
 343              		.loc 1 102 0
 344 0050 3146     		mov	r1, r6
 345 0052 0220     		movs	r0, #2
 346 0054 FFF7FEFF 		bl	_test_assert
 347              	.LVL20:
 348 0058 0446     		mov	r4, r0
 349 005a 28B1     		cbz	r0, .L23
 350              	.LVL21:
 351              	.L41:
 352              	.LBB913:
 353              	.LBB914:
 354              	.LBB915:
 355              	.LBB916:
 356              	.LBB917:
 357              		.loc 2 546 0
 358 005c 0023     		movs	r3, #0
 359              	@ 546 "../../../os/ext/CMSIS/include/core_cmFunc.h" 1
 360 005e 83F31188 		MSR basepri, r3
 361              	@ 0 "" 2
 362              	.LVL22:
 363              		.thumb
 364              	.L18:
 365              	.LBE917:
 366              	.LBE916:
 367              	.LBE915:
 368              	.LBE914:
 369              	.LBE913:
 370              		.loc 1 147 0
 371 0062 02B0     		add	sp, sp, #8
 372              		.cfi_remember_state
 373              		.cfi_def_cfa_offset 24
 374              		@ sp needed
 375 0064 BDE8F081 		pop	{r4, r5, r6, r7, r8, pc}
 376              	.LVL23:
 377              	.L23:
 378              		.cfi_restore_state
 379              	.LBB918:
 380              	.LBB919:
 381              	.LBB920:
 382              	.LBB921:
 383              	.LBB922:
 384              	.LBB923:
 385              	.LBB924:
 386              		.loc 2 546 0
 387              	@ 546 "../../../os/ext/CMSIS/include/core_cmFunc.h" 1
 388 0068 80F31188 		MSR basepri, r0
 389              	@ 0 "" 2
 390              	.LVL24:
 391              		.thumb
ARM GAS  C:\cygwin\tmp\ccONsRSx.s 			page 8


 392              	.LBE924:
 393              	.LBE923:
 394              	.LBE922:
 395              	.LBE921:
 396              	.LBE920:
 397              	.LBB925:
 398              	.LBB926:
 399              	.LBB927:
 400              	.LBB928:
 401 006c 2023     		movs	r3, #32
 402              	@ 546 "../../../os/ext/CMSIS/include/core_cmFunc.h" 1
 403 006e 83F31188 		MSR basepri, r3
 404              	@ 0 "" 2
 405              		.thumb
 406              	.LBE928:
 407              	.LBE927:
 408              	.LBE926:
 409              	.LBE925:
 410              		.loc 1 103 0
 411 0072 7748     		ldr	r0, .L47
 412 0074 2146     		mov	r1, r4
 413 0076 FFF7FEFF 		bl	chIQPutI
 414              	.LVL25:
 415 007a 0430     		adds	r0, r0, #4
 416 007c 14BF     		ite	ne
 417 007e 0021     		movne	r1, #0
 418 0080 0121     		moveq	r1, #1
 419 0082 0320     		movs	r0, #3
 420 0084 FFF7FEFF 		bl	_test_assert
 421              	.LVL26:
 422 0088 C0B9     		cbnz	r0, .L42
 423              	.LVL27:
 424              	.LBB929:
 425              	.LBB930:
 426              	.LBB931:
 427              	.LBB932:
 428              	.LBB933:
 429              		.loc 2 546 0
 430              	@ 546 "../../../os/ext/CMSIS/include/core_cmFunc.h" 1
 431 008a 80F31188 		MSR basepri, r0
 432              	@ 0 "" 2
 433              	.LVL28:
 434              		.thumb
 435 008e 0424     		movs	r4, #4
 436              	.LVL29:
 437              	.L25:
 438              	.LBE933:
 439              	.LBE932:
 440              	.LBE931:
 441              	.LBE930:
 442              	.LBE929:
 443              	.LBB934:
 444              	.LBB935:
 445              		.loc 3 338 0
 446 0090 6F4D     		ldr	r5, .L47
 447 0092 4FF0FF31 		mov	r1, #-1
 448 0096 2846     		mov	r0, r5
ARM GAS  C:\cygwin\tmp\ccONsRSx.s 			page 9


 449 0098 FFF7FEFF 		bl	chIQGetTimeout
 450              	.LVL30:
 451              	.LBE935:
 452              	.LBE934:
 453              		.loc 1 107 0
 454 009c C0B2     		uxtb	r0, r0
 455 009e FFF7FEFF 		bl	test_emit_token
 456              	.LVL31:
 457              		.loc 1 106 0
 458 00a2 013C     		subs	r4, r4, #1
 459              	.LVL32:
 460 00a4 F4D1     		bne	.L25
 461              	.LVL33:
 462              	.LBB936:
 463              	.LBB937:
 464              	.LBB938:
 465              	.LBB939:
 466              		.loc 2 546 0
 467 00a6 2026     		movs	r6, #32
 468              	@ 546 "../../../os/ext/CMSIS/include/core_cmFunc.h" 1
 469 00a8 86F31188 		MSR basepri, r6
 470              	@ 0 "" 2
 471              	.LVL34:
 472              		.thumb
 473              	.LBE939:
 474              	.LBE938:
 475              	.LBE937:
 476              	.LBE936:
 477              		.loc 1 108 0
 478 00ac 0420     		movs	r0, #4
 479              	.LBB940:
 480              	.LBB941:
 481              		.loc 3 304 0
 482 00ae A968     		ldr	r1, [r5, #8]
 483              	.LBE941:
 484              	.LBE940:
 485              		.loc 1 108 0
 486 00b0 B1FA81F1 		clz	r1, r1
 487 00b4 4909     		lsrs	r1, r1, #5
 488 00b6 FFF7FEFF 		bl	_test_assert
 489              	.LVL35:
 490 00ba 48B1     		cbz	r0, .L45
 491              	.LVL36:
 492              	.L42:
 493              	.LBB942:
 494              	.LBB943:
 495              	.LBB944:
 496              	.LBB945:
 497              	.LBB946:
 498              		.loc 2 546 0
 499              	@ 546 "../../../os/ext/CMSIS/include/core_cmFunc.h" 1
 500 00bc 84F31188 		MSR basepri, r4
 501              	@ 0 "" 2
 502              		.thumb
 503              	.LBE946:
 504              	.LBE945:
 505              	.LBE944:
ARM GAS  C:\cygwin\tmp\ccONsRSx.s 			page 10


 506              	.LBE943:
 507              	.LBE942:
 508              	.LBE919:
 509              	.LBE918:
 510              		.loc 1 147 0
 511 00c0 02B0     		add	sp, sp, #8
 512              		.cfi_remember_state
 513              		.cfi_def_cfa_offset 24
 514              		@ sp needed
 515 00c2 BDE8F081 		pop	{r4, r5, r6, r7, r8, pc}
 516              	.LVL37:
 517              	.L44:
 518              		.cfi_restore_state
 519              	.LBB1032:
 520              	.LBB912:
 521              		.loc 3 321 0
 522 00c6 AE68     		ldr	r6, [r5, #8]
 523 00c8 0036     		adds	r6, r6, #0
 524 00ca 18BF     		it	ne
 525 00cc 0126     		movne	r6, #1
 526 00ce BFE7     		b	.L22
 527              	.LVL38:
 528              	.L45:
 529              	.LBE912:
 530              	.LBE1032:
 531              	.LBB1033:
 532              	.LBB1030:
 533              	.LBB947:
 534              	.LBB948:
 535              	.LBB949:
 536              	.LBB950:
 537              	.LBB951:
 538              		.loc 2 546 0
 539              	@ 546 "../../../os/ext/CMSIS/include/core_cmFunc.h" 1
 540 00d0 84F31188 		MSR basepri, r4
 541              	@ 0 "" 2
 542              		.thumb
 543              	.LBE951:
 544              	.LBE950:
 545              	.LBE949:
 546              	.LBE948:
 547              	.LBE947:
 548              		.loc 1 109 0
 549 00d4 0520     		movs	r0, #5
 550 00d6 5F49     		ldr	r1, .L47+4
 551 00d8 FFF7FEFF 		bl	_test_assert_sequence
 552              	.LVL39:
 553 00dc 0028     		cmp	r0, #0
 554 00de C0D1     		bne	.L18
 555              	.LVL40:
 556              	.LBB952:
 557              	.LBB953:
 558              	.LBB954:
 559              	.LBB955:
 560              		.loc 2 546 0
 561              	@ 546 "../../../os/ext/CMSIS/include/core_cmFunc.h" 1
 562 00e0 86F31188 		MSR basepri, r6
ARM GAS  C:\cygwin\tmp\ccONsRSx.s 			page 11


 563              	@ 0 "" 2
 564              	.LVL41:
 565              		.thumb
 566 00e4 4124     		movs	r4, #65
 567              	.LVL42:
 568              	.L28:
 569              	.LBE955:
 570              	.LBE954:
 571              	.LBE953:
 572              	.LBE952:
 573              		.loc 1 114 0
 574 00e6 5A4D     		ldr	r5, .L47
 575 00e8 2146     		mov	r1, r4
 576 00ea 0134     		adds	r4, r4, #1
 577 00ec 2846     		mov	r0, r5
 578 00ee E4B2     		uxtb	r4, r4
 579 00f0 FFF7FEFF 		bl	chIQPutI
 580              	.LVL43:
 581              		.loc 1 113 0
 582 00f4 452C     		cmp	r4, #69
 583 00f6 F6D1     		bne	.L28
 584              	.LVL44:
 585              	.LBB956:
 586              	.LBB957:
 587              	.LBB958:
 588              	.LBB959:
 589              	.LBB960:
 590              		.loc 2 546 0
 591 00f8 0023     		movs	r3, #0
 592              	@ 546 "../../../os/ext/CMSIS/include/core_cmFunc.h" 1
 593 00fa 83F31188 		MSR basepri, r3
 594              	@ 0 "" 2
 595              		.thumb
 596              	.LBE960:
 597              	.LBE959:
 598              	.LBE958:
 599              	.LBE957:
 600              	.LBE956:
 601              		.loc 1 118 0
 602 00fe 564E     		ldr	r6, .L47+8
 603 0100 0822     		movs	r2, #8
 604 0102 7168     		ldr	r1, [r6, #4]
 605 0104 2846     		mov	r0, r5
 606 0106 FFF7FEFF 		bl	chIQReadTimeout
 607              	.LVL45:
 608              		.loc 1 119 0
 609 010a A0F10401 		sub	r1, r0, #4
 610 010e 0620     		movs	r0, #6
 611              	.LVL46:
 612 0110 B1FA81F1 		clz	r1, r1
 613              	.LVL47:
 614 0114 4909     		lsrs	r1, r1, #5
 615 0116 FFF7FEFF 		bl	_test_assert
 616              	.LVL48:
 617 011a 0446     		mov	r4, r0
 618 011c 0028     		cmp	r0, #0
 619 011e A0D1     		bne	.L18
ARM GAS  C:\cygwin\tmp\ccONsRSx.s 			page 12


 620              	.LVL49:
 621              	.LBB961:
 622              	.LBB962:
 623              	.LBB963:
 624              	.LBB964:
 625              		.loc 2 546 0
 626 0120 2027     		movs	r7, #32
 627              	@ 546 "../../../os/ext/CMSIS/include/core_cmFunc.h" 1
 628 0122 87F31188 		MSR basepri, r7
 629              	@ 0 "" 2
 630              	.LVL50:
 631              		.thumb
 632              	.LBE964:
 633              	.LBE963:
 634              	.LBE962:
 635              	.LBE961:
 636              		.loc 1 120 0
 637 0126 0720     		movs	r0, #7
 638              	.LBB965:
 639              	.LBB966:
 640              		.loc 3 304 0
 641 0128 A968     		ldr	r1, [r5, #8]
 642              	.LBE966:
 643              	.LBE965:
 644              		.loc 1 120 0
 645 012a B1FA81F1 		clz	r1, r1
 646 012e 4909     		lsrs	r1, r1, #5
 647 0130 FFF7FEFF 		bl	_test_assert
 648              	.LVL51:
 649 0134 0028     		cmp	r0, #0
 650 0136 C1D1     		bne	.L42
 651              	.LVL52:
 652              	.LBB967:
 653              	.LBB968:
 654              	.LBB969:
 655              	.LBB970:
 656              	.LBB971:
 657              		.loc 2 546 0
 658              	@ 546 "../../../os/ext/CMSIS/include/core_cmFunc.h" 1
 659 0138 80F31188 		MSR basepri, r0
 660              	@ 0 "" 2
 661              	.LVL53:
 662              		.thumb
 663              	.LBE971:
 664              	.LBE970:
 665              	.LBE969:
 666              	.LBE968:
 667              	.LBE967:
 668              	.LBB972:
 669              	.LBB973:
 670              	.LBB974:
 671              	.LBB975:
 672              	@ 546 "../../../os/ext/CMSIS/include/core_cmFunc.h" 1
 673 013c 87F31188 		MSR basepri, r7
 674              	@ 0 "" 2
 675              	.LVL54:
 676              		.thumb
ARM GAS  C:\cygwin\tmp\ccONsRSx.s 			page 13


 677 0140 4124     		movs	r4, #65
 678              	.LVL55:
 679              	.L31:
 680              	.LBE975:
 681              	.LBE974:
 682              	.LBE973:
 683              	.LBE972:
 684              		.loc 1 125 0
 685 0142 434D     		ldr	r5, .L47
 686 0144 2146     		mov	r1, r4
 687 0146 0134     		adds	r4, r4, #1
 688 0148 2846     		mov	r0, r5
 689 014a E4B2     		uxtb	r4, r4
 690 014c FFF7FEFF 		bl	chIQPutI
 691              	.LVL56:
 692              		.loc 1 124 0
 693 0150 452C     		cmp	r4, #69
 694 0152 F6D1     		bne	.L31
 695              	.LVL57:
 696              	.LBB976:
 697              	.LBB977:
 698              	.LBB978:
 699              	.LBB979:
 700              	.LBB980:
 701              		.loc 2 546 0
 702 0154 0023     		movs	r3, #0
 703              	@ 546 "../../../os/ext/CMSIS/include/core_cmFunc.h" 1
 704 0156 83F31188 		MSR basepri, r3
 705              	@ 0 "" 2
 706              		.thumb
 707              	.LBE980:
 708              	.LBE979:
 709              	.LBE978:
 710              	.LBE977:
 711              	.LBE976:
 712              		.loc 1 129 0
 713 015a 7468     		ldr	r4, [r6, #4]
 714 015c DFF8F880 		ldr	r8, .L47+8
 715 0160 2146     		mov	r1, r4
 716 0162 2846     		mov	r0, r5
 717 0164 0222     		movs	r2, #2
 718 0166 FFF7FEFF 		bl	chIQReadTimeout
 719              	.LVL58:
 720              		.loc 1 130 0
 721 016a A0F10201 		sub	r1, r0, #2
 722 016e 0820     		movs	r0, #8
 723              	.LVL59:
 724 0170 B1FA81F1 		clz	r1, r1
 725              	.LVL60:
 726 0174 4909     		lsrs	r1, r1, #5
 727 0176 FFF7FEFF 		bl	_test_assert
 728              	.LVL61:
 729 017a 0028     		cmp	r0, #0
 730 017c 7FF471AF 		bne	.L18
 731              		.loc 1 131 0
 732 0180 0346     		mov	r3, r0
 733 0182 2146     		mov	r1, r4
ARM GAS  C:\cygwin\tmp\ccONsRSx.s 			page 14


 734 0184 0222     		movs	r2, #2
 735 0186 2846     		mov	r0, r5
 736 0188 FFF7FEFF 		bl	chIQReadTimeout
 737              	.LVL62:
 738              		.loc 1 132 0
 739 018c A0F10201 		sub	r1, r0, #2
 740 0190 0920     		movs	r0, #9
 741              	.LVL63:
 742 0192 B1FA81F1 		clz	r1, r1
 743              	.LVL64:
 744 0196 4909     		lsrs	r1, r1, #5
 745 0198 FFF7FEFF 		bl	_test_assert
 746              	.LVL65:
 747 019c 0646     		mov	r6, r0
 748 019e 0028     		cmp	r0, #0
 749 01a0 7FF45FAF 		bne	.L18
 750              	.LVL66:
 751              	.LBB981:
 752              	.LBB982:
 753              	.LBB983:
 754              	.LBB984:
 755              		.loc 2 546 0
 756 01a4 2027     		movs	r7, #32
 757              	@ 546 "../../../os/ext/CMSIS/include/core_cmFunc.h" 1
 758 01a6 87F31188 		MSR basepri, r7
 759              	@ 0 "" 2
 760              	.LVL67:
 761              		.thumb
 762              	.LBE984:
 763              	.LBE983:
 764              	.LBE982:
 765              	.LBE981:
 766              		.loc 1 133 0
 767 01aa 0A20     		movs	r0, #10
 768              	.LBB985:
 769              	.LBB986:
 770              		.loc 3 304 0
 771 01ac A968     		ldr	r1, [r5, #8]
 772              	.LBE986:
 773              	.LBE985:
 774              		.loc 1 133 0
 775 01ae B1FA81F1 		clz	r1, r1
 776 01b2 4909     		lsrs	r1, r1, #5
 777 01b4 FFF7FEFF 		bl	_test_assert
 778              	.LVL68:
 779 01b8 0446     		mov	r4, r0
 780 01ba 10B1     		cbz	r0, .L46
 781              	.L40:
 782              	.LVL69:
 783              	.LBB987:
 784              	.LBB988:
 785              	.LBB989:
 786              	.LBB990:
 787              	.LBB991:
 788              		.loc 2 546 0
 789              	@ 546 "../../../os/ext/CMSIS/include/core_cmFunc.h" 1
 790 01bc 86F31188 		MSR basepri, r6
ARM GAS  C:\cygwin\tmp\ccONsRSx.s 			page 15


 791              	@ 0 "" 2
 792              		.thumb
 793 01c0 4FE7     		b	.L18
 794              	.LVL70:
 795              	.L46:
 796              	.LBE991:
 797              	.LBE990:
 798              	.LBE989:
 799              	.LBE988:
 800              	.LBE987:
 801              	.LBB992:
 802              	.LBB993:
 803              	.LBB994:
 804              	.LBB995:
 805              	.LBB996:
 806              	@ 546 "../../../os/ext/CMSIS/include/core_cmFunc.h" 1
 807 01c2 80F31188 		MSR basepri, r0
 808              	@ 0 "" 2
 809              	.LVL71:
 810              		.thumb
 811              	.LBE996:
 812              	.LBE995:
 813              	.LBE994:
 814              	.LBE993:
 815              	.LBE992:
 816              	.LBB997:
 817              	.LBB998:
 818              	.LBB999:
 819              	.LBB1000:
 820              	@ 546 "../../../os/ext/CMSIS/include/core_cmFunc.h" 1
 821 01c6 87F31188 		MSR basepri, r7
 822              	@ 0 "" 2
 823              		.thumb
 824              	.LBE1000:
 825              	.LBE999:
 826              	.LBE998:
 827              	.LBE997:
 828              		.loc 1 137 0
 829 01ca 2146     		mov	r1, r4
 830 01cc 2846     		mov	r0, r5
 831 01ce FFF7FEFF 		bl	chIQPutI
 832              	.LVL72:
 833              		.loc 1 138 0
 834 01d2 2846     		mov	r0, r5
 835 01d4 FFF7FEFF 		bl	chIQResetI
 836              	.LVL73:
 837              	.LBB1001:
 838              	.LBB1002:
 839              	.LBB1003:
 840              	.LBB1004:
 841              	.LBB1005:
 842              		.loc 2 546 0
 843              	@ 546 "../../../os/ext/CMSIS/include/core_cmFunc.h" 1
 844 01d8 84F31188 		MSR basepri, r4
 845              	@ 0 "" 2
 846              	.LVL74:
 847              		.thumb
ARM GAS  C:\cygwin\tmp\ccONsRSx.s 			page 16


 848              	.LBE1005:
 849              	.LBE1004:
 850              	.LBE1003:
 851              	.LBE1002:
 852              	.LBE1001:
 853              	.LBB1006:
 854              	.LBB1007:
 855              	.LBB1008:
 856              	.LBB1009:
 857              	@ 546 "../../../os/ext/CMSIS/include/core_cmFunc.h" 1
 858 01dc 87F31188 		MSR basepri, r7
 859              	@ 0 "" 2
 860              	.LVL75:
 861              		.thumb
 862              	.LBE1009:
 863              	.LBE1008:
 864              	.LBE1007:
 865              	.LBE1006:
 866              		.loc 1 140 0
 867 01e0 0B20     		movs	r0, #11
 868 01e2 A968     		ldr	r1, [r5, #8]
 869 01e4 B1FA81F1 		clz	r1, r1
 870 01e8 4909     		lsrs	r1, r1, #5
 871 01ea FFF7FEFF 		bl	_test_assert
 872              	.LVL76:
 873 01ee 0646     		mov	r6, r0
 874 01f0 0028     		cmp	r0, #0
 875 01f2 7FF463AF 		bne	.L42
 876              	.LVL77:
 877              	.LBB1010:
 878              	.LBB1011:
 879              	.LBB1012:
 880              	.LBB1013:
 881              	.LBB1014:
 882              		.loc 2 546 0
 883              	@ 546 "../../../os/ext/CMSIS/include/core_cmFunc.h" 1
 884 01f6 80F31188 		MSR basepri, r0
 885              	@ 0 "" 2
 886              		.thumb
 887              	.LBE1014:
 888              	.LBE1013:
 889              	.LBE1012:
 890              	.LBE1011:
 891              	.LBE1010:
 892              	.LBB1015:
 893              	.LBB1016:
 894              	.LBB1017:
 895              	.LBB1018:
 896              		.file 4 "../../../os/rt/include/chthreads.h"
 897              		.loc 4 179 0
 898 01fa 184B     		ldr	r3, .L47+12
 899              	.LBE1018:
 900              	.LBE1017:
 901              	.LBE1016:
 902              	.LBE1015:
 903              		.loc 1 141 0
 904 01fc D8F80000 		ldr	r0, [r8]
ARM GAS  C:\cygwin\tmp\ccONsRSx.s 			page 17


 905              	.LBB1020:
 906              	.LBB1019:
 907              		.loc 4 192 0
 908 0200 9A69     		ldr	r2, [r3, #24]
 909              	.LBE1019:
 910              	.LBE1020:
 911              		.loc 1 141 0
 912 0202 174B     		ldr	r3, .L47+16
 913 0204 9268     		ldr	r2, [r2, #8]
 914 0206 0096     		str	r6, [sp]
 915 0208 0132     		adds	r2, r2, #1
 916 020a 4FF4A471 		mov	r1, #328
 917 020e FFF7FEFF 		bl	chThdCreateStatic
 918              	.LVL78:
 919 0212 144B     		ldr	r3, .L47+20
 920 0214 1860     		str	r0, [r3]
 921              	.LVL79:
 922              	.LBB1021:
 923              	.LBB1022:
 924              	.LBB1023:
 925              	.LBB1024:
 926              		.loc 2 546 0
 927              	@ 546 "../../../os/ext/CMSIS/include/core_cmFunc.h" 1
 928 0216 87F31188 		MSR basepri, r7
 929              	@ 0 "" 2
 930              	.LVL80:
 931              		.thumb
 932              	.LBE1024:
 933              	.LBE1023:
 934              	.LBE1022:
 935              	.LBE1021:
 936              		.loc 1 142 0
 937 021a 0C20     		movs	r0, #12
 938 021c A968     		ldr	r1, [r5, #8]
 939 021e B1FA81F1 		clz	r1, r1
 940 0222 4909     		lsrs	r1, r1, #5
 941 0224 FFF7FEFF 		bl	_test_assert
 942              	.LVL81:
 943 0228 0028     		cmp	r0, #0
 944 022a C7D1     		bne	.L40
 945              	.LVL82:
 946              	.LBB1025:
 947              	.LBB1026:
 948              	.LBB1027:
 949              	.LBB1028:
 950              	.LBB1029:
 951              		.loc 2 546 0
 952              	@ 546 "../../../os/ext/CMSIS/include/core_cmFunc.h" 1
 953 022c 80F31188 		MSR basepri, r0
 954              	@ 0 "" 2
 955              		.thumb
 956              	.LBE1029:
 957              	.LBE1028:
 958              	.LBE1027:
 959              	.LBE1026:
 960              	.LBE1025:
 961              		.loc 1 143 0
ARM GAS  C:\cygwin\tmp\ccONsRSx.s 			page 18


 962 0230 FFF7FEFF 		bl	test_wait_threads
 963              	.LVL83:
 964              		.loc 1 146 0
 965 0234 2846     		mov	r0, r5
 966 0236 0A21     		movs	r1, #10
 967 0238 FFF7FEFF 		bl	chIQGetTimeout
 968              	.LVL84:
 969 023c 431C     		adds	r3, r0, #1
 970 023e 5942     		rsbs	r1, r3, #0
 971 0240 5941     		adcs	r1, r1, r3
 972 0242 0D20     		movs	r0, #13
 973              	.LBE1030:
 974              	.LBE1033:
 975              		.loc 1 147 0
 976 0244 02B0     		add	sp, sp, #8
 977              		.cfi_def_cfa_offset 24
 978              		@ sp needed
 979 0246 BDE8F041 		pop	{r4, r5, r6, r7, r8, lr}
 980              		.cfi_restore 14
 981              		.cfi_restore 8
 982              		.cfi_restore 7
 983              		.cfi_restore 6
 984              		.cfi_restore 5
 985              		.cfi_restore 4
 986              		.cfi_def_cfa_offset 0
 987              	.LBB1034:
 988              	.LBB1031:
 989              		.loc 1 146 0
 990 024a FFF7FEBF 		b	_test_assert
 991              	.LVL85:
 992              	.L48:
 993 024e 00BF     		.align	2
 994              	.L47:
 995 0250 00000000 		.word	.LANCHOR0
 996 0254 00000000 		.word	.LC0
 997 0258 00000000 		.word	wa
 998 025c 00000000 		.word	ch
 999 0260 00000000 		.word	thread1
 1000 0264 00000000 		.word	threads
 1001              	.LBE1031:
 1002              	.LBE1034:
 1003              		.cfi_endproc
 1004              	.LFE229:
 1005              		.size	queues1_execute, .-queues1_execute
 1006 0268 AFF30080 		.section	.text.queues2_execute,"ax",%progbits
 1006      AFF30080 
 1007              		.align	2
 1008              		.p2align 4,,15
 1009              		.thumb
 1010              		.thumb_func
 1011              		.type	queues2_execute, %function
 1012              	queues2_execute:
 1013              	.LFB232:
 1014              		.loc 1 177 0
 1015              		.cfi_startproc
 1016              		@ args = 0, pretend = 0, frame = 0
 1017              		@ frame_needed = 0, uses_anonymous_args = 0
ARM GAS  C:\cygwin\tmp\ccONsRSx.s 			page 19


 1018              	.LVL86:
 1019 0000 2DE9F043 		push	{r4, r5, r6, r7, r8, r9, lr}
 1020              		.cfi_def_cfa_offset 28
 1021              		.cfi_offset 4, -28
 1022              		.cfi_offset 5, -24
 1023              		.cfi_offset 6, -20
 1024              		.cfi_offset 7, -16
 1025              		.cfi_offset 8, -12
 1026              		.cfi_offset 9, -8
 1027              		.cfi_offset 14, -4
 1028              	.LBB1217:
 1029              	.LBB1218:
 1030              	.LBB1219:
 1031              	.LBB1220:
 1032              		.loc 2 546 0
 1033 0004 2023     		movs	r3, #32
 1034              	.LBE1220:
 1035              	.LBE1219:
 1036              	.LBE1218:
 1037              	.LBE1217:
 1038              		.loc 1 177 0
 1039 0006 83B0     		sub	sp, sp, #12
 1040              		.cfi_def_cfa_offset 40
 1041              	.LBB1224:
 1042              	.LBB1223:
 1043              	.LBB1222:
 1044              	.LBB1221:
 1045              		.loc 2 546 0
 1046              	@ 546 "../../../os/ext/CMSIS/include/core_cmFunc.h" 1
 1047 0008 83F31188 		MSR basepri, r3
 1048              	@ 0 "" 2
 1049              	.LVL87:
 1050              		.thumb
 1051              	.LBE1221:
 1052              	.LBE1222:
 1053              	.LBE1223:
 1054              	.LBE1224:
 1055              	.LBB1225:
 1056              	.LBB1226:
 1057              		.loc 3 387 0
 1058 000c 854B     		ldr	r3, .L74
 1059 000e 5969     		ldr	r1, [r3, #20]
 1060 0010 9A69     		ldr	r2, [r3, #24]
 1061 0012 9142     		cmp	r1, r2
 1062 0014 5DD0     		beq	.L71
 1063 0016 0021     		movs	r1, #0
 1064              	.L50:
 1065              	.LBE1226:
 1066              	.LBE1225:
 1067              		.loc 1 182 0
 1068 0018 0120     		movs	r0, #1
 1069 001a FFF7FEFF 		bl	_test_assert
 1070              	.LVL88:
 1071 001e B8BB     		cbnz	r0, .L70
 1072              	.LVL89:
 1073              	.LBB1228:
 1074              	.LBB1229:
ARM GAS  C:\cygwin\tmp\ccONsRSx.s 			page 20


 1075              	.LBB1230:
 1076              	.LBB1231:
 1077              	.LBB1232:
 1078              		.loc 2 546 0
 1079              	@ 546 "../../../os/ext/CMSIS/include/core_cmFunc.h" 1
 1080 0020 80F31188 		MSR basepri, r0
 1081              	@ 0 "" 2
 1082              	.LVL90:
 1083              		.thumb
 1084 0024 4124     		movs	r4, #65
 1085              	.LVL91:
 1086              	.L53:
 1087              	.LBE1232:
 1088              	.LBE1231:
 1089              	.LBE1230:
 1090              	.LBE1229:
 1091              	.LBE1228:
 1092              	.LBB1233:
 1093              	.LBB1234:
 1094              		.loc 3 423 0 discriminator 3
 1095 0026 7F4D     		ldr	r5, .L74
 1096 0028 2146     		mov	r1, r4
 1097 002a 0134     		adds	r4, r4, #1
 1098              	.LVL92:
 1099 002c 2846     		mov	r0, r5
 1100 002e 4FF0FF32 		mov	r2, #-1
 1101 0032 E4B2     		uxtb	r4, r4
 1102 0034 FFF7FEFF 		bl	chOQPutTimeout
 1103              	.LVL93:
 1104              	.LBE1234:
 1105              	.LBE1233:
 1106              		.loc 1 185 0 discriminator 3
 1107 0038 452C     		cmp	r4, #69
 1108 003a F4D1     		bne	.L53
 1109              	.LVL94:
 1110              	.LBB1235:
 1111              	.LBB1236:
 1112              	.LBB1237:
 1113              	.LBB1238:
 1114              		.loc 2 546 0
 1115 003c 2026     		movs	r6, #32
 1116              	@ 546 "../../../os/ext/CMSIS/include/core_cmFunc.h" 1
 1117 003e 86F31188 		MSR basepri, r6
 1118              	@ 0 "" 2
 1119              	.LVL95:
 1120              		.thumb
 1121              	.LBE1238:
 1122              	.LBE1237:
 1123              	.LBE1236:
 1124              	.LBE1235:
 1125              		.loc 1 187 0
 1126 0042 0220     		movs	r0, #2
 1127              	.LBB1239:
 1128              	.LBB1240:
 1129              		.loc 3 404 0
 1130 0044 A968     		ldr	r1, [r5, #8]
 1131              	.LBE1240:
ARM GAS  C:\cygwin\tmp\ccONsRSx.s 			page 21


 1132              	.LBE1239:
 1133              		.loc 1 187 0
 1134 0046 B1FA81F1 		clz	r1, r1
 1135 004a 4909     		lsrs	r1, r1, #5
 1136 004c FFF7FEFF 		bl	_test_assert
 1137              	.LVL96:
 1138 0050 0746     		mov	r7, r0
 1139 0052 E8B9     		cbnz	r0, .L70
 1140              	.LVL97:
 1141              	.LBB1241:
 1142              	.LBB1242:
 1143              	.LBB1243:
 1144              	.LBB1244:
 1145              	.LBB1245:
 1146              	.LBB1246:
 1147              	.LBB1247:
 1148              		.loc 2 546 0
 1149              	@ 546 "../../../os/ext/CMSIS/include/core_cmFunc.h" 1
 1150 0054 80F31188 		MSR basepri, r0
 1151              	@ 0 "" 2
 1152              	.LVL98:
 1153              		.thumb
 1154 0058 0424     		movs	r4, #4
 1155              	.LBE1247:
 1156              	.LBE1246:
 1157              	.LBE1245:
 1158              	.LBE1244:
 1159              	.LBE1243:
 1160              	.LBB1248:
 1161              	.LBB1249:
 1162              	.LBB1250:
 1163              	.LBB1251:
 1164              	.LBB1252:
 1165              	.LBB1253:
 1166 005a 8146     		mov	r9, r0
 1167              	.LVL99:
 1168              	.L55:
 1169              	.LBE1253:
 1170              	.LBE1252:
 1171              	.LBE1251:
 1172              	.LBE1250:
 1173              	.LBE1249:
 1174              	.LBB1258:
 1175              	.LBB1259:
 1176              	.LBB1260:
 1177              	.LBB1261:
 1178 005c 4FF02008 		mov	r8, #32
 1179              	@ 546 "../../../os/ext/CMSIS/include/core_cmFunc.h" 1
 1180 0060 86F31188 		MSR basepri, r6
 1181              	@ 0 "" 2
 1182              		.thumb
 1183              	.LBE1261:
 1184              	.LBE1260:
 1185              	.LBE1259:
 1186              	.LBE1258:
 1187              		.loc 1 194 0
 1188 0064 6F4D     		ldr	r5, .L74
ARM GAS  C:\cygwin\tmp\ccONsRSx.s 			page 22


 1189 0066 2846     		mov	r0, r5
 1190 0068 FFF7FEFF 		bl	chOQGetI
 1191              	.LVL100:
 1192              	.LBB1262:
 1193              	.LBB1257:
 1194              	.LBB1256:
 1195              	.LBB1255:
 1196              	.LBB1254:
 1197              		.loc 2 546 0
 1198              	@ 546 "../../../os/ext/CMSIS/include/core_cmFunc.h" 1
 1199 006c 89F31188 		MSR basepri, r9
 1200              	@ 0 "" 2
 1201              		.thumb
 1202              	.LBE1254:
 1203              	.LBE1255:
 1204              	.LBE1256:
 1205              	.LBE1257:
 1206              	.LBE1262:
 1207              		.loc 1 196 0
 1208 0070 C0B2     		uxtb	r0, r0
 1209 0072 FFF7FEFF 		bl	test_emit_token
 1210              	.LVL101:
 1211              	.LBE1248:
 1212              		.loc 1 190 0
 1213 0076 013C     		subs	r4, r4, #1
 1214              	.LVL102:
 1215 0078 F0D1     		bne	.L55
 1216              	.LVL103:
 1217              	.LBB1263:
 1218              	.LBB1264:
 1219              	.LBB1265:
 1220              	.LBB1266:
 1221              		.loc 2 546 0
 1222              	@ 546 "../../../os/ext/CMSIS/include/core_cmFunc.h" 1
 1223 007a 88F31188 		MSR basepri, r8
 1224              	@ 0 "" 2
 1225              	.LVL104:
 1226              		.thumb
 1227              	.LBE1266:
 1228              	.LBE1265:
 1229              	.LBE1264:
 1230              	.LBE1263:
 1231              	.LBB1267:
 1232              	.LBB1268:
 1233              		.loc 3 387 0
 1234 007e 6A69     		ldr	r2, [r5, #20]
 1235 0080 AB69     		ldr	r3, [r5, #24]
 1236 0082 9A42     		cmp	r2, r3
 1237 0084 2AD0     		beq	.L72
 1238              	.L56:
 1239              	.LBE1268:
 1240              	.LBE1267:
 1241              		.loc 1 198 0
 1242 0086 3946     		mov	r1, r7
 1243 0088 0320     		movs	r0, #3
 1244 008a FFF7FEFF 		bl	_test_assert
 1245              	.LVL105:
ARM GAS  C:\cygwin\tmp\ccONsRSx.s 			page 23


 1246 008e 28B1     		cbz	r0, .L73
 1247              	.LVL106:
 1248              	.L70:
 1249              	.LBB1270:
 1250              	.LBB1271:
 1251              	.LBB1272:
 1252              	.LBB1273:
 1253              	.LBB1274:
 1254              		.loc 2 546 0
 1255 0090 0023     		movs	r3, #0
 1256              	@ 546 "../../../os/ext/CMSIS/include/core_cmFunc.h" 1
 1257 0092 83F31188 		MSR basepri, r3
 1258              	@ 0 "" 2
 1259              	.LVL107:
 1260              		.thumb
 1261              	.L49:
 1262              	.LBE1274:
 1263              	.LBE1273:
 1264              	.LBE1272:
 1265              	.LBE1271:
 1266              	.LBE1270:
 1267              	.LBE1242:
 1268              	.LBE1241:
 1269              		.loc 1 225 0
 1270 0096 03B0     		add	sp, sp, #12
 1271              		.cfi_remember_state
 1272              		.cfi_def_cfa_offset 28
 1273              		@ sp needed
 1274 0098 BDE8F083 		pop	{r4, r5, r6, r7, r8, r9, pc}
 1275              	.LVL108:
 1276              	.L73:
 1277              		.cfi_restore_state
 1278              	.LBB1372:
 1279              	.LBB1369:
 1280              	.LBB1275:
 1281              	.LBB1276:
 1282              	.LBB1277:
 1283              	.LBB1278:
 1284              	.LBB1279:
 1285              		.loc 2 546 0
 1286              	@ 546 "../../../os/ext/CMSIS/include/core_cmFunc.h" 1
 1287 009c 80F31188 		MSR basepri, r0
 1288              	@ 0 "" 2
 1289              		.thumb
 1290              	.LBE1279:
 1291              	.LBE1278:
 1292              	.LBE1277:
 1293              	.LBE1276:
 1294              	.LBE1275:
 1295              		.loc 1 199 0
 1296 00a0 0420     		movs	r0, #4
 1297 00a2 6149     		ldr	r1, .L74+4
 1298 00a4 FFF7FEFF 		bl	_test_assert_sequence
 1299              	.LVL109:
 1300 00a8 0446     		mov	r4, r0
 1301              	.LVL110:
 1302 00aa 0028     		cmp	r0, #0
ARM GAS  C:\cygwin\tmp\ccONsRSx.s 			page 24


 1303 00ac F3D1     		bne	.L49
 1304              	.LVL111:
 1305              	.LBB1280:
 1306              	.LBB1281:
 1307              	.LBB1282:
 1308              	.LBB1283:
 1309              		.loc 2 546 0
 1310 00ae 2026     		movs	r6, #32
 1311              	@ 546 "../../../os/ext/CMSIS/include/core_cmFunc.h" 1
 1312 00b0 86F31188 		MSR basepri, r6
 1313              	@ 0 "" 2
 1314              		.thumb
 1315              	.LBE1283:
 1316              	.LBE1282:
 1317              	.LBE1281:
 1318              	.LBE1280:
 1319              		.loc 1 200 0
 1320 00b4 5B4D     		ldr	r5, .L74
 1321 00b6 2846     		mov	r0, r5
 1322 00b8 FFF7FEFF 		bl	chOQGetI
 1323              	.LVL112:
 1324 00bc 0330     		adds	r0, r0, #3
 1325 00be 14BF     		ite	ne
 1326 00c0 0021     		movne	r1, #0
 1327 00c2 0121     		moveq	r1, #1
 1328 00c4 0520     		movs	r0, #5
 1329 00c6 FFF7FEFF 		bl	_test_assert
 1330              	.LVL113:
 1331 00ca 60B1     		cbz	r0, .L59
 1332              	.LVL114:
 1333              	.LBB1284:
 1334              	.LBB1285:
 1335              	.LBB1286:
 1336              	.LBB1287:
 1337              	.LBB1288:
 1338              		.loc 2 546 0
 1339              	@ 546 "../../../os/ext/CMSIS/include/core_cmFunc.h" 1
 1340 00cc 84F31188 		MSR basepri, r4
 1341              	@ 0 "" 2
 1342              		.thumb
 1343 00d0 E1E7     		b	.L49
 1344              	.LVL115:
 1345              	.L71:
 1346              	.LBE1288:
 1347              	.LBE1287:
 1348              	.LBE1286:
 1349              	.LBE1285:
 1350              	.LBE1284:
 1351              	.LBE1369:
 1352              	.LBE1372:
 1353              	.LBB1373:
 1354              	.LBB1227:
 1355              		.loc 3 387 0
 1356 00d2 9968     		ldr	r1, [r3, #8]
 1357 00d4 0031     		adds	r1, r1, #0
 1358 00d6 18BF     		it	ne
 1359 00d8 0121     		movne	r1, #1
ARM GAS  C:\cygwin\tmp\ccONsRSx.s 			page 25


 1360 00da 9DE7     		b	.L50
 1361              	.LVL116:
 1362              	.L72:
 1363              	.LBE1227:
 1364              	.LBE1373:
 1365              	.LBB1374:
 1366              	.LBB1370:
 1367              	.LBB1289:
 1368              	.LBB1269:
 1369 00dc AF68     		ldr	r7, [r5, #8]
 1370 00de 0037     		adds	r7, r7, #0
 1371 00e0 18BF     		it	ne
 1372 00e2 0127     		movne	r7, #1
 1373 00e4 CFE7     		b	.L56
 1374              	.LVL117:
 1375              	.L59:
 1376              	.LBE1269:
 1377              	.LBE1289:
 1378              	.LBB1290:
 1379              	.LBB1291:
 1380              	.LBB1292:
 1381              	.LBB1293:
 1382              	.LBB1294:
 1383              		.loc 2 546 0
 1384              	@ 546 "../../../os/ext/CMSIS/include/core_cmFunc.h" 1
 1385 00e6 80F31188 		MSR basepri, r0
 1386              	@ 0 "" 2
 1387              		.thumb
 1388              	.LBE1294:
 1389              	.LBE1293:
 1390              	.LBE1292:
 1391              	.LBE1291:
 1392              	.LBE1290:
 1393              		.loc 1 203 0
 1394 00ea 504F     		ldr	r7, .L74+8
 1395 00ec 7C68     		ldr	r4, [r7, #4]
 1396 00ee 0346     		mov	r3, r0
 1397 00f0 2146     		mov	r1, r4
 1398 00f2 0822     		movs	r2, #8
 1399 00f4 2846     		mov	r0, r5
 1400 00f6 FFF7FEFF 		bl	chOQWriteTimeout
 1401              	.LVL118:
 1402              		.loc 1 204 0
 1403 00fa A0F10401 		sub	r1, r0, #4
 1404 00fe 0620     		movs	r0, #6
 1405              	.LVL119:
 1406 0100 B1FA81F1 		clz	r1, r1
 1407              	.LVL120:
 1408 0104 4909     		lsrs	r1, r1, #5
 1409 0106 FFF7FEFF 		bl	_test_assert
 1410              	.LVL121:
 1411 010a 8046     		mov	r8, r0
 1412 010c 0028     		cmp	r0, #0
 1413 010e C2D1     		bne	.L49
 1414              	.LVL122:
 1415              	.LBB1295:
 1416              	.LBB1296:
ARM GAS  C:\cygwin\tmp\ccONsRSx.s 			page 26


 1417              	.LBB1297:
 1418              	.LBB1298:
 1419              		.loc 2 546 0
 1420              	@ 546 "../../../os/ext/CMSIS/include/core_cmFunc.h" 1
 1421 0110 86F31188 		MSR basepri, r6
 1422              	@ 0 "" 2
 1423              	.LVL123:
 1424              		.thumb
 1425              	.LBE1298:
 1426              	.LBE1297:
 1427              	.LBE1296:
 1428              	.LBE1295:
 1429              		.loc 1 205 0
 1430 0114 0720     		movs	r0, #7
 1431              	.LBB1299:
 1432              	.LBB1300:
 1433              		.loc 3 404 0
 1434 0116 A968     		ldr	r1, [r5, #8]
 1435              	.LBE1300:
 1436              	.LBE1299:
 1437              		.loc 1 205 0
 1438 0118 B1FA81F1 		clz	r1, r1
 1439 011c 4909     		lsrs	r1, r1, #5
 1440 011e FFF7FEFF 		bl	_test_assert
 1441              	.LVL124:
 1442 0122 8146     		mov	r9, r0
 1443 0124 10B1     		cbz	r0, .L61
 1444              	.LVL125:
 1445              	.LBB1301:
 1446              	.LBB1302:
 1447              	.LBB1303:
 1448              	.LBB1304:
 1449              	.LBB1305:
 1450              		.loc 2 546 0
 1451              	@ 546 "../../../os/ext/CMSIS/include/core_cmFunc.h" 1
 1452 0126 88F31188 		MSR basepri, r8
 1453              	@ 0 "" 2
 1454              		.thumb
 1455 012a B4E7     		b	.L49
 1456              	.LVL126:
 1457              	.L61:
 1458              	.LBE1305:
 1459              	.LBE1304:
 1460              	.LBE1303:
 1461              	.LBE1302:
 1462              	.LBE1301:
 1463              	.LBB1306:
 1464              	.LBB1307:
 1465              	.LBB1308:
 1466              	.LBB1309:
 1467              	.LBB1310:
 1468              	@ 546 "../../../os/ext/CMSIS/include/core_cmFunc.h" 1
 1469 012c 80F31188 		MSR basepri, r0
 1470              	@ 0 "" 2
 1471              		.thumb
 1472              	.LBE1310:
 1473              	.LBE1309:
ARM GAS  C:\cygwin\tmp\ccONsRSx.s 			page 27


 1474              	.LBE1308:
 1475              	.LBE1307:
 1476              	.LBE1306:
 1477              	.LBB1311:
 1478              	.LBB1312:
 1479              	.LBB1313:
 1480              	.LBB1314:
 1481              		.loc 4 179 0
 1482 0130 3F4B     		ldr	r3, .L74+12
 1483              	.LBE1314:
 1484              	.LBE1313:
 1485              	.LBE1312:
 1486              	.LBE1311:
 1487              		.loc 1 206 0
 1488 0132 3868     		ldr	r0, [r7]
 1489              	.LBB1316:
 1490              	.LBB1315:
 1491              		.loc 4 192 0
 1492 0134 9A69     		ldr	r2, [r3, #24]
 1493              	.LBE1315:
 1494              	.LBE1316:
 1495              		.loc 1 206 0
 1496 0136 3F4B     		ldr	r3, .L74+16
 1497 0138 9268     		ldr	r2, [r2, #8]
 1498 013a CDF80090 		str	r9, [sp]
 1499 013e 0132     		adds	r2, r2, #1
 1500 0140 4FF4A471 		mov	r1, #328
 1501 0144 FFF7FEFF 		bl	chThdCreateStatic
 1502              	.LVL127:
 1503 0148 3B4B     		ldr	r3, .L74+20
 1504 014a 1860     		str	r0, [r3]
 1505              	.LVL128:
 1506              	.LBB1317:
 1507              	.LBB1318:
 1508              	.LBB1319:
 1509              	.LBB1320:
 1510              		.loc 2 546 0
 1511              	@ 546 "../../../os/ext/CMSIS/include/core_cmFunc.h" 1
 1512 014c 86F31188 		MSR basepri, r6
 1513              	@ 0 "" 2
 1514              	.LVL129:
 1515              		.thumb
 1516              	.LBE1320:
 1517              	.LBE1319:
 1518              	.LBE1318:
 1519              	.LBE1317:
 1520              	.LBB1321:
 1521              	.LBB1322:
 1522              		.loc 3 354 0
 1523 0150 E968     		ldr	r1, [r5, #12]
 1524 0152 2B69     		ldr	r3, [r5, #16]
 1525 0154 AA68     		ldr	r2, [r5, #8]
 1526 0156 5B1A     		subs	r3, r3, r1
 1527 0158 991A     		subs	r1, r3, r2
 1528              	.LBE1322:
 1529              	.LBE1321:
 1530              		.loc 1 207 0
ARM GAS  C:\cygwin\tmp\ccONsRSx.s 			page 28


 1531 015a A1F10401 		sub	r1, #4
 1532 015e 0820     		movs	r0, #8
 1533 0160 B1FA81F1 		clz	r1, r1
 1534 0164 4909     		lsrs	r1, r1, #5
 1535 0166 FFF7FEFF 		bl	_test_assert
 1536              	.LVL130:
 1537 016a 0746     		mov	r7, r0
 1538 016c 10B1     		cbz	r0, .L62
 1539              	.LVL131:
 1540              	.LBB1323:
 1541              	.LBB1324:
 1542              	.LBB1325:
 1543              	.LBB1326:
 1544              	.LBB1327:
 1545              		.loc 2 546 0
 1546              	@ 546 "../../../os/ext/CMSIS/include/core_cmFunc.h" 1
 1547 016e 89F31188 		MSR basepri, r9
 1548              	@ 0 "" 2
 1549              		.thumb
 1550 0172 90E7     		b	.L49
 1551              	.LVL132:
 1552              	.L62:
 1553              	.LBE1327:
 1554              	.LBE1326:
 1555              	.LBE1325:
 1556              	.LBE1324:
 1557              	.LBE1323:
 1558              	.LBB1328:
 1559              	.LBB1329:
 1560              	.LBB1330:
 1561              	.LBB1331:
 1562              	.LBB1332:
 1563              	@ 546 "../../../os/ext/CMSIS/include/core_cmFunc.h" 1
 1564 0174 80F31188 		MSR basepri, r0
 1565              	@ 0 "" 2
 1566              		.thumb
 1567              	.LBE1332:
 1568              	.LBE1331:
 1569              	.LBE1330:
 1570              	.LBE1329:
 1571              	.LBE1328:
 1572              		.loc 1 208 0
 1573 0178 FFF7FEFF 		bl	test_wait_threads
 1574              	.LVL133:
 1575              	.LBB1333:
 1576              	.LBB1334:
 1577              	.LBB1335:
 1578              	.LBB1336:
 1579              		.loc 2 546 0
 1580              	@ 546 "../../../os/ext/CMSIS/include/core_cmFunc.h" 1
 1581 017c 86F31188 		MSR basepri, r6
 1582              	@ 0 "" 2
 1583              		.thumb
 1584              	.LBE1336:
 1585              	.LBE1335:
 1586              	.LBE1334:
 1587              	.LBE1333:
ARM GAS  C:\cygwin\tmp\ccONsRSx.s 			page 29


 1588              		.loc 1 212 0
 1589 0180 2846     		mov	r0, r5
 1590 0182 FFF7FEFF 		bl	chOQResetI
 1591              	.LVL134:
 1592              	.LBB1337:
 1593              	.LBB1338:
 1594              	.LBB1339:
 1595              	.LBB1340:
 1596              	.LBB1341:
 1597              		.loc 2 546 0
 1598              	@ 546 "../../../os/ext/CMSIS/include/core_cmFunc.h" 1
 1599 0186 87F31188 		MSR basepri, r7
 1600              	@ 0 "" 2
 1601              	.LVL135:
 1602              		.thumb
 1603              	.LBE1341:
 1604              	.LBE1340:
 1605              	.LBE1339:
 1606              	.LBE1338:
 1607              	.LBE1337:
 1608              	.LBB1342:
 1609              	.LBB1343:
 1610              	.LBB1344:
 1611              	.LBB1345:
 1612              	@ 546 "../../../os/ext/CMSIS/include/core_cmFunc.h" 1
 1613 018a 86F31188 		MSR basepri, r6
 1614              	@ 0 "" 2
 1615              	.LVL136:
 1616              		.thumb
 1617              	.LBE1345:
 1618              	.LBE1344:
 1619              	.LBE1343:
 1620              	.LBE1342:
 1621              		.loc 1 214 0
 1622 018e 05F10801 		add	r1, r5, #8
 1623 0192 0EC9     		ldmia	r1, {r1, r2, r3}
 1624              	.LBB1346:
 1625              	.LBB1347:
 1626              		.loc 3 354 0
 1627 0194 9B1A     		subs	r3, r3, r2
 1628              	.LBE1347:
 1629              	.LBE1346:
 1630              		.loc 1 214 0
 1631 0196 591A     		subs	r1, r3, r1
 1632 0198 0920     		movs	r0, #9
 1633 019a B1FA81F1 		clz	r1, r1
 1634 019e 4909     		lsrs	r1, r1, #5
 1635 01a0 FFF7FEFF 		bl	_test_assert
 1636              	.LVL137:
 1637 01a4 0346     		mov	r3, r0
 1638 01a6 10B1     		cbz	r0, .L63
 1639              	.LVL138:
 1640              	.LBB1348:
 1641              	.LBB1349:
 1642              	.LBB1350:
 1643              	.LBB1351:
 1644              	.LBB1352:
ARM GAS  C:\cygwin\tmp\ccONsRSx.s 			page 30


 1645              		.loc 2 546 0
 1646              	@ 546 "../../../os/ext/CMSIS/include/core_cmFunc.h" 1
 1647 01a8 87F31188 		MSR basepri, r7
 1648              	@ 0 "" 2
 1649              		.thumb
 1650 01ac 73E7     		b	.L49
 1651              	.LVL139:
 1652              	.L63:
 1653              	.LBE1352:
 1654              	.LBE1351:
 1655              	.LBE1350:
 1656              	.LBE1349:
 1657              	.LBE1348:
 1658              	.LBB1353:
 1659              	.LBB1354:
 1660              	.LBB1355:
 1661              	.LBB1356:
 1662              	.LBB1357:
 1663              	@ 546 "../../../os/ext/CMSIS/include/core_cmFunc.h" 1
 1664 01ae 80F31188 		MSR basepri, r0
 1665              	@ 0 "" 2
 1666              		.thumb
 1667              	.LBE1357:
 1668              	.LBE1356:
 1669              	.LBE1355:
 1670              	.LBE1354:
 1671              	.LBE1353:
 1672              		.loc 1 217 0
 1673 01b2 0222     		movs	r2, #2
 1674 01b4 2146     		mov	r1, r4
 1675 01b6 2846     		mov	r0, r5
 1676 01b8 FFF7FEFF 		bl	chOQWriteTimeout
 1677              	.LVL140:
 1678              		.loc 1 218 0
 1679 01bc 0238     		subs	r0, r0, #2
 1680              	.LVL141:
 1681 01be 4142     		rsbs	r1, r0, #0
 1682 01c0 4141     		adcs	r1, r1, r0
 1683 01c2 0A20     		movs	r0, #10
 1684              	.LVL142:
 1685 01c4 FFF7FEFF 		bl	_test_assert
 1686              	.LVL143:
 1687 01c8 0346     		mov	r3, r0
 1688 01ca 0028     		cmp	r0, #0
 1689 01cc 7FF463AF 		bne	.L49
 1690              		.loc 1 219 0
 1691 01d0 2146     		mov	r1, r4
 1692 01d2 0222     		movs	r2, #2
 1693 01d4 2846     		mov	r0, r5
 1694 01d6 FFF7FEFF 		bl	chOQWriteTimeout
 1695              	.LVL144:
 1696              		.loc 1 220 0
 1697 01da 821E     		subs	r2, r0, #2
 1698 01dc 5142     		rsbs	r1, r2, #0
 1699 01de 5141     		adcs	r1, r1, r2
 1700 01e0 0B20     		movs	r0, #11
 1701              	.LVL145:
ARM GAS  C:\cygwin\tmp\ccONsRSx.s 			page 31


 1702 01e2 FFF7FEFF 		bl	_test_assert
 1703              	.LVL146:
 1704 01e6 0028     		cmp	r0, #0
 1705 01e8 7FF455AF 		bne	.L49
 1706              	.LVL147:
 1707              	.LBB1358:
 1708              	.LBB1359:
 1709              	.LBB1360:
 1710              	.LBB1361:
 1711              		.loc 2 546 0
 1712              	@ 546 "../../../os/ext/CMSIS/include/core_cmFunc.h" 1
 1713 01ec 86F31188 		MSR basepri, r6
 1714              	@ 0 "" 2
 1715              	.LVL148:
 1716              		.thumb
 1717              	.LBE1361:
 1718              	.LBE1360:
 1719              	.LBE1359:
 1720              	.LBE1358:
 1721              		.loc 1 221 0
 1722 01f0 0C20     		movs	r0, #12
 1723              	.LBB1362:
 1724              	.LBB1363:
 1725              		.loc 3 404 0
 1726 01f2 A968     		ldr	r1, [r5, #8]
 1727              	.LBE1363:
 1728              	.LBE1362:
 1729              		.loc 1 221 0
 1730 01f4 B1FA81F1 		clz	r1, r1
 1731 01f8 4909     		lsrs	r1, r1, #5
 1732 01fa FFF7FEFF 		bl	_test_assert
 1733              	.LVL149:
 1734 01fe 0028     		cmp	r0, #0
 1735 0200 7FF446AF 		bne	.L70
 1736              	.LVL150:
 1737              	.LBB1364:
 1738              	.LBB1365:
 1739              	.LBB1366:
 1740              	.LBB1367:
 1741              	.LBB1368:
 1742              		.loc 2 546 0
 1743 0204 0021     		movs	r1, #0
 1744              	@ 546 "../../../os/ext/CMSIS/include/core_cmFunc.h" 1
 1745 0206 81F31188 		MSR basepri, r1
 1746              	@ 0 "" 2
 1747              		.thumb
 1748              	.LBE1368:
 1749              	.LBE1367:
 1750              	.LBE1366:
 1751              	.LBE1365:
 1752              	.LBE1364:
 1753              		.loc 1 224 0
 1754 020a 0A22     		movs	r2, #10
 1755 020c 0548     		ldr	r0, .L74
 1756 020e FFF7FEFF 		bl	chOQPutTimeout
 1757              	.LVL151:
 1758 0212 431C     		adds	r3, r0, #1
ARM GAS  C:\cygwin\tmp\ccONsRSx.s 			page 32


 1759 0214 5942     		rsbs	r1, r3, #0
 1760 0216 5941     		adcs	r1, r1, r3
 1761 0218 0D20     		movs	r0, #13
 1762              	.LBE1370:
 1763              	.LBE1374:
 1764              		.loc 1 225 0
 1765 021a 03B0     		add	sp, sp, #12
 1766              		.cfi_def_cfa_offset 28
 1767              		@ sp needed
 1768 021c BDE8F043 		pop	{r4, r5, r6, r7, r8, r9, lr}
 1769              		.cfi_restore 14
 1770              		.cfi_restore 9
 1771              		.cfi_restore 8
 1772              		.cfi_restore 7
 1773              		.cfi_restore 6
 1774              		.cfi_restore 5
 1775              		.cfi_restore 4
 1776              		.cfi_def_cfa_offset 0
 1777              	.LBB1375:
 1778              	.LBB1371:
 1779              		.loc 1 224 0
 1780 0220 FFF7FEBF 		b	_test_assert
 1781              	.LVL152:
 1782              	.L75:
 1783              		.align	2
 1784              	.L74:
 1785 0224 00000000 		.word	.LANCHOR1
 1786 0228 00000000 		.word	.LC0
 1787 022c 00000000 		.word	wa
 1788 0230 00000000 		.word	ch
 1789 0234 00000000 		.word	thread2
 1790 0238 00000000 		.word	threads
 1791              	.LBE1371:
 1792              	.LBE1375:
 1793              		.cfi_endproc
 1794              	.LFE232:
 1795              		.size	queues2_execute, .-queues2_execute
 1796              		.global	patternqueues
 1797              		.global	testqueues2
 1798              		.global	testqueues1
 1799 023c AFF30080 		.section	.rodata.testqueues1,"a",%progbits
 1800              		.align	2
 1801              		.type	testqueues1, %object
 1802              		.size	testqueues1, 16
 1803              	testqueues1:
 1804 0000 20000000 		.word	.LC2
 1805 0004 00000000 		.word	queues1_setup
 1806 0008 00000000 		.word	0
 1807 000c 00000000 		.word	queues1_execute
 1808              		.section	.rodata.testqueues2,"a",%progbits
 1809              		.align	2
 1810              		.type	testqueues2, %object
 1811              		.size	testqueues2, 16
 1812              	testqueues2:
 1813 0000 08000000 		.word	.LC1
 1814 0004 00000000 		.word	queues2_setup
 1815 0008 00000000 		.word	0
ARM GAS  C:\cygwin\tmp\ccONsRSx.s 			page 33


 1816 000c 00000000 		.word	queues2_execute
 1817              		.section	.rodata.str1.4,"aMS",%progbits,1
 1818              		.align	2
 1819              	.LC0:
 1820 0000 41424344 		.ascii	"ABCD\000"
 1820      00
 1821 0005 000000   		.space	3
 1822              	.LC1:
 1823 0008 51756575 		.ascii	"Queues, output queues\000"
 1823      65732C20 
 1823      6F757470 
 1823      75742071 
 1823      75657565 
 1824 001e 0000     		.space	2
 1825              	.LC2:
 1826 0020 51756575 		.ascii	"Queues, input queues\000"
 1826      65732C20 
 1826      696E7075 
 1826      74207175 
 1826      65756573 
 1827 0035 000000   		.section	.rodata.patternqueues,"a",%progbits
 1828              		.align	2
 1829              		.type	patternqueues, %object
 1830              		.size	patternqueues, 12
 1831              	patternqueues:
 1832 0000 00000000 		.word	testqueues1
 1833 0004 00000000 		.word	testqueues2
 1834 0008 00000000 		.word	0
 1835              		.section	.data.oq,"aw",%progbits
 1836              		.align	2
 1837              		.set	.LANCHOR1,. + 0
 1838              		.type	oq, %object
 1839              		.size	oq, 36
 1840              	oq:
 1841 0000 00000000 		.word	oq
 1842 0004 00000000 		.word	oq
 1843 0008 04000000 		.word	4
 1844 000c 48010000 		.word	test+328
 1845 0010 4C010000 		.word	test+332
 1846 0014 48010000 		.word	test+328
 1847 0018 48010000 		.word	test+328
 1848 001c 00000000 		.word	notify
 1849 0020 00000000 		.word	0
 1850              		.section	.data.iq,"aw",%progbits
 1851              		.align	2
 1852              		.set	.LANCHOR0,. + 0
 1853              		.type	iq, %object
 1854              		.size	iq, 36
 1855              	iq:
 1856 0000 00000000 		.word	iq
 1857 0004 00000000 		.word	iq
 1858 0008 00000000 		.word	0
 1859 000c 00000000 		.word	test
 1860 0010 04000000 		.word	test+4
 1861 0014 00000000 		.word	test
 1862 0018 00000000 		.word	test
 1863 001c 00000000 		.word	notify
ARM GAS  C:\cygwin\tmp\ccONsRSx.s 			page 34


 1864 0020 00000000 		.word	0
 1865              		.text
 1866              	.Letext0:
 1867              		.file 5 "c:\\program files\\gnu tools arm embedded\\4.9 2014q4\\lib\\gcc\\arm-none-eabi\\4.9.3\\in
 1868              		.file 6 "c:\\program files\\gnu tools arm embedded\\4.9 2014q4\\arm-none-eabi\\include\\machine\\_
 1869              		.file 7 "c:\\program files\\gnu tools arm embedded\\4.9 2014q4\\arm-none-eabi\\include\\stdint.h"
 1870              		.file 8 "../../../os/rt/ports/ARMCMx/compilers/GCC/chtypes.h"
 1871              		.file 9 "../../../os/rt/include/chsystypes.h"
 1872              		.file 10 "../../../os/rt/include/chschd.h"
 1873              		.file 11 "../../../os/rt/ports/ARMCMx/chcore.h"
 1874              		.file 12 "../../../os/rt/ports/ARMCMx/chcore_v7m.h"
 1875              		.file 13 "../../../os/rt/include/chtm.h"
 1876              		.file 14 "../../../os/rt/include/chmtx.h"
 1877              		.file 15 "../../../test/rt/test.h"
 1878              		.file 16 "../../../os/rt/include/chsys.h"
 1879              		.file 17 "../../../os/ext/CMSIS/include/core_cm4.h"