ARM GAS  C:\cygwin\tmp\ccrVDLoN.s 			page 1


   1              		.syntax unified
   2              		.cpu cortex-m4
   3              		.fpu softvfp
   4              		.eabi_attribute 20, 1
   5              		.eabi_attribute 21, 1
   6              		.eabi_attribute 23, 3
   7              		.eabi_attribute 24, 1
   8              		.eabi_attribute 25, 1
   9              		.eabi_attribute 26, 1
  10              		.eabi_attribute 30, 2
  11              		.eabi_attribute 34, 1
  12              		.eabi_attribute 18, 4
  13              		.thumb
  14              		.file	"testthd.c"
  15              		.text
  16              	.Ltext0:
  17              		.cfi_sections	.debug_frame
  18              		.section	.text.thd1_execute,"ax",%progbits
  19              		.align	2
  20              		.p2align 4,,15
  21              		.thumb
  22              		.thumb_func
  23              		.type	thd1_execute, %function
  24              	thd1_execute:
  25              	.LFB227:
  26              		.file 1 "../../../test/rt/testthd.c"
  27              		.loc 1 66 0
  28              		.cfi_startproc
  29              		@ args = 0, pretend = 0, frame = 0
  30              		@ frame_needed = 0, uses_anonymous_args = 0
  31 0000 F0B5     		push	{r4, r5, r6, r7, lr}
  32              		.cfi_def_cfa_offset 20
  33              		.cfi_offset 4, -20
  34              		.cfi_offset 5, -16
  35              		.cfi_offset 6, -12
  36              		.cfi_offset 7, -8
  37              		.cfi_offset 14, -4
  38              	.LBB257:
  39              	.LBB258:
  40              	.LBB259:
  41              	.LBB260:
  42              		.file 2 "../../../os/rt/include/chthreads.h"
  43              		.loc 2 179 0
  44 0002 274F     		ldr	r7, .L3
  45              	.LBE260:
  46              	.LBE259:
  47              	.LBE258:
  48              	.LBE257:
  49              		.loc 1 68 0
  50 0004 274E     		ldr	r6, .L3+4
  51              	.LBB262:
  52              	.LBB261:
  53              		.loc 2 192 0
  54 0006 BB69     		ldr	r3, [r7, #24]
  55              	.LBE261:
  56              	.LBE262:
  57              		.loc 1 68 0
ARM GAS  C:\cygwin\tmp\ccrVDLoN.s 			page 2


  58 0008 274D     		ldr	r5, .L3+8
  59 000a 9A68     		ldr	r2, [r3, #8]
  60 000c 274B     		ldr	r3, .L3+12
  61 000e 3068     		ldr	r0, [r6]
  62 0010 274C     		ldr	r4, .L3+16
  63              		.loc 1 66 0
  64 0012 83B0     		sub	sp, sp, #12
  65              		.cfi_def_cfa_offset 32
  66              		.loc 1 68 0
  67 0014 053A     		subs	r2, r2, #5
  68 0016 0093     		str	r3, [sp]
  69 0018 4FF4A471 		mov	r1, #328
  70 001c 2B46     		mov	r3, r5
  71 001e FFF7FEFF 		bl	chThdCreateStatic
  72              	.LVL0:
  73              	.LBB263:
  74              	.LBB264:
  75              		.loc 2 192 0
  76 0022 BB69     		ldr	r3, [r7, #24]
  77              	.LBE264:
  78              	.LBE263:
  79              		.loc 1 69 0
  80 0024 2349     		ldr	r1, .L3+20
  81 0026 9A68     		ldr	r2, [r3, #8]
  82 0028 7368     		ldr	r3, [r6, #4]
  83              		.loc 1 68 0
  84 002a 2060     		str	r0, [r4]
  85              		.loc 1 69 0
  86 002c 0091     		str	r1, [sp]
  87 002e 043A     		subs	r2, r2, #4
  88 0030 1846     		mov	r0, r3
  89 0032 4FF4A471 		mov	r1, #328
  90 0036 2B46     		mov	r3, r5
  91 0038 FFF7FEFF 		bl	chThdCreateStatic
  92              	.LVL1:
  93              	.LBB265:
  94              	.LBB266:
  95              		.loc 2 192 0
  96 003c BA69     		ldr	r2, [r7, #24]
  97              	.LBE266:
  98              	.LBE265:
  99              		.loc 1 70 0
 100 003e B368     		ldr	r3, [r6, #8]
 101 0040 9268     		ldr	r2, [r2, #8]
 102 0042 1D49     		ldr	r1, .L3+24
 103              		.loc 1 69 0
 104 0044 6060     		str	r0, [r4, #4]
 105              		.loc 1 70 0
 106 0046 0091     		str	r1, [sp]
 107 0048 033A     		subs	r2, r2, #3
 108 004a 1846     		mov	r0, r3
 109 004c 4FF4A471 		mov	r1, #328
 110 0050 2B46     		mov	r3, r5
 111 0052 FFF7FEFF 		bl	chThdCreateStatic
 112              	.LVL2:
 113              	.LBB267:
 114              	.LBB268:
ARM GAS  C:\cygwin\tmp\ccrVDLoN.s 			page 3


 115              		.loc 2 192 0
 116 0056 BA69     		ldr	r2, [r7, #24]
 117              	.LBE268:
 118              	.LBE267:
 119              		.loc 1 71 0
 120 0058 F368     		ldr	r3, [r6, #12]
 121 005a 9268     		ldr	r2, [r2, #8]
 122 005c 1749     		ldr	r1, .L3+28
 123              		.loc 1 70 0
 124 005e A060     		str	r0, [r4, #8]
 125              		.loc 1 71 0
 126 0060 0091     		str	r1, [sp]
 127 0062 023A     		subs	r2, r2, #2
 128 0064 1846     		mov	r0, r3
 129 0066 4FF4A471 		mov	r1, #328
 130 006a 2B46     		mov	r3, r5
 131 006c FFF7FEFF 		bl	chThdCreateStatic
 132              	.LVL3:
 133              	.LBB269:
 134              	.LBB270:
 135              		.loc 2 192 0
 136 0070 BA69     		ldr	r2, [r7, #24]
 137              	.LBE270:
 138              	.LBE269:
 139              		.loc 1 72 0
 140 0072 3369     		ldr	r3, [r6, #16]
 141 0074 9268     		ldr	r2, [r2, #8]
 142 0076 1249     		ldr	r1, .L3+32
 143              		.loc 1 71 0
 144 0078 E060     		str	r0, [r4, #12]
 145              		.loc 1 72 0
 146 007a 013A     		subs	r2, r2, #1
 147 007c 0091     		str	r1, [sp]
 148 007e 1846     		mov	r0, r3
 149 0080 4FF4A471 		mov	r1, #328
 150 0084 2B46     		mov	r3, r5
 151 0086 FFF7FEFF 		bl	chThdCreateStatic
 152              	.LVL4:
 153 008a 2061     		str	r0, [r4, #16]
 154              		.loc 1 73 0
 155 008c FFF7FEFF 		bl	test_wait_threads
 156              	.LVL5:
 157              		.loc 1 74 0
 158 0090 0C49     		ldr	r1, .L3+36
 159 0092 0120     		movs	r0, #1
 160              		.loc 1 75 0
 161 0094 03B0     		add	sp, sp, #12
 162              		.cfi_def_cfa_offset 20
 163              		@ sp needed
 164 0096 BDE8F040 		pop	{r4, r5, r6, r7, lr}
 165              		.cfi_restore 14
 166              		.cfi_restore 7
 167              		.cfi_restore 6
 168              		.cfi_restore 5
 169              		.cfi_restore 4
 170              		.cfi_def_cfa_offset 0
 171              		.loc 1 74 0
ARM GAS  C:\cygwin\tmp\ccrVDLoN.s 			page 4


 172 009a FFF7FEBF 		b	_test_assert_sequence
 173              	.LVL6:
 174              	.L4:
 175 009e 00BF     		.align	2
 176              	.L3:
 177 00a0 00000000 		.word	ch
 178 00a4 00000000 		.word	wa
 179 00a8 00000000 		.word	thread
 180 00ac 00000000 		.word	.LC0
 181 00b0 00000000 		.word	threads
 182 00b4 04000000 		.word	.LC1
 183 00b8 08000000 		.word	.LC2
 184 00bc 0C000000 		.word	.LC3
 185 00c0 10000000 		.word	.LC4
 186 00c4 14000000 		.word	.LC5
 187              		.cfi_endproc
 188              	.LFE227:
 189              		.size	thd1_execute, .-thd1_execute
 190 00c8 AFF30080 		.section	.text.thread,"ax",%progbits
 190      AFF30080 
 191              		.align	2
 192              		.p2align 4,,15
 193              		.thumb
 194              		.thumb_func
 195              		.type	thread, %function
 196              	thread:
 197              	.LFB226:
 198              		.loc 1 60 0
 199              		.cfi_startproc
 200              		@ args = 0, pretend = 0, frame = 0
 201              		@ frame_needed = 0, uses_anonymous_args = 0
 202              	.LVL7:
 203 0000 08B5     		push	{r3, lr}
 204              		.cfi_def_cfa_offset 8
 205              		.cfi_offset 3, -8
 206              		.cfi_offset 14, -4
 207              		.loc 1 62 0
 208 0002 0078     		ldrb	r0, [r0]	@ zero_extendqisi2
 209              	.LVL8:
 210 0004 FFF7FEFF 		bl	test_emit_token
 211              	.LVL9:
 212              		.loc 1 64 0
 213 0008 0020     		movs	r0, #0
 214 000a 08BD     		pop	{r3, pc}
 215              		.cfi_endproc
 216              	.LFE226:
 217              		.size	thread, .-thread
 218 000c AFF30080 		.section	.text.thd2_execute,"ax",%progbits
 219              		.align	2
 220              		.p2align 4,,15
 221              		.thumb
 222              		.thumb_func
 223              		.type	thd2_execute, %function
 224              	thd2_execute:
 225              	.LFB228:
 226              		.loc 1 94 0
 227              		.cfi_startproc
ARM GAS  C:\cygwin\tmp\ccrVDLoN.s 			page 5


 228              		@ args = 0, pretend = 0, frame = 0
 229              		@ frame_needed = 0, uses_anonymous_args = 0
 230 0000 F0B5     		push	{r4, r5, r6, r7, lr}
 231              		.cfi_def_cfa_offset 20
 232              		.cfi_offset 4, -20
 233              		.cfi_offset 5, -16
 234              		.cfi_offset 6, -12
 235              		.cfi_offset 7, -8
 236              		.cfi_offset 14, -4
 237              	.LBB271:
 238              	.LBB272:
 239              	.LBB273:
 240              	.LBB274:
 241              		.loc 2 179 0
 242 0002 2B4F     		ldr	r7, .L9
 243              	.LBE274:
 244              	.LBE273:
 245              	.LBE272:
 246              	.LBE271:
 247              		.loc 1 96 0
 248 0004 2B4E     		ldr	r6, .L9+4
 249              	.LBB276:
 250              	.LBB275:
 251              		.loc 2 192 0
 252 0006 BB69     		ldr	r3, [r7, #24]
 253              	.LBE275:
 254              	.LBE276:
 255              		.loc 1 96 0
 256 0008 2B4D     		ldr	r5, .L9+8
 257 000a 9A68     		ldr	r2, [r3, #8]
 258 000c 2B4B     		ldr	r3, .L9+12
 259 000e 7068     		ldr	r0, [r6, #4]
 260 0010 2B4C     		ldr	r4, .L9+16
 261              		.loc 1 94 0
 262 0012 83B0     		sub	sp, sp, #12
 263              		.cfi_def_cfa_offset 32
 264              		.loc 1 96 0
 265 0014 043A     		subs	r2, r2, #4
 266 0016 0093     		str	r3, [sp]
 267 0018 4FF4A471 		mov	r1, #328
 268 001c 2B46     		mov	r3, r5
 269 001e FFF7FEFF 		bl	chThdCreateStatic
 270              	.LVL10:
 271              	.LBB277:
 272              	.LBB278:
 273              		.loc 2 192 0
 274 0022 BB69     		ldr	r3, [r7, #24]
 275              	.LBE278:
 276              	.LBE277:
 277              		.loc 1 97 0
 278 0024 2749     		ldr	r1, .L9+20
 279 0026 9A68     		ldr	r2, [r3, #8]
 280 0028 3368     		ldr	r3, [r6]
 281              		.loc 1 96 0
 282 002a 6060     		str	r0, [r4, #4]
 283              		.loc 1 97 0
 284 002c 0091     		str	r1, [sp]
ARM GAS  C:\cygwin\tmp\ccrVDLoN.s 			page 6


 285 002e 053A     		subs	r2, r2, #5
 286 0030 1846     		mov	r0, r3
 287 0032 4FF4A471 		mov	r1, #328
 288 0036 2B46     		mov	r3, r5
 289 0038 FFF7FEFF 		bl	chThdCreateStatic
 290              	.LVL11:
 291              	.LBB279:
 292              	.LBB280:
 293              		.loc 2 192 0
 294 003c BA69     		ldr	r2, [r7, #24]
 295              	.LBE280:
 296              	.LBE279:
 297              		.loc 1 98 0
 298 003e 3369     		ldr	r3, [r6, #16]
 299 0040 9268     		ldr	r2, [r2, #8]
 300 0042 2149     		ldr	r1, .L9+24
 301              		.loc 1 97 0
 302 0044 2060     		str	r0, [r4]
 303              		.loc 1 98 0
 304 0046 0091     		str	r1, [sp]
 305 0048 013A     		subs	r2, r2, #1
 306 004a 1846     		mov	r0, r3
 307 004c 4FF4A471 		mov	r1, #328
 308 0050 2B46     		mov	r3, r5
 309 0052 FFF7FEFF 		bl	chThdCreateStatic
 310              	.LVL12:
 311              	.LBB281:
 312              	.LBB282:
 313              		.loc 2 192 0
 314 0056 BA69     		ldr	r2, [r7, #24]
 315              	.LBE282:
 316              	.LBE281:
 317              		.loc 1 99 0
 318 0058 F368     		ldr	r3, [r6, #12]
 319 005a 9268     		ldr	r2, [r2, #8]
 320 005c 1B49     		ldr	r1, .L9+28
 321              		.loc 1 98 0
 322 005e 2061     		str	r0, [r4, #16]
 323              		.loc 1 99 0
 324 0060 0091     		str	r1, [sp]
 325 0062 023A     		subs	r2, r2, #2
 326 0064 1846     		mov	r0, r3
 327 0066 4FF4A471 		mov	r1, #328
 328 006a 2B46     		mov	r3, r5
 329 006c FFF7FEFF 		bl	chThdCreateStatic
 330              	.LVL13:
 331              	.LBB283:
 332              	.LBB284:
 333              	.LBB285:
 334              	.LBB286:
 335              		.file 3 "../../../os/ext/CMSIS/include/core_cmFunc.h"
 336              		.loc 3 546 0
 337 0070 2023     		movs	r3, #32
 338              	.LBE286:
 339              	.LBE285:
 340              	.LBE284:
 341              	.LBE283:
ARM GAS  C:\cygwin\tmp\ccrVDLoN.s 			page 7


 342              		.loc 1 99 0
 343 0072 E060     		str	r0, [r4, #12]
 344              	.LVL14:
 345              	.LBB290:
 346              	.LBB289:
 347              	.LBB288:
 348              	.LBB287:
 349              		.loc 3 546 0
 350              	@ 546 "../../../os/ext/CMSIS/include/core_cmFunc.h" 1
 351 0074 83F31188 		MSR basepri, r3
 352              	@ 0 "" 2
 353              		.thumb
 354              	.LBE287:
 355              	.LBE288:
 356              	.LBE289:
 357              	.LBE290:
 358              	.LBB291:
 359              	.LBB292:
 360              		.loc 2 192 0
 361 0078 BB69     		ldr	r3, [r7, #24]
 362              	.LBE292:
 363              	.LBE291:
 364              		.loc 1 102 0
 365 007a B068     		ldr	r0, [r6, #8]
 366 007c 9A68     		ldr	r2, [r3, #8]
 367 007e 144B     		ldr	r3, .L9+32
 368 0080 0093     		str	r3, [sp]
 369 0082 033A     		subs	r2, r2, #3
 370 0084 2B46     		mov	r3, r5
 371 0086 4FF4A471 		mov	r1, #328
 372 008a FFF7FEFF 		bl	chThdCreateI
 373              	.LVL15:
 374              	.LBB293:
 375              	.LBB294:
 376              	.LBB295:
 377              	.LBB296:
 378              	.LBB297:
 379              		.loc 3 546 0
 380 008e 0023     		movs	r3, #0
 381              	.LBE297:
 382              	.LBE296:
 383              	.LBE295:
 384              	.LBE294:
 385              	.LBE293:
 386              		.loc 1 102 0
 387 0090 A060     		str	r0, [r4, #8]
 388              	.LVL16:
 389              	.LBB302:
 390              	.LBB301:
 391              	.LBB300:
 392              	.LBB299:
 393              	.LBB298:
 394              		.loc 3 546 0
 395              	@ 546 "../../../os/ext/CMSIS/include/core_cmFunc.h" 1
 396 0092 83F31188 		MSR basepri, r3
 397              	@ 0 "" 2
 398              		.thumb
ARM GAS  C:\cygwin\tmp\ccrVDLoN.s 			page 8


 399              	.LBE298:
 400              	.LBE299:
 401              	.LBE300:
 402              	.LBE301:
 403              	.LBE302:
 404              		.loc 1 104 0
 405 0096 A068     		ldr	r0, [r4, #8]
 406 0098 FFF7FEFF 		bl	chThdStart
 407              	.LVL17:
 408              		.loc 1 105 0
 409 009c FFF7FEFF 		bl	test_wait_threads
 410              	.LVL18:
 411              		.loc 1 106 0
 412 00a0 0C49     		ldr	r1, .L9+36
 413 00a2 0120     		movs	r0, #1
 414              		.loc 1 107 0
 415 00a4 03B0     		add	sp, sp, #12
 416              		.cfi_def_cfa_offset 20
 417              		@ sp needed
 418 00a6 BDE8F040 		pop	{r4, r5, r6, r7, lr}
 419              		.cfi_restore 14
 420              		.cfi_restore 7
 421              		.cfi_restore 6
 422              		.cfi_restore 5
 423              		.cfi_restore 4
 424              		.cfi_def_cfa_offset 0
 425              		.loc 1 106 0
 426 00aa FFF7FEBF 		b	_test_assert_sequence
 427              	.LVL19:
 428              	.L10:
 429 00ae 00BF     		.align	2
 430              	.L9:
 431 00b0 00000000 		.word	ch
 432 00b4 00000000 		.word	wa
 433 00b8 00000000 		.word	thread
 434 00bc 04000000 		.word	.LC1
 435 00c0 00000000 		.word	threads
 436 00c4 00000000 		.word	.LC0
 437 00c8 10000000 		.word	.LC4
 438 00cc 0C000000 		.word	.LC3
 439 00d0 08000000 		.word	.LC2
 440 00d4 14000000 		.word	.LC5
 441              		.cfi_endproc
 442              	.LFE228:
 443              		.size	thd2_execute, .-thd2_execute
 444 00d8 AFF30080 		.section	.text.thd3_execute,"ax",%progbits
 444      AFF30080 
 445              		.align	2
 446              		.p2align 4,,15
 447              		.thumb
 448              		.thumb_func
 449              		.type	thd3_execute, %function
 450              	thd3_execute:
 451              	.LFB229:
 452              		.loc 1 126 0
 453              		.cfi_startproc
 454              		@ args = 0, pretend = 0, frame = 0
ARM GAS  C:\cygwin\tmp\ccrVDLoN.s 			page 9


 455              		@ frame_needed = 0, uses_anonymous_args = 0
 456 0000 F8B5     		push	{r3, r4, r5, r6, r7, lr}
 457              		.cfi_def_cfa_offset 24
 458              		.cfi_offset 3, -24
 459              		.cfi_offset 4, -20
 460              		.cfi_offset 5, -16
 461              		.cfi_offset 6, -12
 462              		.cfi_offset 7, -8
 463              		.cfi_offset 14, -4
 464              	.LBB303:
 465              	.LBB304:
 466              	.LBB305:
 467              	.LBB306:
 468              		.loc 2 179 0
 469 0002 494E     		ldr	r6, .L18
 470              	.LBE306:
 471              	.LBE305:
 472              		.loc 2 192 0
 473 0004 B369     		ldr	r3, [r6, #24]
 474 0006 9C68     		ldr	r4, [r3, #8]
 475              	.LBE304:
 476              	.LBE303:
 477              		.loc 1 130 0
 478 0008 651C     		adds	r5, r4, #1
 479 000a 2846     		mov	r0, r5
 480 000c FFF7FEFF 		bl	chThdSetPriority
 481              	.LVL20:
 482              		.loc 1 131 0
 483 0010 011B     		subs	r1, r0, r4
 484              		.loc 1 130 0
 485 0012 0746     		mov	r7, r0
 486              	.LVL21:
 487              		.loc 1 131 0
 488 0014 B1FA81F1 		clz	r1, r1
 489 0018 0120     		movs	r0, #1
 490              	.LVL22:
 491 001a 4909     		lsrs	r1, r1, #5
 492 001c FFF7FEFF 		bl	_test_assert
 493              	.LVL23:
 494 0020 00B1     		cbz	r0, .L17
 495              	.LVL24:
 496              	.L11:
 497 0022 F8BD     		pop	{r3, r4, r5, r6, r7, pc}
 498              	.LVL25:
 499              	.L17:
 500              	.LBB307:
 501              	.LBB308:
 502              		.loc 2 192 0
 503 0024 B369     		ldr	r3, [r6, #24]
 504              	.LBE308:
 505              	.LBE307:
 506              		.loc 1 133 0
 507 0026 9968     		ldr	r1, [r3, #8]
 508 0028 0220     		movs	r0, #2
 509 002a 691A     		subs	r1, r5, r1
 510 002c B1FA81F1 		clz	r1, r1
 511 0030 4909     		lsrs	r1, r1, #5
ARM GAS  C:\cygwin\tmp\ccrVDLoN.s 			page 10


 512 0032 FFF7FEFF 		bl	_test_assert
 513              	.LVL26:
 514 0036 0028     		cmp	r0, #0
 515 0038 F3D1     		bne	.L11
 516              		.loc 1 135 0
 517 003a 3846     		mov	r0, r7
 518 003c FFF7FEFF 		bl	chThdSetPriority
 519              	.LVL27:
 520              		.loc 1 136 0
 521 0040 291A     		subs	r1, r5, r0
 522 0042 0320     		movs	r0, #3
 523              	.LVL28:
 524 0044 B1FA81F1 		clz	r1, r1
 525 0048 4909     		lsrs	r1, r1, #5
 526 004a FFF7FEFF 		bl	_test_assert
 527              	.LVL29:
 528 004e 0028     		cmp	r0, #0
 529 0050 E7D1     		bne	.L11
 530              	.LBB309:
 531              	.LBB310:
 532              		.loc 2 192 0
 533 0052 B369     		ldr	r3, [r6, #24]
 534              	.LBE310:
 535              	.LBE309:
 536              		.loc 1 138 0
 537 0054 9968     		ldr	r1, [r3, #8]
 538 0056 0420     		movs	r0, #4
 539 0058 611A     		subs	r1, r4, r1
 540 005a B1FA81F1 		clz	r1, r1
 541 005e 4909     		lsrs	r1, r1, #5
 542 0060 FFF7FEFF 		bl	_test_assert
 543              	.LVL30:
 544 0064 0028     		cmp	r0, #0
 545 0066 DCD1     		bne	.L11
 546              	.LVL31:
 547              	.LBB311:
 548              	.LBB312:
 549              	.LBB313:
 550              	.LBB314:
 551              		.loc 3 546 0
 552 0068 2023     		movs	r3, #32
 553              	@ 546 "../../../os/ext/CMSIS/include/core_cmFunc.h" 1
 554 006a 83F31188 		MSR basepri, r3
 555              	@ 0 "" 2
 556              		.thumb
 557              	.LBE314:
 558              	.LBE313:
 559              	.LBE312:
 560              	.LBE311:
 561              	.LBB315:
 562              	.LBB316:
 563              		.loc 2 179 0
 564 006e B269     		ldr	r2, [r6, #24]
 565              	.LBE316:
 566              	.LBE315:
 567              		.loc 1 144 0
 568 0070 9368     		ldr	r3, [r2, #8]
ARM GAS  C:\cygwin\tmp\ccrVDLoN.s 			page 11


 569 0072 0233     		adds	r3, r3, #2
 570 0074 9360     		str	r3, [r2, #8]
 571              	.LVL32:
 572              	.LBB317:
 573              	.LBB318:
 574              	.LBB319:
 575              	.LBB320:
 576              	.LBB321:
 577              		.loc 3 546 0
 578              	@ 546 "../../../os/ext/CMSIS/include/core_cmFunc.h" 1
 579 0076 80F31188 		MSR basepri, r0
 580              	@ 0 "" 2
 581              		.thumb
 582              	.LBE321:
 583              	.LBE320:
 584              	.LBE319:
 585              	.LBE318:
 586              	.LBE317:
 587              	.LBB322:
 588              	.LBB323:
 589              		.loc 2 192 0
 590 007a B369     		ldr	r3, [r6, #24]
 591              	.LBE323:
 592              	.LBE322:
 593              		.loc 1 146 0
 594 007c 9968     		ldr	r1, [r3, #8]
 595 007e A71C     		adds	r7, r4, #2
 596 0080 791A     		subs	r1, r7, r1
 597 0082 0520     		movs	r0, #5
 598 0084 B1FA81F1 		clz	r1, r1
 599 0088 4909     		lsrs	r1, r1, #5
 600 008a FFF7FEFF 		bl	_test_assert
 601              	.LVL33:
 602 008e 0028     		cmp	r0, #0
 603 0090 C7D1     		bne	.L11
 604              		.loc 1 150 0
 605 0092 2846     		mov	r0, r5
 606 0094 FFF7FEFF 		bl	chThdSetPriority
 607              	.LVL34:
 608              		.loc 1 151 0
 609 0098 011B     		subs	r1, r0, r4
 610 009a 0620     		movs	r0, #6
 611              	.LVL35:
 612 009c B1FA81F1 		clz	r1, r1
 613 00a0 4909     		lsrs	r1, r1, #5
 614 00a2 FFF7FEFF 		bl	_test_assert
 615              	.LVL36:
 616 00a6 0028     		cmp	r0, #0
 617 00a8 BBD1     		bne	.L11
 618              		.loc 1 153 0
 619 00aa B369     		ldr	r3, [r6, #24]
 620 00ac 9968     		ldr	r1, [r3, #8]
 621 00ae 0720     		movs	r0, #7
 622 00b0 791A     		subs	r1, r7, r1
 623 00b2 B1FA81F1 		clz	r1, r1
 624 00b6 4909     		lsrs	r1, r1, #5
 625 00b8 FFF7FEFF 		bl	_test_assert
ARM GAS  C:\cygwin\tmp\ccrVDLoN.s 			page 12


 626              	.LVL37:
 627 00bc 0028     		cmp	r0, #0
 628 00be B0D1     		bne	.L11
 629              		.loc 1 155 0
 630 00c0 B369     		ldr	r3, [r6, #24]
 631 00c2 D96B     		ldr	r1, [r3, #60]
 632 00c4 0820     		movs	r0, #8
 633 00c6 691A     		subs	r1, r5, r1
 634 00c8 B1FA81F1 		clz	r1, r1
 635 00cc 4909     		lsrs	r1, r1, #5
 636 00ce FFF7FEFF 		bl	_test_assert
 637              	.LVL38:
 638 00d2 0028     		cmp	r0, #0
 639 00d4 A5D1     		bne	.L11
 640              		.loc 1 159 0
 641 00d6 E71C     		adds	r7, r4, #3
 642 00d8 3846     		mov	r0, r7
 643 00da FFF7FEFF 		bl	chThdSetPriority
 644              	.LVL39:
 645              		.loc 1 160 0
 646 00de 281A     		subs	r0, r5, r0
 647              	.LVL40:
 648 00e0 4142     		rsbs	r1, r0, #0
 649 00e2 4141     		adcs	r1, r1, r0
 650 00e4 0920     		movs	r0, #9
 651 00e6 FFF7FEFF 		bl	_test_assert
 652              	.LVL41:
 653 00ea 0028     		cmp	r0, #0
 654 00ec 99D1     		bne	.L11
 655              		.loc 1 162 0
 656 00ee B369     		ldr	r3, [r6, #24]
 657 00f0 9968     		ldr	r1, [r3, #8]
 658 00f2 7A1A     		subs	r2, r7, r1
 659 00f4 5142     		rsbs	r1, r2, #0
 660 00f6 5141     		adcs	r1, r1, r2
 661 00f8 0A20     		movs	r0, #10
 662 00fa FFF7FEFF 		bl	_test_assert
 663              	.LVL42:
 664 00fe 0028     		cmp	r0, #0
 665 0100 8FD1     		bne	.L11
 666              		.loc 1 164 0
 667 0102 B369     		ldr	r3, [r6, #24]
 668 0104 D96B     		ldr	r1, [r3, #60]
 669 0106 7B1A     		subs	r3, r7, r1
 670 0108 5942     		rsbs	r1, r3, #0
 671 010a 5941     		adcs	r1, r1, r3
 672 010c 0B20     		movs	r0, #11
 673 010e FFF7FEFF 		bl	_test_assert
 674              	.LVL43:
 675 0112 0028     		cmp	r0, #0
 676 0114 85D1     		bne	.L11
 677              	.LVL44:
 678              	.LBB324:
 679              	.LBB325:
 680              	.LBB326:
 681              	.LBB327:
 682              		.loc 3 546 0
ARM GAS  C:\cygwin\tmp\ccrVDLoN.s 			page 13


 683 0116 2023     		movs	r3, #32
 684              	@ 546 "../../../os/ext/CMSIS/include/core_cmFunc.h" 1
 685 0118 83F31188 		MSR basepri, r3
 686              	@ 0 "" 2
 687              		.thumb
 688              	.LBE327:
 689              	.LBE326:
 690              	.LBE325:
 691              	.LBE324:
 692              	.LBB328:
 693              	.LBB329:
 694              		.loc 2 179 0
 695 011c B369     		ldr	r3, [r6, #24]
 696              	.LBE329:
 697              	.LBE328:
 698              		.loc 1 168 0
 699 011e 9C60     		str	r4, [r3, #8]
 700              		.loc 1 169 0
 701 0120 DC63     		str	r4, [r3, #60]
 702              	.LVL45:
 703              	.LBB330:
 704              	.LBB331:
 705              	.LBB332:
 706              	.LBB333:
 707              	.LBB334:
 708              		.loc 3 546 0
 709              	@ 546 "../../../os/ext/CMSIS/include/core_cmFunc.h" 1
 710 0122 80F31188 		MSR basepri, r0
 711              	@ 0 "" 2
 712              		.thumb
 713 0126 7CE7     		b	.L11
 714              	.L19:
 715              		.align	2
 716              	.L18:
 717 0128 00000000 		.word	ch
 718              	.LBE334:
 719              	.LBE333:
 720              	.LBE332:
 721              	.LBE331:
 722              	.LBE330:
 723              		.cfi_endproc
 724              	.LFE229:
 725              		.size	thd3_execute, .-thd3_execute
 726 012c AFF30080 		.section	.text.thd4_execute,"ax",%progbits
 727              		.align	2
 728              		.p2align 4,,15
 729              		.thumb
 730              		.thumb_func
 731              		.type	thd4_execute, %function
 732              	thd4_execute:
 733              	.LFB230:
 734              		.loc 1 189 0
 735              		.cfi_startproc
 736              		@ args = 0, pretend = 0, frame = 0
 737              		@ frame_needed = 0, uses_anonymous_args = 0
 738 0000 70B5     		push	{r4, r5, r6, lr}
 739              		.cfi_def_cfa_offset 16
ARM GAS  C:\cygwin\tmp\ccrVDLoN.s 			page 14


 740              		.cfi_offset 4, -16
 741              		.cfi_offset 5, -12
 742              		.cfi_offset 6, -8
 743              		.cfi_offset 14, -4
 744              		.loc 1 192 0
 745 0002 FFF7FEFF 		bl	test_wait_tick
 746              	.LVL46:
 747              	.LBB427:
 748              	.LBB428:
 749              	.LBB429:
 750              	.LBB430:
 751              	.LBB431:
 752              	.LBB432:
 753              		.loc 3 546 0
 754 0006 2026     		movs	r6, #32
 755              	@ 546 "../../../os/ext/CMSIS/include/core_cmFunc.h" 1
 756 0008 86F31188 		MSR basepri, r6
 757              	@ 0 "" 2
 758              		.thumb
 759              	.LBE432:
 760              	.LBE431:
 761              	.LBE430:
 762              	.LBE429:
 763              	.LBB433:
 764              	.LBB434:
 765              	.LBB435:
 766              	.LBB436:
 767              		.file 4 "../../../os/hal/ports/STM32/LLD/TIMv1/st_lld.h"
 768              		.loc 4 128 0
 769 000c 4FF08045 		mov	r5, #1073741824
 770              	.LBE436:
 771              	.LBE435:
 772              	.LBE434:
 773              	.LBE433:
 774              	.LBB440:
 775              	.LBB441:
 776              	.LBB442:
 777              	.LBB443:
 778              	.LBB444:
 779              		.loc 3 546 0
 780 0010 0023     		movs	r3, #0
 781              	.LBE444:
 782              	.LBE443:
 783              	.LBE442:
 784              	.LBE441:
 785              	.LBE440:
 786              	.LBB449:
 787              	.LBB439:
 788              	.LBB438:
 789              	.LBB437:
 790              		.loc 4 128 0
 791 0012 6C6A     		ldr	r4, [r5, #36]
 792              	.LVL47:
 793              	.LBE437:
 794              	.LBE438:
 795              	.LBE439:
 796              	.LBE449:
ARM GAS  C:\cygwin\tmp\ccrVDLoN.s 			page 15


 797              	.LBB450:
 798              	.LBB448:
 799              	.LBB447:
 800              	.LBB446:
 801              	.LBB445:
 802              		.loc 3 546 0
 803              	@ 546 "../../../os/ext/CMSIS/include/core_cmFunc.h" 1
 804 0014 83F31188 		MSR basepri, r3
 805              	@ 0 "" 2
 806              		.thumb
 807              	.LBE445:
 808              	.LBE446:
 809              	.LBE447:
 810              	.LBE448:
 811              	.LBE450:
 812              	.LBE428:
 813              	.LBE427:
 814              		.loc 1 196 0
 815 0018 4FF47A70 		mov	r0, #1000
 816 001c FFF7FEFF 		bl	chThdSleep
 817              	.LVL48:
 818              		.loc 1 197 0
 819 0020 04F57A71 		add	r1, r4, #1000
 820 0024 04F2EB32 		addw	r2, r4, #1003
 821 0028 0120     		movs	r0, #1
 822 002a FFF7FEFF 		bl	_test_assert_time_window
 823              	.LVL49:
 824 002e 00B1     		cbz	r0, .L25
 825              	.L20:
 826 0030 70BD     		pop	{r4, r5, r6, pc}
 827              	.L25:
 828              	.LVL50:
 829              	.LBB451:
 830              	.LBB452:
 831              	.LBB453:
 832              	.LBB454:
 833              	.LBB455:
 834              	.LBB456:
 835              		.loc 3 546 0
 836              	@ 546 "../../../os/ext/CMSIS/include/core_cmFunc.h" 1
 837 0032 86F31188 		MSR basepri, r6
 838              	@ 0 "" 2
 839              		.thumb
 840              	.LBE456:
 841              	.LBE455:
 842              	.LBE454:
 843              	.LBE453:
 844              	.LBB457:
 845              	.LBB458:
 846              	.LBB459:
 847              	.LBB460:
 848              		.loc 4 128 0
 849 0036 6C6A     		ldr	r4, [r5, #36]
 850              	.LVL51:
 851              	.LBE460:
 852              	.LBE459:
 853              	.LBE458:
ARM GAS  C:\cygwin\tmp\ccrVDLoN.s 			page 16


 854              	.LBE457:
 855              	.LBB461:
 856              	.LBB462:
 857              	.LBB463:
 858              	.LBB464:
 859              	.LBB465:
 860              		.loc 3 546 0
 861              	@ 546 "../../../os/ext/CMSIS/include/core_cmFunc.h" 1
 862 0038 80F31188 		MSR basepri, r0
 863              	@ 0 "" 2
 864              		.thumb
 865              	.LBE465:
 866              	.LBE464:
 867              	.LBE463:
 868              	.LBE462:
 869              	.LBE461:
 870              	.LBE452:
 871              	.LBE451:
 872              		.loc 1 203 0
 873 003c 4FF47A70 		mov	r0, #1000
 874 0040 FFF7FEFF 		bl	chThdSleep
 875              	.LVL52:
 876              		.loc 1 204 0
 877 0044 04F57A71 		add	r1, r4, #1000
 878 0048 04F2EB32 		addw	r2, r4, #1003
 879 004c 0220     		movs	r0, #2
 880 004e FFF7FEFF 		bl	_test_assert_time_window
 881              	.LVL53:
 882 0052 0028     		cmp	r0, #0
 883 0054 ECD1     		bne	.L20
 884              	.LVL54:
 885              	.LBB466:
 886              	.LBB467:
 887              	.LBB468:
 888              	.LBB469:
 889              	.LBB470:
 890              	.LBB471:
 891              	.LBB472:
 892              	.LBB473:
 893              		.loc 3 546 0
 894              	@ 546 "../../../os/ext/CMSIS/include/core_cmFunc.h" 1
 895 0056 86F31188 		MSR basepri, r6
 896              	@ 0 "" 2
 897              		.thumb
 898              	.LBE473:
 899              	.LBE472:
 900              	.LBE471:
 901              	.LBE470:
 902              	.LBB474:
 903              	.LBB475:
 904              	.LBB476:
 905              	.LBB477:
 906              		.loc 4 128 0
 907 005a 6C6A     		ldr	r4, [r5, #36]
 908              	.LVL55:
 909              	.LBE477:
 910              	.LBE476:
ARM GAS  C:\cygwin\tmp\ccrVDLoN.s 			page 17


 911              	.LBE475:
 912              	.LBE474:
 913              	.LBB478:
 914              	.LBB479:
 915              	.LBB480:
 916              	.LBB481:
 917              	.LBB482:
 918              		.loc 3 546 0
 919              	@ 546 "../../../os/ext/CMSIS/include/core_cmFunc.h" 1
 920 005c 80F31188 		MSR basepri, r0
 921              	@ 0 "" 2
 922              		.thumb
 923              	.LBE482:
 924              	.LBE481:
 925              	.LBE480:
 926              	.LBE479:
 927              	.LBE478:
 928              	.LBE469:
 929              	.LBE468:
 930              		.loc 1 210 0
 931 0060 42F21070 		movw	r0, #10000
 932 0064 FFF7FEFF 		bl	chThdSleep
 933              	.LVL56:
 934              		.loc 1 211 0
 935 0068 04F51C51 		add	r1, r4, #9984
 936 006c 0A46     		mov	r2, r1
 937 006e 1332     		adds	r2, r2, #19
 938 0070 1031     		adds	r1, r1, #16
 939 0072 0320     		movs	r0, #3
 940 0074 FFF7FEFF 		bl	_test_assert_time_window
 941              	.LVL57:
 942 0078 0028     		cmp	r0, #0
 943 007a D9D1     		bne	.L20
 944              	.LVL58:
 945              	.LBB483:
 946              	.LBB484:
 947              	.LBB485:
 948              	.LBB486:
 949              	.LBB487:
 950              	.LBB488:
 951              		.loc 3 546 0
 952              	@ 546 "../../../os/ext/CMSIS/include/core_cmFunc.h" 1
 953 007c 86F31188 		MSR basepri, r6
 954              	@ 0 "" 2
 955              		.thumb
 956              	.LBE488:
 957              	.LBE487:
 958              	.LBE486:
 959              	.LBE485:
 960              	.LBB489:
 961              	.LBB490:
 962              	.LBB491:
 963              	.LBB492:
 964              		.loc 4 128 0
 965 0080 6C6A     		ldr	r4, [r5, #36]
 966              	.LVL59:
 967              	.LBE492:
ARM GAS  C:\cygwin\tmp\ccrVDLoN.s 			page 18


 968              	.LBE491:
 969              	.LBE490:
 970              	.LBE489:
 971              	.LBB493:
 972              	.LBB494:
 973              	.LBB495:
 974              	.LBB496:
 975              	.LBB497:
 976              		.loc 3 546 0
 977              	@ 546 "../../../os/ext/CMSIS/include/core_cmFunc.h" 1
 978 0082 80F31188 		MSR basepri, r0
 979              	@ 0 "" 2
 980              		.thumb
 981              	.LBE497:
 982              	.LBE496:
 983              	.LBE495:
 984              	.LBE494:
 985              	.LBE493:
 986              	.LBE484:
 987              	.LBE483:
 988              		.loc 1 216 0
 989 0086 04F57A75 		add	r5, r4, #1000
 990              	.LVL60:
 991              		.loc 1 217 0
 992 008a 2846     		mov	r0, r5
 993 008c FFF7FEFF 		bl	chThdSleepUntil
 994              	.LVL61:
 995              		.loc 1 218 0
 996 0090 2946     		mov	r1, r5
 997 0092 04F2EB32 		addw	r2, r4, #1003
 998 0096 0420     		movs	r0, #4
 999              	.LBE467:
 1000              	.LBE466:
 1001              		.loc 1 221 0
 1002 0098 BDE87040 		pop	{r4, r5, r6, lr}
 1003              		.cfi_restore 14
 1004              		.cfi_restore 6
 1005              		.cfi_restore 5
 1006              		.cfi_restore 4
 1007              		.cfi_def_cfa_offset 0
 1008              	.LVL62:
 1009              	.LBB499:
 1010              	.LBB498:
 1011              		.loc 1 218 0
 1012 009c FFF7FEBF 		b	_test_assert_time_window
 1013              	.LVL63:
 1014              	.LBE498:
 1015              	.LBE499:
 1016              		.cfi_endproc
 1017              	.LFE230:
 1018              		.size	thd4_execute, .-thd4_execute
 1019              		.global	patternthd
 1020              		.global	testthd4
 1021              		.global	testthd3
 1022              		.global	testthd2
 1023              		.global	testthd1
 1024              		.section	.rodata.testthd1,"a",%progbits
ARM GAS  C:\cygwin\tmp\ccrVDLoN.s 			page 19


 1025              		.align	2
 1026              		.type	testthd1, %object
 1027              		.size	testthd1, 16
 1028              	testthd1:
 1029 0000 64000000 		.word	.LC9
 1030 0004 00000000 		.word	0
 1031 0008 00000000 		.word	0
 1032 000c 00000000 		.word	thd1_execute
 1033              		.section	.rodata.testthd2,"a",%progbits
 1034              		.align	2
 1035              		.type	testthd2, %object
 1036              		.size	testthd2, 16
 1037              	testthd2:
 1038 0000 48000000 		.word	.LC8
 1039 0004 00000000 		.word	0
 1040 0008 00000000 		.word	0
 1041 000c 00000000 		.word	thd2_execute
 1042              		.section	.rodata.testthd3,"a",%progbits
 1043              		.align	2
 1044              		.type	testthd3, %object
 1045              		.size	testthd3, 16
 1046              	testthd3:
 1047 0000 2C000000 		.word	.LC7
 1048 0004 00000000 		.word	0
 1049 0008 00000000 		.word	0
 1050 000c 00000000 		.word	thd3_execute
 1051              		.section	.rodata.testthd4,"a",%progbits
 1052              		.align	2
 1053              		.type	testthd4, %object
 1054              		.size	testthd4, 16
 1055              	testthd4:
 1056 0000 1C000000 		.word	.LC6
 1057 0004 00000000 		.word	0
 1058 0008 00000000 		.word	0
 1059 000c 00000000 		.word	thd4_execute
 1060              		.section	.rodata.patternthd,"a",%progbits
 1061              		.align	2
 1062              		.type	patternthd, %object
 1063              		.size	patternthd, 20
 1064              	patternthd:
 1065 0000 00000000 		.word	testthd1
 1066 0004 00000000 		.word	testthd2
 1067 0008 00000000 		.word	testthd3
 1068 000c 00000000 		.word	testthd4
 1069 0010 00000000 		.word	0
 1070              		.section	.rodata.str1.4,"aMS",%progbits,1
 1071              		.align	2
 1072              	.LC0:
 1073 0000 4500     		.ascii	"E\000"
 1074 0002 0000     		.space	2
 1075              	.LC1:
 1076 0004 4400     		.ascii	"D\000"
 1077 0006 0000     		.space	2
 1078              	.LC2:
 1079 0008 4300     		.ascii	"C\000"
 1080 000a 0000     		.space	2
 1081              	.LC3:
ARM GAS  C:\cygwin\tmp\ccrVDLoN.s 			page 20


 1082 000c 4200     		.ascii	"B\000"
 1083 000e 0000     		.space	2
 1084              	.LC4:
 1085 0010 4100     		.ascii	"A\000"
 1086 0012 0000     		.space	2
 1087              	.LC5:
 1088 0014 41424344 		.ascii	"ABCDE\000"
 1088      4500
 1089 001a 0000     		.space	2
 1090              	.LC6:
 1091 001c 54687265 		.ascii	"Threads, delays\000"
 1091      6164732C 
 1091      2064656C 
 1091      61797300 
 1092              	.LC7:
 1093 002c 54687265 		.ascii	"Threads, priority change\000"
 1093      6164732C 
 1093      20707269 
 1093      6F726974 
 1093      79206368 
 1094 0045 000000   		.space	3
 1095              	.LC8:
 1096 0048 54687265 		.ascii	"Threads, enqueuing test #2\000"
 1096      6164732C 
 1096      20656E71 
 1096      75657569 
 1096      6E672074 
 1097 0063 00       		.space	1
 1098              	.LC9:
 1099 0064 54687265 		.ascii	"Threads, enqueuing test #1\000"
 1099      6164732C 
 1099      20656E71 
 1099      75657569 
 1099      6E672074 
 1100 007f 00       		.text
 1101              	.Letext0:
 1102              		.file 5 "c:\\program files\\gnu tools arm embedded\\4.9 2014q4\\lib\\gcc\\arm-none-eabi\\4.9.3\\in
 1103              		.file 6 "c:\\program files\\gnu tools arm embedded\\4.9 2014q4\\arm-none-eabi\\include\\machine\\_
 1104              		.file 7 "c:\\program files\\gnu tools arm embedded\\4.9 2014q4\\arm-none-eabi\\include\\stdint.h"
 1105              		.file 8 "../../../os/rt/ports/ARMCMx/compilers/GCC/chtypes.h"
 1106              		.file 9 "../../../os/rt/include/chsystypes.h"
 1107              		.file 10 "../../../os/rt/include/chschd.h"
 1108              		.file 11 "../../../os/rt/ports/ARMCMx/chcore.h"
 1109              		.file 12 "../../../os/rt/ports/ARMCMx/chcore_v7m.h"
 1110              		.file 13 "../../../os/hal/ports/STM32/LLD/TIMv1/stm32_tim.h"
 1111              		.file 14 "../../../os/rt/include/chtm.h"
 1112              		.file 15 "../../../os/rt/include/chmtx.h"
 1113              		.file 16 "../../../test/rt/test.h"
 1114              		.file 17 "../../../os/rt/ports/ARMCMx/chcore_timer.h"
 1115              		.file 18 "../../../os/rt/include/chsys.h"
 1116              		.file 19 "../../../os/rt/include/chvt.h"
 1117              		.file 20 "../../../os/ext/CMSIS/include/core_cm4.h"