ARM GAS  C:\cygwin\tmp\cchzbE9p.s 			page 1


   1              		.syntax unified
   2              		.cpu cortex-m4
   3              		.fpu softvfp
   4              		.eabi_attribute 20, 1
   5              		.eabi_attribute 21, 1
   6              		.eabi_attribute 23, 3
   7              		.eabi_attribute 24, 1
   8              		.eabi_attribute 25, 1
   9              		.eabi_attribute 26, 1
  10              		.eabi_attribute 30, 2
  11              		.eabi_attribute 34, 1
  12              		.eabi_attribute 18, 4
  13              		.thumb
  14              		.file	"testevt.c"
  15              		.text
  16              	.Ltext0:
  17              		.cfi_sections	.debug_frame
  18              		.section	.text.h3,"ax",%progbits
  19              		.align	2
  20              		.p2align 4,,15
  21              		.thumb
  22              		.thumb_func
  23              		.type	h3, %function
  24              	h3:
  25              	.LFB229:
  26              		.file 1 "../../../test/rt/testevt.c"
  27              		.loc 1 82 0
  28              		.cfi_startproc
  29              		@ args = 0, pretend = 0, frame = 0
  30              		@ frame_needed = 0, uses_anonymous_args = 0
  31              		@ link register save eliminated.
  32              	.LVL0:
  33              		.loc 1 82 0
  34 0000 4320     		movs	r0, #67
  35              	.LVL1:
  36 0002 FFF7FEBF 		b	test_emit_token
  37              	.LVL2:
  38              		.cfi_endproc
  39              	.LFE229:
  40              		.size	h3, .-h3
  41 0006 00BFAFF3 		.section	.text.h2,"ax",%progbits
  41      0080AFF3 
  41      0080
  42              		.align	2
  43              		.p2align 4,,15
  44              		.thumb
  45              		.thumb_func
  46              		.type	h2, %function
  47              	h2:
  48              	.LFB228:
  49              		.loc 1 81 0
  50              		.cfi_startproc
  51              		@ args = 0, pretend = 0, frame = 0
  52              		@ frame_needed = 0, uses_anonymous_args = 0
  53              		@ link register save eliminated.
  54              	.LVL3:
  55              		.loc 1 81 0
ARM GAS  C:\cygwin\tmp\cchzbE9p.s 			page 2


  56 0000 4220     		movs	r0, #66
  57              	.LVL4:
  58 0002 FFF7FEBF 		b	test_emit_token
  59              	.LVL5:
  60              		.cfi_endproc
  61              	.LFE228:
  62              		.size	h2, .-h2
  63 0006 00BFAFF3 		.section	.text.h1,"ax",%progbits
  63      0080AFF3 
  63      0080
  64              		.align	2
  65              		.p2align 4,,15
  66              		.thumb
  67              		.thumb_func
  68              		.type	h1, %function
  69              	h1:
  70              	.LFB227:
  71              		.loc 1 80 0
  72              		.cfi_startproc
  73              		@ args = 0, pretend = 0, frame = 0
  74              		@ frame_needed = 0, uses_anonymous_args = 0
  75              		@ link register save eliminated.
  76              	.LVL6:
  77              		.loc 1 80 0
  78 0000 4120     		movs	r0, #65
  79              	.LVL7:
  80 0002 FFF7FEBF 		b	test_emit_token
  81              	.LVL8:
  82              		.cfi_endproc
  83              	.LFE227:
  84              		.size	h1, .-h1
  85 0006 00BFAFF3 		.section	.text.evt1_execute,"ax",%progbits
  85      0080AFF3 
  85      0080
  86              		.align	2
  87              		.p2align 4,,15
  88              		.thumb
  89              		.thumb_func
  90              		.type	evt1_execute, %function
  91              	evt1_execute:
  92              	.LFB230:
  93              		.loc 1 85 0
  94              		.cfi_startproc
  95              		@ args = 0, pretend = 0, frame = 40
  96              		@ frame_needed = 0, uses_anonymous_args = 0
  97              	.LVL9:
  98 0000 10B5     		push	{r4, lr}
  99              		.cfi_def_cfa_offset 8
 100              		.cfi_offset 4, -8
 101              		.cfi_offset 14, -4
 102              	.LBB126:
 103              	.LBB127:
 104              		.file 2 "../../../os/rt/include/chevents.h"
 105              		.loc 2 172 0
 106 0002 1F4C     		ldr	r4, .L10
 107              	.LBE127:
 108              	.LBE126:
ARM GAS  C:\cygwin\tmp\cchzbE9p.s 			page 3


 109              		.loc 1 85 0
 110 0004 8AB0     		sub	sp, sp, #40
 111              		.cfi_def_cfa_offset 48
 112              	.LBB129:
 113              	.LBB130:
 114              		.loc 2 193 0
 115 0006 2046     		mov	r0, r4
 116 0008 6946     		mov	r1, sp
 117 000a 0122     		movs	r2, #1
 118 000c 4FF0FF33 		mov	r3, #-1
 119              	.LBE130:
 120              	.LBE129:
 121              	.LBB132:
 122              	.LBB128:
 123              		.loc 2 172 0
 124 0010 2460     		str	r4, [r4]
 125              	.LVL10:
 126              	.LBE128:
 127              	.LBE132:
 128              	.LBB133:
 129              	.LBB131:
 130              		.loc 2 193 0
 131 0012 FFF7FEFF 		bl	chEvtRegisterMaskWithFlags
 132              	.LVL11:
 133              	.LBE131:
 134              	.LBE133:
 135              	.LBB134:
 136              	.LBB135:
 137 0016 2046     		mov	r0, r4
 138 0018 05A9     		add	r1, sp, #20
 139              	.LVL12:
 140 001a 0222     		movs	r2, #2
 141 001c 4FF0FF33 		mov	r3, #-1
 142 0020 FFF7FEFF 		bl	chEvtRegisterMaskWithFlags
 143              	.LVL13:
 144              	.LBE135:
 145              	.LBE134:
 146              	.LBB136:
 147              	.LBB137:
 148              		.loc 2 226 0
 149 0024 2168     		ldr	r1, [r4]
 150              	.LBE137:
 151              	.LBE136:
 152              		.loc 1 94 0
 153 0026 091B     		subs	r1, r1, r4
 154 0028 18BF     		it	ne
 155 002a 0121     		movne	r1, #1
 156 002c 0120     		movs	r0, #1
 157 002e FFF7FEFF 		bl	_test_assert
 158              	.LVL14:
 159 0032 08B1     		cbz	r0, .L9
 160              	.L4:
 161              		.loc 1 105 0
 162 0034 0AB0     		add	sp, sp, #40
 163              		.cfi_remember_state
 164              		.cfi_def_cfa_offset 8
 165              	.LVL15:
ARM GAS  C:\cygwin\tmp\cchzbE9p.s 			page 4


 166              		@ sp needed
 167 0036 10BD     		pop	{r4, pc}
 168              	.LVL16:
 169              	.L9:
 170              		.cfi_restore_state
 171              		.loc 1 95 0
 172 0038 6946     		mov	r1, sp
 173 003a 2046     		mov	r0, r4
 174 003c FFF7FEFF 		bl	chEvtUnregister
 175              	.LVL17:
 176              	.LBB138:
 177              	.LBB139:
 178              		.loc 2 226 0
 179 0040 2168     		ldr	r1, [r4]
 180              	.LBE139:
 181              	.LBE138:
 182              		.loc 1 96 0
 183 0042 091B     		subs	r1, r1, r4
 184 0044 18BF     		it	ne
 185 0046 0121     		movne	r1, #1
 186 0048 0220     		movs	r0, #2
 187 004a FFF7FEFF 		bl	_test_assert
 188              	.LVL18:
 189 004e 0028     		cmp	r0, #0
 190 0050 F0D1     		bne	.L4
 191              		.loc 1 97 0
 192 0052 05A9     		add	r1, sp, #20
 193              	.LVL19:
 194 0054 2046     		mov	r0, r4
 195 0056 FFF7FEFF 		bl	chEvtUnregister
 196              	.LVL20:
 197              		.loc 1 98 0
 198 005a 2168     		ldr	r1, [r4]
 199 005c 0320     		movs	r0, #3
 200 005e 091B     		subs	r1, r1, r4
 201 0060 B1FA81F1 		clz	r1, r1
 202 0064 4909     		lsrs	r1, r1, #5
 203 0066 FFF7FEFF 		bl	_test_assert
 204              	.LVL21:
 205 006a 0028     		cmp	r0, #0
 206 006c E2D1     		bne	.L4
 207              		.loc 1 103 0
 208 006e 0548     		ldr	r0, .L10+4
 209 0070 0721     		movs	r1, #7
 210 0072 FFF7FEFF 		bl	chEvtDispatch
 211              	.LVL22:
 212              		.loc 1 104 0
 213 0076 0449     		ldr	r1, .L10+8
 214 0078 0420     		movs	r0, #4
 215 007a FFF7FEFF 		bl	_test_assert_sequence
 216              	.LVL23:
 217 007e D9E7     		b	.L4
 218              	.L11:
 219              		.align	2
 220              	.L10:
 221 0080 00000000 		.word	.LANCHOR0
 222 0084 00000000 		.word	.LANCHOR1
ARM GAS  C:\cygwin\tmp\cchzbE9p.s 			page 5


 223 0088 00000000 		.word	.LC0
 224              		.cfi_endproc
 225              	.LFE230:
 226              		.size	evt1_execute, .-evt1_execute
 227 008c AFF30080 		.section	.text.evt1_setup,"ax",%progbits
 228              		.align	2
 229              		.p2align 4,,15
 230              		.thumb
 231              		.thumb_func
 232              		.type	evt1_setup, %function
 233              	evt1_setup:
 234              	.LFB226:
 235              		.loc 1 75 0
 236              		.cfi_startproc
 237              		@ args = 0, pretend = 0, frame = 0
 238              		@ frame_needed = 0, uses_anonymous_args = 0
 239              		@ link register save eliminated.
 240              		.loc 1 77 0
 241 0000 4FF0FF30 		mov	r0, #-1
 242 0004 FFF7FEBF 		b	chEvtGetAndClearEvents
 243              	.LVL24:
 244              		.cfi_endproc
 245              	.LFE226:
 246              		.size	evt1_setup, .-evt1_setup
 247 0008 AFF30080 		.section	.text.evt2_setup,"ax",%progbits
 247      AFF30080 
 248              		.align	2
 249              		.p2align 4,,15
 250              		.thumb
 251              		.thumb_func
 252              		.type	evt2_setup, %function
 253              	evt2_setup:
 254              	.LFB231:
 255              		.loc 1 128 0
 256              		.cfi_startproc
 257              		@ args = 0, pretend = 0, frame = 0
 258              		@ frame_needed = 0, uses_anonymous_args = 0
 259              		@ link register save eliminated.
 260              		.loc 1 130 0
 261 0000 4FF0FF30 		mov	r0, #-1
 262 0004 FFF7FEBF 		b	chEvtGetAndClearEvents
 263              	.LVL25:
 264              		.cfi_endproc
 265              	.LFE231:
 266              		.size	evt2_setup, .-evt2_setup
 267 0008 AFF30080 		.section	.text.evt3_setup,"ax",%progbits
 267      AFF30080 
 268              		.align	2
 269              		.p2align 4,,15
 270              		.thumb
 271              		.thumb_func
 272              		.type	evt3_setup, %function
 273              	evt3_setup:
 274              	.LFB235:
 275              		.loc 1 249 0
 276              		.cfi_startproc
 277              		@ args = 0, pretend = 0, frame = 0
ARM GAS  C:\cygwin\tmp\cchzbE9p.s 			page 6


 278              		@ frame_needed = 0, uses_anonymous_args = 0
 279              		@ link register save eliminated.
 280              		.loc 1 251 0
 281 0000 4FF0FF30 		mov	r0, #-1
 282 0004 FFF7FEBF 		b	chEvtGetAndClearEvents
 283              	.LVL26:
 284              		.cfi_endproc
 285              	.LFE235:
 286              		.size	evt3_setup, .-evt3_setup
 287 0008 AFF30080 		.section	.text.evt2_execute,"ax",%progbits
 287      AFF30080 
 288              		.align	2
 289              		.p2align 4,,15
 290              		.thumb
 291              		.thumb_func
 292              		.type	evt2_execute, %function
 293              	evt2_execute:
 294              	.LFB234:
 295              		.loc 1 149 0
 296              		.cfi_startproc
 297              		@ args = 0, pretend = 0, frame = 40
 298              		@ frame_needed = 0, uses_anonymous_args = 0
 299 0000 2DE9F04F 		push	{r4, r5, r6, r7, r8, r9, r10, fp, lr}
 300              		.cfi_def_cfa_offset 36
 301              		.cfi_offset 4, -36
 302              		.cfi_offset 5, -32
 303              		.cfi_offset 6, -28
 304              		.cfi_offset 7, -24
 305              		.cfi_offset 8, -20
 306              		.cfi_offset 9, -16
 307              		.cfi_offset 10, -12
 308              		.cfi_offset 11, -8
 309              		.cfi_offset 14, -4
 310              		.loc 1 157 0
 311 0004 0720     		movs	r0, #7
 312              		.loc 1 149 0
 313 0006 8DB0     		sub	sp, sp, #52
 314              		.cfi_def_cfa_offset 88
 315              		.loc 1 157 0
 316 0008 FFF7FEFF 		bl	chEvtAddEvents
 317              	.LVL27:
 318              		.loc 1 158 0
 319 000c 4FF0FF30 		mov	r0, #-1
 320 0010 FFF7FEFF 		bl	chEvtWaitOne
 321              	.LVL28:
 322              		.loc 1 159 0
 323 0014 A0F10101 		sub	r1, r0, #1
 324 0018 0120     		movs	r0, #1
 325              	.LVL29:
 326 001a B1FA81F1 		clz	r1, r1
 327              	.LVL30:
 328 001e 4909     		lsrs	r1, r1, #5
 329 0020 FFF7FEFF 		bl	_test_assert
 330              	.LVL31:
 331 0024 10B1     		cbz	r0, .L19
 332              	.L15:
 333              		.loc 1 224 0
ARM GAS  C:\cygwin\tmp\cchzbE9p.s 			page 7


 334 0026 0DB0     		add	sp, sp, #52
 335              		.cfi_remember_state
 336              		.cfi_def_cfa_offset 36
 337              		@ sp needed
 338 0028 BDE8F08F 		pop	{r4, r5, r6, r7, r8, r9, r10, fp, pc}
 339              	.L19:
 340              		.cfi_restore_state
 341              		.loc 1 160 0
 342 002c 4FF0FF30 		mov	r0, #-1
 343 0030 FFF7FEFF 		bl	chEvtWaitOne
 344              	.LVL32:
 345              		.loc 1 161 0
 346 0034 A0F10201 		sub	r1, r0, #2
 347 0038 0220     		movs	r0, #2
 348              	.LVL33:
 349 003a B1FA81F1 		clz	r1, r1
 350              	.LVL34:
 351 003e 4909     		lsrs	r1, r1, #5
 352 0040 FFF7FEFF 		bl	_test_assert
 353              	.LVL35:
 354 0044 0028     		cmp	r0, #0
 355 0046 EED1     		bne	.L15
 356              		.loc 1 162 0
 357 0048 4FF0FF30 		mov	r0, #-1
 358 004c FFF7FEFF 		bl	chEvtWaitOne
 359              	.LVL36:
 360              		.loc 1 163 0
 361 0050 A0F10401 		sub	r1, r0, #4
 362 0054 0320     		movs	r0, #3
 363              	.LVL37:
 364 0056 B1FA81F1 		clz	r1, r1
 365              	.LVL38:
 366 005a 4909     		lsrs	r1, r1, #5
 367 005c FFF7FEFF 		bl	_test_assert
 368              	.LVL39:
 369 0060 0028     		cmp	r0, #0
 370 0062 E0D1     		bne	.L15
 371              		.loc 1 164 0
 372 0064 4FF0FF30 		mov	r0, #-1
 373 0068 FFF7FEFF 		bl	chEvtGetAndClearEvents
 374              	.LVL40:
 375              		.loc 1 165 0
 376 006c B0FA80F1 		clz	r1, r0
 377 0070 0420     		movs	r0, #4
 378              	.LVL41:
 379 0072 4909     		lsrs	r1, r1, #5
 380 0074 FFF7FEFF 		bl	_test_assert
 381              	.LVL42:
 382 0078 0446     		mov	r4, r0
 383 007a 0028     		cmp	r0, #0
 384 007c D3D1     		bne	.L15
 385              		.loc 1 170 0
 386 007e FFF7FEFF 		bl	test_wait_tick
 387              	.LVL43:
 388              	.LBB140:
 389              	.LBB141:
 390              	.LBB142:
ARM GAS  C:\cygwin\tmp\cchzbE9p.s 			page 8


 391              	.LBB143:
 392              	.LBB144:
 393              	.LBB145:
 394              		.file 3 "../../../os/ext/CMSIS/include/core_cmFunc.h"
 395              		.loc 3 546 0
 396 0082 4FF02009 		mov	r9, #32
 397              	@ 546 "../../../os/ext/CMSIS/include/core_cmFunc.h" 1
 398 0086 89F31188 		MSR basepri, r9
 399              	@ 0 "" 2
 400              		.thumb
 401              	.LBE145:
 402              	.LBE144:
 403              	.LBE143:
 404              	.LBE142:
 405              	.LBB146:
 406              	.LBB147:
 407              	.LBB148:
 408              	.LBB149:
 409              		.file 4 "../../../os/hal/ports/STM32/LLD/TIMv1/st_lld.h"
 410              		.loc 4 128 0
 411 008a 4FF08048 		mov	r8, #1073741824
 412 008e D8F82450 		ldr	r5, [r8, #36]
 413              	.LVL44:
 414              	.LBE149:
 415              	.LBE148:
 416              	.LBE147:
 417              	.LBE146:
 418              	.LBB150:
 419              	.LBB151:
 420              	.LBB152:
 421              	.LBB153:
 422              	.LBB154:
 423              		.loc 3 546 0
 424              	@ 546 "../../../os/ext/CMSIS/include/core_cmFunc.h" 1
 425 0092 84F31188 		MSR basepri, r4
 426              	@ 0 "" 2
 427              	.LVL45:
 428              		.thumb
 429              	.LBE154:
 430              	.LBE153:
 431              	.LBE152:
 432              	.LBE151:
 433              	.LBE150:
 434              	.LBE141:
 435              	.LBE140:
 436              	.LBB155:
 437              	.LBB156:
 438              	.LBB157:
 439              	.LBB158:
 440              		.file 5 "../../../os/rt/include/chthreads.h"
 441              		.loc 5 179 0
 442 0096 764F     		ldr	r7, .L20
 443              	.LBE158:
 444              	.LBE157:
 445              	.LBE156:
 446              	.LBE155:
 447              		.loc 1 172 0
ARM GAS  C:\cygwin\tmp\cchzbE9p.s 			page 9


 448 0098 DFF8F0A1 		ldr	r10, .L20+28
 449              	.LBB162:
 450              	.LBB161:
 451              	.LBB160:
 452              	.LBB159:
 453              		.loc 5 179 0
 454 009c B969     		ldr	r1, [r7, #24]
 455              	.LBE159:
 456              	.LBE160:
 457              	.LBE161:
 458              	.LBE162:
 459              		.loc 1 172 0
 460 009e DAF80060 		ldr	r6, [r10]
 461 00a2 8A68     		ldr	r2, [r1, #8]
 462 00a4 734B     		ldr	r3, .L20+4
 463 00a6 0091     		str	r1, [sp]
 464 00a8 013A     		subs	r2, r2, #1
 465 00aa 4FF4A471 		mov	r1, #328
 466 00ae 3046     		mov	r0, r6
 467 00b0 FFF7FEFF 		bl	chThdCreateStatic
 468              	.LVL46:
 469 00b4 704C     		ldr	r4, .L20+8
 470 00b6 2060     		str	r0, [r4]
 471              		.loc 1 174 0
 472 00b8 4FF0FF30 		mov	r0, #-1
 473 00bc FFF7FEFF 		bl	chEvtWaitOne
 474              	.LVL47:
 475              		.loc 1 175 0
 476 00c0 05F5FA71 		add	r1, r5, #500
 477              	.LVL48:
 478              		.loc 1 174 0
 479 00c4 8346     		mov	fp, r0
 480              	.LVL49:
 481              		.loc 1 175 0
 482 00c6 05F22622 		addw	r2, r5, #550
 483 00ca 0520     		movs	r0, #5
 484              	.LVL50:
 485 00cc FFF7FEFF 		bl	_test_assert_time_window
 486              	.LVL51:
 487 00d0 0028     		cmp	r0, #0
 488 00d2 A8D1     		bne	.L15
 489              		.loc 1 176 0
 490 00d4 ABF10101 		sub	r1, fp, #1
 491 00d8 0620     		movs	r0, #6
 492 00da B1FA81F1 		clz	r1, r1
 493 00de 4909     		lsrs	r1, r1, #5
 494 00e0 FFF7FEFF 		bl	_test_assert
 495              	.LVL52:
 496 00e4 0028     		cmp	r0, #0
 497 00e6 9ED1     		bne	.L15
 498              		.loc 1 177 0
 499 00e8 4FF0FF30 		mov	r0, #-1
 500 00ec FFF7FEFF 		bl	chEvtGetAndClearEvents
 501              	.LVL53:
 502              		.loc 1 178 0
 503 00f0 B0FA80F1 		clz	r1, r0
 504 00f4 0720     		movs	r0, #7
ARM GAS  C:\cygwin\tmp\cchzbE9p.s 			page 10


 505              	.LVL54:
 506 00f6 4909     		lsrs	r1, r1, #5
 507 00f8 FFF7FEFF 		bl	_test_assert
 508              	.LVL55:
 509 00fc 0028     		cmp	r0, #0
 510 00fe 92D1     		bne	.L15
 511              		.loc 1 179 0
 512 0100 FFF7FEFF 		bl	test_wait_threads
 513              	.LVL56:
 514              		.loc 1 184 0
 515 0104 0520     		movs	r0, #5
 516 0106 FFF7FEFF 		bl	chEvtAddEvents
 517              	.LVL57:
 518              		.loc 1 185 0
 519 010a 4FF0FF30 		mov	r0, #-1
 520 010e FFF7FEFF 		bl	chEvtWaitAny
 521              	.LVL58:
 522              		.loc 1 186 0
 523 0112 451F     		subs	r5, r0, #5
 524              	.LVL59:
 525 0114 6942     		rsbs	r1, r5, #0
 526 0116 6941     		adcs	r1, r1, r5
 527 0118 0820     		movs	r0, #8
 528              	.LVL60:
 529 011a FFF7FEFF 		bl	_test_assert
 530              	.LVL61:
 531 011e 0028     		cmp	r0, #0
 532 0120 81D1     		bne	.L15
 533              		.loc 1 187 0
 534 0122 4FF0FF30 		mov	r0, #-1
 535 0126 FFF7FEFF 		bl	chEvtGetAndClearEvents
 536              	.LVL62:
 537              		.loc 1 188 0
 538 012a B0FA80F1 		clz	r1, r0
 539 012e 0920     		movs	r0, #9
 540              	.LVL63:
 541 0130 4909     		lsrs	r1, r1, #5
 542 0132 FFF7FEFF 		bl	_test_assert
 543              	.LVL64:
 544 0136 8346     		mov	fp, r0
 545 0138 0028     		cmp	r0, #0
 546 013a 7FF474AF 		bne	.L15
 547              		.loc 1 193 0
 548 013e FFF7FEFF 		bl	test_wait_tick
 549              	.LVL65:
 550              	.LBB163:
 551              	.LBB164:
 552              	.LBB165:
 553              	.LBB166:
 554              	.LBB167:
 555              	.LBB168:
 556              		.loc 3 546 0
 557              	@ 546 "../../../os/ext/CMSIS/include/core_cmFunc.h" 1
 558 0142 89F31188 		MSR basepri, r9
 559              	@ 0 "" 2
 560              		.thumb
 561              	.LBE168:
ARM GAS  C:\cygwin\tmp\cchzbE9p.s 			page 11


 562              	.LBE167:
 563              	.LBE166:
 564              	.LBE165:
 565              	.LBB169:
 566              	.LBB170:
 567              	.LBB171:
 568              	.LBB172:
 569              		.loc 4 128 0
 570 0146 D8F82450 		ldr	r5, [r8, #36]
 571              	.LVL66:
 572              	.LBE172:
 573              	.LBE171:
 574              	.LBE170:
 575              	.LBE169:
 576              	.LBB173:
 577              	.LBB174:
 578              	.LBB175:
 579              	.LBB176:
 580              	.LBB177:
 581              		.loc 3 546 0
 582              	@ 546 "../../../os/ext/CMSIS/include/core_cmFunc.h" 1
 583 014a 8BF31188 		MSR basepri, fp
 584              	@ 0 "" 2
 585              	.LVL67:
 586              		.thumb
 587              	.LBE177:
 588              	.LBE176:
 589              	.LBE175:
 590              	.LBE174:
 591              	.LBE173:
 592              	.LBE164:
 593              	.LBE163:
 594              	.LBB178:
 595              	.LBB179:
 596              	.LBB180:
 597              	.LBB181:
 598              		.loc 5 179 0
 599 014e B969     		ldr	r1, [r7, #24]
 600              	.LBE181:
 601              	.LBE180:
 602              	.LBE179:
 603              	.LBE178:
 604              		.loc 1 195 0
 605 0150 484B     		ldr	r3, .L20+4
 606 0152 8A68     		ldr	r2, [r1, #8]
 607 0154 0091     		str	r1, [sp]
 608 0156 013A     		subs	r2, r2, #1
 609 0158 4FF4A471 		mov	r1, #328
 610 015c 3046     		mov	r0, r6
 611 015e FFF7FEFF 		bl	chThdCreateStatic
 612              	.LVL68:
 613 0162 2060     		str	r0, [r4]
 614              		.loc 1 197 0
 615 0164 4FF0FF30 		mov	r0, #-1
 616 0168 FFF7FEFF 		bl	chEvtWaitAny
 617              	.LVL69:
 618              		.loc 1 198 0
ARM GAS  C:\cygwin\tmp\cchzbE9p.s 			page 12


 619 016c 05F5FA71 		add	r1, r5, #500
 620              	.LVL70:
 621              		.loc 1 197 0
 622 0170 0646     		mov	r6, r0
 623              	.LVL71:
 624              		.loc 1 198 0
 625 0172 05F22622 		addw	r2, r5, #550
 626 0176 0A20     		movs	r0, #10
 627              	.LVL72:
 628 0178 FFF7FEFF 		bl	_test_assert_time_window
 629              	.LVL73:
 630 017c 0028     		cmp	r0, #0
 631 017e 7FF452AF 		bne	.L15
 632              		.loc 1 199 0
 633 0182 701E     		subs	r0, r6, #1
 634 0184 4142     		rsbs	r1, r0, #0
 635 0186 4141     		adcs	r1, r1, r0
 636 0188 0B20     		movs	r0, #11
 637 018a FFF7FEFF 		bl	_test_assert
 638              	.LVL74:
 639 018e 0028     		cmp	r0, #0
 640 0190 7FF449AF 		bne	.L15
 641              		.loc 1 200 0
 642 0194 4FF0FF30 		mov	r0, #-1
 643 0198 FFF7FEFF 		bl	chEvtGetAndClearEvents
 644              	.LVL75:
 645              		.loc 1 201 0
 646 019c B0FA80F1 		clz	r1, r0
 647 01a0 0C20     		movs	r0, #12
 648              	.LVL76:
 649 01a2 4909     		lsrs	r1, r1, #5
 650 01a4 FFF7FEFF 		bl	_test_assert
 651              	.LVL77:
 652 01a8 8146     		mov	r9, r0
 653 01aa 0028     		cmp	r0, #0
 654 01ac 7FF43BAF 		bne	.L15
 655              	.LBB182:
 656              	.LBB183:
 657              		.loc 2 172 0
 658 01b0 324E     		ldr	r6, .L20+12
 659              	.LBE183:
 660              	.LBE182:
 661              	.LBB185:
 662              	.LBB186:
 663 01b2 334D     		ldr	r5, .L20+16
 664              	.LVL78:
 665              	.LBE186:
 666              	.LBE185:
 667              		.loc 1 202 0
 668 01b4 FFF7FEFF 		bl	test_wait_threads
 669              	.LVL79:
 670              	.LBB188:
 671              	.LBB189:
 672              		.loc 2 193 0
 673 01b8 3046     		mov	r0, r6
 674 01ba 02A9     		add	r1, sp, #8
 675 01bc 0122     		movs	r2, #1
ARM GAS  C:\cygwin\tmp\cchzbE9p.s 			page 13


 676 01be 4FF0FF33 		mov	r3, #-1
 677              	.LBE189:
 678              	.LBE188:
 679              	.LBB191:
 680              	.LBB184:
 681              		.loc 2 172 0
 682 01c2 3660     		str	r6, [r6]
 683              	.LVL80:
 684              	.LBE184:
 685              	.LBE191:
 686              	.LBB192:
 687              	.LBB187:
 688 01c4 2D60     		str	r5, [r5]
 689              	.LVL81:
 690              	.LBE187:
 691              	.LBE192:
 692              	.LBB193:
 693              	.LBB190:
 694              		.loc 2 193 0
 695 01c6 FFF7FEFF 		bl	chEvtRegisterMaskWithFlags
 696              	.LVL82:
 697              	.LBE190:
 698              	.LBE193:
 699              	.LBB194:
 700              	.LBB195:
 701 01ca 2846     		mov	r0, r5
 702 01cc 07A9     		add	r1, sp, #28
 703              	.LVL83:
 704 01ce 0422     		movs	r2, #4
 705 01d0 4FF0FF33 		mov	r3, #-1
 706 01d4 FFF7FEFF 		bl	chEvtRegisterMaskWithFlags
 707              	.LVL84:
 708              	.LBE195:
 709              	.LBE194:
 710              		.loc 1 211 0
 711 01d8 FFF7FEFF 		bl	test_wait_tick
 712              	.LVL85:
 713              	.LBB196:
 714              	.LBB197:
 715              	.LBB198:
 716              	.LBB199:
 717              	.LBB200:
 718              	.LBB201:
 719              		.loc 3 546 0
 720 01dc 2023     		movs	r3, #32
 721              	@ 546 "../../../os/ext/CMSIS/include/core_cmFunc.h" 1
 722 01de 83F31188 		MSR basepri, r3
 723              	@ 0 "" 2
 724              		.thumb
 725              	.LBE201:
 726              	.LBE200:
 727              	.LBE199:
 728              	.LBE198:
 729              	.LBB202:
 730              	.LBB203:
 731              	.LBB204:
 732              	.LBB205:
ARM GAS  C:\cygwin\tmp\cchzbE9p.s 			page 14


 733              		.loc 4 128 0
 734 01e2 D8F82480 		ldr	r8, [r8, #36]
 735              	.LVL86:
 736              	.LBE205:
 737              	.LBE204:
 738              	.LBE203:
 739              	.LBE202:
 740              	.LBB206:
 741              	.LBB207:
 742              	.LBB208:
 743              	.LBB209:
 744              	.LBB210:
 745              		.loc 3 546 0
 746              	@ 546 "../../../os/ext/CMSIS/include/core_cmFunc.h" 1
 747 01e6 89F31188 		MSR basepri, r9
 748              	@ 0 "" 2
 749              	.LVL87:
 750              		.thumb
 751              	.LBE210:
 752              	.LBE209:
 753              	.LBE208:
 754              	.LBE207:
 755              	.LBE206:
 756              	.LBE197:
 757              	.LBE196:
 758              	.LBB211:
 759              	.LBB212:
 760              		.loc 5 192 0
 761 01ea BA69     		ldr	r2, [r7, #24]
 762              	.LBE212:
 763              	.LBE211:
 764              		.loc 1 213 0
 765 01ec 254B     		ldr	r3, .L20+20
 766 01ee 9268     		ldr	r2, [r2, #8]
 767 01f0 DAF80000 		ldr	r0, [r10]
 768 01f4 0093     		str	r3, [sp]
 769 01f6 013A     		subs	r2, r2, #1
 770 01f8 4FF4A471 		mov	r1, #328
 771 01fc 224B     		ldr	r3, .L20+24
 772 01fe FFF7FEFF 		bl	chThdCreateStatic
 773              	.LVL88:
 774 0202 2060     		str	r0, [r4]
 775              		.loc 1 215 0
 776 0204 0520     		movs	r0, #5
 777 0206 FFF7FEFF 		bl	chEvtWaitAll
 778              	.LVL89:
 779              		.loc 1 216 0
 780 020a 08F5FA71 		add	r1, r8, #500
 781              	.LVL90:
 782 020e 08F22622 		addw	r2, r8, #550
 783 0212 0D20     		movs	r0, #13
 784 0214 FFF7FEFF 		bl	_test_assert_time_window
 785              	.LVL91:
 786 0218 0028     		cmp	r0, #0
 787 021a 7FF404AF 		bne	.L15
 788              		.loc 1 217 0
 789 021e 4FF0FF30 		mov	r0, #-1
ARM GAS  C:\cygwin\tmp\cchzbE9p.s 			page 15


 790 0222 FFF7FEFF 		bl	chEvtGetAndClearEvents
 791              	.LVL92:
 792              		.loc 1 218 0
 793 0226 B0FA80F1 		clz	r1, r0
 794 022a 0E20     		movs	r0, #14
 795              	.LVL93:
 796 022c 4909     		lsrs	r1, r1, #5
 797 022e FFF7FEFF 		bl	_test_assert
 798              	.LVL94:
 799 0232 0028     		cmp	r0, #0
 800 0234 7FF4F7AE 		bne	.L15
 801              		.loc 1 219 0
 802 0238 FFF7FEFF 		bl	test_wait_threads
 803              	.LVL95:
 804              		.loc 1 220 0
 805 023c 3046     		mov	r0, r6
 806 023e 02A9     		add	r1, sp, #8
 807              	.LVL96:
 808 0240 FFF7FEFF 		bl	chEvtUnregister
 809              	.LVL97:
 810              		.loc 1 221 0
 811 0244 2846     		mov	r0, r5
 812 0246 07A9     		add	r1, sp, #28
 813              	.LVL98:
 814 0248 FFF7FEFF 		bl	chEvtUnregister
 815              	.LVL99:
 816              		.loc 1 222 0
 817 024c 3168     		ldr	r1, [r6]
 818 024e 8A1B     		subs	r2, r1, r6
 819 0250 5142     		rsbs	r1, r2, #0
 820 0252 5141     		adcs	r1, r1, r2
 821 0254 0F20     		movs	r0, #15
 822 0256 FFF7FEFF 		bl	_test_assert
 823              	.LVL100:
 824 025a 0028     		cmp	r0, #0
 825 025c 7FF4E3AE 		bne	.L15
 826              	.LVL101:
 827              		.loc 1 223 0
 828 0260 2968     		ldr	r1, [r5]
 829 0262 4B1B     		subs	r3, r1, r5
 830 0264 5942     		rsbs	r1, r3, #0
 831 0266 5941     		adcs	r1, r1, r3
 832 0268 1020     		movs	r0, #16
 833 026a FFF7FEFF 		bl	_test_assert
 834              	.LVL102:
 835 026e DAE6     		b	.L15
 836              	.L21:
 837              		.align	2
 838              	.L20:
 839 0270 00000000 		.word	ch
 840 0274 00000000 		.word	thread1
 841 0278 00000000 		.word	threads
 842 027c 00000000 		.word	.LANCHOR0
 843 0280 00000000 		.word	.LANCHOR2
 844 0284 04000000 		.word	.LC1
 845 0288 00000000 		.word	thread2
 846 028c 00000000 		.word	wa
ARM GAS  C:\cygwin\tmp\cchzbE9p.s 			page 16


 847              		.cfi_endproc
 848              	.LFE234:
 849              		.size	evt2_execute, .-evt2_execute
 850              		.section	.text.thread2,"ax",%progbits
 851              		.align	2
 852              		.p2align 4,,15
 853              		.thumb
 854              		.thumb_func
 855              		.type	thread2, %function
 856              	thread2:
 857              	.LFB233:
 858              		.loc 1 140 0
 859              		.cfi_startproc
 860              		@ args = 0, pretend = 0, frame = 0
 861              		@ frame_needed = 0, uses_anonymous_args = 0
 862              	.LVL103:
 863 0000 08B5     		push	{r3, lr}
 864              		.cfi_def_cfa_offset 8
 865              		.cfi_offset 3, -8
 866              		.cfi_offset 14, -4
 867              	.LBB213:
 868              	.LBB214:
 869              		.loc 2 239 0
 870 0002 0021     		movs	r1, #0
 871 0004 0648     		ldr	r0, .L24
 872              	.LVL104:
 873 0006 FFF7FEFF 		bl	chEvtBroadcastFlags
 874              	.LVL105:
 875              	.LBE214:
 876              	.LBE213:
 877              		.loc 1 144 0
 878 000a 4FF4FA70 		mov	r0, #500
 879 000e FFF7FEFF 		bl	chThdSleep
 880              	.LVL106:
 881              	.LBB215:
 882              	.LBB216:
 883              		.loc 2 239 0
 884 0012 0448     		ldr	r0, .L24+4
 885 0014 0021     		movs	r1, #0
 886 0016 FFF7FEFF 		bl	chEvtBroadcastFlags
 887              	.LVL107:
 888              	.LBE216:
 889              	.LBE215:
 890              		.loc 1 147 0
 891 001a 0020     		movs	r0, #0
 892 001c 08BD     		pop	{r3, pc}
 893              	.L25:
 894 001e 00BF     		.align	2
 895              	.L24:
 896 0020 00000000 		.word	.LANCHOR0
 897 0024 00000000 		.word	.LANCHOR2
 898              		.cfi_endproc
 899              	.LFE233:
 900              		.size	thread2, .-thread2
 901 0028 AFF30080 		.section	.text.thread1,"ax",%progbits
 901      AFF30080 
 902              		.align	2
ARM GAS  C:\cygwin\tmp\cchzbE9p.s 			page 17


 903              		.p2align 4,,15
 904              		.thumb
 905              		.thumb_func
 906              		.type	thread1, %function
 907              	thread1:
 908              	.LFB232:
 909              		.loc 1 133 0
 910              		.cfi_startproc
 911              		@ args = 0, pretend = 0, frame = 0
 912              		@ frame_needed = 0, uses_anonymous_args = 0
 913              	.LVL108:
 914 0000 10B5     		push	{r4, lr}
 915              		.cfi_def_cfa_offset 8
 916              		.cfi_offset 4, -8
 917              		.cfi_offset 14, -4
 918              		.loc 1 133 0
 919 0002 0446     		mov	r4, r0
 920              		.loc 1 135 0
 921 0004 4FF4FA70 		mov	r0, #500
 922              	.LVL109:
 923 0008 FFF7FEFF 		bl	chThdSleep
 924              	.LVL110:
 925              		.loc 1 136 0
 926 000c 2046     		mov	r0, r4
 927 000e 0121     		movs	r1, #1
 928 0010 FFF7FEFF 		bl	chEvtSignal
 929              	.LVL111:
 930              		.loc 1 138 0
 931 0014 0020     		movs	r0, #0
 932 0016 10BD     		pop	{r4, pc}
 933              		.cfi_endproc
 934              	.LFE232:
 935              		.size	thread1, .-thread1
 936 0018 AFF30080 		.section	.text.evt3_execute,"ax",%progbits
 936      AFF30080 
 937              		.align	2
 938              		.p2align 4,,15
 939              		.thumb
 940              		.thumb_func
 941              		.type	evt3_execute, %function
 942              	evt3_execute:
 943              	.LFB236:
 944              		.loc 1 254 0
 945              		.cfi_startproc
 946              		@ args = 0, pretend = 0, frame = 0
 947              		@ frame_needed = 0, uses_anonymous_args = 0
 948 0000 08B5     		push	{r3, lr}
 949              		.cfi_def_cfa_offset 8
 950              		.cfi_offset 3, -8
 951              		.cfi_offset 14, -4
 952              		.loc 1 260 0
 953 0002 0021     		movs	r1, #0
 954 0004 4FF0FF30 		mov	r0, #-1
 955 0008 FFF7FEFF 		bl	chEvtWaitOneTimeout
 956              	.LVL112:
 957              		.loc 1 261 0
 958 000c B0FA80F1 		clz	r1, r0
ARM GAS  C:\cygwin\tmp\cchzbE9p.s 			page 18


 959 0010 0120     		movs	r0, #1
 960              	.LVL113:
 961 0012 4909     		lsrs	r1, r1, #5
 962 0014 FFF7FEFF 		bl	_test_assert
 963              	.LVL114:
 964 0018 00B1     		cbz	r0, .L33
 965              	.L28:
 966 001a 08BD     		pop	{r3, pc}
 967              	.L33:
 968              		.loc 1 262 0
 969 001c 0146     		mov	r1, r0
 970 001e 4FF0FF30 		mov	r0, #-1
 971 0022 FFF7FEFF 		bl	chEvtWaitAnyTimeout
 972              	.LVL115:
 973              		.loc 1 263 0
 974 0026 B0FA80F1 		clz	r1, r0
 975 002a 0220     		movs	r0, #2
 976              	.LVL116:
 977 002c 4909     		lsrs	r1, r1, #5
 978 002e FFF7FEFF 		bl	_test_assert
 979              	.LVL117:
 980 0032 0028     		cmp	r0, #0
 981 0034 F1D1     		bne	.L28
 982              		.loc 1 264 0
 983 0036 0146     		mov	r1, r0
 984 0038 4FF0FF30 		mov	r0, #-1
 985 003c FFF7FEFF 		bl	chEvtWaitAllTimeout
 986              	.LVL118:
 987              		.loc 1 265 0
 988 0040 B0FA80F1 		clz	r1, r0
 989 0044 0320     		movs	r0, #3
 990              	.LVL119:
 991 0046 4909     		lsrs	r1, r1, #5
 992 0048 FFF7FEFF 		bl	_test_assert
 993              	.LVL120:
 994 004c 0028     		cmp	r0, #0
 995 004e E4D1     		bne	.L28
 996              	.LBB219:
 997              	.LBB220:
 998              		.loc 1 266 0
 999 0050 0A21     		movs	r1, #10
 1000 0052 4FF0FF30 		mov	r0, #-1
 1001 0056 FFF7FEFF 		bl	chEvtWaitOneTimeout
 1002              	.LVL121:
 1003              		.loc 1 267 0
 1004 005a B0FA80F1 		clz	r1, r0
 1005 005e 0420     		movs	r0, #4
 1006              	.LVL122:
 1007 0060 4909     		lsrs	r1, r1, #5
 1008 0062 FFF7FEFF 		bl	_test_assert
 1009              	.LVL123:
 1010 0066 0028     		cmp	r0, #0
 1011 0068 D7D1     		bne	.L28
 1012              		.loc 1 268 0
 1013 006a 0A21     		movs	r1, #10
 1014 006c 4FF0FF30 		mov	r0, #-1
 1015 0070 FFF7FEFF 		bl	chEvtWaitAnyTimeout
ARM GAS  C:\cygwin\tmp\cchzbE9p.s 			page 19


 1016              	.LVL124:
 1017              		.loc 1 269 0
 1018 0074 B0FA80F1 		clz	r1, r0
 1019 0078 0520     		movs	r0, #5
 1020              	.LVL125:
 1021 007a 4909     		lsrs	r1, r1, #5
 1022 007c FFF7FEFF 		bl	_test_assert
 1023              	.LVL126:
 1024 0080 0028     		cmp	r0, #0
 1025 0082 CAD1     		bne	.L28
 1026              		.loc 1 270 0
 1027 0084 0A21     		movs	r1, #10
 1028 0086 4FF0FF30 		mov	r0, #-1
 1029 008a FFF7FEFF 		bl	chEvtWaitAllTimeout
 1030              	.LVL127:
 1031              	.LBE220:
 1032              	.LBE219:
 1033              		.loc 1 272 0
 1034 008e BDE80840 		pop	{r3, lr}
 1035              		.cfi_restore 14
 1036              		.cfi_restore 3
 1037              		.cfi_def_cfa_offset 0
 1038              	.LBB222:
 1039              	.LBB221:
 1040              		.loc 1 271 0
 1041 0092 B0FA80F1 		clz	r1, r0
 1042 0096 0620     		movs	r0, #6
 1043              	.LVL128:
 1044 0098 4909     		lsrs	r1, r1, #5
 1045 009a FFF7FEBF 		b	_test_assert
 1046              	.LVL129:
 1047              	.LBE221:
 1048              	.LBE222:
 1049              		.cfi_endproc
 1050              	.LFE236:
 1051              		.size	evt3_execute, .-evt3_execute
 1052              		.global	patternevt
 1053              		.global	testevt3
 1054              		.global	testevt2
 1055              		.global	testevt1
 1056              		.section	.rodata.patternevt,"a",%progbits
 1057              		.align	2
 1058              		.type	patternevt, %object
 1059              		.size	patternevt, 16
 1060              	patternevt:
 1061 0000 00000000 		.word	testevt1
 1062 0004 00000000 		.word	testevt2
 1063 0008 00000000 		.word	testevt3
 1064 000c 00000000 		.word	0
 1065              		.section	.rodata.testevt2,"a",%progbits
 1066              		.align	2
 1067              		.type	testevt2, %object
 1068              		.size	testevt2, 16
 1069              	testevt2:
 1070 0000 1C000000 		.word	.LC3
 1071 0004 00000000 		.word	evt2_setup
 1072 0008 00000000 		.word	0
ARM GAS  C:\cygwin\tmp\cchzbE9p.s 			page 20


 1073 000c 00000000 		.word	evt2_execute
 1074              		.section	.rodata.str1.4,"aMS",%progbits,1
 1075              		.align	2
 1076              	.LC0:
 1077 0000 41424300 		.ascii	"ABC\000"
 1078              	.LC1:
 1079 0004 4100     		.ascii	"A\000"
 1080 0006 0000     		.space	2
 1081              	.LC2:
 1082 0008 4576656E 		.ascii	"Events, timeouts\000"
 1082      74732C20 
 1082      74696D65 
 1082      6F757473 
 1082      00
 1083 0019 000000   		.space	3
 1084              	.LC3:
 1085 001c 4576656E 		.ascii	"Events, wait and broadcast\000"
 1085      74732C20 
 1085      77616974 
 1085      20616E64 
 1085      2062726F 
 1086 0037 00       		.space	1
 1087              	.LC4:
 1088 0038 4576656E 		.ascii	"Events, registration and dispatch\000"
 1088      74732C20 
 1088      72656769 
 1088      73747261 
 1088      74696F6E 
 1089 005a 0000     		.section	.rodata.testevt1,"a",%progbits
 1090              		.align	2
 1091              		.type	testevt1, %object
 1092              		.size	testevt1, 16
 1093              	testevt1:
 1094 0000 38000000 		.word	.LC4
 1095 0004 00000000 		.word	evt1_setup
 1096 0008 00000000 		.word	0
 1097 000c 00000000 		.word	evt1_execute
 1098              		.section	.rodata.evhndl,"a",%progbits
 1099              		.align	2
 1100              		.set	.LANCHOR1,. + 0
 1101              		.type	evhndl, %object
 1102              		.size	evhndl, 12
 1103              	evhndl:
 1104 0000 00000000 		.word	h1
 1105 0004 00000000 		.word	h2
 1106 0008 00000000 		.word	h3
 1107              		.section	.rodata.testevt3,"a",%progbits
 1108              		.align	2
 1109              		.type	testevt3, %object
 1110              		.size	testevt3, 16
 1111              	testevt3:
 1112 0000 08000000 		.word	.LC2
 1113 0004 00000000 		.word	evt3_setup
 1114 0008 00000000 		.word	0
 1115 000c 00000000 		.word	evt3_execute
 1116              		.section	.data.es1,"aw",%progbits
 1117              		.align	2
ARM GAS  C:\cygwin\tmp\cchzbE9p.s 			page 21


 1118              		.set	.LANCHOR0,. + 0
 1119              		.type	es1, %object
 1120              		.size	es1, 4
 1121              	es1:
 1122 0000 00000000 		.word	es1
 1123              		.section	.data.es2,"aw",%progbits
 1124              		.align	2
 1125              		.set	.LANCHOR2,. + 0
 1126              		.type	es2, %object
 1127              		.size	es2, 4
 1128              	es2:
 1129 0000 00000000 		.word	es2
 1130              		.text
 1131              	.Letext0:
 1132              		.file 6 "c:\\program files\\gnu tools arm embedded\\4.9 2014q4\\lib\\gcc\\arm-none-eabi\\4.9.3\\in
 1133              		.file 7 "c:\\program files\\gnu tools arm embedded\\4.9 2014q4\\arm-none-eabi\\include\\machine\\_
 1134              		.file 8 "c:\\program files\\gnu tools arm embedded\\4.9 2014q4\\arm-none-eabi\\include\\stdint.h"
 1135              		.file 9 "../../../os/rt/ports/ARMCMx/compilers/GCC/chtypes.h"
 1136              		.file 10 "../../../os/rt/include/chsystypes.h"
 1137              		.file 11 "../../../os/rt/include/chschd.h"
 1138              		.file 12 "../../../os/rt/ports/ARMCMx/chcore.h"
 1139              		.file 13 "../../../os/rt/ports/ARMCMx/chcore_v7m.h"
 1140              		.file 14 "../../../os/hal/ports/STM32/LLD/TIMv1/stm32_tim.h"
 1141              		.file 15 "../../../os/rt/include/chtm.h"
 1142              		.file 16 "../../../os/rt/include/chmtx.h"
 1143              		.file 17 "../../../test/rt/test.h"
 1144              		.file 18 "../../../os/rt/ports/ARMCMx/chcore_timer.h"
 1145              		.file 19 "../../../os/rt/include/chsys.h"
 1146              		.file 20 "../../../os/rt/include/chvt.h"
 1147              		.file 21 "../../../os/ext/CMSIS/include/core_cm4.h"