ARM GAS  C:\cygwin\tmp\ccmkEb0o.s 			page 1


   1              		.syntax unified
   2              		.cpu cortex-m4
   3              		.fpu softvfp
   4              		.eabi_attribute 20, 1
   5              		.eabi_attribute 21, 1
   6              		.eabi_attribute 23, 3
   7              		.eabi_attribute 24, 1
   8              		.eabi_attribute 25, 1
   9              		.eabi_attribute 26, 1
  10              		.eabi_attribute 30, 2
  11              		.eabi_attribute 34, 1
  12              		.eabi_attribute 18, 4
  13              		.thumb
  14              		.file	"testmtx.c"
  15              		.text
  16              	.Ltext0:
  17              		.cfi_sections	.debug_frame
  18              		.section	.text.mtx1_execute,"ax",%progbits
  19              		.align	2
  20              		.p2align 4,,15
  21              		.thumb
  22              		.thumb_func
  23              		.type	mtx1_execute, %function
  24              	mtx1_execute:
  25              	.LFB228:
  26              		.file 1 "../../../test/rt/testmtx.c"
  27              		.loc 1 97 0
  28              		.cfi_startproc
  29              		@ args = 0, pretend = 0, frame = 0
  30              		@ frame_needed = 0, uses_anonymous_args = 0
  31 0000 F0B5     		push	{r4, r5, r6, r7, lr}
  32              		.cfi_def_cfa_offset 20
  33              		.cfi_offset 4, -20
  34              		.cfi_offset 5, -16
  35              		.cfi_offset 6, -12
  36              		.cfi_offset 7, -8
  37              		.cfi_offset 14, -4
  38              	.LBB138:
  39              	.LBB139:
  40              	.LBB140:
  41              	.LBB141:
  42              		.file 2 "../../../os/rt/include/chthreads.h"
  43              		.loc 2 179 0
  44 0002 2B4F     		ldr	r7, .L6
  45              	.LBE141:
  46              	.LBE140:
  47              	.LBE139:
  48              	.LBE138:
  49              		.loc 1 101 0
  50 0004 2B4E     		ldr	r6, .L6+4
  51              	.LBB144:
  52              	.LBB142:
  53              		.loc 2 192 0
  54 0006 BB69     		ldr	r3, [r7, #24]
  55              	.LBE142:
  56              	.LBE144:
  57              		.loc 1 100 0
ARM GAS  C:\cygwin\tmp\ccmkEb0o.s 			page 2


  58 0008 2B48     		ldr	r0, .L6+8
  59              	.LBB145:
  60              	.LBB143:
  61              		.loc 2 192 0
  62 000a 9C68     		ldr	r4, [r3, #8]
  63              	.LBE143:
  64              	.LBE145:
  65              		.loc 1 101 0
  66 000c 2B4D     		ldr	r5, .L6+12
  67              		.loc 1 97 0
  68 000e 83B0     		sub	sp, sp, #12
  69              		.cfi_def_cfa_offset 32
  70              		.loc 1 100 0
  71 0010 FFF7FEFF 		bl	chMtxLock
  72              	.LVL0:
  73              		.loc 1 101 0
  74 0014 2A4B     		ldr	r3, .L6+16
  75 0016 0093     		str	r3, [sp]
  76 0018 621C     		adds	r2, r4, #1
  77 001a 4FF4A471 		mov	r1, #328
  78 001e 294B     		ldr	r3, .L6+20
  79 0020 3068     		ldr	r0, [r6]
  80 0022 FFF7FEFF 		bl	chThdCreateStatic
  81              	.LVL1:
  82              		.loc 1 102 0
  83 0026 7168     		ldr	r1, [r6, #4]
  84 0028 274B     		ldr	r3, .L6+24
  85              		.loc 1 101 0
  86 002a 2860     		str	r0, [r5]
  87              		.loc 1 102 0
  88 002c A21C     		adds	r2, r4, #2
  89 002e 0846     		mov	r0, r1
  90 0030 0093     		str	r3, [sp]
  91 0032 4FF4A471 		mov	r1, #328
  92 0036 234B     		ldr	r3, .L6+20
  93 0038 FFF7FEFF 		bl	chThdCreateStatic
  94              	.LVL2:
  95              		.loc 1 103 0
  96 003c B168     		ldr	r1, [r6, #8]
  97 003e 234B     		ldr	r3, .L6+28
  98              		.loc 1 102 0
  99 0040 6860     		str	r0, [r5, #4]
 100              		.loc 1 103 0
 101 0042 E21C     		adds	r2, r4, #3
 102 0044 0846     		mov	r0, r1
 103 0046 0093     		str	r3, [sp]
 104 0048 4FF4A471 		mov	r1, #328
 105 004c 1D4B     		ldr	r3, .L6+20
 106 004e FFF7FEFF 		bl	chThdCreateStatic
 107              	.LVL3:
 108              		.loc 1 104 0
 109 0052 F168     		ldr	r1, [r6, #12]
 110 0054 1E4B     		ldr	r3, .L6+32
 111              		.loc 1 103 0
 112 0056 A860     		str	r0, [r5, #8]
 113              		.loc 1 104 0
 114 0058 221D     		adds	r2, r4, #4
ARM GAS  C:\cygwin\tmp\ccmkEb0o.s 			page 3


 115 005a 0846     		mov	r0, r1
 116 005c 0093     		str	r3, [sp]
 117 005e 4FF4A471 		mov	r1, #328
 118 0062 184B     		ldr	r3, .L6+20
 119 0064 FFF7FEFF 		bl	chThdCreateStatic
 120              	.LVL4:
 121              		.loc 1 105 0
 122 0068 3169     		ldr	r1, [r6, #16]
 123 006a 1A4B     		ldr	r3, .L6+36
 124              		.loc 1 104 0
 125 006c E860     		str	r0, [r5, #12]
 126              		.loc 1 105 0
 127 006e 621D     		adds	r2, r4, #5
 128 0070 0846     		mov	r0, r1
 129 0072 0093     		str	r3, [sp]
 130 0074 4FF4A471 		mov	r1, #328
 131 0078 124B     		ldr	r3, .L6+20
 132 007a FFF7FEFF 		bl	chThdCreateStatic
 133              	.LVL5:
 134 007e 2861     		str	r0, [r5, #16]
 135              		.loc 1 106 0
 136 0080 0D48     		ldr	r0, .L6+8
 137 0082 FFF7FEFF 		bl	chMtxUnlock
 138              	.LVL6:
 139              		.loc 1 107 0
 140 0086 FFF7FEFF 		bl	test_wait_threads
 141              	.LVL7:
 142              	.LBB146:
 143              	.LBB147:
 144              		.loc 2 192 0
 145 008a BB69     		ldr	r3, [r7, #24]
 146              	.LBE147:
 147              	.LBE146:
 148              		.loc 1 108 0
 149 008c 9968     		ldr	r1, [r3, #8]
 150 008e 0120     		movs	r0, #1
 151 0090 611A     		subs	r1, r4, r1
 152 0092 B1FA81F1 		clz	r1, r1
 153 0096 4909     		lsrs	r1, r1, #5
 154 0098 FFF7FEFF 		bl	_test_assert
 155              	.LVL8:
 156 009c 08B1     		cbz	r0, .L5
 157              		.loc 1 110 0
 158 009e 03B0     		add	sp, sp, #12
 159              		.cfi_remember_state
 160              		.cfi_def_cfa_offset 20
 161              		@ sp needed
 162 00a0 F0BD     		pop	{r4, r5, r6, r7, pc}
 163              	.L5:
 164              		.cfi_restore_state
 165              		.loc 1 109 0
 166 00a2 0D49     		ldr	r1, .L6+40
 167 00a4 0220     		movs	r0, #2
 168              		.loc 1 110 0
 169 00a6 03B0     		add	sp, sp, #12
 170              		.cfi_def_cfa_offset 20
 171              		@ sp needed
ARM GAS  C:\cygwin\tmp\ccmkEb0o.s 			page 4


 172 00a8 BDE8F040 		pop	{r4, r5, r6, r7, lr}
 173              		.cfi_restore 14
 174              		.cfi_restore 7
 175              		.cfi_restore 6
 176              		.cfi_restore 5
 177              		.cfi_restore 4
 178              		.cfi_def_cfa_offset 0
 179              		.loc 1 109 0
 180 00ac FFF7FEBF 		b	_test_assert_sequence
 181              	.LVL9:
 182              	.L7:
 183              		.align	2
 184              	.L6:
 185 00b0 00000000 		.word	ch
 186 00b4 00000000 		.word	wa
 187 00b8 00000000 		.word	.LANCHOR0
 188 00bc 00000000 		.word	threads
 189 00c0 00000000 		.word	.LC0
 190 00c4 00000000 		.word	thread1
 191 00c8 04000000 		.word	.LC1
 192 00cc 08000000 		.word	.LC2
 193 00d0 0C000000 		.word	.LC3
 194 00d4 10000000 		.word	.LC4
 195 00d8 14000000 		.word	.LC5
 196              		.cfi_endproc
 197              	.LFE228:
 198              		.size	mtx1_execute, .-mtx1_execute
 199 00dc AFF30080 		.section	.text.thread1,"ax",%progbits
 200              		.align	2
 201              		.p2align 4,,15
 202              		.thumb
 203              		.thumb_func
 204              		.type	thread1, %function
 205              	thread1:
 206              	.LFB227:
 207              		.loc 1 89 0
 208              		.cfi_startproc
 209              		@ args = 0, pretend = 0, frame = 0
 210              		@ frame_needed = 0, uses_anonymous_args = 0
 211              	.LVL10:
 212 0000 38B5     		push	{r3, r4, r5, lr}
 213              		.cfi_def_cfa_offset 16
 214              		.cfi_offset 3, -16
 215              		.cfi_offset 4, -12
 216              		.cfi_offset 5, -8
 217              		.cfi_offset 14, -4
 218              		.loc 1 91 0
 219 0002 064C     		ldr	r4, .L10
 220              		.loc 1 89 0
 221 0004 0546     		mov	r5, r0
 222              		.loc 1 91 0
 223 0006 2046     		mov	r0, r4
 224              	.LVL11:
 225 0008 FFF7FEFF 		bl	chMtxLock
 226              	.LVL12:
 227              		.loc 1 92 0
 228 000c 2878     		ldrb	r0, [r5]	@ zero_extendqisi2
ARM GAS  C:\cygwin\tmp\ccmkEb0o.s 			page 5


 229 000e FFF7FEFF 		bl	test_emit_token
 230              	.LVL13:
 231              		.loc 1 93 0
 232 0012 2046     		mov	r0, r4
 233 0014 FFF7FEFF 		bl	chMtxUnlock
 234              	.LVL14:
 235              		.loc 1 95 0
 236 0018 0020     		movs	r0, #0
 237 001a 38BD     		pop	{r3, r4, r5, pc}
 238              	.LVL15:
 239              	.L11:
 240              		.align	2
 241              	.L10:
 242 001c 00000000 		.word	.LANCHOR0
 243              		.cfi_endproc
 244              	.LFE227:
 245              		.size	thread1, .-thread1
 246              		.section	.text.thread12,"ax",%progbits
 247              		.align	2
 248              		.p2align 4,,15
 249              		.thumb
 250              		.thumb_func
 251              		.type	thread12, %function
 252              	thread12:
 253              	.LFB242:
 254              		.loc 1 589 0
 255              		.cfi_startproc
 256              		@ args = 0, pretend = 0, frame = 0
 257              		@ frame_needed = 0, uses_anonymous_args = 0
 258              	.LVL16:
 259 0000 38B5     		push	{r3, r4, r5, lr}
 260              		.cfi_def_cfa_offset 16
 261              		.cfi_offset 3, -16
 262              		.cfi_offset 4, -12
 263              		.cfi_offset 5, -8
 264              		.cfi_offset 14, -4
 265              		.loc 1 591 0
 266 0002 064C     		ldr	r4, .L14
 267              		.loc 1 589 0
 268 0004 0546     		mov	r5, r0
 269              		.loc 1 591 0
 270 0006 2046     		mov	r0, r4
 271              	.LVL17:
 272 0008 FFF7FEFF 		bl	chMtxLock
 273              	.LVL18:
 274              		.loc 1 592 0
 275 000c 2878     		ldrb	r0, [r5]	@ zero_extendqisi2
 276 000e FFF7FEFF 		bl	test_emit_token
 277              	.LVL19:
 278              		.loc 1 593 0
 279 0012 2046     		mov	r0, r4
 280 0014 FFF7FEFF 		bl	chMtxUnlock
 281              	.LVL20:
 282              		.loc 1 595 0
 283 0018 0020     		movs	r0, #0
 284 001a 38BD     		pop	{r3, r4, r5, pc}
 285              	.LVL21:
ARM GAS  C:\cygwin\tmp\ccmkEb0o.s 			page 6


 286              	.L15:
 287              		.align	2
 288              	.L14:
 289 001c 00000000 		.word	.LANCHOR1
 290              		.cfi_endproc
 291              	.LFE242:
 292              		.size	thread12, .-thread12
 293              		.section	.text.mtx1_setup,"ax",%progbits
 294              		.align	2
 295              		.p2align 4,,15
 296              		.thumb
 297              		.thumb_func
 298              		.type	mtx1_setup, %function
 299              	mtx1_setup:
 300              	.LFB226:
 301              		.loc 1 84 0
 302              		.cfi_startproc
 303              		@ args = 0, pretend = 0, frame = 0
 304              		@ frame_needed = 0, uses_anonymous_args = 0
 305              		@ link register save eliminated.
 306              		.loc 1 86 0
 307 0000 0148     		ldr	r0, .L17
 308 0002 FFF7FEBF 		b	chMtxObjectInit
 309              	.LVL22:
 310              	.L18:
 311 0006 00BF     		.align	2
 312              	.L17:
 313 0008 00000000 		.word	.LANCHOR0
 314              		.cfi_endproc
 315              	.LFE226:
 316              		.size	mtx1_setup, .-mtx1_setup
 317 000c AFF30080 		.section	.text.mtx4_setup,"ax",%progbits
 318              		.align	2
 319              		.p2align 4,,15
 320              		.thumb
 321              		.thumb_func
 322              		.type	mtx4_setup, %function
 323              	mtx4_setup:
 324              	.LFB229:
 325              		.loc 1 341 0
 326              		.cfi_startproc
 327              		@ args = 0, pretend = 0, frame = 0
 328              		@ frame_needed = 0, uses_anonymous_args = 0
 329 0000 08B5     		push	{r3, lr}
 330              		.cfi_def_cfa_offset 8
 331              		.cfi_offset 3, -8
 332              		.cfi_offset 14, -4
 333              		.loc 1 343 0
 334 0002 0448     		ldr	r0, .L21
 335 0004 FFF7FEFF 		bl	chMtxObjectInit
 336              	.LVL23:
 337              		.loc 1 344 0
 338 0008 0348     		ldr	r0, .L21+4
 339              		.loc 1 345 0
 340 000a BDE80840 		pop	{r3, lr}
 341              		.cfi_restore 14
 342              		.cfi_restore 3
ARM GAS  C:\cygwin\tmp\ccmkEb0o.s 			page 7


 343              		.cfi_def_cfa_offset 0
 344              		.loc 1 344 0
 345 000e FFF7FEBF 		b	chMtxObjectInit
 346              	.LVL24:
 347              	.L22:
 348 0012 00BF     		.align	2
 349              	.L21:
 350 0014 00000000 		.word	.LANCHOR0
 351 0018 00000000 		.word	.LANCHOR1
 352              		.cfi_endproc
 353              	.LFE229:
 354              		.size	mtx4_setup, .-mtx4_setup
 355 001c AFF30080 		.section	.text.mtx5_setup,"ax",%progbits
 356              		.align	2
 357              		.p2align 4,,15
 358              		.thumb
 359              		.thumb_func
 360              		.type	mtx5_setup, %function
 361              	mtx5_setup:
 362              	.LFB233:
 363              		.loc 1 429 0
 364              		.cfi_startproc
 365              		@ args = 0, pretend = 0, frame = 0
 366              		@ frame_needed = 0, uses_anonymous_args = 0
 367              		@ link register save eliminated.
 368              		.loc 1 431 0
 369 0000 0148     		ldr	r0, .L24
 370 0002 FFF7FEBF 		b	chMtxObjectInit
 371              	.LVL25:
 372              	.L25:
 373 0006 00BF     		.align	2
 374              	.L24:
 375 0008 00000000 		.word	.LANCHOR0
 376              		.cfi_endproc
 377              	.LFE233:
 378              		.size	mtx5_setup, .-mtx5_setup
 379 000c AFF30080 		.section	.text.thread4b,"ax",%progbits
 380              		.align	2
 381              		.p2align 4,,15
 382              		.thumb
 383              		.thumb_func
 384              		.type	thread4b, %function
 385              	thread4b:
 386              	.LFB231:
 387              		.loc 1 356 0
 388              		.cfi_startproc
 389              		@ args = 0, pretend = 0, frame = 0
 390              		@ frame_needed = 0, uses_anonymous_args = 0
 391              	.LVL26:
 392 0000 10B5     		push	{r4, lr}
 393              		.cfi_def_cfa_offset 8
 394              		.cfi_offset 4, -8
 395              		.cfi_offset 14, -4
 396              		.loc 1 360 0
 397 0002 064C     		ldr	r4, .L28
 398              		.loc 1 359 0
 399 0004 40F2DC50 		movw	r0, #1500
ARM GAS  C:\cygwin\tmp\ccmkEb0o.s 			page 8


 400              	.LVL27:
 401 0008 FFF7FEFF 		bl	chThdSleep
 402              	.LVL28:
 403              		.loc 1 360 0
 404 000c 2046     		mov	r0, r4
 405 000e FFF7FEFF 		bl	chMtxLock
 406              	.LVL29:
 407              		.loc 1 361 0
 408 0012 2046     		mov	r0, r4
 409 0014 FFF7FEFF 		bl	chMtxUnlock
 410              	.LVL30:
 411              		.loc 1 363 0
 412 0018 0020     		movs	r0, #0
 413 001a 10BD     		pop	{r4, pc}
 414              	.L29:
 415              		.align	2
 416              	.L28:
 417 001c 00000000 		.word	.LANCHOR0
 418              		.cfi_endproc
 419              	.LFE231:
 420              		.size	thread4b, .-thread4b
 421              		.section	.text.thread4a,"ax",%progbits
 422              		.align	2
 423              		.p2align 4,,15
 424              		.thumb
 425              		.thumb_func
 426              		.type	thread4a, %function
 427              	thread4a:
 428              	.LFB230:
 429              		.loc 1 347 0
 430              		.cfi_startproc
 431              		@ args = 0, pretend = 0, frame = 0
 432              		@ frame_needed = 0, uses_anonymous_args = 0
 433              	.LVL31:
 434 0000 10B5     		push	{r4, lr}
 435              		.cfi_def_cfa_offset 8
 436              		.cfi_offset 4, -8
 437              		.cfi_offset 14, -4
 438              		.loc 1 351 0
 439 0002 064C     		ldr	r4, .L32
 440              		.loc 1 350 0
 441 0004 4FF4FA70 		mov	r0, #500
 442              	.LVL32:
 443 0008 FFF7FEFF 		bl	chThdSleep
 444              	.LVL33:
 445              		.loc 1 351 0
 446 000c 2046     		mov	r0, r4
 447 000e FFF7FEFF 		bl	chMtxLock
 448              	.LVL34:
 449              		.loc 1 352 0
 450 0012 2046     		mov	r0, r4
 451 0014 FFF7FEFF 		bl	chMtxUnlock
 452              	.LVL35:
 453              		.loc 1 354 0
 454 0018 0020     		movs	r0, #0
 455 001a 10BD     		pop	{r4, pc}
 456              	.L33:
ARM GAS  C:\cygwin\tmp\ccmkEb0o.s 			page 9


 457              		.align	2
 458              	.L32:
 459 001c 00000000 		.word	.LANCHOR1
 460              		.cfi_endproc
 461              	.LFE230:
 462              		.size	thread4a, .-thread4a
 463              		.section	.text.mtx4_execute,"ax",%progbits
 464              		.align	2
 465              		.p2align 4,,15
 466              		.thumb
 467              		.thumb_func
 468              		.type	mtx4_execute, %function
 469              	mtx4_execute:
 470              	.LFB232:
 471              		.loc 1 365 0
 472              		.cfi_startproc
 473              		@ args = 0, pretend = 0, frame = 8
 474              		@ frame_needed = 0, uses_anonymous_args = 0
 475 0000 2DE9F046 		push	{r4, r5, r6, r7, r9, r10, lr}
 476              		.cfi_def_cfa_offset 28
 477              		.cfi_offset 4, -28
 478              		.cfi_offset 5, -24
 479              		.cfi_offset 6, -20
 480              		.cfi_offset 7, -16
 481              		.cfi_offset 9, -12
 482              		.cfi_offset 10, -8
 483              		.cfi_offset 14, -4
 484              	.LBB148:
 485              	.LBB149:
 486              	.LBB150:
 487              	.LBB151:
 488              		.loc 2 179 0
 489 0004 8E4D     		ldr	r5, .L40
 490              	.LBE151:
 491              	.LBE150:
 492              	.LBE149:
 493              	.LBE148:
 494              		.loc 1 371 0
 495 0006 8F4E     		ldr	r6, .L40+4
 496              	.LBB154:
 497              	.LBB152:
 498              		.loc 2 192 0
 499 0008 AB69     		ldr	r3, [r5, #24]
 500              	.LBE152:
 501              	.LBE154:
 502              		.loc 1 371 0
 503 000a 3268     		ldr	r2, [r6]
 504              	.LBB155:
 505              	.LBB153:
 506              		.loc 2 192 0
 507 000c 9C68     		ldr	r4, [r3, #8]
 508              	.LBE153:
 509              	.LBE155:
 510              		.loc 1 371 0
 511 000e 8E4B     		ldr	r3, .L40+8
 512 0010 8E4F     		ldr	r7, .L40+12
 513              		.loc 1 365 0
ARM GAS  C:\cygwin\tmp\ccmkEb0o.s 			page 10


 514 0012 85B0     		sub	sp, sp, #20
 515              		.cfi_def_cfa_offset 48
 516              		.loc 1 369 0
 517 0014 04F10109 		add	r9, r4, #1
 518              	.LVL36:
 519              		.loc 1 371 0
 520 0018 1046     		mov	r0, r2
 521 001a 0392     		str	r2, [sp, #12]
 522 001c 0093     		str	r3, [sp]
 523 001e 4A46     		mov	r2, r9
 524 0020 4FF4A471 		mov	r1, #328
 525 0024 8A4B     		ldr	r3, .L40+16
 526 0026 FFF7FEFF 		bl	chThdCreateStatic
 527              	.LVL37:
 528              		.loc 1 372 0
 529 002a 7668     		ldr	r6, [r6, #4]
 530 002c 894B     		ldr	r3, .L40+20
 531              		.loc 1 371 0
 532 002e 3860     		str	r0, [r7]
 533              		.loc 1 370 0
 534 0030 04F1020A 		add	r10, r4, #2
 535              	.LVL38:
 536              		.loc 1 372 0
 537 0034 4FF4A471 		mov	r1, #328
 538 0038 5246     		mov	r2, r10
 539 003a 0093     		str	r3, [sp]
 540 003c 3046     		mov	r0, r6
 541 003e 864B     		ldr	r3, .L40+24
 542 0040 FFF7FEFF 		bl	chThdCreateStatic
 543              	.LVL39:
 544 0044 7860     		str	r0, [r7, #4]
 545              		.loc 1 373 0
 546 0046 8548     		ldr	r0, .L40+28
 547 0048 FFF7FEFF 		bl	chMtxLock
 548              	.LVL40:
 549              	.LBB156:
 550              	.LBB157:
 551              		.loc 2 192 0
 552 004c AB69     		ldr	r3, [r5, #24]
 553              	.LBE157:
 554              	.LBE156:
 555              		.loc 1 374 0
 556 004e 9968     		ldr	r1, [r3, #8]
 557 0050 0120     		movs	r0, #1
 558 0052 611A     		subs	r1, r4, r1
 559 0054 B1FA81F1 		clz	r1, r1
 560 0058 4909     		lsrs	r1, r1, #5
 561 005a FFF7FEFF 		bl	_test_assert
 562              	.LVL41:
 563 005e 10B1     		cbz	r0, .L39
 564              	.L34:
 565              		.loc 1 410 0
 566 0060 05B0     		add	sp, sp, #20
 567              		.cfi_remember_state
 568              		.cfi_def_cfa_offset 28
 569              		@ sp needed
 570 0062 BDE8F086 		pop	{r4, r5, r6, r7, r9, r10, pc}
ARM GAS  C:\cygwin\tmp\ccmkEb0o.s 			page 11


 571              	.LVL42:
 572              	.L39:
 573              		.cfi_restore_state
 574              		.loc 1 375 0
 575 0066 4FF47A70 		mov	r0, #1000
 576 006a FFF7FEFF 		bl	chThdSleep
 577              	.LVL43:
 578              	.LBB158:
 579              	.LBB159:
 580              		.loc 2 192 0
 581 006e AB69     		ldr	r3, [r5, #24]
 582              	.LBE159:
 583              	.LBE158:
 584              		.loc 1 376 0
 585 0070 9968     		ldr	r1, [r3, #8]
 586 0072 0220     		movs	r0, #2
 587 0074 C1EB0901 		rsb	r1, r1, r9
 588 0078 B1FA81F1 		clz	r1, r1
 589 007c 4909     		lsrs	r1, r1, #5
 590 007e FFF7FEFF 		bl	_test_assert
 591              	.LVL44:
 592 0082 0028     		cmp	r0, #0
 593 0084 ECD1     		bne	.L34
 594              		.loc 1 377 0
 595 0086 7648     		ldr	r0, .L40+32
 596 0088 FFF7FEFF 		bl	chMtxLock
 597              	.LVL45:
 598              	.LBB160:
 599              	.LBB161:
 600              		.loc 2 192 0
 601 008c AB69     		ldr	r3, [r5, #24]
 602              	.LBE161:
 603              	.LBE160:
 604              		.loc 1 378 0
 605 008e 9968     		ldr	r1, [r3, #8]
 606 0090 0320     		movs	r0, #3
 607 0092 C1EB0901 		rsb	r1, r1, r9
 608 0096 B1FA81F1 		clz	r1, r1
 609 009a 4909     		lsrs	r1, r1, #5
 610 009c FFF7FEFF 		bl	_test_assert
 611              	.LVL46:
 612 00a0 0028     		cmp	r0, #0
 613 00a2 DDD1     		bne	.L34
 614              		.loc 1 379 0
 615 00a4 4FF47A70 		mov	r0, #1000
 616 00a8 FFF7FEFF 		bl	chThdSleep
 617              	.LVL47:
 618              	.LBB162:
 619              	.LBB163:
 620              		.loc 2 192 0
 621 00ac AB69     		ldr	r3, [r5, #24]
 622              	.LBE163:
 623              	.LBE162:
 624              		.loc 1 380 0
 625 00ae 9968     		ldr	r1, [r3, #8]
 626 00b0 0420     		movs	r0, #4
 627 00b2 C1EB0A01 		rsb	r1, r1, r10
ARM GAS  C:\cygwin\tmp\ccmkEb0o.s 			page 12


 628 00b6 B1FA81F1 		clz	r1, r1
 629 00ba 4909     		lsrs	r1, r1, #5
 630 00bc FFF7FEFF 		bl	_test_assert
 631              	.LVL48:
 632 00c0 0028     		cmp	r0, #0
 633 00c2 CDD1     		bne	.L34
 634              		.loc 1 381 0
 635 00c4 6648     		ldr	r0, .L40+32
 636 00c6 FFF7FEFF 		bl	chMtxUnlock
 637              	.LVL49:
 638              	.LBB164:
 639              	.LBB165:
 640              		.loc 2 192 0
 641 00ca AB69     		ldr	r3, [r5, #24]
 642              	.LBE165:
 643              	.LBE164:
 644              		.loc 1 382 0
 645 00cc 9968     		ldr	r1, [r3, #8]
 646 00ce 0520     		movs	r0, #5
 647 00d0 C1EB0901 		rsb	r1, r1, r9
 648 00d4 B1FA81F1 		clz	r1, r1
 649 00d8 4909     		lsrs	r1, r1, #5
 650 00da FFF7FEFF 		bl	_test_assert
 651              	.LVL50:
 652 00de 0028     		cmp	r0, #0
 653 00e0 BED1     		bne	.L34
 654              		.loc 1 383 0
 655 00e2 4FF47A70 		mov	r0, #1000
 656 00e6 FFF7FEFF 		bl	chThdSleep
 657              	.LVL51:
 658              	.LBB166:
 659              	.LBB167:
 660              		.loc 2 192 0
 661 00ea AB69     		ldr	r3, [r5, #24]
 662              	.LBE167:
 663              	.LBE166:
 664              		.loc 1 384 0
 665 00ec 9968     		ldr	r1, [r3, #8]
 666 00ee 0620     		movs	r0, #6
 667 00f0 C1EB0901 		rsb	r1, r1, r9
 668 00f4 B1FA81F1 		clz	r1, r1
 669 00f8 4909     		lsrs	r1, r1, #5
 670 00fa FFF7FEFF 		bl	_test_assert
 671              	.LVL52:
 672 00fe 0028     		cmp	r0, #0
 673 0100 AED1     		bne	.L34
 674              		.loc 1 385 0
 675 0102 FFF7FEFF 		bl	chMtxUnlockAll
 676              	.LVL53:
 677              	.LBB168:
 678              	.LBB169:
 679              		.loc 2 192 0
 680 0106 AB69     		ldr	r3, [r5, #24]
 681              	.LBE169:
 682              	.LBE168:
 683              		.loc 1 386 0
 684 0108 9968     		ldr	r1, [r3, #8]
ARM GAS  C:\cygwin\tmp\ccmkEb0o.s 			page 13


 685 010a 0720     		movs	r0, #7
 686 010c 611A     		subs	r1, r4, r1
 687 010e B1FA81F1 		clz	r1, r1
 688 0112 4909     		lsrs	r1, r1, #5
 689 0114 FFF7FEFF 		bl	_test_assert
 690              	.LVL54:
 691 0118 0028     		cmp	r0, #0
 692 011a A1D1     		bne	.L34
 693              		.loc 1 387 0
 694 011c FFF7FEFF 		bl	test_wait_threads
 695              	.LVL55:
 696              		.loc 1 390 0
 697 0120 504B     		ldr	r3, .L40+36
 698 0122 0093     		str	r3, [sp]
 699 0124 4FF4A471 		mov	r1, #328
 700 0128 4A46     		mov	r2, r9
 701 012a 494B     		ldr	r3, .L40+16
 702 012c 0398     		ldr	r0, [sp, #12]
 703 012e FFF7FEFF 		bl	chThdCreateStatic
 704              	.LVL56:
 705              		.loc 1 391 0
 706 0132 4D4B     		ldr	r3, .L40+40
 707              		.loc 1 390 0
 708 0134 3860     		str	r0, [r7]
 709              		.loc 1 391 0
 710 0136 4FF4A471 		mov	r1, #328
 711 013a 0093     		str	r3, [sp]
 712 013c 5246     		mov	r2, r10
 713 013e 464B     		ldr	r3, .L40+24
 714 0140 3046     		mov	r0, r6
 715 0142 FFF7FEFF 		bl	chThdCreateStatic
 716              	.LVL57:
 717 0146 7860     		str	r0, [r7, #4]
 718              		.loc 1 392 0
 719 0148 4448     		ldr	r0, .L40+28
 720 014a FFF7FEFF 		bl	chMtxLock
 721              	.LVL58:
 722              	.LBB170:
 723              	.LBB171:
 724              		.loc 2 192 0
 725 014e AB69     		ldr	r3, [r5, #24]
 726              	.LBE171:
 727              	.LBE170:
 728              		.loc 1 393 0
 729 0150 9968     		ldr	r1, [r3, #8]
 730 0152 0820     		movs	r0, #8
 731 0154 611A     		subs	r1, r4, r1
 732 0156 B1FA81F1 		clz	r1, r1
 733 015a 4909     		lsrs	r1, r1, #5
 734 015c FFF7FEFF 		bl	_test_assert
 735              	.LVL59:
 736 0160 0028     		cmp	r0, #0
 737 0162 7FF47DAF 		bne	.L34
 738              		.loc 1 394 0
 739 0166 4FF47A70 		mov	r0, #1000
 740 016a FFF7FEFF 		bl	chThdSleep
 741              	.LVL60:
ARM GAS  C:\cygwin\tmp\ccmkEb0o.s 			page 14


 742              	.LBB172:
 743              	.LBB173:
 744              		.loc 2 192 0
 745 016e AB69     		ldr	r3, [r5, #24]
 746              	.LBE173:
 747              	.LBE172:
 748              		.loc 1 395 0
 749 0170 9968     		ldr	r1, [r3, #8]
 750 0172 C1EB090C 		rsb	ip, r1, r9
 751 0176 DCF10001 		rsbs	r1, ip, #0
 752 017a 41EB0C01 		adc	r1, r1, ip
 753 017e 0920     		movs	r0, #9
 754 0180 FFF7FEFF 		bl	_test_assert
 755              	.LVL61:
 756 0184 0028     		cmp	r0, #0
 757 0186 7FF46BAF 		bne	.L34
 758              		.loc 1 396 0
 759 018a 3548     		ldr	r0, .L40+32
 760 018c FFF7FEFF 		bl	chMtxLock
 761              	.LVL62:
 762              	.LBB174:
 763              	.LBB175:
 764              		.loc 2 192 0
 765 0190 AB69     		ldr	r3, [r5, #24]
 766              	.LBE175:
 767              	.LBE174:
 768              		.loc 1 397 0
 769 0192 9968     		ldr	r1, [r3, #8]
 770 0194 C1EB090E 		rsb	lr, r1, r9
 771 0198 DEF10001 		rsbs	r1, lr, #0
 772 019c 41EB0E01 		adc	r1, r1, lr
 773 01a0 0A20     		movs	r0, #10
 774 01a2 FFF7FEFF 		bl	_test_assert
 775              	.LVL63:
 776 01a6 0028     		cmp	r0, #0
 777 01a8 7FF45AAF 		bne	.L34
 778              		.loc 1 398 0
 779 01ac 4FF47A70 		mov	r0, #1000
 780 01b0 FFF7FEFF 		bl	chThdSleep
 781              	.LVL64:
 782              	.LBB176:
 783              	.LBB177:
 784              		.loc 2 192 0
 785 01b4 AB69     		ldr	r3, [r5, #24]
 786              	.LBE177:
 787              	.LBE176:
 788              		.loc 1 399 0
 789 01b6 9968     		ldr	r1, [r3, #8]
 790 01b8 C1EB0A07 		rsb	r7, r1, r10
 791 01bc 7942     		rsbs	r1, r7, #0
 792 01be 4FF00B00 		mov	r0, #11
 793 01c2 7941     		adcs	r1, r1, r7
 794 01c4 FFF7FEFF 		bl	_test_assert
 795              	.LVL65:
 796 01c8 0646     		mov	r6, r0
 797 01ca 0028     		cmp	r0, #0
 798 01cc 7FF448AF 		bne	.L34
ARM GAS  C:\cygwin\tmp\ccmkEb0o.s 			page 15


 799              	.LVL66:
 800              	.LBB178:
 801              	.LBB179:
 802              	.LBB180:
 803              	.LBB181:
 804              		.file 3 "../../../os/ext/CMSIS/include/core_cmFunc.h"
 805              		.loc 3 546 0
 806 01d0 2023     		movs	r3, #32
 807              	@ 546 "../../../os/ext/CMSIS/include/core_cmFunc.h" 1
 808 01d2 83F31188 		MSR basepri, r3
 809              	@ 0 "" 2
 810              		.thumb
 811              	.LBE181:
 812              	.LBE180:
 813              	.LBE179:
 814              	.LBE178:
 815              		.loc 1 401 0
 816 01d6 2248     		ldr	r0, .L40+32
 817 01d8 FFF7FEFF 		bl	chMtxUnlockS
 818              	.LVL67:
 819              		.loc 1 402 0
 820 01dc FFF7FEFF 		bl	chSchRescheduleS
 821              	.LVL68:
 822              	.LBB182:
 823              	.LBB183:
 824              	.LBB184:
 825              	.LBB185:
 826              	.LBB186:
 827              		.loc 3 546 0
 828              	@ 546 "../../../os/ext/CMSIS/include/core_cmFunc.h" 1
 829 01e0 86F31188 		MSR basepri, r6
 830              	@ 0 "" 2
 831              		.thumb
 832              	.LBE186:
 833              	.LBE185:
 834              	.LBE184:
 835              	.LBE183:
 836              	.LBE182:
 837              	.LBB187:
 838              	.LBB188:
 839              		.loc 2 192 0
 840 01e4 AB69     		ldr	r3, [r5, #24]
 841              	.LBE188:
 842              	.LBE187:
 843              		.loc 1 404 0
 844 01e6 9968     		ldr	r1, [r3, #8]
 845 01e8 C1EB0906 		rsb	r6, r1, r9
 846 01ec 7142     		rsbs	r1, r6, #0
 847 01ee 7141     		adcs	r1, r1, r6
 848 01f0 0C20     		movs	r0, #12
 849 01f2 FFF7FEFF 		bl	_test_assert
 850              	.LVL69:
 851 01f6 0028     		cmp	r0, #0
 852 01f8 7FF432AF 		bne	.L34
 853              		.loc 1 405 0
 854 01fc 4FF47A70 		mov	r0, #1000
 855 0200 FFF7FEFF 		bl	chThdSleep
ARM GAS  C:\cygwin\tmp\ccmkEb0o.s 			page 16


 856              	.LVL70:
 857              	.LBB189:
 858              	.LBB190:
 859              		.loc 2 192 0
 860 0204 AB69     		ldr	r3, [r5, #24]
 861              	.LBE190:
 862              	.LBE189:
 863              		.loc 1 406 0
 864 0206 9968     		ldr	r1, [r3, #8]
 865 0208 C1EB0902 		rsb	r2, r1, r9
 866 020c 5142     		rsbs	r1, r2, #0
 867 020e 5141     		adcs	r1, r1, r2
 868 0210 0D20     		movs	r0, #13
 869 0212 FFF7FEFF 		bl	_test_assert
 870              	.LVL71:
 871 0216 0028     		cmp	r0, #0
 872 0218 7FF422AF 		bne	.L34
 873              		.loc 1 407 0
 874 021c FFF7FEFF 		bl	chMtxUnlockAll
 875              	.LVL72:
 876              	.LBB191:
 877              	.LBB192:
 878              		.loc 2 192 0
 879 0220 AB69     		ldr	r3, [r5, #24]
 880              	.LBE192:
 881              	.LBE191:
 882              		.loc 1 408 0
 883 0222 9968     		ldr	r1, [r3, #8]
 884 0224 631A     		subs	r3, r4, r1
 885 0226 5942     		rsbs	r1, r3, #0
 886 0228 5941     		adcs	r1, r1, r3
 887 022a 0E20     		movs	r0, #14
 888 022c FFF7FEFF 		bl	_test_assert
 889              	.LVL73:
 890 0230 0028     		cmp	r0, #0
 891 0232 7FF415AF 		bne	.L34
 892              		.loc 1 410 0
 893 0236 05B0     		add	sp, sp, #20
 894              		.cfi_def_cfa_offset 28
 895              		@ sp needed
 896 0238 BDE8F046 		pop	{r4, r5, r6, r7, r9, r10, lr}
 897              		.cfi_restore 14
 898              		.cfi_restore 10
 899              		.cfi_restore 9
 900              		.cfi_restore 7
 901              		.cfi_restore 6
 902              		.cfi_restore 5
 903              		.cfi_restore 4
 904              		.cfi_def_cfa_offset 0
 905              	.LVL74:
 906              		.loc 1 409 0
 907 023c FFF7FEBF 		b	test_wait_threads
 908              	.LVL75:
 909              	.L41:
 910              		.align	2
 911              	.L40:
 912 0240 00000000 		.word	ch
ARM GAS  C:\cygwin\tmp\ccmkEb0o.s 			page 17


 913 0244 00000000 		.word	wa
 914 0248 0C000000 		.word	.LC3
 915 024c 00000000 		.word	threads
 916 0250 00000000 		.word	thread4a
 917 0254 10000000 		.word	.LC4
 918 0258 00000000 		.word	thread4b
 919 025c 00000000 		.word	.LANCHOR1
 920 0260 00000000 		.word	.LANCHOR0
 921 0264 04000000 		.word	.LC1
 922 0268 08000000 		.word	.LC2
 923              		.cfi_endproc
 924              	.LFE232:
 925              		.size	mtx4_execute, .-mtx4_execute
 926 026c AFF30080 		.section	.text.mtx5_execute,"ax",%progbits
 927              		.align	2
 928              		.p2align 4,,15
 929              		.thumb
 930              		.thumb_func
 931              		.type	mtx5_execute, %function
 932              	mtx5_execute:
 933              	.LFB234:
 934              		.loc 1 434 0
 935              		.cfi_startproc
 936              		@ args = 0, pretend = 0, frame = 0
 937              		@ frame_needed = 0, uses_anonymous_args = 0
 938 0000 F8B5     		push	{r3, r4, r5, r6, r7, lr}
 939              		.cfi_def_cfa_offset 24
 940              		.cfi_offset 3, -24
 941              		.cfi_offset 4, -20
 942              		.cfi_offset 5, -16
 943              		.cfi_offset 6, -12
 944              		.cfi_offset 7, -8
 945              		.cfi_offset 14, -4
 946              	.LBB193:
 947              	.LBB194:
 948              	.LBB195:
 949              	.LBB196:
 950              		.loc 2 179 0
 951 0002 2B4D     		ldr	r5, .L48
 952              	.LBE196:
 953              	.LBE195:
 954              	.LBE194:
 955              	.LBE193:
 956              		.loc 1 440 0
 957 0004 2B4C     		ldr	r4, .L48+4
 958              	.LBB199:
 959              	.LBB197:
 960              		.loc 2 192 0
 961 0006 AB69     		ldr	r3, [r5, #24]
 962              	.LBE197:
 963              	.LBE199:
 964              		.loc 1 440 0
 965 0008 2046     		mov	r0, r4
 966              	.LBB200:
 967              	.LBB198:
 968              		.loc 2 192 0
 969 000a 9E68     		ldr	r6, [r3, #8]
ARM GAS  C:\cygwin\tmp\ccmkEb0o.s 			page 18


 970              	.LBE198:
 971              	.LBE200:
 972              		.loc 1 440 0
 973 000c FFF7FEFF 		bl	chMtxTryLock
 974              	.LVL76:
 975 0010 0146     		mov	r1, r0
 976              	.LVL77:
 977              		.loc 1 441 0
 978 0012 0120     		movs	r0, #1
 979 0014 FFF7FEFF 		bl	_test_assert
 980              	.LVL78:
 981 0018 00B1     		cbz	r0, .L47
 982              	.L42:
 983 001a F8BD     		pop	{r3, r4, r5, r6, r7, pc}
 984              	.L47:
 985              		.loc 1 443 0
 986 001c 2046     		mov	r0, r4
 987 001e FFF7FEFF 		bl	chMtxTryLock
 988              	.LVL79:
 989              		.loc 1 444 0
 990 0022 80F00101 		eor	r1, r0, #1
 991 0026 C9B2     		uxtb	r1, r1
 992 0028 0220     		movs	r0, #2
 993              	.LVL80:
 994 002a FFF7FEFF 		bl	_test_assert
 995              	.LVL81:
 996 002e 0746     		mov	r7, r0
 997 0030 0028     		cmp	r0, #0
 998 0032 F2D1     		bne	.L42
 999              	.LVL82:
 1000              	.LBB201:
 1001              	.LBB202:
 1002              	.LBB203:
 1003              	.LBB204:
 1004              		.loc 3 546 0
 1005 0034 2023     		movs	r3, #32
 1006              	@ 546 "../../../os/ext/CMSIS/include/core_cmFunc.h" 1
 1007 0036 83F31188 		MSR basepri, r3
 1008              	@ 0 "" 2
 1009              		.thumb
 1010              	.LBE204:
 1011              	.LBE203:
 1012              	.LBE202:
 1013              	.LBE201:
 1014              		.loc 1 447 0
 1015 003a 2046     		mov	r0, r4
 1016 003c FFF7FEFF 		bl	chMtxUnlockS
 1017              	.LVL83:
 1018              	.LBB205:
 1019              	.LBB206:
 1020              	.LBB207:
 1021              	.LBB208:
 1022              	.LBB209:
 1023              		.loc 3 546 0
 1024              	@ 546 "../../../os/ext/CMSIS/include/core_cmFunc.h" 1
 1025 0040 87F31188 		MSR basepri, r7
 1026              	@ 0 "" 2
ARM GAS  C:\cygwin\tmp\ccmkEb0o.s 			page 19


 1027              	.LVL84:
 1028              		.thumb
 1029              	.LBE209:
 1030              	.LBE208:
 1031              	.LBE207:
 1032              	.LBE206:
 1033              	.LBE205:
 1034              	.LBB210:
 1035              	.LBB211:
 1036              		.file 4 "../../../os/rt/include/chschd.h"
 1037              		.loc 4 587 0
 1038 0044 2168     		ldr	r1, [r4]
 1039              	.LBE211:
 1040              	.LBE210:
 1041              		.loc 1 450 0
 1042 0046 0320     		movs	r0, #3
 1043 0048 091B     		subs	r1, r1, r4
 1044 004a B1FA81F1 		clz	r1, r1
 1045 004e 4909     		lsrs	r1, r1, #5
 1046 0050 FFF7FEFF 		bl	_test_assert
 1047              	.LVL85:
 1048 0054 0028     		cmp	r0, #0
 1049 0056 E0D1     		bne	.L42
 1050              		.loc 1 451 0
 1051 0058 A168     		ldr	r1, [r4, #8]
 1052 005a B1FA81F1 		clz	r1, r1
 1053 005e 0420     		movs	r0, #4
 1054 0060 4909     		lsrs	r1, r1, #5
 1055 0062 FFF7FEFF 		bl	_test_assert
 1056              	.LVL86:
 1057 0066 0028     		cmp	r0, #0
 1058 0068 D7D1     		bne	.L42
 1059              	.LBB212:
 1060              	.LBB213:
 1061              		.loc 2 192 0
 1062 006a AB69     		ldr	r3, [r5, #24]
 1063              	.LBE213:
 1064              	.LBE212:
 1065              		.loc 1 452 0
 1066 006c 9968     		ldr	r1, [r3, #8]
 1067 006e 0520     		movs	r0, #5
 1068 0070 711A     		subs	r1, r6, r1
 1069 0072 B1FA81F1 		clz	r1, r1
 1070 0076 4909     		lsrs	r1, r1, #5
 1071 0078 FFF7FEFF 		bl	_test_assert
 1072              	.LVL87:
 1073 007c 0028     		cmp	r0, #0
 1074 007e CCD1     		bne	.L42
 1075              		.loc 1 455 0
 1076 0080 2046     		mov	r0, r4
 1077 0082 FFF7FEFF 		bl	chMtxLock
 1078              	.LVL88:
 1079              		.loc 1 456 0
 1080 0086 FFF7FEFF 		bl	chMtxUnlockAll
 1081              	.LVL89:
 1082              	.LBB214:
 1083              	.LBB215:
ARM GAS  C:\cygwin\tmp\ccmkEb0o.s 			page 20


 1084              		.loc 4 587 0
 1085 008a 2168     		ldr	r1, [r4]
 1086              	.LBE215:
 1087              	.LBE214:
 1088              		.loc 1 457 0
 1089 008c 0620     		movs	r0, #6
 1090 008e 091B     		subs	r1, r1, r4
 1091 0090 B1FA81F1 		clz	r1, r1
 1092 0094 4909     		lsrs	r1, r1, #5
 1093 0096 FFF7FEFF 		bl	_test_assert
 1094              	.LVL90:
 1095 009a 0028     		cmp	r0, #0
 1096 009c BDD1     		bne	.L42
 1097              		.loc 1 458 0
 1098 009e A168     		ldr	r1, [r4, #8]
 1099 00a0 B1FA81F1 		clz	r1, r1
 1100 00a4 0720     		movs	r0, #7
 1101 00a6 4909     		lsrs	r1, r1, #5
 1102              		.loc 1 459 0
 1103 00a8 BDE8F840 		pop	{r3, r4, r5, r6, r7, lr}
 1104              		.cfi_restore 14
 1105              		.cfi_restore 7
 1106              		.cfi_restore 6
 1107              		.cfi_restore 5
 1108              		.cfi_restore 4
 1109              		.cfi_restore 3
 1110              		.cfi_def_cfa_offset 0
 1111              		.loc 1 458 0
 1112 00ac FFF7FEBF 		b	_test_assert
 1113              	.LVL91:
 1114              	.L49:
 1115              		.align	2
 1116              	.L48:
 1117 00b0 00000000 		.word	ch
 1118 00b4 00000000 		.word	.LANCHOR0
 1119              		.cfi_endproc
 1120              	.LFE234:
 1121              		.size	mtx5_execute, .-mtx5_execute
 1122 00b8 AFF30080 		.section	.text.mtx6_execute,"ax",%progbits
 1122      AFF30080 
 1123              		.align	2
 1124              		.p2align 4,,15
 1125              		.thumb
 1126              		.thumb_func
 1127              		.type	mtx6_execute, %function
 1128              	mtx6_execute:
 1129              	.LFB237:
 1130              		.loc 1 495 0
 1131              		.cfi_startproc
 1132              		@ args = 0, pretend = 0, frame = 0
 1133              		@ frame_needed = 0, uses_anonymous_args = 0
 1134 0000 F0B5     		push	{r4, r5, r6, r7, lr}
 1135              		.cfi_def_cfa_offset 20
 1136              		.cfi_offset 4, -20
 1137              		.cfi_offset 5, -16
 1138              		.cfi_offset 6, -12
 1139              		.cfi_offset 7, -8
ARM GAS  C:\cygwin\tmp\ccmkEb0o.s 			page 21


 1140              		.cfi_offset 14, -4
 1141              	.LBB216:
 1142              	.LBB217:
 1143              	.LBB218:
 1144              	.LBB219:
 1145              		.loc 2 179 0
 1146 0002 2F4B     		ldr	r3, .L52
 1147              	.LBE219:
 1148              	.LBE218:
 1149              	.LBE217:
 1150              	.LBE216:
 1151              		.loc 1 498 0
 1152 0004 2F4F     		ldr	r7, .L52+4
 1153              	.LBB222:
 1154              	.LBB220:
 1155              		.loc 2 192 0
 1156 0006 9B69     		ldr	r3, [r3, #24]
 1157              	.LBE220:
 1158              	.LBE222:
 1159              		.loc 1 498 0
 1160 0008 2F4D     		ldr	r5, .L52+8
 1161              	.LBB223:
 1162              	.LBB221:
 1163              		.loc 2 192 0
 1164 000a 9E68     		ldr	r6, [r3, #8]
 1165              	.LBE221:
 1166              	.LBE223:
 1167              		.loc 1 498 0
 1168 000c 2F4B     		ldr	r3, .L52+12
 1169 000e 3868     		ldr	r0, [r7]
 1170 0010 2F4C     		ldr	r4, .L52+16
 1171              		.loc 1 495 0
 1172 0012 83B0     		sub	sp, sp, #12
 1173              		.cfi_def_cfa_offset 32
 1174              		.loc 1 498 0
 1175 0014 721C     		adds	r2, r6, #1
 1176 0016 0093     		str	r3, [sp]
 1177 0018 4FF4A471 		mov	r1, #328
 1178 001c 2B46     		mov	r3, r5
 1179 001e FFF7FEFF 		bl	chThdCreateStatic
 1180              	.LVL92:
 1181              		.loc 1 499 0
 1182 0022 7B68     		ldr	r3, [r7, #4]
 1183 0024 2B49     		ldr	r1, .L52+20
 1184              		.loc 1 498 0
 1185 0026 2060     		str	r0, [r4]
 1186              		.loc 1 499 0
 1187 0028 B21C     		adds	r2, r6, #2
 1188 002a 0091     		str	r1, [sp]
 1189 002c 1846     		mov	r0, r3
 1190 002e 4FF4A471 		mov	r1, #328
 1191 0032 2B46     		mov	r3, r5
 1192 0034 FFF7FEFF 		bl	chThdCreateStatic
 1193              	.LVL93:
 1194              		.loc 1 500 0
 1195 0038 BB68     		ldr	r3, [r7, #8]
 1196 003a 2749     		ldr	r1, .L52+24
ARM GAS  C:\cygwin\tmp\ccmkEb0o.s 			page 22


 1197              		.loc 1 499 0
 1198 003c 6060     		str	r0, [r4, #4]
 1199              		.loc 1 500 0
 1200 003e F21C     		adds	r2, r6, #3
 1201 0040 0091     		str	r1, [sp]
 1202 0042 1846     		mov	r0, r3
 1203 0044 4FF4A471 		mov	r1, #328
 1204 0048 2B46     		mov	r3, r5
 1205 004a FFF7FEFF 		bl	chThdCreateStatic
 1206              	.LVL94:
 1207              		.loc 1 501 0
 1208 004e FB68     		ldr	r3, [r7, #12]
 1209 0050 2249     		ldr	r1, .L52+28
 1210              		.loc 1 500 0
 1211 0052 A060     		str	r0, [r4, #8]
 1212              		.loc 1 501 0
 1213 0054 321D     		adds	r2, r6, #4
 1214 0056 0091     		str	r1, [sp]
 1215 0058 1846     		mov	r0, r3
 1216 005a 4FF4A471 		mov	r1, #328
 1217 005e 2B46     		mov	r3, r5
 1218 0060 FFF7FEFF 		bl	chThdCreateStatic
 1219              	.LVL95:
 1220              		.loc 1 502 0
 1221 0064 3B69     		ldr	r3, [r7, #16]
 1222 0066 1E49     		ldr	r1, .L52+32
 1223              		.loc 1 501 0
 1224 0068 E060     		str	r0, [r4, #12]
 1225              		.loc 1 502 0
 1226 006a 721D     		adds	r2, r6, #5
 1227 006c 0091     		str	r1, [sp]
 1228 006e 1846     		mov	r0, r3
 1229 0070 4FF4A471 		mov	r1, #328
 1230 0074 2B46     		mov	r3, r5
 1231 0076 FFF7FEFF 		bl	chThdCreateStatic
 1232              	.LVL96:
 1233              	.LBB224:
 1234              	.LBB225:
 1235              	.LBB226:
 1236              	.LBB227:
 1237              		.loc 3 546 0
 1238 007a 2023     		movs	r3, #32
 1239              	.LBE227:
 1240              	.LBE226:
 1241              	.LBE225:
 1242              	.LBE224:
 1243              		.loc 1 502 0
 1244 007c 2061     		str	r0, [r4, #16]
 1245              	.LVL97:
 1246              	.LBB231:
 1247              	.LBB230:
 1248              	.LBB229:
 1249              	.LBB228:
 1250              		.loc 3 546 0
 1251              	@ 546 "../../../os/ext/CMSIS/include/core_cmFunc.h" 1
 1252 007e 83F31188 		MSR basepri, r3
 1253              	@ 0 "" 2
ARM GAS  C:\cygwin\tmp\ccmkEb0o.s 			page 23


 1254              		.thumb
 1255              	.LBE228:
 1256              	.LBE229:
 1257              	.LBE230:
 1258              	.LBE231:
 1259              		.loc 1 504 0
 1260 0082 184C     		ldr	r4, .L52+36
 1261 0084 2046     		mov	r0, r4
 1262 0086 FFF7FEFF 		bl	chCondSignalI
 1263              	.LVL98:
 1264              		.loc 1 505 0
 1265 008a 2046     		mov	r0, r4
 1266 008c FFF7FEFF 		bl	chCondSignalI
 1267              	.LVL99:
 1268              		.loc 1 506 0
 1269 0090 2046     		mov	r0, r4
 1270 0092 FFF7FEFF 		bl	chCondSignalI
 1271              	.LVL100:
 1272              		.loc 1 507 0
 1273 0096 2046     		mov	r0, r4
 1274 0098 FFF7FEFF 		bl	chCondSignalI
 1275              	.LVL101:
 1276              		.loc 1 508 0
 1277 009c 2046     		mov	r0, r4
 1278 009e FFF7FEFF 		bl	chCondSignalI
 1279              	.LVL102:
 1280              		.loc 1 509 0
 1281 00a2 FFF7FEFF 		bl	chSchRescheduleS
 1282              	.LVL103:
 1283              	.LBB232:
 1284              	.LBB233:
 1285              	.LBB234:
 1286              	.LBB235:
 1287              	.LBB236:
 1288              		.loc 3 546 0
 1289 00a6 0023     		movs	r3, #0
 1290              	@ 546 "../../../os/ext/CMSIS/include/core_cmFunc.h" 1
 1291 00a8 83F31188 		MSR basepri, r3
 1292              	@ 0 "" 2
 1293              		.thumb
 1294              	.LBE236:
 1295              	.LBE235:
 1296              	.LBE234:
 1297              	.LBE233:
 1298              	.LBE232:
 1299              		.loc 1 511 0
 1300 00ac FFF7FEFF 		bl	test_wait_threads
 1301              	.LVL104:
 1302              		.loc 1 512 0
 1303 00b0 0D49     		ldr	r1, .L52+40
 1304 00b2 0120     		movs	r0, #1
 1305              		.loc 1 513 0
 1306 00b4 03B0     		add	sp, sp, #12
 1307              		.cfi_def_cfa_offset 20
 1308              		@ sp needed
 1309 00b6 BDE8F040 		pop	{r4, r5, r6, r7, lr}
 1310              		.cfi_restore 14
ARM GAS  C:\cygwin\tmp\ccmkEb0o.s 			page 24


 1311              		.cfi_restore 7
 1312              		.cfi_restore 6
 1313              		.cfi_restore 5
 1314              		.cfi_restore 4
 1315              		.cfi_def_cfa_offset 0
 1316              		.loc 1 512 0
 1317 00ba FFF7FEBF 		b	_test_assert_sequence
 1318              	.LVL105:
 1319              	.L53:
 1320 00be 00BF     		.align	2
 1321              	.L52:
 1322 00c0 00000000 		.word	ch
 1323 00c4 00000000 		.word	wa
 1324 00c8 00000000 		.word	thread10
 1325 00cc 00000000 		.word	.LC0
 1326 00d0 00000000 		.word	threads
 1327 00d4 04000000 		.word	.LC1
 1328 00d8 08000000 		.word	.LC2
 1329 00dc 0C000000 		.word	.LC3
 1330 00e0 10000000 		.word	.LC4
 1331 00e4 00000000 		.word	.LANCHOR2
 1332 00e8 14000000 		.word	.LC5
 1333              		.cfi_endproc
 1334              	.LFE237:
 1335              		.size	mtx6_execute, .-mtx6_execute
 1336 00ec AFF30080 		.section	.text.thread10,"ax",%progbits
 1337              		.align	2
 1338              		.p2align 4,,15
 1339              		.thumb
 1340              		.thumb_func
 1341              		.type	thread10, %function
 1342              	thread10:
 1343              	.LFB236:
 1344              		.loc 1 486 0
 1345              		.cfi_startproc
 1346              		@ args = 0, pretend = 0, frame = 0
 1347              		@ frame_needed = 0, uses_anonymous_args = 0
 1348              	.LVL106:
 1349 0000 38B5     		push	{r3, r4, r5, lr}
 1350              		.cfi_def_cfa_offset 16
 1351              		.cfi_offset 3, -16
 1352              		.cfi_offset 4, -12
 1353              		.cfi_offset 5, -8
 1354              		.cfi_offset 14, -4
 1355              		.loc 1 488 0
 1356 0002 084C     		ldr	r4, .L56
 1357              		.loc 1 486 0
 1358 0004 0546     		mov	r5, r0
 1359              		.loc 1 488 0
 1360 0006 2046     		mov	r0, r4
 1361              	.LVL107:
 1362 0008 FFF7FEFF 		bl	chMtxLock
 1363              	.LVL108:
 1364              		.loc 1 489 0
 1365 000c 0648     		ldr	r0, .L56+4
 1366 000e FFF7FEFF 		bl	chCondWait
 1367              	.LVL109:
ARM GAS  C:\cygwin\tmp\ccmkEb0o.s 			page 25


 1368              		.loc 1 490 0
 1369 0012 2878     		ldrb	r0, [r5]	@ zero_extendqisi2
 1370 0014 FFF7FEFF 		bl	test_emit_token
 1371              	.LVL110:
 1372              		.loc 1 491 0
 1373 0018 2046     		mov	r0, r4
 1374 001a FFF7FEFF 		bl	chMtxUnlock
 1375              	.LVL111:
 1376              		.loc 1 493 0
 1377 001e 0020     		movs	r0, #0
 1378 0020 38BD     		pop	{r3, r4, r5, pc}
 1379              	.LVL112:
 1380              	.L57:
 1381 0022 00BF     		.align	2
 1382              	.L56:
 1383 0024 00000000 		.word	.LANCHOR0
 1384 0028 00000000 		.word	.LANCHOR2
 1385              		.cfi_endproc
 1386              	.LFE236:
 1387              		.size	thread10, .-thread10
 1388 002c AFF30080 		.section	.text.mtx6_setup,"ax",%progbits
 1389              		.align	2
 1390              		.p2align 4,,15
 1391              		.thumb
 1392              		.thumb_func
 1393              		.type	mtx6_setup, %function
 1394              	mtx6_setup:
 1395              	.LFB235:
 1396              		.loc 1 480 0
 1397              		.cfi_startproc
 1398              		@ args = 0, pretend = 0, frame = 0
 1399              		@ frame_needed = 0, uses_anonymous_args = 0
 1400 0000 08B5     		push	{r3, lr}
 1401              		.cfi_def_cfa_offset 8
 1402              		.cfi_offset 3, -8
 1403              		.cfi_offset 14, -4
 1404              		.loc 1 482 0
 1405 0002 0448     		ldr	r0, .L60
 1406 0004 FFF7FEFF 		bl	chCondObjectInit
 1407              	.LVL113:
 1408              		.loc 1 483 0
 1409 0008 0348     		ldr	r0, .L60+4
 1410              		.loc 1 484 0
 1411 000a BDE80840 		pop	{r3, lr}
 1412              		.cfi_restore 14
 1413              		.cfi_restore 3
 1414              		.cfi_def_cfa_offset 0
 1415              		.loc 1 483 0
 1416 000e FFF7FEBF 		b	chMtxObjectInit
 1417              	.LVL114:
 1418              	.L61:
 1419 0012 00BF     		.align	2
 1420              	.L60:
 1421 0014 00000000 		.word	.LANCHOR2
 1422 0018 00000000 		.word	.LANCHOR0
 1423              		.cfi_endproc
 1424              	.LFE235:
ARM GAS  C:\cygwin\tmp\ccmkEb0o.s 			page 26


 1425              		.size	mtx6_setup, .-mtx6_setup
 1426 001c AFF30080 		.section	.text.mtx7_setup,"ax",%progbits
 1427              		.align	2
 1428              		.p2align 4,,15
 1429              		.thumb
 1430              		.thumb_func
 1431              		.type	mtx7_setup, %function
 1432              	mtx7_setup:
 1433              	.LFB238:
 1434              		.loc 1 532 0
 1435              		.cfi_startproc
 1436              		@ args = 0, pretend = 0, frame = 0
 1437              		@ frame_needed = 0, uses_anonymous_args = 0
 1438 0000 08B5     		push	{r3, lr}
 1439              		.cfi_def_cfa_offset 8
 1440              		.cfi_offset 3, -8
 1441              		.cfi_offset 14, -4
 1442              		.loc 1 534 0
 1443 0002 0448     		ldr	r0, .L64
 1444 0004 FFF7FEFF 		bl	chCondObjectInit
 1445              	.LVL115:
 1446              		.loc 1 535 0
 1447 0008 0348     		ldr	r0, .L64+4
 1448              		.loc 1 536 0
 1449 000a BDE80840 		pop	{r3, lr}
 1450              		.cfi_restore 14
 1451              		.cfi_restore 3
 1452              		.cfi_def_cfa_offset 0
 1453              		.loc 1 535 0
 1454 000e FFF7FEBF 		b	chMtxObjectInit
 1455              	.LVL116:
 1456              	.L65:
 1457 0012 00BF     		.align	2
 1458              	.L64:
 1459 0014 00000000 		.word	.LANCHOR2
 1460 0018 00000000 		.word	.LANCHOR0
 1461              		.cfi_endproc
 1462              	.LFE238:
 1463              		.size	mtx7_setup, .-mtx7_setup
 1464 001c AFF30080 		.section	.text.mtx8_setup,"ax",%progbits
 1465              		.align	2
 1466              		.p2align 4,,15
 1467              		.thumb
 1468              		.thumb_func
 1469              		.type	mtx8_setup, %function
 1470              	mtx8_setup:
 1471              	.LFB240:
 1472              		.loc 1 567 0
 1473              		.cfi_startproc
 1474              		@ args = 0, pretend = 0, frame = 0
 1475              		@ frame_needed = 0, uses_anonymous_args = 0
 1476 0000 08B5     		push	{r3, lr}
 1477              		.cfi_def_cfa_offset 8
 1478              		.cfi_offset 3, -8
 1479              		.cfi_offset 14, -4
 1480              		.loc 1 569 0
 1481 0002 0548     		ldr	r0, .L68
ARM GAS  C:\cygwin\tmp\ccmkEb0o.s 			page 27


 1482 0004 FFF7FEFF 		bl	chCondObjectInit
 1483              	.LVL117:
 1484              		.loc 1 570 0
 1485 0008 0448     		ldr	r0, .L68+4
 1486 000a FFF7FEFF 		bl	chMtxObjectInit
 1487              	.LVL118:
 1488              		.loc 1 571 0
 1489 000e 0448     		ldr	r0, .L68+8
 1490              		.loc 1 572 0
 1491 0010 BDE80840 		pop	{r3, lr}
 1492              		.cfi_restore 14
 1493              		.cfi_restore 3
 1494              		.cfi_def_cfa_offset 0
 1495              		.loc 1 571 0
 1496 0014 FFF7FEBF 		b	chMtxObjectInit
 1497              	.LVL119:
 1498              	.L69:
 1499              		.align	2
 1500              	.L68:
 1501 0018 00000000 		.word	.LANCHOR2
 1502 001c 00000000 		.word	.LANCHOR0
 1503 0020 00000000 		.word	.LANCHOR1
 1504              		.cfi_endproc
 1505              	.LFE240:
 1506              		.size	mtx8_setup, .-mtx8_setup
 1507 0024 AFF30080 		.section	.text.mtx7_execute,"ax",%progbits
 1507      AFF30080 
 1507      AFF30080 
 1508              		.align	2
 1509              		.p2align 4,,15
 1510              		.thumb
 1511              		.thumb_func
 1512              		.type	mtx7_execute, %function
 1513              	mtx7_execute:
 1514              	.LFB239:
 1515              		.loc 1 538 0
 1516              		.cfi_startproc
 1517              		@ args = 0, pretend = 0, frame = 0
 1518              		@ frame_needed = 0, uses_anonymous_args = 0
 1519 0000 F0B5     		push	{r4, r5, r6, r7, lr}
 1520              		.cfi_def_cfa_offset 20
 1521              		.cfi_offset 4, -20
 1522              		.cfi_offset 5, -16
 1523              		.cfi_offset 6, -12
 1524              		.cfi_offset 7, -8
 1525              		.cfi_offset 14, -4
 1526              	.LBB237:
 1527              	.LBB238:
 1528              	.LBB239:
 1529              	.LBB240:
 1530              		.loc 2 179 0
 1531 0002 244B     		ldr	r3, .L72
 1532              	.LBE240:
 1533              	.LBE239:
 1534              	.LBE238:
 1535              	.LBE237:
 1536              		.loc 1 541 0
ARM GAS  C:\cygwin\tmp\ccmkEb0o.s 			page 28


 1537 0004 244F     		ldr	r7, .L72+4
 1538              	.LBB243:
 1539              	.LBB241:
 1540              		.loc 2 192 0
 1541 0006 9B69     		ldr	r3, [r3, #24]
 1542              	.LBE241:
 1543              	.LBE243:
 1544              		.loc 1 541 0
 1545 0008 244D     		ldr	r5, .L72+8
 1546              	.LBB244:
 1547              	.LBB242:
 1548              		.loc 2 192 0
 1549 000a 9E68     		ldr	r6, [r3, #8]
 1550              	.LBE242:
 1551              	.LBE244:
 1552              		.loc 1 541 0
 1553 000c 244B     		ldr	r3, .L72+12
 1554 000e 3868     		ldr	r0, [r7]
 1555 0010 244C     		ldr	r4, .L72+16
 1556              		.loc 1 538 0
 1557 0012 83B0     		sub	sp, sp, #12
 1558              		.cfi_def_cfa_offset 32
 1559              		.loc 1 541 0
 1560 0014 721C     		adds	r2, r6, #1
 1561 0016 0093     		str	r3, [sp]
 1562 0018 4FF4A471 		mov	r1, #328
 1563 001c 2B46     		mov	r3, r5
 1564 001e FFF7FEFF 		bl	chThdCreateStatic
 1565              	.LVL120:
 1566              		.loc 1 542 0
 1567 0022 7B68     		ldr	r3, [r7, #4]
 1568 0024 2049     		ldr	r1, .L72+20
 1569              		.loc 1 541 0
 1570 0026 2060     		str	r0, [r4]
 1571              		.loc 1 542 0
 1572 0028 B21C     		adds	r2, r6, #2
 1573 002a 0091     		str	r1, [sp]
 1574 002c 1846     		mov	r0, r3
 1575 002e 4FF4A471 		mov	r1, #328
 1576 0032 2B46     		mov	r3, r5
 1577 0034 FFF7FEFF 		bl	chThdCreateStatic
 1578              	.LVL121:
 1579              		.loc 1 543 0
 1580 0038 BB68     		ldr	r3, [r7, #8]
 1581 003a 1C49     		ldr	r1, .L72+24
 1582              		.loc 1 542 0
 1583 003c 6060     		str	r0, [r4, #4]
 1584              		.loc 1 543 0
 1585 003e F21C     		adds	r2, r6, #3
 1586 0040 0091     		str	r1, [sp]
 1587 0042 1846     		mov	r0, r3
 1588 0044 4FF4A471 		mov	r1, #328
 1589 0048 2B46     		mov	r3, r5
 1590 004a FFF7FEFF 		bl	chThdCreateStatic
 1591              	.LVL122:
 1592              		.loc 1 544 0
 1593 004e FB68     		ldr	r3, [r7, #12]
ARM GAS  C:\cygwin\tmp\ccmkEb0o.s 			page 29


 1594 0050 1749     		ldr	r1, .L72+28
 1595              		.loc 1 543 0
 1596 0052 A060     		str	r0, [r4, #8]
 1597              		.loc 1 544 0
 1598 0054 321D     		adds	r2, r6, #4
 1599 0056 0091     		str	r1, [sp]
 1600 0058 1846     		mov	r0, r3
 1601 005a 4FF4A471 		mov	r1, #328
 1602 005e 2B46     		mov	r3, r5
 1603 0060 FFF7FEFF 		bl	chThdCreateStatic
 1604              	.LVL123:
 1605              		.loc 1 545 0
 1606 0064 3B69     		ldr	r3, [r7, #16]
 1607 0066 1349     		ldr	r1, .L72+32
 1608              		.loc 1 544 0
 1609 0068 E060     		str	r0, [r4, #12]
 1610              		.loc 1 545 0
 1611 006a 721D     		adds	r2, r6, #5
 1612 006c 0091     		str	r1, [sp]
 1613 006e 1846     		mov	r0, r3
 1614 0070 4FF4A471 		mov	r1, #328
 1615 0074 2B46     		mov	r3, r5
 1616 0076 FFF7FEFF 		bl	chThdCreateStatic
 1617              	.LVL124:
 1618 007a 2061     		str	r0, [r4, #16]
 1619              		.loc 1 546 0
 1620 007c 0E48     		ldr	r0, .L72+36
 1621 007e FFF7FEFF 		bl	chCondBroadcast
 1622              	.LVL125:
 1623              		.loc 1 547 0
 1624 0082 FFF7FEFF 		bl	test_wait_threads
 1625              	.LVL126:
 1626              		.loc 1 548 0
 1627 0086 0D49     		ldr	r1, .L72+40
 1628 0088 0120     		movs	r0, #1
 1629              		.loc 1 549 0
 1630 008a 03B0     		add	sp, sp, #12
 1631              		.cfi_def_cfa_offset 20
 1632              		@ sp needed
 1633 008c BDE8F040 		pop	{r4, r5, r6, r7, lr}
 1634              		.cfi_restore 14
 1635              		.cfi_restore 7
 1636              		.cfi_restore 6
 1637              		.cfi_restore 5
 1638              		.cfi_restore 4
 1639              		.cfi_def_cfa_offset 0
 1640              		.loc 1 548 0
 1641 0090 FFF7FEBF 		b	_test_assert_sequence
 1642              	.LVL127:
 1643              	.L73:
 1644              		.align	2
 1645              	.L72:
 1646 0094 00000000 		.word	ch
 1647 0098 00000000 		.word	wa
 1648 009c 00000000 		.word	thread10
 1649 00a0 00000000 		.word	.LC0
 1650 00a4 00000000 		.word	threads
ARM GAS  C:\cygwin\tmp\ccmkEb0o.s 			page 30


 1651 00a8 04000000 		.word	.LC1
 1652 00ac 08000000 		.word	.LC2
 1653 00b0 0C000000 		.word	.LC3
 1654 00b4 10000000 		.word	.LC4
 1655 00b8 00000000 		.word	.LANCHOR2
 1656 00bc 14000000 		.word	.LC5
 1657              		.cfi_endproc
 1658              	.LFE239:
 1659              		.size	mtx7_execute, .-mtx7_execute
 1660              		.section	.text.mtx8_execute,"ax",%progbits
 1661              		.align	2
 1662              		.p2align 4,,15
 1663              		.thumb
 1664              		.thumb_func
 1665              		.type	mtx8_execute, %function
 1666              	mtx8_execute:
 1667              	.LFB243:
 1668              		.loc 1 597 0
 1669              		.cfi_startproc
 1670              		@ args = 0, pretend = 0, frame = 0
 1671              		@ frame_needed = 0, uses_anonymous_args = 0
 1672 0000 F0B5     		push	{r4, r5, r6, r7, lr}
 1673              		.cfi_def_cfa_offset 20
 1674              		.cfi_offset 4, -20
 1675              		.cfi_offset 5, -16
 1676              		.cfi_offset 6, -12
 1677              		.cfi_offset 7, -8
 1678              		.cfi_offset 14, -4
 1679              	.LBB245:
 1680              	.LBB246:
 1681              	.LBB247:
 1682              	.LBB248:
 1683              		.loc 2 179 0
 1684 0002 1B4B     		ldr	r3, .L76
 1685              	.LBE248:
 1686              	.LBE247:
 1687              	.LBE246:
 1688              	.LBE245:
 1689              		.loc 1 600 0
 1690 0004 1B4E     		ldr	r6, .L76+4
 1691              	.LBB251:
 1692              	.LBB249:
 1693              		.loc 2 192 0
 1694 0006 9B69     		ldr	r3, [r3, #24]
 1695              	.LBE249:
 1696              	.LBE251:
 1697              		.loc 1 600 0
 1698 0008 3068     		ldr	r0, [r6]
 1699              	.LBB252:
 1700              	.LBB250:
 1701              		.loc 2 192 0
 1702 000a 9D68     		ldr	r5, [r3, #8]
 1703              	.LBE250:
 1704              	.LBE252:
 1705              		.loc 1 600 0
 1706 000c 1A4B     		ldr	r3, .L76+8
 1707 000e 1B4C     		ldr	r4, .L76+12
ARM GAS  C:\cygwin\tmp\ccmkEb0o.s 			page 31


 1708              		.loc 1 603 0
 1709 0010 1B4F     		ldr	r7, .L76+16
 1710              		.loc 1 597 0
 1711 0012 83B0     		sub	sp, sp, #12
 1712              		.cfi_def_cfa_offset 32
 1713              		.loc 1 600 0
 1714 0014 6A1C     		adds	r2, r5, #1
 1715 0016 0093     		str	r3, [sp]
 1716 0018 4FF4A471 		mov	r1, #328
 1717 001c 194B     		ldr	r3, .L76+20
 1718 001e FFF7FEFF 		bl	chThdCreateStatic
 1719              	.LVL128:
 1720              		.loc 1 601 0
 1721 0022 7168     		ldr	r1, [r6, #4]
 1722 0024 184B     		ldr	r3, .L76+24
 1723              		.loc 1 600 0
 1724 0026 2060     		str	r0, [r4]
 1725              		.loc 1 601 0
 1726 0028 AA1C     		adds	r2, r5, #2
 1727 002a 0093     		str	r3, [sp]
 1728 002c 0846     		mov	r0, r1
 1729 002e 174B     		ldr	r3, .L76+28
 1730 0030 4FF4A471 		mov	r1, #328
 1731 0034 FFF7FEFF 		bl	chThdCreateStatic
 1732              	.LVL129:
 1733              		.loc 1 602 0
 1734 0038 B168     		ldr	r1, [r6, #8]
 1735 003a 154B     		ldr	r3, .L76+32
 1736              		.loc 1 601 0
 1737 003c 6060     		str	r0, [r4, #4]
 1738              		.loc 1 602 0
 1739 003e EA1C     		adds	r2, r5, #3
 1740 0040 0093     		str	r3, [sp]
 1741 0042 0846     		mov	r0, r1
 1742 0044 134B     		ldr	r3, .L76+36
 1743 0046 4FF4A471 		mov	r1, #328
 1744 004a FFF7FEFF 		bl	chThdCreateStatic
 1745              	.LVL130:
 1746 004e A060     		str	r0, [r4, #8]
 1747              		.loc 1 603 0
 1748 0050 3846     		mov	r0, r7
 1749 0052 FFF7FEFF 		bl	chCondSignal
 1750              	.LVL131:
 1751              		.loc 1 604 0
 1752 0056 3846     		mov	r0, r7
 1753 0058 FFF7FEFF 		bl	chCondSignal
 1754              	.LVL132:
 1755              		.loc 1 605 0
 1756 005c FFF7FEFF 		bl	test_wait_threads
 1757              	.LVL133:
 1758              		.loc 1 606 0
 1759 0060 0D49     		ldr	r1, .L76+40
 1760 0062 0120     		movs	r0, #1
 1761              		.loc 1 607 0
 1762 0064 03B0     		add	sp, sp, #12
 1763              		.cfi_def_cfa_offset 20
 1764              		@ sp needed
ARM GAS  C:\cygwin\tmp\ccmkEb0o.s 			page 32


 1765 0066 BDE8F040 		pop	{r4, r5, r6, r7, lr}
 1766              		.cfi_restore 14
 1767              		.cfi_restore 7
 1768              		.cfi_restore 6
 1769              		.cfi_restore 5
 1770              		.cfi_restore 4
 1771              		.cfi_def_cfa_offset 0
 1772              		.loc 1 606 0
 1773 006a FFF7FEBF 		b	_test_assert_sequence
 1774              	.LVL134:
 1775              	.L77:
 1776 006e 00BF     		.align	2
 1777              	.L76:
 1778 0070 00000000 		.word	ch
 1779 0074 00000000 		.word	wa
 1780 0078 10000000 		.word	.LC4
 1781 007c 00000000 		.word	threads
 1782 0080 00000000 		.word	.LANCHOR2
 1783 0084 00000000 		.word	thread11
 1784 0088 08000000 		.word	.LC2
 1785 008c 00000000 		.word	thread10
 1786 0090 0C000000 		.word	.LC3
 1787 0094 00000000 		.word	thread12
 1788 0098 1C000000 		.word	.LC6
 1789              		.cfi_endproc
 1790              	.LFE243:
 1791              		.size	mtx8_execute, .-mtx8_execute
 1792 009c AFF30080 		.section	.text.thread11,"ax",%progbits
 1793              		.align	2
 1794              		.p2align 4,,15
 1795              		.thumb
 1796              		.thumb_func
 1797              		.type	thread11, %function
 1798              	thread11:
 1799              	.LFB241:
 1800              		.loc 1 574 0
 1801              		.cfi_startproc
 1802              		@ args = 0, pretend = 0, frame = 0
 1803              		@ frame_needed = 0, uses_anonymous_args = 0
 1804              	.LVL135:
 1805 0000 70B5     		push	{r4, r5, r6, lr}
 1806              		.cfi_def_cfa_offset 16
 1807              		.cfi_offset 4, -16
 1808              		.cfi_offset 5, -12
 1809              		.cfi_offset 6, -8
 1810              		.cfi_offset 14, -4
 1811              		.loc 1 576 0
 1812 0002 0C4C     		ldr	r4, .L80
 1813              		.loc 1 577 0
 1814 0004 0C4D     		ldr	r5, .L80+4
 1815              		.loc 1 574 0
 1816 0006 0646     		mov	r6, r0
 1817              		.loc 1 576 0
 1818 0008 2046     		mov	r0, r4
 1819              	.LVL136:
 1820 000a FFF7FEFF 		bl	chMtxLock
 1821              	.LVL137:
ARM GAS  C:\cygwin\tmp\ccmkEb0o.s 			page 33


 1822              		.loc 1 577 0
 1823 000e 2846     		mov	r0, r5
 1824 0010 FFF7FEFF 		bl	chMtxLock
 1825              	.LVL138:
 1826              		.loc 1 579 0
 1827 0014 4FF0FF31 		mov	r1, #-1
 1828 0018 0848     		ldr	r0, .L80+8
 1829 001a FFF7FEFF 		bl	chCondWaitTimeout
 1830              	.LVL139:
 1831              		.loc 1 583 0
 1832 001e 3078     		ldrb	r0, [r6]	@ zero_extendqisi2
 1833 0020 FFF7FEFF 		bl	test_emit_token
 1834              	.LVL140:
 1835              		.loc 1 584 0
 1836 0024 2846     		mov	r0, r5
 1837 0026 FFF7FEFF 		bl	chMtxUnlock
 1838              	.LVL141:
 1839              		.loc 1 585 0
 1840 002a 2046     		mov	r0, r4
 1841 002c FFF7FEFF 		bl	chMtxUnlock
 1842              	.LVL142:
 1843              		.loc 1 587 0
 1844 0030 0020     		movs	r0, #0
 1845 0032 70BD     		pop	{r4, r5, r6, pc}
 1846              	.LVL143:
 1847              	.L81:
 1848              		.align	2
 1849              	.L80:
 1850 0034 00000000 		.word	.LANCHOR1
 1851 0038 00000000 		.word	.LANCHOR0
 1852 003c 00000000 		.word	.LANCHOR2
 1853              		.cfi_endproc
 1854              	.LFE241:
 1855              		.size	thread11, .-thread11
 1856              		.global	patternmtx
 1857              		.global	testmtx8
 1858              		.global	testmtx7
 1859              		.global	testmtx6
 1860              		.global	testmtx5
 1861              		.global	testmtx4
 1862              		.global	testmtx1
 1863              		.section	.rodata.testmtx5,"a",%progbits
 1864              		.align	2
 1865              		.type	testmtx5, %object
 1866              		.size	testmtx5, 16
 1867              	testmtx5:
 1868 0000 64000000 		.word	.LC10
 1869 0004 00000000 		.word	mtx5_setup
 1870 0008 00000000 		.word	0
 1871 000c 00000000 		.word	mtx5_execute
 1872              		.section	.rodata.testmtx6,"a",%progbits
 1873              		.align	2
 1874              		.type	testmtx6, %object
 1875              		.size	testmtx6, 16
 1876              	testmtx6:
 1877 0000 4C000000 		.word	.LC9
 1878 0004 00000000 		.word	mtx6_setup
ARM GAS  C:\cygwin\tmp\ccmkEb0o.s 			page 34


 1879 0008 00000000 		.word	0
 1880 000c 00000000 		.word	mtx6_execute
 1881              		.section	.rodata.testmtx7,"a",%progbits
 1882              		.align	2
 1883              		.type	testmtx7, %object
 1884              		.size	testmtx7, 16
 1885              	testmtx7:
 1886 0000 34000000 		.word	.LC8
 1887 0004 00000000 		.word	mtx7_setup
 1888 0008 00000000 		.word	0
 1889 000c 00000000 		.word	mtx7_execute
 1890              		.section	.rodata.testmtx8,"a",%progbits
 1891              		.align	2
 1892              		.type	testmtx8, %object
 1893              		.size	testmtx8, 16
 1894              	testmtx8:
 1895 0000 20000000 		.word	.LC7
 1896 0004 00000000 		.word	mtx8_setup
 1897 0008 00000000 		.word	0
 1898 000c 00000000 		.word	mtx8_execute
 1899              		.section	.data.m1,"aw",%progbits
 1900              		.align	2
 1901              		.set	.LANCHOR0,. + 0
 1902              		.type	m1, %object
 1903              		.size	m1, 16
 1904              	m1:
 1905 0000 00000000 		.word	m1
 1906 0004 00000000 		.word	m1
 1907 0008 00000000 		.word	0
 1908 000c 00000000 		.word	0
 1909              		.section	.data.m2,"aw",%progbits
 1910              		.align	2
 1911              		.set	.LANCHOR1,. + 0
 1912              		.type	m2, %object
 1913              		.size	m2, 16
 1914              	m2:
 1915 0000 00000000 		.word	m2
 1916 0004 00000000 		.word	m2
 1917 0008 00000000 		.word	0
 1918 000c 00000000 		.word	0
 1919              		.section	.rodata.str1.4,"aMS",%progbits,1
 1920              		.align	2
 1921              	.LC0:
 1922 0000 4500     		.ascii	"E\000"
 1923 0002 0000     		.space	2
 1924              	.LC1:
 1925 0004 4400     		.ascii	"D\000"
 1926 0006 0000     		.space	2
 1927              	.LC2:
 1928 0008 4300     		.ascii	"C\000"
 1929 000a 0000     		.space	2
 1930              	.LC3:
 1931 000c 4200     		.ascii	"B\000"
 1932 000e 0000     		.space	2
 1933              	.LC4:
 1934 0010 4100     		.ascii	"A\000"
 1935 0012 0000     		.space	2
ARM GAS  C:\cygwin\tmp\ccmkEb0o.s 			page 35


 1936              	.LC5:
 1937 0014 41424344 		.ascii	"ABCDE\000"
 1937      4500
 1938 001a 0000     		.space	2
 1939              	.LC6:
 1940 001c 41424300 		.ascii	"ABC\000"
 1941              	.LC7:
 1942 0020 436F6E64 		.ascii	"CondVar, boost test\000"
 1942      5661722C 
 1942      20626F6F 
 1942      73742074 
 1942      65737400 
 1943              	.LC8:
 1944 0034 436F6E64 		.ascii	"CondVar, broadcast test\000"
 1944      5661722C 
 1944      2062726F 
 1944      61646361 
 1944      73742074 
 1945              	.LC9:
 1946 004c 436F6E64 		.ascii	"CondVar, signal test\000"
 1946      5661722C 
 1946      20736967 
 1946      6E616C20 
 1946      74657374 
 1947 0061 000000   		.space	3
 1948              	.LC10:
 1949 0064 4D757465 		.ascii	"Mutexes, status\000"
 1949      7865732C 
 1949      20737461 
 1949      74757300 
 1950              	.LC11:
 1951 0074 4D757465 		.ascii	"Mutexes, priority return\000"
 1951      7865732C 
 1951      20707269 
 1951      6F726974 
 1951      79207265 
 1952 008d 000000   		.space	3
 1953              	.LC12:
 1954 0090 4D757465 		.ascii	"Mutexes, priority enqueuing test\000"
 1954      7865732C 
 1954      20707269 
 1954      6F726974 
 1954      7920656E 
 1955 00b1 000000   		.section	.rodata.patternmtx,"a",%progbits
 1956              		.align	2
 1957              		.type	patternmtx, %object
 1958              		.size	patternmtx, 28
 1959              	patternmtx:
 1960 0000 00000000 		.word	testmtx1
 1961 0004 00000000 		.word	testmtx4
 1962 0008 00000000 		.word	testmtx5
 1963 000c 00000000 		.word	testmtx6
 1964 0010 00000000 		.word	testmtx7
 1965 0014 00000000 		.word	testmtx8
 1966 0018 00000000 		.word	0
 1967              		.section	.data.c1,"aw",%progbits
 1968              		.align	2
ARM GAS  C:\cygwin\tmp\ccmkEb0o.s 			page 36


 1969              		.set	.LANCHOR2,. + 0
 1970              		.type	c1, %object
 1971              		.size	c1, 8
 1972              	c1:
 1973 0000 00000000 		.word	c1
 1974 0004 00000000 		.word	c1
 1975              		.section	.rodata.testmtx1,"a",%progbits
 1976              		.align	2
 1977              		.type	testmtx1, %object
 1978              		.size	testmtx1, 16
 1979              	testmtx1:
 1980 0000 90000000 		.word	.LC12
 1981 0004 00000000 		.word	mtx1_setup
 1982 0008 00000000 		.word	0
 1983 000c 00000000 		.word	mtx1_execute
 1984              		.section	.rodata.testmtx4,"a",%progbits
 1985              		.align	2
 1986              		.type	testmtx4, %object
 1987              		.size	testmtx4, 16
 1988              	testmtx4:
 1989 0000 74000000 		.word	.LC11
 1990 0004 00000000 		.word	mtx4_setup
 1991 0008 00000000 		.word	0
 1992 000c 00000000 		.word	mtx4_execute
 1993              		.text
 1994              	.Letext0:
 1995              		.file 5 "c:\\program files\\gnu tools arm embedded\\4.9 2014q4\\lib\\gcc\\arm-none-eabi\\4.9.3\\in
 1996              		.file 6 "c:\\program files\\gnu tools arm embedded\\4.9 2014q4\\arm-none-eabi\\include\\machine\\_
 1997              		.file 7 "c:\\program files\\gnu tools arm embedded\\4.9 2014q4\\arm-none-eabi\\include\\stdint.h"
 1998              		.file 8 "../../../os/rt/ports/ARMCMx/compilers/GCC/chtypes.h"
 1999              		.file 9 "../../../os/rt/include/chsystypes.h"
 2000              		.file 10 "../../../os/rt/ports/ARMCMx/chcore.h"
 2001              		.file 11 "../../../os/rt/ports/ARMCMx/chcore_v7m.h"
 2002              		.file 12 "../../../os/rt/include/chtm.h"
 2003              		.file 13 "../../../os/rt/include/chmtx.h"
 2004              		.file 14 "../../../os/rt/include/chcond.h"
 2005              		.file 15 "../../../test/rt/test.h"
 2006              		.file 16 "../../../os/rt/include/chsys.h"
 2007              		.file 17 "../../../os/ext/CMSIS/include/core_cm4.h"