ARM GAS  C:\cygwin\tmp\cc6y5Hb0.s 			page 1


   1              		.syntax unified
   2              		.cpu cortex-m4
   3              		.fpu softvfp
   4              		.eabi_attribute 20, 1
   5              		.eabi_attribute 21, 1
   6              		.eabi_attribute 23, 3
   7              		.eabi_attribute 24, 1
   8              		.eabi_attribute 25, 1
   9              		.eabi_attribute 26, 1
  10              		.eabi_attribute 30, 2
  11              		.eabi_attribute 34, 1
  12              		.eabi_attribute 18, 4
  13              		.thumb
  14              		.file	"testbmk.c"
  15              		.text
  16              	.Ltext0:
  17              		.cfi_sections	.debug_frame
  18              		.section	.text.thread1,"ax",%progbits
  19              		.align	2
  20              		.p2align 4,,15
  21              		.thumb
  22              		.thumb_func
  23              		.type	thread1, %function
  24              	thread1:
  25              	.LFB226:
  26              		.file 1 "../../../test/rt/testbmk.c"
  27              		.loc 1 66 0
  28              		.cfi_startproc
  29              		@ args = 0, pretend = 0, frame = 0
  30              		@ frame_needed = 0, uses_anonymous_args = 0
  31              		@ link register save eliminated.
  32              	.LVL0:
  33              		.loc 1 69 0
  34 0000 7047     		bx	lr
  35              		.cfi_endproc
  36              	.LFE226:
  37              		.size	thread1, .-thread1
  38 0002 00BFAFF3 		.section	.text.tmo,"ax",%progbits
  38      0080AFF3 
  38      0080AFF3 
  38      0080
  39              		.align	2
  40              		.p2align 4,,15
  41              		.thumb
  42              		.thumb_func
  43              		.type	tmo, %function
  44              	tmo:
  45              	.LFB242:
  46              		.loc 1 509 0
  47              		.cfi_startproc
  48              		@ args = 0, pretend = 0, frame = 0
  49              		@ frame_needed = 0, uses_anonymous_args = 0
  50              		@ link register save eliminated.
  51              	.LVL1:
  52 0000 7047     		bx	lr
  53              		.cfi_endproc
  54              	.LFE242:
ARM GAS  C:\cygwin\tmp\cc6y5Hb0.s 			page 2


  55              		.size	tmo, .-tmo
  56 0002 00BFAFF3 		.section	.text.bmk13_execute,"ax",%progbits
  56      0080AFF3 
  56      0080AFF3 
  56      0080
  57              		.align	2
  58              		.p2align 4,,15
  59              		.thumb
  60              		.thumb_func
  61              		.type	bmk13_execute, %function
  62              	bmk13_execute:
  63              	.LFB248:
  64              		.loc 1 644 0
  65              		.cfi_startproc
  66              		@ args = 0, pretend = 0, frame = 0
  67              		@ frame_needed = 0, uses_anonymous_args = 0
  68              		.loc 1 644 0
  69 0000 10B5     		push	{r4, lr}
  70              		.cfi_def_cfa_offset 8
  71              		.cfi_offset 4, -8
  72              		.cfi_offset 14, -4
  73              		.loc 1 646 0
  74 0002 2F48     		ldr	r0, .L5
  75              		.loc 1 648 0
  76 0004 2F4C     		ldr	r4, .L5+4
  77              		.loc 1 646 0
  78 0006 FFF7FEFF 		bl	test_print
  79              	.LVL2:
  80              		.loc 1 647 0
  81 000a 4FF4A870 		mov	r0, #336
  82 000e FFF7FEFF 		bl	test_printn
  83              	.LVL3:
  84              		.loc 1 648 0
  85 0012 2046     		mov	r0, r4
  86 0014 FFF7FEFF 		bl	test_println
  87              	.LVL4:
  88              		.loc 1 649 0
  89 0018 2B48     		ldr	r0, .L5+8
  90 001a FFF7FEFF 		bl	test_print
  91              	.LVL5:
  92              		.loc 1 650 0
  93 001e 4420     		movs	r0, #68
  94 0020 FFF7FEFF 		bl	test_printn
  95              	.LVL6:
  96              		.loc 1 651 0
  97 0024 2046     		mov	r0, r4
  98 0026 FFF7FEFF 		bl	test_println
  99              	.LVL7:
 100              		.loc 1 652 0
 101 002a 2848     		ldr	r0, .L5+12
 102 002c FFF7FEFF 		bl	test_print
 103              	.LVL8:
 104              		.loc 1 653 0
 105 0030 1420     		movs	r0, #20
 106 0032 FFF7FEFF 		bl	test_printn
 107              	.LVL9:
 108              		.loc 1 654 0
ARM GAS  C:\cygwin\tmp\cc6y5Hb0.s 			page 3


 109 0036 2046     		mov	r0, r4
 110 0038 FFF7FEFF 		bl	test_println
 111              	.LVL10:
 112              		.loc 1 656 0
 113 003c 2448     		ldr	r0, .L5+16
 114 003e FFF7FEFF 		bl	test_print
 115              	.LVL11:
 116              		.loc 1 657 0
 117 0042 0C20     		movs	r0, #12
 118 0044 FFF7FEFF 		bl	test_printn
 119              	.LVL12:
 120              		.loc 1 658 0
 121 0048 2046     		mov	r0, r4
 122 004a FFF7FEFF 		bl	test_println
 123              	.LVL13:
 124              		.loc 1 661 0
 125 004e 2148     		ldr	r0, .L5+20
 126 0050 FFF7FEFF 		bl	test_print
 127              	.LVL14:
 128              		.loc 1 662 0
 129 0054 0420     		movs	r0, #4
 130 0056 FFF7FEFF 		bl	test_printn
 131              	.LVL15:
 132              		.loc 1 663 0
 133 005a 2046     		mov	r0, r4
 134 005c FFF7FEFF 		bl	test_println
 135              	.LVL16:
 136              		.loc 1 664 0
 137 0060 1D48     		ldr	r0, .L5+24
 138 0062 FFF7FEFF 		bl	test_print
 139              	.LVL17:
 140              		.loc 1 665 0
 141 0066 1420     		movs	r0, #20
 142 0068 FFF7FEFF 		bl	test_printn
 143              	.LVL18:
 144              		.loc 1 666 0
 145 006c 2046     		mov	r0, r4
 146 006e FFF7FEFF 		bl	test_println
 147              	.LVL19:
 148              		.loc 1 669 0
 149 0072 1A48     		ldr	r0, .L5+28
 150 0074 FFF7FEFF 		bl	test_print
 151              	.LVL20:
 152              		.loc 1 670 0
 153 0078 1020     		movs	r0, #16
 154 007a FFF7FEFF 		bl	test_printn
 155              	.LVL21:
 156              		.loc 1 671 0
 157 007e 2046     		mov	r0, r4
 158 0080 FFF7FEFF 		bl	test_println
 159              	.LVL22:
 160              		.loc 1 674 0
 161 0084 1648     		ldr	r0, .L5+32
 162 0086 FFF7FEFF 		bl	test_print
 163              	.LVL23:
 164              		.loc 1 675 0
 165 008a 0820     		movs	r0, #8
ARM GAS  C:\cygwin\tmp\cc6y5Hb0.s 			page 4


 166 008c FFF7FEFF 		bl	test_printn
 167              	.LVL24:
 168              		.loc 1 676 0
 169 0090 2046     		mov	r0, r4
 170 0092 FFF7FEFF 		bl	test_println
 171              	.LVL25:
 172              		.loc 1 679 0
 173 0096 1348     		ldr	r0, .L5+36
 174 0098 FFF7FEFF 		bl	test_print
 175              	.LVL26:
 176              		.loc 1 680 0
 177 009c 2420     		movs	r0, #36
 178 009e FFF7FEFF 		bl	test_printn
 179              	.LVL27:
 180              		.loc 1 681 0
 181 00a2 2046     		mov	r0, r4
 182 00a4 FFF7FEFF 		bl	test_println
 183              	.LVL28:
 184              		.loc 1 684 0
 185 00a8 0F48     		ldr	r0, .L5+40
 186 00aa FFF7FEFF 		bl	test_print
 187              	.LVL29:
 188              		.loc 1 685 0
 189 00ae 2820     		movs	r0, #40
 190 00b0 FFF7FEFF 		bl	test_printn
 191              	.LVL30:
 192              		.loc 1 686 0
 193 00b4 2046     		mov	r0, r4
 194              		.loc 1 688 0
 195 00b6 BDE81040 		pop	{r4, lr}
 196              		.cfi_restore 14
 197              		.cfi_restore 4
 198              		.cfi_def_cfa_offset 0
 199              		.loc 1 686 0
 200 00ba FFF7FEBF 		b	test_println
 201              	.LVL31:
 202              	.L6:
 203 00be 00BF     		.align	2
 204              	.L5:
 205 00c0 00000000 		.word	.LC0
 206 00c4 10000000 		.word	.LC1
 207 00c8 18000000 		.word	.LC2
 208 00cc 28000000 		.word	.LC3
 209 00d0 38000000 		.word	.LC4
 210 00d4 48000000 		.word	.LC5
 211 00d8 58000000 		.word	.LC6
 212 00dc 68000000 		.word	.LC7
 213 00e0 78000000 		.word	.LC8
 214 00e4 88000000 		.word	.LC9
 215 00e8 98000000 		.word	.LC10
 216              		.cfi_endproc
 217              	.LFE248:
 218              		.size	bmk13_execute, .-bmk13_execute
 219 00ec AFF30080 		.section	.text.thread2,"ax",%progbits
 220              		.align	2
 221              		.p2align 4,,15
 222              		.thumb
ARM GAS  C:\cygwin\tmp\cc6y5Hb0.s 			page 5


 223              		.thumb_func
 224              		.type	thread2, %function
 225              	thread2:
 226              	.LFB227:
 227              		.loc 1 72 0
 228              		.cfi_startproc
 229              		@ args = 0, pretend = 0, frame = 0
 230              		@ frame_needed = 0, uses_anonymous_args = 0
 231              	.LVL32:
 232 0000 10B5     		push	{r4, lr}
 233              		.cfi_def_cfa_offset 8
 234              		.cfi_offset 4, -8
 235              		.cfi_offset 14, -4
 236              	.LVL33:
 237              	.L8:
 238              		.loc 1 78 0 discriminator 1
 239 0002 FFF7FEFF 		bl	chMsgWait
 240              	.LVL34:
 241 0006 046B     		ldr	r4, [r0, #48]
 242              	.LVL35:
 243              		.loc 1 80 0 discriminator 1
 244 0008 2146     		mov	r1, r4
 245 000a FFF7FEFF 		bl	chMsgRelease
 246              	.LVL36:
 247              		.loc 1 81 0 discriminator 1
 248 000e 002C     		cmp	r4, #0
 249 0010 F7D1     		bne	.L8
 250              		.loc 1 83 0
 251 0012 2046     		mov	r0, r4
 252 0014 10BD     		pop	{r4, pc}
 253              		.cfi_endproc
 254              	.LFE227:
 255              		.size	thread2, .-thread2
 256 0016 00BFAFF3 		.section	.text.bmk6_execute,"ax",%progbits
 256      0080AFF3 
 256      0080
 257              		.align	2
 258              		.p2align 4,,15
 259              		.thumb
 260              		.thumb_func
 261              		.type	bmk6_execute, %function
 262              	bmk6_execute:
 263              	.LFB235:
 264              		.loc 1 309 0
 265              		.cfi_startproc
 266              		@ args = 0, pretend = 0, frame = 0
 267              		@ frame_needed = 0, uses_anonymous_args = 0
 268              	.LVL37:
 269 0000 2DE9F041 		push	{r4, r5, r6, r7, r8, lr}
 270              		.cfi_def_cfa_offset 24
 271              		.cfi_offset 4, -24
 272              		.cfi_offset 5, -20
 273              		.cfi_offset 6, -16
 274              		.cfi_offset 7, -12
 275              		.cfi_offset 8, -8
 276              		.cfi_offset 14, -4
 277              	.LBB168:
ARM GAS  C:\cygwin\tmp\cc6y5Hb0.s 			page 6


 278              	.LBB169:
 279              	.LBB170:
 280              	.LBB171:
 281              		.file 2 "../../../os/rt/include/chthreads.h"
 282              		.loc 2 179 0
 283 0004 144B     		ldr	r3, .L17
 284              	.LBE171:
 285              	.LBE170:
 286              	.LBE169:
 287              	.LBE168:
 288              		.loc 1 312 0
 289 0006 154A     		ldr	r2, .L17+4
 290              	.LBB173:
 291              	.LBB172:
 292              		.loc 2 192 0
 293 0008 9B69     		ldr	r3, [r3, #24]
 294              	.LBE172:
 295              	.LBE173:
 296              		.loc 1 312 0
 297 000a D2F80080 		ldr	r8, [r2]
 298              	.LVL38:
 299              		.loc 1 313 0
 300 000e 9D68     		ldr	r5, [r3, #8]
 301 0010 134F     		ldr	r7, .L17+8
 302              		.loc 1 309 0
 303 0012 82B0     		sub	sp, sp, #8
 304              		.cfi_def_cfa_offset 32
 305              		.loc 1 314 0
 306 0014 FFF7FEFF 		bl	test_wait_tick
 307              	.LVL39:
 308              		.loc 1 315 0
 309 0018 4FF47A70 		mov	r0, #1000
 310 001c FFF7FEFF 		bl	test_start_timer
 311              	.LVL40:
 312              		.loc 1 311 0
 313 0020 0024     		movs	r4, #0
 314              		.loc 1 313 0
 315 0022 0135     		adds	r5, r5, #1
 316              	.LVL41:
 317              		.loc 1 317 0
 318 0024 2646     		mov	r6, r4
 319              	.LVL42:
 320              	.L13:
 321              		.loc 1 317 0 is_stmt 0 discriminator 1
 322 0026 0F4B     		ldr	r3, .L17+12
 323 0028 0096     		str	r6, [sp]
 324 002a 4046     		mov	r0, r8
 325 002c 4FF4A471 		mov	r1, #328
 326 0030 2A46     		mov	r2, r5
 327 0032 FFF7FEFF 		bl	chThdCreateStatic
 328              	.LVL43:
 329              		.loc 1 322 0 is_stmt 1 discriminator 1
 330 0036 3B78     		ldrb	r3, [r7]	@ zero_extendqisi2
 331              		.loc 1 318 0 discriminator 1
 332 0038 0134     		adds	r4, r4, #1
 333              	.LVL44:
 334              		.loc 1 322 0 discriminator 1
ARM GAS  C:\cygwin\tmp\cc6y5Hb0.s 			page 7


 335 003a 002B     		cmp	r3, #0
 336 003c F3D0     		beq	.L13
 337              		.loc 1 323 0
 338 003e 0A48     		ldr	r0, .L17+16
 339 0040 FFF7FEFF 		bl	test_print
 340              	.LVL45:
 341              		.loc 1 324 0
 342 0044 2046     		mov	r0, r4
 343 0046 FFF7FEFF 		bl	test_printn
 344              	.LVL46:
 345              		.loc 1 325 0
 346 004a 0848     		ldr	r0, .L17+20
 347              		.loc 1 326 0
 348 004c 02B0     		add	sp, sp, #8
 349              		.cfi_def_cfa_offset 24
 350              		@ sp needed
 351 004e BDE8F041 		pop	{r4, r5, r6, r7, r8, lr}
 352              		.cfi_restore 14
 353              		.cfi_restore 8
 354              		.cfi_restore 7
 355              		.cfi_restore 6
 356              		.cfi_restore 5
 357              		.cfi_restore 4
 358              		.cfi_def_cfa_offset 0
 359              	.LVL47:
 360              		.loc 1 325 0
 361 0052 FFF7FEBF 		b	test_println
 362              	.LVL48:
 363              	.L18:
 364 0056 00BF     		.align	2
 365              	.L17:
 366 0058 00000000 		.word	ch
 367 005c 00000000 		.word	wa
 368 0060 00000000 		.word	test_timer_done
 369 0064 00000000 		.word	thread1
 370 0068 A8000000 		.word	.LC11
 371 006c B8000000 		.word	.LC12
 372              		.cfi_endproc
 373              	.LFE235:
 374              		.size	bmk6_execute, .-bmk6_execute
 375              		.section	.text.msg_loop_test,"ax",%progbits
 376              		.align	2
 377              		.p2align 4,,15
 378              		.thumb
 379              		.thumb_func
 380              		.type	msg_loop_test, %function
 381              	msg_loop_test:
 382              	.LFB228:
 383              		.loc 1 88 0
 384              		.cfi_startproc
 385              		@ args = 0, pretend = 0, frame = 0
 386              		@ frame_needed = 0, uses_anonymous_args = 0
 387              	.LVL49:
 388 0000 70B5     		push	{r4, r5, r6, lr}
 389              		.cfi_def_cfa_offset 16
 390              		.cfi_offset 4, -16
 391              		.cfi_offset 5, -12
ARM GAS  C:\cygwin\tmp\cc6y5Hb0.s 			page 8


 392              		.cfi_offset 6, -8
 393              		.cfi_offset 14, -4
 394              		.loc 1 88 0
 395 0002 0546     		mov	r5, r0
 396              		.loc 1 91 0
 397 0004 FFF7FEFF 		bl	test_wait_tick
 398              	.LVL50:
 399              		.loc 1 92 0
 400 0008 4FF47A70 		mov	r0, #1000
 401 000c FFF7FEFF 		bl	test_start_timer
 402              	.LVL51:
 403 0010 074E     		ldr	r6, .L24
 404              		.loc 1 90 0
 405 0012 0024     		movs	r4, #0
 406              	.LVL52:
 407              	.L20:
 408              		.loc 1 94 0 discriminator 1
 409 0014 2846     		mov	r0, r5
 410 0016 0121     		movs	r1, #1
 411 0018 FFF7FEFF 		bl	chMsgSend
 412              	.LVL53:
 413              		.loc 1 99 0 discriminator 1
 414 001c 3378     		ldrb	r3, [r6]	@ zero_extendqisi2
 415              		.loc 1 95 0 discriminator 1
 416 001e 0134     		adds	r4, r4, #1
 417              	.LVL54:
 418              		.loc 1 99 0 discriminator 1
 419 0020 002B     		cmp	r3, #0
 420 0022 F7D0     		beq	.L20
 421              		.loc 1 100 0
 422 0024 2846     		mov	r0, r5
 423 0026 0021     		movs	r1, #0
 424 0028 FFF7FEFF 		bl	chMsgSend
 425              	.LVL55:
 426              		.loc 1 102 0
 427 002c 2046     		mov	r0, r4
 428 002e 70BD     		pop	{r4, r5, r6, pc}
 429              	.LVL56:
 430              	.L25:
 431              		.align	2
 432              	.L24:
 433 0030 00000000 		.word	test_timer_done
 434              		.cfi_endproc
 435              	.LFE228:
 436              		.size	msg_loop_test, .-msg_loop_test
 437 0034 AFF30080 		.section	.text.bmk1_execute,"ax",%progbits
 437      AFF30080 
 437      AFF30080 
 438              		.align	2
 439              		.p2align 4,,15
 440              		.thumb
 441              		.thumb_func
 442              		.type	bmk1_execute, %function
 443              	bmk1_execute:
 444              	.LFB229:
 445              		.loc 1 113 0
 446              		.cfi_startproc
ARM GAS  C:\cygwin\tmp\cc6y5Hb0.s 			page 9


 447              		@ args = 0, pretend = 0, frame = 0
 448              		@ frame_needed = 0, uses_anonymous_args = 0
 449 0000 10B5     		push	{r4, lr}
 450              		.cfi_def_cfa_offset 8
 451              		.cfi_offset 4, -8
 452              		.cfi_offset 14, -4
 453              	.LBB174:
 454              	.LBB175:
 455              	.LBB176:
 456              	.LBB177:
 457              		.loc 2 179 0
 458 0002 134B     		ldr	r3, .L28
 459              	.LBE177:
 460              	.LBE176:
 461              	.LBE175:
 462              	.LBE174:
 463              		.loc 1 116 0
 464 0004 134A     		ldr	r2, .L28+4
 465              	.LBB179:
 466              	.LBB178:
 467              		.loc 2 192 0
 468 0006 9B69     		ldr	r3, [r3, #24]
 469              	.LBE178:
 470              	.LBE179:
 471              		.loc 1 116 0
 472 0008 1068     		ldr	r0, [r2]
 473 000a 9A68     		ldr	r2, [r3, #8]
 474 000c 124B     		ldr	r3, .L28+8
 475              		.loc 1 113 0
 476 000e 82B0     		sub	sp, sp, #8
 477              		.cfi_def_cfa_offset 16
 478              		.loc 1 116 0
 479 0010 0021     		movs	r1, #0
 480 0012 013A     		subs	r2, r2, #1
 481 0014 0091     		str	r1, [sp]
 482 0016 4FF4A471 		mov	r1, #328
 483 001a FFF7FEFF 		bl	chThdCreateStatic
 484              	.LVL57:
 485 001e 0F4B     		ldr	r3, .L28+12
 486 0020 1860     		str	r0, [r3]
 487              		.loc 1 117 0
 488 0022 FFF7FEFF 		bl	msg_loop_test
 489              	.LVL58:
 490 0026 0446     		mov	r4, r0
 491              	.LVL59:
 492              		.loc 1 118 0
 493 0028 FFF7FEFF 		bl	test_wait_threads
 494              	.LVL60:
 495              		.loc 1 119 0
 496 002c 0C48     		ldr	r0, .L28+16
 497 002e FFF7FEFF 		bl	test_print
 498              	.LVL61:
 499              		.loc 1 120 0
 500 0032 2046     		mov	r0, r4
 501 0034 FFF7FEFF 		bl	test_printn
 502              	.LVL62:
 503              		.loc 1 121 0
ARM GAS  C:\cygwin\tmp\cc6y5Hb0.s 			page 10


 504 0038 0A48     		ldr	r0, .L28+20
 505 003a FFF7FEFF 		bl	test_print
 506              	.LVL63:
 507              		.loc 1 122 0
 508 003e 6000     		lsls	r0, r4, #1
 509 0040 FFF7FEFF 		bl	test_printn
 510              	.LVL64:
 511              		.loc 1 123 0
 512 0044 0848     		ldr	r0, .L28+24
 513              		.loc 1 124 0
 514 0046 02B0     		add	sp, sp, #8
 515              		.cfi_def_cfa_offset 8
 516              		@ sp needed
 517 0048 BDE81040 		pop	{r4, lr}
 518              		.cfi_restore 14
 519              		.cfi_restore 4
 520              		.cfi_def_cfa_offset 0
 521              	.LVL65:
 522              		.loc 1 123 0
 523 004c FFF7FEBF 		b	test_println
 524              	.LVL66:
 525              	.L29:
 526              		.align	2
 527              	.L28:
 528 0050 00000000 		.word	ch
 529 0054 00000000 		.word	wa
 530 0058 00000000 		.word	thread2
 531 005c 00000000 		.word	threads
 532 0060 A8000000 		.word	.LC11
 533 0064 C4000000 		.word	.LC13
 534 0068 D0000000 		.word	.LC14
 535              		.cfi_endproc
 536              	.LFE229:
 537              		.size	bmk1_execute, .-bmk1_execute
 538 006c AFF30080 		.section	.text.bmk2_execute,"ax",%progbits
 539              		.align	2
 540              		.p2align 4,,15
 541              		.thumb
 542              		.thumb_func
 543              		.type	bmk2_execute, %function
 544              	bmk2_execute:
 545              	.LFB230:
 546              		.loc 1 142 0
 547              		.cfi_startproc
 548              		@ args = 0, pretend = 0, frame = 0
 549              		@ frame_needed = 0, uses_anonymous_args = 0
 550 0000 10B5     		push	{r4, lr}
 551              		.cfi_def_cfa_offset 8
 552              		.cfi_offset 4, -8
 553              		.cfi_offset 14, -4
 554              	.LBB180:
 555              	.LBB181:
 556              	.LBB182:
 557              	.LBB183:
 558              		.loc 2 179 0
 559 0002 134B     		ldr	r3, .L32
 560              	.LBE183:
ARM GAS  C:\cygwin\tmp\cc6y5Hb0.s 			page 11


 561              	.LBE182:
 562              	.LBE181:
 563              	.LBE180:
 564              		.loc 1 145 0
 565 0004 134A     		ldr	r2, .L32+4
 566              	.LBB185:
 567              	.LBB184:
 568              		.loc 2 192 0
 569 0006 9B69     		ldr	r3, [r3, #24]
 570              	.LBE184:
 571              	.LBE185:
 572              		.loc 1 145 0
 573 0008 1068     		ldr	r0, [r2]
 574 000a 9A68     		ldr	r2, [r3, #8]
 575 000c 124B     		ldr	r3, .L32+8
 576              		.loc 1 142 0
 577 000e 82B0     		sub	sp, sp, #8
 578              		.cfi_def_cfa_offset 16
 579              		.loc 1 145 0
 580 0010 0021     		movs	r1, #0
 581 0012 0132     		adds	r2, r2, #1
 582 0014 0091     		str	r1, [sp]
 583 0016 4FF4A471 		mov	r1, #328
 584 001a FFF7FEFF 		bl	chThdCreateStatic
 585              	.LVL67:
 586 001e 0F4B     		ldr	r3, .L32+12
 587 0020 1860     		str	r0, [r3]
 588              		.loc 1 146 0
 589 0022 FFF7FEFF 		bl	msg_loop_test
 590              	.LVL68:
 591 0026 0446     		mov	r4, r0
 592              	.LVL69:
 593              		.loc 1 147 0
 594 0028 FFF7FEFF 		bl	test_wait_threads
 595              	.LVL70:
 596              		.loc 1 148 0
 597 002c 0C48     		ldr	r0, .L32+16
 598 002e FFF7FEFF 		bl	test_print
 599              	.LVL71:
 600              		.loc 1 149 0
 601 0032 2046     		mov	r0, r4
 602 0034 FFF7FEFF 		bl	test_printn
 603              	.LVL72:
 604              		.loc 1 150 0
 605 0038 0A48     		ldr	r0, .L32+20
 606 003a FFF7FEFF 		bl	test_print
 607              	.LVL73:
 608              		.loc 1 151 0
 609 003e 6000     		lsls	r0, r4, #1
 610 0040 FFF7FEFF 		bl	test_printn
 611              	.LVL74:
 612              		.loc 1 152 0
 613 0044 0848     		ldr	r0, .L32+24
 614              		.loc 1 153 0
 615 0046 02B0     		add	sp, sp, #8
 616              		.cfi_def_cfa_offset 8
 617              		@ sp needed
ARM GAS  C:\cygwin\tmp\cc6y5Hb0.s 			page 12


 618 0048 BDE81040 		pop	{r4, lr}
 619              		.cfi_restore 14
 620              		.cfi_restore 4
 621              		.cfi_def_cfa_offset 0
 622              	.LVL75:
 623              		.loc 1 152 0
 624 004c FFF7FEBF 		b	test_println
 625              	.LVL76:
 626              	.L33:
 627              		.align	2
 628              	.L32:
 629 0050 00000000 		.word	ch
 630 0054 00000000 		.word	wa
 631 0058 00000000 		.word	thread2
 632 005c 00000000 		.word	threads
 633 0060 A8000000 		.word	.LC11
 634 0064 C4000000 		.word	.LC13
 635 0068 D0000000 		.word	.LC14
 636              		.cfi_endproc
 637              	.LFE230:
 638              		.size	bmk2_execute, .-bmk2_execute
 639 006c AFF30080 		.section	.text.bmk3_execute,"ax",%progbits
 640              		.align	2
 641              		.p2align 4,,15
 642              		.thumb
 643              		.thumb_func
 644              		.type	bmk3_execute, %function
 645              	bmk3_execute:
 646              	.LFB231:
 647              		.loc 1 172 0
 648              		.cfi_startproc
 649              		@ args = 0, pretend = 0, frame = 0
 650              		@ frame_needed = 0, uses_anonymous_args = 0
 651 0000 2DE9F041 		push	{r4, r5, r6, r7, r8, lr}
 652              		.cfi_def_cfa_offset 24
 653              		.cfi_offset 4, -24
 654              		.cfi_offset 5, -20
 655              		.cfi_offset 6, -16
 656              		.cfi_offset 7, -12
 657              		.cfi_offset 8, -8
 658              		.cfi_offset 14, -4
 659              	.LBB186:
 660              	.LBB187:
 661              	.LBB188:
 662              	.LBB189:
 663              		.loc 2 179 0
 664 0004 2C4F     		ldr	r7, .L36
 665              	.LBE189:
 666              	.LBE188:
 667              	.LBE187:
 668              	.LBE186:
 669              		.loc 1 175 0
 670 0006 2D4E     		ldr	r6, .L36+4
 671              	.LBB191:
 672              	.LBB190:
 673              		.loc 2 192 0
 674 0008 BB69     		ldr	r3, [r7, #24]
ARM GAS  C:\cygwin\tmp\cc6y5Hb0.s 			page 13


 675              	.LBE190:
 676              	.LBE191:
 677              		.loc 1 175 0
 678 000a 3068     		ldr	r0, [r6]
 679 000c 9A68     		ldr	r2, [r3, #8]
 680 000e 2C4B     		ldr	r3, .L36+8
 681 0010 2C4C     		ldr	r4, .L36+12
 682              		.loc 1 176 0
 683 0012 DFF8C080 		ldr	r8, .L36+28
 684              		.loc 1 172 0
 685 0016 82B0     		sub	sp, sp, #8
 686              		.cfi_def_cfa_offset 32
 687              		.loc 1 175 0
 688 0018 0025     		movs	r5, #0
 689 001a 0132     		adds	r2, r2, #1
 690 001c 0095     		str	r5, [sp]
 691 001e 4FF4A471 		mov	r1, #328
 692 0022 FFF7FEFF 		bl	chThdCreateStatic
 693              	.LVL77:
 694              	.LBB192:
 695              	.LBB193:
 696              		.loc 2 192 0
 697 0026 BA69     		ldr	r2, [r7, #24]
 698              	.LBE193:
 699              	.LBE192:
 700              		.loc 1 176 0
 701 0028 7368     		ldr	r3, [r6, #4]
 702 002a 9268     		ldr	r2, [r2, #8]
 703              		.loc 1 175 0
 704 002c 2060     		str	r0, [r4]
 705              		.loc 1 176 0
 706 002e 023A     		subs	r2, r2, #2
 707 0030 0095     		str	r5, [sp]
 708 0032 1846     		mov	r0, r3
 709 0034 4FF4A471 		mov	r1, #328
 710 0038 4346     		mov	r3, r8
 711 003a FFF7FEFF 		bl	chThdCreateStatic
 712              	.LVL78:
 713              	.LBB194:
 714              	.LBB195:
 715              		.loc 2 192 0
 716 003e BA69     		ldr	r2, [r7, #24]
 717              	.LBE195:
 718              	.LBE194:
 719              		.loc 1 177 0
 720 0040 B368     		ldr	r3, [r6, #8]
 721 0042 9268     		ldr	r2, [r2, #8]
 722              		.loc 1 176 0
 723 0044 6060     		str	r0, [r4, #4]
 724              		.loc 1 177 0
 725 0046 033A     		subs	r2, r2, #3
 726 0048 0095     		str	r5, [sp]
 727 004a 1846     		mov	r0, r3
 728 004c 4FF4A471 		mov	r1, #328
 729 0050 4346     		mov	r3, r8
 730 0052 FFF7FEFF 		bl	chThdCreateStatic
 731              	.LVL79:
ARM GAS  C:\cygwin\tmp\cc6y5Hb0.s 			page 14


 732              	.LBB196:
 733              	.LBB197:
 734              		.loc 2 192 0
 735 0056 BA69     		ldr	r2, [r7, #24]
 736              	.LBE197:
 737              	.LBE196:
 738              		.loc 1 178 0
 739 0058 F368     		ldr	r3, [r6, #12]
 740 005a 9268     		ldr	r2, [r2, #8]
 741              		.loc 1 177 0
 742 005c A060     		str	r0, [r4, #8]
 743              		.loc 1 178 0
 744 005e 043A     		subs	r2, r2, #4
 745 0060 0095     		str	r5, [sp]
 746 0062 1846     		mov	r0, r3
 747 0064 4FF4A471 		mov	r1, #328
 748 0068 4346     		mov	r3, r8
 749 006a FFF7FEFF 		bl	chThdCreateStatic
 750              	.LVL80:
 751              	.LBB198:
 752              	.LBB199:
 753              		.loc 2 192 0
 754 006e BA69     		ldr	r2, [r7, #24]
 755              	.LBE199:
 756              	.LBE198:
 757              		.loc 1 179 0
 758 0070 3369     		ldr	r3, [r6, #16]
 759 0072 9268     		ldr	r2, [r2, #8]
 760              		.loc 1 178 0
 761 0074 E060     		str	r0, [r4, #12]
 762              		.loc 1 179 0
 763 0076 053A     		subs	r2, r2, #5
 764 0078 4FF4A471 		mov	r1, #328
 765 007c 1846     		mov	r0, r3
 766 007e 0095     		str	r5, [sp]
 767 0080 4346     		mov	r3, r8
 768 0082 FFF7FEFF 		bl	chThdCreateStatic
 769              	.LVL81:
 770 0086 2061     		str	r0, [r4, #16]
 771              		.loc 1 180 0
 772 0088 2068     		ldr	r0, [r4]
 773 008a FFF7FEFF 		bl	msg_loop_test
 774              	.LVL82:
 775 008e 0446     		mov	r4, r0
 776              	.LVL83:
 777              		.loc 1 181 0
 778 0090 FFF7FEFF 		bl	test_wait_threads
 779              	.LVL84:
 780              		.loc 1 182 0
 781 0094 0C48     		ldr	r0, .L36+16
 782 0096 FFF7FEFF 		bl	test_print
 783              	.LVL85:
 784              		.loc 1 183 0
 785 009a 2046     		mov	r0, r4
 786 009c FFF7FEFF 		bl	test_printn
 787              	.LVL86:
 788              		.loc 1 184 0
ARM GAS  C:\cygwin\tmp\cc6y5Hb0.s 			page 15


 789 00a0 0A48     		ldr	r0, .L36+20
 790 00a2 FFF7FEFF 		bl	test_print
 791              	.LVL87:
 792              		.loc 1 185 0
 793 00a6 6000     		lsls	r0, r4, #1
 794 00a8 FFF7FEFF 		bl	test_printn
 795              	.LVL88:
 796              		.loc 1 186 0
 797 00ac 0848     		ldr	r0, .L36+24
 798              		.loc 1 187 0
 799 00ae 02B0     		add	sp, sp, #8
 800              		.cfi_def_cfa_offset 24
 801              		@ sp needed
 802 00b0 BDE8F041 		pop	{r4, r5, r6, r7, r8, lr}
 803              		.cfi_restore 14
 804              		.cfi_restore 8
 805              		.cfi_restore 7
 806              		.cfi_restore 6
 807              		.cfi_restore 5
 808              		.cfi_restore 4
 809              		.cfi_def_cfa_offset 0
 810              	.LVL89:
 811              		.loc 1 186 0
 812 00b4 FFF7FEBF 		b	test_println
 813              	.LVL90:
 814              	.L37:
 815              		.align	2
 816              	.L36:
 817 00b8 00000000 		.word	ch
 818 00bc 00000000 		.word	wa
 819 00c0 00000000 		.word	thread2
 820 00c4 00000000 		.word	threads
 821 00c8 A8000000 		.word	.LC11
 822 00cc C4000000 		.word	.LC13
 823 00d0 D0000000 		.word	.LC14
 824 00d4 00000000 		.word	thread1
 825              		.cfi_endproc
 826              	.LFE231:
 827              		.size	bmk3_execute, .-bmk3_execute
 828 00d8 AFF30080 		.section	.text.thread4,"ax",%progbits
 828      AFF30080 
 829              		.align	2
 830              		.p2align 4,,15
 831              		.global	thread4
 832              		.thumb
 833              		.thumb_func
 834              		.type	thread4, %function
 835              	thread4:
 836              	.LFB232:
 837              		.loc 1 207 0
 838              		.cfi_startproc
 839              		@ args = 0, pretend = 0, frame = 0
 840              		@ frame_needed = 0, uses_anonymous_args = 0
 841              	.LVL91:
 842              	.LBB200:
 843              	.LBB201:
 844              		.loc 2 179 0
ARM GAS  C:\cygwin\tmp\cc6y5Hb0.s 			page 16


 845 0000 074A     		ldr	r2, .L43
 846              	.LBE201:
 847              	.LBE200:
 848              		.loc 1 207 0
 849 0002 10B5     		push	{r4, lr}
 850              		.cfi_def_cfa_offset 8
 851              		.cfi_offset 4, -8
 852              		.cfi_offset 14, -4
 853              	.LBB203:
 854              	.LBB204:
 855              	.LBB205:
 856              	.LBB206:
 857              		.file 3 "../../../os/ext/CMSIS/include/core_cmFunc.h"
 858              		.loc 3 546 0
 859 0004 2023     		movs	r3, #32
 860              	.LBE206:
 861              	.LBE205:
 862              	.LBE204:
 863              	.LBE203:
 864              	.LBB210:
 865              	.LBB202:
 866              		.loc 2 179 0
 867 0006 9469     		ldr	r4, [r2, #24]
 868              	.LVL92:
 869              	.LBE202:
 870              	.LBE210:
 871              	.LBB211:
 872              	.LBB209:
 873              	.LBB208:
 874              	.LBB207:
 875              		.loc 3 546 0
 876              	@ 546 "../../../os/ext/CMSIS/include/core_cmFunc.h" 1
 877 0008 83F31188 		MSR basepri, r3
 878              	@ 0 "" 2
 879              	.LVL93:
 880              		.thumb
 881              	.L39:
 882              	.LBE207:
 883              	.LBE208:
 884              	.LBE209:
 885              	.LBE211:
 886              		.loc 1 214 0 discriminator 1
 887 000c 0320     		movs	r0, #3
 888 000e FFF7FEFF 		bl	chSchGoSleepS
 889              	.LVL94:
 890              		.loc 1 216 0 discriminator 1
 891 0012 236A     		ldr	r3, [r4, #32]
 892 0014 002B     		cmp	r3, #0
 893 0016 F9D0     		beq	.L39
 894              	.LVL95:
 895              	.LBB212:
 896              	.LBB213:
 897              	.LBB214:
 898              	.LBB215:
 899              	.LBB216:
 900              		.loc 3 546 0
 901 0018 0020     		movs	r0, #0
ARM GAS  C:\cygwin\tmp\cc6y5Hb0.s 			page 17


 902              	@ 546 "../../../os/ext/CMSIS/include/core_cmFunc.h" 1
 903 001a 80F31188 		MSR basepri, r0
 904              	@ 0 "" 2
 905              		.thumb
 906              	.LBE216:
 907              	.LBE215:
 908              	.LBE214:
 909              	.LBE213:
 910              	.LBE212:
 911              		.loc 1 219 0
 912 001e 10BD     		pop	{r4, pc}
 913              	.LVL96:
 914              	.L44:
 915              		.align	2
 916              	.L43:
 917 0020 00000000 		.word	ch
 918              		.cfi_endproc
 919              	.LFE232:
 920              		.size	thread4, .-thread4
 921 0024 AFF30080 		.section	.text.bmk4_execute,"ax",%progbits
 921      AFF30080 
 921      AFF30080 
 922              		.align	2
 923              		.p2align 4,,15
 924              		.thumb
 925              		.thumb_func
 926              		.type	bmk4_execute, %function
 927              	bmk4_execute:
 928              	.LFB233:
 929              		.loc 1 221 0
 930              		.cfi_startproc
 931              		@ args = 0, pretend = 0, frame = 0
 932              		@ frame_needed = 0, uses_anonymous_args = 0
 933 0000 2DE9F047 		push	{r4, r5, r6, r7, r8, r9, r10, lr}
 934              		.cfi_def_cfa_offset 32
 935              		.cfi_offset 4, -32
 936              		.cfi_offset 5, -28
 937              		.cfi_offset 6, -24
 938              		.cfi_offset 7, -20
 939              		.cfi_offset 8, -16
 940              		.cfi_offset 9, -12
 941              		.cfi_offset 10, -8
 942              		.cfi_offset 14, -4
 943              	.LBB217:
 944              	.LBB218:
 945              	.LBB219:
 946              	.LBB220:
 947              		.loc 2 179 0
 948 0004 264B     		ldr	r3, .L50
 949              	.LBE220:
 950              	.LBE219:
 951              	.LBE218:
 952              	.LBE217:
 953              		.loc 1 225 0
 954 0006 274A     		ldr	r2, .L50+4
 955              	.LBB222:
 956              	.LBB221:
ARM GAS  C:\cygwin\tmp\cc6y5Hb0.s 			page 18


 957              		.loc 2 192 0
 958 0008 9B69     		ldr	r3, [r3, #24]
 959              	.LBE221:
 960              	.LBE222:
 961              		.loc 1 225 0
 962 000a 1068     		ldr	r0, [r2]
 963 000c 9A68     		ldr	r2, [r3, #8]
 964 000e 264B     		ldr	r3, .L50+8
 965 0010 DFF8A490 		ldr	r9, .L50+24
 966              		.loc 1 221 0
 967 0014 82B0     		sub	sp, sp, #8
 968              		.cfi_def_cfa_offset 40
 969              		.loc 1 225 0
 970 0016 0025     		movs	r5, #0
 971 0018 0132     		adds	r2, r2, #1
 972 001a 4FF4A471 		mov	r1, #328
 973 001e 0095     		str	r5, [sp]
 974 0020 FFF7FEFF 		bl	chThdCreateStatic
 975              	.LVL97:
 976 0024 214B     		ldr	r3, .L50+12
 977 0026 0446     		mov	r4, r0
 978 0028 1860     		str	r0, [r3]
 979              	.LVL98:
 980              		.loc 1 228 0
 981 002a FFF7FEFF 		bl	test_wait_tick
 982              	.LVL99:
 983              		.loc 1 229 0
 984 002e 4FF47A70 		mov	r0, #1000
 985 0032 FFF7FEFF 		bl	test_start_timer
 986              	.LVL100:
 987              		.loc 1 232 0
 988 0036 AA46     		mov	r10, r5
 989              	.LBB223:
 990              	.LBB224:
 991              	.LBB225:
 992              	.LBB226:
 993              		.loc 3 546 0
 994 0038 4FF02008 		mov	r8, #32
 995              	.LVL101:
 996              	.L46:
 997              		.loc 3 546 0 is_stmt 0 discriminator 1
 998 003c 2027     		movs	r7, #32
 999              	@ 546 "../../../os/ext/CMSIS/include/core_cmFunc.h" 1
 1000 003e 88F31188 		MSR basepri, r8
 1001              	@ 0 "" 2
 1002              		.thumb
 1003              	.LBE226:
 1004              	.LBE225:
 1005              	.LBE224:
 1006              	.LBE223:
 1007              		.loc 1 232 0 is_stmt 1 discriminator 1
 1008 0042 0021     		movs	r1, #0
 1009 0044 2046     		mov	r0, r4
 1010 0046 FFF7FEFF 		bl	chSchWakeupS
 1011              	.LVL102:
 1012              		.loc 1 233 0 discriminator 1
 1013 004a 2046     		mov	r0, r4
ARM GAS  C:\cygwin\tmp\cc6y5Hb0.s 			page 19


 1014 004c 0021     		movs	r1, #0
 1015 004e FFF7FEFF 		bl	chSchWakeupS
 1016              	.LVL103:
 1017              		.loc 1 234 0 discriminator 1
 1018 0052 2046     		mov	r0, r4
 1019 0054 0021     		movs	r1, #0
 1020 0056 FFF7FEFF 		bl	chSchWakeupS
 1021              	.LVL104:
 1022              		.loc 1 235 0 discriminator 1
 1023 005a 2046     		mov	r0, r4
 1024 005c 0021     		movs	r1, #0
 1025 005e FFF7FEFF 		bl	chSchWakeupS
 1026              	.LVL105:
 1027              	.LBB227:
 1028              	.LBB228:
 1029              	.LBB229:
 1030              	.LBB230:
 1031              	.LBB231:
 1032              		.loc 3 546 0 discriminator 1
 1033 0062 0026     		movs	r6, #0
 1034              	@ 546 "../../../os/ext/CMSIS/include/core_cmFunc.h" 1
 1035 0064 8AF31188 		MSR basepri, r10
 1036              	@ 0 "" 2
 1037              		.thumb
 1038              	.LBE231:
 1039              	.LBE230:
 1040              	.LBE229:
 1041              	.LBE228:
 1042              	.LBE227:
 1043              		.loc 1 241 0 discriminator 1
 1044 0068 99F80030 		ldrb	r3, [r9]	@ zero_extendqisi2
 1045              		.loc 1 237 0 discriminator 1
 1046 006c 0435     		adds	r5, r5, #4
 1047              	.LVL106:
 1048              		.loc 1 241 0 discriminator 1
 1049 006e 002B     		cmp	r3, #0
 1050 0070 E4D0     		beq	.L46
 1051              	.LVL107:
 1052              	.LBB232:
 1053              	.LBB233:
 1054              	.LBB234:
 1055              	.LBB235:
 1056              		.loc 3 546 0
 1057              	@ 546 "../../../os/ext/CMSIS/include/core_cmFunc.h" 1
 1058 0072 87F31188 		MSR basepri, r7
 1059              	@ 0 "" 2
 1060              		.thumb
 1061              	.LBE235:
 1062              	.LBE234:
 1063              	.LBE233:
 1064              	.LBE232:
 1065              		.loc 1 243 0
 1066 0076 4FF0FF31 		mov	r1, #-1
 1067 007a 2046     		mov	r0, r4
 1068 007c FFF7FEFF 		bl	chSchWakeupS
 1069              	.LVL108:
 1070              	.LBB236:
ARM GAS  C:\cygwin\tmp\cc6y5Hb0.s 			page 20


 1071              	.LBB237:
 1072              	.LBB238:
 1073              	.LBB239:
 1074              	.LBB240:
 1075              		.loc 3 546 0
 1076              	@ 546 "../../../os/ext/CMSIS/include/core_cmFunc.h" 1
 1077 0080 86F31188 		MSR basepri, r6
 1078              	@ 0 "" 2
 1079              		.thumb
 1080              	.LBE240:
 1081              	.LBE239:
 1082              	.LBE238:
 1083              	.LBE237:
 1084              	.LBE236:
 1085              		.loc 1 246 0
 1086 0084 FFF7FEFF 		bl	test_wait_threads
 1087              	.LVL109:
 1088              		.loc 1 247 0
 1089 0088 0948     		ldr	r0, .L50+16
 1090 008a FFF7FEFF 		bl	test_print
 1091              	.LVL110:
 1092              		.loc 1 248 0
 1093 008e 6800     		lsls	r0, r5, #1
 1094 0090 FFF7FEFF 		bl	test_printn
 1095              	.LVL111:
 1096              		.loc 1 249 0
 1097 0094 0748     		ldr	r0, .L50+20
 1098              		.loc 1 250 0
 1099 0096 02B0     		add	sp, sp, #8
 1100              		.cfi_def_cfa_offset 32
 1101              		@ sp needed
 1102 0098 BDE8F047 		pop	{r4, r5, r6, r7, r8, r9, r10, lr}
 1103              		.cfi_restore 14
 1104              		.cfi_restore 10
 1105              		.cfi_restore 9
 1106              		.cfi_restore 8
 1107              		.cfi_restore 7
 1108              		.cfi_restore 6
 1109              		.cfi_restore 5
 1110              		.cfi_restore 4
 1111              		.cfi_def_cfa_offset 0
 1112              	.LVL112:
 1113              		.loc 1 249 0
 1114 009c FFF7FEBF 		b	test_println
 1115              	.LVL113:
 1116              	.L51:
 1117              		.align	2
 1118              	.L50:
 1119 00a0 00000000 		.word	ch
 1120 00a4 00000000 		.word	wa
 1121 00a8 00000000 		.word	thread4
 1122 00ac 00000000 		.word	threads
 1123 00b0 A8000000 		.word	.LC11
 1124 00b4 D0000000 		.word	.LC14
 1125 00b8 00000000 		.word	test_timer_done
 1126              		.cfi_endproc
 1127              	.LFE233:
ARM GAS  C:\cygwin\tmp\cc6y5Hb0.s 			page 21


 1128              		.size	bmk4_execute, .-bmk4_execute
 1129 00bc AFF30080 		.section	.text.bmk5_execute,"ax",%progbits
 1130              		.align	2
 1131              		.p2align 4,,15
 1132              		.thumb
 1133              		.thumb_func
 1134              		.type	bmk5_execute, %function
 1135              	bmk5_execute:
 1136              	.LFB234:
 1137              		.loc 1 270 0
 1138              		.cfi_startproc
 1139              		@ args = 0, pretend = 0, frame = 0
 1140              		@ frame_needed = 0, uses_anonymous_args = 0
 1141              	.LVL114:
 1142 0000 2DE9F041 		push	{r4, r5, r6, r7, r8, lr}
 1143              		.cfi_def_cfa_offset 24
 1144              		.cfi_offset 4, -24
 1145              		.cfi_offset 5, -20
 1146              		.cfi_offset 6, -16
 1147              		.cfi_offset 7, -12
 1148              		.cfi_offset 8, -8
 1149              		.cfi_offset 14, -4
 1150              	.LBB241:
 1151              	.LBB242:
 1152              	.LBB243:
 1153              	.LBB244:
 1154              		.loc 2 179 0
 1155 0004 154B     		ldr	r3, .L57
 1156              	.LBE244:
 1157              	.LBE243:
 1158              	.LBE242:
 1159              	.LBE241:
 1160              		.loc 1 273 0
 1161 0006 164A     		ldr	r2, .L57+4
 1162              	.LBB246:
 1163              	.LBB245:
 1164              		.loc 2 192 0
 1165 0008 9B69     		ldr	r3, [r3, #24]
 1166              	.LBE245:
 1167              	.LBE246:
 1168              		.loc 1 273 0
 1169 000a D2F80080 		ldr	r8, [r2]
 1170              	.LVL115:
 1171              		.loc 1 274 0
 1172 000e 9D68     		ldr	r5, [r3, #8]
 1173 0010 144F     		ldr	r7, .L57+8
 1174              		.loc 1 270 0
 1175 0012 82B0     		sub	sp, sp, #8
 1176              		.cfi_def_cfa_offset 32
 1177              		.loc 1 275 0
 1178 0014 FFF7FEFF 		bl	test_wait_tick
 1179              	.LVL116:
 1180              		.loc 1 276 0
 1181 0018 4FF47A70 		mov	r0, #1000
 1182 001c FFF7FEFF 		bl	test_start_timer
 1183              	.LVL117:
 1184              		.loc 1 272 0
ARM GAS  C:\cygwin\tmp\cc6y5Hb0.s 			page 22


 1185 0020 0024     		movs	r4, #0
 1186              		.loc 1 274 0
 1187 0022 013D     		subs	r5, r5, #1
 1188              	.LVL118:
 1189              		.loc 1 278 0
 1190 0024 2646     		mov	r6, r4
 1191              	.LVL119:
 1192              	.L53:
 1193              		.loc 1 278 0 is_stmt 0 discriminator 1
 1194 0026 104B     		ldr	r3, .L57+12
 1195 0028 0096     		str	r6, [sp]
 1196 002a 4FF4A471 		mov	r1, #328
 1197 002e 2A46     		mov	r2, r5
 1198 0030 4046     		mov	r0, r8
 1199 0032 FFF7FEFF 		bl	chThdCreateStatic
 1200              	.LVL120:
 1201 0036 FFF7FEFF 		bl	chThdWait
 1202              	.LVL121:
 1203              		.loc 1 283 0 is_stmt 1 discriminator 1
 1204 003a 3B78     		ldrb	r3, [r7]	@ zero_extendqisi2
 1205              		.loc 1 279 0 discriminator 1
 1206 003c 0134     		adds	r4, r4, #1
 1207              	.LVL122:
 1208              		.loc 1 283 0 discriminator 1
 1209 003e 002B     		cmp	r3, #0
 1210 0040 F1D0     		beq	.L53
 1211              		.loc 1 284 0
 1212 0042 0A48     		ldr	r0, .L57+16
 1213 0044 FFF7FEFF 		bl	test_print
 1214              	.LVL123:
 1215              		.loc 1 285 0
 1216 0048 2046     		mov	r0, r4
 1217 004a FFF7FEFF 		bl	test_printn
 1218              	.LVL124:
 1219              		.loc 1 286 0
 1220 004e 0848     		ldr	r0, .L57+20
 1221              		.loc 1 287 0
 1222 0050 02B0     		add	sp, sp, #8
 1223              		.cfi_def_cfa_offset 24
 1224              		@ sp needed
 1225 0052 BDE8F041 		pop	{r4, r5, r6, r7, r8, lr}
 1226              		.cfi_restore 14
 1227              		.cfi_restore 8
 1228              		.cfi_restore 7
 1229              		.cfi_restore 6
 1230              		.cfi_restore 5
 1231              		.cfi_restore 4
 1232              		.cfi_def_cfa_offset 0
 1233              	.LVL125:
 1234              		.loc 1 286 0
 1235 0056 FFF7FEBF 		b	test_println
 1236              	.LVL126:
 1237              	.L58:
 1238 005a 00BF     		.align	2
 1239              	.L57:
 1240 005c 00000000 		.word	ch
 1241 0060 00000000 		.word	wa
ARM GAS  C:\cygwin\tmp\cc6y5Hb0.s 			page 23


 1242 0064 00000000 		.word	test_timer_done
 1243 0068 00000000 		.word	thread1
 1244 006c A8000000 		.word	.LC11
 1245 0070 B8000000 		.word	.LC12
 1246              		.cfi_endproc
 1247              	.LFE234:
 1248              		.size	bmk5_execute, .-bmk5_execute
 1249 0074 AFF30080 		.section	.text.bmk7_execute,"ax",%progbits
 1249      AFF30080 
 1249      AFF30080 
 1250              		.align	2
 1251              		.p2align 4,,15
 1252              		.thumb
 1253              		.thumb_func
 1254              		.type	bmk7_execute, %function
 1255              	bmk7_execute:
 1256              	.LFB238:
 1257              		.loc 1 360 0
 1258              		.cfi_startproc
 1259              		@ args = 0, pretend = 0, frame = 0
 1260              		@ frame_needed = 0, uses_anonymous_args = 0
 1261 0000 2DE9F041 		push	{r4, r5, r6, r7, r8, lr}
 1262              		.cfi_def_cfa_offset 24
 1263              		.cfi_offset 4, -24
 1264              		.cfi_offset 5, -20
 1265              		.cfi_offset 6, -16
 1266              		.cfi_offset 7, -12
 1267              		.cfi_offset 8, -8
 1268              		.cfi_offset 14, -4
 1269              	.LBB247:
 1270              	.LBB248:
 1271              	.LBB249:
 1272              	.LBB250:
 1273              		.loc 2 179 0
 1274 0004 DFF80081 		ldr	r8, .L64+32
 1275              	.LBE250:
 1276              	.LBE249:
 1277              	.LBE248:
 1278              	.LBE247:
 1279              		.loc 1 363 0
 1280 0008 374F     		ldr	r7, .L64
 1281              	.LBB252:
 1282              	.LBB251:
 1283              		.loc 2 192 0
 1284 000a D8F81830 		ldr	r3, [r8, #24]
 1285              	.LBE251:
 1286              	.LBE252:
 1287              		.loc 1 363 0
 1288 000e 3868     		ldr	r0, [r7]
 1289 0010 9A68     		ldr	r2, [r3, #8]
 1290 0012 364B     		ldr	r3, .L64+4
 1291 0014 364E     		ldr	r6, .L64+8
 1292 0016 374D     		ldr	r5, .L64+12
 1293              		.loc 1 360 0
 1294 0018 82B0     		sub	sp, sp, #8
 1295              		.cfi_def_cfa_offset 32
 1296              		.loc 1 363 0
ARM GAS  C:\cygwin\tmp\cc6y5Hb0.s 			page 24


 1297 001a 0024     		movs	r4, #0
 1298 001c 0532     		adds	r2, r2, #5
 1299 001e 4FF4A471 		mov	r1, #328
 1300 0022 0094     		str	r4, [sp]
 1301 0024 FFF7FEFF 		bl	chThdCreateStatic
 1302              	.LVL127:
 1303              	.LBB253:
 1304              	.LBB254:
 1305              		.loc 2 192 0
 1306 0028 D8F81820 		ldr	r2, [r8, #24]
 1307              	.LBE254:
 1308              	.LBE253:
 1309              		.loc 1 364 0
 1310 002c 7B68     		ldr	r3, [r7, #4]
 1311 002e 9268     		ldr	r2, [r2, #8]
 1312              		.loc 1 363 0
 1313 0030 3060     		str	r0, [r6]
 1314              		.loc 1 364 0
 1315 0032 0432     		adds	r2, r2, #4
 1316 0034 1846     		mov	r0, r3
 1317 0036 4FF4A471 		mov	r1, #328
 1318 003a 2C4B     		ldr	r3, .L64+4
 1319 003c 0094     		str	r4, [sp]
 1320 003e FFF7FEFF 		bl	chThdCreateStatic
 1321              	.LVL128:
 1322              	.LBB255:
 1323              	.LBB256:
 1324              		.loc 2 192 0
 1325 0042 D8F81820 		ldr	r2, [r8, #24]
 1326              	.LBE256:
 1327              	.LBE255:
 1328              		.loc 1 365 0
 1329 0046 BB68     		ldr	r3, [r7, #8]
 1330 0048 9268     		ldr	r2, [r2, #8]
 1331              		.loc 1 364 0
 1332 004a 7060     		str	r0, [r6, #4]
 1333              		.loc 1 365 0
 1334 004c 0332     		adds	r2, r2, #3
 1335 004e 1846     		mov	r0, r3
 1336 0050 4FF4A471 		mov	r1, #328
 1337 0054 254B     		ldr	r3, .L64+4
 1338 0056 0094     		str	r4, [sp]
 1339 0058 FFF7FEFF 		bl	chThdCreateStatic
 1340              	.LVL129:
 1341              	.LBB257:
 1342              	.LBB258:
 1343              		.loc 2 192 0
 1344 005c D8F81820 		ldr	r2, [r8, #24]
 1345              	.LBE258:
 1346              	.LBE257:
 1347              		.loc 1 366 0
 1348 0060 FB68     		ldr	r3, [r7, #12]
 1349 0062 9268     		ldr	r2, [r2, #8]
 1350              		.loc 1 365 0
 1351 0064 B060     		str	r0, [r6, #8]
 1352              		.loc 1 366 0
 1353 0066 0232     		adds	r2, r2, #2
ARM GAS  C:\cygwin\tmp\cc6y5Hb0.s 			page 25


 1354 0068 1846     		mov	r0, r3
 1355 006a 4FF4A471 		mov	r1, #328
 1356 006e 1F4B     		ldr	r3, .L64+4
 1357 0070 0094     		str	r4, [sp]
 1358 0072 FFF7FEFF 		bl	chThdCreateStatic
 1359              	.LVL130:
 1360              	.LBB259:
 1361              	.LBB260:
 1362              		.loc 2 192 0
 1363 0076 D8F81820 		ldr	r2, [r8, #24]
 1364              	.LBE260:
 1365              	.LBE259:
 1366              		.loc 1 367 0
 1367 007a 3B69     		ldr	r3, [r7, #16]
 1368 007c 9268     		ldr	r2, [r2, #8]
 1369              		.loc 1 366 0
 1370 007e F060     		str	r0, [r6, #12]
 1371              		.loc 1 367 0
 1372 0080 0132     		adds	r2, r2, #1
 1373 0082 1846     		mov	r0, r3
 1374 0084 4FF4A471 		mov	r1, #328
 1375 0088 184B     		ldr	r3, .L64+4
 1376 008a 0094     		str	r4, [sp]
 1377 008c FFF7FEFF 		bl	chThdCreateStatic
 1378              	.LVL131:
 1379 0090 3061     		str	r0, [r6, #16]
 1380              	.LVL132:
 1381              		.loc 1 370 0
 1382 0092 FFF7FEFF 		bl	test_wait_tick
 1383              	.LVL133:
 1384              		.loc 1 371 0
 1385 0096 4FF47A70 		mov	r0, #1000
 1386 009a FFF7FEFF 		bl	test_start_timer
 1387              	.LVL134:
 1388              	.L60:
 1389              		.loc 1 373 0 discriminator 1
 1390 009e 1648     		ldr	r0, .L64+16
 1391 00a0 0021     		movs	r1, #0
 1392 00a2 FFF7FEFF 		bl	chSemReset
 1393              	.LVL135:
 1394              		.loc 1 378 0 discriminator 1
 1395 00a6 2B78     		ldrb	r3, [r5]	@ zero_extendqisi2
 1396              		.loc 1 374 0 discriminator 1
 1397 00a8 0134     		adds	r4, r4, #1
 1398              	.LVL136:
 1399              		.loc 1 378 0 discriminator 1
 1400 00aa 002B     		cmp	r3, #0
 1401 00ac F7D0     		beq	.L60
 1402              		.loc 1 379 0
 1403 00ae FFF7FEFF 		bl	test_terminate_threads
 1404              	.LVL137:
 1405              		.loc 1 380 0
 1406 00b2 0021     		movs	r1, #0
 1407 00b4 1048     		ldr	r0, .L64+16
 1408 00b6 FFF7FEFF 		bl	chSemReset
 1409              	.LVL138:
 1410              		.loc 1 381 0
ARM GAS  C:\cygwin\tmp\cc6y5Hb0.s 			page 26


 1411 00ba FFF7FEFF 		bl	test_wait_threads
 1412              	.LVL139:
 1413              		.loc 1 383 0
 1414 00be 0F48     		ldr	r0, .L64+20
 1415 00c0 FFF7FEFF 		bl	test_print
 1416              	.LVL140:
 1417              		.loc 1 384 0
 1418 00c4 2046     		mov	r0, r4
 1419 00c6 FFF7FEFF 		bl	test_printn
 1420              	.LVL141:
 1421              		.loc 1 385 0
 1422 00ca 0D48     		ldr	r0, .L64+24
 1423 00cc FFF7FEFF 		bl	test_print
 1424              	.LVL142:
 1425              		.loc 1 386 0
 1426 00d0 04EB4400 		add	r0, r4, r4, lsl #1
 1427 00d4 4000     		lsls	r0, r0, #1
 1428 00d6 FFF7FEFF 		bl	test_printn
 1429              	.LVL143:
 1430              		.loc 1 387 0
 1431 00da 0A48     		ldr	r0, .L64+28
 1432              		.loc 1 388 0
 1433 00dc 02B0     		add	sp, sp, #8
 1434              		.cfi_def_cfa_offset 24
 1435              		@ sp needed
 1436 00de BDE8F041 		pop	{r4, r5, r6, r7, r8, lr}
 1437              		.cfi_restore 14
 1438              		.cfi_restore 8
 1439              		.cfi_restore 7
 1440              		.cfi_restore 6
 1441              		.cfi_restore 5
 1442              		.cfi_restore 4
 1443              		.cfi_def_cfa_offset 0
 1444              	.LVL144:
 1445              		.loc 1 387 0
 1446 00e2 FFF7FEBF 		b	test_println
 1447              	.LVL145:
 1448              	.L65:
 1449 00e6 00BF     		.align	2
 1450              	.L64:
 1451 00e8 00000000 		.word	wa
 1452 00ec 00000000 		.word	thread3
 1453 00f0 00000000 		.word	threads
 1454 00f4 00000000 		.word	test_timer_done
 1455 00f8 00000000 		.word	.LANCHOR0
 1456 00fc A8000000 		.word	.LC11
 1457 0100 DC000000 		.word	.LC15
 1458 0104 D0000000 		.word	.LC14
 1459 0108 00000000 		.word	ch
 1460              		.cfi_endproc
 1461              	.LFE238:
 1462              		.size	bmk7_execute, .-bmk7_execute
 1463 010c AFF30080 		.section	.text.thread3,"ax",%progbits
 1464              		.align	2
 1465              		.p2align 4,,15
 1466              		.thumb
 1467              		.thumb_func
ARM GAS  C:\cygwin\tmp\cc6y5Hb0.s 			page 27


 1468              		.type	thread3, %function
 1469              	thread3:
 1470              	.LFB236:
 1471              		.loc 1 347 0
 1472              		.cfi_startproc
 1473              		@ args = 0, pretend = 0, frame = 0
 1474              		@ frame_needed = 0, uses_anonymous_args = 0
 1475              	.LVL146:
 1476 0000 10B5     		push	{r4, lr}
 1477              		.cfi_def_cfa_offset 8
 1478              		.cfi_offset 4, -8
 1479              		.cfi_offset 14, -4
 1480              	.LBB261:
 1481              	.LBB262:
 1482              	.LBB263:
 1483              	.LBB264:
 1484              		.loc 2 179 0
 1485 0002 074C     		ldr	r4, .L74
 1486              	.LBE264:
 1487              	.LBE263:
 1488              		.loc 2 236 0
 1489 0004 A369     		ldr	r3, [r4, #24]
 1490 0006 5B7F     		ldrb	r3, [r3, #29]	@ zero_extendqisi2
 1491              	.LBE262:
 1492              	.LBE261:
 1493              		.loc 1 350 0
 1494 0008 5A07     		lsls	r2, r3, #29
 1495 000a 06D4     		bmi	.L72
 1496              	.LVL147:
 1497              	.L67:
 1498              		.loc 1 351 0
 1499 000c 0548     		ldr	r0, .L74+4
 1500 000e FFF7FEFF 		bl	chSemWait
 1501              	.LVL148:
 1502              	.LBB266:
 1503              	.LBB265:
 1504              		.loc 2 236 0
 1505 0012 A369     		ldr	r3, [r4, #24]
 1506 0014 5B7F     		ldrb	r3, [r3, #29]	@ zero_extendqisi2
 1507              	.LBE265:
 1508              	.LBE266:
 1509              		.loc 1 350 0
 1510 0016 5B07     		lsls	r3, r3, #29
 1511 0018 F8D5     		bpl	.L67
 1512              	.L72:
 1513              		.loc 1 353 0
 1514 001a 0020     		movs	r0, #0
 1515 001c 10BD     		pop	{r4, pc}
 1516              	.L75:
 1517 001e 00BF     		.align	2
 1518              	.L74:
 1519 0020 00000000 		.word	ch
 1520 0024 00000000 		.word	.LANCHOR0
 1521              		.cfi_endproc
 1522              	.LFE236:
 1523              		.size	thread3, .-thread3
 1524 0028 AFF30080 		.section	.text.bmk7_setup,"ax",%progbits
ARM GAS  C:\cygwin\tmp\cc6y5Hb0.s 			page 28


 1524      AFF30080 
 1525              		.align	2
 1526              		.p2align 4,,15
 1527              		.thumb
 1528              		.thumb_func
 1529              		.type	bmk7_setup, %function
 1530              	bmk7_setup:
 1531              	.LFB237:
 1532              		.loc 1 355 0
 1533              		.cfi_startproc
 1534              		@ args = 0, pretend = 0, frame = 0
 1535              		@ frame_needed = 0, uses_anonymous_args = 0
 1536              		@ link register save eliminated.
 1537              		.loc 1 357 0
 1538 0000 0148     		ldr	r0, .L77
 1539 0002 0021     		movs	r1, #0
 1540 0004 FFF7FEBF 		b	chSemObjectInit
 1541              	.LVL149:
 1542              	.L78:
 1543              		.align	2
 1544              	.L77:
 1545 0008 00000000 		.word	.LANCHOR0
 1546              		.cfi_endproc
 1547              	.LFE237:
 1548              		.size	bmk7_setup, .-bmk7_setup
 1549 000c AFF30080 		.section	.text.bmk11_setup,"ax",%progbits
 1550              		.align	2
 1551              		.p2align 4,,15
 1552              		.thumb
 1553              		.thumb_func
 1554              		.type	bmk11_setup, %function
 1555              	bmk11_setup:
 1556              	.LFB244:
 1557              		.loc 1 552 0
 1558              		.cfi_startproc
 1559              		@ args = 0, pretend = 0, frame = 0
 1560              		@ frame_needed = 0, uses_anonymous_args = 0
 1561              		@ link register save eliminated.
 1562              		.loc 1 554 0
 1563 0000 0148     		ldr	r0, .L80
 1564 0002 0121     		movs	r1, #1
 1565 0004 FFF7FEBF 		b	chSemObjectInit
 1566              	.LVL150:
 1567              	.L81:
 1568              		.align	2
 1569              	.L80:
 1570 0008 00000000 		.word	.LANCHOR0
 1571              		.cfi_endproc
 1572              	.LFE244:
 1573              		.size	bmk11_setup, .-bmk11_setup
 1574 000c AFF30080 		.section	.text.bmk8_execute,"ax",%progbits
 1575              		.align	2
 1576              		.p2align 4,,15
 1577              		.thumb
 1578              		.thumb_func
 1579              		.type	bmk8_execute, %function
 1580              	bmk8_execute:
ARM GAS  C:\cygwin\tmp\cc6y5Hb0.s 			page 29


 1581              	.LFB240:
 1582              		.loc 1 423 0
 1583              		.cfi_startproc
 1584              		@ args = 0, pretend = 0, frame = 8
 1585              		@ frame_needed = 0, uses_anonymous_args = 0
 1586 0000 2DE9F041 		push	{r4, r5, r6, r7, r8, lr}
 1587              		.cfi_def_cfa_offset 24
 1588              		.cfi_offset 4, -24
 1589              		.cfi_offset 5, -20
 1590              		.cfi_offset 6, -16
 1591              		.cfi_offset 7, -12
 1592              		.cfi_offset 8, -8
 1593              		.cfi_offset 14, -4
 1594 0004 84B0     		sub	sp, sp, #16
 1595              		.cfi_def_cfa_offset 40
 1596              		.loc 1 426 0
 1597 0006 04AC     		add	r4, sp, #16
 1598              	.LBB267:
 1599              	.LBB268:
 1600              	.LBB269:
 1601              	.LBB270:
 1602              		.loc 2 179 0
 1603 0008 DFF8CC80 		ldr	r8, .L84+20
 1604              	.LBE270:
 1605              	.LBE269:
 1606              	.LBE268:
 1607              	.LBE267:
 1608              		.loc 1 429 0
 1609 000c 2D4F     		ldr	r7, .L84
 1610 000e 2E4E     		ldr	r6, .L84+4
 1611 0010 2E4D     		ldr	r5, .L84+8
 1612              		.loc 1 426 0
 1613 0012 0023     		movs	r3, #0
 1614 0014 44F8043D 		str	r3, [r4, #-4]!
 1615              		.loc 1 427 0
 1616 0018 FFF7FEFF 		bl	test_wait_tick
 1617              	.LVL151:
 1618              	.LBB272:
 1619              	.LBB271:
 1620              		.loc 2 192 0
 1621 001c D8F81830 		ldr	r3, [r8, #24]
 1622              	.LBE271:
 1623              	.LBE272:
 1624              		.loc 1 429 0
 1625 0020 3868     		ldr	r0, [r7]
 1626 0022 9A68     		ldr	r2, [r3, #8]
 1627 0024 0094     		str	r4, [sp]
 1628 0026 3346     		mov	r3, r6
 1629 0028 013A     		subs	r2, r2, #1
 1630 002a 4FF4A471 		mov	r1, #328
 1631 002e FFF7FEFF 		bl	chThdCreateStatic
 1632              	.LVL152:
 1633              	.LBB273:
 1634              	.LBB274:
 1635              		.loc 2 192 0
 1636 0032 D8F81820 		ldr	r2, [r8, #24]
 1637              	.LBE274:
ARM GAS  C:\cygwin\tmp\cc6y5Hb0.s 			page 30


 1638              	.LBE273:
 1639              		.loc 1 430 0
 1640 0036 7B68     		ldr	r3, [r7, #4]
 1641 0038 9268     		ldr	r2, [r2, #8]
 1642              		.loc 1 429 0
 1643 003a 2860     		str	r0, [r5]
 1644              		.loc 1 430 0
 1645 003c 013A     		subs	r2, r2, #1
 1646 003e 0094     		str	r4, [sp]
 1647 0040 1846     		mov	r0, r3
 1648 0042 4FF4A471 		mov	r1, #328
 1649 0046 3346     		mov	r3, r6
 1650 0048 FFF7FEFF 		bl	chThdCreateStatic
 1651              	.LVL153:
 1652              	.LBB275:
 1653              	.LBB276:
 1654              		.loc 2 192 0
 1655 004c D8F81820 		ldr	r2, [r8, #24]
 1656              	.LBE276:
 1657              	.LBE275:
 1658              		.loc 1 431 0
 1659 0050 BB68     		ldr	r3, [r7, #8]
 1660 0052 9268     		ldr	r2, [r2, #8]
 1661              		.loc 1 430 0
 1662 0054 6860     		str	r0, [r5, #4]
 1663              		.loc 1 431 0
 1664 0056 013A     		subs	r2, r2, #1
 1665 0058 0094     		str	r4, [sp]
 1666 005a 1846     		mov	r0, r3
 1667 005c 4FF4A471 		mov	r1, #328
 1668 0060 3346     		mov	r3, r6
 1669 0062 FFF7FEFF 		bl	chThdCreateStatic
 1670              	.LVL154:
 1671              	.LBB277:
 1672              	.LBB278:
 1673              		.loc 2 192 0
 1674 0066 D8F81820 		ldr	r2, [r8, #24]
 1675              	.LBE278:
 1676              	.LBE277:
 1677              		.loc 1 432 0
 1678 006a FB68     		ldr	r3, [r7, #12]
 1679 006c 9268     		ldr	r2, [r2, #8]
 1680              		.loc 1 431 0
 1681 006e A860     		str	r0, [r5, #8]
 1682              		.loc 1 432 0
 1683 0070 013A     		subs	r2, r2, #1
 1684 0072 0094     		str	r4, [sp]
 1685 0074 1846     		mov	r0, r3
 1686 0076 4FF4A471 		mov	r1, #328
 1687 007a 3346     		mov	r3, r6
 1688 007c FFF7FEFF 		bl	chThdCreateStatic
 1689              	.LVL155:
 1690              	.LBB279:
 1691              	.LBB280:
 1692              		.loc 2 192 0
 1693 0080 D8F81820 		ldr	r2, [r8, #24]
 1694              	.LBE280:
ARM GAS  C:\cygwin\tmp\cc6y5Hb0.s 			page 31


 1695              	.LBE279:
 1696              		.loc 1 433 0
 1697 0084 3B69     		ldr	r3, [r7, #16]
 1698 0086 9268     		ldr	r2, [r2, #8]
 1699              		.loc 1 432 0
 1700 0088 E860     		str	r0, [r5, #12]
 1701              		.loc 1 433 0
 1702 008a 013A     		subs	r2, r2, #1
 1703 008c 4FF4A471 		mov	r1, #328
 1704 0090 0094     		str	r4, [sp]
 1705 0092 1846     		mov	r0, r3
 1706 0094 3346     		mov	r3, r6
 1707 0096 FFF7FEFF 		bl	chThdCreateStatic
 1708              	.LVL156:
 1709 009a 2861     		str	r0, [r5, #16]
 1710              		.loc 1 435 0
 1711 009c 42F21070 		movw	r0, #10000
 1712 00a0 FFF7FEFF 		bl	chThdSleep
 1713              	.LVL157:
 1714              		.loc 1 436 0
 1715 00a4 FFF7FEFF 		bl	test_terminate_threads
 1716              	.LVL158:
 1717              		.loc 1 437 0
 1718 00a8 FFF7FEFF 		bl	test_wait_threads
 1719              	.LVL159:
 1720              		.loc 1 439 0
 1721 00ac 0848     		ldr	r0, .L84+12
 1722 00ae FFF7FEFF 		bl	test_print
 1723              	.LVL160:
 1724              		.loc 1 440 0
 1725 00b2 0398     		ldr	r0, [sp, #12]
 1726 00b4 FFF7FEFF 		bl	test_printn
 1727              	.LVL161:
 1728              		.loc 1 441 0
 1729 00b8 0648     		ldr	r0, .L84+16
 1730 00ba FFF7FEFF 		bl	test_println
 1731              	.LVL162:
 1732              		.loc 1 442 0
 1733 00be 04B0     		add	sp, sp, #16
 1734              		.cfi_def_cfa_offset 24
 1735              		@ sp needed
 1736 00c0 BDE8F081 		pop	{r4, r5, r6, r7, r8, pc}
 1737              	.L85:
 1738              		.align	2
 1739              	.L84:
 1740 00c4 00000000 		.word	wa
 1741 00c8 00000000 		.word	thread8
 1742 00cc 00000000 		.word	threads
 1743 00d0 A8000000 		.word	.LC11
 1744 00d4 D0000000 		.word	.LC14
 1745 00d8 00000000 		.word	ch
 1746              		.cfi_endproc
 1747              	.LFE240:
 1748              		.size	bmk8_execute, .-bmk8_execute
 1749 00dc AFF30080 		.section	.text.thread8,"ax",%progbits
 1750              		.align	2
 1751              		.p2align 4,,15
ARM GAS  C:\cygwin\tmp\cc6y5Hb0.s 			page 32


 1752              		.thumb
 1753              		.thumb_func
 1754              		.type	thread8, %function
 1755              	thread8:
 1756              	.LFB239:
 1757              		.loc 1 408 0
 1758              		.cfi_startproc
 1759              		@ args = 0, pretend = 0, frame = 0
 1760              		@ frame_needed = 0, uses_anonymous_args = 0
 1761              	.LVL163:
 1762 0000 38B5     		push	{r3, r4, r5, lr}
 1763              		.cfi_def_cfa_offset 16
 1764              		.cfi_offset 3, -16
 1765              		.cfi_offset 4, -12
 1766              		.cfi_offset 5, -8
 1767              		.cfi_offset 14, -4
 1768 0002 094D     		ldr	r5, .L91
 1769              		.loc 1 408 0
 1770 0004 0446     		mov	r4, r0
 1771              	.LVL164:
 1772              	.L87:
 1773              		.loc 1 411 0 discriminator 1
 1774 0006 FFF7FEFF 		bl	chThdYield
 1775              	.LVL165:
 1776              		.loc 1 412 0 discriminator 1
 1777 000a FFF7FEFF 		bl	chThdYield
 1778              	.LVL166:
 1779              		.loc 1 413 0 discriminator 1
 1780 000e FFF7FEFF 		bl	chThdYield
 1781              	.LVL167:
 1782              		.loc 1 414 0 discriminator 1
 1783 0012 FFF7FEFF 		bl	chThdYield
 1784              	.LVL168:
 1785              		.loc 1 415 0 discriminator 1
 1786 0016 2368     		ldr	r3, [r4]
 1787              	.LBB281:
 1788              	.LBB282:
 1789              		.loc 2 236 0 discriminator 1
 1790 0018 AA69     		ldr	r2, [r5, #24]
 1791              	.LBE282:
 1792              	.LBE281:
 1793              		.loc 1 415 0 discriminator 1
 1794 001a 0433     		adds	r3, r3, #4
 1795 001c 2360     		str	r3, [r4]
 1796              	.LBB284:
 1797              	.LBB283:
 1798              		.loc 2 236 0 discriminator 1
 1799 001e 537F     		ldrb	r3, [r2, #29]	@ zero_extendqisi2
 1800              	.LBE283:
 1801              	.LBE284:
 1802              		.loc 1 419 0 discriminator 1
 1803 0020 5B07     		lsls	r3, r3, #29
 1804 0022 F0D5     		bpl	.L87
 1805              		.loc 1 421 0
 1806 0024 0020     		movs	r0, #0
 1807 0026 38BD     		pop	{r3, r4, r5, pc}
 1808              	.LVL169:
ARM GAS  C:\cygwin\tmp\cc6y5Hb0.s 			page 33


 1809              	.L92:
 1810              		.align	2
 1811              	.L91:
 1812 0028 00000000 		.word	ch
 1813              		.cfi_endproc
 1814              	.LFE239:
 1815              		.size	thread8, .-thread8
 1816 002c AFF30080 		.section	.text.bmk9_execute,"ax",%progbits
 1817              		.align	2
 1818              		.p2align 4,,15
 1819              		.thumb
 1820              		.thumb_func
 1821              		.type	bmk9_execute, %function
 1822              	bmk9_execute:
 1823              	.LFB241:
 1824              		.loc 1 462 0
 1825              		.cfi_startproc
 1826              		@ args = 0, pretend = 0, frame = 0
 1827              		@ frame_needed = 0, uses_anonymous_args = 0
 1828 0000 F0B5     		push	{r4, r5, r6, r7, lr}
 1829              		.cfi_def_cfa_offset 20
 1830              		.cfi_offset 4, -20
 1831              		.cfi_offset 5, -16
 1832              		.cfi_offset 6, -12
 1833              		.cfi_offset 7, -8
 1834              		.cfi_offset 14, -4
 1835 0002 83B0     		sub	sp, sp, #12
 1836              		.cfi_def_cfa_offset 32
 1837              		.loc 1 467 0
 1838 0004 0024     		movs	r4, #0
 1839 0006 2346     		mov	r3, r4
 1840 0008 2349     		ldr	r1, .L98
 1841 000a 2448     		ldr	r0, .L98+4
 1842 000c 0094     		str	r4, [sp]
 1843 000e 1022     		movs	r2, #16
 1844 0010 FFF7FEFF 		bl	chIQObjectInit
 1845              	.LVL170:
 1846              		.loc 1 469 0
 1847 0014 FFF7FEFF 		bl	test_wait_tick
 1848              	.LVL171:
 1849              		.loc 1 470 0
 1850 0018 4FF47A70 		mov	r0, #1000
 1851 001c FFF7FEFF 		bl	test_start_timer
 1852              	.LVL172:
 1853 0020 1F4F     		ldr	r7, .L98+8
 1854              		.loc 1 473 0
 1855 0022 2646     		mov	r6, r4
 1856              	.LBB285:
 1857              	.LBB286:
 1858              	.LBB287:
 1859              	.LBB288:
 1860              		.loc 3 546 0
 1861 0024 2025     		movs	r5, #32
 1862              	.LVL173:
 1863              	.L94:
 1864              		.loc 3 546 0 is_stmt 0 discriminator 1
 1865              	@ 546 "../../../os/ext/CMSIS/include/core_cmFunc.h" 1
ARM GAS  C:\cygwin\tmp\cc6y5Hb0.s 			page 34


 1866 0026 85F31188 		MSR basepri, r5
 1867              	@ 0 "" 2
 1868              		.thumb
 1869              	.LBE288:
 1870              	.LBE287:
 1871              	.LBE286:
 1872              	.LBE285:
 1873              		.loc 1 473 0 is_stmt 1 discriminator 1
 1874 002a 0021     		movs	r1, #0
 1875 002c 1B48     		ldr	r0, .L98+4
 1876 002e FFF7FEFF 		bl	chIQPutI
 1877              	.LVL174:
 1878              		.loc 1 474 0 discriminator 1
 1879 0032 0121     		movs	r1, #1
 1880 0034 1948     		ldr	r0, .L98+4
 1881 0036 FFF7FEFF 		bl	chIQPutI
 1882              	.LVL175:
 1883              		.loc 1 475 0 discriminator 1
 1884 003a 0221     		movs	r1, #2
 1885 003c 1748     		ldr	r0, .L98+4
 1886 003e FFF7FEFF 		bl	chIQPutI
 1887              	.LVL176:
 1888              		.loc 1 476 0 discriminator 1
 1889 0042 0321     		movs	r1, #3
 1890 0044 1548     		ldr	r0, .L98+4
 1891 0046 FFF7FEFF 		bl	chIQPutI
 1892              	.LVL177:
 1893              	.LBB289:
 1894              	.LBB290:
 1895              	.LBB291:
 1896              	.LBB292:
 1897              	.LBB293:
 1898              		.loc 3 546 0 discriminator 1
 1899              	@ 546 "../../../os/ext/CMSIS/include/core_cmFunc.h" 1
 1900 004a 86F31188 		MSR basepri, r6
 1901              	@ 0 "" 2
 1902              	.LVL178:
 1903              		.thumb
 1904              	.LBE293:
 1905              	.LBE292:
 1906              	.LBE291:
 1907              	.LBE290:
 1908              	.LBE289:
 1909              	.LBB294:
 1910              	.LBB295:
 1911              		.file 4 "../../../os/rt/include/chqueues.h"
 1912              		.loc 4 338 0 discriminator 1
 1913 004e 4FF0FF31 		mov	r1, #-1
 1914 0052 1248     		ldr	r0, .L98+4
 1915 0054 FFF7FEFF 		bl	chIQGetTimeout
 1916              	.LVL179:
 1917              	.LBE295:
 1918              	.LBE294:
 1919              	.LBB296:
 1920              	.LBB297:
 1921 0058 4FF0FF31 		mov	r1, #-1
 1922 005c 0F48     		ldr	r0, .L98+4
ARM GAS  C:\cygwin\tmp\cc6y5Hb0.s 			page 35


 1923 005e FFF7FEFF 		bl	chIQGetTimeout
 1924              	.LVL180:
 1925              	.LBE297:
 1926              	.LBE296:
 1927              	.LBB298:
 1928              	.LBB299:
 1929 0062 4FF0FF31 		mov	r1, #-1
 1930 0066 0D48     		ldr	r0, .L98+4
 1931 0068 FFF7FEFF 		bl	chIQGetTimeout
 1932              	.LVL181:
 1933              	.LBE299:
 1934              	.LBE298:
 1935              	.LBB300:
 1936              	.LBB301:
 1937 006c 0B48     		ldr	r0, .L98+4
 1938 006e 4FF0FF31 		mov	r1, #-1
 1939 0072 FFF7FEFF 		bl	chIQGetTimeout
 1940              	.LVL182:
 1941              	.LBE301:
 1942              	.LBE300:
 1943              		.loc 1 486 0 discriminator 1
 1944 0076 3B78     		ldrb	r3, [r7]	@ zero_extendqisi2
 1945              		.loc 1 482 0 discriminator 1
 1946 0078 0134     		adds	r4, r4, #1
 1947              	.LVL183:
 1948              		.loc 1 486 0 discriminator 1
 1949 007a 002B     		cmp	r3, #0
 1950 007c D3D0     		beq	.L94
 1951              		.loc 1 487 0
 1952 007e 0948     		ldr	r0, .L98+12
 1953 0080 FFF7FEFF 		bl	test_print
 1954              	.LVL184:
 1955              		.loc 1 488 0
 1956 0084 A000     		lsls	r0, r4, #2
 1957 0086 FFF7FEFF 		bl	test_printn
 1958              	.LVL185:
 1959              		.loc 1 489 0
 1960 008a 0748     		ldr	r0, .L98+16
 1961              		.loc 1 490 0
 1962 008c 03B0     		add	sp, sp, #12
 1963              		.cfi_def_cfa_offset 20
 1964              		@ sp needed
 1965 008e BDE8F040 		pop	{r4, r5, r6, r7, lr}
 1966              		.cfi_restore 14
 1967              		.cfi_restore 7
 1968              		.cfi_restore 6
 1969              		.cfi_restore 5
 1970              		.cfi_restore 4
 1971              		.cfi_def_cfa_offset 0
 1972              	.LVL186:
 1973              		.loc 1 489 0
 1974 0092 FFF7FEBF 		b	test_println
 1975              	.LVL187:
 1976              	.L99:
 1977 0096 00BF     		.align	2
 1978              	.L98:
 1979 0098 00000000 		.word	.LANCHOR2
ARM GAS  C:\cygwin\tmp\cc6y5Hb0.s 			page 36


 1980 009c 00000000 		.word	.LANCHOR1
 1981 00a0 00000000 		.word	test_timer_done
 1982 00a4 A8000000 		.word	.LC11
 1983 00a8 F0000000 		.word	.LC16
 1984              		.cfi_endproc
 1985              	.LFE241:
 1986              		.size	bmk9_execute, .-bmk9_execute
 1987 00ac AFF30080 		.section	.text.bmk10_execute,"ax",%progbits
 1988              		.align	2
 1989              		.p2align 4,,15
 1990              		.thumb
 1991              		.thumb_func
 1992              		.type	bmk10_execute, %function
 1993              	bmk10_execute:
 1994              	.LFB243:
 1995              		.loc 1 511 0
 1996              		.cfi_startproc
 1997              		@ args = 0, pretend = 0, frame = 0
 1998              		@ frame_needed = 0, uses_anonymous_args = 0
 1999              	.LVL188:
 2000 0000 38B5     		push	{r3, r4, r5, lr}
 2001              		.cfi_def_cfa_offset 16
 2002              		.cfi_offset 3, -16
 2003              		.cfi_offset 4, -12
 2004              		.cfi_offset 5, -8
 2005              		.cfi_offset 14, -4
 2006              		.loc 1 515 0
 2007 0002 FFF7FEFF 		bl	test_wait_tick
 2008              	.LVL189:
 2009              		.loc 1 516 0
 2010 0006 4FF47A70 		mov	r0, #1000
 2011 000a FFF7FEFF 		bl	test_start_timer
 2012              	.LVL190:
 2013 000e 154D     		ldr	r5, .L105
 2014              		.loc 1 513 0
 2015 0010 0024     		movs	r4, #0
 2016              	.LVL191:
 2017              	.L101:
 2018              	.LBB302:
 2019              	.LBB303:
 2020              	.LBB304:
 2021              	.LBB305:
 2022              		.loc 3 546 0 discriminator 1
 2023 0012 2023     		movs	r3, #32
 2024              	@ 546 "../../../os/ext/CMSIS/include/core_cmFunc.h" 1
 2025 0014 83F31188 		MSR basepri, r3
 2026              	@ 0 "" 2
 2027              		.thumb
 2028              	.LBE305:
 2029              	.LBE304:
 2030              	.LBE303:
 2031              	.LBE302:
 2032              		.loc 1 519 0 discriminator 1
 2033 0018 1348     		ldr	r0, .L105+4
 2034 001a 144A     		ldr	r2, .L105+8
 2035 001c 0121     		movs	r1, #1
 2036 001e 0023     		movs	r3, #0
ARM GAS  C:\cygwin\tmp\cc6y5Hb0.s 			page 37


 2037 0020 FFF7FEFF 		bl	chVTDoSetI
 2038              	.LVL192:
 2039              		.loc 1 520 0 discriminator 1
 2040 0024 114A     		ldr	r2, .L105+8
 2041 0026 1248     		ldr	r0, .L105+12
 2042 0028 42F21071 		movw	r1, #10000
 2043 002c 0023     		movs	r3, #0
 2044 002e FFF7FEFF 		bl	chVTDoSetI
 2045              	.LVL193:
 2046              		.loc 1 521 0 discriminator 1
 2047 0032 0D48     		ldr	r0, .L105+4
 2048 0034 FFF7FEFF 		bl	chVTDoResetI
 2049              	.LVL194:
 2050              		.loc 1 522 0 discriminator 1
 2051 0038 0D48     		ldr	r0, .L105+12
 2052 003a FFF7FEFF 		bl	chVTDoResetI
 2053              	.LVL195:
 2054              	.LBB306:
 2055              	.LBB307:
 2056              	.LBB308:
 2057              	.LBB309:
 2058              	.LBB310:
 2059              		.loc 3 546 0 discriminator 1
 2060 003e 0023     		movs	r3, #0
 2061              	@ 546 "../../../os/ext/CMSIS/include/core_cmFunc.h" 1
 2062 0040 83F31188 		MSR basepri, r3
 2063              	@ 0 "" 2
 2064              		.thumb
 2065              	.LBE310:
 2066              	.LBE309:
 2067              	.LBE308:
 2068              	.LBE307:
 2069              	.LBE306:
 2070              		.loc 1 528 0 discriminator 1
 2071 0044 2B78     		ldrb	r3, [r5]	@ zero_extendqisi2
 2072              		.loc 1 524 0 discriminator 1
 2073 0046 0134     		adds	r4, r4, #1
 2074              	.LVL196:
 2075              		.loc 1 528 0 discriminator 1
 2076 0048 002B     		cmp	r3, #0
 2077 004a E2D0     		beq	.L101
 2078              		.loc 1 529 0
 2079 004c 0948     		ldr	r0, .L105+16
 2080 004e FFF7FEFF 		bl	test_print
 2081              	.LVL197:
 2082              		.loc 1 530 0
 2083 0052 6000     		lsls	r0, r4, #1
 2084 0054 FFF7FEFF 		bl	test_printn
 2085              	.LVL198:
 2086              		.loc 1 531 0
 2087 0058 0748     		ldr	r0, .L105+20
 2088              		.loc 1 532 0
 2089 005a BDE83840 		pop	{r3, r4, r5, lr}
 2090              		.cfi_restore 14
 2091              		.cfi_restore 5
 2092              		.cfi_restore 4
 2093              		.cfi_restore 3
ARM GAS  C:\cygwin\tmp\cc6y5Hb0.s 			page 38


 2094              		.cfi_def_cfa_offset 0
 2095              	.LVL199:
 2096              		.loc 1 531 0
 2097 005e FFF7FEBF 		b	test_println
 2098              	.LVL200:
 2099              	.L106:
 2100 0062 00BF     		.align	2
 2101              	.L105:
 2102 0064 00000000 		.word	test_timer_done
 2103 0068 00000000 		.word	.LANCHOR3
 2104 006c 00000000 		.word	tmo
 2105 0070 00000000 		.word	.LANCHOR4
 2106 0074 A8000000 		.word	.LC11
 2107 0078 FC000000 		.word	.LC17
 2108              		.cfi_endproc
 2109              	.LFE243:
 2110              		.size	bmk10_execute, .-bmk10_execute
 2111 007c AFF30080 		.section	.text.bmk11_execute,"ax",%progbits
 2112              		.align	2
 2113              		.p2align 4,,15
 2114              		.thumb
 2115              		.thumb_func
 2116              		.type	bmk11_execute, %function
 2117              	bmk11_execute:
 2118              	.LFB245:
 2119              		.loc 1 557 0
 2120              		.cfi_startproc
 2121              		@ args = 0, pretend = 0, frame = 0
 2122              		@ frame_needed = 0, uses_anonymous_args = 0
 2123              	.LVL201:
 2124 0000 38B5     		push	{r3, r4, r5, lr}
 2125              		.cfi_def_cfa_offset 16
 2126              		.cfi_offset 3, -16
 2127              		.cfi_offset 4, -12
 2128              		.cfi_offset 5, -8
 2129              		.cfi_offset 14, -4
 2130              		.loc 1 560 0
 2131 0002 FFF7FEFF 		bl	test_wait_tick
 2132              	.LVL202:
 2133              		.loc 1 561 0
 2134 0006 4FF47A70 		mov	r0, #1000
 2135 000a FFF7FEFF 		bl	test_start_timer
 2136              	.LVL203:
 2137 000e 144D     		ldr	r5, .L112
 2138              		.loc 1 558 0
 2139 0010 0024     		movs	r4, #0
 2140              	.LVL204:
 2141              	.L108:
 2142              		.loc 1 563 0 discriminator 1
 2143 0012 1448     		ldr	r0, .L112+4
 2144 0014 FFF7FEFF 		bl	chSemWait
 2145              	.LVL205:
 2146              		.loc 1 564 0 discriminator 1
 2147 0018 1248     		ldr	r0, .L112+4
 2148 001a FFF7FEFF 		bl	chSemSignal
 2149              	.LVL206:
 2150              		.loc 1 565 0 discriminator 1
ARM GAS  C:\cygwin\tmp\cc6y5Hb0.s 			page 39


 2151 001e 1148     		ldr	r0, .L112+4
 2152 0020 FFF7FEFF 		bl	chSemWait
 2153              	.LVL207:
 2154              		.loc 1 566 0 discriminator 1
 2155 0024 0F48     		ldr	r0, .L112+4
 2156 0026 FFF7FEFF 		bl	chSemSignal
 2157              	.LVL208:
 2158              		.loc 1 567 0 discriminator 1
 2159 002a 0E48     		ldr	r0, .L112+4
 2160 002c FFF7FEFF 		bl	chSemWait
 2161              	.LVL209:
 2162              		.loc 1 568 0 discriminator 1
 2163 0030 0C48     		ldr	r0, .L112+4
 2164 0032 FFF7FEFF 		bl	chSemSignal
 2165              	.LVL210:
 2166              		.loc 1 569 0 discriminator 1
 2167 0036 0B48     		ldr	r0, .L112+4
 2168 0038 FFF7FEFF 		bl	chSemWait
 2169              	.LVL211:
 2170              		.loc 1 570 0 discriminator 1
 2171 003c 0948     		ldr	r0, .L112+4
 2172 003e FFF7FEFF 		bl	chSemSignal
 2173              	.LVL212:
 2174              		.loc 1 575 0 discriminator 1
 2175 0042 2B78     		ldrb	r3, [r5]	@ zero_extendqisi2
 2176              		.loc 1 571 0 discriminator 1
 2177 0044 0134     		adds	r4, r4, #1
 2178              	.LVL213:
 2179              		.loc 1 575 0 discriminator 1
 2180 0046 002B     		cmp	r3, #0
 2181 0048 E3D0     		beq	.L108
 2182              		.loc 1 576 0
 2183 004a 0748     		ldr	r0, .L112+8
 2184 004c FFF7FEFF 		bl	test_print
 2185              	.LVL214:
 2186              		.loc 1 577 0
 2187 0050 A000     		lsls	r0, r4, #2
 2188 0052 FFF7FEFF 		bl	test_printn
 2189              	.LVL215:
 2190              		.loc 1 578 0
 2191 0056 0548     		ldr	r0, .L112+12
 2192              		.loc 1 579 0
 2193 0058 BDE83840 		pop	{r3, r4, r5, lr}
 2194              		.cfi_restore 14
 2195              		.cfi_restore 5
 2196              		.cfi_restore 4
 2197              		.cfi_restore 3
 2198              		.cfi_def_cfa_offset 0
 2199              	.LVL216:
 2200              		.loc 1 578 0
 2201 005c FFF7FEBF 		b	test_println
 2202              	.LVL217:
 2203              	.L113:
 2204              		.align	2
 2205              	.L112:
 2206 0060 00000000 		.word	test_timer_done
 2207 0064 00000000 		.word	.LANCHOR0
ARM GAS  C:\cygwin\tmp\cc6y5Hb0.s 			page 40


 2208 0068 A8000000 		.word	.LC11
 2209 006c 08010000 		.word	.LC18
 2210              		.cfi_endproc
 2211              	.LFE245:
 2212              		.size	bmk11_execute, .-bmk11_execute
 2213              		.section	.text.bmk12_execute,"ax",%progbits
 2214              		.align	2
 2215              		.p2align 4,,15
 2216              		.thumb
 2217              		.thumb_func
 2218              		.type	bmk12_execute, %function
 2219              	bmk12_execute:
 2220              	.LFB247:
 2221              		.loc 1 605 0
 2222              		.cfi_startproc
 2223              		@ args = 0, pretend = 0, frame = 0
 2224              		@ frame_needed = 0, uses_anonymous_args = 0
 2225              	.LVL218:
 2226 0000 38B5     		push	{r3, r4, r5, lr}
 2227              		.cfi_def_cfa_offset 16
 2228              		.cfi_offset 3, -16
 2229              		.cfi_offset 4, -12
 2230              		.cfi_offset 5, -8
 2231              		.cfi_offset 14, -4
 2232              		.loc 1 608 0
 2233 0002 FFF7FEFF 		bl	test_wait_tick
 2234              	.LVL219:
 2235              		.loc 1 609 0
 2236 0006 4FF47A70 		mov	r0, #1000
 2237 000a FFF7FEFF 		bl	test_start_timer
 2238              	.LVL220:
 2239 000e 144D     		ldr	r5, .L119
 2240              		.loc 1 606 0
 2241 0010 0024     		movs	r4, #0
 2242              	.LVL221:
 2243              	.L115:
 2244              		.loc 1 611 0 discriminator 1
 2245 0012 1448     		ldr	r0, .L119+4
 2246 0014 FFF7FEFF 		bl	chMtxLock
 2247              	.LVL222:
 2248              		.loc 1 612 0 discriminator 1
 2249 0018 1248     		ldr	r0, .L119+4
 2250 001a FFF7FEFF 		bl	chMtxUnlock
 2251              	.LVL223:
 2252              		.loc 1 613 0 discriminator 1
 2253 001e 1148     		ldr	r0, .L119+4
 2254 0020 FFF7FEFF 		bl	chMtxLock
 2255              	.LVL224:
 2256              		.loc 1 614 0 discriminator 1
 2257 0024 0F48     		ldr	r0, .L119+4
 2258 0026 FFF7FEFF 		bl	chMtxUnlock
 2259              	.LVL225:
 2260              		.loc 1 615 0 discriminator 1
 2261 002a 0E48     		ldr	r0, .L119+4
 2262 002c FFF7FEFF 		bl	chMtxLock
 2263              	.LVL226:
 2264              		.loc 1 616 0 discriminator 1
ARM GAS  C:\cygwin\tmp\cc6y5Hb0.s 			page 41


 2265 0030 0C48     		ldr	r0, .L119+4
 2266 0032 FFF7FEFF 		bl	chMtxUnlock
 2267              	.LVL227:
 2268              		.loc 1 617 0 discriminator 1
 2269 0036 0B48     		ldr	r0, .L119+4
 2270 0038 FFF7FEFF 		bl	chMtxLock
 2271              	.LVL228:
 2272              		.loc 1 618 0 discriminator 1
 2273 003c 0948     		ldr	r0, .L119+4
 2274 003e FFF7FEFF 		bl	chMtxUnlock
 2275              	.LVL229:
 2276              		.loc 1 623 0 discriminator 1
 2277 0042 2B78     		ldrb	r3, [r5]	@ zero_extendqisi2
 2278              		.loc 1 619 0 discriminator 1
 2279 0044 0134     		adds	r4, r4, #1
 2280              	.LVL230:
 2281              		.loc 1 623 0 discriminator 1
 2282 0046 002B     		cmp	r3, #0
 2283 0048 E3D0     		beq	.L115
 2284              		.loc 1 624 0
 2285 004a 0748     		ldr	r0, .L119+8
 2286 004c FFF7FEFF 		bl	test_print
 2287              	.LVL231:
 2288              		.loc 1 625 0
 2289 0050 A000     		lsls	r0, r4, #2
 2290 0052 FFF7FEFF 		bl	test_printn
 2291              	.LVL232:
 2292              		.loc 1 626 0
 2293 0056 0548     		ldr	r0, .L119+12
 2294              		.loc 1 627 0
 2295 0058 BDE83840 		pop	{r3, r4, r5, lr}
 2296              		.cfi_restore 14
 2297              		.cfi_restore 5
 2298              		.cfi_restore 4
 2299              		.cfi_restore 3
 2300              		.cfi_def_cfa_offset 0
 2301              	.LVL233:
 2302              		.loc 1 626 0
 2303 005c FFF7FEBF 		b	test_println
 2304              	.LVL234:
 2305              	.L120:
 2306              		.align	2
 2307              	.L119:
 2308 0060 00000000 		.word	test_timer_done
 2309 0064 00000000 		.word	.LANCHOR5
 2310 0068 A8000000 		.word	.LC11
 2311 006c 18010000 		.word	.LC19
 2312              		.cfi_endproc
 2313              	.LFE247:
 2314              		.size	bmk12_execute, .-bmk12_execute
 2315              		.section	.text.bmk12_setup,"ax",%progbits
 2316              		.align	2
 2317              		.p2align 4,,15
 2318              		.thumb
 2319              		.thumb_func
 2320              		.type	bmk12_setup, %function
 2321              	bmk12_setup:
ARM GAS  C:\cygwin\tmp\cc6y5Hb0.s 			page 42


 2322              	.LFB246:
 2323              		.loc 1 600 0
 2324              		.cfi_startproc
 2325              		@ args = 0, pretend = 0, frame = 0
 2326              		@ frame_needed = 0, uses_anonymous_args = 0
 2327              		@ link register save eliminated.
 2328              		.loc 1 602 0
 2329 0000 0148     		ldr	r0, .L122
 2330 0002 FFF7FEBF 		b	chMtxObjectInit
 2331              	.LVL235:
 2332              	.L123:
 2333 0006 00BF     		.align	2
 2334              	.L122:
 2335 0008 00000000 		.word	.LANCHOR5
 2336              		.cfi_endproc
 2337              	.LFE246:
 2338              		.size	bmk12_setup, .-bmk12_setup
 2339              		.global	patternbmk
 2340              		.global	testbmk13
 2341              		.global	testbmk12
 2342              		.global	testbmk11
 2343              		.global	testbmk10
 2344              		.global	testbmk9
 2345              		.global	testbmk8
 2346              		.global	testbmk7
 2347              		.global	testbmk6
 2348              		.global	testbmk5
 2349              		.global	testbmk4
 2350              		.global	testbmk3
 2351              		.global	testbmk2
 2352              		.global	testbmk1
 2353 000c AFF30080 		.section	.bss.ib.6434,"aw",%nobits
 2354              		.align	2
 2355              		.set	.LANCHOR2,. + 0
 2356              		.type	ib.6434, %object
 2357              		.size	ib.6434, 16
 2358              	ib.6434:
 2359 0000 00000000 		.space	16
 2359      00000000 
 2359      00000000 
 2359      00000000 
 2360              		.section	.rodata.patternbmk,"a",%progbits
 2361              		.align	2
 2362              		.type	patternbmk, %object
 2363              		.size	patternbmk, 56
 2364              	patternbmk:
 2365 0000 00000000 		.word	testbmk1
 2366 0004 00000000 		.word	testbmk2
 2367 0008 00000000 		.word	testbmk3
 2368 000c 00000000 		.word	testbmk4
 2369 0010 00000000 		.word	testbmk5
 2370 0014 00000000 		.word	testbmk6
 2371 0018 00000000 		.word	testbmk7
 2372 001c 00000000 		.word	testbmk8
 2373 0020 00000000 		.word	testbmk9
 2374 0024 00000000 		.word	testbmk10
 2375 0028 00000000 		.word	testbmk11
ARM GAS  C:\cygwin\tmp\cc6y5Hb0.s 			page 43


 2376 002c 00000000 		.word	testbmk12
 2377 0030 00000000 		.word	testbmk13
 2378 0034 00000000 		.word	0
 2379              		.section	.rodata.testbmk8,"a",%progbits
 2380              		.align	2
 2381              		.type	testbmk8, %object
 2382              		.size	testbmk8, 16
 2383              	testbmk8:
 2384 0000 D0010000 		.word	.LC25
 2385 0004 00000000 		.word	0
 2386 0008 00000000 		.word	0
 2387 000c 00000000 		.word	bmk8_execute
 2388              		.section	.bss.vt1.6445,"aw",%nobits
 2389              		.align	2
 2390              		.set	.LANCHOR3,. + 0
 2391              		.type	vt1.6445, %object
 2392              		.size	vt1.6445, 20
 2393              	vt1.6445:
 2394 0000 00000000 		.space	20
 2394      00000000 
 2394      00000000 
 2394      00000000 
 2394      00000000 
 2395              		.section	.rodata.testbmk10,"a",%progbits
 2396              		.align	2
 2397              		.type	testbmk10, %object
 2398              		.size	testbmk10, 16
 2399              	testbmk10:
 2400 0000 88010000 		.word	.LC23
 2401 0004 00000000 		.word	0
 2402 0008 00000000 		.word	0
 2403 000c 00000000 		.word	bmk10_execute
 2404              		.section	.rodata.testbmk4,"a",%progbits
 2405              		.align	2
 2406              		.type	testbmk4, %object
 2407              		.size	testbmk4, 16
 2408              	testbmk4:
 2409 0000 64020000 		.word	.LC29
 2410 0004 00000000 		.word	0
 2411 0008 00000000 		.word	0
 2412 000c 00000000 		.word	bmk4_execute
 2413              		.section	.bss.vt2.6446,"aw",%nobits
 2414              		.align	2
 2415              		.set	.LANCHOR4,. + 0
 2416              		.type	vt2.6446, %object
 2417              		.size	vt2.6446, 20
 2418              	vt2.6446:
 2419 0000 00000000 		.space	20
 2419      00000000 
 2419      00000000 
 2419      00000000 
 2419      00000000 
 2420              		.section	.bss.mtx1,"aw",%nobits
 2421              		.align	2
 2422              		.set	.LANCHOR5,. + 0
 2423              		.type	mtx1, %object
 2424              		.size	mtx1, 16
ARM GAS  C:\cygwin\tmp\cc6y5Hb0.s 			page 44


 2425              	mtx1:
 2426 0000 00000000 		.space	16
 2426      00000000 
 2426      00000000 
 2426      00000000 
 2427              		.section	.rodata.testbmk3,"a",%progbits
 2428              		.align	2
 2429              		.type	testbmk3, %object
 2430              		.size	testbmk3, 16
 2431              	testbmk3:
 2432 0000 80020000 		.word	.LC30
 2433 0004 00000000 		.word	0
 2434 0008 00000000 		.word	0
 2435 000c 00000000 		.word	bmk3_execute
 2436              		.section	.bss.iq.6435,"aw",%nobits
 2437              		.align	2
 2438              		.set	.LANCHOR1,. + 0
 2439              		.type	iq.6435, %object
 2440              		.size	iq.6435, 36
 2441              	iq.6435:
 2442 0000 00000000 		.space	36
 2442      00000000 
 2442      00000000 
 2442      00000000 
 2442      00000000 
 2443              		.section	.rodata.testbmk2,"a",%progbits
 2444              		.align	2
 2445              		.type	testbmk2, %object
 2446              		.size	testbmk2, 16
 2447              	testbmk2:
 2448 0000 98020000 		.word	.LC31
 2449 0004 00000000 		.word	0
 2450 0008 00000000 		.word	0
 2451 000c 00000000 		.word	bmk2_execute
 2452              		.section	.rodata.str1.4,"aMS",%progbits,1
 2453              		.align	2
 2454              	.LC0:
 2455 0000 2D2D2D20 		.ascii	"--- System: \000"
 2455      53797374 
 2455      656D3A20 
 2455      00
 2456 000d 000000   		.space	3
 2457              	.LC1:
 2458 0010 20627974 		.ascii	" bytes\000"
 2458      657300
 2459 0017 00       		.space	1
 2460              	.LC2:
 2461 0018 2D2D2D20 		.ascii	"--- Thread: \000"
 2461      54687265 
 2461      61643A20 
 2461      00
 2462 0025 000000   		.space	3
 2463              	.LC3:
 2464 0028 2D2D2D20 		.ascii	"--- Timer : \000"
 2464      54696D65 
 2464      72203A20 
 2464      00
ARM GAS  C:\cygwin\tmp\cc6y5Hb0.s 			page 45


 2465 0035 000000   		.space	3
 2466              	.LC4:
 2467 0038 2D2D2D20 		.ascii	"--- Semaph: \000"
 2467      53656D61 
 2467      70683A20 
 2467      00
 2468 0045 000000   		.space	3
 2469              	.LC5:
 2470 0048 2D2D2D20 		.ascii	"--- EventS: \000"
 2470      4576656E 
 2470      74533A20 
 2470      00
 2471 0055 000000   		.space	3
 2472              	.LC6:
 2473 0058 2D2D2D20 		.ascii	"--- EventL: \000"
 2473      4576656E 
 2473      744C3A20 
 2473      00
 2474 0065 000000   		.space	3
 2475              	.LC7:
 2476 0068 2D2D2D20 		.ascii	"--- Mutex : \000"
 2476      4D757465 
 2476      78203A20 
 2476      00
 2477 0075 000000   		.space	3
 2478              	.LC8:
 2479 0078 2D2D2D20 		.ascii	"--- CondV.: \000"
 2479      436F6E64 
 2479      562E3A20 
 2479      00
 2480 0085 000000   		.space	3
 2481              	.LC9:
 2482 0088 2D2D2D20 		.ascii	"--- Queue : \000"
 2482      51756575 
 2482      65203A20 
 2482      00
 2483 0095 000000   		.space	3
 2484              	.LC10:
 2485 0098 2D2D2D20 		.ascii	"--- MailB.: \000"
 2485      4D61696C 
 2485      422E3A20 
 2485      00
 2486 00a5 000000   		.space	3
 2487              	.LC11:
 2488 00a8 2D2D2D20 		.ascii	"--- Score : \000"
 2488      53636F72 
 2488      65203A20 
 2488      00
 2489 00b5 000000   		.space	3
 2490              	.LC12:
 2491 00b8 20746872 		.ascii	" threads/S\000"
 2491      65616473 
 2491      2F5300
 2492 00c3 00       		.space	1
 2493              	.LC13:
 2494 00c4 206D7367 		.ascii	" msgs/S, \000"
 2494      732F532C 
ARM GAS  C:\cygwin\tmp\cc6y5Hb0.s 			page 46


 2494      2000
 2495 00ce 0000     		.space	2
 2496              	.LC14:
 2497 00d0 20637478 		.ascii	" ctxswc/S\000"
 2497      7377632F 
 2497      5300
 2498 00da 0000     		.space	2
 2499              	.LC15:
 2500 00dc 20726573 		.ascii	" reschedules/S, \000"
 2500      63686564 
 2500      756C6573 
 2500      2F532C20 
 2500      00
 2501 00ed 000000   		.space	3
 2502              	.LC16:
 2503 00f0 20627974 		.ascii	" bytes/S\000"
 2503      65732F53 
 2503      00
 2504 00f9 000000   		.space	3
 2505              	.LC17:
 2506 00fc 2074696D 		.ascii	" timers/S\000"
 2506      6572732F 
 2506      5300
 2507 0106 0000     		.space	2
 2508              	.LC18:
 2509 0108 20776169 		.ascii	" wait+signal/S\000"
 2509      742B7369 
 2509      676E616C 
 2509      2F5300
 2510 0117 00       		.space	1
 2511              	.LC19:
 2512 0118 206C6F63 		.ascii	" lock+unlock/S\000"
 2512      6B2B756E 
 2512      6C6F636B 
 2512      2F5300
 2513 0127 00       		.space	1
 2514              	.LC20:
 2515 0128 42656E63 		.ascii	"Benchmark, RAM footprint\000"
 2515      686D6172 
 2515      6B2C2052 
 2515      414D2066 
 2515      6F6F7470 
 2516 0141 000000   		.space	3
 2517              	.LC21:
 2518 0144 42656E63 		.ascii	"Benchmark, mutexes lock/unlock\000"
 2518      686D6172 
 2518      6B2C206D 
 2518      75746578 
 2518      6573206C 
 2519 0163 00       		.space	1
 2520              	.LC22:
 2521 0164 42656E63 		.ascii	"Benchmark, semaphores wait/signal\000"
 2521      686D6172 
 2521      6B2C2073 
 2521      656D6170 
 2521      686F7265 
 2522 0186 0000     		.space	2
ARM GAS  C:\cygwin\tmp\cc6y5Hb0.s 			page 47


 2523              	.LC23:
 2524 0188 42656E63 		.ascii	"Benchmark, virtual timers set/reset\000"
 2524      686D6172 
 2524      6B2C2076 
 2524      69727475 
 2524      616C2074 
 2525              	.LC24:
 2526 01ac 42656E63 		.ascii	"Benchmark, I/O Queues throughput\000"
 2526      686D6172 
 2526      6B2C2049 
 2526      2F4F2051 
 2526      75657565 
 2527 01cd 000000   		.space	3
 2528              	.LC25:
 2529 01d0 42656E63 		.ascii	"Benchmark, round robin context switching\000"
 2529      686D6172 
 2529      6B2C2072 
 2529      6F756E64 
 2529      20726F62 
 2530 01f9 000000   		.space	3
 2531              	.LC26:
 2532 01fc 42656E63 		.ascii	"Benchmark, mass reschedule, 5 threads\000"
 2532      686D6172 
 2532      6B2C206D 
 2532      61737320 
 2532      72657363 
 2533 0222 0000     		.space	2
 2534              	.LC27:
 2535 0224 42656E63 		.ascii	"Benchmark, threads, create only\000"
 2535      686D6172 
 2535      6B2C2074 
 2535      68726561 
 2535      64732C20 
 2536              	.LC28:
 2537 0244 42656E63 		.ascii	"Benchmark, threads, full cycle\000"
 2537      686D6172 
 2537      6B2C2074 
 2537      68726561 
 2537      64732C20 
 2538 0263 00       		.space	1
 2539              	.LC29:
 2540 0264 42656E63 		.ascii	"Benchmark, context switch\000"
 2540      686D6172 
 2540      6B2C2063 
 2540      6F6E7465 
 2540      78742073 
 2541 027e 0000     		.space	2
 2542              	.LC30:
 2543 0280 42656E63 		.ascii	"Benchmark, messages #3\000"
 2543      686D6172 
 2543      6B2C206D 
 2543      65737361 
 2543      67657320 
 2544 0297 00       		.space	1
 2545              	.LC31:
 2546 0298 42656E63 		.ascii	"Benchmark, messages #2\000"
 2546      686D6172 
ARM GAS  C:\cygwin\tmp\cc6y5Hb0.s 			page 48


 2546      6B2C206D 
 2546      65737361 
 2546      67657320 
 2547 02af 00       		.space	1
 2548              	.LC32:
 2549 02b0 42656E63 		.ascii	"Benchmark, messages #1\000"
 2549      686D6172 
 2549      6B2C206D 
 2549      65737361 
 2549      67657320 
 2550 02c7 00       		.section	.rodata.testbmk9,"a",%progbits
 2551              		.align	2
 2552              		.type	testbmk9, %object
 2553              		.size	testbmk9, 16
 2554              	testbmk9:
 2555 0000 AC010000 		.word	.LC24
 2556 0004 00000000 		.word	0
 2557 0008 00000000 		.word	0
 2558 000c 00000000 		.word	bmk9_execute
 2559              		.section	.bss.sem1,"aw",%nobits
 2560              		.align	2
 2561              		.set	.LANCHOR0,. + 0
 2562              		.type	sem1, %object
 2563              		.size	sem1, 12
 2564              	sem1:
 2565 0000 00000000 		.space	12
 2565      00000000 
 2565      00000000 
 2566              		.section	.rodata.testbmk1,"a",%progbits
 2567              		.align	2
 2568              		.type	testbmk1, %object
 2569              		.size	testbmk1, 16
 2570              	testbmk1:
 2571 0000 B0020000 		.word	.LC32
 2572 0004 00000000 		.word	0
 2573 0008 00000000 		.word	0
 2574 000c 00000000 		.word	bmk1_execute
 2575              		.section	.rodata.testbmk11,"a",%progbits
 2576              		.align	2
 2577              		.type	testbmk11, %object
 2578              		.size	testbmk11, 16
 2579              	testbmk11:
 2580 0000 64010000 		.word	.LC22
 2581 0004 00000000 		.word	bmk11_setup
 2582 0008 00000000 		.word	0
 2583 000c 00000000 		.word	bmk11_execute
 2584              		.section	.rodata.testbmk12,"a",%progbits
 2585              		.align	2
 2586              		.type	testbmk12, %object
 2587              		.size	testbmk12, 16
 2588              	testbmk12:
 2589 0000 44010000 		.word	.LC21
 2590 0004 00000000 		.word	bmk12_setup
 2591 0008 00000000 		.word	0
 2592 000c 00000000 		.word	bmk12_execute
 2593              		.section	.rodata.testbmk13,"a",%progbits
 2594              		.align	2
ARM GAS  C:\cygwin\tmp\cc6y5Hb0.s 			page 49


 2595              		.type	testbmk13, %object
 2596              		.size	testbmk13, 16
 2597              	testbmk13:
 2598 0000 28010000 		.word	.LC20
 2599 0004 00000000 		.word	0
 2600 0008 00000000 		.word	0
 2601 000c 00000000 		.word	bmk13_execute
 2602              		.section	.rodata.testbmk5,"a",%progbits
 2603              		.align	2
 2604              		.type	testbmk5, %object
 2605              		.size	testbmk5, 16
 2606              	testbmk5:
 2607 0000 44020000 		.word	.LC28
 2608 0004 00000000 		.word	0
 2609 0008 00000000 		.word	0
 2610 000c 00000000 		.word	bmk5_execute
 2611              		.section	.rodata.testbmk6,"a",%progbits
 2612              		.align	2
 2613              		.type	testbmk6, %object
 2614              		.size	testbmk6, 16
 2615              	testbmk6:
 2616 0000 24020000 		.word	.LC27
 2617 0004 00000000 		.word	0
 2618 0008 00000000 		.word	0
 2619 000c 00000000 		.word	bmk6_execute
 2620              		.section	.rodata.testbmk7,"a",%progbits
 2621              		.align	2
 2622              		.type	testbmk7, %object
 2623              		.size	testbmk7, 16
 2624              	testbmk7:
 2625 0000 FC010000 		.word	.LC26
 2626 0004 00000000 		.word	bmk7_setup
 2627 0008 00000000 		.word	0
 2628 000c 00000000 		.word	bmk7_execute
 2629              		.text
 2630              	.Letext0:
 2631              		.file 5 "c:\\program files\\gnu tools arm embedded\\4.9 2014q4\\lib\\gcc\\arm-none-eabi\\4.9.3\\in
 2632              		.file 6 "c:\\program files\\gnu tools arm embedded\\4.9 2014q4\\arm-none-eabi\\include\\machine\\_
 2633              		.file 7 "c:\\program files\\gnu tools arm embedded\\4.9 2014q4\\arm-none-eabi\\include\\stdint.h"
 2634              		.file 8 "../../../os/rt/ports/ARMCMx/compilers/GCC/chtypes.h"
 2635              		.file 9 "../../../os/rt/include/chsystypes.h"
 2636              		.file 10 "../../../os/rt/include/chschd.h"
 2637              		.file 11 "../../../os/rt/ports/ARMCMx/chcore.h"
 2638              		.file 12 "../../../os/rt/ports/ARMCMx/chcore_v7m.h"
 2639              		.file 13 "../../../os/rt/include/chtm.h"
 2640              		.file 14 "../../../os/rt/include/chmtx.h"
 2641              		.file 15 "../../../os/rt/include/chsem.h"
 2642              		.file 16 "../../../test/rt/test.h"
 2643              		.file 17 "../../../os/rt/include/chsys.h"
 2644              		.file 18 "../../../os/rt/include/chmsg.h"
 2645              		.file 19 "../../../os/ext/CMSIS/include/core_cm4.h"
 2646              		.file 20 "../../../os/rt/include/chvt.h"