ARM GAS  C:\Users\jo\AppData\Local\Temp\ccjvEs9v.s 			page 1


   1              		.syntax unified
   2              		.cpu cortex-m4
   3              		.fpu softvfp
   4              		.eabi_attribute 20, 1
   5              		.eabi_attribute 21, 1
   6              		.eabi_attribute 23, 3
   7              		.eabi_attribute 24, 1
   8              		.eabi_attribute 25, 1
   9              		.eabi_attribute 26, 1
  10              		.eabi_attribute 30, 2
  11              		.eabi_attribute 34, 1
  12              		.eabi_attribute 18, 4
  13              		.thumb
  14              		.file	"chcond.c"
  15              		.text
  16              	.Ltext0:
  17              		.cfi_sections	.debug_frame
  18              		.section	.text.chCondObjectInit,"ax",%progbits
  19              		.align	2
  20              		.p2align 4,,15
  21              		.global	chCondObjectInit
  22              		.thumb
  23              		.thumb_func
  24              		.type	chCondObjectInit, %function
  25              	chCondObjectInit:
  26              	.LFB226:
  27              		.file 1 "../../../os/rt/src/chcond.c"
  28              		.loc 1 75 0
  29              		.cfi_startproc
  30              		@ args = 0, pretend = 0, frame = 0
  31              		@ frame_needed = 0, uses_anonymous_args = 0
  32              	.LVL0:
  33 0000 10B5     		push	{r4, lr}
  34              		.cfi_def_cfa_offset 8
  35              		.cfi_offset 4, -8
  36              		.cfi_offset 14, -4
  37              		.loc 1 77 0
  38 0002 0446     		mov	r4, r0
  39 0004 10B1     		cbz	r0, .L5
  40              	.LVL1:
  41              	.LBB61:
  42              	.LBB62:
  43              		.file 2 "../../../os/rt/include/chschd.h"
  44              		.loc 2 574 0
  45 0006 6460     		str	r4, [r4, #4]
  46 0008 2460     		str	r4, [r4]
  47 000a 10BD     		pop	{r4, pc}
  48              	.LVL2:
  49              	.L5:
  50              	.LBE62:
  51              	.LBE61:
  52              		.loc 1 77 0 discriminator 1
  53 000c 0248     		ldr	r0, .L6
  54              	.LVL3:
  55 000e FFF7FEFF 		bl	chSysHalt
  56              	.LVL4:
  57              	.LBB64:
ARM GAS  C:\Users\jo\AppData\Local\Temp\ccjvEs9v.s 			page 2


  58              	.LBB63:
  59              		.loc 2 574 0 discriminator 1
  60 0012 6460     		str	r4, [r4, #4]
  61 0014 2460     		str	r4, [r4]
  62 0016 10BD     		pop	{r4, pc}
  63              	.LVL5:
  64              	.L7:
  65              		.align	2
  66              	.L6:
  67 0018 00000000 		.word	.LANCHOR0
  68              	.LBE63:
  69              	.LBE64:
  70              		.cfi_endproc
  71              	.LFE226:
  72              		.size	chCondObjectInit, .-chCondObjectInit
  73 001c AFF30080 		.section	.text.chCondSignal,"ax",%progbits
  74              		.align	2
  75              		.p2align 4,,15
  76              		.global	chCondSignal
  77              		.thumb
  78              		.thumb_func
  79              		.type	chCondSignal, %function
  80              	chCondSignal:
  81              	.LFB227:
  82              		.loc 1 89 0
  83              		.cfi_startproc
  84              		@ args = 0, pretend = 0, frame = 0
  85              		@ frame_needed = 0, uses_anonymous_args = 0
  86              	.LVL6:
  87 0000 10B5     		push	{r4, lr}
  88              		.cfi_def_cfa_offset 8
  89              		.cfi_offset 4, -8
  90              		.cfi_offset 14, -4
  91              		.loc 1 91 0
  92 0002 0446     		mov	r4, r0
  93 0004 08B3     		cbz	r0, .L13
  94              	.LVL7:
  95              	.L9:
  96              	.LBB79:
  97              	.LBB80:
  98              	.LBB81:
  99              	.LBB82:
 100              	.LBB83:
 101              		.file 3 "../../../os/ext/CMSIS/include/core_cmFunc.h"
 102              		.loc 3 546 0
 103 0006 2023     		movs	r3, #32
 104              	@ 546 "../../../os/ext/CMSIS/include/core_cmFunc.h" 1
 105 0008 83F31188 		MSR basepri, r3
 106              	@ 0 "" 2
 107              		.thumb
 108              	.LBE83:
 109              	.LBE82:
 110              	.LBE81:
 111              		.file 4 "../../../os/rt/include/chsys.h"
 112              		.loc 4 300 0
 113 000c FFF7FEFF 		bl	_stats_start_measure_crit_thd
 114              	.LVL8:
ARM GAS  C:\Users\jo\AppData\Local\Temp\ccjvEs9v.s 			page 3


 115              		.loc 4 301 0
 116 0010 FFF7FEFF 		bl	_dbg_check_lock
 117              	.LVL9:
 118              	.LBE80:
 119              	.LBE79:
 120              	.LBB84:
 121              	.LBB85:
 122              		.loc 2 600 0
 123 0014 2068     		ldr	r0, [r4]
 124              	.LBE85:
 125              	.LBE84:
 126              		.loc 1 94 0
 127 0016 A042     		cmp	r0, r4
 128 0018 05D0     		beq	.L10
 129              	.LVL10:
 130              	.LBB86:
 131              	.LBB87:
 132              		.loc 2 641 0
 133 001a 0368     		ldr	r3, [r0]
 134 001c 2360     		str	r3, [r4]
 135              	.LBE87:
 136              	.LBE86:
 137              		.loc 1 95 0
 138 001e 0021     		movs	r1, #0
 139              	.LBB89:
 140              	.LBB88:
 141              		.loc 2 641 0
 142 0020 5C60     		str	r4, [r3, #4]
 143              	.LBE88:
 144              	.LBE89:
 145              		.loc 1 95 0
 146 0022 FFF7FEFF 		bl	chSchWakeupS
 147              	.LVL11:
 148              	.L10:
 149              	.LBB90:
 150              	.LBB91:
 151              		.loc 4 311 0
 152 0026 FFF7FEFF 		bl	_dbg_check_unlock
 153              	.LVL12:
 154              		.loc 4 312 0
 155 002a FFF7FEFF 		bl	_stats_stop_measure_crit_thd
 156              	.LVL13:
 157              		.loc 4 318 0
 158 002e 094B     		ldr	r3, .L14
 159 0030 9A69     		ldr	r2, [r3, #24]
 160 0032 1B68     		ldr	r3, [r3]
 161 0034 9268     		ldr	r2, [r2, #8]
 162 0036 9B68     		ldr	r3, [r3, #8]
 163 0038 9A42     		cmp	r2, r3
 164 003a 02D2     		bcs	.L11
 165 003c 0648     		ldr	r0, .L14+4
 166 003e FFF7FEFF 		bl	chSysHalt
 167              	.LVL14:
 168              	.L11:
 169              	.LBB92:
 170              	.LBB93:
 171              	.LBB94:
ARM GAS  C:\Users\jo\AppData\Local\Temp\ccjvEs9v.s 			page 4


 172              		.loc 3 546 0
 173 0042 0023     		movs	r3, #0
 174              	@ 546 "../../../os/ext/CMSIS/include/core_cmFunc.h" 1
 175 0044 83F31188 		MSR basepri, r3
 176              	@ 0 "" 2
 177              		.thumb
 178 0048 10BD     		pop	{r4, pc}
 179              	.LVL15:
 180              	.L13:
 181              	.LBE94:
 182              	.LBE93:
 183              	.LBE92:
 184              	.LBE91:
 185              	.LBE90:
 186              		.loc 1 91 0 discriminator 1
 187 004a 0448     		ldr	r0, .L14+8
 188              	.LVL16:
 189 004c FFF7FEFF 		bl	chSysHalt
 190              	.LVL17:
 191 0050 D9E7     		b	.L9
 192              	.L15:
 193 0052 00BF     		.align	2
 194              	.L14:
 195 0054 00000000 		.word	ch
 196 0058 00000000 		.word	.LANCHOR2
 197 005c 00000000 		.word	.LANCHOR1
 198              		.cfi_endproc
 199              	.LFE227:
 200              		.size	chCondSignal, .-chCondSignal
 201              		.section	.text.chCondSignalI,"ax",%progbits
 202              		.align	2
 203              		.p2align 4,,15
 204              		.global	chCondSignalI
 205              		.thumb
 206              		.thumb_func
 207              		.type	chCondSignalI, %function
 208              	chCondSignalI:
 209              	.LFB228:
 210              		.loc 1 111 0
 211              		.cfi_startproc
 212              		@ args = 0, pretend = 0, frame = 0
 213              		@ frame_needed = 0, uses_anonymous_args = 0
 214              	.LVL18:
 215 0000 10B5     		push	{r4, lr}
 216              		.cfi_def_cfa_offset 8
 217              		.cfi_offset 4, -8
 218              		.cfi_offset 14, -4
 219              		.loc 1 111 0
 220 0002 0446     		mov	r4, r0
 221              		.loc 1 113 0
 222 0004 FFF7FEFF 		bl	chDbgCheckClassI
 223              	.LVL19:
 224              		.loc 1 114 0
 225 0008 6CB1     		cbz	r4, .L20
 226              	.L17:
 227              	.LVL20:
 228              	.LBB95:
ARM GAS  C:\Users\jo\AppData\Local\Temp\ccjvEs9v.s 			page 5


 229              	.LBB96:
 230              		.loc 2 600 0
 231 000a 2368     		ldr	r3, [r4]
 232              	.LBE96:
 233              	.LBE95:
 234              		.loc 1 116 0
 235 000c 9C42     		cmp	r4, r3
 236 000e 09D0     		beq	.L16
 237              	.LVL21:
 238              	.LBB97:
 239              	.LBB98:
 240              	.LBB99:
 241              		.loc 2 641 0
 242 0010 1A68     		ldr	r2, [r3]
 243 0012 2260     		str	r2, [r4]
 244              	.LBE99:
 245              	.LBE98:
 246              		.loc 1 118 0
 247 0014 0021     		movs	r1, #0
 248              	.LBB101:
 249              	.LBB100:
 250              		.loc 2 641 0
 251 0016 5460     		str	r4, [r2, #4]
 252              	.LBE100:
 253              	.LBE101:
 254              		.loc 1 118 0
 255 0018 5962     		str	r1, [r3, #36]
 256              		.loc 1 119 0
 257 001a 1846     		mov	r0, r3
 258              	.LBE97:
 259              		.loc 1 121 0
 260 001c BDE81040 		pop	{r4, lr}
 261              		.cfi_remember_state
 262              		.cfi_restore 14
 263              		.cfi_restore 4
 264              		.cfi_def_cfa_offset 0
 265              	.LVL22:
 266              	.LBB102:
 267              		.loc 1 119 0
 268 0020 FFF7FEBF 		b	chSchReadyI
 269              	.LVL23:
 270              	.L16:
 271              		.cfi_restore_state
 272 0024 10BD     		pop	{r4, pc}
 273              	.LVL24:
 274              	.L20:
 275              	.LBE102:
 276              		.loc 1 114 0 discriminator 1
 277 0026 0248     		ldr	r0, .L21
 278 0028 FFF7FEFF 		bl	chSysHalt
 279              	.LVL25:
 280 002c EDE7     		b	.L17
 281              	.L22:
 282 002e 00BF     		.align	2
 283              	.L21:
 284 0030 00000000 		.word	.LANCHOR3
 285              		.cfi_endproc
ARM GAS  C:\Users\jo\AppData\Local\Temp\ccjvEs9v.s 			page 6


 286              	.LFE228:
 287              		.size	chCondSignalI, .-chCondSignalI
 288 0034 AFF30080 		.section	.text.chCondBroadcastI,"ax",%progbits
 288      AFF30080 
 288      AFF30080 
 289              		.align	2
 290              		.p2align 4,,15
 291              		.global	chCondBroadcastI
 292              		.thumb
 293              		.thumb_func
 294              		.type	chCondBroadcastI, %function
 295              	chCondBroadcastI:
 296              	.LFB230:
 297              		.loc 1 149 0
 298              		.cfi_startproc
 299              		@ args = 0, pretend = 0, frame = 0
 300              		@ frame_needed = 0, uses_anonymous_args = 0
 301              	.LVL26:
 302 0000 38B5     		push	{r3, r4, r5, lr}
 303              		.cfi_def_cfa_offset 16
 304              		.cfi_offset 3, -16
 305              		.cfi_offset 4, -12
 306              		.cfi_offset 5, -8
 307              		.cfi_offset 14, -4
 308              		.loc 1 149 0
 309 0002 0446     		mov	r4, r0
 310              		.loc 1 151 0
 311 0004 FFF7FEFF 		bl	chDbgCheckClassI
 312              	.LVL27:
 313              		.loc 1 152 0
 314 0008 74B1     		cbz	r4, .L30
 315              	.L24:
 316              		.loc 1 157 0
 317 000a 2068     		ldr	r0, [r4]
 318 000c A042     		cmp	r0, r4
 319 000e 0AD0     		beq	.L23
 320              		.loc 1 158 0
 321 0010 6FF00105 		mvn	r5, #1
 322              	.L26:
 323              	.LVL28:
 324              	.LBB103:
 325              	.LBB104:
 326              		.loc 2 641 0
 327 0014 0368     		ldr	r3, [r0]
 328 0016 2360     		str	r3, [r4]
 329 0018 5C60     		str	r4, [r3, #4]
 330              	.LBE104:
 331              	.LBE103:
 332              		.loc 1 158 0
 333 001a FFF7FEFF 		bl	chSchReadyI
 334              	.LVL29:
 335 001e 4562     		str	r5, [r0, #36]
 336              		.loc 1 157 0
 337 0020 2068     		ldr	r0, [r4]
 338 0022 A042     		cmp	r0, r4
 339 0024 F6D1     		bne	.L26
 340              	.LVL30:
ARM GAS  C:\Users\jo\AppData\Local\Temp\ccjvEs9v.s 			page 7


 341              	.L23:
 342 0026 38BD     		pop	{r3, r4, r5, pc}
 343              	.LVL31:
 344              	.L30:
 345              		.loc 1 152 0 discriminator 1
 346 0028 0148     		ldr	r0, .L31
 347 002a FFF7FEFF 		bl	chSysHalt
 348              	.LVL32:
 349 002e ECE7     		b	.L24
 350              	.L32:
 351              		.align	2
 352              	.L31:
 353 0030 00000000 		.word	.LANCHOR4
 354              		.cfi_endproc
 355              	.LFE230:
 356              		.size	chCondBroadcastI, .-chCondBroadcastI
 357 0034 AFF30080 		.section	.text.chCondBroadcast,"ax",%progbits
 357      AFF30080 
 357      AFF30080 
 358              		.align	2
 359              		.p2align 4,,15
 360              		.global	chCondBroadcast
 361              		.thumb
 362              		.thumb_func
 363              		.type	chCondBroadcast, %function
 364              	chCondBroadcast:
 365              	.LFB229:
 366              		.loc 1 130 0
 367              		.cfi_startproc
 368              		@ args = 0, pretend = 0, frame = 0
 369              		@ frame_needed = 0, uses_anonymous_args = 0
 370              	.LVL33:
 371 0000 10B5     		push	{r4, lr}
 372              		.cfi_def_cfa_offset 8
 373              		.cfi_offset 4, -8
 374              		.cfi_offset 14, -4
 375              	.LBB115:
 376              	.LBB116:
 377              	.LBB117:
 378              	.LBB118:
 379              	.LBB119:
 380              		.loc 3 546 0
 381 0002 2023     		movs	r3, #32
 382              	.LBE119:
 383              	.LBE118:
 384              	.LBE117:
 385              	.LBE116:
 386              	.LBE115:
 387              		.loc 1 130 0
 388 0004 0446     		mov	r4, r0
 389              	.LBB124:
 390              	.LBB123:
 391              	.LBB122:
 392              	.LBB121:
 393              	.LBB120:
 394              		.loc 3 546 0
 395              	@ 546 "../../../os/ext/CMSIS/include/core_cmFunc.h" 1
ARM GAS  C:\Users\jo\AppData\Local\Temp\ccjvEs9v.s 			page 8


 396 0006 83F31188 		MSR basepri, r3
 397              	@ 0 "" 2
 398              		.thumb
 399              	.LBE120:
 400              	.LBE121:
 401              	.LBE122:
 402              		.loc 4 300 0
 403 000a FFF7FEFF 		bl	_stats_start_measure_crit_thd
 404              	.LVL34:
 405              		.loc 4 301 0
 406 000e FFF7FEFF 		bl	_dbg_check_lock
 407              	.LVL35:
 408              	.LBE123:
 409              	.LBE124:
 410              		.loc 1 133 0
 411 0012 2046     		mov	r0, r4
 412 0014 FFF7FEFF 		bl	chCondBroadcastI
 413              	.LVL36:
 414              		.loc 1 134 0
 415 0018 FFF7FEFF 		bl	chSchRescheduleS
 416              	.LVL37:
 417              	.LBB125:
 418              	.LBB126:
 419              		.loc 4 311 0
 420 001c FFF7FEFF 		bl	_dbg_check_unlock
 421              	.LVL38:
 422              		.loc 4 312 0
 423 0020 FFF7FEFF 		bl	_stats_stop_measure_crit_thd
 424              	.LVL39:
 425              		.loc 4 318 0
 426 0024 064B     		ldr	r3, .L36
 427 0026 9A69     		ldr	r2, [r3, #24]
 428 0028 1B68     		ldr	r3, [r3]
 429 002a 9268     		ldr	r2, [r2, #8]
 430 002c 9B68     		ldr	r3, [r3, #8]
 431 002e 9A42     		cmp	r2, r3
 432 0030 02D2     		bcs	.L34
 433 0032 0448     		ldr	r0, .L36+4
 434 0034 FFF7FEFF 		bl	chSysHalt
 435              	.LVL40:
 436              	.L34:
 437              	.LBB127:
 438              	.LBB128:
 439              	.LBB129:
 440              		.loc 3 546 0
 441 0038 0023     		movs	r3, #0
 442              	@ 546 "../../../os/ext/CMSIS/include/core_cmFunc.h" 1
 443 003a 83F31188 		MSR basepri, r3
 444              	@ 0 "" 2
 445              		.thumb
 446 003e 10BD     		pop	{r4, pc}
 447              	.LVL41:
 448              	.L37:
 449              		.align	2
 450              	.L36:
 451 0040 00000000 		.word	ch
 452 0044 00000000 		.word	.LANCHOR2
ARM GAS  C:\Users\jo\AppData\Local\Temp\ccjvEs9v.s 			page 9


 453              	.LBE129:
 454              	.LBE128:
 455              	.LBE127:
 456              	.LBE126:
 457              	.LBE125:
 458              		.cfi_endproc
 459              	.LFE229:
 460              		.size	chCondBroadcast, .-chCondBroadcast
 461 0048 AFF30080 		.section	.text.chCondWaitS,"ax",%progbits
 461      AFF30080 
 462              		.align	2
 463              		.p2align 4,,15
 464              		.global	chCondWaitS
 465              		.thumb
 466              		.thumb_func
 467              		.type	chCondWaitS, %function
 468              	chCondWaitS:
 469              	.LFB232:
 470              		.loc 1 205 0
 471              		.cfi_startproc
 472              		@ args = 0, pretend = 0, frame = 0
 473              		@ frame_needed = 0, uses_anonymous_args = 0
 474              	.LVL42:
 475 0000 70B5     		push	{r4, r5, r6, lr}
 476              		.cfi_def_cfa_offset 16
 477              		.cfi_offset 4, -16
 478              		.cfi_offset 5, -12
 479              		.cfi_offset 6, -8
 480              		.cfi_offset 14, -4
 481              		.loc 1 206 0
 482 0002 164E     		ldr	r6, .L50
 483              		.loc 1 205 0
 484 0004 0546     		mov	r5, r0
 485              		.loc 1 206 0
 486 0006 B469     		ldr	r4, [r6, #24]
 487              	.LVL43:
 488              		.loc 1 210 0
 489 0008 FFF7FEFF 		bl	chDbgCheckClassS
 490              	.LVL44:
 491              		.loc 1 211 0
 492 000c F5B1     		cbz	r5, .L47
 493              	.L39:
 494              		.loc 1 212 0
 495 000e E36B     		ldr	r3, [r4, #60]
 496 0010 03B3     		cbz	r3, .L48
 497              	.L40:
 498              	.LBB130:
 499              	.LBB131:
 500              		.file 5 "../../../os/rt/include/chmtx.h"
 501              		.loc 5 146 0
 502 0012 B369     		ldr	r3, [r6, #24]
 503 0014 DE6B     		ldr	r6, [r3, #60]
 504              	.LBE131:
 505              	.LBE130:
 506              		.loc 1 216 0
 507 0016 3046     		mov	r0, r6
 508 0018 FFF7FEFF 		bl	chMtxUnlockS
ARM GAS  C:\Users\jo\AppData\Local\Temp\ccjvEs9v.s 			page 10


 509              	.LVL45:
 510              		.loc 1 220 0
 511 001c 6562     		str	r5, [r4, #36]
 512              	.LVL46:
 513              	.LBB132:
 514              	.LBB133:
 515              		.loc 2 622 0
 516 001e 2B46     		mov	r3, r5
 517 0020 03E0     		b	.L42
 518              	.LVL47:
 519              	.L49:
 520              		.loc 2 625 0
 521 0022 9968     		ldr	r1, [r3, #8]
 522 0024 A268     		ldr	r2, [r4, #8]
 523 0026 9142     		cmp	r1, r2
 524 0028 02D3     		bcc	.L43
 525              	.L42:
 526              		.loc 2 624 0
 527 002a 1B68     		ldr	r3, [r3]
 528              	.LVL48:
 529              		.loc 2 625 0
 530 002c 9D42     		cmp	r5, r3
 531 002e F8D1     		bne	.L49
 532              	.L43:
 533              		.loc 2 627 0
 534 0030 5A68     		ldr	r2, [r3, #4]
 535 0032 6260     		str	r2, [r4, #4]
 536              		.loc 2 626 0
 537 0034 2360     		str	r3, [r4]
 538              	.LBE133:
 539              	.LBE132:
 540              		.loc 1 222 0
 541 0036 0720     		movs	r0, #7
 542              	.LBB135:
 543              	.LBB134:
 544              		.loc 2 628 0
 545 0038 5C60     		str	r4, [r3, #4]
 546 003a 1460     		str	r4, [r2]
 547              	.LBE134:
 548              	.LBE135:
 549              		.loc 1 222 0
 550 003c FFF7FEFF 		bl	chSchGoSleepS
 551              	.LVL49:
 552              		.loc 1 223 0
 553 0040 646A     		ldr	r4, [r4, #36]
 554              	.LVL50:
 555              		.loc 1 224 0
 556 0042 3046     		mov	r0, r6
 557 0044 FFF7FEFF 		bl	chMtxLockS
 558              	.LVL51:
 559              		.loc 1 227 0
 560 0048 2046     		mov	r0, r4
 561 004a 70BD     		pop	{r4, r5, r6, pc}
 562              	.LVL52:
 563              	.L47:
 564              		.loc 1 211 0 discriminator 1
 565 004c 0448     		ldr	r0, .L50+4
ARM GAS  C:\Users\jo\AppData\Local\Temp\ccjvEs9v.s 			page 11


 566 004e FFF7FEFF 		bl	chSysHalt
 567              	.LVL53:
 568 0052 DCE7     		b	.L39
 569              	.L48:
 570              		.loc 1 212 0 discriminator 1
 571 0054 0248     		ldr	r0, .L50+4
 572 0056 FFF7FEFF 		bl	chSysHalt
 573              	.LVL54:
 574 005a DAE7     		b	.L40
 575              	.L51:
 576              		.align	2
 577              	.L50:
 578 005c 00000000 		.word	ch
 579 0060 00000000 		.word	.LANCHOR5
 580              		.cfi_endproc
 581              	.LFE232:
 582              		.size	chCondWaitS, .-chCondWaitS
 583 0064 AFF30080 		.section	.text.chCondWait,"ax",%progbits
 583      AFF30080 
 583      AFF30080 
 584              		.align	2
 585              		.p2align 4,,15
 586              		.global	chCondWait
 587              		.thumb
 588              		.thumb_func
 589              		.type	chCondWait, %function
 590              	chCondWait:
 591              	.LFB231:
 592              		.loc 1 179 0
 593              		.cfi_startproc
 594              		@ args = 0, pretend = 0, frame = 0
 595              		@ frame_needed = 0, uses_anonymous_args = 0
 596              	.LVL55:
 597 0000 10B5     		push	{r4, lr}
 598              		.cfi_def_cfa_offset 8
 599              		.cfi_offset 4, -8
 600              		.cfi_offset 14, -4
 601              	.LBB146:
 602              	.LBB147:
 603              	.LBB148:
 604              	.LBB149:
 605              	.LBB150:
 606              		.loc 3 546 0
 607 0002 2023     		movs	r3, #32
 608              	.LBE150:
 609              	.LBE149:
 610              	.LBE148:
 611              	.LBE147:
 612              	.LBE146:
 613              		.loc 1 179 0
 614 0004 0446     		mov	r4, r0
 615              	.LBB155:
 616              	.LBB154:
 617              	.LBB153:
 618              	.LBB152:
 619              	.LBB151:
 620              		.loc 3 546 0
ARM GAS  C:\Users\jo\AppData\Local\Temp\ccjvEs9v.s 			page 12


 621              	@ 546 "../../../os/ext/CMSIS/include/core_cmFunc.h" 1
 622 0006 83F31188 		MSR basepri, r3
 623              	@ 0 "" 2
 624              		.thumb
 625              	.LBE151:
 626              	.LBE152:
 627              	.LBE153:
 628              		.loc 4 300 0
 629 000a FFF7FEFF 		bl	_stats_start_measure_crit_thd
 630              	.LVL56:
 631              		.loc 4 301 0
 632 000e FFF7FEFF 		bl	_dbg_check_lock
 633              	.LVL57:
 634              	.LBE154:
 635              	.LBE155:
 636              		.loc 1 183 0
 637 0012 2046     		mov	r0, r4
 638 0014 FFF7FEFF 		bl	chCondWaitS
 639              	.LVL58:
 640 0018 0446     		mov	r4, r0
 641              	.LVL59:
 642              	.LBB156:
 643              	.LBB157:
 644              		.loc 4 311 0
 645 001a FFF7FEFF 		bl	_dbg_check_unlock
 646              	.LVL60:
 647              		.loc 4 312 0
 648 001e FFF7FEFF 		bl	_stats_stop_measure_crit_thd
 649              	.LVL61:
 650              		.loc 4 318 0
 651 0022 074B     		ldr	r3, .L55
 652 0024 9A69     		ldr	r2, [r3, #24]
 653 0026 1B68     		ldr	r3, [r3]
 654 0028 9268     		ldr	r2, [r2, #8]
 655 002a 9B68     		ldr	r3, [r3, #8]
 656 002c 9A42     		cmp	r2, r3
 657 002e 02D2     		bcs	.L53
 658 0030 0448     		ldr	r0, .L55+4
 659 0032 FFF7FEFF 		bl	chSysHalt
 660              	.LVL62:
 661              	.L53:
 662              	.LBB158:
 663              	.LBB159:
 664              	.LBB160:
 665              		.loc 3 546 0
 666 0036 0023     		movs	r3, #0
 667              	@ 546 "../../../os/ext/CMSIS/include/core_cmFunc.h" 1
 668 0038 83F31188 		MSR basepri, r3
 669              	@ 0 "" 2
 670              		.thumb
 671              	.LBE160:
 672              	.LBE159:
 673              	.LBE158:
 674              	.LBE157:
 675              	.LBE156:
 676              		.loc 1 186 0
 677 003c 2046     		mov	r0, r4
ARM GAS  C:\Users\jo\AppData\Local\Temp\ccjvEs9v.s 			page 13


 678 003e 10BD     		pop	{r4, pc}
 679              	.LVL63:
 680              	.L56:
 681              		.align	2
 682              	.L55:
 683 0040 00000000 		.word	ch
 684 0044 00000000 		.word	.LANCHOR2
 685              		.cfi_endproc
 686              	.LFE231:
 687              		.size	chCondWait, .-chCondWait
 688 0048 AFF30080 		.section	.text.chCondWaitTimeoutS,"ax",%progbits
 688      AFF30080 
 689              		.align	2
 690              		.p2align 4,,15
 691              		.global	chCondWaitTimeoutS
 692              		.thumb
 693              		.thumb_func
 694              		.type	chCondWaitTimeoutS, %function
 695              	chCondWaitTimeoutS:
 696              	.LFB234:
 697              		.loc 1 296 0
 698              		.cfi_startproc
 699              		@ args = 0, pretend = 0, frame = 0
 700              		@ frame_needed = 0, uses_anonymous_args = 0
 701              	.LVL64:
 702 0000 F8B5     		push	{r3, r4, r5, r6, r7, lr}
 703              		.cfi_def_cfa_offset 24
 704              		.cfi_offset 3, -24
 705              		.cfi_offset 4, -20
 706              		.cfi_offset 5, -16
 707              		.cfi_offset 6, -12
 708              		.cfi_offset 7, -8
 709              		.cfi_offset 14, -4
 710              		.loc 1 296 0
 711 0002 0546     		mov	r5, r0
 712 0004 0F46     		mov	r7, r1
 713              		.loc 1 300 0
 714 0006 FFF7FEFF 		bl	chDbgCheckClassS
 715              	.LVL65:
 716              		.loc 1 301 0
 717 000a 1DB3     		cbz	r5, .L58
 718              		.loc 1 301 0 is_stmt 0 discriminator 2
 719 000c 17B3     		cbz	r7, .L58
 720              	.L59:
 721              		.loc 1 302 0 is_stmt 1
 722 000e 164C     		ldr	r4, .L72
 723 0010 A369     		ldr	r3, [r4, #24]
 724 0012 DE6B     		ldr	r6, [r3, #60]
 725 0014 16B3     		cbz	r6, .L71
 726              	.L60:
 727              		.loc 1 306 0
 728 0016 3046     		mov	r0, r6
 729 0018 FFF7FEFF 		bl	chMtxUnlockS
 730              	.LVL66:
 731              		.loc 1 310 0
 732 001c A469     		ldr	r4, [r4, #24]
 733              	.LBB161:
ARM GAS  C:\Users\jo\AppData\Local\Temp\ccjvEs9v.s 			page 14


 734              	.LBB162:
 735              		.loc 2 622 0
 736 001e 2B46     		mov	r3, r5
 737              	.LBE162:
 738              	.LBE161:
 739              		.loc 1 310 0
 740 0020 6562     		str	r5, [r4, #36]
 741              	.LVL67:
 742 0022 03E0     		b	.L64
 743              	.LVL68:
 744              	.L61:
 745              	.LBB166:
 746              	.LBB163:
 747              		.loc 2 625 0
 748 0024 9968     		ldr	r1, [r3, #8]
 749 0026 A268     		ldr	r2, [r4, #8]
 750 0028 9142     		cmp	r1, r2
 751 002a 02D3     		bcc	.L65
 752              	.L64:
 753              		.loc 2 624 0
 754 002c 1B68     		ldr	r3, [r3]
 755              	.LVL69:
 756              		.loc 2 625 0
 757 002e 9D42     		cmp	r5, r3
 758 0030 F8D1     		bne	.L61
 759              	.L65:
 760              		.loc 2 627 0
 761 0032 5A68     		ldr	r2, [r3, #4]
 762 0034 6260     		str	r2, [r4, #4]
 763              		.loc 2 626 0
 764 0036 2360     		str	r3, [r4]
 765              	.LBE163:
 766              	.LBE166:
 767              		.loc 1 312 0
 768 0038 3946     		mov	r1, r7
 769              	.LBB167:
 770              	.LBB164:
 771              		.loc 2 628 0
 772 003a 5C60     		str	r4, [r3, #4]
 773              	.LBE164:
 774              	.LBE167:
 775              		.loc 1 312 0
 776 003c 0720     		movs	r0, #7
 777              	.LBB168:
 778              	.LBB165:
 779              		.loc 2 628 0
 780 003e 1460     		str	r4, [r2]
 781              	.LBE165:
 782              	.LBE168:
 783              		.loc 1 312 0
 784 0040 FFF7FEFF 		bl	chSchGoSleepTimeoutS
 785              	.LVL70:
 786              		.loc 1 313 0
 787 0044 431C     		adds	r3, r0, #1
 788              		.loc 1 312 0
 789 0046 0446     		mov	r4, r0
 790              	.LVL71:
ARM GAS  C:\Users\jo\AppData\Local\Temp\ccjvEs9v.s 			page 15


 791              		.loc 1 313 0
 792 0048 02D0     		beq	.L63
 793              		.loc 1 314 0
 794 004a 3046     		mov	r0, r6
 795              	.LVL72:
 796 004c FFF7FEFF 		bl	chMtxLockS
 797              	.LVL73:
 798              	.L63:
 799              		.loc 1 318 0
 800 0050 2046     		mov	r0, r4
 801 0052 F8BD     		pop	{r3, r4, r5, r6, r7, pc}
 802              	.LVL74:
 803              	.L58:
 804              		.loc 1 301 0 discriminator 3
 805 0054 0548     		ldr	r0, .L72+4
 806 0056 FFF7FEFF 		bl	chSysHalt
 807              	.LVL75:
 808 005a D8E7     		b	.L59
 809              	.L71:
 810              		.loc 1 302 0 discriminator 1
 811 005c 0348     		ldr	r0, .L72+4
 812 005e FFF7FEFF 		bl	chSysHalt
 813              	.LVL76:
 814 0062 A369     		ldr	r3, [r4, #24]
 815 0064 DE6B     		ldr	r6, [r3, #60]
 816 0066 D6E7     		b	.L60
 817              	.L73:
 818              		.align	2
 819              	.L72:
 820 0068 00000000 		.word	ch
 821 006c 00000000 		.word	.LANCHOR6
 822              		.cfi_endproc
 823              	.LFE234:
 824              		.size	chCondWaitTimeoutS, .-chCondWaitTimeoutS
 825              		.section	.text.chCondWaitTimeout,"ax",%progbits
 826              		.align	2
 827              		.p2align 4,,15
 828              		.global	chCondWaitTimeout
 829              		.thumb
 830              		.thumb_func
 831              		.type	chCondWaitTimeout, %function
 832              	chCondWaitTimeout:
 833              	.LFB233:
 834              		.loc 1 258 0
 835              		.cfi_startproc
 836              		@ args = 0, pretend = 0, frame = 0
 837              		@ frame_needed = 0, uses_anonymous_args = 0
 838              	.LVL77:
 839 0000 38B5     		push	{r3, r4, r5, lr}
 840              		.cfi_def_cfa_offset 16
 841              		.cfi_offset 3, -16
 842              		.cfi_offset 4, -12
 843              		.cfi_offset 5, -8
 844              		.cfi_offset 14, -4
 845              		.loc 1 258 0
 846 0002 0546     		mov	r5, r0
 847 0004 0C46     		mov	r4, r1
ARM GAS  C:\Users\jo\AppData\Local\Temp\ccjvEs9v.s 			page 16


 848              	.LBB179:
 849              	.LBB180:
 850              	.LBB181:
 851              	.LBB182:
 852              	.LBB183:
 853              		.loc 3 546 0
 854 0006 2023     		movs	r3, #32
 855              	@ 546 "../../../os/ext/CMSIS/include/core_cmFunc.h" 1
 856 0008 83F31188 		MSR basepri, r3
 857              	@ 0 "" 2
 858              		.thumb
 859              	.LBE183:
 860              	.LBE182:
 861              	.LBE181:
 862              		.loc 4 300 0
 863 000c FFF7FEFF 		bl	_stats_start_measure_crit_thd
 864              	.LVL78:
 865              		.loc 4 301 0
 866 0010 FFF7FEFF 		bl	_dbg_check_lock
 867              	.LVL79:
 868              	.LBE180:
 869              	.LBE179:
 870              		.loc 1 262 0
 871 0014 2146     		mov	r1, r4
 872 0016 2846     		mov	r0, r5
 873 0018 FFF7FEFF 		bl	chCondWaitTimeoutS
 874              	.LVL80:
 875 001c 0446     		mov	r4, r0
 876              	.LVL81:
 877              	.LBB184:
 878              	.LBB185:
 879              		.loc 4 311 0
 880 001e FFF7FEFF 		bl	_dbg_check_unlock
 881              	.LVL82:
 882              		.loc 4 312 0
 883 0022 FFF7FEFF 		bl	_stats_stop_measure_crit_thd
 884              	.LVL83:
 885              		.loc 4 318 0
 886 0026 074B     		ldr	r3, .L77
 887 0028 9A69     		ldr	r2, [r3, #24]
 888 002a 1B68     		ldr	r3, [r3]
 889 002c 9268     		ldr	r2, [r2, #8]
 890 002e 9B68     		ldr	r3, [r3, #8]
 891 0030 9A42     		cmp	r2, r3
 892 0032 02D2     		bcs	.L75
 893 0034 0448     		ldr	r0, .L77+4
 894 0036 FFF7FEFF 		bl	chSysHalt
 895              	.LVL84:
 896              	.L75:
 897              	.LBB186:
 898              	.LBB187:
 899              	.LBB188:
 900              		.loc 3 546 0
 901 003a 0023     		movs	r3, #0
 902              	@ 546 "../../../os/ext/CMSIS/include/core_cmFunc.h" 1
 903 003c 83F31188 		MSR basepri, r3
 904              	@ 0 "" 2
ARM GAS  C:\Users\jo\AppData\Local\Temp\ccjvEs9v.s 			page 17


 905              		.thumb
 906              	.LBE188:
 907              	.LBE187:
 908              	.LBE186:
 909              	.LBE185:
 910              	.LBE184:
 911              		.loc 1 266 0
 912 0040 2046     		mov	r0, r4
 913 0042 38BD     		pop	{r3, r4, r5, pc}
 914              	.LVL85:
 915              	.L78:
 916              		.align	2
 917              	.L77:
 918 0044 00000000 		.word	ch
 919 0048 00000000 		.word	.LANCHOR2
 920              		.cfi_endproc
 921              	.LFE233:
 922              		.size	chCondWaitTimeout, .-chCondWaitTimeout
 923 004c AFF30080 		.section	.rodata.__func__.6554,"a",%progbits
 924              		.align	2
 925              		.set	.LANCHOR0,. + 0
 926              		.type	__func__.6554, %object
 927              		.size	__func__.6554, 17
 928              	__func__.6554:
 929 0000 6368436F 		.ascii	"chCondObjectInit\000"
 929      6E644F62 
 929      6A656374 
 929      496E6974 
 929      00
 930 0011 000000   		.section	.rodata.__func__.6562,"a",%progbits
 931              		.align	2
 932              		.set	.LANCHOR3,. + 0
 933              		.type	__func__.6562, %object
 934              		.size	__func__.6562, 14
 935              	__func__.6562:
 936 0000 6368436F 		.ascii	"chCondSignalI\000"
 936      6E645369 
 936      676E616C 
 936      4900
 937 000e 0000     		.section	.rodata.__func__.6558,"a",%progbits
 938              		.align	2
 939              		.set	.LANCHOR1,. + 0
 940              		.type	__func__.6558, %object
 941              		.size	__func__.6558, 13
 942              	__func__.6558:
 943 0000 6368436F 		.ascii	"chCondSignal\000"
 943      6E645369 
 943      676E616C 
 943      00
 944 000d 000000   		.section	.rodata.__func__.6570,"a",%progbits
 945              		.align	2
 946              		.set	.LANCHOR4,. + 0
 947              		.type	__func__.6570, %object
 948              		.size	__func__.6570, 17
 949              	__func__.6570:
 950 0000 6368436F 		.ascii	"chCondBroadcastI\000"
 950      6E644272 
ARM GAS  C:\Users\jo\AppData\Local\Temp\ccjvEs9v.s 			page 18


 950      6F616463 
 950      61737449 
 950      00
 951 0011 000000   		.section	.rodata.__func__.6584,"a",%progbits
 952              		.align	2
 953              		.set	.LANCHOR5,. + 0
 954              		.type	__func__.6584, %object
 955              		.size	__func__.6584, 12
 956              	__func__.6584:
 957 0000 6368436F 		.ascii	"chCondWaitS\000"
 957      6E645761 
 957      69745300 
 958              		.section	.rodata.__func__.5870,"a",%progbits
 959              		.align	2
 960              		.set	.LANCHOR2,. + 0
 961              		.type	__func__.5870, %object
 962              		.size	__func__.5870, 12
 963              	__func__.5870:
 964 0000 63685379 		.ascii	"chSysUnlock\000"
 964      73556E6C 
 964      6F636B00 
 965              		.section	.rodata.__func__.6596,"a",%progbits
 966              		.align	2
 967              		.set	.LANCHOR6,. + 0
 968              		.type	__func__.6596, %object
 969              		.size	__func__.6596, 19
 970              	__func__.6596:
 971 0000 6368436F 		.ascii	"chCondWaitTimeoutS\000"
 971      6E645761 
 971      69745469 
 971      6D656F75 
 971      745300
 972 0013 00       		.text
 973              	.Letext0:
 974              		.file 6 "c:\\program files\\gnu tools arm embedded\\4.9 2014q4\\arm-none-eabi\\include\\machine\\_
 975              		.file 7 "c:\\program files\\gnu tools arm embedded\\4.9 2014q4\\arm-none-eabi\\include\\stdint.h"
 976              		.file 8 "../../../os/rt/ports/ARMCMx/compilers/GCC/chtypes.h"
 977              		.file 9 "../../../os/rt/include/chsystypes.h"
 978              		.file 10 "../../../os/rt/ports/ARMCMx/chcore.h"
 979              		.file 11 "../../../os/rt/ports/ARMCMx/chcore_v7m.h"
 980              		.file 12 "../../../os/rt/include/chdebug.h"
 981              		.file 13 "../../../os/rt/include/chtm.h"
 982              		.file 14 "../../../os/rt/include/chstats.h"
 983              		.file 15 "../../../os/rt/include/chcond.h"
 984              		.file 16 "../../../os/rt/include/chthreads.h"
 985              		.file 17 "../../../os/ext/CMSIS/include/core_cm4.h"