ARM GAS  C:\Users\jo\AppData\Local\Temp\ccejPkZj.s 			page 1


   1              		.syntax unified
   2              		.cpu cortex-m4
   3              		.fpu softvfp
   4              		.eabi_attribute 20, 1
   5              		.eabi_attribute 21, 1
   6              		.eabi_attribute 23, 3
   7              		.eabi_attribute 24, 1
   8              		.eabi_attribute 25, 1
   9              		.eabi_attribute 26, 1
  10              		.eabi_attribute 30, 2
  11              		.eabi_attribute 34, 1
  12              		.eabi_attribute 18, 4
  13              		.thumb
  14              		.file	"chdynamic.c"
  15              		.text
  16              	.Ltext0:
  17              		.cfi_sections	.debug_frame
  18              		.section	.text.chThdAddRef,"ax",%progbits
  19              		.align	2
  20              		.p2align 4,,15
  21              		.global	chThdAddRef
  22              		.thumb
  23              		.thumb_func
  24              		.type	chThdAddRef, %function
  25              	chThdAddRef:
  26              	.LFB226:
  27              		.file 1 "../../../os/rt/src/chdynamic.c"
  28              		.loc 1 68 0
  29              		.cfi_startproc
  30              		@ args = 0, pretend = 0, frame = 0
  31              		@ frame_needed = 0, uses_anonymous_args = 0
  32              	.LVL0:
  33 0000 10B5     		push	{r4, lr}
  34              		.cfi_def_cfa_offset 8
  35              		.cfi_offset 4, -8
  36              		.cfi_offset 14, -4
  37              	.LBB44:
  38              	.LBB45:
  39              	.LBB46:
  40              	.LBB47:
  41              	.LBB48:
  42              		.file 2 "../../../os/ext/CMSIS/include/core_cmFunc.h"
  43              		.loc 2 546 0
  44 0002 2023     		movs	r3, #32
  45              	.LBE48:
  46              	.LBE47:
  47              	.LBE46:
  48              	.LBE45:
  49              	.LBE44:
  50              		.loc 1 68 0
  51 0004 0446     		mov	r4, r0
  52              	.LBB53:
  53              	.LBB52:
  54              	.LBB51:
  55              	.LBB50:
  56              	.LBB49:
  57              		.loc 2 546 0
ARM GAS  C:\Users\jo\AppData\Local\Temp\ccejPkZj.s 			page 2


  58              	@ 546 "../../../os/ext/CMSIS/include/core_cmFunc.h" 1
  59 0006 83F31188 		MSR basepri, r3
  60              	@ 0 "" 2
  61              		.thumb
  62              	.LBE49:
  63              	.LBE50:
  64              	.LBE51:
  65              		.file 3 "../../../os/rt/include/chsys.h"
  66              		.loc 3 300 0
  67 000a FFF7FEFF 		bl	_stats_start_measure_crit_thd
  68              	.LVL1:
  69              		.loc 3 301 0
  70 000e FFF7FEFF 		bl	_dbg_check_lock
  71              	.LVL2:
  72              	.LBE52:
  73              	.LBE53:
  74              		.loc 1 71 0
  75 0012 94F82230 		ldrb	r3, [r4, #34]	@ zero_extendqisi2
  76 0016 FF2B     		cmp	r3, #255
  77 0018 15D0     		beq	.L6
  78              	.L2:
  79              		.loc 1 72 0
  80 001a 0133     		adds	r3, r3, #1
  81 001c 84F82230 		strb	r3, [r4, #34]
  82              	.LBB54:
  83              	.LBB55:
  84              		.loc 3 311 0
  85 0020 FFF7FEFF 		bl	_dbg_check_unlock
  86              	.LVL3:
  87              		.loc 3 312 0
  88 0024 FFF7FEFF 		bl	_stats_stop_measure_crit_thd
  89              	.LVL4:
  90              		.loc 3 318 0
  91 0028 0A4B     		ldr	r3, .L7
  92 002a 9A69     		ldr	r2, [r3, #24]
  93 002c 1B68     		ldr	r3, [r3]
  94 002e 9268     		ldr	r2, [r2, #8]
  95 0030 9B68     		ldr	r3, [r3, #8]
  96 0032 9A42     		cmp	r2, r3
  97 0034 02D2     		bcs	.L3
  98 0036 0848     		ldr	r0, .L7+4
  99 0038 FFF7FEFF 		bl	chSysHalt
 100              	.LVL5:
 101              	.L3:
 102              	.LBB56:
 103              	.LBB57:
 104              	.LBB58:
 105              		.loc 2 546 0
 106 003c 0023     		movs	r3, #0
 107              	@ 546 "../../../os/ext/CMSIS/include/core_cmFunc.h" 1
 108 003e 83F31188 		MSR basepri, r3
 109              	@ 0 "" 2
 110              		.thumb
 111              	.LBE58:
 112              	.LBE57:
 113              	.LBE56:
 114              	.LBE55:
ARM GAS  C:\Users\jo\AppData\Local\Temp\ccejPkZj.s 			page 3


 115              	.LBE54:
 116              		.loc 1 75 0
 117 0042 2046     		mov	r0, r4
 118 0044 10BD     		pop	{r4, pc}
 119              	.LVL6:
 120              	.L6:
 121              		.loc 1 71 0 discriminator 1
 122 0046 0548     		ldr	r0, .L7+8
 123 0048 FFF7FEFF 		bl	chSysHalt
 124              	.LVL7:
 125 004c 94F82230 		ldrb	r3, [r4, #34]	@ zero_extendqisi2
 126 0050 E3E7     		b	.L2
 127              	.L8:
 128 0052 00BF     		.align	2
 129              	.L7:
 130 0054 00000000 		.word	ch
 131 0058 00000000 		.word	.LANCHOR1
 132 005c 00000000 		.word	.LANCHOR0
 133              		.cfi_endproc
 134              	.LFE226:
 135              		.size	chThdAddRef, .-chThdAddRef
 136              		.section	.text.chThdRelease,"ax",%progbits
 137              		.align	2
 138              		.p2align 4,,15
 139              		.global	chThdRelease
 140              		.thumb
 141              		.thumb_func
 142              		.type	chThdRelease, %function
 143              	chThdRelease:
 144              	.LFB227:
 145              		.loc 1 90 0
 146              		.cfi_startproc
 147              		@ args = 0, pretend = 0, frame = 0
 148              		@ frame_needed = 0, uses_anonymous_args = 0
 149              	.LVL8:
 150 0000 38B5     		push	{r3, r4, r5, lr}
 151              		.cfi_def_cfa_offset 16
 152              		.cfi_offset 3, -16
 153              		.cfi_offset 4, -12
 154              		.cfi_offset 5, -8
 155              		.cfi_offset 14, -4
 156              		.loc 1 90 0
 157 0002 0546     		mov	r5, r0
 158              	.LBB69:
 159              	.LBB70:
 160              	.LBB71:
 161              	.LBB72:
 162              	.LBB73:
 163              		.loc 2 546 0
 164 0004 2023     		movs	r3, #32
 165              	@ 546 "../../../os/ext/CMSIS/include/core_cmFunc.h" 1
 166 0006 83F31188 		MSR basepri, r3
 167              	@ 0 "" 2
 168              		.thumb
 169              	.LBE73:
 170              	.LBE72:
 171              	.LBE71:
ARM GAS  C:\Users\jo\AppData\Local\Temp\ccejPkZj.s 			page 4


 172              		.loc 3 300 0
 173 000a FFF7FEFF 		bl	_stats_start_measure_crit_thd
 174              	.LVL9:
 175              		.loc 3 301 0
 176 000e FFF7FEFF 		bl	_dbg_check_lock
 177              	.LVL10:
 178              	.LBE70:
 179              	.LBE69:
 180              		.loc 1 94 0
 181 0012 95F82230 		ldrb	r3, [r5, #34]	@ zero_extendqisi2
 182 0016 1BB3     		cbz	r3, .L16
 183              	.L10:
 184              		.loc 1 95 0
 185 0018 013B     		subs	r3, r3, #1
 186 001a DCB2     		uxtb	r4, r3
 187 001c 85F82240 		strb	r4, [r5, #34]
 188              	.LVL11:
 189              	.LBB74:
 190              	.LBB75:
 191              		.loc 3 311 0
 192 0020 FFF7FEFF 		bl	_dbg_check_unlock
 193              	.LVL12:
 194              		.loc 3 312 0
 195 0024 FFF7FEFF 		bl	_stats_stop_measure_crit_thd
 196              	.LVL13:
 197              		.loc 3 318 0
 198 0028 1B4B     		ldr	r3, .L18
 199 002a 9A69     		ldr	r2, [r3, #24]
 200 002c 1B68     		ldr	r3, [r3]
 201 002e 9268     		ldr	r2, [r2, #8]
 202 0030 9B68     		ldr	r3, [r3, #8]
 203 0032 9A42     		cmp	r2, r3
 204 0034 02D2     		bcs	.L11
 205 0036 1948     		ldr	r0, .L18+4
 206 0038 FFF7FEFF 		bl	chSysHalt
 207              	.LVL14:
 208              	.L11:
 209              	.LBB76:
 210              	.LBB77:
 211              	.LBB78:
 212              		.loc 2 546 0
 213 003c 0023     		movs	r3, #0
 214              	@ 546 "../../../os/ext/CMSIS/include/core_cmFunc.h" 1
 215 003e 83F31188 		MSR basepri, r3
 216              	@ 0 "" 2
 217              		.thumb
 218              	.LBE78:
 219              	.LBE77:
 220              	.LBE76:
 221              	.LBE75:
 222              	.LBE74:
 223              		.loc 1 101 0
 224 0042 1CB9     		cbnz	r4, .L9
 225              		.loc 1 101 0 is_stmt 0 discriminator 1
 226 0044 95F82030 		ldrb	r3, [r5, #32]	@ zero_extendqisi2
 227 0048 0F2B     		cmp	r3, #15
 228 004a 00D0     		beq	.L17
ARM GAS  C:\Users\jo\AppData\Local\Temp\ccejPkZj.s 			page 5


 229              	.L9:
 230 004c 38BD     		pop	{r3, r4, r5, pc}
 231              	.LVL15:
 232              	.L17:
 233              		.loc 1 102 0 is_stmt 1
 234 004e 95F82130 		ldrb	r3, [r5, #33]	@ zero_extendqisi2
 235 0052 03F00303 		and	r3, r3, #3
 236 0056 012B     		cmp	r3, #1
 237 0058 08D0     		beq	.L13
 238 005a 022B     		cmp	r3, #2
 239 005c 10D0     		beq	.L14
 240 005e 38BD     		pop	{r3, r4, r5, pc}
 241              	.LVL16:
 242              	.L16:
 243              		.loc 1 94 0 discriminator 1
 244 0060 0F48     		ldr	r0, .L18+8
 245 0062 FFF7FEFF 		bl	chSysHalt
 246              	.LVL17:
 247 0066 95F82230 		ldrb	r3, [r5, #34]	@ zero_extendqisi2
 248 006a D5E7     		b	.L10
 249              	.LVL18:
 250              	.L13:
 251              		.loc 1 106 0
 252 006c 6B69     		ldr	r3, [r5, #20]
 253 006e 2A69     		ldr	r2, [r5, #16]
 254 0070 1A61     		str	r2, [r3, #16]
 255 0072 2A69     		ldr	r2, [r5, #16]
 256              		.loc 1 108 0
 257 0074 2846     		mov	r0, r5
 258              		.loc 1 106 0
 259 0076 5361     		str	r3, [r2, #20]
 260              		.loc 1 121 0
 261 0078 BDE83840 		pop	{r3, r4, r5, lr}
 262              		.cfi_remember_state
 263              		.cfi_restore 14
 264              		.cfi_restore 5
 265              		.cfi_restore 4
 266              		.cfi_restore 3
 267              		.cfi_def_cfa_offset 0
 268              	.LVL19:
 269              		.loc 1 108 0
 270 007c FFF7FEBF 		b	chHeapFree
 271              	.LVL20:
 272              	.L14:
 273              		.cfi_restore_state
 274              		.loc 1 114 0
 275 0080 6B69     		ldr	r3, [r5, #20]
 276 0082 2A69     		ldr	r2, [r5, #16]
 277 0084 1A61     		str	r2, [r3, #16]
 278 0086 2A69     		ldr	r2, [r5, #16]
 279              		.loc 1 116 0
 280 0088 686C     		ldr	r0, [r5, #68]
 281              		.loc 1 114 0
 282 008a 5361     		str	r3, [r2, #20]
 283              		.loc 1 116 0
 284 008c 2946     		mov	r1, r5
 285              		.loc 1 121 0
ARM GAS  C:\Users\jo\AppData\Local\Temp\ccejPkZj.s 			page 6


 286 008e BDE83840 		pop	{r3, r4, r5, lr}
 287              		.cfi_restore 14
 288              		.cfi_restore 5
 289              		.cfi_restore 4
 290              		.cfi_restore 3
 291              		.cfi_def_cfa_offset 0
 292              	.LVL21:
 293              		.loc 1 116 0
 294 0092 FFF7FEBF 		b	chPoolFree
 295              	.LVL22:
 296              	.L19:
 297 0096 00BF     		.align	2
 298              	.L18:
 299 0098 00000000 		.word	ch
 300 009c 00000000 		.word	.LANCHOR1
 301 00a0 00000000 		.word	.LANCHOR2
 302              		.cfi_endproc
 303              	.LFE227:
 304              		.size	chThdRelease, .-chThdRelease
 305 00a4 AFF30080 		.section	.text.chThdCreateFromHeap,"ax",%progbits
 305      AFF30080 
 305      AFF30080 
 306              		.align	2
 307              		.p2align 4,,15
 308              		.global	chThdCreateFromHeap
 309              		.thumb
 310              		.thumb_func
 311              		.type	chThdCreateFromHeap, %function
 312              	chThdCreateFromHeap:
 313              	.LFB228:
 314              		.loc 1 147 0
 315              		.cfi_startproc
 316              		@ args = 4, pretend = 0, frame = 0
 317              		@ frame_needed = 0, uses_anonymous_args = 0
 318              	.LVL23:
 319 0000 2DE9F041 		push	{r4, r5, r6, r7, r8, lr}
 320              		.cfi_def_cfa_offset 24
 321              		.cfi_offset 4, -24
 322              		.cfi_offset 5, -20
 323              		.cfi_offset 6, -16
 324              		.cfi_offset 7, -12
 325              		.cfi_offset 8, -8
 326              		.cfi_offset 14, -4
 327 0004 82B0     		sub	sp, sp, #8
 328              		.cfi_def_cfa_offset 32
 329              		.loc 1 147 0
 330 0006 9046     		mov	r8, r2
 331 0008 1F46     		mov	r7, r3
 332 000a 0D46     		mov	r5, r1
 333              		.loc 1 151 0
 334 000c FFF7FEFF 		bl	chHeapAlloc
 335              	.LVL24:
 336              		.loc 1 152 0
 337 0010 0446     		mov	r4, r0
 338 0012 90B3     		cbz	r0, .L21
 339              		.loc 1 157 0
 340 0014 00F16006 		add	r6, r0, #96
ARM GAS  C:\Users\jo\AppData\Local\Temp\ccejPkZj.s 			page 7


 341 0018 3146     		mov	r1, r6
 342 001a FF22     		movs	r2, #255
 343 001c FFF7FEFF 		bl	_thread_memfill
 344              	.LVL25:
 345              		.loc 1 160 0
 346 0020 3046     		mov	r0, r6
 347 0022 6119     		adds	r1, r4, r5
 348 0024 5522     		movs	r2, #85
 349 0026 FFF7FEFF 		bl	_thread_memfill
 350              	.LVL26:
 351              	.LBB89:
 352              	.LBB90:
 353              	.LBB91:
 354              	.LBB92:
 355              	.LBB93:
 356              		.loc 2 546 0
 357 002a 2023     		movs	r3, #32
 358              	@ 546 "../../../os/ext/CMSIS/include/core_cmFunc.h" 1
 359 002c 83F31188 		MSR basepri, r3
 360              	@ 0 "" 2
 361              		.thumb
 362              	.LBE93:
 363              	.LBE92:
 364              	.LBE91:
 365              		.loc 3 300 0
 366 0030 FFF7FEFF 		bl	_stats_start_measure_crit_thd
 367              	.LVL27:
 368              		.loc 3 301 0
 369 0034 FFF7FEFF 		bl	_dbg_check_lock
 370              	.LVL28:
 371              	.LBE90:
 372              	.LBE89:
 373              		.loc 1 166 0
 374 0038 089B     		ldr	r3, [sp, #32]
 375 003a 0093     		str	r3, [sp]
 376 003c 4246     		mov	r2, r8
 377 003e 2046     		mov	r0, r4
 378 0040 2946     		mov	r1, r5
 379 0042 3B46     		mov	r3, r7
 380 0044 FFF7FEFF 		bl	chThdCreateI
 381              	.LVL29:
 382              		.loc 1 167 0
 383 0048 0123     		movs	r3, #1
 384 004a 80F82130 		strb	r3, [r0, #33]
 385              		.loc 1 168 0
 386 004e 0021     		movs	r1, #0
 387              		.loc 1 166 0
 388 0050 0446     		mov	r4, r0
 389              	.LVL30:
 390              		.loc 1 168 0
 391 0052 FFF7FEFF 		bl	chSchWakeupS
 392              	.LVL31:
 393              	.LBB94:
 394              	.LBB95:
 395              		.loc 3 311 0
 396 0056 FFF7FEFF 		bl	_dbg_check_unlock
 397              	.LVL32:
ARM GAS  C:\Users\jo\AppData\Local\Temp\ccejPkZj.s 			page 8


 398              		.loc 3 312 0
 399 005a FFF7FEFF 		bl	_stats_stop_measure_crit_thd
 400              	.LVL33:
 401              		.loc 3 318 0
 402 005e 084B     		ldr	r3, .L25
 403 0060 9A69     		ldr	r2, [r3, #24]
 404 0062 1B68     		ldr	r3, [r3]
 405 0064 9268     		ldr	r2, [r2, #8]
 406 0066 9B68     		ldr	r3, [r3, #8]
 407 0068 9A42     		cmp	r2, r3
 408 006a 02D2     		bcs	.L22
 409 006c 0548     		ldr	r0, .L25+4
 410 006e FFF7FEFF 		bl	chSysHalt
 411              	.LVL34:
 412              	.L22:
 413              	.LBB96:
 414              	.LBB97:
 415              	.LBB98:
 416              		.loc 2 546 0
 417 0072 0023     		movs	r3, #0
 418              	@ 546 "../../../os/ext/CMSIS/include/core_cmFunc.h" 1
 419 0074 83F31188 		MSR basepri, r3
 420              	@ 0 "" 2
 421              		.thumb
 422 0078 2046     		mov	r0, r4
 423              	.LVL35:
 424              	.L21:
 425              	.LBE98:
 426              	.LBE97:
 427              	.LBE96:
 428              	.LBE95:
 429              	.LBE94:
 430              		.loc 1 172 0
 431 007a 02B0     		add	sp, sp, #8
 432              		.cfi_def_cfa_offset 24
 433              		@ sp needed
 434 007c BDE8F081 		pop	{r4, r5, r6, r7, r8, pc}
 435              	.LVL36:
 436              	.L26:
 437              		.align	2
 438              	.L25:
 439 0080 00000000 		.word	ch
 440 0084 00000000 		.word	.LANCHOR1
 441              		.cfi_endproc
 442              	.LFE228:
 443              		.size	chThdCreateFromHeap, .-chThdCreateFromHeap
 444 0088 AFF30080 		.section	.text.chThdCreateFromMemoryPool,"ax",%progbits
 444      AFF30080 
 445              		.align	2
 446              		.p2align 4,,15
 447              		.global	chThdCreateFromMemoryPool
 448              		.thumb
 449              		.thumb_func
 450              		.type	chThdCreateFromMemoryPool, %function
 451              	chThdCreateFromMemoryPool:
 452              	.LFB229:
 453              		.loc 1 199 0
ARM GAS  C:\Users\jo\AppData\Local\Temp\ccejPkZj.s 			page 9


 454              		.cfi_startproc
 455              		@ args = 0, pretend = 0, frame = 0
 456              		@ frame_needed = 0, uses_anonymous_args = 0
 457              	.LVL37:
 458 0000 2DE9F043 		push	{r4, r5, r6, r7, r8, r9, lr}
 459              		.cfi_def_cfa_offset 28
 460              		.cfi_offset 4, -28
 461              		.cfi_offset 5, -24
 462              		.cfi_offset 6, -20
 463              		.cfi_offset 7, -16
 464              		.cfi_offset 8, -12
 465              		.cfi_offset 9, -8
 466              		.cfi_offset 14, -4
 467 0004 8846     		mov	r8, r1
 468 0006 83B0     		sub	sp, sp, #12
 469              		.cfi_def_cfa_offset 40
 470              		.loc 1 199 0
 471 0008 1746     		mov	r7, r2
 472 000a 9946     		mov	r9, r3
 473              		.loc 1 203 0
 474 000c 0546     		mov	r5, r0
 475 000e 0028     		cmp	r0, #0
 476 0010 3CD0     		beq	.L33
 477              	.LVL38:
 478              	.L28:
 479              		.loc 1 205 0
 480 0012 2846     		mov	r0, r5
 481 0014 FFF7FEFF 		bl	chPoolAlloc
 482              	.LVL39:
 483              		.loc 1 206 0
 484 0018 0446     		mov	r4, r0
 485 001a A0B3     		cbz	r0, .L29
 486              		.loc 1 211 0
 487 001c 00F16006 		add	r6, r0, #96
 488 0020 3146     		mov	r1, r6
 489 0022 FF22     		movs	r2, #255
 490 0024 FFF7FEFF 		bl	_thread_memfill
 491              	.LVL40:
 492              		.loc 1 214 0
 493 0028 6968     		ldr	r1, [r5, #4]
 494 002a 3046     		mov	r0, r6
 495 002c 2144     		add	r1, r1, r4
 496 002e 5522     		movs	r2, #85
 497 0030 FFF7FEFF 		bl	_thread_memfill
 498              	.LVL41:
 499              	.LBB109:
 500              	.LBB110:
 501              	.LBB111:
 502              	.LBB112:
 503              	.LBB113:
 504              		.loc 2 546 0
 505 0034 2023     		movs	r3, #32
 506              	@ 546 "../../../os/ext/CMSIS/include/core_cmFunc.h" 1
 507 0036 83F31188 		MSR basepri, r3
 508              	@ 0 "" 2
 509              		.thumb
 510              	.LBE113:
ARM GAS  C:\Users\jo\AppData\Local\Temp\ccejPkZj.s 			page 10


 511              	.LBE112:
 512              	.LBE111:
 513              		.loc 3 300 0
 514 003a FFF7FEFF 		bl	_stats_start_measure_crit_thd
 515              	.LVL42:
 516              		.loc 3 301 0
 517 003e FFF7FEFF 		bl	_dbg_check_lock
 518              	.LVL43:
 519              	.LBE110:
 520              	.LBE109:
 521              		.loc 1 220 0
 522 0042 4246     		mov	r2, r8
 523 0044 6968     		ldr	r1, [r5, #4]
 524 0046 CDF80090 		str	r9, [sp]
 525 004a 2046     		mov	r0, r4
 526 004c 3B46     		mov	r3, r7
 527 004e FFF7FEFF 		bl	chThdCreateI
 528              	.LVL44:
 529              		.loc 1 221 0
 530 0052 0223     		movs	r3, #2
 531 0054 80F82130 		strb	r3, [r0, #33]
 532              		.loc 1 222 0
 533 0058 4564     		str	r5, [r0, #68]
 534              		.loc 1 223 0
 535 005a 0021     		movs	r1, #0
 536              		.loc 1 220 0
 537 005c 0446     		mov	r4, r0
 538              	.LVL45:
 539              		.loc 1 223 0
 540 005e FFF7FEFF 		bl	chSchWakeupS
 541              	.LVL46:
 542              	.LBB114:
 543              	.LBB115:
 544              		.loc 3 311 0
 545 0062 FFF7FEFF 		bl	_dbg_check_unlock
 546              	.LVL47:
 547              		.loc 3 312 0
 548 0066 FFF7FEFF 		bl	_stats_stop_measure_crit_thd
 549              	.LVL48:
 550              		.loc 3 318 0
 551 006a 0A4B     		ldr	r3, .L34
 552 006c 9A69     		ldr	r2, [r3, #24]
 553 006e 1B68     		ldr	r3, [r3]
 554 0070 9268     		ldr	r2, [r2, #8]
 555 0072 9B68     		ldr	r3, [r3, #8]
 556 0074 9A42     		cmp	r2, r3
 557 0076 02D2     		bcs	.L30
 558 0078 0748     		ldr	r0, .L34+4
 559 007a FFF7FEFF 		bl	chSysHalt
 560              	.LVL49:
 561              	.L30:
 562              	.LBB116:
 563              	.LBB117:
 564              	.LBB118:
 565              		.loc 2 546 0
 566 007e 0023     		movs	r3, #0
 567              	@ 546 "../../../os/ext/CMSIS/include/core_cmFunc.h" 1
ARM GAS  C:\Users\jo\AppData\Local\Temp\ccejPkZj.s 			page 11


 568 0080 83F31188 		MSR basepri, r3
 569              	@ 0 "" 2
 570              		.thumb
 571 0084 2046     		mov	r0, r4
 572              	.LVL50:
 573              	.L29:
 574              	.LBE118:
 575              	.LBE117:
 576              	.LBE116:
 577              	.LBE115:
 578              	.LBE114:
 579              		.loc 1 227 0
 580 0086 03B0     		add	sp, sp, #12
 581              		.cfi_remember_state
 582              		.cfi_def_cfa_offset 28
 583              		@ sp needed
 584 0088 BDE8F083 		pop	{r4, r5, r6, r7, r8, r9, pc}
 585              	.LVL51:
 586              	.L33:
 587              		.cfi_restore_state
 588              		.loc 1 203 0 discriminator 1
 589 008c 0348     		ldr	r0, .L34+8
 590              	.LVL52:
 591 008e FFF7FEFF 		bl	chSysHalt
 592              	.LVL53:
 593 0092 BEE7     		b	.L28
 594              	.L35:
 595              		.align	2
 596              	.L34:
 597 0094 00000000 		.word	ch
 598 0098 00000000 		.word	.LANCHOR1
 599 009c 00000000 		.word	.LANCHOR3
 600              		.cfi_endproc
 601              	.LFE229:
 602              		.size	chThdCreateFromMemoryPool, .-chThdCreateFromMemoryPool
 603              		.section	.rodata.__func__.6554,"a",%progbits
 604              		.align	2
 605              		.set	.LANCHOR0,. + 0
 606              		.type	__func__.6554, %object
 607              		.size	__func__.6554, 12
 608              	__func__.6554:
 609 0000 63685468 		.ascii	"chThdAddRef\000"
 609      64416464 
 609      52656600 
 610              		.section	.rodata.__func__.6559,"a",%progbits
 611              		.align	2
 612              		.set	.LANCHOR2,. + 0
 613              		.type	__func__.6559, %object
 614              		.size	__func__.6559, 13
 615              	__func__.6559:
 616 0000 63685468 		.ascii	"chThdRelease\000"
 616      6452656C 
 616      65617365 
 616      00
 617 000d 000000   		.section	.rodata.__func__.6580,"a",%progbits
 618              		.align	2
 619              		.set	.LANCHOR3,. + 0
ARM GAS  C:\Users\jo\AppData\Local\Temp\ccejPkZj.s 			page 12


 620              		.type	__func__.6580, %object
 621              		.size	__func__.6580, 26
 622              	__func__.6580:
 623 0000 63685468 		.ascii	"chThdCreateFromMemoryPool\000"
 623      64437265 
 623      61746546 
 623      726F6D4D 
 623      656D6F72 
 624 001a 0000     		.section	.rodata.__func__.5870,"a",%progbits
 625              		.align	2
 626              		.set	.LANCHOR1,. + 0
 627              		.type	__func__.5870, %object
 628              		.size	__func__.5870, 12
 629              	__func__.5870:
 630 0000 63685379 		.ascii	"chSysUnlock\000"
 630      73556E6C 
 630      6F636B00 
 631              		.text
 632              	.Letext0:
 633              		.file 4 "c:\\program files\\gnu tools arm embedded\\4.9 2014q4\\lib\\gcc\\arm-none-eabi\\4.9.3\\in
 634              		.file 5 "c:\\program files\\gnu tools arm embedded\\4.9 2014q4\\arm-none-eabi\\include\\machine\\_
 635              		.file 6 "c:\\program files\\gnu tools arm embedded\\4.9 2014q4\\arm-none-eabi\\include\\stdint.h"
 636              		.file 7 "../../../os/rt/ports/ARMCMx/compilers/GCC/chtypes.h"
 637              		.file 8 "../../../os/rt/include/chsystypes.h"
 638              		.file 9 "../../../os/rt/include/chschd.h"
 639              		.file 10 "../../../os/rt/ports/ARMCMx/chcore.h"
 640              		.file 11 "../../../os/rt/ports/ARMCMx/chcore_v7m.h"
 641              		.file 12 "../../../os/rt/include/chdebug.h"
 642              		.file 13 "../../../os/rt/include/chtm.h"
 643              		.file 14 "../../../os/rt/include/chstats.h"
 644              		.file 15 "../../../os/rt/include/chmtx.h"
 645              		.file 16 "../../../os/rt/include/chthreads.h"
 646              		.file 17 "../../../os/rt/include/chmemcore.h"
 647              		.file 18 "../../../os/rt/include/chheap.h"
 648              		.file 19 "../../../os/rt/include/chmempools.h"
 649              		.file 20 "../../../os/ext/CMSIS/include/core_cm4.h"