ARM GAS  C:\Users\jo\AppData\Local\Temp\ccj6gOpH.s 			page 1


   1              		.syntax unified
   2              		.cpu cortex-m4
   3              		.fpu softvfp
   4              		.eabi_attribute 20, 1
   5              		.eabi_attribute 21, 1
   6              		.eabi_attribute 23, 3
   7              		.eabi_attribute 24, 1
   8              		.eabi_attribute 25, 1
   9              		.eabi_attribute 26, 1
  10              		.eabi_attribute 30, 2
  11              		.eabi_attribute 34, 1
  12              		.eabi_attribute 18, 4
  13              		.thumb
  14              		.file	"chmempools.c"
  15              		.text
  16              	.Ltext0:
  17              		.cfi_sections	.debug_frame
  18              		.section	.text.chPoolObjectInit,"ax",%progbits
  19              		.align	2
  20              		.p2align 4,,15
  21              		.global	chPoolObjectInit
  22              		.thumb
  23              		.thumb_func
  24              		.type	chPoolObjectInit, %function
  25              	chPoolObjectInit:
  26              	.LFB226:
  27              		.file 1 "../../../os/rt/src/chmempools.c"
  28              		.loc 1 75 0
  29              		.cfi_startproc
  30              		@ args = 0, pretend = 0, frame = 0
  31              		@ frame_needed = 0, uses_anonymous_args = 0
  32              	.LVL0:
  33 0000 70B5     		push	{r4, r5, r6, lr}
  34              		.cfi_def_cfa_offset 16
  35              		.cfi_offset 4, -16
  36              		.cfi_offset 5, -12
  37              		.cfi_offset 6, -8
  38              		.cfi_offset 14, -4
  39              		.loc 1 75 0
  40 0002 0D46     		mov	r5, r1
  41 0004 1646     		mov	r6, r2
  42              		.loc 1 77 0
  43 0006 0446     		mov	r4, r0
  44 0008 08B1     		cbz	r0, .L2
  45              		.loc 1 77 0 is_stmt 0 discriminator 2
  46 000a 0329     		cmp	r1, #3
  47 000c 02D8     		bhi	.L3
  48              	.L2:
  49              		.loc 1 77 0 discriminator 3
  50 000e 0348     		ldr	r0, .L9
  51              	.LVL1:
  52 0010 FFF7FEFF 		bl	chSysHalt
  53              	.LVL2:
  54              	.L3:
  55              		.loc 1 79 0 is_stmt 1
  56 0014 0023     		movs	r3, #0
  57 0016 84E86800 		stmia	r4, {r3, r5, r6}
ARM GAS  C:\Users\jo\AppData\Local\Temp\ccj6gOpH.s 			page 2


  58 001a 70BD     		pop	{r4, r5, r6, pc}
  59              	.LVL3:
  60              	.L10:
  61              		.align	2
  62              	.L9:
  63 001c 00000000 		.word	.LANCHOR0
  64              		.cfi_endproc
  65              	.LFE226:
  66              		.size	chPoolObjectInit, .-chPoolObjectInit
  67              		.section	.text.chPoolAllocI,"ax",%progbits
  68              		.align	2
  69              		.p2align 4,,15
  70              		.global	chPoolAllocI
  71              		.thumb
  72              		.thumb_func
  73              		.type	chPoolAllocI, %function
  74              	chPoolAllocI:
  75              	.LFB228:
  76              		.loc 1 118 0
  77              		.cfi_startproc
  78              		@ args = 0, pretend = 0, frame = 0
  79              		@ frame_needed = 0, uses_anonymous_args = 0
  80              	.LVL4:
  81 0000 10B5     		push	{r4, lr}
  82              		.cfi_def_cfa_offset 8
  83              		.cfi_offset 4, -8
  84              		.cfi_offset 14, -4
  85              		.loc 1 118 0
  86 0002 0446     		mov	r4, r0
  87              		.loc 1 121 0
  88 0004 FFF7FEFF 		bl	chDbgCheckClassI
  89              	.LVL5:
  90              		.loc 1 122 0
  91 0008 5CB1     		cbz	r4, .L19
  92              	.L12:
  93              		.loc 1 124 0
  94 000a 2068     		ldr	r0, [r4]
  95              	.LVL6:
  96 000c 10B1     		cbz	r0, .L13
  97              		.loc 1 125 0
  98 000e 0368     		ldr	r3, [r0]
  99 0010 2360     		str	r3, [r4]
 100 0012 10BD     		pop	{r4, pc}
 101              	.LVL7:
 102              	.L13:
 103              		.loc 1 127 0
 104 0014 A368     		ldr	r3, [r4, #8]
 105 0016 1BB1     		cbz	r3, .L14
 106              		.loc 1 128 0
 107 0018 6068     		ldr	r0, [r4, #4]
 108              	.LVL8:
 109              		.loc 1 132 0
 110 001a BDE81040 		pop	{r4, lr}
 111              		.cfi_remember_state
 112              		.cfi_restore 14
 113              		.cfi_restore 4
 114              		.cfi_def_cfa_offset 0
ARM GAS  C:\Users\jo\AppData\Local\Temp\ccj6gOpH.s 			page 3


 115              	.LVL9:
 116              		.loc 1 128 0
 117 001e 1847     		bx	r3
 118              	.LVL10:
 119              	.L14:
 120              		.cfi_restore_state
 121              		.loc 1 132 0
 122 0020 10BD     		pop	{r4, pc}
 123              	.LVL11:
 124              	.L19:
 125              		.loc 1 122 0 discriminator 1
 126 0022 0248     		ldr	r0, .L20
 127 0024 FFF7FEFF 		bl	chSysHalt
 128              	.LVL12:
 129 0028 EFE7     		b	.L12
 130              	.L21:
 131 002a 00BF     		.align	2
 132              	.L20:
 133 002c 00000000 		.word	.LANCHOR1
 134              		.cfi_endproc
 135              	.LFE228:
 136              		.size	chPoolAllocI, .-chPoolAllocI
 137              		.section	.text.chPoolAlloc,"ax",%progbits
 138              		.align	2
 139              		.p2align 4,,15
 140              		.global	chPoolAlloc
 141              		.thumb
 142              		.thumb_func
 143              		.type	chPoolAlloc, %function
 144              	chPoolAlloc:
 145              	.LFB229:
 146              		.loc 1 144 0
 147              		.cfi_startproc
 148              		@ args = 0, pretend = 0, frame = 0
 149              		@ frame_needed = 0, uses_anonymous_args = 0
 150              	.LVL13:
 151 0000 10B5     		push	{r4, lr}
 152              		.cfi_def_cfa_offset 8
 153              		.cfi_offset 4, -8
 154              		.cfi_offset 14, -4
 155              	.LBB36:
 156              	.LBB37:
 157              	.LBB38:
 158              	.LBB39:
 159              	.LBB40:
 160              		.file 2 "../../../os/ext/CMSIS/include/core_cmFunc.h"
 161              		.loc 2 546 0
 162 0002 2023     		movs	r3, #32
 163              	.LBE40:
 164              	.LBE39:
 165              	.LBE38:
 166              	.LBE37:
 167              	.LBE36:
 168              		.loc 1 144 0
 169 0004 0446     		mov	r4, r0
 170              	.LBB45:
 171              	.LBB44:
ARM GAS  C:\Users\jo\AppData\Local\Temp\ccj6gOpH.s 			page 4


 172              	.LBB43:
 173              	.LBB42:
 174              	.LBB41:
 175              		.loc 2 546 0
 176              	@ 546 "../../../os/ext/CMSIS/include/core_cmFunc.h" 1
 177 0006 83F31188 		MSR basepri, r3
 178              	@ 0 "" 2
 179              		.thumb
 180              	.LBE41:
 181              	.LBE42:
 182              	.LBE43:
 183              		.file 3 "../../../os/rt/include/chsys.h"
 184              		.loc 3 300 0
 185 000a FFF7FEFF 		bl	_stats_start_measure_crit_thd
 186              	.LVL14:
 187              		.loc 3 301 0
 188 000e FFF7FEFF 		bl	_dbg_check_lock
 189              	.LVL15:
 190              	.LBE44:
 191              	.LBE45:
 192              		.loc 1 148 0
 193 0012 2046     		mov	r0, r4
 194 0014 FFF7FEFF 		bl	chPoolAllocI
 195              	.LVL16:
 196 0018 0446     		mov	r4, r0
 197              	.LVL17:
 198              	.LBB46:
 199              	.LBB47:
 200              		.loc 3 311 0
 201 001a FFF7FEFF 		bl	_dbg_check_unlock
 202              	.LVL18:
 203              		.loc 3 312 0
 204 001e FFF7FEFF 		bl	_stats_stop_measure_crit_thd
 205              	.LVL19:
 206              		.loc 3 318 0
 207 0022 074B     		ldr	r3, .L25
 208 0024 9A69     		ldr	r2, [r3, #24]
 209 0026 1B68     		ldr	r3, [r3]
 210 0028 9268     		ldr	r2, [r2, #8]
 211 002a 9B68     		ldr	r3, [r3, #8]
 212 002c 9A42     		cmp	r2, r3
 213 002e 02D2     		bcs	.L23
 214 0030 0448     		ldr	r0, .L25+4
 215 0032 FFF7FEFF 		bl	chSysHalt
 216              	.LVL20:
 217              	.L23:
 218              	.LBB48:
 219              	.LBB49:
 220              	.LBB50:
 221              		.loc 2 546 0
 222 0036 0023     		movs	r3, #0
 223              	@ 546 "../../../os/ext/CMSIS/include/core_cmFunc.h" 1
 224 0038 83F31188 		MSR basepri, r3
 225              	@ 0 "" 2
 226              		.thumb
 227              	.LBE50:
 228              	.LBE49:
ARM GAS  C:\Users\jo\AppData\Local\Temp\ccj6gOpH.s 			page 5


 229              	.LBE48:
 230              	.LBE47:
 231              	.LBE46:
 232              		.loc 1 152 0
 233 003c 2046     		mov	r0, r4
 234 003e 10BD     		pop	{r4, pc}
 235              	.LVL21:
 236              	.L26:
 237              		.align	2
 238              	.L25:
 239 0040 00000000 		.word	ch
 240 0044 00000000 		.word	.LANCHOR2
 241              		.cfi_endproc
 242              	.LFE229:
 243              		.size	chPoolAlloc, .-chPoolAlloc
 244 0048 AFF30080 		.section	.text.chPoolFreeI,"ax",%progbits
 244      AFF30080 
 245              		.align	2
 246              		.p2align 4,,15
 247              		.global	chPoolFreeI
 248              		.thumb
 249              		.thumb_func
 250              		.type	chPoolFreeI, %function
 251              	chPoolFreeI:
 252              	.LFB230:
 253              		.loc 1 166 0
 254              		.cfi_startproc
 255              		@ args = 0, pretend = 0, frame = 0
 256              		@ frame_needed = 0, uses_anonymous_args = 0
 257              	.LVL22:
 258 0000 38B5     		push	{r3, r4, r5, lr}
 259              		.cfi_def_cfa_offset 16
 260              		.cfi_offset 3, -16
 261              		.cfi_offset 4, -12
 262              		.cfi_offset 5, -8
 263              		.cfi_offset 14, -4
 264              		.loc 1 166 0
 265 0002 0446     		mov	r4, r0
 266 0004 0D46     		mov	r5, r1
 267              	.LVL23:
 268              		.loc 1 169 0
 269 0006 FFF7FEFF 		bl	chDbgCheckClassI
 270              	.LVL24:
 271              		.loc 1 170 0
 272 000a 24B1     		cbz	r4, .L28
 273              		.loc 1 170 0 is_stmt 0 discriminator 2
 274 000c 1DB1     		cbz	r5, .L28
 275              		.loc 1 172 0 is_stmt 1
 276 000e 2368     		ldr	r3, [r4]
 277 0010 2B60     		str	r3, [r5]
 278              		.loc 1 173 0
 279 0012 2560     		str	r5, [r4]
 280 0014 38BD     		pop	{r3, r4, r5, pc}
 281              	.LVL25:
 282              	.L28:
 283              		.loc 1 170 0 discriminator 3
 284 0016 0348     		ldr	r0, .L34
ARM GAS  C:\Users\jo\AppData\Local\Temp\ccj6gOpH.s 			page 6


 285 0018 FFF7FEFF 		bl	chSysHalt
 286              	.LVL26:
 287              		.loc 1 172 0 discriminator 3
 288 001c 2368     		ldr	r3, [r4]
 289 001e 2B60     		str	r3, [r5]
 290              		.loc 1 173 0 discriminator 3
 291 0020 2560     		str	r5, [r4]
 292 0022 38BD     		pop	{r3, r4, r5, pc}
 293              	.LVL27:
 294              	.L35:
 295              		.align	2
 296              	.L34:
 297 0024 00000000 		.word	.LANCHOR3
 298              		.cfi_endproc
 299              	.LFE230:
 300              		.size	chPoolFreeI, .-chPoolFreeI
 301 0028 AFF30080 		.section	.text.chPoolFree,"ax",%progbits
 301      AFF30080 
 302              		.align	2
 303              		.p2align 4,,15
 304              		.global	chPoolFree
 305              		.thumb
 306              		.thumb_func
 307              		.type	chPoolFree, %function
 308              	chPoolFree:
 309              	.LFB231:
 310              		.loc 1 188 0
 311              		.cfi_startproc
 312              		@ args = 0, pretend = 0, frame = 0
 313              		@ frame_needed = 0, uses_anonymous_args = 0
 314              	.LVL28:
 315 0000 38B5     		push	{r3, r4, r5, lr}
 316              		.cfi_def_cfa_offset 16
 317              		.cfi_offset 3, -16
 318              		.cfi_offset 4, -12
 319              		.cfi_offset 5, -8
 320              		.cfi_offset 14, -4
 321              		.loc 1 188 0
 322 0002 0546     		mov	r5, r0
 323 0004 0C46     		mov	r4, r1
 324              	.LBB61:
 325              	.LBB62:
 326              	.LBB63:
 327              	.LBB64:
 328              	.LBB65:
 329              		.loc 2 546 0
 330 0006 2023     		movs	r3, #32
 331              	@ 546 "../../../os/ext/CMSIS/include/core_cmFunc.h" 1
 332 0008 83F31188 		MSR basepri, r3
 333              	@ 0 "" 2
 334              		.thumb
 335              	.LBE65:
 336              	.LBE64:
 337              	.LBE63:
 338              		.loc 3 300 0
 339 000c FFF7FEFF 		bl	_stats_start_measure_crit_thd
 340              	.LVL29:
ARM GAS  C:\Users\jo\AppData\Local\Temp\ccj6gOpH.s 			page 7


 341              		.loc 3 301 0
 342 0010 FFF7FEFF 		bl	_dbg_check_lock
 343              	.LVL30:
 344              	.LBE62:
 345              	.LBE61:
 346              		.loc 1 191 0
 347 0014 2846     		mov	r0, r5
 348 0016 2146     		mov	r1, r4
 349 0018 FFF7FEFF 		bl	chPoolFreeI
 350              	.LVL31:
 351              	.LBB66:
 352              	.LBB67:
 353              		.loc 3 311 0
 354 001c FFF7FEFF 		bl	_dbg_check_unlock
 355              	.LVL32:
 356              		.loc 3 312 0
 357 0020 FFF7FEFF 		bl	_stats_stop_measure_crit_thd
 358              	.LVL33:
 359              		.loc 3 318 0
 360 0024 064B     		ldr	r3, .L39
 361 0026 9A69     		ldr	r2, [r3, #24]
 362 0028 1B68     		ldr	r3, [r3]
 363 002a 9268     		ldr	r2, [r2, #8]
 364 002c 9B68     		ldr	r3, [r3, #8]
 365 002e 9A42     		cmp	r2, r3
 366 0030 02D2     		bcs	.L37
 367 0032 0448     		ldr	r0, .L39+4
 368 0034 FFF7FEFF 		bl	chSysHalt
 369              	.LVL34:
 370              	.L37:
 371              	.LBB68:
 372              	.LBB69:
 373              	.LBB70:
 374              		.loc 2 546 0
 375 0038 0023     		movs	r3, #0
 376              	@ 546 "../../../os/ext/CMSIS/include/core_cmFunc.h" 1
 377 003a 83F31188 		MSR basepri, r3
 378              	@ 0 "" 2
 379              		.thumb
 380 003e 38BD     		pop	{r3, r4, r5, pc}
 381              	.LVL35:
 382              	.L40:
 383              		.align	2
 384              	.L39:
 385 0040 00000000 		.word	ch
 386 0044 00000000 		.word	.LANCHOR2
 387              	.LBE70:
 388              	.LBE69:
 389              	.LBE68:
 390              	.LBE67:
 391              	.LBE66:
 392              		.cfi_endproc
 393              	.LFE231:
 394              		.size	chPoolFree, .-chPoolFree
 395 0048 AFF30080 		.section	.text.chPoolLoadArray,"ax",%progbits
 395      AFF30080 
 396              		.align	2
ARM GAS  C:\Users\jo\AppData\Local\Temp\ccj6gOpH.s 			page 8


 397              		.p2align 4,,15
 398              		.global	chPoolLoadArray
 399              		.thumb
 400              		.thumb_func
 401              		.type	chPoolLoadArray, %function
 402              	chPoolLoadArray:
 403              	.LFB227:
 404              		.loc 1 97 0
 405              		.cfi_startproc
 406              		@ args = 0, pretend = 0, frame = 0
 407              		@ frame_needed = 0, uses_anonymous_args = 0
 408              	.LVL36:
 409 0000 70B5     		push	{r4, r5, r6, lr}
 410              		.cfi_def_cfa_offset 16
 411              		.cfi_offset 4, -16
 412              		.cfi_offset 5, -12
 413              		.cfi_offset 6, -8
 414              		.cfi_offset 14, -4
 415              		.loc 1 97 0
 416 0002 0D46     		mov	r5, r1
 417 0004 1446     		mov	r4, r2
 418              		.loc 1 99 0
 419 0006 0646     		mov	r6, r0
 420 0008 28B1     		cbz	r0, .L42
 421              		.loc 1 99 0 is_stmt 0 discriminator 2
 422 000a 42B9     		cbnz	r2, .L44
 423              		.loc 1 99 0
 424 000c 0948     		ldr	r0, .L49
 425              	.LVL37:
 426              		.loc 1 106 0 is_stmt 1
 427 000e BDE87040 		pop	{r4, r5, r6, lr}
 428              		.cfi_remember_state
 429              		.cfi_restore 14
 430              		.cfi_restore 6
 431              		.cfi_restore 5
 432              		.cfi_restore 4
 433              		.cfi_def_cfa_offset 0
 434              	.LVL38:
 435              		.loc 1 99 0
 436 0012 FFF7FEBF 		b	chSysHalt
 437              	.LVL39:
 438              	.L42:
 439              		.cfi_restore_state
 440              		.loc 1 99 0 is_stmt 0 discriminator 3
 441 0016 0748     		ldr	r0, .L49
 442              	.LVL40:
 443 0018 FFF7FEFF 		bl	chSysHalt
 444              	.LVL41:
 445              		.loc 1 101 0 is_stmt 1 discriminator 3
 446 001c 44B1     		cbz	r4, .L41
 447              	.LVL42:
 448              	.L44:
 449              	.LBB71:
 450              	.LBB72:
 451              		.file 4 "../../../os/rt/include/chmempools.h"
 452              		.loc 4 139 0
 453 001e 2946     		mov	r1, r5
ARM GAS  C:\Users\jo\AppData\Local\Temp\ccj6gOpH.s 			page 9


 454 0020 3046     		mov	r0, r6
 455 0022 FFF7FEFF 		bl	chPoolFree
 456              	.LVL43:
 457              	.LBE72:
 458              	.LBE71:
 459              		.loc 1 103 0
 460 0026 7368     		ldr	r3, [r6, #4]
 461              		.loc 1 101 0
 462 0028 013C     		subs	r4, r4, #1
 463              	.LVL44:
 464              		.loc 1 103 0
 465 002a 1D44     		add	r5, r5, r3
 466              	.LVL45:
 467              		.loc 1 101 0
 468 002c F7D1     		bne	.L44
 469 002e 70BD     		pop	{r4, r5, r6, pc}
 470              	.LVL46:
 471              	.L41:
 472 0030 70BD     		pop	{r4, r5, r6, pc}
 473              	.LVL47:
 474              	.L50:
 475 0032 00BF     		.align	2
 476              	.L49:
 477 0034 00000000 		.word	.LANCHOR4
 478              		.cfi_endproc
 479              	.LFE227:
 480              		.size	chPoolLoadArray, .-chPoolLoadArray
 481 0038 AFF30080 		.section	.rodata.__func__.6556,"a",%progbits
 481      AFF30080 
 482              		.align	2
 483              		.set	.LANCHOR0,. + 0
 484              		.type	__func__.6556, %object
 485              		.size	__func__.6556, 17
 486              	__func__.6556:
 487 0000 6368506F 		.ascii	"chPoolObjectInit\000"
 487      6F6C4F62 
 487      6A656374 
 487      496E6974 
 487      00
 488 0011 000000   		.section	.rodata.__func__.6562,"a",%progbits
 489              		.align	2
 490              		.set	.LANCHOR4,. + 0
 491              		.type	__func__.6562, %object
 492              		.size	__func__.6562, 16
 493              	__func__.6562:
 494 0000 6368506F 		.ascii	"chPoolLoadArray\000"
 494      6F6C4C6F 
 494      61644172 
 494      72617900 
 495              		.section	.rodata.__func__.6570,"a",%progbits
 496              		.align	2
 497              		.set	.LANCHOR1,. + 0
 498              		.type	__func__.6570, %object
 499              		.size	__func__.6570, 13
 500              	__func__.6570:
 501 0000 6368506F 		.ascii	"chPoolAllocI\000"
 501      6F6C416C 
ARM GAS  C:\Users\jo\AppData\Local\Temp\ccj6gOpH.s 			page 10


 501      6C6F6349 
 501      00
 502 000d 000000   		.section	.rodata.__func__.6580,"a",%progbits
 503              		.align	2
 504              		.set	.LANCHOR3,. + 0
 505              		.type	__func__.6580, %object
 506              		.size	__func__.6580, 12
 507              	__func__.6580:
 508 0000 6368506F 		.ascii	"chPoolFreeI\000"
 508      6F6C4672 
 508      65654900 
 509              		.section	.rodata.__func__.5870,"a",%progbits
 510              		.align	2
 511              		.set	.LANCHOR2,. + 0
 512              		.type	__func__.5870, %object
 513              		.size	__func__.5870, 12
 514              	__func__.5870:
 515 0000 63685379 		.ascii	"chSysUnlock\000"
 515      73556E6C 
 515      6F636B00 
 516              		.text
 517              	.Letext0:
 518              		.file 5 "c:\\program files\\gnu tools arm embedded\\4.9 2014q4\\lib\\gcc\\arm-none-eabi\\4.9.3\\in
 519              		.file 6 "c:\\program files\\gnu tools arm embedded\\4.9 2014q4\\arm-none-eabi\\include\\machine\\_
 520              		.file 7 "c:\\program files\\gnu tools arm embedded\\4.9 2014q4\\arm-none-eabi\\include\\stdint.h"
 521              		.file 8 "../../../os/rt/ports/ARMCMx/compilers/GCC/chtypes.h"
 522              		.file 9 "../../../os/rt/include/chsystypes.h"
 523              		.file 10 "../../../os/rt/include/chschd.h"
 524              		.file 11 "../../../os/rt/ports/ARMCMx/chcore.h"
 525              		.file 12 "../../../os/rt/ports/ARMCMx/chcore_v7m.h"
 526              		.file 13 "../../../os/rt/include/chdebug.h"
 527              		.file 14 "../../../os/rt/include/chtm.h"
 528              		.file 15 "../../../os/rt/include/chstats.h"
 529              		.file 16 "../../../os/rt/include/chmtx.h"
 530              		.file 17 "../../../os/rt/include/chmemcore.h"
 531              		.file 18 "../../../os/ext/CMSIS/include/core_cm4.h"