ARM GAS  C:\Users\jo\AppData\Local\Temp\ccuAei8a.s 			page 1


   1              		.syntax unified
   2              		.cpu cortex-m4
   3              		.fpu softvfp
   4              		.eabi_attribute 20, 1
   5              		.eabi_attribute 21, 1
   6              		.eabi_attribute 23, 3
   7              		.eabi_attribute 24, 1
   8              		.eabi_attribute 25, 1
   9              		.eabi_attribute 26, 1
  10              		.eabi_attribute 30, 2
  11              		.eabi_attribute 34, 1
  12              		.eabi_attribute 18, 4
  13              		.thumb
  14              		.file	"chmsg.c"
  15              		.text
  16              	.Ltext0:
  17              		.cfi_sections	.debug_frame
  18              		.section	.text.chMsgSend,"ax",%progbits
  19              		.align	2
  20              		.p2align 4,,15
  21              		.global	chMsgSend
  22              		.thumb
  23              		.thumb_func
  24              		.type	chMsgSend, %function
  25              	chMsgSend:
  26              	.LFB226:
  27              		.file 1 "../../../os/rt/src/chmsg.c"
  28              		.loc 1 87 0
  29              		.cfi_startproc
  30              		@ args = 0, pretend = 0, frame = 0
  31              		@ frame_needed = 0, uses_anonymous_args = 0
  32              	.LVL0:
  33 0000 F8B5     		push	{r3, r4, r5, r6, r7, lr}
  34              		.cfi_def_cfa_offset 24
  35              		.cfi_offset 3, -24
  36              		.cfi_offset 4, -20
  37              		.cfi_offset 5, -16
  38              		.cfi_offset 6, -12
  39              		.cfi_offset 7, -8
  40              		.cfi_offset 14, -4
  41              		.loc 1 88 0
  42 0002 1B4E     		ldr	r6, .L9
  43              		.loc 1 87 0
  44 0004 0F46     		mov	r7, r1
  45              		.loc 1 88 0
  46 0006 B469     		ldr	r4, [r6, #24]
  47              	.LVL1:
  48              		.loc 1 90 0
  49 0008 0546     		mov	r5, r0
  50 000a 68B3     		cbz	r0, .L7
  51              	.LVL2:
  52              	.L2:
  53              	.LBB49:
  54              	.LBB50:
  55              	.LBB51:
  56              	.LBB52:
  57              	.LBB53:
ARM GAS  C:\Users\jo\AppData\Local\Temp\ccuAei8a.s 			page 2


  58              		.file 2 "../../../os/ext/CMSIS/include/core_cmFunc.h"
  59              		.loc 2 546 0
  60 000c 2023     		movs	r3, #32
  61              	@ 546 "../../../os/ext/CMSIS/include/core_cmFunc.h" 1
  62 000e 83F31188 		MSR basepri, r3
  63              	@ 0 "" 2
  64              		.thumb
  65              	.LBE53:
  66              	.LBE52:
  67              	.LBE51:
  68              		.file 3 "../../../os/rt/include/chsys.h"
  69              		.loc 3 300 0
  70 0012 FFF7FEFF 		bl	_stats_start_measure_crit_thd
  71              	.LVL3:
  72              		.loc 3 301 0
  73 0016 FFF7FEFF 		bl	_dbg_check_lock
  74              	.LVL4:
  75              	.LBE50:
  76              	.LBE49:
  77              		.loc 1 94 0
  78 001a 05F12C02 		add	r2, r5, #44
  79              		.loc 1 96 0
  80 001e 95F82000 		ldrb	r0, [r5, #32]	@ zero_extendqisi2
  81              		.loc 1 94 0
  82 0022 6262     		str	r2, [r4, #36]
  83              	.LVL5:
  84              	.LBB54:
  85              	.LBB55:
  86              		.file 4 "../../../os/rt/include/chschd.h"
  87              		.loc 4 634 0
  88 0024 2B6B     		ldr	r3, [r5, #48]
  89              	.LBE55:
  90              	.LBE54:
  91              		.loc 1 93 0
  92 0026 6763     		str	r7, [r4, #52]
  93              		.loc 1 96 0
  94 0028 0E28     		cmp	r0, #14
  95              	.LBB57:
  96              	.LBB56:
  97              		.loc 4 634 0
  98 002a 84E80C00 		stmia	r4, {r2, r3}
  99              		.loc 4 635 0
 100 002e 2C63     		str	r4, [r5, #48]
 101 0030 1C60     		str	r4, [r3]
 102              	.LBE56:
 103              	.LBE57:
 104              		.loc 1 96 0
 105 0032 15D0     		beq	.L8
 106              	.LVL6:
 107              	.L3:
 108              		.loc 1 99 0
 109 0034 0C20     		movs	r0, #12
 110 0036 FFF7FEFF 		bl	chSchGoSleepS
 111              	.LVL7:
 112              		.loc 1 100 0
 113 003a 646A     		ldr	r4, [r4, #36]
 114              	.LVL8:
ARM GAS  C:\Users\jo\AppData\Local\Temp\ccuAei8a.s 			page 3


 115              	.LBB58:
 116              	.LBB59:
 117              		.loc 3 311 0
 118 003c FFF7FEFF 		bl	_dbg_check_unlock
 119              	.LVL9:
 120              		.loc 3 312 0
 121 0040 FFF7FEFF 		bl	_stats_stop_measure_crit_thd
 122              	.LVL10:
 123              		.loc 3 318 0
 124 0044 B269     		ldr	r2, [r6, #24]
 125 0046 3368     		ldr	r3, [r6]
 126 0048 9268     		ldr	r2, [r2, #8]
 127 004a 9B68     		ldr	r3, [r3, #8]
 128 004c 9A42     		cmp	r2, r3
 129 004e 02D2     		bcs	.L4
 130 0050 0848     		ldr	r0, .L9+4
 131 0052 FFF7FEFF 		bl	chSysHalt
 132              	.LVL11:
 133              	.L4:
 134              	.LBB60:
 135              	.LBB61:
 136              	.LBB62:
 137              		.loc 2 546 0
 138 0056 0023     		movs	r3, #0
 139              	@ 546 "../../../os/ext/CMSIS/include/core_cmFunc.h" 1
 140 0058 83F31188 		MSR basepri, r3
 141              	@ 0 "" 2
 142              		.thumb
 143              	.LBE62:
 144              	.LBE61:
 145              	.LBE60:
 146              	.LBE59:
 147              	.LBE58:
 148              		.loc 1 104 0
 149 005c 2046     		mov	r0, r4
 150 005e F8BD     		pop	{r3, r4, r5, r6, r7, pc}
 151              	.LVL12:
 152              	.L8:
 153              		.loc 1 97 0
 154 0060 2846     		mov	r0, r5
 155 0062 FFF7FEFF 		bl	chSchReadyI
 156              	.LVL13:
 157 0066 E5E7     		b	.L3
 158              	.LVL14:
 159              	.L7:
 160              		.loc 1 90 0 discriminator 1
 161 0068 0348     		ldr	r0, .L9+8
 162              	.LVL15:
 163 006a FFF7FEFF 		bl	chSysHalt
 164              	.LVL16:
 165 006e CDE7     		b	.L2
 166              	.L10:
 167              		.align	2
 168              	.L9:
 169 0070 00000000 		.word	ch
 170 0074 00000000 		.word	.LANCHOR1
 171 0078 00000000 		.word	.LANCHOR0
ARM GAS  C:\Users\jo\AppData\Local\Temp\ccuAei8a.s 			page 4


 172              		.cfi_endproc
 173              	.LFE226:
 174              		.size	chMsgSend, .-chMsgSend
 175 007c AFF30080 		.section	.text.chMsgWait,"ax",%progbits
 176              		.align	2
 177              		.p2align 4,,15
 178              		.global	chMsgWait
 179              		.thumb
 180              		.thumb_func
 181              		.type	chMsgWait, %function
 182              	chMsgWait:
 183              	.LFB227:
 184              		.loc 1 120 0
 185              		.cfi_startproc
 186              		@ args = 0, pretend = 0, frame = 0
 187              		@ frame_needed = 0, uses_anonymous_args = 0
 188              	.LVL17:
 189 0000 38B5     		push	{r3, r4, r5, lr}
 190              		.cfi_def_cfa_offset 16
 191              		.cfi_offset 3, -16
 192              		.cfi_offset 4, -12
 193              		.cfi_offset 5, -8
 194              		.cfi_offset 14, -4
 195              	.LBB77:
 196              	.LBB78:
 197              	.LBB79:
 198              	.LBB80:
 199              	.LBB81:
 200              		.loc 2 546 0
 201 0002 2023     		movs	r3, #32
 202              	@ 546 "../../../os/ext/CMSIS/include/core_cmFunc.h" 1
 203 0004 83F31188 		MSR basepri, r3
 204              	@ 0 "" 2
 205              		.thumb
 206              	.LBE81:
 207              	.LBE80:
 208              	.LBE79:
 209              	.LBE78:
 210              	.LBE77:
 211              		.loc 1 124 0
 212 0008 154C     		ldr	r4, .L16
 213              	.LBB83:
 214              	.LBB82:
 215              		.loc 3 300 0
 216 000a FFF7FEFF 		bl	_stats_start_measure_crit_thd
 217              	.LVL18:
 218              		.loc 3 301 0
 219 000e FFF7FEFF 		bl	_dbg_check_lock
 220              	.LVL19:
 221              	.LBE82:
 222              	.LBE83:
 223              		.loc 1 124 0
 224 0012 A569     		ldr	r5, [r4, #24]
 225              	.LVL20:
 226              	.LBB84:
 227              	.LBB85:
 228              		.file 5 "../../../os/rt/include/chmsg.h"
ARM GAS  C:\Users\jo\AppData\Local\Temp\ccuAei8a.s 			page 5


 229              		.loc 5 81 0
 230 0014 FFF7FEFF 		bl	chDbgCheckClassI
 231              	.LVL21:
 232              	.LBE85:
 233              	.LBE84:
 234              		.loc 1 124 0
 235 0018 EB6A     		ldr	r3, [r5, #44]
 236              	.LBB87:
 237              	.LBB86:
 238              		.loc 5 83 0
 239 001a 2C35     		adds	r5, r5, #44
 240              	.LVL22:
 241              	.LBE86:
 242              	.LBE87:
 243              		.loc 1 124 0
 244 001c AB42     		cmp	r3, r5
 245 001e 1AD0     		beq	.L15
 246              	.L12:
 247              		.loc 1 127 0
 248 0020 A369     		ldr	r3, [r4, #24]
 249              	.LVL23:
 250              	.LBB88:
 251              	.LBB89:
 252              		.loc 4 639 0
 253 0022 DD6A     		ldr	r5, [r3, #44]
 254              	.LVL24:
 255              		.loc 4 641 0
 256 0024 2A68     		ldr	r2, [r5]
 257 0026 43F82C2F 		str	r2, [r3, #44]!
 258              	.LVL25:
 259              	.LBE89:
 260              	.LBE88:
 261              		.loc 1 128 0
 262 002a 0D21     		movs	r1, #13
 263              	.LBB91:
 264              	.LBB90:
 265              		.loc 4 641 0
 266 002c 5360     		str	r3, [r2, #4]
 267              	.LBE90:
 268              	.LBE91:
 269              		.loc 1 128 0
 270 002e 85F82010 		strb	r1, [r5, #32]
 271              	.LBB92:
 272              	.LBB93:
 273              		.loc 3 311 0
 274 0032 FFF7FEFF 		bl	_dbg_check_unlock
 275              	.LVL26:
 276              		.loc 3 312 0
 277 0036 FFF7FEFF 		bl	_stats_stop_measure_crit_thd
 278              	.LVL27:
 279              		.loc 3 318 0
 280 003a A269     		ldr	r2, [r4, #24]
 281 003c 2368     		ldr	r3, [r4]
 282 003e 9268     		ldr	r2, [r2, #8]
 283 0040 9B68     		ldr	r3, [r3, #8]
 284 0042 9A42     		cmp	r2, r3
 285 0044 02D2     		bcs	.L13
ARM GAS  C:\Users\jo\AppData\Local\Temp\ccuAei8a.s 			page 6


 286 0046 0748     		ldr	r0, .L16+4
 287 0048 FFF7FEFF 		bl	chSysHalt
 288              	.LVL28:
 289              	.L13:
 290              	.LBB94:
 291              	.LBB95:
 292              	.LBB96:
 293              		.loc 2 546 0
 294 004c 0023     		movs	r3, #0
 295              	@ 546 "../../../os/ext/CMSIS/include/core_cmFunc.h" 1
 296 004e 83F31188 		MSR basepri, r3
 297              	@ 0 "" 2
 298              		.thumb
 299              	.LBE96:
 300              	.LBE95:
 301              	.LBE94:
 302              	.LBE93:
 303              	.LBE92:
 304              		.loc 1 132 0
 305 0052 2846     		mov	r0, r5
 306 0054 38BD     		pop	{r3, r4, r5, pc}
 307              	.LVL29:
 308              	.L15:
 309              		.loc 1 125 0
 310 0056 0E20     		movs	r0, #14
 311 0058 FFF7FEFF 		bl	chSchGoSleepS
 312              	.LVL30:
 313 005c E0E7     		b	.L12
 314              	.L17:
 315 005e 00BF     		.align	2
 316              	.L16:
 317 0060 00000000 		.word	ch
 318 0064 00000000 		.word	.LANCHOR1
 319              		.cfi_endproc
 320              	.LFE227:
 321              		.size	chMsgWait, .-chMsgWait
 322 0068 AFF30080 		.section	.text.chMsgRelease,"ax",%progbits
 322      AFF30080 
 323              		.align	2
 324              		.p2align 4,,15
 325              		.global	chMsgRelease
 326              		.thumb
 327              		.thumb_func
 328              		.type	chMsgRelease, %function
 329              	chMsgRelease:
 330              	.LFB228:
 331              		.loc 1 144 0
 332              		.cfi_startproc
 333              		@ args = 0, pretend = 0, frame = 0
 334              		@ frame_needed = 0, uses_anonymous_args = 0
 335              	.LVL31:
 336 0000 38B5     		push	{r3, r4, r5, lr}
 337              		.cfi_def_cfa_offset 16
 338              		.cfi_offset 3, -16
 339              		.cfi_offset 4, -12
 340              		.cfi_offset 5, -8
 341              		.cfi_offset 14, -4
ARM GAS  C:\Users\jo\AppData\Local\Temp\ccuAei8a.s 			page 7


 342              		.loc 1 144 0
 343 0002 0446     		mov	r4, r0
 344 0004 0D46     		mov	r5, r1
 345              	.LBB109:
 346              	.LBB110:
 347              	.LBB111:
 348              	.LBB112:
 349              	.LBB113:
 350              		.loc 2 546 0
 351 0006 2023     		movs	r3, #32
 352              	@ 546 "../../../os/ext/CMSIS/include/core_cmFunc.h" 1
 353 0008 83F31188 		MSR basepri, r3
 354              	@ 0 "" 2
 355              		.thumb
 356              	.LBE113:
 357              	.LBE112:
 358              	.LBE111:
 359              		.loc 3 300 0
 360 000c FFF7FEFF 		bl	_stats_start_measure_crit_thd
 361              	.LVL32:
 362              		.loc 3 301 0
 363 0010 FFF7FEFF 		bl	_dbg_check_lock
 364              	.LVL33:
 365              	.LBE110:
 366              	.LBE109:
 367              		.loc 1 147 0
 368 0014 94F82030 		ldrb	r3, [r4, #32]	@ zero_extendqisi2
 369 0018 0D2B     		cmp	r3, #13
 370 001a 02D0     		beq	.L19
 371              		.loc 1 147 0 is_stmt 0 discriminator 1
 372 001c 0D48     		ldr	r0, .L25
 373 001e FFF7FEFF 		bl	chSysHalt
 374              	.LVL34:
 375              	.L19:
 376              	.LBB114:
 377              	.LBB115:
 378              		.loc 5 113 0 is_stmt 1
 379 0022 FFF7FEFF 		bl	chDbgCheckClassS
 380              	.LVL35:
 381              		.loc 5 115 0
 382 0026 2046     		mov	r0, r4
 383 0028 2946     		mov	r1, r5
 384 002a FFF7FEFF 		bl	chSchWakeupS
 385              	.LVL36:
 386              	.LBE115:
 387              	.LBE114:
 388              	.LBB116:
 389              	.LBB117:
 390              		.loc 3 311 0
 391 002e FFF7FEFF 		bl	_dbg_check_unlock
 392              	.LVL37:
 393              		.loc 3 312 0
 394 0032 FFF7FEFF 		bl	_stats_stop_measure_crit_thd
 395              	.LVL38:
 396              		.loc 3 318 0
 397 0036 084B     		ldr	r3, .L25+4
 398 0038 9A69     		ldr	r2, [r3, #24]
ARM GAS  C:\Users\jo\AppData\Local\Temp\ccuAei8a.s 			page 8


 399 003a 1B68     		ldr	r3, [r3]
 400 003c 9268     		ldr	r2, [r2, #8]
 401 003e 9B68     		ldr	r3, [r3, #8]
 402 0040 9A42     		cmp	r2, r3
 403 0042 02D2     		bcs	.L20
 404 0044 0548     		ldr	r0, .L25+8
 405 0046 FFF7FEFF 		bl	chSysHalt
 406              	.LVL39:
 407              	.L20:
 408              	.LBB118:
 409              	.LBB119:
 410              	.LBB120:
 411              		.loc 2 546 0
 412 004a 0023     		movs	r3, #0
 413              	@ 546 "../../../os/ext/CMSIS/include/core_cmFunc.h" 1
 414 004c 83F31188 		MSR basepri, r3
 415              	@ 0 "" 2
 416              		.thumb
 417 0050 38BD     		pop	{r3, r4, r5, pc}
 418              	.LVL40:
 419              	.L26:
 420 0052 00BF     		.align	2
 421              	.L25:
 422 0054 00000000 		.word	.LANCHOR2
 423 0058 00000000 		.word	ch
 424 005c 00000000 		.word	.LANCHOR1
 425              	.LBE120:
 426              	.LBE119:
 427              	.LBE118:
 428              	.LBE117:
 429              	.LBE116:
 430              		.cfi_endproc
 431              	.LFE228:
 432              		.size	chMsgRelease, .-chMsgRelease
 433              		.section	.rodata.__func__.6556,"a",%progbits
 434              		.align	2
 435              		.set	.LANCHOR0,. + 0
 436              		.type	__func__.6556, %object
 437              		.size	__func__.6556, 10
 438              	__func__.6556:
 439 0000 63684D73 		.ascii	"chMsgSend\000"
 439      6753656E 
 439      6400
 440 000a 0000     		.section	.rodata.__func__.6565,"a",%progbits
 441              		.align	2
 442              		.set	.LANCHOR2,. + 0
 443              		.type	__func__.6565, %object
 444              		.size	__func__.6565, 13
 445              	__func__.6565:
 446 0000 63684D73 		.ascii	"chMsgRelease\000"
 446      6752656C 
 446      65617365 
 446      00
 447 000d 000000   		.section	.rodata.__func__.5870,"a",%progbits
 448              		.align	2
 449              		.set	.LANCHOR1,. + 0
 450              		.type	__func__.5870, %object
ARM GAS  C:\Users\jo\AppData\Local\Temp\ccuAei8a.s 			page 9


 451              		.size	__func__.5870, 12
 452              	__func__.5870:
 453 0000 63685379 		.ascii	"chSysUnlock\000"
 453      73556E6C 
 453      6F636B00 
 454              		.text
 455              	.Letext0:
 456              		.file 6 "c:\\program files\\gnu tools arm embedded\\4.9 2014q4\\arm-none-eabi\\include\\machine\\_
 457              		.file 7 "c:\\program files\\gnu tools arm embedded\\4.9 2014q4\\arm-none-eabi\\include\\stdint.h"
 458              		.file 8 "../../../os/rt/ports/ARMCMx/compilers/GCC/chtypes.h"
 459              		.file 9 "../../../os/rt/include/chsystypes.h"
 460              		.file 10 "../../../os/rt/ports/ARMCMx/chcore.h"
 461              		.file 11 "../../../os/rt/ports/ARMCMx/chcore_v7m.h"
 462              		.file 12 "../../../os/rt/include/chdebug.h"
 463              		.file 13 "../../../os/rt/include/chtm.h"
 464              		.file 14 "../../../os/rt/include/chstats.h"
 465              		.file 15 "../../../os/rt/include/chmtx.h"
 466              		.file 16 "../../../os/ext/CMSIS/include/core_cm4.h"