ARM GAS  C:\Users\jo\AppData\Local\Temp\cc07zeMk.s 			page 1


   1              		.syntax unified
   2              		.cpu cortex-m4
   3              		.fpu softvfp
   4              		.eabi_attribute 20, 1
   5              		.eabi_attribute 21, 1
   6              		.eabi_attribute 23, 3
   7              		.eabi_attribute 24, 1
   8              		.eabi_attribute 25, 1
   9              		.eabi_attribute 26, 1
  10              		.eabi_attribute 30, 2
  11              		.eabi_attribute 34, 1
  12              		.eabi_attribute 18, 4
  13              		.thumb
  14              		.file	"chmtx.c"
  15              		.text
  16              	.Ltext0:
  17              		.cfi_sections	.debug_frame
  18              		.section	.text.chMtxObjectInit,"ax",%progbits
  19              		.align	2
  20              		.p2align 4,,15
  21              		.global	chMtxObjectInit
  22              		.thumb
  23              		.thumb_func
  24              		.type	chMtxObjectInit, %function
  25              	chMtxObjectInit:
  26              	.LFB226:
  27              		.file 1 "../../../os/rt/src/chmtx.c"
  28              		.loc 1 103 0
  29              		.cfi_startproc
  30              		@ args = 0, pretend = 0, frame = 0
  31              		@ frame_needed = 0, uses_anonymous_args = 0
  32              	.LVL0:
  33 0000 10B5     		push	{r4, lr}
  34              		.cfi_def_cfa_offset 8
  35              		.cfi_offset 4, -8
  36              		.cfi_offset 14, -4
  37              		.loc 1 105 0
  38 0002 0446     		mov	r4, r0
  39 0004 20B1     		cbz	r0, .L5
  40              	.LVL1:
  41              	.L2:
  42              		.loc 1 108 0
  43 0006 0023     		movs	r3, #0
  44              	.LBB81:
  45              	.LBB82:
  46              		.file 2 "../../../os/rt/include/chschd.h"
  47              		.loc 2 574 0
  48 0008 6460     		str	r4, [r4, #4]
  49 000a 2460     		str	r4, [r4]
  50              	.LBE82:
  51              	.LBE81:
  52              		.loc 1 108 0
  53 000c A360     		str	r3, [r4, #8]
  54 000e 10BD     		pop	{r4, pc}
  55              	.LVL2:
  56              	.L5:
  57              		.loc 1 105 0 discriminator 1
ARM GAS  C:\Users\jo\AppData\Local\Temp\cc07zeMk.s 			page 2


  58 0010 0148     		ldr	r0, .L6
  59              	.LVL3:
  60 0012 FFF7FEFF 		bl	chSysHalt
  61              	.LVL4:
  62 0016 F6E7     		b	.L2
  63              	.L7:
  64              		.align	2
  65              	.L6:
  66 0018 00000000 		.word	.LANCHOR0
  67              		.cfi_endproc
  68              	.LFE226:
  69              		.size	chMtxObjectInit, .-chMtxObjectInit
  70 001c AFF30080 		.section	.text.chMtxLockS,"ax",%progbits
  71              		.align	2
  72              		.p2align 4,,15
  73              		.global	chMtxLockS
  74              		.thumb
  75              		.thumb_func
  76              		.type	chMtxLockS, %function
  77              	chMtxLockS:
  78              	.LFB228:
  79              		.loc 1 139 0
  80              		.cfi_startproc
  81              		@ args = 0, pretend = 0, frame = 0
  82              		@ frame_needed = 0, uses_anonymous_args = 0
  83              	.LVL5:
  84              		.loc 1 140 0
  85 0000 3B4B     		ldr	r3, .L38
  86              		.loc 1 139 0
  87 0002 70B5     		push	{r4, r5, r6, lr}
  88              		.cfi_def_cfa_offset 16
  89              		.cfi_offset 4, -16
  90              		.cfi_offset 5, -12
  91              		.cfi_offset 6, -8
  92              		.cfi_offset 14, -4
  93              		.loc 1 139 0
  94 0004 0546     		mov	r5, r0
  95              		.loc 1 140 0
  96 0006 9C69     		ldr	r4, [r3, #24]
  97              	.LVL6:
  98              		.loc 1 142 0
  99 0008 FFF7FEFF 		bl	chDbgCheckClassS
 100              	.LVL7:
 101              		.loc 1 143 0
 102 000c 002D     		cmp	r5, #0
 103 000e 6BD0     		beq	.L36
 104              	.L9:
 105              		.loc 1 146 0
 106 0010 A868     		ldr	r0, [r5, #8]
 107 0012 0028     		cmp	r0, #0
 108 0014 36D0     		beq	.L10
 109              	.LVL8:
 110              	.LBB83:
 111              		.loc 1 165 0
 112 0016 A268     		ldr	r2, [r4, #8]
 113 0018 8368     		ldr	r3, [r0, #8]
 114 001a 9A42     		cmp	r2, r3
ARM GAS  C:\Users\jo\AppData\Local\Temp\cc07zeMk.s 			page 3


 115 001c 07D9     		bls	.L12
 116              	.L17:
 117              		.loc 1 170 0
 118 001e 90F82030 		ldrb	r3, [r0, #32]	@ zero_extendqisi2
 119              		.loc 1 167 0
 120 0022 8260     		str	r2, [r0, #8]
 121              		.loc 1 170 0
 122 0024 062B     		cmp	r3, #6
 123 0026 46D0     		beq	.L13
 124 0028 072B     		cmp	r3, #7
 125 002a 30D0     		beq	.L14
 126 002c FBB1     		cbz	r3, .L37
 127              	.LVL9:
 128              	.L12:
 129              	.LBB84:
 130              	.LBB85:
 131              		.loc 2 622 0
 132 002e 2B46     		mov	r3, r5
 133 0030 03E0     		b	.L27
 134              	.LVL10:
 135              	.L24:
 136              		.loc 2 625 0
 137 0032 9968     		ldr	r1, [r3, #8]
 138 0034 A268     		ldr	r2, [r4, #8]
 139 0036 9142     		cmp	r1, r2
 140 0038 02D3     		bcc	.L28
 141              	.L27:
 142              		.loc 2 624 0
 143 003a 1B68     		ldr	r3, [r3]
 144              	.LVL11:
 145              		.loc 2 625 0
 146 003c 9D42     		cmp	r5, r3
 147 003e F8D1     		bne	.L24
 148              	.L28:
 149              		.loc 2 627 0
 150 0040 5A68     		ldr	r2, [r3, #4]
 151 0042 6260     		str	r2, [r4, #4]
 152              		.loc 2 626 0
 153 0044 2360     		str	r3, [r4]
 154              	.LBE85:
 155              	.LBE84:
 156              		.loc 1 209 0
 157 0046 0620     		movs	r0, #6
 158              	.LBB87:
 159              	.LBB86:
 160              		.loc 2 628 0
 161 0048 5C60     		str	r4, [r3, #4]
 162 004a 1460     		str	r4, [r2]
 163              	.LBE86:
 164              	.LBE87:
 165              		.loc 1 208 0
 166 004c 6562     		str	r5, [r4, #36]
 167              		.loc 1 209 0
 168 004e FFF7FEFF 		bl	chSchGoSleepS
 169              	.LVL12:
 170              		.loc 1 213 0
 171 0052 AB68     		ldr	r3, [r5, #8]
ARM GAS  C:\Users\jo\AppData\Local\Temp\cc07zeMk.s 			page 4


 172 0054 A342     		cmp	r3, r4
 173 0056 02D0     		beq	.L26
 174              		.loc 1 213 0 is_stmt 0 discriminator 1
 175 0058 2648     		ldr	r0, .L38+4
 176 005a FFF7FEFF 		bl	chSysHalt
 177              	.LVL13:
 178              	.L26:
 179              		.loc 1 214 0 is_stmt 1
 180 005e E36B     		ldr	r3, [r4, #60]
 181 0060 AB42     		cmp	r3, r5
 182 0062 13D0     		beq	.L8
 183              		.loc 1 214 0 is_stmt 0 discriminator 1
 184 0064 2348     		ldr	r0, .L38+4
 185              	.LBE83:
 186              		.loc 1 231 0 is_stmt 1 discriminator 1
 187 0066 BDE87040 		pop	{r4, r5, r6, lr}
 188              		.cfi_remember_state
 189              		.cfi_restore 14
 190              		.cfi_restore 6
 191              		.cfi_restore 5
 192              		.cfi_restore 4
 193              		.cfi_def_cfa_offset 0
 194              	.LVL14:
 195              	.LBB104:
 196              		.loc 1 214 0 discriminator 1
 197 006a FFF7FEBF 		b	chSysHalt
 198              	.LVL15:
 199              	.L37:
 200              		.cfi_restore_state
 201              	.LBB88:
 202              	.LBB89:
 203              		.loc 2 656 0
 204 006e 90E80C00 		ldmia	r0, {r2, r3}
 205              	.LBE89:
 206              	.LBE88:
 207              		.loc 1 197 0
 208 0072 0121     		movs	r1, #1
 209 0074 80F82010 		strb	r1, [r0, #32]
 210              	.LVL16:
 211              	.LBB91:
 212              	.LBB90:
 213              		.loc 2 656 0
 214 0078 1A60     		str	r2, [r3]
 215              		.loc 2 657 0
 216 007a 0268     		ldr	r2, [r0]
 217 007c 5360     		str	r3, [r2, #4]
 218              	.LBE90:
 219              	.LBE91:
 220              		.loc 1 200 0
 221 007e FFF7FEFF 		bl	chSchReadyI
 222              	.LVL17:
 223              		.loc 1 201 0
 224 0082 D4E7     		b	.L12
 225              	.L10:
 226              	.LBE104:
 227              		.loc 1 228 0
 228 0084 E36B     		ldr	r3, [r4, #60]
ARM GAS  C:\Users\jo\AppData\Local\Temp\cc07zeMk.s 			page 5


 229 0086 EB60     		str	r3, [r5, #12]
 230              		.loc 1 227 0
 231 0088 AC60     		str	r4, [r5, #8]
 232              		.loc 1 229 0
 233 008a E563     		str	r5, [r4, #60]
 234              	.L8:
 235 008c 70BD     		pop	{r4, r5, r6, pc}
 236              	.LVL18:
 237              	.L14:
 238              	.LBB105:
 239              	.LBB92:
 240              	.LBB93:
 241              		.loc 2 656 0
 242 008e 90E80A00 		ldmia	r0, {r1, r3}
 243 0092 1960     		str	r1, [r3]
 244              	.LBE93:
 245              	.LBE92:
 246              		.loc 1 191 0
 247 0094 466A     		ldr	r6, [r0, #36]
 248              	.LVL19:
 249              	.LBB95:
 250              	.LBB94:
 251              		.loc 2 657 0
 252 0096 0168     		ldr	r1, [r0]
 253 0098 4B60     		str	r3, [r1, #4]
 254              	.LBE94:
 255              	.LBE95:
 256              	.LBB96:
 257              	.LBB97:
 258              		.loc 2 622 0
 259 009a 3346     		mov	r3, r6
 260 009c 02E0     		b	.L22
 261              	.LVL20:
 262              	.L21:
 263              		.loc 2 625 0
 264 009e 9968     		ldr	r1, [r3, #8]
 265 00a0 9142     		cmp	r1, r2
 266 00a2 02D3     		bcc	.L23
 267              	.L22:
 268              		.loc 2 624 0
 269 00a4 1B68     		ldr	r3, [r3]
 270              	.LVL21:
 271              		.loc 2 625 0
 272 00a6 9E42     		cmp	r6, r3
 273 00a8 F9D1     		bne	.L21
 274              	.L23:
 275              		.loc 2 627 0
 276 00aa 5A68     		ldr	r2, [r3, #4]
 277 00ac 4260     		str	r2, [r0, #4]
 278              		.loc 2 626 0
 279 00ae 0360     		str	r3, [r0]
 280              		.loc 2 628 0
 281 00b0 5860     		str	r0, [r3, #4]
 282 00b2 1060     		str	r0, [r2]
 283 00b4 BBE7     		b	.L12
 284              	.LVL22:
 285              	.L13:
ARM GAS  C:\Users\jo\AppData\Local\Temp\cc07zeMk.s 			page 6


 286              	.LBE97:
 287              	.LBE96:
 288              	.LBB98:
 289              	.LBB99:
 290              		.loc 2 656 0
 291 00b6 90E80A00 		ldmia	r0, {r1, r3}
 292 00ba 1960     		str	r1, [r3]
 293              	.LBE99:
 294              	.LBE98:
 295              		.loc 1 174 0
 296 00bc 466A     		ldr	r6, [r0, #36]
 297              	.LVL23:
 298              	.LBB101:
 299              	.LBB100:
 300              		.loc 2 657 0
 301 00be 0168     		ldr	r1, [r0]
 302 00c0 4B60     		str	r3, [r1, #4]
 303              	.LBE100:
 304              	.LBE101:
 305              		.loc 1 174 0
 306 00c2 3346     		mov	r3, r6
 307 00c4 02E0     		b	.L19
 308              	.LVL24:
 309              	.L16:
 310              	.LBB102:
 311              	.LBB103:
 312              		.loc 2 625 0
 313 00c6 9968     		ldr	r1, [r3, #8]
 314 00c8 9142     		cmp	r1, r2
 315 00ca 02D3     		bcc	.L20
 316              	.L19:
 317              		.loc 2 624 0
 318 00cc 1B68     		ldr	r3, [r3]
 319              	.LVL25:
 320              		.loc 2 625 0
 321 00ce 9E42     		cmp	r6, r3
 322 00d0 F9D1     		bne	.L16
 323              	.L20:
 324              		.loc 2 627 0
 325 00d2 5A68     		ldr	r2, [r3, #4]
 326 00d4 4260     		str	r2, [r0, #4]
 327              		.loc 2 626 0
 328 00d6 0360     		str	r3, [r0]
 329              		.loc 2 628 0
 330 00d8 5860     		str	r0, [r3, #4]
 331 00da 1060     		str	r0, [r2]
 332              	.LBE103:
 333              	.LBE102:
 334              		.loc 1 175 0
 335 00dc B068     		ldr	r0, [r6, #8]
 336              	.LVL26:
 337              		.loc 1 165 0
 338 00de A268     		ldr	r2, [r4, #8]
 339 00e0 8368     		ldr	r3, [r0, #8]
 340              	.LVL27:
 341 00e2 9342     		cmp	r3, r2
 342 00e4 9BD3     		bcc	.L17
ARM GAS  C:\Users\jo\AppData\Local\Temp\cc07zeMk.s 			page 7


 343 00e6 A2E7     		b	.L12
 344              	.LVL28:
 345              	.L36:
 346              	.LBE105:
 347              		.loc 1 143 0 discriminator 1
 348 00e8 0248     		ldr	r0, .L38+4
 349 00ea FFF7FEFF 		bl	chSysHalt
 350              	.LVL29:
 351 00ee 8FE7     		b	.L9
 352              	.L39:
 353              		.align	2
 354              	.L38:
 355 00f0 00000000 		.word	ch
 356 00f4 00000000 		.word	.LANCHOR1
 357              		.cfi_endproc
 358              	.LFE228:
 359              		.size	chMtxLockS, .-chMtxLockS
 360 00f8 AFF30080 		.section	.text.chMtxLock,"ax",%progbits
 360      AFF30080 
 361              		.align	2
 362              		.p2align 4,,15
 363              		.global	chMtxLock
 364              		.thumb
 365              		.thumb_func
 366              		.type	chMtxLock, %function
 367              	chMtxLock:
 368              	.LFB227:
 369              		.loc 1 123 0
 370              		.cfi_startproc
 371              		@ args = 0, pretend = 0, frame = 0
 372              		@ frame_needed = 0, uses_anonymous_args = 0
 373              	.LVL30:
 374 0000 10B5     		push	{r4, lr}
 375              		.cfi_def_cfa_offset 8
 376              		.cfi_offset 4, -8
 377              		.cfi_offset 14, -4
 378              	.LBB116:
 379              	.LBB117:
 380              	.LBB118:
 381              	.LBB119:
 382              	.LBB120:
 383              		.file 3 "../../../os/ext/CMSIS/include/core_cmFunc.h"
 384              		.loc 3 546 0
 385 0002 2023     		movs	r3, #32
 386              	.LBE120:
 387              	.LBE119:
 388              	.LBE118:
 389              	.LBE117:
 390              	.LBE116:
 391              		.loc 1 123 0
 392 0004 0446     		mov	r4, r0
 393              	.LBB125:
 394              	.LBB124:
 395              	.LBB123:
 396              	.LBB122:
 397              	.LBB121:
 398              		.loc 3 546 0
ARM GAS  C:\Users\jo\AppData\Local\Temp\cc07zeMk.s 			page 8


 399              	@ 546 "../../../os/ext/CMSIS/include/core_cmFunc.h" 1
 400 0006 83F31188 		MSR basepri, r3
 401              	@ 0 "" 2
 402              		.thumb
 403              	.LBE121:
 404              	.LBE122:
 405              	.LBE123:
 406              		.file 4 "../../../os/rt/include/chsys.h"
 407              		.loc 4 300 0
 408 000a FFF7FEFF 		bl	_stats_start_measure_crit_thd
 409              	.LVL31:
 410              		.loc 4 301 0
 411 000e FFF7FEFF 		bl	_dbg_check_lock
 412              	.LVL32:
 413              	.LBE124:
 414              	.LBE125:
 415              		.loc 1 126 0
 416 0012 2046     		mov	r0, r4
 417 0014 FFF7FEFF 		bl	chMtxLockS
 418              	.LVL33:
 419              	.LBB126:
 420              	.LBB127:
 421              		.loc 4 311 0
 422 0018 FFF7FEFF 		bl	_dbg_check_unlock
 423              	.LVL34:
 424              		.loc 4 312 0
 425 001c FFF7FEFF 		bl	_stats_stop_measure_crit_thd
 426              	.LVL35:
 427              		.loc 4 318 0
 428 0020 064B     		ldr	r3, .L43
 429 0022 9A69     		ldr	r2, [r3, #24]
 430 0024 1B68     		ldr	r3, [r3]
 431 0026 9268     		ldr	r2, [r2, #8]
 432 0028 9B68     		ldr	r3, [r3, #8]
 433 002a 9A42     		cmp	r2, r3
 434 002c 02D2     		bcs	.L41
 435 002e 0448     		ldr	r0, .L43+4
 436 0030 FFF7FEFF 		bl	chSysHalt
 437              	.LVL36:
 438              	.L41:
 439              	.LBB128:
 440              	.LBB129:
 441              	.LBB130:
 442              		.loc 3 546 0
 443 0034 0023     		movs	r3, #0
 444              	@ 546 "../../../os/ext/CMSIS/include/core_cmFunc.h" 1
 445 0036 83F31188 		MSR basepri, r3
 446              	@ 0 "" 2
 447              		.thumb
 448 003a 10BD     		pop	{r4, pc}
 449              	.LVL37:
 450              	.L44:
 451              		.align	2
 452              	.L43:
 453 003c 00000000 		.word	ch
 454 0040 00000000 		.word	.LANCHOR2
 455              	.LBE130:
ARM GAS  C:\Users\jo\AppData\Local\Temp\cc07zeMk.s 			page 9


 456              	.LBE129:
 457              	.LBE128:
 458              	.LBE127:
 459              	.LBE126:
 460              		.cfi_endproc
 461              	.LFE227:
 462              		.size	chMtxLock, .-chMtxLock
 463 0044 AFF30080 		.section	.text.chMtxTryLockS,"ax",%progbits
 463      AFF30080 
 463      AFF30080 
 464              		.align	2
 465              		.p2align 4,,15
 466              		.global	chMtxTryLockS
 467              		.thumb
 468              		.thumb_func
 469              		.type	chMtxTryLockS, %function
 470              	chMtxTryLockS:
 471              	.LFB230:
 472              		.loc 1 277 0
 473              		.cfi_startproc
 474              		@ args = 0, pretend = 0, frame = 0
 475              		@ frame_needed = 0, uses_anonymous_args = 0
 476              	.LVL38:
 477 0000 10B5     		push	{r4, lr}
 478              		.cfi_def_cfa_offset 8
 479              		.cfi_offset 4, -8
 480              		.cfi_offset 14, -4
 481              		.loc 1 277 0
 482 0002 0446     		mov	r4, r0
 483              		.loc 1 279 0
 484 0004 FFF7FEFF 		bl	chDbgCheckClassS
 485              	.LVL39:
 486              		.loc 1 280 0
 487 0008 5CB1     		cbz	r4, .L50
 488              	.L46:
 489              		.loc 1 282 0
 490 000a A368     		ldr	r3, [r4, #8]
 491 000c 0BB1     		cbz	r3, .L51
 492              		.loc 1 292 0
 493 000e 0020     		movs	r0, #0
 494              		.loc 1 304 0
 495 0010 10BD     		pop	{r4, pc}
 496              	.LVL40:
 497              	.L51:
 498              	.LBB133:
 499              	.LBB134:
 500              		.loc 1 300 0
 501 0012 064B     		ldr	r3, .L52
 502 0014 9B69     		ldr	r3, [r3, #24]
 503 0016 A360     		str	r3, [r4, #8]
 504              		.loc 1 301 0
 505 0018 DA6B     		ldr	r2, [r3, #60]
 506 001a E260     		str	r2, [r4, #12]
 507              		.loc 1 302 0
 508 001c 0120     		movs	r0, #1
 509 001e DC63     		str	r4, [r3, #60]
 510 0020 10BD     		pop	{r4, pc}
ARM GAS  C:\Users\jo\AppData\Local\Temp\cc07zeMk.s 			page 10


 511              	.LVL41:
 512              	.L50:
 513              	.LBE134:
 514              	.LBE133:
 515              		.loc 1 280 0 discriminator 1
 516 0022 0348     		ldr	r0, .L52+4
 517 0024 FFF7FEFF 		bl	chSysHalt
 518              	.LVL42:
 519 0028 EFE7     		b	.L46
 520              	.L53:
 521 002a 00BF     		.align	2
 522              	.L52:
 523 002c 00000000 		.word	ch
 524 0030 00000000 		.word	.LANCHOR3
 525              		.cfi_endproc
 526              	.LFE230:
 527              		.size	chMtxTryLockS, .-chMtxTryLockS
 528 0034 AFF30080 		.section	.text.chMtxTryLock,"ax",%progbits
 528      AFF30080 
 528      AFF30080 
 529              		.align	2
 530              		.p2align 4,,15
 531              		.global	chMtxTryLock
 532              		.thumb
 533              		.thumb_func
 534              		.type	chMtxTryLock, %function
 535              	chMtxTryLock:
 536              	.LFB229:
 537              		.loc 1 250 0
 538              		.cfi_startproc
 539              		@ args = 0, pretend = 0, frame = 0
 540              		@ frame_needed = 0, uses_anonymous_args = 0
 541              	.LVL43:
 542 0000 10B5     		push	{r4, lr}
 543              		.cfi_def_cfa_offset 8
 544              		.cfi_offset 4, -8
 545              		.cfi_offset 14, -4
 546              	.LBB145:
 547              	.LBB146:
 548              	.LBB147:
 549              	.LBB148:
 550              	.LBB149:
 551              		.loc 3 546 0
 552 0002 2023     		movs	r3, #32
 553              	.LBE149:
 554              	.LBE148:
 555              	.LBE147:
 556              	.LBE146:
 557              	.LBE145:
 558              		.loc 1 250 0
 559 0004 0446     		mov	r4, r0
 560              	.LBB154:
 561              	.LBB153:
 562              	.LBB152:
 563              	.LBB151:
 564              	.LBB150:
 565              		.loc 3 546 0
ARM GAS  C:\Users\jo\AppData\Local\Temp\cc07zeMk.s 			page 11


 566              	@ 546 "../../../os/ext/CMSIS/include/core_cmFunc.h" 1
 567 0006 83F31188 		MSR basepri, r3
 568              	@ 0 "" 2
 569              		.thumb
 570              	.LBE150:
 571              	.LBE151:
 572              	.LBE152:
 573              		.loc 4 300 0
 574 000a FFF7FEFF 		bl	_stats_start_measure_crit_thd
 575              	.LVL44:
 576              		.loc 4 301 0
 577 000e FFF7FEFF 		bl	_dbg_check_lock
 578              	.LVL45:
 579              	.LBE153:
 580              	.LBE154:
 581              		.loc 1 254 0
 582 0012 2046     		mov	r0, r4
 583 0014 FFF7FEFF 		bl	chMtxTryLockS
 584              	.LVL46:
 585 0018 0446     		mov	r4, r0
 586              	.LVL47:
 587              	.LBB155:
 588              	.LBB156:
 589              		.loc 4 311 0
 590 001a FFF7FEFF 		bl	_dbg_check_unlock
 591              	.LVL48:
 592              		.loc 4 312 0
 593 001e FFF7FEFF 		bl	_stats_stop_measure_crit_thd
 594              	.LVL49:
 595              		.loc 4 318 0
 596 0022 074B     		ldr	r3, .L57
 597 0024 9A69     		ldr	r2, [r3, #24]
 598 0026 1B68     		ldr	r3, [r3]
 599 0028 9268     		ldr	r2, [r2, #8]
 600 002a 9B68     		ldr	r3, [r3, #8]
 601 002c 9A42     		cmp	r2, r3
 602 002e 02D2     		bcs	.L55
 603 0030 0448     		ldr	r0, .L57+4
 604 0032 FFF7FEFF 		bl	chSysHalt
 605              	.LVL50:
 606              	.L55:
 607              	.LBB157:
 608              	.LBB158:
 609              	.LBB159:
 610              		.loc 3 546 0
 611 0036 0023     		movs	r3, #0
 612              	@ 546 "../../../os/ext/CMSIS/include/core_cmFunc.h" 1
 613 0038 83F31188 		MSR basepri, r3
 614              	@ 0 "" 2
 615              		.thumb
 616              	.LBE159:
 617              	.LBE158:
 618              	.LBE157:
 619              	.LBE156:
 620              	.LBE155:
 621              		.loc 1 258 0
 622 003c 2046     		mov	r0, r4
ARM GAS  C:\Users\jo\AppData\Local\Temp\cc07zeMk.s 			page 12


 623 003e 10BD     		pop	{r4, pc}
 624              	.LVL51:
 625              	.L58:
 626              		.align	2
 627              	.L57:
 628 0040 00000000 		.word	ch
 629 0044 00000000 		.word	.LANCHOR2
 630              		.cfi_endproc
 631              	.LFE229:
 632              		.size	chMtxTryLock, .-chMtxTryLock
 633 0048 AFF30080 		.section	.text.chMtxUnlock,"ax",%progbits
 633      AFF30080 
 634              		.align	2
 635              		.p2align 4,,15
 636              		.global	chMtxUnlock
 637              		.thumb
 638              		.thumb_func
 639              		.type	chMtxUnlock, %function
 640              	chMtxUnlock:
 641              	.LFB231:
 642              		.loc 1 318 0
 643              		.cfi_startproc
 644              		@ args = 0, pretend = 0, frame = 0
 645              		@ frame_needed = 0, uses_anonymous_args = 0
 646              	.LVL52:
 647 0000 2DE9F041 		push	{r4, r5, r6, r7, r8, lr}
 648              		.cfi_def_cfa_offset 24
 649              		.cfi_offset 4, -24
 650              		.cfi_offset 5, -20
 651              		.cfi_offset 6, -16
 652              		.cfi_offset 7, -12
 653              		.cfi_offset 8, -8
 654              		.cfi_offset 14, -4
 655              		.loc 1 319 0
 656 0004 DFF8C480 		ldr	r8, .L77+8
 657              		.loc 1 322 0
 658 0008 0646     		mov	r6, r0
 659              		.loc 1 319 0
 660 000a D8F81870 		ldr	r7, [r8, #24]
 661              	.LVL53:
 662              		.loc 1 322 0
 663 000e 0028     		cmp	r0, #0
 664 0010 4FD0     		beq	.L75
 665              	.LVL54:
 666              	.L60:
 667              	.LBB181:
 668              	.LBB182:
 669              	.LBB183:
 670              	.LBB184:
 671              	.LBB185:
 672              		.loc 3 546 0
 673 0012 2023     		movs	r3, #32
 674              	@ 546 "../../../os/ext/CMSIS/include/core_cmFunc.h" 1
 675 0014 83F31188 		MSR basepri, r3
 676              	@ 0 "" 2
 677              		.thumb
 678              	.LBE185:
ARM GAS  C:\Users\jo\AppData\Local\Temp\cc07zeMk.s 			page 13


 679              	.LBE184:
 680              	.LBE183:
 681              		.loc 4 300 0
 682 0018 FFF7FEFF 		bl	_stats_start_measure_crit_thd
 683              	.LVL55:
 684              		.loc 4 301 0
 685 001c FFF7FEFF 		bl	_dbg_check_lock
 686              	.LVL56:
 687              	.LBE182:
 688              	.LBE181:
 689              		.loc 1 326 0
 690 0020 FB6B     		ldr	r3, [r7, #60]
 691 0022 002B     		cmp	r3, #0
 692 0024 49D0     		beq	.L76
 693              	.L61:
 694              		.loc 1 327 0
 695 0026 9A68     		ldr	r2, [r3, #8]
 696 0028 BA42     		cmp	r2, r7
 697 002a 03D0     		beq	.L62
 698              		.loc 1 327 0 is_stmt 0 discriminator 1
 699 002c 2548     		ldr	r0, .L77
 700 002e FFF7FEFF 		bl	chSysHalt
 701              	.LVL57:
 702 0032 FB6B     		ldr	r3, [r7, #60]
 703              	.L62:
 704              		.loc 1 334 0 is_stmt 1
 705 0034 9E42     		cmp	r6, r3
 706 0036 02D0     		beq	.L63
 707              		.loc 1 334 0 is_stmt 0 discriminator 1
 708 0038 2248     		ldr	r0, .L77
 709 003a FFF7FEFF 		bl	chSysHalt
 710              	.LVL58:
 711              	.L63:
 712              		.loc 1 339 0 is_stmt 1
 713 003e F368     		ldr	r3, [r6, #12]
 714 0040 FB63     		str	r3, [r7, #60]
 715              	.LVL59:
 716              	.LBB186:
 717              	.LBB187:
 718              		.file 5 "../../../os/rt/include/chmtx.h"
 719              		.loc 5 131 0
 720 0042 FFF7FEFF 		bl	chDbgCheckClassS
 721              	.LVL60:
 722              	.LBB188:
 723              	.LBB189:
 724              		.loc 2 600 0
 725 0046 3368     		ldr	r3, [r6]
 726              	.LBE189:
 727              	.LBE188:
 728              	.LBE187:
 729              	.LBE186:
 730              		.loc 1 342 0
 731 0048 9E42     		cmp	r6, r3
 732 004a 2FD0     		beq	.L64
 733              	.LBB190:
 734              		.loc 1 348 0
 735 004c FC6B     		ldr	r4, [r7, #60]
ARM GAS  C:\Users\jo\AppData\Local\Temp\cc07zeMk.s 			page 14


 736              		.loc 1 347 0
 737 004e 3D6C     		ldr	r5, [r7, #64]
 738              	.LVL61:
 739              		.loc 1 349 0
 740 0050 64B1     		cbz	r4, .L65
 741              	.L67:
 742              	.LVL62:
 743              	.LBB191:
 744              	.LBB192:
 745              		.loc 5 131 0
 746 0052 FFF7FEFF 		bl	chDbgCheckClassS
 747              	.LVL63:
 748              	.LBB193:
 749              	.LBB194:
 750              		.loc 2 600 0
 751 0056 2368     		ldr	r3, [r4]
 752              	.LBE194:
 753              	.LBE193:
 754              	.LBE192:
 755              	.LBE191:
 756              		.loc 1 353 0
 757 0058 9C42     		cmp	r4, r3
 758 005a 03D0     		beq	.L66
 759              		.loc 1 354 0 discriminator 1
 760 005c 9B68     		ldr	r3, [r3, #8]
 761 005e 9D42     		cmp	r5, r3
 762 0060 38BF     		it	cc
 763 0062 1D46     		movcc	r5, r3
 764              	.LVL64:
 765              	.L66:
 766              		.loc 1 357 0
 767 0064 E468     		ldr	r4, [r4, #12]
 768              	.LVL65:
 769              		.loc 1 349 0
 770 0066 002C     		cmp	r4, #0
 771 0068 F3D1     		bne	.L67
 772 006a 3368     		ldr	r3, [r6]
 773              	.L65:
 774              	.LBB195:
 775              	.LBB196:
 776              		.loc 2 641 0
 777 006c 1A68     		ldr	r2, [r3]
 778              	.LBE196:
 779              	.LBE195:
 780              		.loc 1 371 0
 781 006e DC6B     		ldr	r4, [r3, #60]
 782              	.LVL66:
 783              		.loc 1 362 0
 784 0070 BD60     		str	r5, [r7, #8]
 785              	.LVL67:
 786              		.loc 1 373 0
 787 0072 1846     		mov	r0, r3
 788              	.LBB199:
 789              	.LBB197:
 790              		.loc 2 641 0
 791 0074 3260     		str	r2, [r6]
 792              	.LBE197:
ARM GAS  C:\Users\jo\AppData\Local\Temp\cc07zeMk.s 			page 15


 793              	.LBE199:
 794              		.loc 1 373 0
 795 0076 0021     		movs	r1, #0
 796              	.LBB200:
 797              	.LBB198:
 798              		.loc 2 641 0
 799 0078 5660     		str	r6, [r2, #4]
 800              	.LBE198:
 801              	.LBE200:
 802              		.loc 1 370 0
 803 007a B360     		str	r3, [r6, #8]
 804              		.loc 1 371 0
 805 007c F460     		str	r4, [r6, #12]
 806              		.loc 1 372 0
 807 007e DE63     		str	r6, [r3, #60]
 808              		.loc 1 373 0
 809 0080 FFF7FEFF 		bl	chSchWakeupS
 810              	.LVL68:
 811              	.L68:
 812              	.LBE190:
 813              	.LBB201:
 814              	.LBB202:
 815              		.loc 4 311 0
 816 0084 FFF7FEFF 		bl	_dbg_check_unlock
 817              	.LVL69:
 818              		.loc 4 312 0
 819 0088 FFF7FEFF 		bl	_stats_stop_measure_crit_thd
 820              	.LVL70:
 821              		.loc 4 318 0
 822 008c D8F81820 		ldr	r2, [r8, #24]
 823 0090 D8F80030 		ldr	r3, [r8]
 824 0094 9268     		ldr	r2, [r2, #8]
 825 0096 9B68     		ldr	r3, [r3, #8]
 826 0098 9A42     		cmp	r2, r3
 827 009a 02D2     		bcs	.L69
 828 009c 0A48     		ldr	r0, .L77+4
 829 009e FFF7FEFF 		bl	chSysHalt
 830              	.LVL71:
 831              	.L69:
 832              	.LBB203:
 833              	.LBB204:
 834              	.LBB205:
 835              		.loc 3 546 0
 836 00a2 0023     		movs	r3, #0
 837              	@ 546 "../../../os/ext/CMSIS/include/core_cmFunc.h" 1
 838 00a4 83F31188 		MSR basepri, r3
 839              	@ 0 "" 2
 840              		.thumb
 841 00a8 BDE8F081 		pop	{r4, r5, r6, r7, r8, pc}
 842              	.LVL72:
 843              	.L64:
 844              	.LBE205:
 845              	.LBE204:
 846              	.LBE203:
 847              	.LBE202:
 848              	.LBE201:
 849              		.loc 1 376 0
ARM GAS  C:\Users\jo\AppData\Local\Temp\cc07zeMk.s 			page 16


 850 00ac 0023     		movs	r3, #0
 851 00ae B360     		str	r3, [r6, #8]
 852 00b0 E8E7     		b	.L68
 853              	.LVL73:
 854              	.L75:
 855              		.loc 1 322 0 discriminator 1
 856 00b2 0448     		ldr	r0, .L77
 857              	.LVL74:
 858 00b4 FFF7FEFF 		bl	chSysHalt
 859              	.LVL75:
 860 00b8 ABE7     		b	.L60
 861              	.LVL76:
 862              	.L76:
 863              		.loc 1 326 0 discriminator 1
 864 00ba 0248     		ldr	r0, .L77
 865 00bc FFF7FEFF 		bl	chSysHalt
 866              	.LVL77:
 867 00c0 FB6B     		ldr	r3, [r7, #60]
 868 00c2 B0E7     		b	.L61
 869              	.L78:
 870              		.align	2
 871              	.L77:
 872 00c4 00000000 		.word	.LANCHOR4
 873 00c8 00000000 		.word	.LANCHOR2
 874 00cc 00000000 		.word	ch
 875              		.cfi_endproc
 876              	.LFE231:
 877              		.size	chMtxUnlock, .-chMtxUnlock
 878              		.section	.text.chMtxUnlockS,"ax",%progbits
 879              		.align	2
 880              		.p2align 4,,15
 881              		.global	chMtxUnlockS
 882              		.thumb
 883              		.thumb_func
 884              		.type	chMtxUnlockS, %function
 885              	chMtxUnlockS:
 886              	.LFB232:
 887              		.loc 1 399 0
 888              		.cfi_startproc
 889              		@ args = 0, pretend = 0, frame = 0
 890              		@ frame_needed = 0, uses_anonymous_args = 0
 891              	.LVL78:
 892 0000 F8B5     		push	{r3, r4, r5, r6, r7, lr}
 893              		.cfi_def_cfa_offset 24
 894              		.cfi_offset 3, -24
 895              		.cfi_offset 4, -20
 896              		.cfi_offset 5, -16
 897              		.cfi_offset 6, -12
 898              		.cfi_offset 7, -8
 899              		.cfi_offset 14, -4
 900              		.loc 1 400 0
 901 0002 234B     		ldr	r3, .L95
 902              		.loc 1 399 0
 903 0004 0646     		mov	r6, r0
 904              		.loc 1 400 0
 905 0006 9F69     		ldr	r7, [r3, #24]
 906              	.LVL79:
ARM GAS  C:\Users\jo\AppData\Local\Temp\cc07zeMk.s 			page 17


 907              		.loc 1 403 0
 908 0008 FFF7FEFF 		bl	chDbgCheckClassS
 909              	.LVL80:
 910              		.loc 1 404 0
 911 000c 002E     		cmp	r6, #0
 912 000e 35D0     		beq	.L93
 913              	.L80:
 914              		.loc 1 406 0
 915 0010 FB6B     		ldr	r3, [r7, #60]
 916 0012 002B     		cmp	r3, #0
 917 0014 36D0     		beq	.L94
 918              	.L81:
 919              		.loc 1 407 0
 920 0016 9A68     		ldr	r2, [r3, #8]
 921 0018 BA42     		cmp	r2, r7
 922 001a 03D0     		beq	.L82
 923              		.loc 1 407 0 is_stmt 0 discriminator 1
 924 001c 1D48     		ldr	r0, .L95+4
 925 001e FFF7FEFF 		bl	chSysHalt
 926              	.LVL81:
 927 0022 FB6B     		ldr	r3, [r7, #60]
 928              	.L82:
 929              		.loc 1 414 0 is_stmt 1
 930 0024 9E42     		cmp	r6, r3
 931 0026 02D0     		beq	.L83
 932              		.loc 1 414 0 is_stmt 0 discriminator 1
 933 0028 1A48     		ldr	r0, .L95+4
 934 002a FFF7FEFF 		bl	chSysHalt
 935              	.LVL82:
 936              	.L83:
 937              		.loc 1 419 0 is_stmt 1
 938 002e F368     		ldr	r3, [r6, #12]
 939 0030 FB63     		str	r3, [r7, #60]
 940              	.LVL83:
 941              	.LBB206:
 942              	.LBB207:
 943              		.loc 5 131 0
 944 0032 FFF7FEFF 		bl	chDbgCheckClassS
 945              	.LVL84:
 946              	.LBB208:
 947              	.LBB209:
 948              		.loc 2 600 0
 949 0036 3368     		ldr	r3, [r6]
 950              	.LBE209:
 951              	.LBE208:
 952              	.LBE207:
 953              	.LBE206:
 954              		.loc 1 422 0
 955 0038 9E42     		cmp	r6, r3
 956 003a 1CD0     		beq	.L84
 957              	.LBB210:
 958              		.loc 1 428 0
 959 003c FC6B     		ldr	r4, [r7, #60]
 960              		.loc 1 427 0
 961 003e 3D6C     		ldr	r5, [r7, #64]
 962              	.LVL85:
 963              		.loc 1 429 0
ARM GAS  C:\Users\jo\AppData\Local\Temp\cc07zeMk.s 			page 18


 964 0040 64B1     		cbz	r4, .L85
 965              	.L87:
 966              	.LVL86:
 967              	.LBB211:
 968              	.LBB212:
 969              		.loc 5 131 0
 970 0042 FFF7FEFF 		bl	chDbgCheckClassS
 971              	.LVL87:
 972              	.LBB213:
 973              	.LBB214:
 974              		.loc 2 600 0
 975 0046 2368     		ldr	r3, [r4]
 976              	.LBE214:
 977              	.LBE213:
 978              	.LBE212:
 979              	.LBE211:
 980              		.loc 1 433 0
 981 0048 9C42     		cmp	r4, r3
 982 004a 03D0     		beq	.L86
 983              		.loc 1 434 0 discriminator 1
 984 004c 9B68     		ldr	r3, [r3, #8]
 985 004e 9D42     		cmp	r5, r3
 986 0050 38BF     		it	cc
 987 0052 1D46     		movcc	r5, r3
 988              	.LVL88:
 989              	.L86:
 990              		.loc 1 437 0
 991 0054 E468     		ldr	r4, [r4, #12]
 992              	.LVL89:
 993              		.loc 1 429 0
 994 0056 002C     		cmp	r4, #0
 995 0058 F3D1     		bne	.L87
 996 005a 3368     		ldr	r3, [r6]
 997              	.L85:
 998              	.LBB215:
 999              	.LBB216:
 1000              		.loc 2 641 0
 1001 005c 1A68     		ldr	r2, [r3]
 1002              	.LBE216:
 1003              	.LBE215:
 1004              		.loc 1 451 0
 1005 005e D96B     		ldr	r1, [r3, #60]
 1006              		.loc 1 442 0
 1007 0060 BD60     		str	r5, [r7, #8]
 1008              	.LVL90:
 1009              		.loc 1 453 0
 1010 0062 1846     		mov	r0, r3
 1011              	.LBB218:
 1012              	.LBB217:
 1013              		.loc 2 641 0
 1014 0064 3260     		str	r2, [r6]
 1015 0066 5660     		str	r6, [r2, #4]
 1016              	.LBE217:
 1017              	.LBE218:
 1018              		.loc 1 450 0
 1019 0068 B360     		str	r3, [r6, #8]
 1020              		.loc 1 451 0
ARM GAS  C:\Users\jo\AppData\Local\Temp\cc07zeMk.s 			page 19


 1021 006a F160     		str	r1, [r6, #12]
 1022              		.loc 1 452 0
 1023 006c DE63     		str	r6, [r3, #60]
 1024              	.LBE210:
 1025              		.loc 1 461 0
 1026 006e BDE8F840 		pop	{r3, r4, r5, r6, r7, lr}
 1027              		.cfi_remember_state
 1028              		.cfi_restore 14
 1029              		.cfi_restore 7
 1030              		.cfi_restore 6
 1031              		.cfi_restore 5
 1032              		.cfi_restore 4
 1033              		.cfi_restore 3
 1034              		.cfi_def_cfa_offset 0
 1035              	.LVL91:
 1036              	.LBB219:
 1037              		.loc 1 453 0
 1038 0072 FFF7FEBF 		b	chSchReadyI
 1039              	.LVL92:
 1040              	.L84:
 1041              		.cfi_restore_state
 1042              	.LBE219:
 1043              		.loc 1 456 0
 1044 0076 0023     		movs	r3, #0
 1045 0078 B360     		str	r3, [r6, #8]
 1046 007a F8BD     		pop	{r3, r4, r5, r6, r7, pc}
 1047              	.LVL93:
 1048              	.L93:
 1049              		.loc 1 404 0 discriminator 1
 1050 007c 0548     		ldr	r0, .L95+4
 1051 007e FFF7FEFF 		bl	chSysHalt
 1052              	.LVL94:
 1053 0082 C5E7     		b	.L80
 1054              	.L94:
 1055              		.loc 1 406 0 discriminator 1
 1056 0084 0348     		ldr	r0, .L95+4
 1057 0086 FFF7FEFF 		bl	chSysHalt
 1058              	.LVL95:
 1059 008a FB6B     		ldr	r3, [r7, #60]
 1060 008c C3E7     		b	.L81
 1061              	.L96:
 1062 008e 00BF     		.align	2
 1063              	.L95:
 1064 0090 00000000 		.word	ch
 1065 0094 00000000 		.word	.LANCHOR5
 1066              		.cfi_endproc
 1067              	.LFE232:
 1068              		.size	chMtxUnlockS, .-chMtxUnlockS
 1069 0098 AFF30080 		.section	.text.chMtxUnlockAll,"ax",%progbits
 1069      AFF30080 
 1070              		.align	2
 1071              		.p2align 4,,15
 1072              		.global	chMtxUnlockAll
 1073              		.thumb
 1074              		.thumb_func
 1075              		.type	chMtxUnlockAll, %function
 1076              	chMtxUnlockAll:
ARM GAS  C:\Users\jo\AppData\Local\Temp\cc07zeMk.s 			page 20


 1077              	.LFB233:
 1078              		.loc 1 474 0
 1079              		.cfi_startproc
 1080              		@ args = 0, pretend = 0, frame = 0
 1081              		@ frame_needed = 0, uses_anonymous_args = 0
 1082 0000 F8B5     		push	{r3, r4, r5, r6, r7, lr}
 1083              		.cfi_def_cfa_offset 24
 1084              		.cfi_offset 3, -24
 1085              		.cfi_offset 4, -20
 1086              		.cfi_offset 5, -16
 1087              		.cfi_offset 6, -12
 1088              		.cfi_offset 7, -8
 1089              		.cfi_offset 14, -4
 1090              		.loc 1 475 0
 1091 0002 1C4E     		ldr	r6, .L110
 1092              	.LBB238:
 1093              	.LBB239:
 1094              	.LBB240:
 1095              	.LBB241:
 1096              	.LBB242:
 1097              		.loc 3 546 0
 1098 0004 2023     		movs	r3, #32
 1099              	.LBE242:
 1100              	.LBE241:
 1101              	.LBE240:
 1102              	.LBE239:
 1103              	.LBE238:
 1104              		.loc 1 475 0
 1105 0006 B569     		ldr	r5, [r6, #24]
 1106              	.LVL96:
 1107              	.LBB247:
 1108              	.LBB246:
 1109              	.LBB245:
 1110              	.LBB244:
 1111              	.LBB243:
 1112              		.loc 3 546 0
 1113              	@ 546 "../../../os/ext/CMSIS/include/core_cmFunc.h" 1
 1114 0008 83F31188 		MSR basepri, r3
 1115              	@ 0 "" 2
 1116              		.thumb
 1117              	.LBE243:
 1118              	.LBE244:
 1119              	.LBE245:
 1120              		.loc 4 300 0
 1121 000c FFF7FEFF 		bl	_stats_start_measure_crit_thd
 1122              	.LVL97:
 1123              		.loc 4 301 0
 1124 0010 FFF7FEFF 		bl	_dbg_check_lock
 1125              	.LVL98:
 1126              	.LBE246:
 1127              	.LBE247:
 1128              		.loc 1 478 0
 1129 0014 EC6B     		ldr	r4, [r5, #60]
 1130 0016 E4B1     		cbz	r4, .L98
 1131              	.LBB248:
 1132              		.loc 1 496 0
 1133 0018 0027     		movs	r7, #0
ARM GAS  C:\Users\jo\AppData\Local\Temp\cc07zeMk.s 			page 21


 1134 001a 0AE0     		b	.L101
 1135              	.LVL99:
 1136              	.L109:
 1137              	.LBB249:
 1138              	.LBB250:
 1139              	.LBB251:
 1140              		.loc 2 641 0
 1141 001c 1A68     		ldr	r2, [r3]
 1142              	.LBE251:
 1143              	.LBE250:
 1144              		.loc 1 488 0
 1145 001e D96B     		ldr	r1, [r3, #60]
 1146              	.LBB253:
 1147              	.LBB252:
 1148              		.loc 2 641 0
 1149 0020 2260     		str	r2, [r4]
 1150 0022 5460     		str	r4, [r2, #4]
 1151              	.LBE252:
 1152              	.LBE253:
 1153              		.loc 1 487 0
 1154 0024 A360     		str	r3, [r4, #8]
 1155              		.loc 1 488 0
 1156 0026 E160     		str	r1, [r4, #12]
 1157              		.loc 1 489 0
 1158 0028 DC63     		str	r4, [r3, #60]
 1159              		.loc 1 490 0
 1160 002a FFF7FEFF 		bl	chSchReadyI
 1161              	.LVL100:
 1162              	.LBE249:
 1163              	.LBE248:
 1164              		.loc 1 498 0
 1165 002e EC6B     		ldr	r4, [r5, #60]
 1166              	.LVL101:
 1167 0030 5CB1     		cbz	r4, .L108
 1168              	.L101:
 1169              	.LVL102:
 1170              	.LBB259:
 1171              		.loc 1 481 0
 1172 0032 E368     		ldr	r3, [r4, #12]
 1173 0034 EB63     		str	r3, [r5, #60]
 1174              	.LVL103:
 1175              	.LBB254:
 1176              	.LBB255:
 1177              		.loc 5 131 0
 1178 0036 FFF7FEFF 		bl	chDbgCheckClassS
 1179              	.LVL104:
 1180              	.LBB256:
 1181              	.LBB257:
 1182              		.loc 2 600 0
 1183 003a 2368     		ldr	r3, [r4]
 1184              	.LVL105:
 1185              	.LBE257:
 1186              	.LBE256:
 1187              	.LBE255:
 1188              	.LBE254:
 1189              		.loc 1 482 0
 1190 003c 9C42     		cmp	r4, r3
ARM GAS  C:\Users\jo\AppData\Local\Temp\cc07zeMk.s 			page 22


 1191              	.LBB258:
 1192              		.loc 1 490 0
 1193 003e 1846     		mov	r0, r3
 1194              	.LBE258:
 1195              		.loc 1 482 0
 1196 0040 ECD1     		bne	.L109
 1197              		.loc 1 496 0
 1198 0042 A760     		str	r7, [r4, #8]
 1199              	.LBE259:
 1200              		.loc 1 498 0
 1201 0044 EC6B     		ldr	r4, [r5, #60]
 1202              	.LVL106:
 1203 0046 002C     		cmp	r4, #0
 1204 0048 F3D1     		bne	.L101
 1205              	.LVL107:
 1206              	.L108:
 1207              		.loc 1 499 0
 1208 004a 2B6C     		ldr	r3, [r5, #64]
 1209 004c AB60     		str	r3, [r5, #8]
 1210              		.loc 1 500 0
 1211 004e FFF7FEFF 		bl	chSchRescheduleS
 1212              	.LVL108:
 1213              	.L98:
 1214              	.LBB260:
 1215              	.LBB261:
 1216              		.loc 4 311 0
 1217 0052 FFF7FEFF 		bl	_dbg_check_unlock
 1218              	.LVL109:
 1219              		.loc 4 312 0
 1220 0056 FFF7FEFF 		bl	_stats_stop_measure_crit_thd
 1221              	.LVL110:
 1222              		.loc 4 318 0
 1223 005a B269     		ldr	r2, [r6, #24]
 1224 005c 3368     		ldr	r3, [r6]
 1225 005e 9268     		ldr	r2, [r2, #8]
 1226 0060 9B68     		ldr	r3, [r3, #8]
 1227 0062 9A42     		cmp	r2, r3
 1228 0064 02D2     		bcs	.L102
 1229 0066 0448     		ldr	r0, .L110+4
 1230 0068 FFF7FEFF 		bl	chSysHalt
 1231              	.LVL111:
 1232              	.L102:
 1233              	.LBB262:
 1234              	.LBB263:
 1235              	.LBB264:
 1236              		.loc 3 546 0
 1237 006c 0023     		movs	r3, #0
 1238              	@ 546 "../../../os/ext/CMSIS/include/core_cmFunc.h" 1
 1239 006e 83F31188 		MSR basepri, r3
 1240              	@ 0 "" 2
 1241              		.thumb
 1242 0072 F8BD     		pop	{r3, r4, r5, r6, r7, pc}
 1243              	.LVL112:
 1244              	.L111:
 1245              		.align	2
 1246              	.L110:
 1247 0074 00000000 		.word	ch
ARM GAS  C:\Users\jo\AppData\Local\Temp\cc07zeMk.s 			page 23


 1248 0078 00000000 		.word	.LANCHOR2
 1249              	.LBE264:
 1250              	.LBE263:
 1251              	.LBE262:
 1252              	.LBE261:
 1253              	.LBE260:
 1254              		.cfi_endproc
 1255              	.LFE233:
 1256              		.size	chMtxUnlockAll, .-chMtxUnlockAll
 1257 007c AFF30080 		.section	.rodata.__func__.6554,"a",%progbits
 1258              		.align	2
 1259              		.set	.LANCHOR0,. + 0
 1260              		.type	__func__.6554, %object
 1261              		.size	__func__.6554, 16
 1262              	__func__.6554:
 1263 0000 63684D74 		.ascii	"chMtxObjectInit\000"
 1263      784F626A 
 1263      65637449 
 1263      6E697400 
 1264              		.section	.rodata.__func__.6562,"a",%progbits
 1265              		.align	2
 1266              		.set	.LANCHOR1,. + 0
 1267              		.type	__func__.6562, %object
 1268              		.size	__func__.6562, 11
 1269              	__func__.6562:
 1270 0000 63684D74 		.ascii	"chMtxLockS\000"
 1270      784C6F63 
 1270      6B5300
 1271 000b 00       		.section	.rodata.__func__.6578,"a",%progbits
 1272              		.align	2
 1273              		.set	.LANCHOR3,. + 0
 1274              		.type	__func__.6578, %object
 1275              		.size	__func__.6578, 14
 1276              	__func__.6578:
 1277 0000 63684D74 		.ascii	"chMtxTryLockS\000"
 1277      78547279 
 1277      4C6F636B 
 1277      5300
 1278 000e 0000     		.section	.rodata.__func__.6584,"a",%progbits
 1279              		.align	2
 1280              		.set	.LANCHOR4,. + 0
 1281              		.type	__func__.6584, %object
 1282              		.size	__func__.6584, 12
 1283              	__func__.6584:
 1284 0000 63684D74 		.ascii	"chMtxUnlock\000"
 1284      78556E6C 
 1284      6F636B00 
 1285              		.section	.rodata.__func__.5870,"a",%progbits
 1286              		.align	2
 1287              		.set	.LANCHOR2,. + 0
 1288              		.type	__func__.5870, %object
 1289              		.size	__func__.5870, 12
 1290              	__func__.5870:
 1291 0000 63685379 		.ascii	"chSysUnlock\000"
 1291      73556E6C 
 1291      6F636B00 
 1292              		.section	.rodata.__func__.6595,"a",%progbits
ARM GAS  C:\Users\jo\AppData\Local\Temp\cc07zeMk.s 			page 24


 1293              		.align	2
 1294              		.set	.LANCHOR5,. + 0
 1295              		.type	__func__.6595, %object
 1296              		.size	__func__.6595, 13
 1297              	__func__.6595:
 1298 0000 63684D74 		.ascii	"chMtxUnlockS\000"
 1298      78556E6C 
 1298      6F636B53 
 1298      00
 1299 000d 000000   		.text
 1300              	.Letext0:
 1301              		.file 6 "c:\\program files\\gnu tools arm embedded\\4.9 2014q4\\arm-none-eabi\\include\\machine\\_
 1302              		.file 7 "c:\\program files\\gnu tools arm embedded\\4.9 2014q4\\arm-none-eabi\\include\\stdint.h"
 1303              		.file 8 "../../../os/rt/ports/ARMCMx/compilers/GCC/chtypes.h"
 1304              		.file 9 "../../../os/rt/include/chsystypes.h"
 1305              		.file 10 "../../../os/rt/ports/ARMCMx/chcore.h"
 1306              		.file 11 "../../../os/rt/ports/ARMCMx/chcore_v7m.h"
 1307              		.file 12 "../../../os/rt/include/chdebug.h"
 1308              		.file 13 "../../../os/rt/include/chtm.h"
 1309              		.file 14 "../../../os/rt/include/chstats.h"
 1310              		.file 15 "../../../os/ext/CMSIS/include/core_cm4.h"