ARM GAS  C:\Users\jo\AppData\Local\Temp\ccQWQzSF.s 			page 1


   1              		.syntax unified
   2              		.cpu cortex-m4
   3              		.fpu softvfp
   4              		.eabi_attribute 20, 1
   5              		.eabi_attribute 21, 1
   6              		.eabi_attribute 23, 3
   7              		.eabi_attribute 24, 1
   8              		.eabi_attribute 25, 1
   9              		.eabi_attribute 26, 1
  10              		.eabi_attribute 30, 2
  11              		.eabi_attribute 34, 1
  12              		.eabi_attribute 18, 4
  13              		.thumb
  14              		.file	"chregistry.c"
  15              		.text
  16              	.Ltext0:
  17              		.cfi_sections	.debug_frame
  18              		.section	.text.chRegFirstThread,"ax",%progbits
  19              		.align	2
  20              		.p2align 4,,15
  21              		.global	chRegFirstThread
  22              		.thumb
  23              		.thumb_func
  24              		.type	chRegFirstThread, %function
  25              	chRegFirstThread:
  26              	.LFB226:
  27              		.file 1 "../../../os/rt/src/chregistry.c"
  28              		.loc 1 128 0
  29              		.cfi_startproc
  30              		@ args = 0, pretend = 0, frame = 0
  31              		@ frame_needed = 0, uses_anonymous_args = 0
  32              	.LVL0:
  33 0000 38B5     		push	{r3, r4, r5, lr}
  34              		.cfi_def_cfa_offset 16
  35              		.cfi_offset 3, -16
  36              		.cfi_offset 4, -12
  37              		.cfi_offset 5, -8
  38              		.cfi_offset 14, -4
  39              	.LBB34:
  40              	.LBB35:
  41              	.LBB36:
  42              	.LBB37:
  43              	.LBB38:
  44              		.file 2 "../../../os/ext/CMSIS/include/core_cmFunc.h"
  45              		.loc 2 546 0
  46 0002 2023     		movs	r3, #32
  47              	@ 546 "../../../os/ext/CMSIS/include/core_cmFunc.h" 1
  48 0004 83F31188 		MSR basepri, r3
  49              	@ 0 "" 2
  50              		.thumb
  51              	.LBE38:
  52              	.LBE37:
  53              	.LBE36:
  54              	.LBE35:
  55              	.LBE34:
  56              		.loc 1 132 0
  57 0008 0E4D     		ldr	r5, .L5
ARM GAS  C:\Users\jo\AppData\Local\Temp\ccQWQzSF.s 			page 2


  58              	.LBB40:
  59              	.LBB39:
  60              		.file 3 "../../../os/rt/include/chsys.h"
  61              		.loc 3 300 0
  62 000a FFF7FEFF 		bl	_stats_start_measure_crit_thd
  63              	.LVL1:
  64              		.loc 3 301 0
  65 000e FFF7FEFF 		bl	_dbg_check_lock
  66              	.LVL2:
  67              	.LBE39:
  68              	.LBE40:
  69              		.loc 1 132 0
  70 0012 2C69     		ldr	r4, [r5, #16]
  71              	.LVL3:
  72              		.loc 1 134 0
  73 0014 94F82230 		ldrb	r3, [r4, #34]	@ zero_extendqisi2
  74 0018 0133     		adds	r3, r3, #1
  75 001a 84F82230 		strb	r3, [r4, #34]
  76              	.LBB41:
  77              	.LBB42:
  78              		.loc 3 311 0
  79 001e FFF7FEFF 		bl	_dbg_check_unlock
  80              	.LVL4:
  81              		.loc 3 312 0
  82 0022 FFF7FEFF 		bl	_stats_stop_measure_crit_thd
  83              	.LVL5:
  84              		.loc 3 318 0
  85 0026 AA69     		ldr	r2, [r5, #24]
  86 0028 2B68     		ldr	r3, [r5]
  87 002a 9268     		ldr	r2, [r2, #8]
  88 002c 9B68     		ldr	r3, [r3, #8]
  89 002e 9A42     		cmp	r2, r3
  90 0030 02D2     		bcs	.L2
  91 0032 0548     		ldr	r0, .L5+4
  92 0034 FFF7FEFF 		bl	chSysHalt
  93              	.LVL6:
  94              	.L2:
  95              	.LBB43:
  96              	.LBB44:
  97              	.LBB45:
  98              		.loc 2 546 0
  99 0038 0023     		movs	r3, #0
 100              	@ 546 "../../../os/ext/CMSIS/include/core_cmFunc.h" 1
 101 003a 83F31188 		MSR basepri, r3
 102              	@ 0 "" 2
 103              		.thumb
 104              	.LBE45:
 105              	.LBE44:
 106              	.LBE43:
 107              	.LBE42:
 108              	.LBE41:
 109              		.loc 1 139 0
 110 003e 2046     		mov	r0, r4
 111 0040 38BD     		pop	{r3, r4, r5, pc}
 112              	.LVL7:
 113              	.L6:
 114 0042 00BF     		.align	2
ARM GAS  C:\Users\jo\AppData\Local\Temp\ccQWQzSF.s 			page 3


 115              	.L5:
 116 0044 00000000 		.word	ch
 117 0048 00000000 		.word	.LANCHOR0
 118              		.cfi_endproc
 119              	.LFE226:
 120              		.size	chRegFirstThread, .-chRegFirstThread
 121 004c AFF30080 		.section	.text.chRegNextThread,"ax",%progbits
 122              		.align	2
 123              		.p2align 4,,15
 124              		.global	chRegNextThread
 125              		.thumb
 126              		.thumb_func
 127              		.type	chRegNextThread, %function
 128              	chRegNextThread:
 129              	.LFB227:
 130              		.loc 1 152 0
 131              		.cfi_startproc
 132              		@ args = 0, pretend = 0, frame = 0
 133              		@ frame_needed = 0, uses_anonymous_args = 0
 134              	.LVL8:
 135 0000 70B5     		push	{r4, r5, r6, lr}
 136              		.cfi_def_cfa_offset 16
 137              		.cfi_offset 4, -16
 138              		.cfi_offset 5, -12
 139              		.cfi_offset 6, -8
 140              		.cfi_offset 14, -4
 141              	.LBB56:
 142              	.LBB57:
 143              	.LBB58:
 144              	.LBB59:
 145              	.LBB60:
 146              		.loc 2 546 0
 147 0002 2023     		movs	r3, #32
 148              	.LBE60:
 149              	.LBE59:
 150              	.LBE58:
 151              	.LBE57:
 152              	.LBE56:
 153              		.loc 1 152 0
 154 0004 0646     		mov	r6, r0
 155              	.LBB66:
 156              	.LBB64:
 157              	.LBB63:
 158              	.LBB62:
 159              	.LBB61:
 160              		.loc 2 546 0
 161              	@ 546 "../../../os/ext/CMSIS/include/core_cmFunc.h" 1
 162 0006 83F31188 		MSR basepri, r3
 163              	@ 0 "" 2
 164              		.thumb
 165              	.LBE61:
 166              	.LBE62:
 167              	.LBE63:
 168              		.loc 3 300 0
 169 000a FFF7FEFF 		bl	_stats_start_measure_crit_thd
 170              	.LVL9:
 171              	.LBE64:
ARM GAS  C:\Users\jo\AppData\Local\Temp\ccQWQzSF.s 			page 4


 172              	.LBE66:
 173              		.loc 1 157 0
 174 000e 154D     		ldr	r5, .L14
 175              	.LBB67:
 176              	.LBB65:
 177              		.loc 3 301 0
 178 0010 FFF7FEFF 		bl	_dbg_check_lock
 179              	.LVL10:
 180              	.LBE65:
 181              	.LBE67:
 182              		.loc 1 156 0
 183 0014 3469     		ldr	r4, [r6, #16]
 184              	.LVL11:
 185              		.loc 1 157 0
 186 0016 AC42     		cmp	r4, r5
 187 0018 21D0     		beq	.L11
 188              		.loc 1 162 0
 189 001a 94F82230 		ldrb	r3, [r4, #34]	@ zero_extendqisi2
 190 001e FF2B     		cmp	r3, #255
 191 0020 17D0     		beq	.L13
 192              	.L9:
 193              		.loc 1 163 0
 194 0022 0133     		adds	r3, r3, #1
 195 0024 84F82230 		strb	r3, [r4, #34]
 196              	.LVL12:
 197              	.L8:
 198              	.LBB68:
 199              	.LBB69:
 200              		.loc 3 311 0
 201 0028 FFF7FEFF 		bl	_dbg_check_unlock
 202              	.LVL13:
 203              		.loc 3 312 0
 204 002c FFF7FEFF 		bl	_stats_stop_measure_crit_thd
 205              	.LVL14:
 206              		.loc 3 318 0
 207 0030 AA69     		ldr	r2, [r5, #24]
 208 0032 2B68     		ldr	r3, [r5]
 209 0034 9268     		ldr	r2, [r2, #8]
 210 0036 9B68     		ldr	r3, [r3, #8]
 211 0038 9A42     		cmp	r2, r3
 212 003a 02D2     		bcs	.L10
 213 003c 0A48     		ldr	r0, .L14+4
 214 003e FFF7FEFF 		bl	chSysHalt
 215              	.LVL15:
 216              	.L10:
 217              	.LBB70:
 218              	.LBB71:
 219              	.LBB72:
 220              		.loc 2 546 0
 221 0042 0023     		movs	r3, #0
 222              	@ 546 "../../../os/ext/CMSIS/include/core_cmFunc.h" 1
 223 0044 83F31188 		MSR basepri, r3
 224              	@ 0 "" 2
 225              		.thumb
 226              	.LBE72:
 227              	.LBE71:
 228              	.LBE70:
ARM GAS  C:\Users\jo\AppData\Local\Temp\ccQWQzSF.s 			page 5


 229              	.LBE69:
 230              	.LBE68:
 231              		.loc 1 168 0
 232 0048 3046     		mov	r0, r6
 233 004a FFF7FEFF 		bl	chThdRelease
 234              	.LVL16:
 235              		.loc 1 172 0
 236 004e 2046     		mov	r0, r4
 237 0050 70BD     		pop	{r4, r5, r6, pc}
 238              	.LVL17:
 239              	.L13:
 240              		.loc 1 162 0 discriminator 1
 241 0052 0648     		ldr	r0, .L14+8
 242 0054 FFF7FEFF 		bl	chSysHalt
 243              	.LVL18:
 244 0058 94F82230 		ldrb	r3, [r4, #34]	@ zero_extendqisi2
 245 005c E1E7     		b	.L9
 246              	.L11:
 247              		.loc 1 158 0
 248 005e 0024     		movs	r4, #0
 249              	.LVL19:
 250 0060 E2E7     		b	.L8
 251              	.L15:
 252 0062 00BF     		.align	2
 253              	.L14:
 254 0064 00000000 		.word	ch
 255 0068 00000000 		.word	.LANCHOR0
 256 006c 00000000 		.word	.LANCHOR1
 257              		.cfi_endproc
 258              	.LFE227:
 259              		.size	chRegNextThread, .-chRegNextThread
 260              		.global	ch_debug
 261              		.section	.rodata.ch_debug,"a",%progbits
 262              		.align	2
 263              		.type	ch_debug, %object
 264              		.size	ch_debug, 22
 265              	ch_debug:
 266 0000 6D61696E 		.ascii	"main"
 267 0004 00       		.byte	0
 268 0005 16       		.byte	22
 269 0006 0018     		.short	6144
 270 0008 04       		.byte	4
 271 0009 04       		.byte	4
 272 000a 60       		.byte	96
 273 000b 08       		.byte	8
 274 000c 0C       		.byte	12
 275 000d 10       		.byte	16
 276 000e 14       		.byte	20
 277 000f 18       		.byte	24
 278 0010 1C       		.byte	28
 279 0011 20       		.byte	32
 280 0012 21       		.byte	33
 281 0013 22       		.byte	34
 282 0014 00       		.byte	0
 283 0015 00       		.byte	0
 284 0016 0000     		.section	.rodata.__func__.6560,"a",%progbits
 285              		.align	2
ARM GAS  C:\Users\jo\AppData\Local\Temp\ccQWQzSF.s 			page 6


 286              		.set	.LANCHOR1,. + 0
 287              		.type	__func__.6560, %object
 288              		.size	__func__.6560, 16
 289              	__func__.6560:
 290 0000 63685265 		.ascii	"chRegNextThread\000"
 290      674E6578 
 290      74546872 
 290      65616400 
 291              		.section	.rodata.__func__.5870,"a",%progbits
 292              		.align	2
 293              		.set	.LANCHOR0,. + 0
 294              		.type	__func__.5870, %object
 295              		.size	__func__.5870, 12
 296              	__func__.5870:
 297 0000 63685379 		.ascii	"chSysUnlock\000"
 297      73556E6C 
 297      6F636B00 
 298              		.text
 299              	.Letext0:
 300              		.file 4 "c:\\program files\\gnu tools arm embedded\\4.9 2014q4\\lib\\gcc\\arm-none-eabi\\4.9.3\\in
 301              		.file 5 "c:\\program files\\gnu tools arm embedded\\4.9 2014q4\\arm-none-eabi\\include\\machine\\_
 302              		.file 6 "c:\\program files\\gnu tools arm embedded\\4.9 2014q4\\arm-none-eabi\\include\\stdint.h"
 303              		.file 7 "../../../os/rt/ports/ARMCMx/compilers/GCC/chtypes.h"
 304              		.file 8 "../../../os/rt/include/chsystypes.h"
 305              		.file 9 "../../../os/rt/include/chschd.h"
 306              		.file 10 "../../../os/rt/ports/ARMCMx/chcore.h"
 307              		.file 11 "../../../os/rt/ports/ARMCMx/chcore_v7m.h"
 308              		.file 12 "../../../os/rt/include/chdebug.h"
 309              		.file 13 "../../../os/rt/include/chtm.h"
 310              		.file 14 "../../../os/rt/include/chstats.h"
 311              		.file 15 "../../../os/rt/include/chmtx.h"
 312              		.file 16 "../../../os/rt/include/chregistry.h"
 313              		.file 17 "../../../os/ext/CMSIS/include/core_cm4.h"
 314              		.file 18 "../../../os/rt/include/chdynamic.h"