ARM GAS  C:\Users\jo\AppData\Local\Temp\ccNGK2iO.s 			page 1


   1              		.syntax unified
   2              		.cpu cortex-m4
   3              		.fpu softvfp
   4              		.eabi_attribute 20, 1
   5              		.eabi_attribute 21, 1
   6              		.eabi_attribute 23, 3
   7              		.eabi_attribute 24, 1
   8              		.eabi_attribute 25, 1
   9              		.eabi_attribute 26, 1
  10              		.eabi_attribute 30, 2
  11              		.eabi_attribute 34, 1
  12              		.eabi_attribute 18, 4
  13              		.thumb
  14              		.file	"main.c"
  15              		.text
  16              	.Ltext0:
  17              		.cfi_sections	.debug_frame
  18              		.section	.text.Thread1,"ax",%progbits
  19              		.align	2
  20              		.p2align 4,,15
  21              		.thumb
  22              		.thumb_func
  23              		.type	Thread1, %function
  24              	Thread1:
  25              	.LFB261:
  26              		.file 1 "main.c"
  27              		.loc 1 100 0
  28              		.cfi_startproc
  29              		@ Volatile: function does not return.
  30              		@ args = 0, pretend = 0, frame = 0
  31              		@ frame_needed = 0, uses_anonymous_args = 0
  32              	.LVL0:
  33 0000 08B5     		push	{r3, lr}
  34              		.cfi_def_cfa_offset 8
  35              		.cfi_offset 3, -8
  36              		.cfi_offset 14, -4
  37              		.loc 1 103 0
  38 0002 094B     		ldr	r3, .L5
  39 0004 094A     		ldr	r2, .L5+4
  40 0006 9B69     		ldr	r3, [r3, #24]
  41              		.loc 1 105 0
  42 0008 094C     		ldr	r4, .L5+8
  43              		.loc 1 103 0
  44 000a 9A61     		str	r2, [r3, #24]
  45              		.loc 1 105 0
  46 000c 4025     		movs	r5, #64
  47 000e 2E46     		mov	r6, r5	@ movhi
  48              	.LVL1:
  49              	.L2:
  50              		.loc 1 105 0 is_stmt 0 discriminator 1
  51 0010 6683     		strh	r6, [r4, #26]	@ movhi
  52              		.loc 1 106 0 is_stmt 1 discriminator 1
  53 0012 41F28830 		movw	r0, #5000
  54 0016 FFF7FEFF 		bl	chThdSleep
  55              	.LVL2:
  56              		.loc 1 107 0 discriminator 1
  57 001a 2583     		strh	r5, [r4, #24]	@ movhi
ARM GAS  C:\Users\jo\AppData\Local\Temp\ccNGK2iO.s 			page 2


  58              		.loc 1 108 0 discriminator 1
  59 001c 41F28830 		movw	r0, #5000
  60 0020 FFF7FEFF 		bl	chThdSleep
  61              	.LVL3:
  62              		.loc 1 109 0 discriminator 1
  63 0024 F4E7     		b	.L2
  64              	.L6:
  65 0026 00BF     		.align	2
  66              	.L5:
  67 0028 00000000 		.word	ch
  68 002c 00000000 		.word	.LC0
  69 0030 00180240 		.word	1073879040
  70              		.cfi_endproc
  71              	.LFE261:
  72              		.size	Thread1, .-Thread1
  73 0034 AFF30080 		.section	.text.producer_thread,"ax",%progbits
  73      AFF30080 
  73      AFF30080 
  74              		.align	2
  75              		.p2align 4,,15
  76              		.thumb
  77              		.thumb_func
  78              		.type	producer_thread, %function
  79              	producer_thread:
  80              	.LFB259:
  81              		.loc 1 69 0
  82              		.cfi_startproc
  83              		@ args = 0, pretend = 0, frame = 0
  84              		@ frame_needed = 0, uses_anonymous_args = 0
  85              	.LVL4:
  86              		.loc 1 73 0
  87 0000 074B     		ldr	r3, .L10
  88 0002 084A     		ldr	r2, .L10+4
  89 0004 9B69     		ldr	r3, [r3, #24]
  90              		.loc 1 69 0
  91 0006 10B5     		push	{r4, lr}
  92              		.cfi_def_cfa_offset 8
  93              		.cfi_offset 4, -8
  94              		.cfi_offset 14, -4
  95              		.loc 1 72 0
  96 0008 0520     		movs	r0, #5
  97              	.LVL5:
  98              		.loc 1 73 0
  99 000a 9A61     		str	r2, [r3, #24]
 100              	.LVL6:
 101              	.L8:
 102              		.loc 1 75 0 discriminator 1
 103 000c 441C     		adds	r4, r0, #1
 104 000e E4B2     		uxtb	r4, r4
 105              	.LVL7:
 106 0010 FFF7FEFF 		bl	En_queue
 107              	.LVL8:
 108              		.loc 1 76 0 discriminator 1
 109 0014 42F21070 		movw	r0, #10000
 110 0018 FFF7FEFF 		bl	chThdSleep
 111              	.LVL9:
 112              		.loc 1 75 0 discriminator 1
ARM GAS  C:\Users\jo\AppData\Local\Temp\ccNGK2iO.s 			page 3


 113 001c 2046     		mov	r0, r4
 114              		.loc 1 77 0 discriminator 1
 115 001e F5E7     		b	.L8
 116              	.L11:
 117              		.align	2
 118              	.L10:
 119 0020 00000000 		.word	ch
 120 0024 08000000 		.word	.LC1
 121              		.cfi_endproc
 122              	.LFE259:
 123              		.size	producer_thread, .-producer_thread
 124 0028 AFF30080 		.section	.text.chprintf.constprop.3,"ax",%progbits
 124      AFF30080 
 125              		.align	2
 126              		.p2align 4,,15
 127              		.thumb
 128              		.thumb_func
 129              		.type	chprintf.constprop.3, %function
 130              	chprintf.constprop.3:
 131              	.LFB266:
 132              		.file 2 "../../../os/hal/lib/streams/chprintf.h"
 133              		.loc 2 69 0
 134              		.cfi_startproc
 135              		@ args = 4, pretend = 12, frame = 8
 136              		@ frame_needed = 0, uses_anonymous_args = 1
 137              	.LVL10:
 138 0000 0EB4     		push	{r1, r2, r3}
 139              		.cfi_def_cfa_offset 12
 140              		.cfi_offset 1, -12
 141              		.cfi_offset 2, -8
 142              		.cfi_offset 3, -4
 143 0002 00B5     		push	{lr}
 144              		.cfi_def_cfa_offset 16
 145              		.cfi_offset 14, -16
 146 0004 82B0     		sub	sp, sp, #8
 147              		.cfi_def_cfa_offset 24
 148              		.loc 2 69 0
 149 0006 03AA     		add	r2, sp, #12
 150              		.loc 2 74 0
 151 0008 0548     		ldr	r0, .L14
 152              	.LVL11:
 153              		.loc 2 69 0
 154 000a 52F8041B 		ldr	r1, [r2], #4
 155              		.loc 2 73 0
 156 000e 0192     		str	r2, [sp, #4]
 157              		.loc 2 74 0
 158 0010 FFF7FEFF 		bl	chvprintf
 159              	.LVL12:
 160              		.loc 2 78 0
 161 0014 02B0     		add	sp, sp, #8
 162              		.cfi_def_cfa_offset 16
 163              		@ sp needed
 164 0016 5DF804EB 		ldr	lr, [sp], #4
 165              		.cfi_restore 14
 166              		.cfi_def_cfa_offset 12
 167 001a 03B0     		add	sp, sp, #12
 168              		.cfi_restore 3
ARM GAS  C:\Users\jo\AppData\Local\Temp\ccNGK2iO.s 			page 4


 169              		.cfi_restore 2
 170              		.cfi_restore 1
 171              		.cfi_def_cfa_offset 0
 172 001c 7047     		bx	lr
 173              	.L15:
 174 001e 00BF     		.align	2
 175              	.L14:
 176 0020 00000000 		.word	.LANCHOR0
 177              		.cfi_endproc
 178              	.LFE266:
 179              		.size	chprintf.constprop.3, .-chprintf.constprop.3
 180 0024 AFF30080 		.section	.text.consumer_thread,"ax",%progbits
 180      AFF30080 
 180      AFF30080 
 181              		.align	2
 182              		.p2align 4,,15
 183              		.thumb
 184              		.thumb_func
 185              		.type	consumer_thread, %function
 186              	consumer_thread:
 187              	.LFB260:
 188              		.loc 1 84 0
 189              		.cfi_startproc
 190              		@ args = 0, pretend = 0, frame = 0
 191              		@ frame_needed = 0, uses_anonymous_args = 0
 192              	.LVL13:
 193 0000 08B5     		push	{r3, lr}
 194              		.cfi_def_cfa_offset 8
 195              		.cfi_offset 3, -8
 196              		.cfi_offset 14, -4
 197              		.loc 1 88 0
 198 0002 084B     		ldr	r3, .L19
 199 0004 084A     		ldr	r2, .L19+4
 200 0006 9B69     		ldr	r3, [r3, #24]
 201 0008 9A61     		str	r2, [r3, #24]
 202              	.LVL14:
 203              	.L17:
 204              		.loc 1 90 0 discriminator 1
 205 000a FFF7FEFF 		bl	De_queue
 206              	.LVL15:
 207              		.loc 1 91 0 discriminator 1
 208 000e 0749     		ldr	r1, .L19+8
 209              		.loc 1 90 0 discriminator 1
 210 0010 0246     		mov	r2, r0
 211              	.LVL16:
 212              		.loc 1 91 0 discriminator 1
 213 0012 0748     		ldr	r0, .L19+12
 214 0014 FFF7FEFF 		bl	chprintf.constprop.3
 215              	.LVL17:
 216              		.loc 1 92 0 discriminator 1
 217 0018 40F6B830 		movw	r0, #3000
 218 001c FFF7FEFF 		bl	chThdSleep
 219              	.LVL18:
 220              		.loc 1 93 0 discriminator 1
 221 0020 F3E7     		b	.L17
 222              	.L20:
 223 0022 00BF     		.align	2
ARM GAS  C:\Users\jo\AppData\Local\Temp\ccNGK2iO.s 			page 5


 224              	.L19:
 225 0024 00000000 		.word	ch
 226 0028 14000000 		.word	.LC2
 227 002c 20000000 		.word	.LC3
 228 0030 00000000 		.word	.LANCHOR0
 229              		.cfi_endproc
 230              	.LFE260:
 231              		.size	consumer_thread, .-consumer_thread
 232 0034 AFF30080 		.section	.text.Debug_ITMDebugEnable,"ax",%progbits
 232      AFF30080 
 232      AFF30080 
 233              		.align	2
 234              		.p2align 4,,15
 235              		.global	Debug_ITMDebugEnable
 236              		.thumb
 237              		.thumb_func
 238              		.type	Debug_ITMDebugEnable, %function
 239              	Debug_ITMDebugEnable:
 240              	.LFB256:
 241              		.loc 1 31 0
 242              		.cfi_startproc
 243              		@ args = 0, pretend = 0, frame = 0
 244              		@ frame_needed = 0, uses_anonymous_args = 0
 245              		@ link register save eliminated.
 246              	.LVL19:
 247              		.loc 1 36 0
 248 0000 084A     		ldr	r2, .L29
 249              		.loc 1 38 0
 250 0002 0949     		ldr	r1, .L29+4
 251              		.loc 1 36 0
 252 0004 1368     		ldr	r3, [r2]
 253 0006 43F02703 		orr	r3, r3, #39
 254 000a 1360     		str	r3, [r2]
 255              		.loc 1 38 0
 256 000c 0B68     		ldr	r3, [r1]
 257 000e DA07     		lsls	r2, r3, #31
 258 0010 06D5     		bpl	.L21
 259              	.LBB6:
 260 0012 064B     		ldr	r3, .L29+8
 261 0014 1B68     		ldr	r3, [r3]
 262 0016 DB07     		lsls	r3, r3, #31
 263 0018 02D5     		bpl	.L21
 264              		.loc 1 39 0
 265 001a 054B     		ldr	r3, .L29+12
 266 001c 0122     		movs	r2, #1
 267 001e 1A60     		str	r2, [r3]
 268              	.L21:
 269 0020 7047     		bx	lr
 270              	.L30:
 271 0022 00BF     		.align	2
 272              	.L29:
 273 0024 042004E0 		.word	-536600572
 274 0028 F0ED00E0 		.word	-536810000
 275 002c 000E00E0 		.word	-536867328
 276 0030 00000000 		.word	.LANCHOR1
 277              	.LBE6:
 278              		.cfi_endproc
ARM GAS  C:\Users\jo\AppData\Local\Temp\ccNGK2iO.s 			page 6


 279              	.LFE256:
 280              		.size	Debug_ITMDebugEnable, .-Debug_ITMDebugEnable
 281 0034 AFF30080 		.section	.text.Debug_ITMDebugOutputChar,"ax",%progbits
 281      AFF30080 
 281      AFF30080 
 282              		.align	2
 283              		.p2align 4,,15
 284              		.global	Debug_ITMDebugOutputChar
 285              		.thumb
 286              		.thumb_func
 287              		.type	Debug_ITMDebugOutputChar, %function
 288              	Debug_ITMDebugOutputChar:
 289              	.LFB257:
 290              		.loc 1 44 0
 291              		.cfi_startproc
 292              		@ args = 0, pretend = 0, frame = 0
 293              		@ frame_needed = 0, uses_anonymous_args = 0
 294              		@ link register save eliminated.
 295              	.LVL20:
 296              		.loc 1 48 0
 297 0000 074B     		ldr	r3, .L43
 298 0002 1B68     		ldr	r3, [r3]
 299 0004 5BB1     		cbz	r3, .L31
 300              		.loc 1 48 0 is_stmt 0 discriminator 1
 301 0006 074B     		ldr	r3, .L43+4
 302 0008 1B68     		ldr	r3, [r3]
 303 000a DB01     		lsls	r3, r3, #7
 304 000c 07D5     		bpl	.L31
 305              	.LBB9:
 306              	.LBB10:
 307              		.loc 1 50 0 is_stmt 1
 308 000e 4FF06041 		mov	r1, #-536870912
 309              	.L39:
 310 0012 0B68     		ldr	r3, [r1]
 311 0014 4FF06042 		mov	r2, #-536870912
 312 0018 002B     		cmp	r3, #0
 313 001a FAD0     		beq	.L39
 314              		.loc 1 51 0
 315 001c 1070     		strb	r0, [r2]
 316              	.L31:
 317 001e 7047     		bx	lr
 318              	.L44:
 319              		.align	2
 320              	.L43:
 321 0020 00000000 		.word	.LANCHOR1
 322 0024 FCED00E0 		.word	-536809988
 323              	.LBE10:
 324              	.LBE9:
 325              		.cfi_endproc
 326              	.LFE257:
 327              		.size	Debug_ITMDebugOutputChar, .-Debug_ITMDebugOutputChar
 328 0028 AFF30080 		.section	.text.Debug_ITMDebugOutputString,"ax",%progbits
 328      AFF30080 
 329              		.align	2
 330              		.p2align 4,,15
 331              		.global	Debug_ITMDebugOutputString
 332              		.thumb
ARM GAS  C:\Users\jo\AppData\Local\Temp\ccNGK2iO.s 			page 7


 333              		.thumb_func
 334              		.type	Debug_ITMDebugOutputString, %function
 335              	Debug_ITMDebugOutputString:
 336              	.LFB258:
 337              		.loc 1 57 0
 338              		.cfi_startproc
 339              		@ args = 0, pretend = 0, frame = 0
 340              		@ frame_needed = 0, uses_anonymous_args = 0
 341              	.LVL21:
 342              		.loc 1 58 0
 343 0000 074B     		ldr	r3, .L55
 344 0002 1B68     		ldr	r3, [r3]
 345 0004 53B1     		cbz	r3, .L54
 346              	.LVL22:
 347              		.loc 1 57 0
 348 0006 10B5     		push	{r4, lr}
 349              		.cfi_def_cfa_offset 8
 350              		.cfi_offset 4, -8
 351              		.cfi_offset 14, -4
 352 0008 0446     		mov	r4, r0
 353              	.LBB13:
 354              	.LBB14:
 355              		.loc 1 59 0
 356 000a 0078     		ldrb	r0, [r0]	@ zero_extendqisi2
 357              	.LVL23:
 358 000c 28B1     		cbz	r0, .L45
 359              	.LVL24:
 360              	.L48:
 361              		.loc 1 60 0
 362 000e FFF7FEFF 		bl	Debug_ITMDebugOutputChar
 363              	.LVL25:
 364              		.loc 1 59 0
 365 0012 14F8010F 		ldrb	r0, [r4, #1]!	@ zero_extendqisi2
 366              	.LVL26:
 367 0016 0028     		cmp	r0, #0
 368 0018 F9D1     		bne	.L48
 369              	.LVL27:
 370              	.L45:
 371 001a 10BD     		pop	{r4, pc}
 372              	.LVL28:
 373              	.L54:
 374              		.cfi_def_cfa_offset 0
 375              		.cfi_restore 4
 376              		.cfi_restore 14
 377 001c 7047     		bx	lr
 378              	.L56:
 379 001e 00BF     		.align	2
 380              	.L55:
 381 0020 00000000 		.word	.LANCHOR1
 382              	.LBE14:
 383              	.LBE13:
 384              		.cfi_endproc
 385              	.LFE258:
 386              		.size	Debug_ITMDebugOutputString, .-Debug_ITMDebugOutputString
 387 0024 AFF30080 		.section	.text.startup.main,"ax",%progbits
 387      AFF30080 
 387      AFF30080 
ARM GAS  C:\Users\jo\AppData\Local\Temp\ccNGK2iO.s 			page 8


 388              		.align	2
 389              		.p2align 4,,15
 390              		.global	main
 391              		.thumb
 392              		.thumb_func
 393              		.type	main, %function
 394              	main:
 395              	.LFB262:
 396              		.loc 1 115 0
 397              		.cfi_startproc
 398              		@ Volatile: function does not return.
 399              		@ args = 0, pretend = 0, frame = 0
 400              		@ frame_needed = 0, uses_anonymous_args = 0
 401 0000 00B5     		push	{lr}
 402              		.cfi_def_cfa_offset 4
 403              		.cfi_offset 14, -4
 404 0002 83B0     		sub	sp, sp, #12
 405              		.cfi_def_cfa_offset 16
 406              		.loc 1 117 0
 407 0004 FFF7FEFF 		bl	Debug_ITMDebugEnable
 408              	.LVL29:
 409              	.LBB19:
 410              	.LBB20:
 411              		.loc 1 58 0
 412 0008 1A4B     		ldr	r3, .L64
 413 000a 1B68     		ldr	r3, [r3]
 414 000c 4BBB     		cbnz	r3, .L61
 415              	.L60:
 416              	.LBE20:
 417              	.LBE19:
 418              		.loc 1 120 0
 419 000e 1A48     		ldr	r0, .L64+4
 420 0010 FFF7FEFF 		bl	itmObjectInit
 421              	.LVL30:
 422              		.loc 1 154 0
 423 0014 0024     		movs	r4, #0
 424              		.loc 1 122 0
 425 0016 1949     		ldr	r1, .L64+8
 426 0018 194A     		ldr	r2, .L64+12
 427 001a 1748     		ldr	r0, .L64+4
 428 001c FFF7FEFF 		bl	chprintf.constprop.3
 429              	.LVL31:
 430              		.loc 1 133 0
 431 0020 FFF7FEFF 		bl	halInit
 432              	.LVL32:
 433              		.loc 1 134 0
 434 0024 FFF7FEFF 		bl	chSysInit
 435              	.LVL33:
 436              		.loc 1 154 0
 437 0028 164B     		ldr	r3, .L64+16
 438 002a 0094     		str	r4, [sp]
 439 002c 4FF4B471 		mov	r1, #360
 440 0030 4022     		movs	r2, #64
 441 0032 1548     		ldr	r0, .L64+20
 442 0034 FFF7FEFF 		bl	chThdCreateStatic
 443              	.LVL34:
 444              		.loc 1 159 0
ARM GAS  C:\Users\jo\AppData\Local\Temp\ccNGK2iO.s 			page 9


 445 0038 144B     		ldr	r3, .L64+24
 446 003a 0094     		str	r4, [sp]
 447 003c 4FF4B471 		mov	r1, #360
 448 0040 4022     		movs	r2, #64
 449 0042 1348     		ldr	r0, .L64+28
 450 0044 FFF7FEFF 		bl	chThdCreateStatic
 451              	.LVL35:
 452              		.loc 1 164 0
 453 0048 0094     		str	r4, [sp]
 454 004a 1248     		ldr	r0, .L64+32
 455 004c 124B     		ldr	r3, .L64+36
 456 004e 4FF4B471 		mov	r1, #360
 457 0052 4022     		movs	r2, #64
 458 0054 FFF7FEFF 		bl	chThdCreateStatic
 459              	.LVL36:
 460              	.L59:
 461              		.loc 1 173 0 discriminator 1
 462 0058 41F28830 		movw	r0, #5000
 463 005c FFF7FEFF 		bl	chThdSleep
 464              	.LVL37:
 465              		.loc 1 174 0 discriminator 1
 466 0060 FAE7     		b	.L59
 467              	.L61:
 468              	.LBB24:
 469              	.LBB23:
 470              		.loc 1 58 0
 471 0062 0E4C     		ldr	r4, .L64+40
 472 0064 5320     		movs	r0, #83
 473              	.L58:
 474              	.LVL38:
 475              	.LBB21:
 476              	.LBB22:
 477              		.loc 1 60 0
 478 0066 FFF7FEFF 		bl	Debug_ITMDebugOutputChar
 479              	.LVL39:
 480              		.loc 1 59 0
 481 006a 14F8010F 		ldrb	r0, [r4, #1]!	@ zero_extendqisi2
 482              	.LVL40:
 483 006e 0028     		cmp	r0, #0
 484 0070 F9D1     		bne	.L58
 485 0072 CCE7     		b	.L60
 486              	.L65:
 487              		.align	2
 488              	.L64:
 489 0074 00000000 		.word	.LANCHOR1
 490 0078 00000000 		.word	.LANCHOR0
 491 007c 40000000 		.word	.LC5
 492 0080 44000000 		.word	.LC6
 493 0084 00000000 		.word	Thread1
 494 0088 00000000 		.word	.LANCHOR2
 495 008c 00000000 		.word	producer_thread
 496 0090 00000000 		.word	.LANCHOR3
 497 0094 00000000 		.word	.LANCHOR4
 498 0098 00000000 		.word	consumer_thread
 499 009c 30000000 		.word	.LC4
 500              	.LBE22:
 501              	.LBE21:
ARM GAS  C:\Users\jo\AppData\Local\Temp\ccNGK2iO.s 			page 10


 502              	.LBE23:
 503              	.LBE24:
 504              		.cfi_endproc
 505              	.LFE262:
 506              		.size	main, .-main
 507              		.global	itm_port
 508              		.section	.bss.wa_producer,"aw",%nobits
 509              		.align	3
 510              		.set	.LANCHOR3,. + 0
 511              		.type	wa_producer, %object
 512              		.size	wa_producer, 360
 513              	wa_producer:
 514 0000 00000000 		.space	360
 514      00000000 
 514      00000000 
 514      00000000 
 514      00000000 
 515              		.section	.bss.waThread1,"aw",%nobits
 516              		.align	3
 517              		.set	.LANCHOR2,. + 0
 518              		.type	waThread1, %object
 519              		.size	waThread1, 360
 520              	waThread1:
 521 0000 00000000 		.space	360
 521      00000000 
 521      00000000 
 521      00000000 
 521      00000000 
 522              		.section	.bss.Debug_ITMDebug,"aw",%nobits
 523              		.align	2
 524              		.set	.LANCHOR1,. + 0
 525              		.type	Debug_ITMDebug, %object
 526              		.size	Debug_ITMDebug, 4
 527              	Debug_ITMDebug:
 528 0000 00000000 		.space	4
 529              		.section	.bss.itm_port,"aw",%nobits
 530              		.align	2
 531              		.set	.LANCHOR0,. + 0
 532              		.type	itm_port, %object
 533              		.size	itm_port, 4
 534              	itm_port:
 535 0000 00000000 		.space	4
 536              		.section	.rodata.str1.4,"aMS",%progbits,1
 537              		.align	2
 538              	.LC0:
 539 0000 626C696E 		.ascii	"blinker\000"
 539      6B657200 
 540              	.LC1:
 541 0008 70726F64 		.ascii	"producer\000"
 541      75636572 
 541      00
 542 0011 000000   		.space	3
 543              	.LC2:
 544 0014 636F6E73 		.ascii	"consumer\000"
 544      756D6572 
 544      00
 545 001d 000000   		.space	3
ARM GAS  C:\Users\jo\AppData\Local\Temp\ccNGK2iO.s 			page 11


 546              	.LC3:
 547 0020 456C656D 		.ascii	"Element: %d\012\000"
 547      656E743A 
 547      2025640A 
 547      00
 548 002d 000000   		.space	3
 549              	.LC4:
 550 0030 53575620 		.ascii	"SWV Enabled\012\000"
 550      456E6162 
 550      6C65640A 
 550      00
 551 003d 000000   		.space	3
 552              	.LC5:
 553 0040 257300   		.ascii	"%s\000"
 554 0043 00       		.space	1
 555              	.LC6:
 556 0044 43686962 		.ascii	"ChibiOS V3.0\012\000"
 556      694F5320 
 556      56332E30 
 556      0A00
 557 0052 0000     		.section	.bss.wa_consumer,"aw",%nobits
 558              		.align	3
 559              		.set	.LANCHOR4,. + 0
 560              		.type	wa_consumer, %object
 561              		.size	wa_consumer, 360
 562              	wa_consumer:
 563 0000 00000000 		.space	360
 563      00000000 
 563      00000000 
 563      00000000 
 563      00000000 
 564              		.text
 565              	.Letext0:
 566              		.file 3 "c:\\program files\\gnu tools arm embedded\\4.9 2014q4\\lib\\gcc\\arm-none-eabi\\4.9.3\\in
 567              		.file 4 "c:\\program files\\gnu tools arm embedded\\4.9 2014q4\\arm-none-eabi\\include\\machine\\_
 568              		.file 5 "c:\\program files\\gnu tools arm embedded\\4.9 2014q4\\arm-none-eabi\\include\\stdint.h"
 569              		.file 6 "../../../os/rt/ports/ARMCMx/compilers/GCC/chtypes.h"
 570              		.file 7 "../../../os/rt/include/chsystypes.h"
 571              		.file 8 "../../../os/rt/include/chschd.h"
 572              		.file 9 "../../../os/rt/ports/ARMCMx/chcore.h"
 573              		.file 10 "../../../os/rt/ports/ARMCMx/chcore_v7m.h"
 574              		.file 11 "../../../os/rt/include/chdebug.h"
 575              		.file 12 "../../../os/rt/include/chtm.h"
 576              		.file 13 "../../../os/rt/include/chstats.h"
 577              		.file 14 "../../../os/rt/include/chmtx.h"
 578              		.file 15 "../../../os/rt/include/chthreads.h"
 579              		.file 16 "../../../os/rt/include/chstreams.h"
 580              		.file 17 "../../../os/hal/ports/STM32/LLD/GPIOv2/pal_lld.h"
 581              		.file 18 "ITM_trace.h"
 582              		.file 19 "c:\\program files\\gnu tools arm embedded\\4.9 2014q4\\lib\\gcc\\arm-none-eabi\\4.9.3\\i
 583              		.file 20 "<built-in>"
 584              		.file 21 "../../../os/ext/CMSIS/include/core_cm4.h"
 585              		.file 22 "queue.h"
 586              		.file 23 "../../../os/hal/include/hal.h"
 587              		.file 24 "../../../os/rt/include/chsys.h"