ARM GAS  C:\Users\jo\AppData\Local\Temp\cch6hXTv.s 			page 1


   1              		.syntax unified
   2              		.cpu cortex-m4
   3              		.fpu softvfp
   4              		.eabi_attribute 20, 1
   5              		.eabi_attribute 21, 1
   6              		.eabi_attribute 23, 3
   7              		.eabi_attribute 24, 1
   8              		.eabi_attribute 25, 1
   9              		.eabi_attribute 26, 1
  10              		.eabi_attribute 30, 2
  11              		.eabi_attribute 34, 1
  12              		.eabi_attribute 18, 4
  13              		.thumb
  14              		.file	"queue.c"
  15              		.text
  16              	.Ltext0:
  17              		.cfi_sections	.debug_frame
  18              		.section	.text.chprintf.constprop.0,"ax",%progbits
  19              		.align	2
  20              		.p2align 4,,15
  21              		.thumb
  22              		.thumb_func
  23              		.type	chprintf.constprop.0, %function
  24              	chprintf.constprop.0:
  25              	.LFB231:
  26              		.file 1 "../../../os/hal/lib/streams/chprintf.h"
  27              		.loc 1 69 0
  28              		.cfi_startproc
  29              		@ args = 4, pretend = 12, frame = 8
  30              		@ frame_needed = 0, uses_anonymous_args = 1
  31              	.LVL0:
  32 0000 0EB4     		push	{r1, r2, r3}
  33              		.cfi_def_cfa_offset 12
  34              		.cfi_offset 1, -12
  35              		.cfi_offset 2, -8
  36              		.cfi_offset 3, -4
  37 0002 00B5     		push	{lr}
  38              		.cfi_def_cfa_offset 16
  39              		.cfi_offset 14, -16
  40 0004 82B0     		sub	sp, sp, #8
  41              		.cfi_def_cfa_offset 24
  42              		.loc 1 69 0
  43 0006 03AA     		add	r2, sp, #12
  44              		.loc 1 74 0
  45 0008 0548     		ldr	r0, .L3
  46              	.LVL1:
  47              		.loc 1 69 0
  48 000a 52F8041B 		ldr	r1, [r2], #4
  49              		.loc 1 73 0
  50 000e 0192     		str	r2, [sp, #4]
  51              		.loc 1 74 0
  52 0010 FFF7FEFF 		bl	chvprintf
  53              	.LVL2:
  54              		.loc 1 78 0
  55 0014 02B0     		add	sp, sp, #8
  56              		.cfi_def_cfa_offset 16
  57              		@ sp needed
ARM GAS  C:\Users\jo\AppData\Local\Temp\cch6hXTv.s 			page 2


  58 0016 5DF804EB 		ldr	lr, [sp], #4
  59              		.cfi_restore 14
  60              		.cfi_def_cfa_offset 12
  61 001a 03B0     		add	sp, sp, #12
  62              		.cfi_restore 3
  63              		.cfi_restore 2
  64              		.cfi_restore 1
  65              		.cfi_def_cfa_offset 0
  66 001c 7047     		bx	lr
  67              	.L4:
  68 001e 00BF     		.align	2
  69              	.L3:
  70 0020 00000000 		.word	itm_port
  71              		.cfi_endproc
  72              	.LFE231:
  73              		.size	chprintf.constprop.0, .-chprintf.constprop.0
  74 0024 AFF30080 		.section	.text.Fill_queue,"ax",%progbits
  74      AFF30080 
  74      AFF30080 
  75              		.align	2
  76              		.p2align 4,,15
  77              		.global	Fill_queue
  78              		.thumb
  79              		.thumb_func
  80              		.type	Fill_queue, %function
  81              	Fill_queue:
  82              	.LFB227:
  83              		.file 2 "queue.c"
  84              		.loc 2 26 0
  85              		.cfi_startproc
  86              		@ args = 0, pretend = 0, frame = 0
  87              		@ frame_needed = 0, uses_anonymous_args = 0
  88              	.LVL3:
  89 0000 70B5     		push	{r4, r5, r6, lr}
  90              		.cfi_def_cfa_offset 16
  91              		.cfi_offset 4, -16
  92              		.cfi_offset 5, -12
  93              		.cfi_offset 6, -8
  94              		.cfi_offset 14, -4
  95              		.loc 2 28 0
  96 0002 0C4C     		ldr	r4, .L11
  97 0004 2378     		ldrb	r3, [r4]	@ zero_extendqisi2
  98 0006 1F2B     		cmp	r3, #31
  99 0008 09D9     		bls	.L10
 100              	.LVL4:
 101              	.L6:
 102              		.loc 2 33 0
 103 000a 0B4B     		ldr	r3, .L11+4
 104 000c 1B78     		ldrb	r3, [r3]	@ zero_extendqisi2
 105 000e 1F2B     		cmp	r3, #31
 106 0010 04D1     		bne	.L5
 107              		.loc 2 33 0 is_stmt 0 discriminator 1
 108 0012 2378     		ldrb	r3, [r4]	@ zero_extendqisi2
 109 0014 0133     		adds	r3, r3, #1
 110 0016 03F01F03 		and	r3, r3, #31
 111 001a 2370     		strb	r3, [r4]
 112              	.L5:
ARM GAS  C:\Users\jo\AppData\Local\Temp\cch6hXTv.s 			page 3


 113 001c 70BD     		pop	{r4, r5, r6, pc}
 114              	.LVL5:
 115              	.L10:
 116              		.loc 2 30 0 is_stmt 1
 117 001e 5A1C     		adds	r2, r3, #1
 118              		.loc 2 29 0
 119 0020 064E     		ldr	r6, .L11+8
 120              		.loc 2 31 0
 121 0022 0749     		ldr	r1, .L11+12
 122 0024 0546     		mov	r5, r0
 123              		.loc 2 30 0
 124 0026 D2B2     		uxtb	r2, r2
 125              		.loc 2 31 0
 126 0028 0648     		ldr	r0, .L11+16
 127              	.LVL6:
 128              		.loc 2 30 0
 129 002a 2270     		strb	r2, [r4]
 130              		.loc 2 29 0
 131 002c F554     		strb	r5, [r6, r3]
 132              		.loc 2 31 0
 133 002e FFF7FEFF 		bl	chprintf.constprop.0
 134              	.LVL7:
 135 0032 EAE7     		b	.L6
 136              	.L12:
 137              		.align	2
 138              	.L11:
 139 0034 00000000 		.word	.LANCHOR0
 140 0038 00000000 		.word	.LANCHOR2
 141 003c 00000000 		.word	.LANCHOR1
 142 0040 00000000 		.word	.LC0
 143 0044 00000000 		.word	itm_port
 144              		.cfi_endproc
 145              	.LFE227:
 146              		.size	Fill_queue, .-Fill_queue
 147 0048 AFF30080 		.section	.text.Empty_queue,"ax",%progbits
 147      AFF30080 
 148              		.align	2
 149              		.p2align 4,,15
 150              		.global	Empty_queue
 151              		.thumb
 152              		.thumb_func
 153              		.type	Empty_queue, %function
 154              	Empty_queue:
 155              	.LFB228:
 156              		.loc 2 36 0
 157              		.cfi_startproc
 158              		@ args = 0, pretend = 0, frame = 0
 159              		@ frame_needed = 0, uses_anonymous_args = 0
 160 0000 38B5     		push	{r3, r4, r5, lr}
 161              		.cfi_def_cfa_offset 16
 162              		.cfi_offset 3, -16
 163              		.cfi_offset 4, -12
 164              		.cfi_offset 5, -8
 165              		.cfi_offset 14, -4
 166              		.loc 2 39 0
 167 0002 0B4C     		ldr	r4, .L17
 168 0004 0B4B     		ldr	r3, .L17+4
ARM GAS  C:\Users\jo\AppData\Local\Temp\cch6hXTv.s 			page 4


 169 0006 2278     		ldrb	r2, [r4]	@ zero_extendqisi2
 170 0008 9D5C     		ldrb	r5, [r3, r2]	@ zero_extendqisi2
 171              	.LVL8:
 172              		.loc 2 42 0
 173 000a 0B4B     		ldr	r3, .L17+8
 174              		.loc 2 41 0
 175 000c 1F2A     		cmp	r2, #31
 176              		.loc 2 42 0
 177 000e 1B78     		ldrb	r3, [r3]	@ zero_extendqisi2
 178              		.loc 2 41 0
 179 0010 04BF     		itt	eq
 180 0012 0022     		moveq	r2, #0
 181 0014 2270     		strbeq	r2, [r4]
 182              		.loc 2 42 0
 183 0016 9342     		cmp	r3, r2
 184 0018 07D0     		beq	.L15
 185              		.loc 2 43 0
 186 001a 0132     		adds	r2, r2, #1
 187 001c D3B2     		uxtb	r3, r2
 188              		.loc 2 44 0
 189 001e 1A46     		mov	r2, r3
 190 0020 0648     		ldr	r0, .L17+12
 191 0022 0749     		ldr	r1, .L17+16
 192              		.loc 2 43 0
 193 0024 2370     		strb	r3, [r4]
 194              		.loc 2 44 0
 195 0026 FFF7FEFF 		bl	chprintf.constprop.0
 196              	.LVL9:
 197              	.L15:
 198              		.loc 2 48 0
 199 002a 2846     		mov	r0, r5
 200 002c 38BD     		pop	{r3, r4, r5, pc}
 201              	.LVL10:
 202              	.L18:
 203 002e 00BF     		.align	2
 204              	.L17:
 205 0030 00000000 		.word	.LANCHOR2
 206 0034 00000000 		.word	.LANCHOR1
 207 0038 00000000 		.word	.LANCHOR0
 208 003c 00000000 		.word	itm_port
 209 0040 10000000 		.word	.LC1
 210              		.cfi_endproc
 211              	.LFE228:
 212              		.size	Empty_queue, .-Empty_queue
 213 0044 AFF30080 		.section	.text.En_queue,"ax",%progbits
 213      AFF30080 
 213      AFF30080 
 214              		.align	2
 215              		.p2align 4,,15
 216              		.global	En_queue
 217              		.thumb
 218              		.thumb_func
 219              		.type	En_queue, %function
 220              	En_queue:
 221              	.LFB229:
 222              		.loc 2 50 0
 223              		.cfi_startproc
ARM GAS  C:\Users\jo\AppData\Local\Temp\cch6hXTv.s 			page 5


 224              		@ args = 0, pretend = 0, frame = 0
 225              		@ frame_needed = 0, uses_anonymous_args = 0
 226              		@ link register save eliminated.
 227              	.LVL11:
 228 0000 70B4     		push	{r4, r5, r6}
 229              		.cfi_def_cfa_offset 12
 230              		.cfi_offset 4, -12
 231              		.cfi_offset 5, -8
 232              		.cfi_offset 6, -4
 233              		.loc 2 51 0
 234 0002 0B4B     		ldr	r3, .L23
 235 0004 0B4C     		ldr	r4, .L23+4
 236 0006 1B78     		ldrb	r3, [r3]	@ zero_extendqisi2
 237 0008 2178     		ldrb	r1, [r4]	@ zero_extendqisi2
 238 000a CB1A     		subs	r3, r1, r3
 239 000c 202B     		cmp	r3, #32
 240 000e 01DD     		ble	.L22
 241              		.loc 2 56 0
 242 0010 70BC     		pop	{r4, r5, r6}
 243              		.cfi_remember_state
 244              		.cfi_restore 6
 245              		.cfi_restore 5
 246              		.cfi_restore 4
 247              		.cfi_def_cfa_offset 0
 248 0012 7047     		bx	lr
 249              	.L22:
 250              		.cfi_restore_state
 251              		.loc 2 53 0
 252 0014 4A1C     		adds	r2, r1, #1
 253              		.loc 2 52 0
 254 0016 01F01F03 		and	r3, r1, #31
 255 001a 074E     		ldr	r6, .L23+8
 256              		.loc 2 54 0
 257 001c 0749     		ldr	r1, .L23+12
 258 001e 0546     		mov	r5, r0
 259              		.loc 2 53 0
 260 0020 D2B2     		uxtb	r2, r2
 261 0022 2270     		strb	r2, [r4]
 262              		.loc 2 52 0
 263 0024 F554     		strb	r5, [r6, r3]
 264              		.loc 2 54 0
 265 0026 0648     		ldr	r0, .L23+16
 266              	.LVL12:
 267              		.loc 2 56 0
 268 0028 70BC     		pop	{r4, r5, r6}
 269              		.cfi_restore 6
 270              		.cfi_restore 5
 271              		.cfi_restore 4
 272              		.cfi_def_cfa_offset 0
 273              		.loc 2 54 0
 274 002a FFF7FEBF 		b	chprintf.constprop.0
 275              	.LVL13:
 276              	.L24:
 277 002e 00BF     		.align	2
 278              	.L23:
 279 0030 00000000 		.word	.LANCHOR4
 280 0034 00000000 		.word	.LANCHOR3
ARM GAS  C:\Users\jo\AppData\Local\Temp\cch6hXTv.s 			page 6


 281 0038 00000000 		.word	.LANCHOR1
 282 003c 00000000 		.word	.LC0
 283 0040 00000000 		.word	itm_port
 284              		.cfi_endproc
 285              	.LFE229:
 286              		.size	En_queue, .-En_queue
 287 0044 AFF30080 		.section	.text.De_queue,"ax",%progbits
 287      AFF30080 
 287      AFF30080 
 288              		.align	2
 289              		.p2align 4,,15
 290              		.global	De_queue
 291              		.thumb
 292              		.thumb_func
 293              		.type	De_queue, %function
 294              	De_queue:
 295              	.LFB230:
 296              		.loc 2 58 0
 297              		.cfi_startproc
 298              		@ args = 0, pretend = 0, frame = 0
 299              		@ frame_needed = 0, uses_anonymous_args = 0
 300 0000 38B5     		push	{r3, r4, r5, lr}
 301              		.cfi_def_cfa_offset 16
 302              		.cfi_offset 3, -16
 303              		.cfi_offset 4, -12
 304              		.cfi_offset 5, -8
 305              		.cfi_offset 14, -4
 306              		.loc 2 61 0
 307 0002 0B4D     		ldr	r5, .L30
 308 0004 0B4B     		ldr	r3, .L30+4
 309 0006 2A78     		ldrb	r2, [r5]	@ zero_extendqisi2
 310 0008 1B78     		ldrb	r3, [r3]	@ zero_extendqisi2
 311 000a 9342     		cmp	r3, r2
 312 000c 01D8     		bhi	.L29
 313              		.loc 2 69 0
 314 000e 0020     		movs	r0, #0
 315              		.loc 2 70 0
 316 0010 38BD     		pop	{r3, r4, r5, pc}
 317              	.L29:
 318              		.loc 2 62 0
 319 0012 02F01F03 		and	r3, r2, #31
 320 0016 0849     		ldr	r1, .L30+8
 321              		.loc 2 64 0
 322 0018 0848     		ldr	r0, .L30+12
 323              		.loc 2 62 0
 324 001a CC5C     		ldrb	r4, [r1, r3]	@ zero_extendqisi2
 325              	.LVL14:
 326              		.loc 2 64 0
 327 001c 0849     		ldr	r1, .L30+16
 328              		.loc 2 63 0
 329 001e 0132     		adds	r2, r2, #1
 330 0020 D3B2     		uxtb	r3, r2
 331              		.loc 2 64 0
 332 0022 1A46     		mov	r2, r3
 333              		.loc 2 63 0
 334 0024 2B70     		strb	r3, [r5]
 335              		.loc 2 64 0
ARM GAS  C:\Users\jo\AppData\Local\Temp\cch6hXTv.s 			page 7


 336 0026 FFF7FEFF 		bl	chprintf.constprop.0
 337              	.LVL15:
 338              		.loc 2 66 0
 339 002a 2046     		mov	r0, r4
 340 002c 38BD     		pop	{r3, r4, r5, pc}
 341              	.LVL16:
 342              	.L31:
 343 002e 00BF     		.align	2
 344              	.L30:
 345 0030 00000000 		.word	.LANCHOR4
 346 0034 00000000 		.word	.LANCHOR3
 347 0038 00000000 		.word	.LANCHOR1
 348 003c 00000000 		.word	itm_port
 349 0040 10000000 		.word	.LC1
 350              		.cfi_endproc
 351              	.LFE230:
 352              		.size	De_queue, .-De_queue
 353              		.global	Rdpos
 354              		.global	Wrpos
 355              		.global	ReadPos
 356              		.global	WritePos
 357              		.global	Queue
 358 0044 AFF30080 		.section	.bss.ReadPos,"aw",%nobits
 358      AFF30080 
 358      AFF30080 
 359              		.set	.LANCHOR2,. + 0
 360              		.type	ReadPos, %object
 361              		.size	ReadPos, 1
 362              	ReadPos:
 363 0000 00       		.space	1
 364              		.section	.bss.Rdpos,"aw",%nobits
 365              		.set	.LANCHOR4,. + 0
 366              		.type	Rdpos, %object
 367              		.size	Rdpos, 1
 368              	Rdpos:
 369 0000 00       		.space	1
 370              		.section	.bss.Queue,"aw",%nobits
 371              		.align	2
 372              		.set	.LANCHOR1,. + 0
 373              		.type	Queue, %object
 374              		.size	Queue, 32
 375              	Queue:
 376 0000 00000000 		.space	32
 376      00000000 
 376      00000000 
 376      00000000 
 376      00000000 
 377              		.section	.rodata.str1.4,"aMS",%progbits,1
 378              		.align	2
 379              	.LC0:
 380 0000 57726974 		.ascii	"WritePos: %d\012\000"
 380      65506F73 
 380      3A202564 
 380      0A00
 381 000e 0000     		.space	2
 382              	.LC1:
 383 0010 52656164 		.ascii	"ReadPos: %d\012\000"
ARM GAS  C:\Users\jo\AppData\Local\Temp\cch6hXTv.s 			page 8


 383      506F733A 
 383      2025640A 
 383      00
 384 001d 000000   		.section	.bss.Wrpos,"aw",%nobits
 385              		.set	.LANCHOR3,. + 0
 386              		.type	Wrpos, %object
 387              		.size	Wrpos, 1
 388              	Wrpos:
 389 0000 00       		.space	1
 390              		.section	.bss.WritePos,"aw",%nobits
 391              		.set	.LANCHOR0,. + 0
 392              		.type	WritePos, %object
 393              		.size	WritePos, 1
 394              	WritePos:
 395 0000 00       		.space	1
 396              		.text
 397              	.Letext0:
 398              		.file 3 "c:\\program files\\gnu tools arm embedded\\4.9 2014q4\\lib\\gcc\\arm-none-eabi\\4.9.3\\in
 399              		.file 4 "c:\\program files\\gnu tools arm embedded\\4.9 2014q4\\arm-none-eabi\\include\\machine\\_
 400              		.file 5 "c:\\program files\\gnu tools arm embedded\\4.9 2014q4\\arm-none-eabi\\include\\stdint.h"
 401              		.file 6 "../../../os/rt/ports/ARMCMx/compilers/GCC/chtypes.h"
 402              		.file 7 "../../../os/rt/include/chsystypes.h"
 403              		.file 8 "../../../os/rt/include/chschd.h"
 404              		.file 9 "../../../os/rt/ports/ARMCMx/chcore.h"
 405              		.file 10 "../../../os/rt/ports/ARMCMx/chcore_v7m.h"
 406              		.file 11 "../../../os/rt/include/chdebug.h"
 407              		.file 12 "../../../os/rt/include/chtm.h"
 408              		.file 13 "../../../os/rt/include/chstats.h"
 409              		.file 14 "../../../os/rt/include/chmtx.h"
 410              		.file 15 "../../../os/rt/include/chstreams.h"
 411              		.file 16 "ITM_trace.h"
 412              		.file 17 "c:\\program files\\gnu tools arm embedded\\4.9 2014q4\\lib\\gcc\\arm-none-eabi\\4.9.3\\i
 413              		.file 18 "<built-in>"
 414              		.file 19 "../../../os/ext/CMSIS/include/core_cm4.h"