ARM GAS  C:\Users\jo\AppData\Local\Temp\ccU96Vbk.s 			page 1


   1              		.syntax unified
   2              		.cpu cortex-m4
   3              		.fpu softvfp
   4              		.eabi_attribute 20, 1
   5              		.eabi_attribute 21, 1
   6              		.eabi_attribute 23, 3
   7              		.eabi_attribute 24, 1
   8              		.eabi_attribute 25, 1
   9              		.eabi_attribute 26, 1
  10              		.eabi_attribute 30, 2
  11              		.eabi_attribute 34, 1
  12              		.eabi_attribute 18, 4
  13              		.thumb
  14              		.file	"serial_lld.c"
  15              		.text
  16              	.Ltext0:
  17              		.cfi_sections	.debug_frame
  18              		.section	.text.notify2,"ax",%progbits
  19              		.align	2
  20              		.p2align 4,,15
  21              		.thumb
  22              		.thumb_func
  23              		.type	notify2, %function
  24              	notify2:
  25              	.LFB259:
  26              		.file 1 "../../../os/hal/ports/STM32/LLD/USARTv1/serial_lld.c"
  27              		.loc 1 216 0
  28              		.cfi_startproc
  29              		@ args = 0, pretend = 0, frame = 0
  30              		@ frame_needed = 0, uses_anonymous_args = 0
  31              		@ link register save eliminated.
  32              	.LVL0:
  33              		.loc 1 219 0
  34 0000 024A     		ldr	r2, .L2
  35 0002 D368     		ldr	r3, [r2, #12]
  36 0004 43F08003 		orr	r3, r3, #128
  37 0008 D360     		str	r3, [r2, #12]
  38 000a 7047     		bx	lr
  39              	.L3:
  40              		.align	2
  41              	.L2:
  42 000c 00440040 		.word	1073759232
  43              		.cfi_endproc
  44              	.LFE259:
  45              		.size	notify2, .-notify2
  46              		.section	.text.VectorD8,"ax",%progbits
  47              		.align	2
  48              		.p2align 4,,15
  49              		.global	VectorD8
  50              		.thumb
  51              		.thumb_func
  52              		.type	VectorD8, %function
  53              	VectorD8:
  54              	.LFB260:
  55              		.loc 1 287 0
  56              		.cfi_startproc
  57              		@ args = 0, pretend = 0, frame = 0
ARM GAS  C:\Users\jo\AppData\Local\Temp\ccU96Vbk.s 			page 2


  58              		@ frame_needed = 0, uses_anonymous_args = 0
  59 0000 F8B5     		push	{r3, r4, r5, r6, r7, lr}
  60              		.cfi_def_cfa_offset 24
  61              		.cfi_offset 3, -24
  62              		.cfi_offset 4, -20
  63              		.cfi_offset 5, -16
  64              		.cfi_offset 6, -12
  65              		.cfi_offset 7, -8
  66              		.cfi_offset 14, -4
  67              	.LBB254:
  68              	.LBB255:
  69              		.loc 1 154 0
  70 0002 5A4E     		ldr	r6, .L60
  71              	.LBE255:
  72              	.LBE254:
  73              		.loc 1 289 0
  74 0004 FFF7FEFF 		bl	_stats_increase_irq
  75              	.LVL1:
  76 0008 FFF7FEFF 		bl	_dbg_check_enter_isr
  77              	.LVL2:
  78              	.LBB333:
  79              	.LBB330:
  80              		.loc 1 154 0
  81 000c 756F     		ldr	r5, [r6, #116]
  82              	.LVL3:
  83              		.loc 1 155 0
  84 000e EF68     		ldr	r7, [r5, #12]
  85              	.LVL4:
  86              		.loc 1 156 0
  87 0010 2B68     		ldr	r3, [r5]
  88              		.loc 1 159 0
  89 0012 DA05     		lsls	r2, r3, #23
  90              		.loc 1 156 0
  91 0014 9CB2     		uxth	r4, r3
  92              	.LVL5:
  93              		.loc 1 159 0
  94 0016 69D4     		bmi	.L54
  95              	.L5:
  96              	.LVL6:
  97              	.LBB256:
  98              	.LBB257:
  99              	.LBB258:
 100              	.LBB259:
 101              	.LBB260:
 102              	.LBB261:
 103              	.LBB262:
 104              		.file 2 "../../../os/ext/CMSIS/include/core_cmFunc.h"
 105              		.loc 2 546 0
 106 0018 2023     		movs	r3, #32
 107              	@ 546 "../../../os/ext/CMSIS/include/core_cmFunc.h" 1
 108 001a 83F31188 		MSR basepri, r3
 109              	@ 0 "" 2
 110              		.thumb
 111              	.LBE262:
 112              	.LBE261:
 113              	.LBE260:
 114              	.LBE259:
ARM GAS  C:\Users\jo\AppData\Local\Temp\ccU96Vbk.s 			page 3


 115              		.file 3 "../../../os/rt/include/chsys.h"
 116              		.loc 3 339 0
 117 001e FFF7FEFF 		bl	_stats_start_measure_crit_isr
 118              	.LVL7:
 119              		.loc 3 340 0
 120 0022 FFF7FEFF 		bl	_dbg_check_lock_from_isr
 121              	.LVL8:
 122              	.LBE258:
 123              	.LBE257:
 124              	.LBE256:
 125              		.loc 1 168 0
 126 0026 14F02F0F 		tst	r4, #47
 127 002a 08D1     		bne	.L13
 128 002c 29E0     		b	.L6
 129              	.L7:
 130              	.LBB263:
 131              		.loc 1 176 0
 132 002e A006     		lsls	r0, r4, #26
 133              		.loc 1 175 0
 134 0030 6968     		ldr	r1, [r5, #4]
 135              	.LVL9:
 136              		.loc 1 176 0
 137 0032 1DD4     		bmi	.L55
 138              	.L12:
 139              		.loc 1 178 0
 140 0034 2C68     		ldr	r4, [r5]
 141              	.LVL10:
 142 0036 A4B2     		uxth	r4, r4
 143              	.LVL11:
 144              	.LBE263:
 145              		.loc 1 168 0
 146 0038 14F02F0F 		tst	r4, #47
 147 003c 21D0     		beq	.L6
 148              	.LVL12:
 149              	.L13:
 150              	.LBB268:
 151              		.loc 1 173 0
 152 003e 2307     		lsls	r3, r4, #28
 153 0040 F5D0     		beq	.L7
 154              	.LVL13:
 155              	.LBB264:
 156              	.LBB265:
 157              		.loc 1 138 0
 158 0042 14F0080F 		tst	r4, #8
 159 0046 0CBF     		ite	eq
 160 0048 0021     		moveq	r1, #0
 161 004a 8021     		movne	r1, #128
 162              	.LVL14:
 163              		.loc 1 139 0
 164 004c E007     		lsls	r0, r4, #31
 165              		.loc 1 140 0
 166 004e 48BF     		it	mi
 167 0050 41F02001 		orrmi	r1, r1, #32
 168              	.LVL15:
 169              		.loc 1 141 0
 170 0054 A207     		lsls	r2, r4, #30
 171              		.loc 1 142 0
ARM GAS  C:\Users\jo\AppData\Local\Temp\ccU96Vbk.s 			page 4


 172 0056 48BF     		it	mi
 173 0058 41F04001 		orrmi	r1, r1, #64
 174              	.LVL16:
 175              		.loc 1 143 0
 176 005c 6307     		lsls	r3, r4, #29
 177              		.loc 1 144 0
 178 005e 48BF     		it	mi
 179 0060 41F48071 		orrmi	r1, r1, #256
 180              	.LVL17:
 181              	.LBB266:
 182              	.LBB267:
 183              		.file 4 "../../../os/hal/osal/rt/osal.h"
 184              		.loc 4 776 0
 185 0064 4248     		ldr	r0, .L60+4
 186 0066 FFF7FEFF 		bl	chEvtBroadcastFlagsI
 187              	.LVL18:
 188              	.LBE267:
 189              	.LBE266:
 190              	.LBE265:
 191              	.LBE264:
 192              		.loc 1 176 0
 193 006a A006     		lsls	r0, r4, #26
 194              		.loc 1 175 0
 195 006c 6968     		ldr	r1, [r5, #4]
 196              	.LVL19:
 197              		.loc 1 176 0
 198 006e E1D5     		bpl	.L12
 199              	.LVL20:
 200              	.L55:
 201              		.loc 1 177 0
 202 0070 C9B2     		uxtb	r1, r1
 203 0072 3E48     		ldr	r0, .L60
 204 0074 FFF7FEFF 		bl	sdIncomingDataI
 205              	.LVL21:
 206              		.loc 1 178 0
 207 0078 2C68     		ldr	r4, [r5]
 208              	.LVL22:
 209 007a A4B2     		uxth	r4, r4
 210              	.LVL23:
 211              	.LBE268:
 212              		.loc 1 168 0
 213 007c 14F02F0F 		tst	r4, #47
 214 0080 DDD1     		bne	.L13
 215              	.L6:
 216              	.LBB269:
 217              	.LBB270:
 218              	.LBB271:
 219              		.loc 3 358 0
 220 0082 FFF7FEFF 		bl	_dbg_check_unlock_from_isr
 221              	.LVL24:
 222              		.loc 3 359 0
 223 0086 FFF7FEFF 		bl	_stats_stop_measure_crit_isr
 224              	.LVL25:
 225              	.LBB272:
 226              	.LBB273:
 227              	.LBB274:
 228              	.LBB275:
ARM GAS  C:\Users\jo\AppData\Local\Temp\ccU96Vbk.s 			page 5


 229              		.loc 2 546 0
 230 008a 0023     		movs	r3, #0
 231              	@ 546 "../../../os/ext/CMSIS/include/core_cmFunc.h" 1
 232 008c 83F31188 		MSR basepri, r3
 233              	@ 0 "" 2
 234              		.thumb
 235              	.LBE275:
 236              	.LBE274:
 237              	.LBE273:
 238              	.LBE272:
 239              	.LBE271:
 240              	.LBE270:
 241              	.LBE269:
 242              		.loc 1 183 0
 243 0090 3906     		lsls	r1, r7, #24
 244 0092 01D5     		bpl	.L14
 245 0094 2206     		lsls	r2, r4, #24
 246 0096 40D4     		bmi	.L56
 247              	.L14:
 248              		.loc 1 197 0
 249 0098 6306     		lsls	r3, r4, #25
 250 009a 05D4     		bmi	.L57
 251              	.LBE330:
 252              	.LBE333:
 253              		.loc 1 293 0
 254 009c FFF7FEFF 		bl	_dbg_check_leave_isr
 255              	.LVL26:
 256              		.loc 1 294 0
 257 00a0 BDE8F840 		pop	{r3, r4, r5, r6, r7, lr}
 258              		.cfi_remember_state
 259              		.cfi_restore 14
 260              		.cfi_restore 7
 261              		.cfi_restore 6
 262              		.cfi_restore 5
 263              		.cfi_restore 4
 264              		.cfi_restore 3
 265              		.cfi_def_cfa_offset 0
 266              	.LVL27:
 267              		.loc 1 293 0
 268 00a4 FFF7FEBF 		b	_port_irq_epilogue
 269              	.LVL28:
 270              	.L57:
 271              		.cfi_restore_state
 272              	.LBB334:
 273              	.LBB331:
 274              	.LBB276:
 275              	.LBB277:
 276              	.LBB278:
 277              	.LBB279:
 278              	.LBB280:
 279              	.LBB281:
 280              	.LBB282:
 281              		.loc 2 546 0
 282 00a8 2023     		movs	r3, #32
 283              	@ 546 "../../../os/ext/CMSIS/include/core_cmFunc.h" 1
 284 00aa 83F31188 		MSR basepri, r3
 285              	@ 0 "" 2
ARM GAS  C:\Users\jo\AppData\Local\Temp\ccU96Vbk.s 			page 6


 286              		.thumb
 287              	.LBE282:
 288              	.LBE281:
 289              	.LBE280:
 290              	.LBE279:
 291              		.loc 3 339 0
 292 00ae FFF7FEFF 		bl	_stats_start_measure_crit_isr
 293              	.LVL29:
 294              		.loc 3 340 0
 295 00b2 FFF7FEFF 		bl	_dbg_check_lock_from_isr
 296              	.LVL30:
 297              	.LBE278:
 298              	.LBE277:
 299              	.LBE276:
 300              	.LBB283:
 301              	.LBB284:
 302              		.file 5 "../../../os/rt/include/chqueues.h"
 303              		.loc 5 385 0
 304 00b6 FFF7FEFF 		bl	chDbgCheckClassI
 305              	.LVL31:
 306              		.loc 5 387 0
 307 00ba 726C     		ldr	r2, [r6, #68]
 308 00bc B36C     		ldr	r3, [r6, #72]
 309 00be 2B48     		ldr	r0, .L60
 310 00c0 9A42     		cmp	r2, r3
 311 00c2 3FD0     		beq	.L58
 312              	.L18:
 313              	.LBE284:
 314              	.LBE283:
 315              		.loc 1 201 0
 316 00c4 4FF6BF73 		movw	r3, #65471
 317 00c8 3B40     		ands	r3, r3, r7
 318              		.loc 1 202 0
 319 00ca 6FF04002 		mvn	r2, #64
 320              		.loc 1 201 0
 321 00ce EB60     		str	r3, [r5, #12]
 322              		.loc 1 202 0
 323 00d0 2A60     		str	r2, [r5]
 324              	.LBB286:
 325              	.LBB287:
 326              	.LBB288:
 327              		.loc 3 358 0
 328 00d2 FFF7FEFF 		bl	_dbg_check_unlock_from_isr
 329              	.LVL32:
 330              		.loc 3 359 0
 331 00d6 FFF7FEFF 		bl	_stats_stop_measure_crit_isr
 332              	.LVL33:
 333              	.LBB289:
 334              	.LBB290:
 335              	.LBB291:
 336              	.LBB292:
 337              		.loc 2 546 0
 338 00da 0023     		movs	r3, #0
 339              	@ 546 "../../../os/ext/CMSIS/include/core_cmFunc.h" 1
 340 00dc 83F31188 		MSR basepri, r3
 341              	@ 0 "" 2
 342              		.thumb
ARM GAS  C:\Users\jo\AppData\Local\Temp\ccU96Vbk.s 			page 7


 343              	.LBE292:
 344              	.LBE291:
 345              	.LBE290:
 346              	.LBE289:
 347              	.LBE288:
 348              	.LBE287:
 349              	.LBE286:
 350              	.LBE331:
 351              	.LBE334:
 352              		.loc 1 293 0
 353 00e0 FFF7FEFF 		bl	_dbg_check_leave_isr
 354              	.LVL34:
 355              		.loc 1 294 0
 356 00e4 BDE8F840 		pop	{r3, r4, r5, r6, r7, lr}
 357              		.cfi_remember_state
 358              		.cfi_restore 3
 359              		.cfi_restore 4
 360              		.cfi_restore 5
 361              		.cfi_restore 6
 362              		.cfi_restore 7
 363              		.cfi_restore 14
 364              		.cfi_def_cfa_offset 0
 365              	.LVL35:
 366              		.loc 1 293 0
 367 00e8 FFF7FEBF 		b	_port_irq_epilogue
 368              	.LVL36:
 369              	.L54:
 370              		.cfi_restore_state
 371              	.LBB335:
 372              	.LBB332:
 373              	.LBB293:
 374              	.LBB294:
 375              	.LBB295:
 376              	.LBB296:
 377              	.LBB297:
 378              	.LBB298:
 379              	.LBB299:
 380              		.loc 2 546 0
 381 00ec 2023     		movs	r3, #32
 382              	@ 546 "../../../os/ext/CMSIS/include/core_cmFunc.h" 1
 383 00ee 83F31188 		MSR basepri, r3
 384              	@ 0 "" 2
 385              		.thumb
 386              	.LBE299:
 387              	.LBE298:
 388              	.LBE297:
 389              	.LBE296:
 390              		.loc 3 339 0
 391 00f2 FFF7FEFF 		bl	_stats_start_measure_crit_isr
 392              	.LVL37:
 393              		.loc 3 340 0
 394 00f6 FFF7FEFF 		bl	_dbg_check_lock_from_isr
 395              	.LVL38:
 396              	.LBE295:
 397              	.LBE294:
 398              	.LBE293:
 399              	.LBB300:
ARM GAS  C:\Users\jo\AppData\Local\Temp\ccU96Vbk.s 			page 8


 400              	.LBB301:
 401              		.loc 4 776 0
 402 00fa 301D     		adds	r0, r6, #4
 403 00fc 4FF40071 		mov	r1, #512
 404 0100 FFF7FEFF 		bl	chEvtBroadcastFlagsI
 405              	.LVL39:
 406              	.LBE301:
 407              	.LBE300:
 408              		.loc 1 162 0
 409 0104 6FF48073 		mvn	r3, #256
 410 0108 2B60     		str	r3, [r5]
 411              	.LBB302:
 412              	.LBB303:
 413              	.LBB304:
 414              		.loc 3 358 0
 415 010a FFF7FEFF 		bl	_dbg_check_unlock_from_isr
 416              	.LVL40:
 417              		.loc 3 359 0
 418 010e FFF7FEFF 		bl	_stats_stop_measure_crit_isr
 419              	.LVL41:
 420              	.LBB305:
 421              	.LBB306:
 422              	.LBB307:
 423              	.LBB308:
 424              		.loc 2 546 0
 425 0112 0023     		movs	r3, #0
 426              	@ 546 "../../../os/ext/CMSIS/include/core_cmFunc.h" 1
 427 0114 83F31188 		MSR basepri, r3
 428              	@ 0 "" 2
 429              		.thumb
 430 0118 7EE7     		b	.L5
 431              	.LVL42:
 432              	.L56:
 433              	.LBE308:
 434              	.LBE307:
 435              	.LBE306:
 436              	.LBE305:
 437              	.LBE304:
 438              	.LBE303:
 439              	.LBE302:
 440              	.LBB309:
 441              	.LBB310:
 442              	.LBB311:
 443              	.LBB312:
 444              	.LBB313:
 445              	.LBB314:
 446              	.LBB315:
 447              	.LBB316:
 448 011a 2023     		movs	r3, #32
 449              	@ 546 "../../../os/ext/CMSIS/include/core_cmFunc.h" 1
 450 011c 83F31188 		MSR basepri, r3
 451              	@ 0 "" 2
 452              		.thumb
 453              	.LBE316:
 454              	.LBE315:
 455              	.LBE314:
 456              	.LBE313:
ARM GAS  C:\Users\jo\AppData\Local\Temp\ccU96Vbk.s 			page 9


 457              		.loc 3 339 0
 458 0120 FFF7FEFF 		bl	_stats_start_measure_crit_isr
 459              	.LVL43:
 460              		.loc 3 340 0
 461 0124 FFF7FEFF 		bl	_dbg_check_lock_from_isr
 462              	.LVL44:
 463              	.LBE312:
 464              	.LBE311:
 465              	.LBE310:
 466              		.loc 1 186 0
 467 0128 1248     		ldr	r0, .L60+8
 468 012a FFF7FEFF 		bl	chOQGetI
 469              	.LVL45:
 470              		.loc 1 187 0
 471 012e 0028     		cmp	r0, #0
 472 0130 10DB     		blt	.L59
 473              		.loc 1 192 0
 474 0132 6860     		str	r0, [r5, #4]
 475              	.LVL46:
 476              	.L16:
 477              	.LBB317:
 478              	.LBB318:
 479              	.LBB319:
 480              		.loc 3 358 0
 481 0134 FFF7FEFF 		bl	_dbg_check_unlock_from_isr
 482              	.LVL47:
 483              		.loc 3 359 0
 484 0138 FFF7FEFF 		bl	_stats_stop_measure_crit_isr
 485              	.LVL48:
 486              	.LBB320:
 487              	.LBB321:
 488              	.LBB322:
 489              	.LBB323:
 490              		.loc 2 546 0
 491 013c 0023     		movs	r3, #0
 492              	@ 546 "../../../os/ext/CMSIS/include/core_cmFunc.h" 1
 493 013e 83F31188 		MSR basepri, r3
 494              	@ 0 "" 2
 495              		.thumb
 496 0142 A9E7     		b	.L14
 497              	.LVL49:
 498              	.L58:
 499              	.LBE323:
 500              	.LBE322:
 501              	.LBE321:
 502              	.LBE320:
 503              	.LBE319:
 504              	.LBE318:
 505              	.LBE317:
 506              	.LBE309:
 507              	.LBB326:
 508              	.LBB285:
 509              		.loc 5 387 0
 510 0144 836B     		ldr	r3, [r0, #56]
 511 0146 002B     		cmp	r3, #0
 512 0148 BCD0     		beq	.L18
 513              	.LVL50:
ARM GAS  C:\Users\jo\AppData\Local\Temp\ccU96Vbk.s 			page 10


 514              	.LBE285:
 515              	.LBE326:
 516              	.LBB327:
 517              	.LBB328:
 518              		.loc 4 776 0
 519 014a 0430     		adds	r0, r0, #4
 520 014c 1021     		movs	r1, #16
 521 014e FFF7FEFF 		bl	chEvtBroadcastFlagsI
 522              	.LVL51:
 523 0152 B7E7     		b	.L18
 524              	.LVL52:
 525              	.L59:
 526              	.LBE328:
 527              	.LBE327:
 528              	.LBB329:
 529              	.LBB324:
 530              	.LBB325:
 531 0154 0648     		ldr	r0, .L60+4
 532              	.LVL53:
 533 0156 0821     		movs	r1, #8
 534 0158 FFF7FEFF 		bl	chEvtBroadcastFlagsI
 535              	.LVL54:
 536              	.LBE325:
 537              	.LBE324:
 538              		.loc 1 189 0
 539 015c 4FF63F73 		movw	r3, #65343
 540 0160 3B40     		ands	r3, r3, r7
 541 0162 43F04003 		orr	r3, r3, #64
 542 0166 EB60     		str	r3, [r5, #12]
 543 0168 E4E7     		b	.L16
 544              	.L61:
 545 016a 00BF     		.align	2
 546              	.L60:
 547 016c 00000000 		.word	.LANCHOR0
 548 0170 04000000 		.word	.LANCHOR0+4
 549 0174 30000000 		.word	.LANCHOR0+48
 550              	.LBE329:
 551              	.LBE332:
 552              	.LBE335:
 553              		.cfi_endproc
 554              	.LFE260:
 555              		.size	VectorD8, .-VectorD8
 556 0178 AFF30080 		.section	.text.sd_lld_init,"ax",%progbits
 556      AFF30080 
 557              		.align	2
 558              		.p2align 4,,15
 559              		.global	sd_lld_init
 560              		.thumb
 561              		.thumb_func
 562              		.type	sd_lld_init, %function
 563              	sd_lld_init:
 564              	.LFB261:
 565              		.loc 1 382 0
 566              		.cfi_startproc
 567              		@ args = 0, pretend = 0, frame = 0
 568              		@ frame_needed = 0, uses_anonymous_args = 0
 569 0000 10B5     		push	{r4, lr}
ARM GAS  C:\Users\jo\AppData\Local\Temp\ccU96Vbk.s 			page 11


 570              		.cfi_def_cfa_offset 8
 571              		.cfi_offset 4, -8
 572              		.cfi_offset 14, -4
 573              		.loc 1 390 0
 574 0002 044C     		ldr	r4, .L64
 575 0004 044A     		ldr	r2, .L64+4
 576 0006 2046     		mov	r0, r4
 577 0008 0021     		movs	r1, #0
 578 000a FFF7FEFF 		bl	sdObjectInit
 579              	.LVL55:
 580              		.loc 1 391 0
 581 000e 034B     		ldr	r3, .L64+8
 582 0010 6367     		str	r3, [r4, #116]
 583 0012 10BD     		pop	{r4, pc}
 584              	.L65:
 585              		.align	2
 586              	.L64:
 587 0014 00000000 		.word	.LANCHOR0
 588 0018 00000000 		.word	notify2
 589 001c 00440040 		.word	1073759232
 590              		.cfi_endproc
 591              	.LFE261:
 592              		.size	sd_lld_init, .-sd_lld_init
 593              		.section	.text.sd_lld_start,"ax",%progbits
 594              		.align	2
 595              		.p2align 4,,15
 596              		.global	sd_lld_start
 597              		.thumb
 598              		.thumb_func
 599              		.type	sd_lld_start, %function
 600              	sd_lld_start:
 601              	.LFB262:
 602              		.loc 1 425 0
 603              		.cfi_startproc
 604              		@ args = 0, pretend = 0, frame = 0
 605              		@ frame_needed = 0, uses_anonymous_args = 0
 606              	.LVL56:
 607 0000 38B5     		push	{r3, r4, r5, lr}
 608              		.cfi_def_cfa_offset 16
 609              		.cfi_offset 3, -16
 610              		.cfi_offset 4, -12
 611              		.cfi_offset 5, -8
 612              		.cfi_offset 14, -4
 613              		.loc 1 428 0
 614 0002 1F4C     		ldr	r4, .L74
 615              		.loc 1 430 0
 616 0004 037A     		ldrb	r3, [r0, #8]	@ zero_extendqisi2
 617              		.loc 1 428 0
 618 0006 0029     		cmp	r1, #0
 619 0008 18BF     		it	ne
 620 000a 0C46     		movne	r4, r1
 621              	.LVL57:
 622              		.loc 1 430 0
 623 000c 012B     		cmp	r3, #1
 624              		.loc 1 425 0
 625 000e 0546     		mov	r5, r0
 626              		.loc 1 430 0
ARM GAS  C:\Users\jo\AppData\Local\Temp\ccU96Vbk.s 			page 12


 627 0010 22D0     		beq	.L73
 628              	.LVL58:
 629              	.L68:
 630 0012 6B6F     		ldr	r3, [r5, #116]
 631              	.LVL59:
 632              	.LBB338:
 633              	.LBB339:
 634              		.loc 1 96 0
 635 0014 1B4A     		ldr	r2, .L74+4
 636 0016 9342     		cmp	r3, r2
 637 0018 2BD0     		beq	.L69
 638 001a 02F58062 		add	r2, r2, #1024
 639 001e 9342     		cmp	r3, r2
 640 0020 27D0     		beq	.L69
 641              		.loc 1 102 0
 642 0022 2168     		ldr	r1, [r4]
 643 0024 184A     		ldr	r2, .L74+8
 644 0026 B2FBF1F2 		udiv	r2, r2, r1
 645 002a 9A60     		str	r2, [r3, #8]
 646              	.L71:
 647              		.loc 1 108 0
 648 002c A288     		ldrh	r2, [r4, #4]
 649              		.loc 1 105 0
 650 002e E088     		ldrh	r0, [r4, #6]
 651              		.loc 1 106 0
 652 0030 2189     		ldrh	r1, [r4, #8]
 653              		.loc 1 108 0
 654 0032 42F40452 		orr	r2, r2, #8448
 655              		.loc 1 105 0
 656 0036 40F04000 		orr	r0, r0, #64
 657              		.loc 1 108 0
 658 003a 42F02C02 		orr	r2, r2, #44
 659              		.loc 1 106 0
 660 003e 41F00101 		orr	r1, r1, #1
 661              		.loc 1 108 0
 662 0042 92B2     		uxth	r2, r2
 663              		.loc 1 105 0
 664 0044 80B2     		uxth	r0, r0
 665              		.loc 1 106 0
 666 0046 89B2     		uxth	r1, r1
 667              		.loc 1 110 0
 668 0048 0024     		movs	r4, #0
 669              	.LVL60:
 670              		.loc 1 105 0
 671 004a 1861     		str	r0, [r3, #16]
 672              		.loc 1 106 0
 673 004c 5961     		str	r1, [r3, #20]
 674              		.loc 1 107 0
 675 004e DA60     		str	r2, [r3, #12]
 676              		.loc 1 110 0
 677 0050 1C60     		str	r4, [r3]
 678              		.loc 1 111 0
 679 0052 1A68     		ldr	r2, [r3]
 680              		.loc 1 112 0
 681 0054 5B68     		ldr	r3, [r3, #4]
 682              	.LVL61:
 683 0056 38BD     		pop	{r3, r4, r5, pc}
ARM GAS  C:\Users\jo\AppData\Local\Temp\ccU96Vbk.s 			page 13


 684              	.LVL62:
 685              	.L73:
 686              	.LBE339:
 687              	.LBE338:
 688              		.loc 1 438 0
 689 0058 0C4B     		ldr	r3, .L74+12
 690 005a 9842     		cmp	r0, r3
 691 005c D9D1     		bne	.L68
 692              		.loc 1 439 0
 693 005e 0C4A     		ldr	r2, .L74+16
 694 0060 136C     		ldr	r3, [r2, #64]
 695 0062 43F40033 		orr	r3, r3, #131072
 696 0066 1364     		str	r3, [r2, #64]
 697              		.loc 1 440 0
 698 0068 2620     		movs	r0, #38
 699              	.LVL63:
 700 006a 0C21     		movs	r1, #12
 701 006c FFF7FEFF 		bl	nvicEnableVector
 702              	.LVL64:
 703 0070 CFE7     		b	.L68
 704              	.LVL65:
 705              	.L69:
 706              	.LBB341:
 707              	.LBB340:
 708              		.loc 1 100 0
 709 0072 2168     		ldr	r1, [r4]
 710 0074 074A     		ldr	r2, .L74+20
 711 0076 B2FBF1F2 		udiv	r2, r2, r1
 712 007a 9A60     		str	r2, [r3, #8]
 713 007c D6E7     		b	.L71
 714              	.L75:
 715 007e 00BF     		.align	2
 716              	.L74:
 717 0080 00000000 		.word	.LANCHOR1
 718 0084 00100140 		.word	1073811456
 719 0088 60343C02 		.word	37500000
 720 008c 00000000 		.word	.LANCHOR0
 721 0090 00380240 		.word	1073887232
 722 0094 C0687804 		.word	75000000
 723              	.LBE340:
 724              	.LBE341:
 725              		.cfi_endproc
 726              	.LFE262:
 727              		.size	sd_lld_start, .-sd_lld_start
 728 0098 AFF30080 		.section	.text.sd_lld_stop,"ax",%progbits
 728      AFF30080 
 729              		.align	2
 730              		.p2align 4,,15
 731              		.global	sd_lld_stop
 732              		.thumb
 733              		.thumb_func
 734              		.type	sd_lld_stop, %function
 735              	sd_lld_stop:
 736              	.LFB263:
 737              		.loc 1 480 0
 738              		.cfi_startproc
 739              		@ args = 0, pretend = 0, frame = 0
ARM GAS  C:\Users\jo\AppData\Local\Temp\ccU96Vbk.s 			page 14


 740              		@ frame_needed = 0, uses_anonymous_args = 0
 741              		@ link register save eliminated.
 742              	.LVL66:
 743              		.loc 1 482 0
 744 0000 037A     		ldrb	r3, [r0, #8]	@ zero_extendqisi2
 745 0002 022B     		cmp	r3, #2
 746 0004 00D0     		beq	.L80
 747              	.L76:
 748 0006 7047     		bx	lr
 749              	.L80:
 750              		.loc 1 492 0
 751 0008 0749     		ldr	r1, .L81
 752              		.loc 1 483 0
 753 000a 436F     		ldr	r3, [r0, #116]
 754              	.LVL67:
 755              	.LBB342:
 756              	.LBB343:
 757              		.loc 1 123 0
 758 000c 0022     		movs	r2, #0
 759              	.LBE343:
 760              	.LBE342:
 761              		.loc 1 492 0
 762 000e 8842     		cmp	r0, r1
 763              	.LBB345:
 764              	.LBB344:
 765              		.loc 1 123 0
 766 0010 DA60     		str	r2, [r3, #12]
 767              		.loc 1 124 0
 768 0012 1A61     		str	r2, [r3, #16]
 769              		.loc 1 125 0
 770 0014 5A61     		str	r2, [r3, #20]
 771              	.LBE344:
 772              	.LBE345:
 773              		.loc 1 492 0
 774 0016 F6D1     		bne	.L76
 775              		.loc 1 493 0
 776 0018 044A     		ldr	r2, .L81+4
 777 001a 136C     		ldr	r3, [r2, #64]
 778              	.LVL68:
 779 001c 23F40033 		bic	r3, r3, #131072
 780 0020 1364     		str	r3, [r2, #64]
 781              		.loc 1 494 0
 782 0022 2620     		movs	r0, #38
 783              	.LVL69:
 784 0024 FFF7FEBF 		b	nvicDisableVector
 785              	.LVL70:
 786              	.L82:
 787              		.align	2
 788              	.L81:
 789 0028 00000000 		.word	.LANCHOR0
 790 002c 00380240 		.word	1073887232
 791              		.cfi_endproc
 792              	.LFE263:
 793              		.size	sd_lld_stop, .-sd_lld_stop
 794              		.global	SD2
 795              		.section	.rodata.default_config,"a",%progbits
 796              		.align	2
ARM GAS  C:\Users\jo\AppData\Local\Temp\ccU96Vbk.s 			page 15


 797              		.set	.LANCHOR1,. + 0
 798              		.type	default_config, %object
 799              		.size	default_config, 12
 800              	default_config:
 801 0000 00960000 		.word	38400
 802 0004 0000     		.short	0
 803 0006 0040     		.short	16384
 804 0008 0000     		.short	0
 805 000a 0000     		.space	2
 806              		.section	.bss.SD2,"aw",%nobits
 807              		.align	2
 808              		.set	.LANCHOR0,. + 0
 809              		.type	SD2, %object
 810              		.size	SD2, 120
 811              	SD2:
 812 0000 00000000 		.space	120
 812      00000000 
 812      00000000 
 812      00000000 
 812      00000000 
 813              		.text
 814              	.Letext0:
 815              		.file 6 "c:\\program files\\gnu tools arm embedded\\4.9 2014q4\\lib\\gcc\\arm-none-eabi\\4.9.3\\in
 816              		.file 7 "c:\\program files\\gnu tools arm embedded\\4.9 2014q4\\arm-none-eabi\\include\\machine\\_
 817              		.file 8 "c:\\program files\\gnu tools arm embedded\\4.9 2014q4\\arm-none-eabi\\include\\stdint.h"
 818              		.file 9 "../../../os/rt/ports/ARMCMx/compilers/GCC/chtypes.h"
 819              		.file 10 "../../../os/rt/include/chsystypes.h"
 820              		.file 11 "../../../os/rt/include/chschd.h"
 821              		.file 12 "../../../os/ext/CMSIS/ST/stm32f407xx.h"
 822              		.file 13 "../../../os/rt/ports/ARMCMx/chcore.h"
 823              		.file 14 "../../../os/rt/ports/ARMCMx/chcore_v7m.h"
 824              		.file 15 "../../../os/rt/include/chdebug.h"
 825              		.file 16 "../../../os/rt/include/chtm.h"
 826              		.file 17 "../../../os/rt/include/chstats.h"
 827              		.file 18 "../../../os/rt/include/chmtx.h"
 828              		.file 19 "../../../os/rt/include/chevents.h"
 829              		.file 20 "../../../os/hal/include/serial.h"
 830              		.file 21 "../../../os/hal/ports/STM32/LLD/USARTv1/serial_lld.h"
 831              		.file 22 "../../../os/hal/ports/common/ARMCMx/nvic.h"
 832              		.file 23 "../../../os/ext/CMSIS/include/core_cm4.h"