ARM GAS  C:\Users\jo\AppData\Local\Temp\cciMZJsI.s 			page 1


   1              		.syntax unified
   2              		.cpu cortex-m4
   3              		.fpu softvfp
   4              		.eabi_attribute 20, 1
   5              		.eabi_attribute 21, 1
   6              		.eabi_attribute 23, 3
   7              		.eabi_attribute 24, 1
   8              		.eabi_attribute 25, 1
   9              		.eabi_attribute 26, 1
  10              		.eabi_attribute 30, 2
  11              		.eabi_attribute 34, 1
  12              		.eabi_attribute 18, 4
  13              		.thumb
  14              		.file	"stm32_dma.c"
  15              		.text
  16              	.Ltext0:
  17              		.cfi_sections	.debug_frame
  18              		.section	.text.Vector6C,"ax",%progbits
  19              		.align	2
  20              		.p2align 4,,15
  21              		.global	Vector6C
  22              		.thumb
  23              		.thumb_func
  24              		.type	Vector6C, %function
  25              	Vector6C:
  26              	.LFB255:
  27              		.file 1 "../../../os/hal/ports/STM32/STM32F4xx/stm32_dma.c"
  28              		.loc 1 127 0
  29              		.cfi_startproc
  30              		@ args = 0, pretend = 0, frame = 0
  31              		@ frame_needed = 0, uses_anonymous_args = 0
  32 0000 08B5     		push	{r3, lr}
  33              		.cfi_def_cfa_offset 8
  34              		.cfi_offset 3, -8
  35              		.cfi_offset 14, -4
  36              		.loc 1 130 0
  37 0002 FFF7FEFF 		bl	_stats_increase_irq
  38              	.LVL0:
  39 0006 FFF7FEFF 		bl	_dbg_check_enter_isr
  40              	.LVL1:
  41              		.loc 1 132 0
  42 000a 084B     		ldr	r3, .L8
  43              		.loc 1 134 0
  44 000c 084A     		ldr	r2, .L8+4
  45              		.loc 1 132 0
  46 000e 1968     		ldr	r1, [r3]
  47 0010 01F03D01 		and	r1, r1, #61
  48              	.LVL2:
  49              		.loc 1 133 0
  50 0014 9960     		str	r1, [r3, #8]
  51              		.loc 1 134 0
  52 0016 1368     		ldr	r3, [r2]
  53 0018 0BB1     		cbz	r3, .L2
  54              		.loc 1 135 0
  55 001a 5068     		ldr	r0, [r2, #4]
  56 001c 9847     		blx	r3
  57              	.LVL3:
ARM GAS  C:\Users\jo\AppData\Local\Temp\cciMZJsI.s 			page 2


  58              	.L2:
  59              		.loc 1 137 0
  60 001e FFF7FEFF 		bl	_dbg_check_leave_isr
  61              	.LVL4:
  62              		.loc 1 138 0
  63 0022 BDE80840 		pop	{r3, lr}
  64              		.cfi_restore 14
  65              		.cfi_restore 3
  66              		.cfi_def_cfa_offset 0
  67              		.loc 1 137 0
  68 0026 FFF7FEBF 		b	_port_irq_epilogue
  69              	.LVL5:
  70              	.L9:
  71 002a 00BF     		.align	2
  72              	.L8:
  73 002c 00600240 		.word	1073897472
  74 0030 00000000 		.word	.LANCHOR0
  75              		.cfi_endproc
  76              	.LFE255:
  77              		.size	Vector6C, .-Vector6C
  78 0034 AFF30080 		.section	.text.Vector70,"ax",%progbits
  78      AFF30080 
  78      AFF30080 
  79              		.align	2
  80              		.p2align 4,,15
  81              		.global	Vector70
  82              		.thumb
  83              		.thumb_func
  84              		.type	Vector70, %function
  85              	Vector70:
  86              	.LFB256:
  87              		.loc 1 145 0
  88              		.cfi_startproc
  89              		@ args = 0, pretend = 0, frame = 0
  90              		@ frame_needed = 0, uses_anonymous_args = 0
  91 0000 10B5     		push	{r4, lr}
  92              		.cfi_def_cfa_offset 8
  93              		.cfi_offset 4, -8
  94              		.cfi_offset 14, -4
  95              		.loc 1 148 0
  96 0002 FFF7FEFF 		bl	_stats_increase_irq
  97              	.LVL6:
  98 0006 FFF7FEFF 		bl	_dbg_check_enter_isr
  99              	.LVL7:
 100              		.loc 1 150 0
 101 000a 094B     		ldr	r3, .L16
 102              		.loc 1 152 0
 103 000c 0948     		ldr	r0, .L16+4
 104              		.loc 1 150 0
 105 000e 1968     		ldr	r1, [r3]
 106              		.loc 1 152 0
 107 0010 8268     		ldr	r2, [r0, #8]
 108              		.loc 1 150 0
 109 0012 8909     		lsrs	r1, r1, #6
 110 0014 01F03D01 		and	r1, r1, #61
 111              	.LVL8:
 112              		.loc 1 151 0
ARM GAS  C:\Users\jo\AppData\Local\Temp\cciMZJsI.s 			page 3


 113 0018 8C01     		lsls	r4, r1, #6
 114 001a 9C60     		str	r4, [r3, #8]
 115              		.loc 1 152 0
 116 001c 0AB1     		cbz	r2, .L11
 117              		.loc 1 153 0
 118 001e C068     		ldr	r0, [r0, #12]
 119 0020 9047     		blx	r2
 120              	.LVL9:
 121              	.L11:
 122              		.loc 1 155 0
 123 0022 FFF7FEFF 		bl	_dbg_check_leave_isr
 124              	.LVL10:
 125              		.loc 1 156 0
 126 0026 BDE81040 		pop	{r4, lr}
 127              		.cfi_restore 14
 128              		.cfi_restore 4
 129              		.cfi_def_cfa_offset 0
 130              		.loc 1 155 0
 131 002a FFF7FEBF 		b	_port_irq_epilogue
 132              	.LVL11:
 133              	.L17:
 134 002e 00BF     		.align	2
 135              	.L16:
 136 0030 00600240 		.word	1073897472
 137 0034 00000000 		.word	.LANCHOR0
 138              		.cfi_endproc
 139              	.LFE256:
 140              		.size	Vector70, .-Vector70
 141 0038 AFF30080 		.section	.text.Vector74,"ax",%progbits
 141      AFF30080 
 142              		.align	2
 143              		.p2align 4,,15
 144              		.global	Vector74
 145              		.thumb
 146              		.thumb_func
 147              		.type	Vector74, %function
 148              	Vector74:
 149              	.LFB257:
 150              		.loc 1 163 0
 151              		.cfi_startproc
 152              		@ args = 0, pretend = 0, frame = 0
 153              		@ frame_needed = 0, uses_anonymous_args = 0
 154 0000 10B5     		push	{r4, lr}
 155              		.cfi_def_cfa_offset 8
 156              		.cfi_offset 4, -8
 157              		.cfi_offset 14, -4
 158              		.loc 1 166 0
 159 0002 FFF7FEFF 		bl	_stats_increase_irq
 160              	.LVL12:
 161 0006 FFF7FEFF 		bl	_dbg_check_enter_isr
 162              	.LVL13:
 163              		.loc 1 168 0
 164 000a 094B     		ldr	r3, .L24
 165              		.loc 1 170 0
 166 000c 0948     		ldr	r0, .L24+4
 167              		.loc 1 168 0
 168 000e 1968     		ldr	r1, [r3]
ARM GAS  C:\Users\jo\AppData\Local\Temp\cciMZJsI.s 			page 4


 169              		.loc 1 170 0
 170 0010 0269     		ldr	r2, [r0, #16]
 171              		.loc 1 168 0
 172 0012 090C     		lsrs	r1, r1, #16
 173 0014 01F03D01 		and	r1, r1, #61
 174              	.LVL14:
 175              		.loc 1 169 0
 176 0018 0C04     		lsls	r4, r1, #16
 177 001a 9C60     		str	r4, [r3, #8]
 178              		.loc 1 170 0
 179 001c 0AB1     		cbz	r2, .L19
 180              		.loc 1 171 0
 181 001e 4069     		ldr	r0, [r0, #20]
 182 0020 9047     		blx	r2
 183              	.LVL15:
 184              	.L19:
 185              		.loc 1 173 0
 186 0022 FFF7FEFF 		bl	_dbg_check_leave_isr
 187              	.LVL16:
 188              		.loc 1 174 0
 189 0026 BDE81040 		pop	{r4, lr}
 190              		.cfi_restore 14
 191              		.cfi_restore 4
 192              		.cfi_def_cfa_offset 0
 193              		.loc 1 173 0
 194 002a FFF7FEBF 		b	_port_irq_epilogue
 195              	.LVL17:
 196              	.L25:
 197 002e 00BF     		.align	2
 198              	.L24:
 199 0030 00600240 		.word	1073897472
 200 0034 00000000 		.word	.LANCHOR0
 201              		.cfi_endproc
 202              	.LFE257:
 203              		.size	Vector74, .-Vector74
 204 0038 AFF30080 		.section	.text.Vector78,"ax",%progbits
 204      AFF30080 
 205              		.align	2
 206              		.p2align 4,,15
 207              		.global	Vector78
 208              		.thumb
 209              		.thumb_func
 210              		.type	Vector78, %function
 211              	Vector78:
 212              	.LFB258:
 213              		.loc 1 181 0
 214              		.cfi_startproc
 215              		@ args = 0, pretend = 0, frame = 0
 216              		@ frame_needed = 0, uses_anonymous_args = 0
 217 0000 10B5     		push	{r4, lr}
 218              		.cfi_def_cfa_offset 8
 219              		.cfi_offset 4, -8
 220              		.cfi_offset 14, -4
 221              		.loc 1 184 0
 222 0002 FFF7FEFF 		bl	_stats_increase_irq
 223              	.LVL18:
 224 0006 FFF7FEFF 		bl	_dbg_check_enter_isr
ARM GAS  C:\Users\jo\AppData\Local\Temp\cciMZJsI.s 			page 5


 225              	.LVL19:
 226              		.loc 1 186 0
 227 000a 094B     		ldr	r3, .L32
 228              		.loc 1 188 0
 229 000c 0948     		ldr	r0, .L32+4
 230              		.loc 1 186 0
 231 000e 1968     		ldr	r1, [r3]
 232              		.loc 1 188 0
 233 0010 8269     		ldr	r2, [r0, #24]
 234              		.loc 1 186 0
 235 0012 890D     		lsrs	r1, r1, #22
 236 0014 01F03D01 		and	r1, r1, #61
 237              	.LVL20:
 238              		.loc 1 187 0
 239 0018 8C05     		lsls	r4, r1, #22
 240 001a 9C60     		str	r4, [r3, #8]
 241              		.loc 1 188 0
 242 001c 0AB1     		cbz	r2, .L27
 243              		.loc 1 189 0
 244 001e C069     		ldr	r0, [r0, #28]
 245 0020 9047     		blx	r2
 246              	.LVL21:
 247              	.L27:
 248              		.loc 1 191 0
 249 0022 FFF7FEFF 		bl	_dbg_check_leave_isr
 250              	.LVL22:
 251              		.loc 1 192 0
 252 0026 BDE81040 		pop	{r4, lr}
 253              		.cfi_restore 14
 254              		.cfi_restore 4
 255              		.cfi_def_cfa_offset 0
 256              		.loc 1 191 0
 257 002a FFF7FEBF 		b	_port_irq_epilogue
 258              	.LVL23:
 259              	.L33:
 260 002e 00BF     		.align	2
 261              	.L32:
 262 0030 00600240 		.word	1073897472
 263 0034 00000000 		.word	.LANCHOR0
 264              		.cfi_endproc
 265              	.LFE258:
 266              		.size	Vector78, .-Vector78
 267 0038 AFF30080 		.section	.text.Vector7C,"ax",%progbits
 267      AFF30080 
 268              		.align	2
 269              		.p2align 4,,15
 270              		.global	Vector7C
 271              		.thumb
 272              		.thumb_func
 273              		.type	Vector7C, %function
 274              	Vector7C:
 275              	.LFB259:
 276              		.loc 1 199 0
 277              		.cfi_startproc
 278              		@ args = 0, pretend = 0, frame = 0
 279              		@ frame_needed = 0, uses_anonymous_args = 0
 280 0000 08B5     		push	{r3, lr}
ARM GAS  C:\Users\jo\AppData\Local\Temp\cciMZJsI.s 			page 6


 281              		.cfi_def_cfa_offset 8
 282              		.cfi_offset 3, -8
 283              		.cfi_offset 14, -4
 284              		.loc 1 202 0
 285 0002 FFF7FEFF 		bl	_stats_increase_irq
 286              	.LVL24:
 287 0006 FFF7FEFF 		bl	_dbg_check_enter_isr
 288              	.LVL25:
 289              		.loc 1 204 0
 290 000a 084B     		ldr	r3, .L40
 291              		.loc 1 206 0
 292 000c 0848     		ldr	r0, .L40+4
 293              		.loc 1 204 0
 294 000e 5968     		ldr	r1, [r3, #4]
 295              		.loc 1 206 0
 296 0010 026A     		ldr	r2, [r0, #32]
 297              		.loc 1 204 0
 298 0012 01F03D01 		and	r1, r1, #61
 299              	.LVL26:
 300              		.loc 1 205 0
 301 0016 D960     		str	r1, [r3, #12]
 302              		.loc 1 206 0
 303 0018 0AB1     		cbz	r2, .L35
 304              		.loc 1 207 0
 305 001a 406A     		ldr	r0, [r0, #36]
 306 001c 9047     		blx	r2
 307              	.LVL27:
 308              	.L35:
 309              		.loc 1 209 0
 310 001e FFF7FEFF 		bl	_dbg_check_leave_isr
 311              	.LVL28:
 312              		.loc 1 210 0
 313 0022 BDE80840 		pop	{r3, lr}
 314              		.cfi_restore 14
 315              		.cfi_restore 3
 316              		.cfi_def_cfa_offset 0
 317              		.loc 1 209 0
 318 0026 FFF7FEBF 		b	_port_irq_epilogue
 319              	.LVL29:
 320              	.L41:
 321 002a 00BF     		.align	2
 322              	.L40:
 323 002c 00600240 		.word	1073897472
 324 0030 00000000 		.word	.LANCHOR0
 325              		.cfi_endproc
 326              	.LFE259:
 327              		.size	Vector7C, .-Vector7C
 328 0034 AFF30080 		.section	.text.Vector80,"ax",%progbits
 328      AFF30080 
 328      AFF30080 
 329              		.align	2
 330              		.p2align 4,,15
 331              		.global	Vector80
 332              		.thumb
 333              		.thumb_func
 334              		.type	Vector80, %function
 335              	Vector80:
ARM GAS  C:\Users\jo\AppData\Local\Temp\cciMZJsI.s 			page 7


 336              	.LFB260:
 337              		.loc 1 217 0
 338              		.cfi_startproc
 339              		@ args = 0, pretend = 0, frame = 0
 340              		@ frame_needed = 0, uses_anonymous_args = 0
 341 0000 10B5     		push	{r4, lr}
 342              		.cfi_def_cfa_offset 8
 343              		.cfi_offset 4, -8
 344              		.cfi_offset 14, -4
 345              		.loc 1 220 0
 346 0002 FFF7FEFF 		bl	_stats_increase_irq
 347              	.LVL30:
 348 0006 FFF7FEFF 		bl	_dbg_check_enter_isr
 349              	.LVL31:
 350              		.loc 1 222 0
 351 000a 094B     		ldr	r3, .L48
 352              		.loc 1 224 0
 353 000c 0948     		ldr	r0, .L48+4
 354              		.loc 1 222 0
 355 000e 5968     		ldr	r1, [r3, #4]
 356              		.loc 1 224 0
 357 0010 826A     		ldr	r2, [r0, #40]
 358              		.loc 1 222 0
 359 0012 8909     		lsrs	r1, r1, #6
 360 0014 01F03D01 		and	r1, r1, #61
 361              	.LVL32:
 362              		.loc 1 223 0
 363 0018 8C01     		lsls	r4, r1, #6
 364 001a DC60     		str	r4, [r3, #12]
 365              		.loc 1 224 0
 366 001c 0AB1     		cbz	r2, .L43
 367              		.loc 1 225 0
 368 001e C06A     		ldr	r0, [r0, #44]
 369 0020 9047     		blx	r2
 370              	.LVL33:
 371              	.L43:
 372              		.loc 1 227 0
 373 0022 FFF7FEFF 		bl	_dbg_check_leave_isr
 374              	.LVL34:
 375              		.loc 1 228 0
 376 0026 BDE81040 		pop	{r4, lr}
 377              		.cfi_restore 14
 378              		.cfi_restore 4
 379              		.cfi_def_cfa_offset 0
 380              		.loc 1 227 0
 381 002a FFF7FEBF 		b	_port_irq_epilogue
 382              	.LVL35:
 383              	.L49:
 384 002e 00BF     		.align	2
 385              	.L48:
 386 0030 00600240 		.word	1073897472
 387 0034 00000000 		.word	.LANCHOR0
 388              		.cfi_endproc
 389              	.LFE260:
 390              		.size	Vector80, .-Vector80
 391 0038 AFF30080 		.section	.text.Vector84,"ax",%progbits
 391      AFF30080 
ARM GAS  C:\Users\jo\AppData\Local\Temp\cciMZJsI.s 			page 8


 392              		.align	2
 393              		.p2align 4,,15
 394              		.global	Vector84
 395              		.thumb
 396              		.thumb_func
 397              		.type	Vector84, %function
 398              	Vector84:
 399              	.LFB261:
 400              		.loc 1 235 0
 401              		.cfi_startproc
 402              		@ args = 0, pretend = 0, frame = 0
 403              		@ frame_needed = 0, uses_anonymous_args = 0
 404 0000 10B5     		push	{r4, lr}
 405              		.cfi_def_cfa_offset 8
 406              		.cfi_offset 4, -8
 407              		.cfi_offset 14, -4
 408              		.loc 1 238 0
 409 0002 FFF7FEFF 		bl	_stats_increase_irq
 410              	.LVL36:
 411 0006 FFF7FEFF 		bl	_dbg_check_enter_isr
 412              	.LVL37:
 413              		.loc 1 240 0
 414 000a 094B     		ldr	r3, .L56
 415              		.loc 1 242 0
 416 000c 0948     		ldr	r0, .L56+4
 417              		.loc 1 240 0
 418 000e 5968     		ldr	r1, [r3, #4]
 419              		.loc 1 242 0
 420 0010 026B     		ldr	r2, [r0, #48]
 421              		.loc 1 240 0
 422 0012 090C     		lsrs	r1, r1, #16
 423 0014 01F03D01 		and	r1, r1, #61
 424              	.LVL38:
 425              		.loc 1 241 0
 426 0018 0C04     		lsls	r4, r1, #16
 427 001a DC60     		str	r4, [r3, #12]
 428              		.loc 1 242 0
 429 001c 0AB1     		cbz	r2, .L51
 430              		.loc 1 243 0
 431 001e 406B     		ldr	r0, [r0, #52]
 432 0020 9047     		blx	r2
 433              	.LVL39:
 434              	.L51:
 435              		.loc 1 245 0
 436 0022 FFF7FEFF 		bl	_dbg_check_leave_isr
 437              	.LVL40:
 438              		.loc 1 246 0
 439 0026 BDE81040 		pop	{r4, lr}
 440              		.cfi_restore 14
 441              		.cfi_restore 4
 442              		.cfi_def_cfa_offset 0
 443              		.loc 1 245 0
 444 002a FFF7FEBF 		b	_port_irq_epilogue
 445              	.LVL41:
 446              	.L57:
 447 002e 00BF     		.align	2
 448              	.L56:
ARM GAS  C:\Users\jo\AppData\Local\Temp\cciMZJsI.s 			page 9


 449 0030 00600240 		.word	1073897472
 450 0034 00000000 		.word	.LANCHOR0
 451              		.cfi_endproc
 452              	.LFE261:
 453              		.size	Vector84, .-Vector84
 454 0038 AFF30080 		.section	.text.VectorFC,"ax",%progbits
 454      AFF30080 
 455              		.align	2
 456              		.p2align 4,,15
 457              		.global	VectorFC
 458              		.thumb
 459              		.thumb_func
 460              		.type	VectorFC, %function
 461              	VectorFC:
 462              	.LFB262:
 463              		.loc 1 253 0
 464              		.cfi_startproc
 465              		@ args = 0, pretend = 0, frame = 0
 466              		@ frame_needed = 0, uses_anonymous_args = 0
 467 0000 10B5     		push	{r4, lr}
 468              		.cfi_def_cfa_offset 8
 469              		.cfi_offset 4, -8
 470              		.cfi_offset 14, -4
 471              		.loc 1 256 0
 472 0002 FFF7FEFF 		bl	_stats_increase_irq
 473              	.LVL42:
 474 0006 FFF7FEFF 		bl	_dbg_check_enter_isr
 475              	.LVL43:
 476              		.loc 1 258 0
 477 000a 094B     		ldr	r3, .L64
 478              		.loc 1 260 0
 479 000c 0948     		ldr	r0, .L64+4
 480              		.loc 1 258 0
 481 000e 5968     		ldr	r1, [r3, #4]
 482              		.loc 1 260 0
 483 0010 826B     		ldr	r2, [r0, #56]
 484              		.loc 1 258 0
 485 0012 890D     		lsrs	r1, r1, #22
 486 0014 01F03D01 		and	r1, r1, #61
 487              	.LVL44:
 488              		.loc 1 259 0
 489 0018 8C05     		lsls	r4, r1, #22
 490 001a DC60     		str	r4, [r3, #12]
 491              		.loc 1 260 0
 492 001c 0AB1     		cbz	r2, .L59
 493              		.loc 1 261 0
 494 001e C06B     		ldr	r0, [r0, #60]
 495 0020 9047     		blx	r2
 496              	.LVL45:
 497              	.L59:
 498              		.loc 1 263 0
 499 0022 FFF7FEFF 		bl	_dbg_check_leave_isr
 500              	.LVL46:
 501              		.loc 1 264 0
 502 0026 BDE81040 		pop	{r4, lr}
 503              		.cfi_restore 14
 504              		.cfi_restore 4
ARM GAS  C:\Users\jo\AppData\Local\Temp\cciMZJsI.s 			page 10


 505              		.cfi_def_cfa_offset 0
 506              		.loc 1 263 0
 507 002a FFF7FEBF 		b	_port_irq_epilogue
 508              	.LVL47:
 509              	.L65:
 510 002e 00BF     		.align	2
 511              	.L64:
 512 0030 00600240 		.word	1073897472
 513 0034 00000000 		.word	.LANCHOR0
 514              		.cfi_endproc
 515              	.LFE262:
 516              		.size	VectorFC, .-VectorFC
 517 0038 AFF30080 		.section	.text.Vector120,"ax",%progbits
 517      AFF30080 
 518              		.align	2
 519              		.p2align 4,,15
 520              		.global	Vector120
 521              		.thumb
 522              		.thumb_func
 523              		.type	Vector120, %function
 524              	Vector120:
 525              	.LFB263:
 526              		.loc 1 271 0
 527              		.cfi_startproc
 528              		@ args = 0, pretend = 0, frame = 0
 529              		@ frame_needed = 0, uses_anonymous_args = 0
 530 0000 08B5     		push	{r3, lr}
 531              		.cfi_def_cfa_offset 8
 532              		.cfi_offset 3, -8
 533              		.cfi_offset 14, -4
 534              		.loc 1 274 0
 535 0002 FFF7FEFF 		bl	_stats_increase_irq
 536              	.LVL48:
 537 0006 FFF7FEFF 		bl	_dbg_check_enter_isr
 538              	.LVL49:
 539              		.loc 1 276 0
 540 000a 084B     		ldr	r3, .L72
 541              		.loc 1 278 0
 542 000c 0848     		ldr	r0, .L72+4
 543              		.loc 1 276 0
 544 000e 1968     		ldr	r1, [r3]
 545              		.loc 1 278 0
 546 0010 026C     		ldr	r2, [r0, #64]
 547              		.loc 1 276 0
 548 0012 01F03D01 		and	r1, r1, #61
 549              	.LVL50:
 550              		.loc 1 277 0
 551 0016 9960     		str	r1, [r3, #8]
 552              		.loc 1 278 0
 553 0018 0AB1     		cbz	r2, .L67
 554              		.loc 1 279 0
 555 001a 406C     		ldr	r0, [r0, #68]
 556 001c 9047     		blx	r2
 557              	.LVL51:
 558              	.L67:
 559              		.loc 1 281 0
 560 001e FFF7FEFF 		bl	_dbg_check_leave_isr
ARM GAS  C:\Users\jo\AppData\Local\Temp\cciMZJsI.s 			page 11


 561              	.LVL52:
 562              		.loc 1 282 0
 563 0022 BDE80840 		pop	{r3, lr}
 564              		.cfi_restore 14
 565              		.cfi_restore 3
 566              		.cfi_def_cfa_offset 0
 567              		.loc 1 281 0
 568 0026 FFF7FEBF 		b	_port_irq_epilogue
 569              	.LVL53:
 570              	.L73:
 571 002a 00BF     		.align	2
 572              	.L72:
 573 002c 00640240 		.word	1073898496
 574 0030 00000000 		.word	.LANCHOR0
 575              		.cfi_endproc
 576              	.LFE263:
 577              		.size	Vector120, .-Vector120
 578 0034 AFF30080 		.section	.text.Vector124,"ax",%progbits
 578      AFF30080 
 578      AFF30080 
 579              		.align	2
 580              		.p2align 4,,15
 581              		.global	Vector124
 582              		.thumb
 583              		.thumb_func
 584              		.type	Vector124, %function
 585              	Vector124:
 586              	.LFB264:
 587              		.loc 1 289 0
 588              		.cfi_startproc
 589              		@ args = 0, pretend = 0, frame = 0
 590              		@ frame_needed = 0, uses_anonymous_args = 0
 591 0000 10B5     		push	{r4, lr}
 592              		.cfi_def_cfa_offset 8
 593              		.cfi_offset 4, -8
 594              		.cfi_offset 14, -4
 595              		.loc 1 292 0
 596 0002 FFF7FEFF 		bl	_stats_increase_irq
 597              	.LVL54:
 598 0006 FFF7FEFF 		bl	_dbg_check_enter_isr
 599              	.LVL55:
 600              		.loc 1 294 0
 601 000a 094B     		ldr	r3, .L80
 602              		.loc 1 296 0
 603 000c 0948     		ldr	r0, .L80+4
 604              		.loc 1 294 0
 605 000e 1968     		ldr	r1, [r3]
 606              		.loc 1 296 0
 607 0010 826C     		ldr	r2, [r0, #72]
 608              		.loc 1 294 0
 609 0012 8909     		lsrs	r1, r1, #6
 610 0014 01F03D01 		and	r1, r1, #61
 611              	.LVL56:
 612              		.loc 1 295 0
 613 0018 8C01     		lsls	r4, r1, #6
 614 001a 9C60     		str	r4, [r3, #8]
 615              		.loc 1 296 0
ARM GAS  C:\Users\jo\AppData\Local\Temp\cciMZJsI.s 			page 12


 616 001c 0AB1     		cbz	r2, .L75
 617              		.loc 1 297 0
 618 001e C06C     		ldr	r0, [r0, #76]
 619 0020 9047     		blx	r2
 620              	.LVL57:
 621              	.L75:
 622              		.loc 1 299 0
 623 0022 FFF7FEFF 		bl	_dbg_check_leave_isr
 624              	.LVL58:
 625              		.loc 1 300 0
 626 0026 BDE81040 		pop	{r4, lr}
 627              		.cfi_restore 14
 628              		.cfi_restore 4
 629              		.cfi_def_cfa_offset 0
 630              		.loc 1 299 0
 631 002a FFF7FEBF 		b	_port_irq_epilogue
 632              	.LVL59:
 633              	.L81:
 634 002e 00BF     		.align	2
 635              	.L80:
 636 0030 00640240 		.word	1073898496
 637 0034 00000000 		.word	.LANCHOR0
 638              		.cfi_endproc
 639              	.LFE264:
 640              		.size	Vector124, .-Vector124
 641 0038 AFF30080 		.section	.text.Vector128,"ax",%progbits
 641      AFF30080 
 642              		.align	2
 643              		.p2align 4,,15
 644              		.global	Vector128
 645              		.thumb
 646              		.thumb_func
 647              		.type	Vector128, %function
 648              	Vector128:
 649              	.LFB265:
 650              		.loc 1 307 0
 651              		.cfi_startproc
 652              		@ args = 0, pretend = 0, frame = 0
 653              		@ frame_needed = 0, uses_anonymous_args = 0
 654 0000 10B5     		push	{r4, lr}
 655              		.cfi_def_cfa_offset 8
 656              		.cfi_offset 4, -8
 657              		.cfi_offset 14, -4
 658              		.loc 1 310 0
 659 0002 FFF7FEFF 		bl	_stats_increase_irq
 660              	.LVL60:
 661 0006 FFF7FEFF 		bl	_dbg_check_enter_isr
 662              	.LVL61:
 663              		.loc 1 312 0
 664 000a 094B     		ldr	r3, .L88
 665              		.loc 1 314 0
 666 000c 0948     		ldr	r0, .L88+4
 667              		.loc 1 312 0
 668 000e 1968     		ldr	r1, [r3]
 669              		.loc 1 314 0
 670 0010 026D     		ldr	r2, [r0, #80]
 671              		.loc 1 312 0
ARM GAS  C:\Users\jo\AppData\Local\Temp\cciMZJsI.s 			page 13


 672 0012 090C     		lsrs	r1, r1, #16
 673 0014 01F03D01 		and	r1, r1, #61
 674              	.LVL62:
 675              		.loc 1 313 0
 676 0018 0C04     		lsls	r4, r1, #16
 677 001a 9C60     		str	r4, [r3, #8]
 678              		.loc 1 314 0
 679 001c 0AB1     		cbz	r2, .L83
 680              		.loc 1 315 0
 681 001e 406D     		ldr	r0, [r0, #84]
 682 0020 9047     		blx	r2
 683              	.LVL63:
 684              	.L83:
 685              		.loc 1 317 0
 686 0022 FFF7FEFF 		bl	_dbg_check_leave_isr
 687              	.LVL64:
 688              		.loc 1 318 0
 689 0026 BDE81040 		pop	{r4, lr}
 690              		.cfi_restore 14
 691              		.cfi_restore 4
 692              		.cfi_def_cfa_offset 0
 693              		.loc 1 317 0
 694 002a FFF7FEBF 		b	_port_irq_epilogue
 695              	.LVL65:
 696              	.L89:
 697 002e 00BF     		.align	2
 698              	.L88:
 699 0030 00640240 		.word	1073898496
 700 0034 00000000 		.word	.LANCHOR0
 701              		.cfi_endproc
 702              	.LFE265:
 703              		.size	Vector128, .-Vector128
 704 0038 AFF30080 		.section	.text.Vector12C,"ax",%progbits
 704      AFF30080 
 705              		.align	2
 706              		.p2align 4,,15
 707              		.global	Vector12C
 708              		.thumb
 709              		.thumb_func
 710              		.type	Vector12C, %function
 711              	Vector12C:
 712              	.LFB266:
 713              		.loc 1 325 0
 714              		.cfi_startproc
 715              		@ args = 0, pretend = 0, frame = 0
 716              		@ frame_needed = 0, uses_anonymous_args = 0
 717 0000 10B5     		push	{r4, lr}
 718              		.cfi_def_cfa_offset 8
 719              		.cfi_offset 4, -8
 720              		.cfi_offset 14, -4
 721              		.loc 1 328 0
 722 0002 FFF7FEFF 		bl	_stats_increase_irq
 723              	.LVL66:
 724 0006 FFF7FEFF 		bl	_dbg_check_enter_isr
 725              	.LVL67:
 726              		.loc 1 330 0
 727 000a 094B     		ldr	r3, .L96
ARM GAS  C:\Users\jo\AppData\Local\Temp\cciMZJsI.s 			page 14


 728              		.loc 1 332 0
 729 000c 0948     		ldr	r0, .L96+4
 730              		.loc 1 330 0
 731 000e 1968     		ldr	r1, [r3]
 732              		.loc 1 332 0
 733 0010 826D     		ldr	r2, [r0, #88]
 734              		.loc 1 330 0
 735 0012 890D     		lsrs	r1, r1, #22
 736 0014 01F03D01 		and	r1, r1, #61
 737              	.LVL68:
 738              		.loc 1 331 0
 739 0018 8C05     		lsls	r4, r1, #22
 740 001a 9C60     		str	r4, [r3, #8]
 741              		.loc 1 332 0
 742 001c 0AB1     		cbz	r2, .L91
 743              		.loc 1 333 0
 744 001e C06D     		ldr	r0, [r0, #92]
 745 0020 9047     		blx	r2
 746              	.LVL69:
 747              	.L91:
 748              		.loc 1 335 0
 749 0022 FFF7FEFF 		bl	_dbg_check_leave_isr
 750              	.LVL70:
 751              		.loc 1 336 0
 752 0026 BDE81040 		pop	{r4, lr}
 753              		.cfi_restore 14
 754              		.cfi_restore 4
 755              		.cfi_def_cfa_offset 0
 756              		.loc 1 335 0
 757 002a FFF7FEBF 		b	_port_irq_epilogue
 758              	.LVL71:
 759              	.L97:
 760 002e 00BF     		.align	2
 761              	.L96:
 762 0030 00640240 		.word	1073898496
 763 0034 00000000 		.word	.LANCHOR0
 764              		.cfi_endproc
 765              	.LFE266:
 766              		.size	Vector12C, .-Vector12C
 767 0038 AFF30080 		.section	.text.Vector130,"ax",%progbits
 767      AFF30080 
 768              		.align	2
 769              		.p2align 4,,15
 770              		.global	Vector130
 771              		.thumb
 772              		.thumb_func
 773              		.type	Vector130, %function
 774              	Vector130:
 775              	.LFB267:
 776              		.loc 1 343 0
 777              		.cfi_startproc
 778              		@ args = 0, pretend = 0, frame = 0
 779              		@ frame_needed = 0, uses_anonymous_args = 0
 780 0000 08B5     		push	{r3, lr}
 781              		.cfi_def_cfa_offset 8
 782              		.cfi_offset 3, -8
 783              		.cfi_offset 14, -4
ARM GAS  C:\Users\jo\AppData\Local\Temp\cciMZJsI.s 			page 15


 784              		.loc 1 346 0
 785 0002 FFF7FEFF 		bl	_stats_increase_irq
 786              	.LVL72:
 787 0006 FFF7FEFF 		bl	_dbg_check_enter_isr
 788              	.LVL73:
 789              		.loc 1 348 0
 790 000a 084B     		ldr	r3, .L104
 791              		.loc 1 350 0
 792 000c 0848     		ldr	r0, .L104+4
 793              		.loc 1 348 0
 794 000e 5968     		ldr	r1, [r3, #4]
 795              		.loc 1 350 0
 796 0010 026E     		ldr	r2, [r0, #96]
 797              		.loc 1 348 0
 798 0012 01F03D01 		and	r1, r1, #61
 799              	.LVL74:
 800              		.loc 1 349 0
 801 0016 D960     		str	r1, [r3, #12]
 802              		.loc 1 350 0
 803 0018 0AB1     		cbz	r2, .L99
 804              		.loc 1 351 0
 805 001a 406E     		ldr	r0, [r0, #100]
 806 001c 9047     		blx	r2
 807              	.LVL75:
 808              	.L99:
 809              		.loc 1 353 0
 810 001e FFF7FEFF 		bl	_dbg_check_leave_isr
 811              	.LVL76:
 812              		.loc 1 354 0
 813 0022 BDE80840 		pop	{r3, lr}
 814              		.cfi_restore 14
 815              		.cfi_restore 3
 816              		.cfi_def_cfa_offset 0
 817              		.loc 1 353 0
 818 0026 FFF7FEBF 		b	_port_irq_epilogue
 819              	.LVL77:
 820              	.L105:
 821 002a 00BF     		.align	2
 822              	.L104:
 823 002c 00640240 		.word	1073898496
 824 0030 00000000 		.word	.LANCHOR0
 825              		.cfi_endproc
 826              	.LFE267:
 827              		.size	Vector130, .-Vector130
 828 0034 AFF30080 		.section	.text.Vector150,"ax",%progbits
 828      AFF30080 
 828      AFF30080 
 829              		.align	2
 830              		.p2align 4,,15
 831              		.global	Vector150
 832              		.thumb
 833              		.thumb_func
 834              		.type	Vector150, %function
 835              	Vector150:
 836              	.LFB268:
 837              		.loc 1 361 0
 838              		.cfi_startproc
ARM GAS  C:\Users\jo\AppData\Local\Temp\cciMZJsI.s 			page 16


 839              		@ args = 0, pretend = 0, frame = 0
 840              		@ frame_needed = 0, uses_anonymous_args = 0
 841 0000 10B5     		push	{r4, lr}
 842              		.cfi_def_cfa_offset 8
 843              		.cfi_offset 4, -8
 844              		.cfi_offset 14, -4
 845              		.loc 1 364 0
 846 0002 FFF7FEFF 		bl	_stats_increase_irq
 847              	.LVL78:
 848 0006 FFF7FEFF 		bl	_dbg_check_enter_isr
 849              	.LVL79:
 850              		.loc 1 366 0
 851 000a 094B     		ldr	r3, .L112
 852              		.loc 1 368 0
 853 000c 0948     		ldr	r0, .L112+4
 854              		.loc 1 366 0
 855 000e 5968     		ldr	r1, [r3, #4]
 856              		.loc 1 368 0
 857 0010 826E     		ldr	r2, [r0, #104]
 858              		.loc 1 366 0
 859 0012 8909     		lsrs	r1, r1, #6
 860 0014 01F03D01 		and	r1, r1, #61
 861              	.LVL80:
 862              		.loc 1 367 0
 863 0018 8C01     		lsls	r4, r1, #6
 864 001a DC60     		str	r4, [r3, #12]
 865              		.loc 1 368 0
 866 001c 0AB1     		cbz	r2, .L107
 867              		.loc 1 369 0
 868 001e C06E     		ldr	r0, [r0, #108]
 869 0020 9047     		blx	r2
 870              	.LVL81:
 871              	.L107:
 872              		.loc 1 371 0
 873 0022 FFF7FEFF 		bl	_dbg_check_leave_isr
 874              	.LVL82:
 875              		.loc 1 372 0
 876 0026 BDE81040 		pop	{r4, lr}
 877              		.cfi_restore 14
 878              		.cfi_restore 4
 879              		.cfi_def_cfa_offset 0
 880              		.loc 1 371 0
 881 002a FFF7FEBF 		b	_port_irq_epilogue
 882              	.LVL83:
 883              	.L113:
 884 002e 00BF     		.align	2
 885              	.L112:
 886 0030 00640240 		.word	1073898496
 887 0034 00000000 		.word	.LANCHOR0
 888              		.cfi_endproc
 889              	.LFE268:
 890              		.size	Vector150, .-Vector150
 891 0038 AFF30080 		.section	.text.Vector154,"ax",%progbits
 891      AFF30080 
 892              		.align	2
 893              		.p2align 4,,15
 894              		.global	Vector154
ARM GAS  C:\Users\jo\AppData\Local\Temp\cciMZJsI.s 			page 17


 895              		.thumb
 896              		.thumb_func
 897              		.type	Vector154, %function
 898              	Vector154:
 899              	.LFB269:
 900              		.loc 1 379 0
 901              		.cfi_startproc
 902              		@ args = 0, pretend = 0, frame = 0
 903              		@ frame_needed = 0, uses_anonymous_args = 0
 904 0000 10B5     		push	{r4, lr}
 905              		.cfi_def_cfa_offset 8
 906              		.cfi_offset 4, -8
 907              		.cfi_offset 14, -4
 908              		.loc 1 382 0
 909 0002 FFF7FEFF 		bl	_stats_increase_irq
 910              	.LVL84:
 911 0006 FFF7FEFF 		bl	_dbg_check_enter_isr
 912              	.LVL85:
 913              		.loc 1 384 0
 914 000a 094B     		ldr	r3, .L120
 915              		.loc 1 386 0
 916 000c 0948     		ldr	r0, .L120+4
 917              		.loc 1 384 0
 918 000e 5968     		ldr	r1, [r3, #4]
 919              		.loc 1 386 0
 920 0010 026F     		ldr	r2, [r0, #112]
 921              		.loc 1 384 0
 922 0012 090C     		lsrs	r1, r1, #16
 923 0014 01F03D01 		and	r1, r1, #61
 924              	.LVL86:
 925              		.loc 1 385 0
 926 0018 0C04     		lsls	r4, r1, #16
 927 001a DC60     		str	r4, [r3, #12]
 928              		.loc 1 386 0
 929 001c 0AB1     		cbz	r2, .L115
 930              		.loc 1 387 0
 931 001e 406F     		ldr	r0, [r0, #116]
 932 0020 9047     		blx	r2
 933              	.LVL87:
 934              	.L115:
 935              		.loc 1 389 0
 936 0022 FFF7FEFF 		bl	_dbg_check_leave_isr
 937              	.LVL88:
 938              		.loc 1 390 0
 939 0026 BDE81040 		pop	{r4, lr}
 940              		.cfi_restore 14
 941              		.cfi_restore 4
 942              		.cfi_def_cfa_offset 0
 943              		.loc 1 389 0
 944 002a FFF7FEBF 		b	_port_irq_epilogue
 945              	.LVL89:
 946              	.L121:
 947 002e 00BF     		.align	2
 948              	.L120:
 949 0030 00640240 		.word	1073898496
 950 0034 00000000 		.word	.LANCHOR0
 951              		.cfi_endproc
ARM GAS  C:\Users\jo\AppData\Local\Temp\cciMZJsI.s 			page 18


 952              	.LFE269:
 953              		.size	Vector154, .-Vector154
 954 0038 AFF30080 		.section	.text.Vector158,"ax",%progbits
 954      AFF30080 
 955              		.align	2
 956              		.p2align 4,,15
 957              		.global	Vector158
 958              		.thumb
 959              		.thumb_func
 960              		.type	Vector158, %function
 961              	Vector158:
 962              	.LFB270:
 963              		.loc 1 397 0
 964              		.cfi_startproc
 965              		@ args = 0, pretend = 0, frame = 0
 966              		@ frame_needed = 0, uses_anonymous_args = 0
 967 0000 10B5     		push	{r4, lr}
 968              		.cfi_def_cfa_offset 8
 969              		.cfi_offset 4, -8
 970              		.cfi_offset 14, -4
 971              		.loc 1 400 0
 972 0002 FFF7FEFF 		bl	_stats_increase_irq
 973              	.LVL90:
 974 0006 FFF7FEFF 		bl	_dbg_check_enter_isr
 975              	.LVL91:
 976              		.loc 1 402 0
 977 000a 094B     		ldr	r3, .L128
 978              		.loc 1 404 0
 979 000c 0948     		ldr	r0, .L128+4
 980              		.loc 1 402 0
 981 000e 5968     		ldr	r1, [r3, #4]
 982              		.loc 1 404 0
 983 0010 826F     		ldr	r2, [r0, #120]
 984              		.loc 1 402 0
 985 0012 890D     		lsrs	r1, r1, #22
 986 0014 01F03D01 		and	r1, r1, #61
 987              	.LVL92:
 988              		.loc 1 403 0
 989 0018 8C05     		lsls	r4, r1, #22
 990 001a DC60     		str	r4, [r3, #12]
 991              		.loc 1 404 0
 992 001c 0AB1     		cbz	r2, .L123
 993              		.loc 1 405 0
 994 001e C06F     		ldr	r0, [r0, #124]
 995 0020 9047     		blx	r2
 996              	.LVL93:
 997              	.L123:
 998              		.loc 1 407 0
 999 0022 FFF7FEFF 		bl	_dbg_check_leave_isr
 1000              	.LVL94:
 1001              		.loc 1 408 0
 1002 0026 BDE81040 		pop	{r4, lr}
 1003              		.cfi_restore 14
 1004              		.cfi_restore 4
 1005              		.cfi_def_cfa_offset 0
 1006              		.loc 1 407 0
 1007 002a FFF7FEBF 		b	_port_irq_epilogue
ARM GAS  C:\Users\jo\AppData\Local\Temp\cciMZJsI.s 			page 19


 1008              	.LVL95:
 1009              	.L129:
 1010 002e 00BF     		.align	2
 1011              	.L128:
 1012 0030 00640240 		.word	1073898496
 1013 0034 00000000 		.word	.LANCHOR0
 1014              		.cfi_endproc
 1015              	.LFE270:
 1016              		.size	Vector158, .-Vector158
 1017 0038 AFF30080 		.section	.text.dmaInit,"ax",%progbits
 1017      AFF30080 
 1018              		.align	2
 1019              		.p2align 4,,15
 1020              		.global	dmaInit
 1021              		.thumb
 1022              		.thumb_func
 1023              		.type	dmaInit, %function
 1024              	dmaInit:
 1025              	.LFB271:
 1026              		.loc 1 419 0
 1027              		.cfi_startproc
 1028              		@ args = 0, pretend = 0, frame = 0
 1029              		@ frame_needed = 0, uses_anonymous_args = 0
 1030              		@ link register save eliminated.
 1031              		.loc 1 422 0
 1032 0000 0D4B     		ldr	r3, .L134
 1033              		.loc 1 419 0
 1034 0002 30B4     		push	{r4, r5}
 1035              		.cfi_def_cfa_offset 8
 1036              		.cfi_offset 4, -8
 1037              		.cfi_offset 5, -4
 1038              		.loc 1 422 0
 1039 0004 0022     		movs	r2, #0
 1040 0006 0D4D     		ldr	r5, .L134+4
 1041 0008 0D4C     		ldr	r4, .L134+8
 1042 000a 1A60     		str	r2, [r3]
 1043              	.LVL96:
 1044              		.loc 1 424 0
 1045 000c 1146     		mov	r1, r2
 1046              		.loc 1 423 0
 1047 000e 1346     		mov	r3, r2
 1048              	.LVL97:
 1049              	.L131:
 1050              		.loc 1 424 0 discriminator 3
 1051 0010 A858     		ldr	r0, [r5, r2]
 1052 0012 0160     		str	r1, [r0]
 1053              		.loc 1 425 0 discriminator 3
 1054 0014 44F83310 		str	r1, [r4, r3, lsl #3]
 1055              		.loc 1 423 0 discriminator 3
 1056 0018 0133     		adds	r3, r3, #1
 1057              	.LVL98:
 1058 001a 102B     		cmp	r3, #16
 1059 001c 02F10C02 		add	r2, r2, #12
 1060 0020 F6D1     		bne	.L131
 1061              		.loc 1 427 0
 1062 0022 0849     		ldr	r1, .L134+12
 1063              		.loc 1 429 0
ARM GAS  C:\Users\jo\AppData\Local\Temp\cciMZJsI.s 			page 20


 1064 0024 084A     		ldr	r2, .L134+16
 1065              		.loc 1 427 0
 1066 0026 4FF0FF33 		mov	r3, #-1
 1067              	.LVL99:
 1068 002a 8B60     		str	r3, [r1, #8]
 1069              		.loc 1 431 0
 1070 002c 30BC     		pop	{r4, r5}
 1071              		.cfi_restore 5
 1072              		.cfi_restore 4
 1073              		.cfi_def_cfa_offset 0
 1074              		.loc 1 428 0
 1075 002e CB60     		str	r3, [r1, #12]
 1076              		.loc 1 429 0
 1077 0030 9360     		str	r3, [r2, #8]
 1078              		.loc 1 430 0
 1079 0032 D360     		str	r3, [r2, #12]
 1080              		.loc 1 431 0
 1081 0034 7047     		bx	lr
 1082              	.L135:
 1083 0036 00BF     		.align	2
 1084              	.L134:
 1085 0038 00000000 		.word	.LANCHOR1
 1086 003c 00000000 		.word	.LANCHOR2
 1087 0040 00000000 		.word	.LANCHOR0
 1088 0044 00600240 		.word	1073897472
 1089 0048 00640240 		.word	1073898496
 1090              		.cfi_endproc
 1091              	.LFE271:
 1092              		.size	dmaInit, .-dmaInit
 1093 004c AFF30080 		.section	.text.dmaStreamAllocate,"ax",%progbits
 1094              		.align	2
 1095              		.p2align 4,,15
 1096              		.global	dmaStreamAllocate
 1097              		.thumb
 1098              		.thumb_func
 1099              		.type	dmaStreamAllocate, %function
 1100              	dmaStreamAllocate:
 1101              	.LFB272:
 1102              		.loc 1 460 0
 1103              		.cfi_startproc
 1104              		@ args = 0, pretend = 0, frame = 16
 1105              		@ frame_needed = 0, uses_anonymous_args = 0
 1106              	.LVL100:
 1107 0000 F0B5     		push	{r4, r5, r6, r7, lr}
 1108              		.cfi_def_cfa_offset 20
 1109              		.cfi_offset 4, -20
 1110              		.cfi_offset 5, -16
 1111              		.cfi_offset 6, -12
 1112              		.cfi_offset 7, -8
 1113              		.cfi_offset 14, -4
 1114              		.loc 1 462 0
 1115 0002 0546     		mov	r5, r0
 1116              		.loc 1 460 0
 1117 0004 85B0     		sub	sp, sp, #20
 1118              		.cfi_def_cfa_offset 40
 1119              		.loc 1 462 0
 1120 0006 0028     		cmp	r0, #0
ARM GAS  C:\Users\jo\AppData\Local\Temp\cciMZJsI.s 			page 21


 1121 0008 3ED0     		beq	.L152
 1122              	.LVL101:
 1123              	.L137:
 1124              		.loc 1 465 0
 1125 000a 244C     		ldr	r4, .L154
 1126 000c 6F7A     		ldrb	r7, [r5, #9]	@ zero_extendqisi2
 1127 000e 2668     		ldr	r6, [r4]
 1128 0010 0120     		movs	r0, #1
 1129 0012 00FA07FE 		lsl	lr, r0, r7
 1130 0016 1EEA060F 		tst	lr, r6
 1131 001a 2AD1     		bne	.L138
 1132              		.loc 1 469 0
 1133 001c 2048     		ldr	r0, .L154+4
 1134              		.loc 1 471 0
 1135 001e 4EEA0606 		orr	r6, lr, r6
 1136              		.loc 1 470 0
 1137 0022 00EBC70C 		add	ip, r0, r7, lsl #3
 1138              		.loc 1 474 0
 1139 0026 16F0FF0F 		tst	r6, #255
 1140              		.loc 1 471 0
 1141 002a 2660     		str	r6, [r4]
 1142              		.loc 1 469 0
 1143 002c 40F83720 		str	r2, [r0, r7, lsl #3]
 1144              		.loc 1 470 0
 1145 0030 CCF80430 		str	r3, [ip, #4]
 1146              		.loc 1 474 0
 1147 0034 04D0     		beq	.L139
 1148              		.loc 1 475 0
 1149 0036 1B48     		ldr	r0, .L154+8
 1150 0038 036B     		ldr	r3, [r0, #48]
 1151 003a 43F40013 		orr	r3, r3, #2097152
 1152 003e 0363     		str	r3, [r0, #48]
 1153              	.L139:
 1154              		.loc 1 476 0
 1155 0040 16F47F4F 		tst	r6, #65280
 1156 0044 17D1     		bne	.L153
 1157              	.L140:
 1158              		.loc 1 480 0
 1159 0046 2B68     		ldr	r3, [r5]
 1160 0048 1868     		ldr	r0, [r3]
 1161 004a 20F01F00 		bic	r0, r0, #31
 1162 004e 1860     		str	r0, [r3]
 1163              	.L141:
 1164              		.loc 1 480 0 is_stmt 0 discriminator 2
 1165 0050 1868     		ldr	r0, [r3]
 1166 0052 10F00104 		ands	r4, r0, #1
 1167 0056 FBD1     		bne	.L141
 1168              		.loc 1 480 0 discriminator 3
 1169 0058 2F7A     		ldrb	r7, [r5, #8]	@ zero_extendqisi2
 1170 005a 6E68     		ldr	r6, [r5, #4]
 1171 005c 3D20     		movs	r0, #61
 1172 005e B840     		lsls	r0, r0, r7
 1173              		.loc 1 482 0 is_stmt 1 discriminator 3
 1174 0060 2127     		movs	r7, #33
 1175              		.loc 1 480 0 discriminator 3
 1176 0062 3060     		str	r0, [r6]
 1177              		.loc 1 481 0 discriminator 3
ARM GAS  C:\Users\jo\AppData\Local\Temp\cciMZJsI.s 			page 22


 1178 0064 1C60     		str	r4, [r3]
 1179              		.loc 1 482 0 discriminator 3
 1180 0066 5F61     		str	r7, [r3, #20]
 1181              		.loc 1 485 0 discriminator 3
 1182 0068 5AB1     		cbz	r2, .L143
 1183              		.loc 1 486 0
 1184 006a A87A     		ldrb	r0, [r5, #10]	@ zero_extendqisi2
 1185 006c FFF7FEFF 		bl	nvicEnableVector
 1186              	.LVL102:
 1187              		.loc 1 488 0
 1188 0070 2046     		mov	r0, r4
 1189              	.L138:
 1190              		.loc 1 489 0
 1191 0072 05B0     		add	sp, sp, #20
 1192              		.cfi_remember_state
 1193              		.cfi_def_cfa_offset 20
 1194              		@ sp needed
 1195 0074 F0BD     		pop	{r4, r5, r6, r7, pc}
 1196              	.LVL103:
 1197              	.L153:
 1198              		.cfi_restore_state
 1199              		.loc 1 477 0
 1200 0076 0B48     		ldr	r0, .L154+8
 1201 0078 036B     		ldr	r3, [r0, #48]
 1202 007a 43F48003 		orr	r3, r3, #4194304
 1203 007e 0363     		str	r3, [r0, #48]
 1204 0080 E1E7     		b	.L140
 1205              	.L143:
 1206              		.loc 1 488 0
 1207 0082 1046     		mov	r0, r2
 1208              		.loc 1 489 0
 1209 0084 05B0     		add	sp, sp, #20
 1210              		.cfi_remember_state
 1211              		.cfi_def_cfa_offset 20
 1212              		@ sp needed
 1213 0086 F0BD     		pop	{r4, r5, r6, r7, pc}
 1214              	.LVL104:
 1215              	.L152:
 1216              		.cfi_restore_state
 1217              		.loc 1 462 0 discriminator 1
 1218 0088 0748     		ldr	r0, .L154+12
 1219              	.LVL105:
 1220 008a 0393     		str	r3, [sp, #12]
 1221 008c 0292     		str	r2, [sp, #8]
 1222 008e 0191     		str	r1, [sp, #4]
 1223 0090 FFF7FEFF 		bl	chSysHalt
 1224              	.LVL106:
 1225 0094 01A9     		add	r1, sp, #4
 1226              	.LVL107:
 1227 0096 0EC9     		ldmia	r1, {r1, r2, r3}
 1228              	.LVL108:
 1229 0098 B7E7     		b	.L137
 1230              	.L155:
 1231 009a 00BF     		.align	2
 1232              	.L154:
 1233 009c 00000000 		.word	.LANCHOR1
 1234 00a0 00000000 		.word	.LANCHOR0
ARM GAS  C:\Users\jo\AppData\Local\Temp\cciMZJsI.s 			page 23


 1235 00a4 00380240 		.word	1073887232
 1236 00a8 00000000 		.word	.LANCHOR3
 1237              		.cfi_endproc
 1238              	.LFE272:
 1239              		.size	dmaStreamAllocate, .-dmaStreamAllocate
 1240 00ac AFF30080 		.section	.text.dmaStreamRelease,"ax",%progbits
 1241              		.align	2
 1242              		.p2align 4,,15
 1243              		.global	dmaStreamRelease
 1244              		.thumb
 1245              		.thumb_func
 1246              		.type	dmaStreamRelease, %function
 1247              	dmaStreamRelease:
 1248              	.LFB273:
 1249              		.loc 1 504 0
 1250              		.cfi_startproc
 1251              		@ args = 0, pretend = 0, frame = 0
 1252              		@ frame_needed = 0, uses_anonymous_args = 0
 1253              	.LVL109:
 1254 0000 38B5     		push	{r3, r4, r5, lr}
 1255              		.cfi_def_cfa_offset 16
 1256              		.cfi_offset 3, -16
 1257              		.cfi_offset 4, -12
 1258              		.cfi_offset 5, -8
 1259              		.cfi_offset 14, -4
 1260              		.loc 1 506 0
 1261 0002 0446     		mov	r4, r0
 1262 0004 28B3     		cbz	r0, .L162
 1263              	.LVL110:
 1264              	.L157:
 1265              		.loc 1 509 0
 1266 0006 154D     		ldr	r5, .L164
 1267 0008 617A     		ldrb	r1, [r4, #9]	@ zero_extendqisi2
 1268 000a 2A68     		ldr	r2, [r5]
 1269 000c 0123     		movs	r3, #1
 1270 000e 8B40     		lsls	r3, r3, r1
 1271 0010 1342     		tst	r3, r2
 1272 0012 1AD0     		beq	.L163
 1273              	.L158:
 1274              		.loc 1 513 0
 1275 0014 A07A     		ldrb	r0, [r4, #10]	@ zero_extendqisi2
 1276 0016 FFF7FEFF 		bl	nvicDisableVector
 1277              	.LVL111:
 1278              		.loc 1 516 0
 1279 001a 617A     		ldrb	r1, [r4, #9]	@ zero_extendqisi2
 1280 001c 2A68     		ldr	r2, [r5]
 1281 001e 0123     		movs	r3, #1
 1282 0020 8B40     		lsls	r3, r3, r1
 1283 0022 22EA0303 		bic	r3, r2, r3
 1284              		.loc 1 519 0
 1285 0026 13F0FF0F 		tst	r3, #255
 1286              		.loc 1 516 0
 1287 002a 2B60     		str	r3, [r5]
 1288              		.loc 1 519 0
 1289 002c 04D1     		bne	.L159
 1290              		.loc 1 520 0
 1291 002e 0C49     		ldr	r1, .L164+4
ARM GAS  C:\Users\jo\AppData\Local\Temp\cciMZJsI.s 			page 24


 1292 0030 0A6B     		ldr	r2, [r1, #48]
 1293 0032 22F40012 		bic	r2, r2, #2097152
 1294 0036 0A63     		str	r2, [r1, #48]
 1295              	.L159:
 1296              		.loc 1 521 0
 1297 0038 13F47F4F 		tst	r3, #65280
 1298 003c 04D1     		bne	.L156
 1299              		.loc 1 522 0
 1300 003e 084A     		ldr	r2, .L164+4
 1301 0040 136B     		ldr	r3, [r2, #48]
 1302 0042 23F48003 		bic	r3, r3, #4194304
 1303 0046 1363     		str	r3, [r2, #48]
 1304              	.L156:
 1305 0048 38BD     		pop	{r3, r4, r5, pc}
 1306              	.LVL112:
 1307              	.L163:
 1308              		.loc 1 509 0 discriminator 1
 1309 004a 0648     		ldr	r0, .L164+8
 1310 004c FFF7FEFF 		bl	chSysHalt
 1311              	.LVL113:
 1312 0050 E0E7     		b	.L158
 1313              	.LVL114:
 1314              	.L162:
 1315              		.loc 1 506 0 discriminator 1
 1316 0052 0448     		ldr	r0, .L164+8
 1317              	.LVL115:
 1318 0054 FFF7FEFF 		bl	chSysHalt
 1319              	.LVL116:
 1320 0058 D5E7     		b	.L157
 1321              	.L165:
 1322 005a 00BF     		.align	2
 1323              	.L164:
 1324 005c 00000000 		.word	.LANCHOR1
 1325 0060 00380240 		.word	1073887232
 1326 0064 00000000 		.word	.LANCHOR4
 1327              		.cfi_endproc
 1328              	.LFE273:
 1329              		.size	dmaStreamRelease, .-dmaStreamRelease
 1330              		.global	_stm32_dma_streams
 1331 0068 AFF30080 		.section	.rodata.__func__.7144,"a",%progbits
 1331      AFF30080 
 1332              		.align	2
 1333              		.set	.LANCHOR3,. + 0
 1334              		.type	__func__.7144, %object
 1335              		.size	__func__.7144, 18
 1336              	__func__.7144:
 1337 0000 646D6153 		.ascii	"dmaStreamAllocate\000"
 1337      74726561 
 1337      6D416C6C 
 1337      6F636174 
 1337      6500
 1338 0012 0000     		.section	.rodata.__func__.7151,"a",%progbits
 1339              		.align	2
 1340              		.set	.LANCHOR4,. + 0
 1341              		.type	__func__.7151, %object
 1342              		.size	__func__.7151, 17
 1343              	__func__.7151:
ARM GAS  C:\Users\jo\AppData\Local\Temp\cciMZJsI.s 			page 25


 1344 0000 646D6153 		.ascii	"dmaStreamRelease\000"
 1344      74726561 
 1344      6D52656C 
 1344      65617365 
 1344      00
 1345 0011 000000   		.section	.bss.dma_isr_redir,"aw",%nobits
 1346              		.align	2
 1347              		.set	.LANCHOR0,. + 0
 1348              		.type	dma_isr_redir, %object
 1349              		.size	dma_isr_redir, 128
 1350              	dma_isr_redir:
 1351 0000 00000000 		.space	128
 1351      00000000 
 1351      00000000 
 1351      00000000 
 1351      00000000 
 1352              		.section	.rodata._stm32_dma_streams,"a",%progbits
 1353              		.align	2
 1354              		.set	.LANCHOR2,. + 0
 1355              		.type	_stm32_dma_streams, %object
 1356              		.size	_stm32_dma_streams, 192
 1357              	_stm32_dma_streams:
 1358 0000 10600240 		.word	1073897488
 1359 0004 08600240 		.word	1073897480
 1360 0008 00       		.byte	0
 1361 0009 00       		.byte	0
 1362 000a 0B       		.byte	11
 1363 000b 00       		.space	1
 1364 000c 28600240 		.word	1073897512
 1365 0010 08600240 		.word	1073897480
 1366 0014 06       		.byte	6
 1367 0015 01       		.byte	1
 1368 0016 0C       		.byte	12
 1369 0017 00       		.space	1
 1370 0018 40600240 		.word	1073897536
 1371 001c 08600240 		.word	1073897480
 1372 0020 10       		.byte	16
 1373 0021 02       		.byte	2
 1374 0022 0D       		.byte	13
 1375 0023 00       		.space	1
 1376 0024 58600240 		.word	1073897560
 1377 0028 08600240 		.word	1073897480
 1378 002c 16       		.byte	22
 1379 002d 03       		.byte	3
 1380 002e 0E       		.byte	14
 1381 002f 00       		.space	1
 1382 0030 70600240 		.word	1073897584
 1383 0034 0C600240 		.word	1073897484
 1384 0038 00       		.byte	0
 1385 0039 04       		.byte	4
 1386 003a 0F       		.byte	15
 1387 003b 00       		.space	1
 1388 003c 88600240 		.word	1073897608
 1389 0040 0C600240 		.word	1073897484
 1390 0044 06       		.byte	6
 1391 0045 05       		.byte	5
 1392 0046 10       		.byte	16
ARM GAS  C:\Users\jo\AppData\Local\Temp\cciMZJsI.s 			page 26


 1393 0047 00       		.space	1
 1394 0048 A0600240 		.word	1073897632
 1395 004c 0C600240 		.word	1073897484
 1396 0050 10       		.byte	16
 1397 0051 06       		.byte	6
 1398 0052 11       		.byte	17
 1399 0053 00       		.space	1
 1400 0054 B8600240 		.word	1073897656
 1401 0058 0C600240 		.word	1073897484
 1402 005c 16       		.byte	22
 1403 005d 07       		.byte	7
 1404 005e 2F       		.byte	47
 1405 005f 00       		.space	1
 1406 0060 10640240 		.word	1073898512
 1407 0064 08640240 		.word	1073898504
 1408 0068 00       		.byte	0
 1409 0069 08       		.byte	8
 1410 006a 38       		.byte	56
 1411 006b 00       		.space	1
 1412 006c 28640240 		.word	1073898536
 1413 0070 08640240 		.word	1073898504
 1414 0074 06       		.byte	6
 1415 0075 09       		.byte	9
 1416 0076 39       		.byte	57
 1417 0077 00       		.space	1
 1418 0078 40640240 		.word	1073898560
 1419 007c 08640240 		.word	1073898504
 1420 0080 10       		.byte	16
 1421 0081 0A       		.byte	10
 1422 0082 3A       		.byte	58
 1423 0083 00       		.space	1
 1424 0084 58640240 		.word	1073898584
 1425 0088 08640240 		.word	1073898504
 1426 008c 16       		.byte	22
 1427 008d 0B       		.byte	11
 1428 008e 3B       		.byte	59
 1429 008f 00       		.space	1
 1430 0090 70640240 		.word	1073898608
 1431 0094 0C640240 		.word	1073898508
 1432 0098 00       		.byte	0
 1433 0099 0C       		.byte	12
 1434 009a 3C       		.byte	60
 1435 009b 00       		.space	1
 1436 009c 88640240 		.word	1073898632
 1437 00a0 0C640240 		.word	1073898508
 1438 00a4 06       		.byte	6
 1439 00a5 0D       		.byte	13
 1440 00a6 44       		.byte	68
 1441 00a7 00       		.space	1
 1442 00a8 A0640240 		.word	1073898656
 1443 00ac 0C640240 		.word	1073898508
 1444 00b0 10       		.byte	16
 1445 00b1 0E       		.byte	14
 1446 00b2 45       		.byte	69
 1447 00b3 00       		.space	1
 1448 00b4 B8640240 		.word	1073898680
 1449 00b8 0C640240 		.word	1073898508
ARM GAS  C:\Users\jo\AppData\Local\Temp\cciMZJsI.s 			page 27


 1450 00bc 16       		.byte	22
 1451 00bd 0F       		.byte	15
 1452 00be 46       		.byte	70
 1453 00bf 00       		.space	1
 1454              		.section	.bss.dma_streams_mask,"aw",%nobits
 1455              		.align	2
 1456              		.set	.LANCHOR1,. + 0
 1457              		.type	dma_streams_mask, %object
 1458              		.size	dma_streams_mask, 4
 1459              	dma_streams_mask:
 1460 0000 00000000 		.space	4
 1461              		.text
 1462              	.Letext0:
 1463              		.file 2 "c:\\program files\\gnu tools arm embedded\\4.9 2014q4\\lib\\gcc\\arm-none-eabi\\4.9.3\\in
 1464              		.file 3 "c:\\program files\\gnu tools arm embedded\\4.9 2014q4\\arm-none-eabi\\include\\machine\\_
 1465              		.file 4 "c:\\program files\\gnu tools arm embedded\\4.9 2014q4\\arm-none-eabi\\include\\stdint.h"
 1466              		.file 5 "../../../os/rt/ports/ARMCMx/compilers/GCC/chtypes.h"
 1467              		.file 6 "../../../os/rt/include/chsystypes.h"
 1468              		.file 7 "../../../os/rt/include/chschd.h"
 1469              		.file 8 "../../../os/ext/CMSIS/ST/stm32f407xx.h"
 1470              		.file 9 "../../../os/rt/ports/ARMCMx/chcore.h"
 1471              		.file 10 "../../../os/rt/ports/ARMCMx/chcore_v7m.h"
 1472              		.file 11 "../../../os/rt/include/chdebug.h"
 1473              		.file 12 "../../../os/rt/include/chtm.h"
 1474              		.file 13 "../../../os/rt/include/chstats.h"
 1475              		.file 14 "../../../os/rt/include/chmtx.h"
 1476              		.file 15 "../../../os/hal/ports/STM32/STM32F4xx/stm32_dma.h"
 1477              		.file 16 "../../../os/ext/CMSIS/include/core_cm4.h"
 1478              		.file 17 "../../../os/hal/ports/common/ARMCMx/nvic.h"
 1479              		.file 18 "../../../os/rt/include/chsys.h"