ARM GAS  C:\Users\jo\AppData\Local\Temp\ccJHSWU8.s 			page 1


   1              		.syntax unified
   2              		.cpu cortex-m4
   3              		.fpu softvfp
   4              		.eabi_attribute 20, 1
   5              		.eabi_attribute 21, 1
   6              		.eabi_attribute 23, 3
   7              		.eabi_attribute 24, 1
   8              		.eabi_attribute 25, 1
   9              		.eabi_attribute 26, 1
  10              		.eabi_attribute 30, 2
  11              		.eabi_attribute 34, 1
  12              		.eabi_attribute 18, 4
  13              		.thumb
  14              		.file	"syscalls.c"
  15              		.text
  16              	.Ltext0:
  17              		.cfi_sections	.debug_frame
  18              		.section	.text._open_r,"ax",%progbits
  19              		.align	2
  20              		.p2align 4,,15
  21              		.global	_open_r
  22              		.thumb
  23              		.thumb_func
  24              		.type	_open_r, %function
  25              	_open_r:
  26              	.LFB227:
  27              		.file 1 "../../../os/various/syscalls.c"
  28              		.loc 1 79 0
  29              		.cfi_startproc
  30              		@ args = 0, pretend = 0, frame = 0
  31              		@ frame_needed = 0, uses_anonymous_args = 0
  32              	.LVL0:
  33 0000 10B5     		push	{r4, lr}
  34              		.cfi_def_cfa_offset 8
  35              		.cfi_offset 4, -8
  36              		.cfi_offset 14, -4
  37              		.loc 1 87 0
  38 0002 0748     		ldr	r0, .L9
  39              	.LVL1:
  40              		.loc 1 79 0
  41 0004 0C46     		mov	r4, r1
  42              		.loc 1 87 0
  43 0006 FFF7FEFF 		bl	strcmp
  44              	.LVL2:
  45 000a 30B1     		cbz	r0, .L3
  46              	.LVL3:
  47 000c 2146     		mov	r1, r4
  48 000e 0548     		ldr	r0, .L9+4
  49 0010 FFF7FEFF 		bl	strcmp
  50              	.LVL4:
  51 0014 10B1     		cbz	r0, .L8
  52              		.loc 1 91 0
  53 0016 4FF0FF30 		mov	r0, #-1
  54              	.LVL5:
  55              	.L3:
  56              		.loc 1 92 0
  57 001a 10BD     		pop	{r4, pc}
ARM GAS  C:\Users\jo\AppData\Local\Temp\ccJHSWU8.s 			page 2


  58              	.LVL6:
  59              	.L8:
  60              		.loc 1 87 0
  61 001c 0120     		movs	r0, #1
  62 001e 10BD     		pop	{r4, pc}
  63              	.LVL7:
  64              	.L10:
  65              		.align	2
  66              	.L9:
  67 0020 00000000 		.word	.LC0
  68 0024 0C000000 		.word	.LC1
  69              		.cfi_endproc
  70              	.LFE227:
  71              		.size	_open_r, .-_open_r
  72 0028 AFF30080 		.section	.text._read_r,"ax",%progbits
  72      AFF30080 
  73              		.align	2
  74              		.p2align 4,,15
  75              		.global	_read_r
  76              		.thumb
  77              		.thumb_func
  78              		.type	_read_r, %function
  79              	_read_r:
  80              	.LFB228:
  81              		.loc 1 97 0
  82              		.cfi_startproc
  83              		@ args = 0, pretend = 0, frame = 0
  84              		@ frame_needed = 0, uses_anonymous_args = 0
  85              		@ link register save eliminated.
  86              	.LVL8:
  87              		.loc 1 113 0
  88 0000 EBB1     		cbz	r3, .L12
  89              		.loc 1 113 0 is_stmt 0 discriminator 1
  90 0002 B1F1FF3F 		cmp	r1, #-1
  91 0006 1AD0     		beq	.L12
  92 0008 0F48     		ldr	r0, .L26
  93              	.LVL9:
  94              		.loc 1 97 0 is_stmt 1
  95 000a 70B4     		push	{r4, r5, r6}
  96              		.cfi_def_cfa_offset 12
  97              		.cfi_offset 4, -12
  98              		.cfi_offset 5, -8
  99              		.cfi_offset 6, -4
 100 000c 00EBC101 		add	r1, r0, r1, lsl #3
 101              	.LVL10:
 102              		.loc 1 113 0
 103 0010 1D46     		mov	r5, r3
 104 0012 4E68     		ldr	r6, [r1, #4]
 105 0014 3178     		ldrb	r1, [r6]	@ zero_extendqisi2
 106 0016 0024     		movs	r4, #0
 107              	.LVL11:
 108              	.L17:
 109              		.loc 1 119 0
 110 0018 0134     		adds	r4, r4, #1
 111              	.LVL12:
 112 001a E4B2     		uxtb	r4, r4
 113              		.loc 1 126 0
ARM GAS  C:\Users\jo\AppData\Local\Temp\ccJHSWU8.s 			page 3


 114 001c 013D     		subs	r5, r5, #1
 115              	.LVL13:
 116              		.loc 1 118 0
 117 001e 19B9     		cbnz	r1, .L25
 118              	.LVL14:
 119              	.L16:
 120              		.loc 1 129 0
 121 0020 DBB2     		uxtb	r3, r3
 122 0022 581B     		subs	r0, r3, r5
 123              		.loc 1 135 0
 124 0024 70BC     		pop	{r4, r5, r6}
 125              		.cfi_remember_state
 126              		.cfi_restore 6
 127              		.cfi_restore 5
 128              		.cfi_restore 4
 129              		.cfi_def_cfa_offset 0
 130 0026 7047     		bx	lr
 131              	.LVL15:
 132              	.L25:
 133              		.cfi_restore_state
 134              		.loc 1 127 0
 135 0028 002D     		cmp	r5, #0
 136              		.loc 1 119 0
 137 002a 02F8011B 		strb	r1, [r2], #1
 138              	.LVL16:
 139              		.loc 1 127 0
 140 002e F7DD     		ble	.L16
 141              		.loc 1 127 0 is_stmt 0 discriminator 1
 142 0030 315D     		ldrb	r1, [r6, r4]	@ zero_extendqisi2
 143 0032 0029     		cmp	r1, #0
 144 0034 F0D1     		bne	.L17
 145              		.loc 1 129 0 is_stmt 1
 146 0036 DBB2     		uxtb	r3, r3
 147 0038 581B     		subs	r0, r3, r5
 148              		.loc 1 135 0
 149 003a 70BC     		pop	{r4, r5, r6}
 150              		.cfi_restore 4
 151              		.cfi_restore 5
 152              		.cfi_restore 6
 153              		.cfi_def_cfa_offset 0
 154              	.LVL17:
 155 003c 7047     		bx	lr
 156              	.LVL18:
 157              	.L12:
 158              		.loc 1 114 0
 159 003e 0923     		movs	r3, #9
 160              	.LVL19:
 161 0040 0360     		str	r3, [r0]
 162              		.loc 1 115 0
 163 0042 4FF0FF30 		mov	r0, #-1
 164              	.LVL20:
 165              		.loc 1 135 0
 166 0046 7047     		bx	lr
 167              	.L27:
 168              		.align	2
 169              	.L26:
 170 0048 00000000 		.word	.LANCHOR0
ARM GAS  C:\Users\jo\AppData\Local\Temp\ccJHSWU8.s 			page 4


 171              		.cfi_endproc
 172              	.LFE228:
 173              		.size	_read_r, .-_read_r
 174 004c AFF30080 		.section	.text._lseek_r,"ax",%progbits
 175              		.align	2
 176              		.p2align 4,,15
 177              		.global	_lseek_r
 178              		.thumb
 179              		.thumb_func
 180              		.type	_lseek_r, %function
 181              	_lseek_r:
 182              	.LFB229:
 183              		.loc 1 140 0
 184              		.cfi_startproc
 185              		@ args = 0, pretend = 0, frame = 0
 186              		@ frame_needed = 0, uses_anonymous_args = 0
 187              		@ link register save eliminated.
 188              	.LVL21:
 189              		.loc 1 147 0
 190 0000 0020     		movs	r0, #0
 191              	.LVL22:
 192 0002 7047     		bx	lr
 193              		.cfi_endproc
 194              	.LFE229:
 195              		.size	_lseek_r, .-_lseek_r
 196 0004 AFF30080 		.section	.text._write_r,"ax",%progbits
 196      AFF30080 
 196      AFF30080 
 197              		.align	2
 198              		.p2align 4,,15
 199              		.global	_write_r
 200              		.thumb
 201              		.thumb_func
 202              		.type	_write_r, %function
 203              	_write_r:
 204              	.LFB230:
 205              		.loc 1 152 0
 206              		.cfi_startproc
 207              		@ args = 0, pretend = 0, frame = 0
 208              		@ frame_needed = 0, uses_anonymous_args = 0
 209              		@ link register save eliminated.
 210              	.LVL23:
 211              		.loc 1 164 0
 212 0000 1846     		mov	r0, r3
 213              	.LVL24:
 214 0002 7047     		bx	lr
 215              		.cfi_endproc
 216              	.LFE230:
 217              		.size	_write_r, .-_write_r
 218 0004 AFF30080 		.section	.text._close_r,"ax",%progbits
 218      AFF30080 
 218      AFF30080 
 219              		.align	2
 220              		.p2align 4,,15
 221              		.global	_close_r
 222              		.thumb
 223              		.thumb_func
ARM GAS  C:\Users\jo\AppData\Local\Temp\ccJHSWU8.s 			page 5


 224              		.type	_close_r, %function
 225              	_close_r:
 226              	.LFB231:
 227              		.loc 1 169 0
 228              		.cfi_startproc
 229              		@ args = 0, pretend = 0, frame = 0
 230              		@ frame_needed = 0, uses_anonymous_args = 0
 231              		@ link register save eliminated.
 232              	.LVL25:
 233              		.loc 1 174 0
 234 0000 0020     		movs	r0, #0
 235              	.LVL26:
 236 0002 7047     		bx	lr
 237              		.cfi_endproc
 238              	.LFE231:
 239              		.size	_close_r, .-_close_r
 240 0004 AFF30080 		.section	.text._sbrk_r,"ax",%progbits
 240      AFF30080 
 240      AFF30080 
 241              		.align	2
 242              		.p2align 4,,15
 243              		.global	_sbrk_r
 244              		.thumb
 245              		.thumb_func
 246              		.type	_sbrk_r, %function
 247              	_sbrk_r:
 248              	.LFB232:
 249              		.loc 1 179 0
 250              		.cfi_startproc
 251              		@ args = 0, pretend = 0, frame = 0
 252              		@ frame_needed = 0, uses_anonymous_args = 0
 253              	.LVL27:
 254 0000 38B5     		push	{r3, r4, r5, lr}
 255              		.cfi_def_cfa_offset 16
 256              		.cfi_offset 3, -16
 257              		.cfi_offset 4, -12
 258              		.cfi_offset 5, -8
 259              		.cfi_offset 14, -4
 260              		.loc 1 183 0
 261 0002 0C1E     		subs	r4, r1, #0
 262              		.loc 1 179 0
 263 0004 0546     		mov	r5, r0
 264              		.loc 1 183 0
 265 0006 09DD     		ble	.L36
 266              	.LVL28:
 267              	.L32:
 268              		.loc 1 185 0
 269 0008 2046     		mov	r0, r4
 270 000a FFF7FEFF 		bl	chCoreAlloc
 271              	.LVL29:
 272              		.loc 1 186 0
 273 000e 00B1     		cbz	r0, .L37
 274              		.loc 1 196 0
 275 0010 38BD     		pop	{r3, r4, r5, pc}
 276              	.LVL30:
 277              	.L37:
 278              		.loc 1 187 0
ARM GAS  C:\Users\jo\AppData\Local\Temp\ccJHSWU8.s 			page 6


 279 0012 0C23     		movs	r3, #12
 280 0014 2B60     		str	r3, [r5]
 281              		.loc 1 188 0
 282 0016 4FF0FF30 		mov	r0, #-1
 283              	.LVL31:
 284              		.loc 1 196 0
 285 001a 38BD     		pop	{r3, r4, r5, pc}
 286              	.LVL32:
 287              	.L36:
 288              		.loc 1 183 0 discriminator 1
 289 001c 0148     		ldr	r0, .L38
 290              	.LVL33:
 291 001e FFF7FEFF 		bl	chSysHalt
 292              	.LVL34:
 293 0022 F1E7     		b	.L32
 294              	.L39:
 295              		.align	2
 296              	.L38:
 297 0024 00000000 		.word	.LANCHOR1
 298              		.cfi_endproc
 299              	.LFE232:
 300              		.size	_sbrk_r, .-_sbrk_r
 301 0028 AFF30080 		.section	.text._fstat_r,"ax",%progbits
 301      AFF30080 
 302              		.align	2
 303              		.p2align 4,,15
 304              		.global	_fstat_r
 305              		.thumb
 306              		.thumb_func
 307              		.type	_fstat_r, %function
 308              	_fstat_r:
 309              	.LFB233:
 310              		.loc 1 201 0
 311              		.cfi_startproc
 312              		@ args = 0, pretend = 0, frame = 0
 313              		@ frame_needed = 0, uses_anonymous_args = 0
 314              	.LVL35:
 315 0000 10B5     		push	{r4, lr}
 316              		.cfi_def_cfa_offset 8
 317              		.cfi_offset 4, -8
 318              		.cfi_offset 14, -4
 319              		.loc 1 205 0
 320 0002 1046     		mov	r0, r2
 321              	.LVL36:
 322              		.loc 1 201 0
 323 0004 1446     		mov	r4, r2
 324              		.loc 1 205 0
 325 0006 0021     		movs	r1, #0
 326              	.LVL37:
 327 0008 3C22     		movs	r2, #60
 328              	.LVL38:
 329 000a FFF7FEFF 		bl	memset
 330              	.LVL39:
 331              		.loc 1 206 0
 332 000e 4FF40053 		mov	r3, #8192
 333 0012 6360     		str	r3, [r4, #4]
 334              		.loc 1 208 0
ARM GAS  C:\Users\jo\AppData\Local\Temp\ccJHSWU8.s 			page 7


 335 0014 0020     		movs	r0, #0
 336 0016 10BD     		pop	{r4, pc}
 337              		.cfi_endproc
 338              	.LFE233:
 339              		.size	_fstat_r, .-_fstat_r
 340 0018 AFF30080 		.section	.text._isatty_r,"ax",%progbits
 340      AFF30080 
 341              		.align	2
 342              		.p2align 4,,15
 343              		.global	_isatty_r
 344              		.thumb
 345              		.thumb_func
 346              		.type	_isatty_r, %function
 347              	_isatty_r:
 348              	.LFB234:
 349              		.loc 1 213 0
 350              		.cfi_startproc
 351              		@ args = 0, pretend = 0, frame = 0
 352              		@ frame_needed = 0, uses_anonymous_args = 0
 353              		@ link register save eliminated.
 354              	.LVL40:
 355              		.loc 1 218 0
 356 0000 0120     		movs	r0, #1
 357              	.LVL41:
 358 0002 7047     		bx	lr
 359              		.cfi_endproc
 360              	.LFE234:
 361              		.size	_isatty_r, .-_isatty_r
 362              		.global	lcfg_table
 363              		.global	modbus_cfg
 364              		.global	main_cfg
 365 0004 AFF30080 		.section	.rodata.__func__.7536,"a",%progbits
 365      AFF30080 
 365      AFF30080 
 366              		.align	2
 367              		.set	.LANCHOR1,. + 0
 368              		.type	__func__.7536, %object
 369              		.size	__func__.7536, 8
 370              	__func__.7536:
 371 0000 5F736272 		.ascii	"_sbrk_r\000"
 371      6B5F7200 
 372              		.section	.rodata.main_cfg,"a",%progbits
 373              		.align	2
 374              		.type	main_cfg, %object
 375              		.size	main_cfg, 16
 376              	main_cfg:
 377 0000 76       		.byte	118
 378 0001 65       		.byte	101
 379 0002 72       		.byte	114
 380 0003 73       		.byte	115
 381 0004 69       		.byte	105
 382 0005 6F       		.byte	111
 383 0006 6E       		.byte	110
 384 0007 20       		.byte	32
 385 0008 3D       		.byte	61
 386 0009 20       		.byte	32
 387 000a 22       		.byte	34
ARM GAS  C:\Users\jo\AppData\Local\Temp\ccJHSWU8.s 			page 8


 388 000b 31       		.byte	49
 389 000c 30       		.byte	48
 390 000d 31       		.byte	49
 391 000e 22       		.byte	34
 392 000f 00       		.byte	0
 393              		.section	.rodata.modbus_cfg,"a",%progbits
 394              		.align	2
 395              		.type	modbus_cfg, %object
 396              		.size	modbus_cfg, 51
 397              	modbus_cfg:
 398 0000 41       		.byte	65
 399 0001 44       		.byte	68
 400 0002 44       		.byte	68
 401 0003 52       		.byte	82
 402 0004 45       		.byte	69
 403 0005 53       		.byte	83
 404 0006 53       		.byte	83
 405 0007 3D       		.byte	61
 406 0008 22       		.byte	34
 407 0009 31       		.byte	49
 408 000a 30       		.byte	48
 409 000b 22       		.byte	34
 410 000c 0A       		.byte	10
 411 000d 4E       		.byte	78
 412 000e 41       		.byte	65
 413 000f 4D       		.byte	77
 414 0010 45       		.byte	69
 415 0011 3D       		.byte	61
 416 0012 22       		.byte	34
 417 0013 52       		.byte	82
 418 0014 54       		.byte	84
 419 0015 43       		.byte	67
 420 0016 22       		.byte	34
 421 0017 0A       		.byte	10
 422 0018 56       		.byte	86
 423 0019 41       		.byte	65
 424 001a 4C       		.byte	76
 425 001b 56       		.byte	86
 426 001c 45       		.byte	69
 427 001d 53       		.byte	83
 428 001e 3D       		.byte	61
 429 001f 5B       		.byte	91
 430 0020 22       		.byte	34
 431 0021 56       		.byte	86
 432 0022 41       		.byte	65
 433 0023 4C       		.byte	76
 434 0024 56       		.byte	86
 435 0025 45       		.byte	69
 436 0026 31       		.byte	49
 437 0027 22       		.byte	34
 438 0028 2C       		.byte	44
 439 0029 22       		.byte	34
 440 002a 56       		.byte	86
 441 002b 41       		.byte	65
 442 002c 4C       		.byte	76
 443 002d 56       		.byte	86
 444 002e 45       		.byte	69
ARM GAS  C:\Users\jo\AppData\Local\Temp\ccJHSWU8.s 			page 9


 445 002f 32       		.byte	50
 446 0030 22       		.byte	34
 447 0031 5D       		.byte	93
 448 0032 00       		.byte	0
 449 0033 00       		.section	.rodata.str1.4,"aMS",%progbits,1
 450              		.align	2
 451              	.LC0:
 452 0000 6D61696E 		.ascii	"main.cfg\000"
 452      2E636667 
 452      00
 453 0009 000000   		.space	3
 454              	.LC1:
 455 000c 6D6F6462 		.ascii	"modbus.cfg\000"
 455      75732E63 
 455      666700
 456 0017 00       		.section	.rodata.lcfg_table,"a",%progbits
 457              		.align	2
 458              		.set	.LANCHOR0,. + 0
 459              		.type	lcfg_table, %object
 460              		.size	lcfg_table, 16
 461              	lcfg_table:
 462 0000 00000000 		.word	.LC0
 463 0004 00000000 		.word	main_cfg
 464 0008 0C000000 		.word	.LC1
 465 000c 00000000 		.word	modbus_cfg
 466              		.text
 467              	.Letext0:
 468              		.file 2 "c:\\program files\\gnu tools arm embedded\\4.9 2014q4\\lib\\gcc\\arm-none-eabi\\4.9.3\\in
 469              		.file 3 "c:\\program files\\gnu tools arm embedded\\4.9 2014q4\\arm-none-eabi\\include\\machine\\_
 470              		.file 4 "c:\\program files\\gnu tools arm embedded\\4.9 2014q4\\arm-none-eabi\\include\\sys\\lock.
 471              		.file 5 "c:\\program files\\gnu tools arm embedded\\4.9 2014q4\\arm-none-eabi\\include\\sys\\_type
 472              		.file 6 "c:\\program files\\gnu tools arm embedded\\4.9 2014q4\\arm-none-eabi\\include\\sys\\reent
 473              		.file 7 "c:\\program files\\gnu tools arm embedded\\4.9 2014q4\\arm-none-eabi\\include\\sys\\types
 474              		.file 8 "c:\\program files\\gnu tools arm embedded\\4.9 2014q4\\arm-none-eabi\\include\\sys\\stat.
 475              		.file 9 "c:\\program files\\gnu tools arm embedded\\4.9 2014q4\\arm-none-eabi\\include\\stdint.h"
 476              		.file 10 "../../../os/rt/ports/ARMCMx/compilers/GCC/chtypes.h"
 477              		.file 11 "../../../os/rt/include/chsystypes.h"
 478              		.file 12 "../../../os/rt/include/chschd.h"
 479              		.file 13 "../../../os/rt/ports/ARMCMx/chcore.h"
 480              		.file 14 "../../../os/rt/ports/ARMCMx/chcore_v7m.h"
 481              		.file 15 "../../../os/rt/include/chdebug.h"
 482              		.file 16 "../../../os/rt/include/chtm.h"
 483              		.file 17 "../../../os/rt/include/chstats.h"
 484              		.file 18 "../../../os/rt/include/chmtx.h"
 485              		.file 19 "./Verventa-master.h"
 486              		.file 20 "../../../os/ext/CMSIS/include/core_cm4.h"
 487              		.file 21 "c:\\program files\\gnu tools arm embedded\\4.9 2014q4\\arm-none-eabi\\include\\string.h"
 488              		.file 22 "../../../os/rt/include/chmemcore.h"
 489              		.file 23 "../../../os/rt/include/chsys.h"