ARM GAS  C:\Users\jo\AppData\Local\Temp\ccyDhY1D.s 			page 1


   1              		.syntax unified
   2              		.cpu cortex-m4
   3              		.fpu softvfp
   4              		.eabi_attribute 20, 1
   5              		.eabi_attribute 21, 1
   6              		.eabi_attribute 23, 3
   7              		.eabi_attribute 24, 1
   8              		.eabi_attribute 25, 1
   9              		.eabi_attribute 26, 1
  10              		.eabi_attribute 30, 2
  11              		.eabi_attribute 34, 1
  12              		.eabi_attribute 18, 4
  13              		.thumb
  14              		.file	"testthd.c"
  15              		.text
  16              	.Ltext0:
  17              		.cfi_sections	.debug_frame
  18              		.section	.text.thd1_execute,"ax",%progbits
  19              		.align	2
  20              		.p2align 4,,15
  21              		.thumb
  22              		.thumb_func
  23              		.type	thd1_execute, %function
  24              	thd1_execute:
  25              	.LFB227:
  26              		.file 1 "../../../test/rt/testthd.c"
  27              		.loc 1 66 0
  28              		.cfi_startproc
  29              		@ args = 0, pretend = 0, frame = 0
  30              		@ frame_needed = 0, uses_anonymous_args = 0
  31 0000 F0B5     		push	{r4, r5, r6, r7, lr}
  32              		.cfi_def_cfa_offset 20
  33              		.cfi_offset 4, -20
  34              		.cfi_offset 5, -16
  35              		.cfi_offset 6, -12
  36              		.cfi_offset 7, -8
  37              		.cfi_offset 14, -4
  38              	.LBB117:
  39              	.LBB118:
  40              	.LBB119:
  41              	.LBB120:
  42              		.file 2 "../../../os/rt/include/chthreads.h"
  43              		.loc 2 179 0
  44 0002 274F     		ldr	r7, .L3
  45              	.LBE120:
  46              	.LBE119:
  47              	.LBE118:
  48              	.LBE117:
  49              		.loc 1 68 0
  50 0004 274E     		ldr	r6, .L3+4
  51              	.LBB122:
  52              	.LBB121:
  53              		.loc 2 192 0
  54 0006 BB69     		ldr	r3, [r7, #24]
  55              	.LBE121:
  56              	.LBE122:
  57              		.loc 1 68 0
ARM GAS  C:\Users\jo\AppData\Local\Temp\ccyDhY1D.s 			page 2


  58 0008 274D     		ldr	r5, .L3+8
  59 000a 9A68     		ldr	r2, [r3, #8]
  60 000c 274B     		ldr	r3, .L3+12
  61 000e 3068     		ldr	r0, [r6]
  62 0010 274C     		ldr	r4, .L3+16
  63              		.loc 1 66 0
  64 0012 83B0     		sub	sp, sp, #12
  65              		.cfi_def_cfa_offset 32
  66              		.loc 1 68 0
  67 0014 053A     		subs	r2, r2, #5
  68 0016 0093     		str	r3, [sp]
  69 0018 4FF4B471 		mov	r1, #360
  70 001c 2B46     		mov	r3, r5
  71 001e FFF7FEFF 		bl	chThdCreateStatic
  72              	.LVL0:
  73              	.LBB123:
  74              	.LBB124:
  75              		.loc 2 192 0
  76 0022 BB69     		ldr	r3, [r7, #24]
  77              	.LBE124:
  78              	.LBE123:
  79              		.loc 1 69 0
  80 0024 2349     		ldr	r1, .L3+20
  81 0026 9A68     		ldr	r2, [r3, #8]
  82 0028 7368     		ldr	r3, [r6, #4]
  83              		.loc 1 68 0
  84 002a 2060     		str	r0, [r4]
  85              		.loc 1 69 0
  86 002c 0091     		str	r1, [sp]
  87 002e 043A     		subs	r2, r2, #4
  88 0030 1846     		mov	r0, r3
  89 0032 4FF4B471 		mov	r1, #360
  90 0036 2B46     		mov	r3, r5
  91 0038 FFF7FEFF 		bl	chThdCreateStatic
  92              	.LVL1:
  93              	.LBB125:
  94              	.LBB126:
  95              		.loc 2 192 0
  96 003c BA69     		ldr	r2, [r7, #24]
  97              	.LBE126:
  98              	.LBE125:
  99              		.loc 1 70 0
 100 003e B368     		ldr	r3, [r6, #8]
 101 0040 9268     		ldr	r2, [r2, #8]
 102 0042 1D49     		ldr	r1, .L3+24
 103              		.loc 1 69 0
 104 0044 6060     		str	r0, [r4, #4]
 105              		.loc 1 70 0
 106 0046 0091     		str	r1, [sp]
 107 0048 033A     		subs	r2, r2, #3
 108 004a 1846     		mov	r0, r3
 109 004c 4FF4B471 		mov	r1, #360
 110 0050 2B46     		mov	r3, r5
 111 0052 FFF7FEFF 		bl	chThdCreateStatic
 112              	.LVL2:
 113              	.LBB127:
 114              	.LBB128:
ARM GAS  C:\Users\jo\AppData\Local\Temp\ccyDhY1D.s 			page 3


 115              		.loc 2 192 0
 116 0056 BA69     		ldr	r2, [r7, #24]
 117              	.LBE128:
 118              	.LBE127:
 119              		.loc 1 71 0
 120 0058 F368     		ldr	r3, [r6, #12]
 121 005a 9268     		ldr	r2, [r2, #8]
 122 005c 1749     		ldr	r1, .L3+28
 123              		.loc 1 70 0
 124 005e A060     		str	r0, [r4, #8]
 125              		.loc 1 71 0
 126 0060 0091     		str	r1, [sp]
 127 0062 023A     		subs	r2, r2, #2
 128 0064 1846     		mov	r0, r3
 129 0066 4FF4B471 		mov	r1, #360
 130 006a 2B46     		mov	r3, r5
 131 006c FFF7FEFF 		bl	chThdCreateStatic
 132              	.LVL3:
 133              	.LBB129:
 134              	.LBB130:
 135              		.loc 2 192 0
 136 0070 BA69     		ldr	r2, [r7, #24]
 137              	.LBE130:
 138              	.LBE129:
 139              		.loc 1 72 0
 140 0072 3369     		ldr	r3, [r6, #16]
 141 0074 9268     		ldr	r2, [r2, #8]
 142 0076 1249     		ldr	r1, .L3+32
 143              		.loc 1 71 0
 144 0078 E060     		str	r0, [r4, #12]
 145              		.loc 1 72 0
 146 007a 013A     		subs	r2, r2, #1
 147 007c 0091     		str	r1, [sp]
 148 007e 1846     		mov	r0, r3
 149 0080 4FF4B471 		mov	r1, #360
 150 0084 2B46     		mov	r3, r5
 151 0086 FFF7FEFF 		bl	chThdCreateStatic
 152              	.LVL4:
 153 008a 2061     		str	r0, [r4, #16]
 154              		.loc 1 73 0
 155 008c FFF7FEFF 		bl	test_wait_threads
 156              	.LVL5:
 157              		.loc 1 74 0
 158 0090 0C49     		ldr	r1, .L3+36
 159 0092 0120     		movs	r0, #1
 160              		.loc 1 75 0
 161 0094 03B0     		add	sp, sp, #12
 162              		.cfi_def_cfa_offset 20
 163              		@ sp needed
 164 0096 BDE8F040 		pop	{r4, r5, r6, r7, lr}
 165              		.cfi_restore 14
 166              		.cfi_restore 7
 167              		.cfi_restore 6
 168              		.cfi_restore 5
 169              		.cfi_restore 4
 170              		.cfi_def_cfa_offset 0
 171              		.loc 1 74 0
ARM GAS  C:\Users\jo\AppData\Local\Temp\ccyDhY1D.s 			page 4


 172 009a FFF7FEBF 		b	_test_assert_sequence
 173              	.LVL6:
 174              	.L4:
 175 009e 00BF     		.align	2
 176              	.L3:
 177 00a0 00000000 		.word	ch
 178 00a4 00000000 		.word	wa
 179 00a8 00000000 		.word	thread
 180 00ac 00000000 		.word	.LC0
 181 00b0 00000000 		.word	threads
 182 00b4 04000000 		.word	.LC1
 183 00b8 08000000 		.word	.LC2
 184 00bc 0C000000 		.word	.LC3
 185 00c0 10000000 		.word	.LC4
 186 00c4 14000000 		.word	.LC5
 187              		.cfi_endproc
 188              	.LFE227:
 189              		.size	thd1_execute, .-thd1_execute
 190 00c8 AFF30080 		.section	.text.thread,"ax",%progbits
 190      AFF30080 
 191              		.align	2
 192              		.p2align 4,,15
 193              		.thumb
 194              		.thumb_func
 195              		.type	thread, %function
 196              	thread:
 197              	.LFB226:
 198              		.loc 1 60 0
 199              		.cfi_startproc
 200              		@ args = 0, pretend = 0, frame = 0
 201              		@ frame_needed = 0, uses_anonymous_args = 0
 202              	.LVL7:
 203 0000 08B5     		push	{r3, lr}
 204              		.cfi_def_cfa_offset 8
 205              		.cfi_offset 3, -8
 206              		.cfi_offset 14, -4
 207              		.loc 1 62 0
 208 0002 0078     		ldrb	r0, [r0]	@ zero_extendqisi2
 209              	.LVL8:
 210 0004 FFF7FEFF 		bl	test_emit_token
 211              	.LVL9:
 212              		.loc 1 64 0
 213 0008 0020     		movs	r0, #0
 214 000a 08BD     		pop	{r3, pc}
 215              		.cfi_endproc
 216              	.LFE226:
 217              		.size	thread, .-thread
 218 000c AFF30080 		.section	.text.thd2_execute,"ax",%progbits
 219              		.align	2
 220              		.p2align 4,,15
 221              		.thumb
 222              		.thumb_func
 223              		.type	thd2_execute, %function
 224              	thd2_execute:
 225              	.LFB228:
 226              		.loc 1 94 0
 227              		.cfi_startproc
ARM GAS  C:\Users\jo\AppData\Local\Temp\ccyDhY1D.s 			page 5


 228              		@ args = 0, pretend = 0, frame = 0
 229              		@ frame_needed = 0, uses_anonymous_args = 0
 230 0000 70B5     		push	{r4, r5, r6, lr}
 231              		.cfi_def_cfa_offset 16
 232              		.cfi_offset 4, -16
 233              		.cfi_offset 5, -12
 234              		.cfi_offset 6, -8
 235              		.cfi_offset 14, -4
 236              	.LBB161:
 237              	.LBB162:
 238              	.LBB163:
 239              	.LBB164:
 240              		.loc 2 179 0
 241 0002 334C     		ldr	r4, .L11
 242              	.LBE164:
 243              	.LBE163:
 244              	.LBE162:
 245              	.LBE161:
 246              		.loc 1 96 0
 247 0004 334E     		ldr	r6, .L11+4
 248              	.LBB166:
 249              	.LBB165:
 250              		.loc 2 192 0
 251 0006 A369     		ldr	r3, [r4, #24]
 252              	.LBE165:
 253              	.LBE166:
 254              		.loc 1 96 0
 255 0008 7068     		ldr	r0, [r6, #4]
 256 000a 9A68     		ldr	r2, [r3, #8]
 257 000c 324B     		ldr	r3, .L11+8
 258 000e 334D     		ldr	r5, .L11+12
 259              		.loc 1 94 0
 260 0010 82B0     		sub	sp, sp, #8
 261              		.cfi_def_cfa_offset 24
 262              		.loc 1 96 0
 263 0012 043A     		subs	r2, r2, #4
 264 0014 0093     		str	r3, [sp]
 265 0016 4FF4B471 		mov	r1, #360
 266 001a 314B     		ldr	r3, .L11+16
 267 001c FFF7FEFF 		bl	chThdCreateStatic
 268              	.LVL10:
 269              	.LBB167:
 270              	.LBB168:
 271              		.loc 2 192 0
 272 0020 A369     		ldr	r3, [r4, #24]
 273              	.LBE168:
 274              	.LBE167:
 275              		.loc 1 97 0
 276 0022 3168     		ldr	r1, [r6]
 277 0024 9A68     		ldr	r2, [r3, #8]
 278 0026 2F4B     		ldr	r3, .L11+20
 279              		.loc 1 96 0
 280 0028 6860     		str	r0, [r5, #4]
 281              		.loc 1 97 0
 282 002a 0093     		str	r3, [sp]
 283 002c 053A     		subs	r2, r2, #5
 284 002e 0846     		mov	r0, r1
ARM GAS  C:\Users\jo\AppData\Local\Temp\ccyDhY1D.s 			page 6


 285 0030 2B4B     		ldr	r3, .L11+16
 286 0032 4FF4B471 		mov	r1, #360
 287 0036 FFF7FEFF 		bl	chThdCreateStatic
 288              	.LVL11:
 289              	.LBB169:
 290              	.LBB170:
 291              		.loc 2 192 0
 292 003a A369     		ldr	r3, [r4, #24]
 293              	.LBE170:
 294              	.LBE169:
 295              		.loc 1 98 0
 296 003c 3169     		ldr	r1, [r6, #16]
 297 003e 9A68     		ldr	r2, [r3, #8]
 298 0040 294B     		ldr	r3, .L11+24
 299              		.loc 1 97 0
 300 0042 2860     		str	r0, [r5]
 301              		.loc 1 98 0
 302 0044 0093     		str	r3, [sp]
 303 0046 013A     		subs	r2, r2, #1
 304 0048 0846     		mov	r0, r1
 305 004a 254B     		ldr	r3, .L11+16
 306 004c 4FF4B471 		mov	r1, #360
 307 0050 FFF7FEFF 		bl	chThdCreateStatic
 308              	.LVL12:
 309              	.LBB171:
 310              	.LBB172:
 311              		.loc 2 192 0
 312 0054 A369     		ldr	r3, [r4, #24]
 313              	.LBE172:
 314              	.LBE171:
 315              		.loc 1 99 0
 316 0056 F168     		ldr	r1, [r6, #12]
 317 0058 9A68     		ldr	r2, [r3, #8]
 318 005a 244B     		ldr	r3, .L11+28
 319              		.loc 1 98 0
 320 005c 2861     		str	r0, [r5, #16]
 321              		.loc 1 99 0
 322 005e 0093     		str	r3, [sp]
 323 0060 023A     		subs	r2, r2, #2
 324 0062 0846     		mov	r0, r1
 325 0064 1E4B     		ldr	r3, .L11+16
 326 0066 4FF4B471 		mov	r1, #360
 327 006a FFF7FEFF 		bl	chThdCreateStatic
 328              	.LVL13:
 329              	.LBB173:
 330              	.LBB174:
 331              	.LBB175:
 332              	.LBB176:
 333              	.LBB177:
 334              		.file 3 "../../../os/ext/CMSIS/include/core_cmFunc.h"
 335              		.loc 3 546 0
 336 006e 2023     		movs	r3, #32
 337              	.LBE177:
 338              	.LBE176:
 339              	.LBE175:
 340              	.LBE174:
 341              	.LBE173:
ARM GAS  C:\Users\jo\AppData\Local\Temp\ccyDhY1D.s 			page 7


 342              		.loc 1 99 0
 343 0070 E860     		str	r0, [r5, #12]
 344              	.LVL14:
 345              	.LBB182:
 346              	.LBB181:
 347              	.LBB180:
 348              	.LBB179:
 349              	.LBB178:
 350              		.loc 3 546 0
 351              	@ 546 "../../../os/ext/CMSIS/include/core_cmFunc.h" 1
 352 0072 83F31188 		MSR basepri, r3
 353              	@ 0 "" 2
 354              		.thumb
 355              	.LBE178:
 356              	.LBE179:
 357              	.LBE180:
 358              		.file 4 "../../../os/rt/include/chsys.h"
 359              		.loc 4 300 0
 360 0076 FFF7FEFF 		bl	_stats_start_measure_crit_thd
 361              	.LVL15:
 362              		.loc 4 301 0
 363 007a FFF7FEFF 		bl	_dbg_check_lock
 364              	.LVL16:
 365              	.LBE181:
 366              	.LBE182:
 367              	.LBB183:
 368              	.LBB184:
 369              		.loc 2 192 0
 370 007e A369     		ldr	r3, [r4, #24]
 371              	.LBE184:
 372              	.LBE183:
 373              		.loc 1 102 0
 374 0080 B068     		ldr	r0, [r6, #8]
 375 0082 9A68     		ldr	r2, [r3, #8]
 376 0084 1A4B     		ldr	r3, .L11+32
 377 0086 0093     		str	r3, [sp]
 378 0088 033A     		subs	r2, r2, #3
 379 008a 154B     		ldr	r3, .L11+16
 380 008c 4FF4B471 		mov	r1, #360
 381 0090 FFF7FEFF 		bl	chThdCreateI
 382              	.LVL17:
 383 0094 A860     		str	r0, [r5, #8]
 384              	.LBB185:
 385              	.LBB186:
 386              		.loc 4 311 0
 387 0096 FFF7FEFF 		bl	_dbg_check_unlock
 388              	.LVL18:
 389              		.loc 4 312 0
 390 009a FFF7FEFF 		bl	_stats_stop_measure_crit_thd
 391              	.LVL19:
 392              		.loc 4 318 0
 393 009e A269     		ldr	r2, [r4, #24]
 394 00a0 2368     		ldr	r3, [r4]
 395 00a2 9268     		ldr	r2, [r2, #8]
 396 00a4 9B68     		ldr	r3, [r3, #8]
 397 00a6 9A42     		cmp	r2, r3
 398 00a8 02D2     		bcs	.L8
ARM GAS  C:\Users\jo\AppData\Local\Temp\ccyDhY1D.s 			page 8


 399 00aa 1248     		ldr	r0, .L11+36
 400 00ac FFF7FEFF 		bl	chSysHalt
 401              	.LVL20:
 402              	.L8:
 403              	.LBB187:
 404              	.LBB188:
 405              	.LBB189:
 406              		.loc 3 546 0
 407 00b0 0023     		movs	r3, #0
 408              	@ 546 "../../../os/ext/CMSIS/include/core_cmFunc.h" 1
 409 00b2 83F31188 		MSR basepri, r3
 410              	@ 0 "" 2
 411              		.thumb
 412              	.LBE189:
 413              	.LBE188:
 414              	.LBE187:
 415              	.LBE186:
 416              	.LBE185:
 417              		.loc 1 104 0
 418 00b6 A868     		ldr	r0, [r5, #8]
 419 00b8 FFF7FEFF 		bl	chThdStart
 420              	.LVL21:
 421              		.loc 1 105 0
 422 00bc FFF7FEFF 		bl	test_wait_threads
 423              	.LVL22:
 424              		.loc 1 106 0
 425 00c0 0D49     		ldr	r1, .L11+40
 426 00c2 0120     		movs	r0, #1
 427              		.loc 1 107 0
 428 00c4 02B0     		add	sp, sp, #8
 429              		.cfi_def_cfa_offset 16
 430              		@ sp needed
 431 00c6 BDE87040 		pop	{r4, r5, r6, lr}
 432              		.cfi_restore 14
 433              		.cfi_restore 6
 434              		.cfi_restore 5
 435              		.cfi_restore 4
 436              		.cfi_def_cfa_offset 0
 437              		.loc 1 106 0
 438 00ca FFF7FEBF 		b	_test_assert_sequence
 439              	.LVL23:
 440              	.L12:
 441 00ce 00BF     		.align	2
 442              	.L11:
 443 00d0 00000000 		.word	ch
 444 00d4 00000000 		.word	wa
 445 00d8 04000000 		.word	.LC1
 446 00dc 00000000 		.word	threads
 447 00e0 00000000 		.word	thread
 448 00e4 00000000 		.word	.LC0
 449 00e8 10000000 		.word	.LC4
 450 00ec 0C000000 		.word	.LC3
 451 00f0 08000000 		.word	.LC2
 452 00f4 00000000 		.word	.LANCHOR0
 453 00f8 14000000 		.word	.LC5
 454              		.cfi_endproc
 455              	.LFE228:
ARM GAS  C:\Users\jo\AppData\Local\Temp\ccyDhY1D.s 			page 9


 456              		.size	thd2_execute, .-thd2_execute
 457 00fc AFF30080 		.section	.text.thd3_execute,"ax",%progbits
 458              		.align	2
 459              		.p2align 4,,15
 460              		.thumb
 461              		.thumb_func
 462              		.type	thd3_execute, %function
 463              	thd3_execute:
 464              	.LFB229:
 465              		.loc 1 126 0
 466              		.cfi_startproc
 467              		@ args = 0, pretend = 0, frame = 0
 468              		@ frame_needed = 0, uses_anonymous_args = 0
 469 0000 F8B5     		push	{r3, r4, r5, r6, r7, lr}
 470              		.cfi_def_cfa_offset 24
 471              		.cfi_offset 3, -24
 472              		.cfi_offset 4, -20
 473              		.cfi_offset 5, -16
 474              		.cfi_offset 6, -12
 475              		.cfi_offset 7, -8
 476              		.cfi_offset 14, -4
 477              	.LBB238:
 478              	.LBB239:
 479              	.LBB240:
 480              	.LBB241:
 481              		.loc 2 179 0
 482 0002 5D4E     		ldr	r6, .L21
 483              	.LBE241:
 484              	.LBE240:
 485              		.loc 2 192 0
 486 0004 B369     		ldr	r3, [r6, #24]
 487 0006 9C68     		ldr	r4, [r3, #8]
 488              	.LBE239:
 489              	.LBE238:
 490              		.loc 1 130 0
 491 0008 651C     		adds	r5, r4, #1
 492 000a 2846     		mov	r0, r5
 493 000c FFF7FEFF 		bl	chThdSetPriority
 494              	.LVL24:
 495              		.loc 1 131 0
 496 0010 011B     		subs	r1, r0, r4
 497              		.loc 1 130 0
 498 0012 0746     		mov	r7, r0
 499              	.LVL25:
 500              		.loc 1 131 0
 501 0014 B1FA81F1 		clz	r1, r1
 502 0018 0120     		movs	r0, #1
 503              	.LVL26:
 504 001a 4909     		lsrs	r1, r1, #5
 505 001c FFF7FEFF 		bl	_test_assert
 506              	.LVL27:
 507 0020 00B1     		cbz	r0, .L20
 508              	.LVL28:
 509              	.L13:
 510 0022 F8BD     		pop	{r3, r4, r5, r6, r7, pc}
 511              	.LVL29:
 512              	.L20:
ARM GAS  C:\Users\jo\AppData\Local\Temp\ccyDhY1D.s 			page 10


 513              	.LBB242:
 514              	.LBB243:
 515              		.loc 2 192 0
 516 0024 B369     		ldr	r3, [r6, #24]
 517              	.LBE243:
 518              	.LBE242:
 519              		.loc 1 133 0
 520 0026 9968     		ldr	r1, [r3, #8]
 521 0028 0220     		movs	r0, #2
 522 002a 691A     		subs	r1, r5, r1
 523 002c B1FA81F1 		clz	r1, r1
 524 0030 4909     		lsrs	r1, r1, #5
 525 0032 FFF7FEFF 		bl	_test_assert
 526              	.LVL30:
 527 0036 0028     		cmp	r0, #0
 528 0038 F3D1     		bne	.L13
 529              		.loc 1 135 0
 530 003a 3846     		mov	r0, r7
 531 003c FFF7FEFF 		bl	chThdSetPriority
 532              	.LVL31:
 533              		.loc 1 136 0
 534 0040 291A     		subs	r1, r5, r0
 535 0042 0320     		movs	r0, #3
 536              	.LVL32:
 537 0044 B1FA81F1 		clz	r1, r1
 538 0048 4909     		lsrs	r1, r1, #5
 539 004a FFF7FEFF 		bl	_test_assert
 540              	.LVL33:
 541 004e 0028     		cmp	r0, #0
 542 0050 E7D1     		bne	.L13
 543              	.LBB244:
 544              	.LBB245:
 545              		.loc 2 192 0
 546 0052 B369     		ldr	r3, [r6, #24]
 547              	.LBE245:
 548              	.LBE244:
 549              		.loc 1 138 0
 550 0054 9968     		ldr	r1, [r3, #8]
 551 0056 0420     		movs	r0, #4
 552 0058 611A     		subs	r1, r4, r1
 553 005a B1FA81F1 		clz	r1, r1
 554 005e 4909     		lsrs	r1, r1, #5
 555 0060 FFF7FEFF 		bl	_test_assert
 556              	.LVL34:
 557 0064 0028     		cmp	r0, #0
 558 0066 DCD1     		bne	.L13
 559              	.LVL35:
 560              	.LBB246:
 561              	.LBB247:
 562              	.LBB248:
 563              	.LBB249:
 564              	.LBB250:
 565              		.loc 3 546 0
 566 0068 2023     		movs	r3, #32
 567              	@ 546 "../../../os/ext/CMSIS/include/core_cmFunc.h" 1
 568 006a 83F31188 		MSR basepri, r3
 569              	@ 0 "" 2
ARM GAS  C:\Users\jo\AppData\Local\Temp\ccyDhY1D.s 			page 11


 570              		.thumb
 571              	.LBE250:
 572              	.LBE249:
 573              	.LBE248:
 574              		.loc 4 300 0
 575 006e FFF7FEFF 		bl	_stats_start_measure_crit_thd
 576              	.LVL36:
 577              		.loc 4 301 0
 578 0072 FFF7FEFF 		bl	_dbg_check_lock
 579              	.LVL37:
 580              	.LBE247:
 581              	.LBE246:
 582              	.LBB251:
 583              	.LBB252:
 584              		.loc 2 179 0
 585 0076 B269     		ldr	r2, [r6, #24]
 586              	.LBE252:
 587              	.LBE251:
 588              		.loc 1 144 0
 589 0078 9368     		ldr	r3, [r2, #8]
 590 007a 0233     		adds	r3, r3, #2
 591 007c 9360     		str	r3, [r2, #8]
 592              	.LBB253:
 593              	.LBB254:
 594              		.loc 4 311 0
 595 007e FFF7FEFF 		bl	_dbg_check_unlock
 596              	.LVL38:
 597              		.loc 4 312 0
 598 0082 FFF7FEFF 		bl	_stats_stop_measure_crit_thd
 599              	.LVL39:
 600              		.loc 4 318 0
 601 0086 B269     		ldr	r2, [r6, #24]
 602 0088 3368     		ldr	r3, [r6]
 603 008a 9268     		ldr	r2, [r2, #8]
 604 008c 9B68     		ldr	r3, [r3, #8]
 605 008e 9A42     		cmp	r2, r3
 606 0090 02D2     		bcs	.L17
 607 0092 3A48     		ldr	r0, .L21+4
 608 0094 FFF7FEFF 		bl	chSysHalt
 609              	.LVL40:
 610              	.L17:
 611              	.LBB255:
 612              	.LBB256:
 613              	.LBB257:
 614              		.loc 3 546 0
 615 0098 0023     		movs	r3, #0
 616              	@ 546 "../../../os/ext/CMSIS/include/core_cmFunc.h" 1
 617 009a 83F31188 		MSR basepri, r3
 618              	@ 0 "" 2
 619              		.thumb
 620              	.LBE257:
 621              	.LBE256:
 622              	.LBE255:
 623              	.LBE254:
 624              	.LBE253:
 625              	.LBB258:
 626              	.LBB259:
ARM GAS  C:\Users\jo\AppData\Local\Temp\ccyDhY1D.s 			page 12


 627              		.loc 2 192 0
 628 009e B369     		ldr	r3, [r6, #24]
 629              	.LBB260:
 630              	.LBB261:
 631              		.loc 2 179 0
 632 00a0 354F     		ldr	r7, .L21
 633              	.LBE261:
 634              	.LBE260:
 635              	.LBE259:
 636              	.LBE258:
 637              		.loc 1 146 0
 638 00a2 9968     		ldr	r1, [r3, #8]
 639 00a4 A61C     		adds	r6, r4, #2
 640 00a6 711A     		subs	r1, r6, r1
 641 00a8 0520     		movs	r0, #5
 642 00aa B1FA81F1 		clz	r1, r1
 643 00ae 4909     		lsrs	r1, r1, #5
 644 00b0 FFF7FEFF 		bl	_test_assert
 645              	.LVL41:
 646 00b4 0028     		cmp	r0, #0
 647 00b6 B4D1     		bne	.L13
 648              		.loc 1 150 0
 649 00b8 2846     		mov	r0, r5
 650 00ba FFF7FEFF 		bl	chThdSetPriority
 651              	.LVL42:
 652              		.loc 1 151 0
 653 00be 011B     		subs	r1, r0, r4
 654 00c0 0620     		movs	r0, #6
 655              	.LVL43:
 656 00c2 B1FA81F1 		clz	r1, r1
 657 00c6 4909     		lsrs	r1, r1, #5
 658 00c8 FFF7FEFF 		bl	_test_assert
 659              	.LVL44:
 660 00cc 0028     		cmp	r0, #0
 661 00ce A8D1     		bne	.L13
 662              		.loc 1 153 0
 663 00d0 BB69     		ldr	r3, [r7, #24]
 664 00d2 9968     		ldr	r1, [r3, #8]
 665 00d4 0720     		movs	r0, #7
 666 00d6 711A     		subs	r1, r6, r1
 667 00d8 B1FA81F1 		clz	r1, r1
 668 00dc 4909     		lsrs	r1, r1, #5
 669 00de FFF7FEFF 		bl	_test_assert
 670              	.LVL45:
 671 00e2 0028     		cmp	r0, #0
 672 00e4 9DD1     		bne	.L13
 673              		.loc 1 155 0
 674 00e6 BB69     		ldr	r3, [r7, #24]
 675 00e8 196C     		ldr	r1, [r3, #64]
 676 00ea 0820     		movs	r0, #8
 677 00ec 691A     		subs	r1, r5, r1
 678 00ee B1FA81F1 		clz	r1, r1
 679 00f2 4909     		lsrs	r1, r1, #5
 680 00f4 FFF7FEFF 		bl	_test_assert
 681              	.LVL46:
 682 00f8 0028     		cmp	r0, #0
 683 00fa 92D1     		bne	.L13
ARM GAS  C:\Users\jo\AppData\Local\Temp\ccyDhY1D.s 			page 13


 684              		.loc 1 159 0
 685 00fc E61C     		adds	r6, r4, #3
 686 00fe 3046     		mov	r0, r6
 687 0100 FFF7FEFF 		bl	chThdSetPriority
 688              	.LVL47:
 689              		.loc 1 160 0
 690 0104 281A     		subs	r0, r5, r0
 691              	.LVL48:
 692 0106 4142     		rsbs	r1, r0, #0
 693 0108 4141     		adcs	r1, r1, r0
 694 010a 0920     		movs	r0, #9
 695 010c FFF7FEFF 		bl	_test_assert
 696              	.LVL49:
 697 0110 0028     		cmp	r0, #0
 698 0112 86D1     		bne	.L13
 699              		.loc 1 162 0
 700 0114 BB69     		ldr	r3, [r7, #24]
 701 0116 9968     		ldr	r1, [r3, #8]
 702 0118 721A     		subs	r2, r6, r1
 703 011a 5142     		rsbs	r1, r2, #0
 704 011c 5141     		adcs	r1, r1, r2
 705 011e 0A20     		movs	r0, #10
 706 0120 FFF7FEFF 		bl	_test_assert
 707              	.LVL50:
 708 0124 0028     		cmp	r0, #0
 709 0126 7FF47CAF 		bne	.L13
 710              		.loc 1 164 0
 711 012a BB69     		ldr	r3, [r7, #24]
 712 012c 196C     		ldr	r1, [r3, #64]
 713 012e 731A     		subs	r3, r6, r1
 714 0130 5942     		rsbs	r1, r3, #0
 715 0132 5941     		adcs	r1, r1, r3
 716 0134 0B20     		movs	r0, #11
 717 0136 FFF7FEFF 		bl	_test_assert
 718              	.LVL51:
 719 013a 0028     		cmp	r0, #0
 720 013c 7FF471AF 		bne	.L13
 721              	.LVL52:
 722              	.LBB262:
 723              	.LBB263:
 724              	.LBB264:
 725              	.LBB265:
 726              	.LBB266:
 727              		.loc 3 546 0
 728 0140 2023     		movs	r3, #32
 729              	@ 546 "../../../os/ext/CMSIS/include/core_cmFunc.h" 1
 730 0142 83F31188 		MSR basepri, r3
 731              	@ 0 "" 2
 732              		.thumb
 733              	.LBE266:
 734              	.LBE265:
 735              	.LBE264:
 736              		.loc 4 300 0
 737 0146 FFF7FEFF 		bl	_stats_start_measure_crit_thd
 738              	.LVL53:
 739              		.loc 4 301 0
 740 014a FFF7FEFF 		bl	_dbg_check_lock
ARM GAS  C:\Users\jo\AppData\Local\Temp\ccyDhY1D.s 			page 14


 741              	.LVL54:
 742              	.LBE263:
 743              	.LBE262:
 744              	.LBB267:
 745              	.LBB268:
 746              		.loc 2 179 0
 747 014e BB69     		ldr	r3, [r7, #24]
 748              	.LBE268:
 749              	.LBE267:
 750              		.loc 1 168 0
 751 0150 9C60     		str	r4, [r3, #8]
 752              		.loc 1 169 0
 753 0152 1C64     		str	r4, [r3, #64]
 754              	.LBB269:
 755              	.LBB270:
 756              		.loc 4 311 0
 757 0154 FFF7FEFF 		bl	_dbg_check_unlock
 758              	.LVL55:
 759              		.loc 4 312 0
 760 0158 FFF7FEFF 		bl	_stats_stop_measure_crit_thd
 761              	.LVL56:
 762              		.loc 4 318 0
 763 015c BA69     		ldr	r2, [r7, #24]
 764 015e 3B68     		ldr	r3, [r7]
 765 0160 9268     		ldr	r2, [r2, #8]
 766 0162 9B68     		ldr	r3, [r3, #8]
 767 0164 9A42     		cmp	r2, r3
 768 0166 02D2     		bcs	.L18
 769 0168 0448     		ldr	r0, .L21+4
 770 016a FFF7FEFF 		bl	chSysHalt
 771              	.LVL57:
 772              	.L18:
 773              	.LBB271:
 774              	.LBB272:
 775              	.LBB273:
 776              		.loc 3 546 0
 777 016e 0023     		movs	r3, #0
 778              	@ 546 "../../../os/ext/CMSIS/include/core_cmFunc.h" 1
 779 0170 83F31188 		MSR basepri, r3
 780              	@ 0 "" 2
 781              		.thumb
 782 0174 55E7     		b	.L13
 783              	.L22:
 784 0176 00BF     		.align	2
 785              	.L21:
 786 0178 00000000 		.word	ch
 787 017c 00000000 		.word	.LANCHOR0
 788              	.LBE273:
 789              	.LBE272:
 790              	.LBE271:
 791              	.LBE270:
 792              	.LBE269:
 793              		.cfi_endproc
 794              	.LFE229:
 795              		.size	thd3_execute, .-thd3_execute
 796              		.section	.text.thd4_execute,"ax",%progbits
 797              		.align	2
ARM GAS  C:\Users\jo\AppData\Local\Temp\ccyDhY1D.s 			page 15


 798              		.p2align 4,,15
 799              		.thumb
 800              		.thumb_func
 801              		.type	thd4_execute, %function
 802              	thd4_execute:
 803              	.LFB230:
 804              		.loc 1 189 0
 805              		.cfi_startproc
 806              		@ args = 0, pretend = 0, frame = 0
 807              		@ frame_needed = 0, uses_anonymous_args = 0
 808 0000 38B5     		push	{r3, r4, r5, lr}
 809              		.cfi_def_cfa_offset 16
 810              		.cfi_offset 3, -16
 811              		.cfi_offset 4, -12
 812              		.cfi_offset 5, -8
 813              		.cfi_offset 14, -4
 814              		.loc 1 192 0
 815 0002 FFF7FEFF 		bl	test_wait_tick
 816              	.LVL58:
 817              	.LBB340:
 818              	.LBB341:
 819              	.LBB342:
 820              	.LBB343:
 821              	.LBB344:
 822              	.LBB345:
 823              	.LBB346:
 824              		.loc 3 546 0
 825 0006 2023     		movs	r3, #32
 826              	@ 546 "../../../os/ext/CMSIS/include/core_cmFunc.h" 1
 827 0008 83F31188 		MSR basepri, r3
 828              	@ 0 "" 2
 829              		.thumb
 830              	.LBE346:
 831              	.LBE345:
 832              	.LBE344:
 833              		.loc 4 300 0
 834 000c FFF7FEFF 		bl	_stats_start_measure_crit_thd
 835              	.LVL59:
 836              	.LBE343:
 837              	.LBE342:
 838              	.LBB348:
 839              	.LBB349:
 840              		.loc 4 318 0
 841 0010 4C4C     		ldr	r4, .L34
 842              	.LBE349:
 843              	.LBE348:
 844              	.LBB354:
 845              	.LBB347:
 846              		.loc 4 301 0
 847 0012 FFF7FEFF 		bl	_dbg_check_lock
 848              	.LVL60:
 849              	.LBE347:
 850              	.LBE354:
 851              	.LBB355:
 852              	.LBB356:
 853              	.LBB357:
 854              	.LBB358:
ARM GAS  C:\Users\jo\AppData\Local\Temp\ccyDhY1D.s 			page 16


 855              		.file 5 "../../../os/hal/ports/STM32/LLD/TIMv1/st_lld.h"
 856              		.loc 5 128 0
 857 0016 4FF08043 		mov	r3, #1073741824
 858 001a 5D6A     		ldr	r5, [r3, #36]
 859              	.LBE358:
 860              	.LBE357:
 861              	.LBE356:
 862              	.LBE355:
 863              	.LBB359:
 864              	.LBB353:
 865              		.loc 4 311 0
 866 001c FFF7FEFF 		bl	_dbg_check_unlock
 867              	.LVL61:
 868              		.loc 4 312 0
 869 0020 FFF7FEFF 		bl	_stats_stop_measure_crit_thd
 870              	.LVL62:
 871              		.loc 4 318 0
 872 0024 A269     		ldr	r2, [r4, #24]
 873 0026 2368     		ldr	r3, [r4]
 874 0028 9268     		ldr	r2, [r2, #8]
 875 002a 9B68     		ldr	r3, [r3, #8]
 876 002c 9A42     		cmp	r2, r3
 877 002e 02D2     		bcs	.L24
 878 0030 4548     		ldr	r0, .L34+4
 879 0032 FFF7FEFF 		bl	chSysHalt
 880              	.LVL63:
 881              	.L24:
 882              	.LBB350:
 883              	.LBB351:
 884              	.LBB352:
 885              		.loc 3 546 0
 886 0036 0023     		movs	r3, #0
 887              	@ 546 "../../../os/ext/CMSIS/include/core_cmFunc.h" 1
 888 0038 83F31188 		MSR basepri, r3
 889              	@ 0 "" 2
 890              		.thumb
 891              	.LBE352:
 892              	.LBE351:
 893              	.LBE350:
 894              	.LBE353:
 895              	.LBE359:
 896              	.LBE341:
 897              	.LBE340:
 898              		.loc 1 196 0
 899 003c 4FF47A70 		mov	r0, #1000
 900 0040 FFF7FEFF 		bl	chThdSleep
 901              	.LVL64:
 902              		.loc 1 197 0
 903 0044 05F57A71 		add	r1, r5, #1000
 904 0048 05F2EB32 		addw	r2, r5, #1003
 905 004c 0120     		movs	r0, #1
 906 004e FFF7FEFF 		bl	_test_assert_time_window
 907              	.LVL65:
 908 0052 00B1     		cbz	r0, .L32
 909              	.L23:
 910 0054 38BD     		pop	{r3, r4, r5, pc}
 911              	.L32:
ARM GAS  C:\Users\jo\AppData\Local\Temp\ccyDhY1D.s 			page 17


 912              	.LVL66:
 913              	.LBB360:
 914              	.LBB361:
 915              	.LBB362:
 916              	.LBB363:
 917              	.LBB364:
 918              	.LBB365:
 919              	.LBB366:
 920              		.loc 3 546 0
 921 0056 2023     		movs	r3, #32
 922              	@ 546 "../../../os/ext/CMSIS/include/core_cmFunc.h" 1
 923 0058 83F31188 		MSR basepri, r3
 924              	@ 0 "" 2
 925              		.thumb
 926              	.LBE366:
 927              	.LBE365:
 928              	.LBE364:
 929              		.loc 4 300 0
 930 005c FFF7FEFF 		bl	_stats_start_measure_crit_thd
 931              	.LVL67:
 932              		.loc 4 301 0
 933 0060 FFF7FEFF 		bl	_dbg_check_lock
 934              	.LVL68:
 935              	.LBE363:
 936              	.LBE362:
 937              	.LBB367:
 938              	.LBB368:
 939              	.LBB369:
 940              	.LBB370:
 941              		.loc 5 128 0
 942 0064 4FF08043 		mov	r3, #1073741824
 943 0068 5D6A     		ldr	r5, [r3, #36]
 944              	.LBE370:
 945              	.LBE369:
 946              	.LBE368:
 947              	.LBE367:
 948              	.LBB371:
 949              	.LBB372:
 950              		.loc 4 311 0
 951 006a FFF7FEFF 		bl	_dbg_check_unlock
 952              	.LVL69:
 953              		.loc 4 312 0
 954 006e FFF7FEFF 		bl	_stats_stop_measure_crit_thd
 955              	.LVL70:
 956              		.loc 4 318 0
 957 0072 A269     		ldr	r2, [r4, #24]
 958 0074 2368     		ldr	r3, [r4]
 959 0076 9268     		ldr	r2, [r2, #8]
 960 0078 9B68     		ldr	r3, [r3, #8]
 961 007a 9A42     		cmp	r2, r3
 962 007c 02D2     		bcs	.L27
 963 007e 3248     		ldr	r0, .L34+4
 964 0080 FFF7FEFF 		bl	chSysHalt
 965              	.LVL71:
 966              	.L27:
 967              	.LBB373:
 968              	.LBB374:
ARM GAS  C:\Users\jo\AppData\Local\Temp\ccyDhY1D.s 			page 18


 969              	.LBB375:
 970              		.loc 3 546 0
 971 0084 0023     		movs	r3, #0
 972              	@ 546 "../../../os/ext/CMSIS/include/core_cmFunc.h" 1
 973 0086 83F31188 		MSR basepri, r3
 974              	@ 0 "" 2
 975              		.thumb
 976              	.LBE375:
 977              	.LBE374:
 978              	.LBE373:
 979              	.LBE372:
 980              	.LBE371:
 981              	.LBE361:
 982              	.LBE360:
 983              		.loc 1 203 0
 984 008a 4FF47A70 		mov	r0, #1000
 985 008e FFF7FEFF 		bl	chThdSleep
 986              	.LVL72:
 987              		.loc 1 204 0
 988 0092 05F57A71 		add	r1, r5, #1000
 989 0096 05F2EB32 		addw	r2, r5, #1003
 990 009a 0220     		movs	r0, #2
 991 009c FFF7FEFF 		bl	_test_assert_time_window
 992              	.LVL73:
 993 00a0 0028     		cmp	r0, #0
 994 00a2 D7D1     		bne	.L23
 995              	.LVL74:
 996              	.LBB376:
 997              	.LBB377:
 998              	.LBB378:
 999              	.LBB379:
 1000              	.LBB380:
 1001              	.LBB381:
 1002              	.LBB382:
 1003              	.LBB383:
 1004              	.LBB384:
 1005              		.loc 3 546 0
 1006 00a4 2023     		movs	r3, #32
 1007              	@ 546 "../../../os/ext/CMSIS/include/core_cmFunc.h" 1
 1008 00a6 83F31188 		MSR basepri, r3
 1009              	@ 0 "" 2
 1010              		.thumb
 1011              	.LBE384:
 1012              	.LBE383:
 1013              	.LBE382:
 1014              		.loc 4 300 0
 1015 00aa FFF7FEFF 		bl	_stats_start_measure_crit_thd
 1016              	.LVL75:
 1017              		.loc 4 301 0
 1018 00ae FFF7FEFF 		bl	_dbg_check_lock
 1019              	.LVL76:
 1020              	.LBE381:
 1021              	.LBE380:
 1022              	.LBB385:
 1023              	.LBB386:
 1024              	.LBB387:
 1025              	.LBB388:
ARM GAS  C:\Users\jo\AppData\Local\Temp\ccyDhY1D.s 			page 19


 1026              		.loc 5 128 0
 1027 00b2 4FF08043 		mov	r3, #1073741824
 1028 00b6 5D6A     		ldr	r5, [r3, #36]
 1029              	.LBE388:
 1030              	.LBE387:
 1031              	.LBE386:
 1032              	.LBE385:
 1033              	.LBB389:
 1034              	.LBB390:
 1035              		.loc 4 311 0
 1036 00b8 FFF7FEFF 		bl	_dbg_check_unlock
 1037              	.LVL77:
 1038              		.loc 4 312 0
 1039 00bc FFF7FEFF 		bl	_stats_stop_measure_crit_thd
 1040              	.LVL78:
 1041              		.loc 4 318 0
 1042 00c0 A269     		ldr	r2, [r4, #24]
 1043 00c2 2368     		ldr	r3, [r4]
 1044 00c4 9268     		ldr	r2, [r2, #8]
 1045 00c6 9B68     		ldr	r3, [r3, #8]
 1046 00c8 9A42     		cmp	r2, r3
 1047 00ca 02D2     		bcs	.L29
 1048 00cc 1E48     		ldr	r0, .L34+4
 1049 00ce FFF7FEFF 		bl	chSysHalt
 1050              	.LVL79:
 1051              	.L29:
 1052              	.LBB391:
 1053              	.LBB392:
 1054              	.LBB393:
 1055              		.loc 3 546 0
 1056 00d2 0023     		movs	r3, #0
 1057              	@ 546 "../../../os/ext/CMSIS/include/core_cmFunc.h" 1
 1058 00d4 83F31188 		MSR basepri, r3
 1059              	@ 0 "" 2
 1060              		.thumb
 1061              	.LBE393:
 1062              	.LBE392:
 1063              	.LBE391:
 1064              	.LBE390:
 1065              	.LBE389:
 1066              	.LBE379:
 1067              	.LBE378:
 1068              		.loc 1 210 0
 1069 00d8 42F21070 		movw	r0, #10000
 1070 00dc FFF7FEFF 		bl	chThdSleep
 1071              	.LVL80:
 1072              		.loc 1 211 0
 1073 00e0 05F51C51 		add	r1, r5, #9984
 1074 00e4 0A46     		mov	r2, r1
 1075 00e6 1332     		adds	r2, r2, #19
 1076 00e8 1031     		adds	r1, r1, #16
 1077 00ea 0320     		movs	r0, #3
 1078 00ec FFF7FEFF 		bl	_test_assert_time_window
 1079              	.LVL81:
 1080 00f0 0028     		cmp	r0, #0
 1081 00f2 AFD1     		bne	.L23
 1082              	.LVL82:
ARM GAS  C:\Users\jo\AppData\Local\Temp\ccyDhY1D.s 			page 20


 1083              	.LBB394:
 1084              	.LBB395:
 1085              	.LBB396:
 1086              	.LBB397:
 1087              	.LBB398:
 1088              	.LBB399:
 1089              	.LBB400:
 1090              		.loc 3 546 0
 1091 00f4 2023     		movs	r3, #32
 1092              	@ 546 "../../../os/ext/CMSIS/include/core_cmFunc.h" 1
 1093 00f6 83F31188 		MSR basepri, r3
 1094              	@ 0 "" 2
 1095              		.thumb
 1096              	.LBE400:
 1097              	.LBE399:
 1098              	.LBE398:
 1099              		.loc 4 300 0
 1100 00fa FFF7FEFF 		bl	_stats_start_measure_crit_thd
 1101              	.LVL83:
 1102              		.loc 4 301 0
 1103 00fe FFF7FEFF 		bl	_dbg_check_lock
 1104              	.LVL84:
 1105              	.LBE397:
 1106              	.LBE396:
 1107              	.LBB401:
 1108              	.LBB402:
 1109              	.LBB403:
 1110              	.LBB404:
 1111              		.loc 5 128 0
 1112 0102 4FF08043 		mov	r3, #1073741824
 1113 0106 5D6A     		ldr	r5, [r3, #36]
 1114              	.LBE404:
 1115              	.LBE403:
 1116              	.LBE402:
 1117              	.LBE401:
 1118              	.LBB405:
 1119              	.LBB406:
 1120              		.loc 4 311 0
 1121 0108 FFF7FEFF 		bl	_dbg_check_unlock
 1122              	.LVL85:
 1123              		.loc 4 312 0
 1124 010c FFF7FEFF 		bl	_stats_stop_measure_crit_thd
 1125              	.LVL86:
 1126              		.loc 4 318 0
 1127 0110 A269     		ldr	r2, [r4, #24]
 1128 0112 2368     		ldr	r3, [r4]
 1129 0114 9268     		ldr	r2, [r2, #8]
 1130 0116 9B68     		ldr	r3, [r3, #8]
 1131 0118 9A42     		cmp	r2, r3
 1132 011a 0FD3     		bcc	.L33
 1133              	.L30:
 1134              	.LVL87:
 1135              	.LBB407:
 1136              	.LBB408:
 1137              	.LBB409:
 1138              		.loc 3 546 0
 1139 011c 0023     		movs	r3, #0
ARM GAS  C:\Users\jo\AppData\Local\Temp\ccyDhY1D.s 			page 21


 1140              	@ 546 "../../../os/ext/CMSIS/include/core_cmFunc.h" 1
 1141 011e 83F31188 		MSR basepri, r3
 1142              	@ 0 "" 2
 1143              		.thumb
 1144              	.LBE409:
 1145              	.LBE408:
 1146              	.LBE407:
 1147              	.LBE406:
 1148              	.LBE405:
 1149              	.LBE395:
 1150              	.LBE394:
 1151              		.loc 1 216 0
 1152 0122 05F57A74 		add	r4, r5, #1000
 1153              	.LVL88:
 1154              		.loc 1 217 0
 1155 0126 2046     		mov	r0, r4
 1156 0128 FFF7FEFF 		bl	chThdSleepUntil
 1157              	.LVL89:
 1158              		.loc 1 218 0
 1159 012c 2146     		mov	r1, r4
 1160 012e 05F2EB32 		addw	r2, r5, #1003
 1161 0132 0420     		movs	r0, #4
 1162              	.LBE377:
 1163              	.LBE376:
 1164              		.loc 1 221 0
 1165 0134 BDE83840 		pop	{r3, r4, r5, lr}
 1166              		.cfi_remember_state
 1167              		.cfi_restore 14
 1168              		.cfi_restore 5
 1169              		.cfi_restore 4
 1170              		.cfi_restore 3
 1171              		.cfi_def_cfa_offset 0
 1172              	.LVL90:
 1173              	.LBB415:
 1174              	.LBB414:
 1175              		.loc 1 218 0
 1176 0138 FFF7FEBF 		b	_test_assert_time_window
 1177              	.LVL91:
 1178              	.L33:
 1179              		.cfi_restore_state
 1180              	.LBB413:
 1181              	.LBB412:
 1182              	.LBB411:
 1183              	.LBB410:
 1184              		.loc 4 318 0
 1185 013c 0248     		ldr	r0, .L34+4
 1186 013e FFF7FEFF 		bl	chSysHalt
 1187              	.LVL92:
 1188 0142 EBE7     		b	.L30
 1189              	.L35:
 1190              		.align	2
 1191              	.L34:
 1192 0144 00000000 		.word	ch
 1193 0148 00000000 		.word	.LANCHOR0
 1194              	.LBE410:
 1195              	.LBE411:
 1196              	.LBE412:
ARM GAS  C:\Users\jo\AppData\Local\Temp\ccyDhY1D.s 			page 22


 1197              	.LBE413:
 1198              	.LBE414:
 1199              	.LBE415:
 1200              		.cfi_endproc
 1201              	.LFE230:
 1202              		.size	thd4_execute, .-thd4_execute
 1203              		.global	patternthd
 1204              		.global	testthd4
 1205              		.global	testthd3
 1206              		.global	testthd2
 1207              		.global	testthd1
 1208 014c AFF30080 		.section	.rodata.testthd1,"a",%progbits
 1209              		.align	2
 1210              		.type	testthd1, %object
 1211              		.size	testthd1, 16
 1212              	testthd1:
 1213 0000 64000000 		.word	.LC9
 1214 0004 00000000 		.word	0
 1215 0008 00000000 		.word	0
 1216 000c 00000000 		.word	thd1_execute
 1217              		.section	.rodata.testthd2,"a",%progbits
 1218              		.align	2
 1219              		.type	testthd2, %object
 1220              		.size	testthd2, 16
 1221              	testthd2:
 1222 0000 48000000 		.word	.LC8
 1223 0004 00000000 		.word	0
 1224 0008 00000000 		.word	0
 1225 000c 00000000 		.word	thd2_execute
 1226              		.section	.rodata.testthd3,"a",%progbits
 1227              		.align	2
 1228              		.type	testthd3, %object
 1229              		.size	testthd3, 16
 1230              	testthd3:
 1231 0000 2C000000 		.word	.LC7
 1232 0004 00000000 		.word	0
 1233 0008 00000000 		.word	0
 1234 000c 00000000 		.word	thd3_execute
 1235              		.section	.rodata.testthd4,"a",%progbits
 1236              		.align	2
 1237              		.type	testthd4, %object
 1238              		.size	testthd4, 16
 1239              	testthd4:
 1240 0000 1C000000 		.word	.LC6
 1241 0004 00000000 		.word	0
 1242 0008 00000000 		.word	0
 1243 000c 00000000 		.word	thd4_execute
 1244              		.section	.rodata.patternthd,"a",%progbits
 1245              		.align	2
 1246              		.type	patternthd, %object
 1247              		.size	patternthd, 20
 1248              	patternthd:
 1249 0000 00000000 		.word	testthd1
 1250 0004 00000000 		.word	testthd2
 1251 0008 00000000 		.word	testthd3
 1252 000c 00000000 		.word	testthd4
 1253 0010 00000000 		.word	0
ARM GAS  C:\Users\jo\AppData\Local\Temp\ccyDhY1D.s 			page 23


 1254              		.section	.rodata.str1.4,"aMS",%progbits,1
 1255              		.align	2
 1256              	.LC0:
 1257 0000 4500     		.ascii	"E\000"
 1258 0002 0000     		.space	2
 1259              	.LC1:
 1260 0004 4400     		.ascii	"D\000"
 1261 0006 0000     		.space	2
 1262              	.LC2:
 1263 0008 4300     		.ascii	"C\000"
 1264 000a 0000     		.space	2
 1265              	.LC3:
 1266 000c 4200     		.ascii	"B\000"
 1267 000e 0000     		.space	2
 1268              	.LC4:
 1269 0010 4100     		.ascii	"A\000"
 1270 0012 0000     		.space	2
 1271              	.LC5:
 1272 0014 41424344 		.ascii	"ABCDE\000"
 1272      4500
 1273 001a 0000     		.space	2
 1274              	.LC6:
 1275 001c 54687265 		.ascii	"Threads, delays\000"
 1275      6164732C 
 1275      2064656C 
 1275      61797300 
 1276              	.LC7:
 1277 002c 54687265 		.ascii	"Threads, priority change\000"
 1277      6164732C 
 1277      20707269 
 1277      6F726974 
 1277      79206368 
 1278 0045 000000   		.space	3
 1279              	.LC8:
 1280 0048 54687265 		.ascii	"Threads, enqueuing test #2\000"
 1280      6164732C 
 1280      20656E71 
 1280      75657569 
 1280      6E672074 
 1281 0063 00       		.space	1
 1282              	.LC9:
 1283 0064 54687265 		.ascii	"Threads, enqueuing test #1\000"
 1283      6164732C 
 1283      20656E71 
 1283      75657569 
 1283      6E672074 
 1284 007f 00       		.section	.rodata.__func__.5870,"a",%progbits
 1285              		.align	2
 1286              		.set	.LANCHOR0,. + 0
 1287              		.type	__func__.5870, %object
 1288              		.size	__func__.5870, 12
 1289              	__func__.5870:
 1290 0000 63685379 		.ascii	"chSysUnlock\000"
 1290      73556E6C 
 1290      6F636B00 
 1291              		.text
 1292              	.Letext0:
ARM GAS  C:\Users\jo\AppData\Local\Temp\ccyDhY1D.s 			page 24


 1293              		.file 6 "c:\\program files\\gnu tools arm embedded\\4.9 2014q4\\lib\\gcc\\arm-none-eabi\\4.9.3\\in
 1294              		.file 7 "c:\\program files\\gnu tools arm embedded\\4.9 2014q4\\arm-none-eabi\\include\\machine\\_
 1295              		.file 8 "c:\\program files\\gnu tools arm embedded\\4.9 2014q4\\arm-none-eabi\\include\\stdint.h"
 1296              		.file 9 "../../../os/rt/ports/ARMCMx/compilers/GCC/chtypes.h"
 1297              		.file 10 "../../../os/rt/include/chsystypes.h"
 1298              		.file 11 "../../../os/rt/include/chschd.h"
 1299              		.file 12 "../../../os/rt/ports/ARMCMx/chcore.h"
 1300              		.file 13 "../../../os/rt/ports/ARMCMx/chcore_v7m.h"
 1301              		.file 14 "../../../os/hal/ports/STM32/LLD/TIMv1/stm32_tim.h"
 1302              		.file 15 "../../../os/rt/include/chdebug.h"
 1303              		.file 16 "../../../os/rt/include/chtm.h"
 1304              		.file 17 "../../../os/rt/include/chstats.h"
 1305              		.file 18 "../../../os/rt/include/chmtx.h"
 1306              		.file 19 "../../../test/rt/test.h"
 1307              		.file 20 "../../../os/rt/ports/ARMCMx/chcore_timer.h"
 1308              		.file 21 "../../../os/rt/include/chvt.h"
 1309              		.file 22 "../../../os/ext/CMSIS/include/core_cm4.h"