ARM GAS  C:\Users\jo\AppData\Local\Temp\ccngxRrK.s 			page 1


   1              		.syntax unified
   2              		.cpu cortex-m4
   3              		.fpu softvfp
   4              		.eabi_attribute 20, 1
   5              		.eabi_attribute 21, 1
   6              		.eabi_attribute 23, 3
   7              		.eabi_attribute 24, 1
   8              		.eabi_attribute 25, 1
   9              		.eabi_attribute 26, 1
  10              		.eabi_attribute 30, 2
  11              		.eabi_attribute 34, 1
  12              		.eabi_attribute 18, 4
  13              		.thumb
  14              		.file	"testqueues.c"
  15              		.text
  16              	.Ltext0:
  17              		.cfi_sections	.debug_frame
  18              		.section	.text.notify,"ax",%progbits
  19              		.align	2
  20              		.p2align 4,,15
  21              		.thumb
  22              		.thumb_func
  23              		.type	notify, %function
  24              	notify:
  25              	.LFB226:
  26              		.file 1 "../../../test/rt/testqueues.c"
  27              		.loc 1 57 0
  28              		.cfi_startproc
  29              		@ args = 0, pretend = 0, frame = 0
  30              		@ frame_needed = 0, uses_anonymous_args = 0
  31              		@ link register save eliminated.
  32              	.LVL0:
  33 0000 7047     		bx	lr
  34              		.cfi_endproc
  35              	.LFE226:
  36              		.size	notify, .-notify
  37 0002 00BFAFF3 		.section	.text.thread1,"ax",%progbits
  37      0080AFF3 
  37      0080AFF3 
  37      0080
  38              		.align	2
  39              		.p2align 4,,15
  40              		.thumb
  41              		.thumb_func
  42              		.type	thread1, %function
  43              	thread1:
  44              	.LFB228:
  45              		.loc 1 83 0
  46              		.cfi_startproc
  47              		@ args = 0, pretend = 0, frame = 0
  48              		@ frame_needed = 0, uses_anonymous_args = 0
  49              	.LVL1:
  50              		.loc 1 83 0
  51 0000 08B5     		push	{r3, lr}
  52              		.cfi_def_cfa_offset 8
  53              		.cfi_offset 3, -8
  54              		.cfi_offset 14, -4
ARM GAS  C:\Users\jo\AppData\Local\Temp\ccngxRrK.s 			page 2


  55              		.loc 1 86 0
  56 0002 4FF4FA61 		mov	r1, #2000
  57 0006 0248     		ldr	r0, .L4
  58              	.LVL2:
  59 0008 FFF7FEFF 		bl	chIQGetTimeout
  60              	.LVL3:
  61              		.loc 1 88 0
  62 000c 0020     		movs	r0, #0
  63 000e 08BD     		pop	{r3, pc}
  64              	.L5:
  65              		.align	2
  66              	.L4:
  67 0010 00000000 		.word	.LANCHOR0
  68              		.cfi_endproc
  69              	.LFE228:
  70              		.size	thread1, .-thread1
  71 0014 AFF30080 		.section	.text.chSysUnlock,"ax",%progbits
  71      AFF30080 
  71      AFF30080 
  72              		.align	2
  73              		.p2align 4,,15
  74              		.thumb
  75              		.thumb_func
  76              		.type	chSysUnlock, %function
  77              	chSysUnlock:
  78              	.LFB157:
  79              		.file 2 "../../../os/rt/include/chsys.h"
  80              		.loc 2 309 0
  81              		.cfi_startproc
  82              		@ args = 0, pretend = 0, frame = 0
  83              		@ frame_needed = 0, uses_anonymous_args = 0
  84 0000 08B5     		push	{r3, lr}
  85              		.cfi_def_cfa_offset 8
  86              		.cfi_offset 3, -8
  87              		.cfi_offset 14, -4
  88              		.loc 2 311 0
  89 0002 FFF7FEFF 		bl	_dbg_check_unlock
  90              	.LVL4:
  91              		.loc 2 312 0
  92 0006 FFF7FEFF 		bl	_stats_stop_measure_crit_thd
  93              	.LVL5:
  94              		.loc 2 318 0
  95 000a 074B     		ldr	r3, .L10
  96 000c 9A69     		ldr	r2, [r3, #24]
  97 000e 1B68     		ldr	r3, [r3]
  98 0010 9268     		ldr	r2, [r2, #8]
  99 0012 9B68     		ldr	r3, [r3, #8]
 100 0014 9A42     		cmp	r2, r3
 101 0016 02D2     		bcs	.L7
 102              		.loc 2 318 0 is_stmt 0 discriminator 1
 103 0018 0448     		ldr	r0, .L10+4
 104 001a FFF7FEFF 		bl	chSysHalt
 105              	.LVL6:
 106              	.L7:
 107              	.LBB321:
 108              	.LBB322:
 109              	.LBB323:
ARM GAS  C:\Users\jo\AppData\Local\Temp\ccngxRrK.s 			page 3


 110              		.file 3 "../../../os/ext/CMSIS/include/core_cmFunc.h"
 111              		.loc 3 546 0 is_stmt 1
 112 001e 0023     		movs	r3, #0
 113              	@ 546 "../../../os/ext/CMSIS/include/core_cmFunc.h" 1
 114 0020 83F31188 		MSR basepri, r3
 115              	@ 0 "" 2
 116              		.thumb
 117 0024 08BD     		pop	{r3, pc}
 118              	.L11:
 119 0026 00BF     		.align	2
 120              	.L10:
 121 0028 00000000 		.word	ch
 122 002c 00000000 		.word	.LANCHOR1
 123              	.LBE323:
 124              	.LBE322:
 125              	.LBE321:
 126              		.cfi_endproc
 127              	.LFE157:
 128              		.size	chSysUnlock, .-chSysUnlock
 129              		.section	.text.queues1_setup,"ax",%progbits
 130              		.align	2
 131              		.p2align 4,,15
 132              		.thumb
 133              		.thumb_func
 134              		.type	queues1_setup, %function
 135              	queues1_setup:
 136              	.LFB227:
 137              		.loc 1 78 0
 138              		.cfi_startproc
 139              		@ args = 0, pretend = 0, frame = 0
 140              		@ frame_needed = 0, uses_anonymous_args = 0
 141 0000 00B5     		push	{lr}
 142              		.cfi_def_cfa_offset 4
 143              		.cfi_offset 14, -4
 144              		.loc 1 80 0
 145 0002 064B     		ldr	r3, .L14
 146 0004 0648     		ldr	r0, .L14+4
 147 0006 1968     		ldr	r1, [r3]
 148 0008 064B     		ldr	r3, .L14+8
 149              		.loc 1 78 0
 150 000a 83B0     		sub	sp, sp, #12
 151              		.cfi_def_cfa_offset 16
 152              		.loc 1 80 0
 153 000c 0022     		movs	r2, #0
 154 000e 0092     		str	r2, [sp]
 155 0010 0422     		movs	r2, #4
 156 0012 FFF7FEFF 		bl	chIQObjectInit
 157              	.LVL7:
 158              		.loc 1 81 0
 159 0016 03B0     		add	sp, sp, #12
 160              		.cfi_def_cfa_offset 4
 161              		@ sp needed
 162 0018 5DF804FB 		ldr	pc, [sp], #4
 163              	.L15:
 164              		.align	2
 165              	.L14:
 166 001c 00000000 		.word	wa
ARM GAS  C:\Users\jo\AppData\Local\Temp\ccngxRrK.s 			page 4


 167 0020 00000000 		.word	.LANCHOR0
 168 0024 00000000 		.word	notify
 169              		.cfi_endproc
 170              	.LFE227:
 171              		.size	queues1_setup, .-queues1_setup
 172 0028 AFF30080 		.section	.text.thread2,"ax",%progbits
 172      AFF30080 
 173              		.align	2
 174              		.p2align 4,,15
 175              		.thumb
 176              		.thumb_func
 177              		.type	thread2, %function
 178              	thread2:
 179              	.LFB231:
 180              		.loc 1 170 0
 181              		.cfi_startproc
 182              		@ args = 0, pretend = 0, frame = 0
 183              		@ frame_needed = 0, uses_anonymous_args = 0
 184              	.LVL8:
 185 0000 08B5     		push	{r3, lr}
 186              		.cfi_def_cfa_offset 8
 187              		.cfi_offset 3, -8
 188              		.cfi_offset 14, -4
 189              		.loc 1 173 0
 190 0002 0021     		movs	r1, #0
 191 0004 4FF4FA62 		mov	r2, #2000
 192 0008 0248     		ldr	r0, .L18
 193              	.LVL9:
 194 000a FFF7FEFF 		bl	chOQPutTimeout
 195              	.LVL10:
 196              		.loc 1 175 0
 197 000e 0020     		movs	r0, #0
 198 0010 08BD     		pop	{r3, pc}
 199              	.L19:
 200 0012 00BF     		.align	2
 201              	.L18:
 202 0014 00000000 		.word	.LANCHOR2
 203              		.cfi_endproc
 204              	.LFE231:
 205              		.size	thread2, .-thread2
 206 0018 AFF30080 		.section	.text.queues2_setup,"ax",%progbits
 206      AFF30080 
 207              		.align	2
 208              		.p2align 4,,15
 209              		.thumb
 210              		.thumb_func
 211              		.type	queues2_setup, %function
 212              	queues2_setup:
 213              	.LFB230:
 214              		.loc 1 165 0
 215              		.cfi_startproc
 216              		@ args = 0, pretend = 0, frame = 0
 217              		@ frame_needed = 0, uses_anonymous_args = 0
 218 0000 00B5     		push	{lr}
 219              		.cfi_def_cfa_offset 4
 220              		.cfi_offset 14, -4
 221              		.loc 1 167 0
ARM GAS  C:\Users\jo\AppData\Local\Temp\ccngxRrK.s 			page 5


 222 0002 064B     		ldr	r3, .L22
 223 0004 0648     		ldr	r0, .L22+4
 224 0006 1968     		ldr	r1, [r3]
 225 0008 064B     		ldr	r3, .L22+8
 226              		.loc 1 165 0
 227 000a 83B0     		sub	sp, sp, #12
 228              		.cfi_def_cfa_offset 16
 229              		.loc 1 167 0
 230 000c 0022     		movs	r2, #0
 231 000e 0092     		str	r2, [sp]
 232 0010 0422     		movs	r2, #4
 233 0012 FFF7FEFF 		bl	chOQObjectInit
 234              	.LVL11:
 235              		.loc 1 168 0
 236 0016 03B0     		add	sp, sp, #12
 237              		.cfi_def_cfa_offset 4
 238              		@ sp needed
 239 0018 5DF804FB 		ldr	pc, [sp], #4
 240              	.L23:
 241              		.align	2
 242              	.L22:
 243 001c 00000000 		.word	wa
 244 0020 00000000 		.word	.LANCHOR2
 245 0024 00000000 		.word	notify
 246              		.cfi_endproc
 247              	.LFE230:
 248              		.size	queues2_setup, .-queues2_setup
 249 0028 AFF30080 		.section	.text.queues1_execute,"ax",%progbits
 249      AFF30080 
 250              		.align	2
 251              		.p2align 4,,15
 252              		.thumb
 253              		.thumb_func
 254              		.type	queues1_execute, %function
 255              	queues1_execute:
 256              	.LFB229:
 257              		.loc 1 90 0
 258              		.cfi_startproc
 259              		@ args = 0, pretend = 0, frame = 0
 260              		@ frame_needed = 0, uses_anonymous_args = 0
 261              	.LVL12:
 262 0000 2DE9F041 		push	{r4, r5, r6, r7, r8, lr}
 263              		.cfi_def_cfa_offset 24
 264              		.cfi_offset 4, -24
 265              		.cfi_offset 5, -20
 266              		.cfi_offset 6, -16
 267              		.cfi_offset 7, -12
 268              		.cfi_offset 8, -8
 269              		.cfi_offset 14, -4
 270              	.LBB478:
 271              	.LBB479:
 272              	.LBB480:
 273              	.LBB481:
 274              	.LBB482:
 275              		.loc 3 546 0
 276 0004 2023     		movs	r3, #32
 277              	.LBE482:
ARM GAS  C:\Users\jo\AppData\Local\Temp\ccngxRrK.s 			page 6


 278              	.LBE481:
 279              	.LBE480:
 280              	.LBE479:
 281              	.LBE478:
 282              		.loc 1 90 0
 283 0006 82B0     		sub	sp, sp, #8
 284              		.cfi_def_cfa_offset 32
 285              	.LBB488:
 286              	.LBB486:
 287              	.LBB485:
 288              	.LBB484:
 289              	.LBB483:
 290              		.loc 3 546 0
 291              	@ 546 "../../../os/ext/CMSIS/include/core_cmFunc.h" 1
 292 0008 83F31188 		MSR basepri, r3
 293              	@ 0 "" 2
 294              		.thumb
 295              	.LBE483:
 296              	.LBE484:
 297              	.LBE485:
 298              	.LBE486:
 299              	.LBE488:
 300              	.LBB489:
 301              	.LBB490:
 302              		.file 4 "../../../os/rt/include/chqueues.h"
 303              		.loc 4 304 0
 304 000c CF4E     		ldr	r6, .L69
 305              	.LBE490:
 306              	.LBE489:
 307              	.LBB492:
 308              	.LBB487:
 309              		.loc 2 300 0
 310 000e FFF7FEFF 		bl	_stats_start_measure_crit_thd
 311              	.LVL13:
 312              		.loc 2 301 0
 313 0012 FFF7FEFF 		bl	_dbg_check_lock
 314              	.LVL14:
 315              	.LBE487:
 316              	.LBE492:
 317              	.LBB493:
 318              	.LBB491:
 319              		.loc 4 302 0
 320 0016 FFF7FEFF 		bl	chDbgCheckClassI
 321              	.LVL15:
 322              		.loc 4 304 0
 323 001a B168     		ldr	r1, [r6, #8]
 324              	.LBE491:
 325              	.LBE493:
 326              		.loc 1 95 0
 327 001c B1FA81F1 		clz	r1, r1
 328 0020 0120     		movs	r0, #1
 329 0022 4909     		lsrs	r1, r1, #5
 330 0024 FFF7FEFF 		bl	_test_assert
 331              	.LVL16:
 332 0028 0746     		mov	r7, r0
 333 002a 0028     		cmp	r0, #0
 334 002c 40F0D281 		bne	.L63
ARM GAS  C:\Users\jo\AppData\Local\Temp\ccngxRrK.s 			page 7


 335              	.LBB494:
 336              	.LBB495:
 337              	.LBB496:
 338              	.LBB497:
 339              		.loc 2 318 0
 340 0030 C74D     		ldr	r5, .L69+4
 341              		.loc 2 311 0
 342 0032 FFF7FEFF 		bl	_dbg_check_unlock
 343              	.LVL17:
 344              		.loc 2 312 0
 345 0036 FFF7FEFF 		bl	_stats_stop_measure_crit_thd
 346              	.LVL18:
 347              		.loc 2 318 0
 348 003a AA69     		ldr	r2, [r5, #24]
 349 003c 2B68     		ldr	r3, [r5]
 350 003e 9268     		ldr	r2, [r2, #8]
 351 0040 9B68     		ldr	r3, [r3, #8]
 352 0042 9A42     		cmp	r2, r3
 353 0044 C0F0C281 		bcc	.L64
 354              	.L28:
 355              	.LVL19:
 356              	.LBB498:
 357              	.LBB499:
 358              	.LBB500:
 359              		.loc 3 546 0
 360 0048 0023     		movs	r3, #0
 361              	@ 546 "../../../os/ext/CMSIS/include/core_cmFunc.h" 1
 362 004a 83F31188 		MSR basepri, r3
 363              	@ 0 "" 2
 364              	.LVL20:
 365              		.thumb
 366              	.LBE500:
 367              	.LBE499:
 368              	.LBE498:
 369              	.LBE497:
 370              	.LBE496:
 371              	.LBB502:
 372              	.LBB503:
 373              	.LBB504:
 374              	.LBB505:
 375              	.LBB506:
 376 004e 2023     		movs	r3, #32
 377              	@ 546 "../../../os/ext/CMSIS/include/core_cmFunc.h" 1
 378 0050 83F31188 		MSR basepri, r3
 379              	@ 0 "" 2
 380              		.thumb
 381              	.LBE506:
 382              	.LBE505:
 383              	.LBE504:
 384              		.loc 2 300 0
 385 0054 FFF7FEFF 		bl	_stats_start_measure_crit_thd
 386              	.LVL21:
 387              		.loc 2 301 0
 388 0058 FFF7FEFF 		bl	_dbg_check_lock
 389              	.LVL22:
 390 005c 4124     		movs	r4, #65
 391              	.LVL23:
ARM GAS  C:\Users\jo\AppData\Local\Temp\ccngxRrK.s 			page 8


 392              	.L29:
 393              	.LBE503:
 394              	.LBE502:
 395              		.loc 1 100 0
 396 005e 2146     		mov	r1, r4
 397 0060 0134     		adds	r4, r4, #1
 398 0062 BA48     		ldr	r0, .L69
 399 0064 E4B2     		uxtb	r4, r4
 400 0066 FFF7FEFF 		bl	chIQPutI
 401              	.LVL24:
 402              		.loc 1 99 0
 403 006a 452C     		cmp	r4, #69
 404 006c F7D1     		bne	.L29
 405              	.LBB507:
 406              	.LBB508:
 407              		.loc 2 311 0
 408 006e FFF7FEFF 		bl	_dbg_check_unlock
 409              	.LVL25:
 410              		.loc 2 312 0
 411 0072 FFF7FEFF 		bl	_stats_stop_measure_crit_thd
 412              	.LVL26:
 413              		.loc 2 318 0
 414 0076 AA69     		ldr	r2, [r5, #24]
 415 0078 2B68     		ldr	r3, [r5]
 416 007a 9268     		ldr	r2, [r2, #8]
 417 007c 9B68     		ldr	r3, [r3, #8]
 418 007e 9A42     		cmp	r2, r3
 419 0080 C0F0A081 		bcc	.L65
 420              	.L30:
 421              	.LVL27:
 422              	.LBB509:
 423              	.LBB510:
 424              	.LBB511:
 425              		.loc 3 546 0
 426 0084 0023     		movs	r3, #0
 427              	@ 546 "../../../os/ext/CMSIS/include/core_cmFunc.h" 1
 428 0086 83F31188 		MSR basepri, r3
 429              	@ 0 "" 2
 430              	.LVL28:
 431              		.thumb
 432              	.LBE511:
 433              	.LBE510:
 434              	.LBE509:
 435              	.LBE508:
 436              	.LBE507:
 437              	.LBB513:
 438              	.LBB514:
 439              	.LBB515:
 440              	.LBB516:
 441              	.LBB517:
 442 008a 2023     		movs	r3, #32
 443              	@ 546 "../../../os/ext/CMSIS/include/core_cmFunc.h" 1
 444 008c 83F31188 		MSR basepri, r3
 445              	@ 0 "" 2
 446              		.thumb
 447              	.LBE517:
 448              	.LBE516:
ARM GAS  C:\Users\jo\AppData\Local\Temp\ccngxRrK.s 			page 9


 449              	.LBE515:
 450              		.loc 2 300 0
 451 0090 FFF7FEFF 		bl	_stats_start_measure_crit_thd
 452              	.LVL29:
 453              		.loc 2 301 0
 454 0094 FFF7FEFF 		bl	_dbg_check_lock
 455              	.LVL30:
 456              	.LBE514:
 457              	.LBE513:
 458              	.LBB518:
 459              	.LBB519:
 460              		.loc 4 319 0
 461 0098 FFF7FEFF 		bl	chDbgCheckClassI
 462              	.LVL31:
 463              		.loc 4 321 0
 464 009c 7269     		ldr	r2, [r6, #20]
 465 009e B369     		ldr	r3, [r6, #24]
 466 00a0 AA49     		ldr	r1, .L69
 467 00a2 9A42     		cmp	r2, r3
 468 00a4 00F0A981 		beq	.L66
 469              	.L31:
 470              	.LBE519:
 471              	.LBE518:
 472              		.loc 1 102 0
 473 00a8 3946     		mov	r1, r7
 474 00aa 0220     		movs	r0, #2
 475 00ac FFF7FEFF 		bl	_test_assert
 476              	.LVL32:
 477 00b0 0028     		cmp	r0, #0
 478 00b2 40F07781 		bne	.L60
 479              	.LBB521:
 480              	.LBB522:
 481              		.loc 2 311 0
 482 00b6 FFF7FEFF 		bl	_dbg_check_unlock
 483              	.LVL33:
 484              		.loc 2 312 0
 485 00ba FFF7FEFF 		bl	_stats_stop_measure_crit_thd
 486              	.LVL34:
 487              		.loc 2 318 0
 488 00be AA69     		ldr	r2, [r5, #24]
 489 00c0 2B68     		ldr	r3, [r5]
 490 00c2 9268     		ldr	r2, [r2, #8]
 491 00c4 9B68     		ldr	r3, [r3, #8]
 492 00c6 9A42     		cmp	r2, r3
 493 00c8 02D2     		bcs	.L34
 494 00ca A248     		ldr	r0, .L69+8
 495 00cc FFF7FEFF 		bl	chSysHalt
 496              	.LVL35:
 497              	.L34:
 498              	.LBB523:
 499              	.LBB524:
 500              	.LBB525:
 501              		.loc 3 546 0
 502 00d0 0024     		movs	r4, #0
 503              	@ 546 "../../../os/ext/CMSIS/include/core_cmFunc.h" 1
 504 00d2 84F31188 		MSR basepri, r4
 505              	@ 0 "" 2
ARM GAS  C:\Users\jo\AppData\Local\Temp\ccngxRrK.s 			page 10


 506              	.LVL36:
 507              		.thumb
 508              	.LBE525:
 509              	.LBE524:
 510              	.LBE523:
 511              	.LBE522:
 512              	.LBE521:
 513              	.LBB526:
 514              	.LBB527:
 515              	.LBB528:
 516              	.LBB529:
 517              	.LBB530:
 518 00d6 2023     		movs	r3, #32
 519              	@ 546 "../../../os/ext/CMSIS/include/core_cmFunc.h" 1
 520 00d8 83F31188 		MSR basepri, r3
 521              	@ 0 "" 2
 522              		.thumb
 523              	.LBE530:
 524              	.LBE529:
 525              	.LBE528:
 526              		.loc 2 300 0
 527 00dc FFF7FEFF 		bl	_stats_start_measure_crit_thd
 528              	.LVL37:
 529              		.loc 2 301 0
 530 00e0 FFF7FEFF 		bl	_dbg_check_lock
 531              	.LVL38:
 532              	.LBE527:
 533              	.LBE526:
 534              		.loc 1 103 0
 535 00e4 2146     		mov	r1, r4
 536 00e6 9948     		ldr	r0, .L69
 537 00e8 FFF7FEFF 		bl	chIQPutI
 538              	.LVL39:
 539 00ec 0430     		adds	r0, r0, #4
 540 00ee 14BF     		ite	ne
 541 00f0 0021     		movne	r1, #0
 542 00f2 0121     		moveq	r1, #1
 543 00f4 0320     		movs	r0, #3
 544 00f6 FFF7FEFF 		bl	_test_assert
 545              	.LVL40:
 546 00fa 0028     		cmp	r0, #0
 547 00fc 40F05281 		bne	.L60
 548              	.LBB531:
 549              	.LBB532:
 550              		.loc 2 311 0
 551 0100 FFF7FEFF 		bl	_dbg_check_unlock
 552              	.LVL41:
 553              		.loc 2 312 0
 554 0104 FFF7FEFF 		bl	_stats_stop_measure_crit_thd
 555              	.LVL42:
 556              		.loc 2 318 0
 557 0108 AA69     		ldr	r2, [r5, #24]
 558 010a 2B68     		ldr	r3, [r5]
 559 010c 9268     		ldr	r2, [r2, #8]
 560 010e 9B68     		ldr	r3, [r3, #8]
 561 0110 9A42     		cmp	r2, r3
 562 0112 C0F06E81 		bcc	.L67
ARM GAS  C:\Users\jo\AppData\Local\Temp\ccngxRrK.s 			page 11


 563              	.L37:
 564              	.LVL43:
 565              	.LBB533:
 566              	.LBB534:
 567              	.LBB535:
 568              		.loc 3 546 0
 569 0116 0023     		movs	r3, #0
 570              	@ 546 "../../../os/ext/CMSIS/include/core_cmFunc.h" 1
 571 0118 83F31188 		MSR basepri, r3
 572              	@ 0 "" 2
 573              	.LVL44:
 574              		.thumb
 575 011c 0424     		movs	r4, #4
 576              	.LVL45:
 577              	.L38:
 578              	.LBE535:
 579              	.LBE534:
 580              	.LBE533:
 581              	.LBE532:
 582              	.LBE531:
 583              	.LBB537:
 584              	.LBB538:
 585              		.loc 4 338 0
 586 011e 8B4E     		ldr	r6, .L69
 587 0120 4FF0FF31 		mov	r1, #-1
 588 0124 3046     		mov	r0, r6
 589 0126 FFF7FEFF 		bl	chIQGetTimeout
 590              	.LVL46:
 591              	.LBE538:
 592              	.LBE537:
 593              		.loc 1 107 0
 594 012a C0B2     		uxtb	r0, r0
 595 012c FFF7FEFF 		bl	test_emit_token
 596              	.LVL47:
 597              		.loc 1 106 0
 598 0130 013C     		subs	r4, r4, #1
 599              	.LVL48:
 600 0132 F4D1     		bne	.L38
 601              	.LVL49:
 602              	.LBB539:
 603              	.LBB540:
 604              	.LBB541:
 605              	.LBB542:
 606              	.LBB543:
 607              		.loc 3 546 0
 608 0134 2023     		movs	r3, #32
 609              	@ 546 "../../../os/ext/CMSIS/include/core_cmFunc.h" 1
 610 0136 83F31188 		MSR basepri, r3
 611              	@ 0 "" 2
 612              		.thumb
 613              	.LBE543:
 614              	.LBE542:
 615              	.LBE541:
 616              		.loc 2 300 0
 617 013a FFF7FEFF 		bl	_stats_start_measure_crit_thd
 618              	.LVL50:
 619              		.loc 2 301 0
ARM GAS  C:\Users\jo\AppData\Local\Temp\ccngxRrK.s 			page 12


 620 013e FFF7FEFF 		bl	_dbg_check_lock
 621              	.LVL51:
 622              	.LBE540:
 623              	.LBE539:
 624              	.LBB544:
 625              	.LBB545:
 626              		.loc 4 302 0
 627 0142 FFF7FEFF 		bl	chDbgCheckClassI
 628              	.LVL52:
 629              		.loc 4 304 0
 630 0146 B168     		ldr	r1, [r6, #8]
 631              	.LBE545:
 632              	.LBE544:
 633              		.loc 1 108 0
 634 0148 B1FA81F1 		clz	r1, r1
 635 014c 0420     		movs	r0, #4
 636 014e 4909     		lsrs	r1, r1, #5
 637 0150 FFF7FEFF 		bl	_test_assert
 638              	.LVL53:
 639 0154 0028     		cmp	r0, #0
 640 0156 40F02581 		bne	.L60
 641              	.LBB546:
 642              	.LBB547:
 643              		.loc 2 311 0
 644 015a FFF7FEFF 		bl	_dbg_check_unlock
 645              	.LVL54:
 646              		.loc 2 312 0
 647 015e FFF7FEFF 		bl	_stats_stop_measure_crit_thd
 648              	.LVL55:
 649              		.loc 2 318 0
 650 0162 AA69     		ldr	r2, [r5, #24]
 651 0164 2B68     		ldr	r3, [r5]
 652 0166 9268     		ldr	r2, [r2, #8]
 653 0168 9B68     		ldr	r3, [r3, #8]
 654 016a 9A42     		cmp	r2, r3
 655 016c 02D2     		bcs	.L41
 656 016e 7948     		ldr	r0, .L69+8
 657 0170 FFF7FEFF 		bl	chSysHalt
 658              	.LVL56:
 659              	.L41:
 660              	.LBB548:
 661              	.LBB549:
 662              	.LBB550:
 663              		.loc 3 546 0
 664 0174 0023     		movs	r3, #0
 665              	@ 546 "../../../os/ext/CMSIS/include/core_cmFunc.h" 1
 666 0176 83F31188 		MSR basepri, r3
 667              	@ 0 "" 2
 668              		.thumb
 669              	.LBE550:
 670              	.LBE549:
 671              	.LBE548:
 672              	.LBE547:
 673              	.LBE546:
 674              		.loc 1 109 0
 675 017a 0520     		movs	r0, #5
 676 017c 7649     		ldr	r1, .L69+12
ARM GAS  C:\Users\jo\AppData\Local\Temp\ccngxRrK.s 			page 13


 677 017e FFF7FEFF 		bl	_test_assert_sequence
 678              	.LVL57:
 679 0182 0028     		cmp	r0, #0
 680 0184 40F01B81 		bne	.L24
 681              	.LVL58:
 682              	.LBB551:
 683              	.LBB552:
 684              	.LBB553:
 685              	.LBB554:
 686              	.LBB555:
 687              		.loc 3 546 0
 688 0188 2023     		movs	r3, #32
 689              	@ 546 "../../../os/ext/CMSIS/include/core_cmFunc.h" 1
 690 018a 83F31188 		MSR basepri, r3
 691              	@ 0 "" 2
 692              		.thumb
 693              	.LBE555:
 694              	.LBE554:
 695              	.LBE553:
 696              		.loc 2 300 0
 697 018e FFF7FEFF 		bl	_stats_start_measure_crit_thd
 698              	.LVL59:
 699              		.loc 2 301 0
 700 0192 FFF7FEFF 		bl	_dbg_check_lock
 701              	.LVL60:
 702 0196 4124     		movs	r4, #65
 703              	.LVL61:
 704              	.L43:
 705              	.LBE552:
 706              	.LBE551:
 707              		.loc 1 114 0
 708 0198 2146     		mov	r1, r4
 709 019a 0134     		adds	r4, r4, #1
 710 019c 6B48     		ldr	r0, .L69
 711 019e E4B2     		uxtb	r4, r4
 712 01a0 FFF7FEFF 		bl	chIQPutI
 713              	.LVL62:
 714              		.loc 1 113 0
 715 01a4 452C     		cmp	r4, #69
 716 01a6 F7D1     		bne	.L43
 717              	.LBB556:
 718              	.LBB557:
 719              		.loc 2 311 0
 720 01a8 FFF7FEFF 		bl	_dbg_check_unlock
 721              	.LVL63:
 722              		.loc 2 312 0
 723 01ac FFF7FEFF 		bl	_stats_stop_measure_crit_thd
 724              	.LVL64:
 725              		.loc 2 318 0
 726 01b0 AA69     		ldr	r2, [r5, #24]
 727 01b2 2B68     		ldr	r3, [r5]
 728 01b4 9268     		ldr	r2, [r2, #8]
 729 01b6 9B68     		ldr	r3, [r3, #8]
 730 01b8 9A42     		cmp	r2, r3
 731 01ba C0F02381 		bcc	.L68
 732              	.L44:
 733              	.LVL65:
ARM GAS  C:\Users\jo\AppData\Local\Temp\ccngxRrK.s 			page 14


 734              	.LBB558:
 735              	.LBB559:
 736              	.LBB560:
 737              		.loc 3 546 0
 738 01be 0023     		movs	r3, #0
 739              	@ 546 "../../../os/ext/CMSIS/include/core_cmFunc.h" 1
 740 01c0 83F31188 		MSR basepri, r3
 741              	@ 0 "" 2
 742              		.thumb
 743              	.LBE560:
 744              	.LBE559:
 745              	.LBE558:
 746              	.LBE557:
 747              	.LBE556:
 748              		.loc 1 118 0
 749 01c4 614C     		ldr	r4, .L69
 750 01c6 654E     		ldr	r6, .L69+16
 751 01c8 2046     		mov	r0, r4
 752 01ca 7168     		ldr	r1, [r6, #4]
 753 01cc 0822     		movs	r2, #8
 754 01ce FFF7FEFF 		bl	chIQReadTimeout
 755              	.LVL66:
 756              		.loc 1 119 0
 757 01d2 A0F10401 		sub	r1, r0, #4
 758 01d6 0620     		movs	r0, #6
 759              	.LVL67:
 760 01d8 B1FA81F1 		clz	r1, r1
 761              	.LVL68:
 762 01dc 4909     		lsrs	r1, r1, #5
 763 01de FFF7FEFF 		bl	_test_assert
 764              	.LVL69:
 765 01e2 0028     		cmp	r0, #0
 766 01e4 40F0EB80 		bne	.L24
 767              	.LVL70:
 768              	.LBB562:
 769              	.LBB563:
 770              	.LBB564:
 771              	.LBB565:
 772              	.LBB566:
 773              		.loc 3 546 0
 774 01e8 2023     		movs	r3, #32
 775              	@ 546 "../../../os/ext/CMSIS/include/core_cmFunc.h" 1
 776 01ea 83F31188 		MSR basepri, r3
 777              	@ 0 "" 2
 778              		.thumb
 779              	.LBE566:
 780              	.LBE565:
 781              	.LBE564:
 782              		.loc 2 300 0
 783 01ee FFF7FEFF 		bl	_stats_start_measure_crit_thd
 784              	.LVL71:
 785              		.loc 2 301 0
 786 01f2 FFF7FEFF 		bl	_dbg_check_lock
 787              	.LVL72:
 788              	.LBE563:
 789              	.LBE562:
 790              	.LBB567:
ARM GAS  C:\Users\jo\AppData\Local\Temp\ccngxRrK.s 			page 15


 791              	.LBB568:
 792              		.loc 4 302 0
 793 01f6 FFF7FEFF 		bl	chDbgCheckClassI
 794              	.LVL73:
 795              		.loc 4 304 0
 796 01fa A168     		ldr	r1, [r4, #8]
 797              	.LBE568:
 798              	.LBE567:
 799              		.loc 1 120 0
 800 01fc B1FA81F1 		clz	r1, r1
 801 0200 0720     		movs	r0, #7
 802 0202 4909     		lsrs	r1, r1, #5
 803 0204 FFF7FEFF 		bl	_test_assert
 804              	.LVL74:
 805 0208 0028     		cmp	r0, #0
 806 020a 40F0CB80 		bne	.L60
 807              	.LBB569:
 808              	.LBB570:
 809              		.loc 2 311 0
 810 020e FFF7FEFF 		bl	_dbg_check_unlock
 811              	.LVL75:
 812              		.loc 2 312 0
 813 0212 FFF7FEFF 		bl	_stats_stop_measure_crit_thd
 814              	.LVL76:
 815              		.loc 2 318 0
 816 0216 AA69     		ldr	r2, [r5, #24]
 817 0218 2B68     		ldr	r3, [r5]
 818 021a 9268     		ldr	r2, [r2, #8]
 819 021c 9B68     		ldr	r3, [r3, #8]
 820 021e 9A42     		cmp	r2, r3
 821 0220 02D2     		bcs	.L48
 822 0222 4C48     		ldr	r0, .L69+8
 823 0224 FFF7FEFF 		bl	chSysHalt
 824              	.LVL77:
 825              	.L48:
 826              	.LBB571:
 827              	.LBB572:
 828              	.LBB573:
 829              		.loc 3 546 0
 830 0228 0023     		movs	r3, #0
 831              	@ 546 "../../../os/ext/CMSIS/include/core_cmFunc.h" 1
 832 022a 83F31188 		MSR basepri, r3
 833              	@ 0 "" 2
 834              	.LVL78:
 835              		.thumb
 836              	.LBE573:
 837              	.LBE572:
 838              	.LBE571:
 839              	.LBE570:
 840              	.LBE569:
 841              	.LBB574:
 842              	.LBB575:
 843              	.LBB576:
 844              	.LBB577:
 845              	.LBB578:
 846 022e 2023     		movs	r3, #32
 847              	@ 546 "../../../os/ext/CMSIS/include/core_cmFunc.h" 1
ARM GAS  C:\Users\jo\AppData\Local\Temp\ccngxRrK.s 			page 16


 848 0230 83F31188 		MSR basepri, r3
 849              	@ 0 "" 2
 850              		.thumb
 851              	.LBE578:
 852              	.LBE577:
 853              	.LBE576:
 854              		.loc 2 300 0
 855 0234 FFF7FEFF 		bl	_stats_start_measure_crit_thd
 856              	.LVL79:
 857              		.loc 2 301 0
 858 0238 FFF7FEFF 		bl	_dbg_check_lock
 859              	.LVL80:
 860 023c 4124     		movs	r4, #65
 861              	.LVL81:
 862              	.L49:
 863              	.LBE575:
 864              	.LBE574:
 865              		.loc 1 125 0
 866 023e 2146     		mov	r1, r4
 867 0240 0134     		adds	r4, r4, #1
 868 0242 4248     		ldr	r0, .L69
 869 0244 E4B2     		uxtb	r4, r4
 870 0246 FFF7FEFF 		bl	chIQPutI
 871              	.LVL82:
 872              		.loc 1 124 0
 873 024a 452C     		cmp	r4, #69
 874 024c F7D1     		bne	.L49
 875              	.LBB579:
 876              	.LBB580:
 877              		.loc 2 311 0
 878 024e FFF7FEFF 		bl	_dbg_check_unlock
 879              	.LVL83:
 880              		.loc 2 312 0
 881 0252 FFF7FEFF 		bl	_stats_stop_measure_crit_thd
 882              	.LVL84:
 883              		.loc 2 318 0
 884 0256 AA69     		ldr	r2, [r5, #24]
 885 0258 2B68     		ldr	r3, [r5]
 886 025a 9268     		ldr	r2, [r2, #8]
 887 025c 9B68     		ldr	r3, [r3, #8]
 888 025e 9A42     		cmp	r2, r3
 889 0260 02D2     		bcs	.L50
 890 0262 3C48     		ldr	r0, .L69+8
 891 0264 FFF7FEFF 		bl	chSysHalt
 892              	.LVL85:
 893              	.L50:
 894              	.LBB581:
 895              	.LBB582:
 896              	.LBB583:
 897              		.loc 3 546 0
 898 0268 0023     		movs	r3, #0
 899              	@ 546 "../../../os/ext/CMSIS/include/core_cmFunc.h" 1
 900 026a 83F31188 		MSR basepri, r3
 901              	@ 0 "" 2
 902              		.thumb
 903              	.LBE583:
 904              	.LBE582:
ARM GAS  C:\Users\jo\AppData\Local\Temp\ccngxRrK.s 			page 17


 905              	.LBE581:
 906              	.LBE580:
 907              	.LBE579:
 908              		.loc 1 129 0
 909 026e 374C     		ldr	r4, .L69
 910 0270 7668     		ldr	r6, [r6, #4]
 911 0272 3A4F     		ldr	r7, .L69+16
 912 0274 3146     		mov	r1, r6
 913 0276 2046     		mov	r0, r4
 914 0278 0222     		movs	r2, #2
 915 027a FFF7FEFF 		bl	chIQReadTimeout
 916              	.LVL86:
 917              		.loc 1 130 0
 918 027e A0F10201 		sub	r1, r0, #2
 919 0282 0820     		movs	r0, #8
 920              	.LVL87:
 921 0284 B1FA81F1 		clz	r1, r1
 922              	.LVL88:
 923 0288 4909     		lsrs	r1, r1, #5
 924 028a FFF7FEFF 		bl	_test_assert
 925              	.LVL89:
 926 028e 0028     		cmp	r0, #0
 927 0290 40F09580 		bne	.L24
 928              		.loc 1 131 0
 929 0294 3146     		mov	r1, r6
 930 0296 0346     		mov	r3, r0
 931 0298 0222     		movs	r2, #2
 932 029a 2046     		mov	r0, r4
 933 029c FFF7FEFF 		bl	chIQReadTimeout
 934              	.LVL90:
 935              		.loc 1 132 0
 936 02a0 A0F10201 		sub	r1, r0, #2
 937 02a4 0920     		movs	r0, #9
 938              	.LVL91:
 939 02a6 B1FA81F1 		clz	r1, r1
 940              	.LVL92:
 941 02aa 4909     		lsrs	r1, r1, #5
 942 02ac FFF7FEFF 		bl	_test_assert
 943              	.LVL93:
 944 02b0 0028     		cmp	r0, #0
 945 02b2 40F08480 		bne	.L24
 946              	.LVL94:
 947              	.LBB584:
 948              	.LBB585:
 949              	.LBB586:
 950              	.LBB587:
 951              	.LBB588:
 952              		.loc 3 546 0
 953 02b6 2026     		movs	r6, #32
 954              	@ 546 "../../../os/ext/CMSIS/include/core_cmFunc.h" 1
 955 02b8 86F31188 		MSR basepri, r6
 956              	@ 0 "" 2
 957              		.thumb
 958              	.LBE588:
 959              	.LBE587:
 960              	.LBE586:
 961              		.loc 2 300 0
ARM GAS  C:\Users\jo\AppData\Local\Temp\ccngxRrK.s 			page 18


 962 02bc FFF7FEFF 		bl	_stats_start_measure_crit_thd
 963              	.LVL95:
 964              		.loc 2 301 0
 965 02c0 FFF7FEFF 		bl	_dbg_check_lock
 966              	.LVL96:
 967              	.LBE585:
 968              	.LBE584:
 969              	.LBB589:
 970              	.LBB590:
 971              		.loc 4 302 0
 972 02c4 FFF7FEFF 		bl	chDbgCheckClassI
 973              	.LVL97:
 974              		.loc 4 304 0
 975 02c8 A168     		ldr	r1, [r4, #8]
 976              	.LBE590:
 977              	.LBE589:
 978              		.loc 1 133 0
 979 02ca B1FA81F1 		clz	r1, r1
 980 02ce 0A20     		movs	r0, #10
 981 02d0 4909     		lsrs	r1, r1, #5
 982 02d2 FFF7FEFF 		bl	_test_assert
 983              	.LVL98:
 984 02d6 8046     		mov	r8, r0
 985 02d8 0028     		cmp	r0, #0
 986 02da 40F09780 		bne	.L52
 987 02de FFF7FEFF 		bl	chSysUnlock
 988              	.LVL99:
 989              	.LBB591:
 990              	.LBB592:
 991              	.LBB593:
 992              	.LBB594:
 993              	.LBB595:
 994              		.loc 3 546 0
 995              	@ 546 "../../../os/ext/CMSIS/include/core_cmFunc.h" 1
 996 02e2 86F31188 		MSR basepri, r6
 997              	@ 0 "" 2
 998              		.thumb
 999              	.LBE595:
 1000              	.LBE594:
 1001              	.LBE593:
 1002              		.loc 2 300 0
 1003 02e6 FFF7FEFF 		bl	_stats_start_measure_crit_thd
 1004              	.LVL100:
 1005              		.loc 2 301 0
 1006 02ea FFF7FEFF 		bl	_dbg_check_lock
 1007              	.LVL101:
 1008              	.LBE592:
 1009              	.LBE591:
 1010              		.loc 1 137 0
 1011 02ee 4146     		mov	r1, r8
 1012 02f0 2046     		mov	r0, r4
 1013 02f2 FFF7FEFF 		bl	chIQPutI
 1014              	.LVL102:
 1015              		.loc 1 138 0
 1016 02f6 2046     		mov	r0, r4
 1017 02f8 FFF7FEFF 		bl	chIQResetI
 1018              	.LVL103:
ARM GAS  C:\Users\jo\AppData\Local\Temp\ccngxRrK.s 			page 19


 1019              		.loc 1 139 0
 1020 02fc FFF7FEFF 		bl	chSysUnlock
 1021              	.LVL104:
 1022              	.LBB596:
 1023              	.LBB597:
 1024              	.LBB598:
 1025              	.LBB599:
 1026              	.LBB600:
 1027              		.loc 3 546 0
 1028              	@ 546 "../../../os/ext/CMSIS/include/core_cmFunc.h" 1
 1029 0300 86F31188 		MSR basepri, r6
 1030              	@ 0 "" 2
 1031              		.thumb
 1032              	.LBE600:
 1033              	.LBE599:
 1034              	.LBE598:
 1035              		.loc 2 300 0
 1036 0304 FFF7FEFF 		bl	_stats_start_measure_crit_thd
 1037              	.LVL105:
 1038              		.loc 2 301 0
 1039 0308 FFF7FEFF 		bl	_dbg_check_lock
 1040              	.LVL106:
 1041              	.LBE597:
 1042              	.LBE596:
 1043              	.LBB601:
 1044              	.LBB602:
 1045              		.loc 4 269 0
 1046 030c FFF7FEFF 		bl	chDbgCheckClassI
 1047              	.LVL107:
 1048              	.LBE602:
 1049              	.LBE601:
 1050              		.loc 1 140 0
 1051 0310 A168     		ldr	r1, [r4, #8]
 1052 0312 B1FA81F1 		clz	r1, r1
 1053 0316 0B20     		movs	r0, #11
 1054 0318 4909     		lsrs	r1, r1, #5
 1055 031a FFF7FEFF 		bl	_test_assert
 1056              	.LVL108:
 1057 031e 8046     		mov	r8, r0
 1058 0320 0028     		cmp	r0, #0
 1059 0322 73D1     		bne	.L52
 1060 0324 FFF7FEFF 		bl	chSysUnlock
 1061              	.LVL109:
 1062              	.LBB603:
 1063              	.LBB604:
 1064              		.file 5 "../../../os/rt/include/chthreads.h"
 1065              		.loc 5 192 0
 1066 0328 AB69     		ldr	r3, [r5, #24]
 1067              	.LBE604:
 1068              	.LBE603:
 1069              		.loc 1 141 0
 1070 032a 3868     		ldr	r0, [r7]
 1071 032c 9A68     		ldr	r2, [r3, #8]
 1072 032e 0C4B     		ldr	r3, .L69+20
 1073 0330 CDF80080 		str	r8, [sp]
 1074 0334 0132     		adds	r2, r2, #1
 1075 0336 4FF4B471 		mov	r1, #360
ARM GAS  C:\Users\jo\AppData\Local\Temp\ccngxRrK.s 			page 20


 1076 033a FFF7FEFF 		bl	chThdCreateStatic
 1077              	.LVL110:
 1078 033e 094B     		ldr	r3, .L69+24
 1079 0340 1860     		str	r0, [r3]
 1080              	.LVL111:
 1081              	.LBB605:
 1082              	.LBB606:
 1083              	.LBB607:
 1084              	.LBB608:
 1085              	.LBB609:
 1086              		.loc 3 546 0
 1087              	@ 546 "../../../os/ext/CMSIS/include/core_cmFunc.h" 1
 1088 0342 86F31188 		MSR basepri, r6
 1089              	@ 0 "" 2
 1090              		.thumb
 1091              	.LBE609:
 1092              	.LBE608:
 1093              	.LBE607:
 1094              		.loc 2 300 0
 1095 0346 FFF7FEFF 		bl	_stats_start_measure_crit_thd
 1096              	.LVL112:
 1097 034a 0DE0     		b	.L70
 1098              	.L71:
 1099              		.align	2
 1100              	.L69:
 1101 034c 00000000 		.word	.LANCHOR0
 1102 0350 00000000 		.word	ch
 1103 0354 00000000 		.word	.LANCHOR1
 1104 0358 00000000 		.word	.LC0
 1105 035c 00000000 		.word	wa
 1106 0360 00000000 		.word	thread1
 1107 0364 00000000 		.word	threads
 1108              	.L70:
 1109              		.loc 2 301 0
 1110 0368 FFF7FEFF 		bl	_dbg_check_lock
 1111              	.LVL113:
 1112              	.LBE606:
 1113              	.LBE605:
 1114              	.LBB610:
 1115              	.LBB611:
 1116              		.loc 4 269 0
 1117 036c FFF7FEFF 		bl	chDbgCheckClassI
 1118              	.LVL114:
 1119              	.LBE611:
 1120              	.LBE610:
 1121              		.loc 1 142 0
 1122 0370 A168     		ldr	r1, [r4, #8]
 1123 0372 B1FA81F1 		clz	r1, r1
 1124 0376 0C20     		movs	r0, #12
 1125 0378 4909     		lsrs	r1, r1, #5
 1126 037a FFF7FEFF 		bl	_test_assert
 1127              	.LVL115:
 1128 037e 0028     		cmp	r0, #0
 1129 0380 44D1     		bne	.L52
 1130 0382 FFF7FEFF 		bl	chSysUnlock
 1131              	.LVL116:
 1132              		.loc 1 143 0
ARM GAS  C:\Users\jo\AppData\Local\Temp\ccngxRrK.s 			page 21


 1133 0386 FFF7FEFF 		bl	test_wait_threads
 1134              	.LVL117:
 1135              		.loc 1 146 0
 1136 038a 2046     		mov	r0, r4
 1137 038c 0A21     		movs	r1, #10
 1138 038e FFF7FEFF 		bl	chIQGetTimeout
 1139              	.LVL118:
 1140 0392 431C     		adds	r3, r0, #1
 1141 0394 5942     		rsbs	r1, r3, #0
 1142 0396 5941     		adcs	r1, r1, r3
 1143 0398 0D20     		movs	r0, #13
 1144              	.LBE495:
 1145              	.LBE494:
 1146              		.loc 1 147 0
 1147 039a 02B0     		add	sp, sp, #8
 1148              		.cfi_remember_state
 1149              		.cfi_def_cfa_offset 24
 1150              		@ sp needed
 1151 039c BDE8F041 		pop	{r4, r5, r6, r7, r8, lr}
 1152              		.cfi_restore 14
 1153              		.cfi_restore 8
 1154              		.cfi_restore 7
 1155              		.cfi_restore 6
 1156              		.cfi_restore 5
 1157              		.cfi_restore 4
 1158              		.cfi_def_cfa_offset 0
 1159              	.LBB628:
 1160              	.LBB624:
 1161              		.loc 1 146 0
 1162 03a0 FFF7FEBF 		b	_test_assert
 1163              	.LVL119:
 1164              	.L60:
 1165              		.cfi_restore_state
 1166              	.LBB612:
 1167              	.LBB613:
 1168              		.loc 2 311 0
 1169 03a4 FFF7FEFF 		bl	_dbg_check_unlock
 1170              	.LVL120:
 1171              		.loc 2 312 0
 1172 03a8 FFF7FEFF 		bl	_stats_stop_measure_crit_thd
 1173              	.LVL121:
 1174              		.loc 2 318 0
 1175 03ac AA69     		ldr	r2, [r5, #24]
 1176 03ae 2B68     		ldr	r3, [r5]
 1177 03b0 9268     		ldr	r2, [r2, #8]
 1178 03b2 9B68     		ldr	r3, [r3, #8]
 1179 03b4 9A42     		cmp	r2, r3
 1180 03b6 18D3     		bcc	.L58
 1181              	.LVL122:
 1182              	.L47:
 1183              	.LBB614:
 1184              	.LBB615:
 1185              	.LBB616:
 1186              		.loc 3 546 0
 1187 03b8 0023     		movs	r3, #0
 1188              	@ 546 "../../../os/ext/CMSIS/include/core_cmFunc.h" 1
 1189 03ba 83F31188 		MSR basepri, r3
ARM GAS  C:\Users\jo\AppData\Local\Temp\ccngxRrK.s 			page 22


 1190              	@ 0 "" 2
 1191              	.LVL123:
 1192              		.thumb
 1193              	.L24:
 1194              	.LBE616:
 1195              	.LBE615:
 1196              	.LBE614:
 1197              	.LBE613:
 1198              	.LBE612:
 1199              	.LBE624:
 1200              	.LBE628:
 1201              		.loc 1 147 0
 1202 03be 02B0     		add	sp, sp, #8
 1203              		.cfi_remember_state
 1204              		.cfi_def_cfa_offset 24
 1205              		@ sp needed
 1206 03c0 BDE8F081 		pop	{r4, r5, r6, r7, r8, pc}
 1207              	.LVL124:
 1208              	.L65:
 1209              		.cfi_restore_state
 1210              	.LBB629:
 1211              	.LBB625:
 1212              	.LBB618:
 1213              	.LBB512:
 1214              		.loc 2 318 0
 1215 03c4 1448     		ldr	r0, .L72
 1216 03c6 FFF7FEFF 		bl	chSysHalt
 1217              	.LVL125:
 1218 03ca 5BE6     		b	.L30
 1219              	.LVL126:
 1220              	.L64:
 1221              	.LBE512:
 1222              	.LBE618:
 1223              	.LBB619:
 1224              	.LBB501:
 1225 03cc 1248     		ldr	r0, .L72
 1226 03ce FFF7FEFF 		bl	chSysHalt
 1227              	.LVL127:
 1228 03d2 39E6     		b	.L28
 1229              	.L63:
 1230              	.LBE501:
 1231              	.LBE619:
 1232              	.LBE625:
 1233              	.LBE629:
 1234              	.LBB630:
 1235              	.LBB631:
 1236              		.loc 2 311 0
 1237 03d4 FFF7FEFF 		bl	_dbg_check_unlock
 1238              	.LVL128:
 1239              		.loc 2 312 0
 1240 03d8 FFF7FEFF 		bl	_stats_stop_measure_crit_thd
 1241              	.LVL129:
 1242              		.loc 2 318 0
 1243 03dc 0F4B     		ldr	r3, .L72+4
 1244 03de 9A69     		ldr	r2, [r3, #24]
 1245 03e0 1B68     		ldr	r3, [r3]
 1246 03e2 9268     		ldr	r2, [r2, #8]
ARM GAS  C:\Users\jo\AppData\Local\Temp\ccngxRrK.s 			page 23


 1247 03e4 9B68     		ldr	r3, [r3, #8]
 1248 03e6 9A42     		cmp	r2, r3
 1249 03e8 E6D2     		bcs	.L47
 1250              	.L58:
 1251              	.LBE631:
 1252              	.LBE630:
 1253              	.LBB632:
 1254              	.LBB626:
 1255              	.LBB620:
 1256              	.LBB617:
 1257 03ea 0B48     		ldr	r0, .L72
 1258 03ec FFF7FEFF 		bl	chSysHalt
 1259              	.LVL130:
 1260 03f0 E2E7     		b	.L47
 1261              	.LVL131:
 1262              	.L67:
 1263              	.LBE617:
 1264              	.LBE620:
 1265              	.LBB621:
 1266              	.LBB536:
 1267 03f2 0948     		ldr	r0, .L72
 1268 03f4 FFF7FEFF 		bl	chSysHalt
 1269              	.LVL132:
 1270 03f8 8DE6     		b	.L37
 1271              	.LVL133:
 1272              	.L66:
 1273              	.LBE536:
 1274              	.LBE621:
 1275              	.LBB622:
 1276              	.LBB520:
 1277              		.loc 4 321 0
 1278 03fa 8F68     		ldr	r7, [r1, #8]
 1279 03fc 0037     		adds	r7, r7, #0
 1280 03fe 18BF     		it	ne
 1281 0400 0127     		movne	r7, #1
 1282 0402 51E6     		b	.L31
 1283              	.LVL134:
 1284              	.L68:
 1285              	.LBE520:
 1286              	.LBE622:
 1287              	.LBB623:
 1288              	.LBB561:
 1289              		.loc 2 318 0
 1290 0404 0448     		ldr	r0, .L72
 1291 0406 FFF7FEFF 		bl	chSysHalt
 1292              	.LVL135:
 1293 040a D8E6     		b	.L44
 1294              	.LVL136:
 1295              	.L52:
 1296              	.LBE561:
 1297              	.LBE623:
 1298              	.LBE626:
 1299              	.LBE632:
 1300              		.loc 1 147 0
 1301 040c 02B0     		add	sp, sp, #8
 1302              		.cfi_def_cfa_offset 24
 1303              		@ sp needed
ARM GAS  C:\Users\jo\AppData\Local\Temp\ccngxRrK.s 			page 24


 1304 040e BDE8F041 		pop	{r4, r5, r6, r7, r8, lr}
 1305              		.cfi_restore 14
 1306              		.cfi_restore 8
 1307              		.cfi_restore 7
 1308              		.cfi_restore 6
 1309              		.cfi_restore 5
 1310              		.cfi_restore 4
 1311              		.cfi_def_cfa_offset 0
 1312              	.LBB633:
 1313              	.LBB627:
 1314              		.loc 1 133 0
 1315 0412 FFF7FEBF 		b	chSysUnlock
 1316              	.LVL137:
 1317              	.L73:
 1318 0416 00BF     		.align	2
 1319              	.L72:
 1320 0418 00000000 		.word	.LANCHOR1
 1321 041c 00000000 		.word	ch
 1322              	.LBE627:
 1323              	.LBE633:
 1324              		.cfi_endproc
 1325              	.LFE229:
 1326              		.size	queues1_execute, .-queues1_execute
 1327              		.section	.text.queues2_execute,"ax",%progbits
 1328              		.align	2
 1329              		.p2align 4,,15
 1330              		.thumb
 1331              		.thumb_func
 1332              		.type	queues2_execute, %function
 1333              	queues2_execute:
 1334              	.LFB232:
 1335              		.loc 1 177 0
 1336              		.cfi_startproc
 1337              		@ args = 0, pretend = 0, frame = 0
 1338              		@ frame_needed = 0, uses_anonymous_args = 0
 1339              	.LVL138:
 1340 0000 2DE9F043 		push	{r4, r5, r6, r7, r8, r9, lr}
 1341              		.cfi_def_cfa_offset 28
 1342              		.cfi_offset 4, -28
 1343              		.cfi_offset 5, -24
 1344              		.cfi_offset 6, -20
 1345              		.cfi_offset 7, -16
 1346              		.cfi_offset 8, -12
 1347              		.cfi_offset 9, -8
 1348              		.cfi_offset 14, -4
 1349              	.LBB794:
 1350              	.LBB795:
 1351              	.LBB796:
 1352              	.LBB797:
 1353              	.LBB798:
 1354              		.loc 3 546 0
 1355 0004 2023     		movs	r3, #32
 1356              	.LBE798:
 1357              	.LBE797:
 1358              	.LBE796:
 1359              	.LBE795:
 1360              	.LBE794:
ARM GAS  C:\Users\jo\AppData\Local\Temp\ccngxRrK.s 			page 25


 1361              		.loc 1 177 0
 1362 0006 83B0     		sub	sp, sp, #12
 1363              		.cfi_def_cfa_offset 40
 1364              	.LBB804:
 1365              	.LBB802:
 1366              	.LBB801:
 1367              	.LBB800:
 1368              	.LBB799:
 1369              		.loc 3 546 0
 1370              	@ 546 "../../../os/ext/CMSIS/include/core_cmFunc.h" 1
 1371 0008 83F31188 		MSR basepri, r3
 1372              	@ 0 "" 2
 1373              		.thumb
 1374              	.LBE799:
 1375              	.LBE800:
 1376              	.LBE801:
 1377              	.LBE802:
 1378              	.LBE804:
 1379              	.LBB805:
 1380              	.LBB806:
 1381              		.loc 4 387 0
 1382 000c C74F     		ldr	r7, .L124
 1383              	.LBE806:
 1384              	.LBE805:
 1385              	.LBB809:
 1386              	.LBB803:
 1387              		.loc 2 300 0
 1388 000e FFF7FEFF 		bl	_stats_start_measure_crit_thd
 1389              	.LVL139:
 1390              		.loc 2 301 0
 1391 0012 FFF7FEFF 		bl	_dbg_check_lock
 1392              	.LVL140:
 1393              	.LBE803:
 1394              	.LBE809:
 1395              	.LBB810:
 1396              	.LBB807:
 1397              		.loc 4 385 0
 1398 0016 FFF7FEFF 		bl	chDbgCheckClassI
 1399              	.LVL141:
 1400              		.loc 4 387 0
 1401 001a 7A69     		ldr	r2, [r7, #20]
 1402 001c BB69     		ldr	r3, [r7, #24]
 1403 001e 9A42     		cmp	r2, r3
 1404 0020 00F0DC81 		beq	.L116
 1405 0024 0021     		movs	r1, #0
 1406              	.L75:
 1407              	.LBE807:
 1408              	.LBE810:
 1409              		.loc 1 182 0
 1410 0026 0120     		movs	r0, #1
 1411 0028 FFF7FEFF 		bl	_test_assert
 1412              	.LVL142:
 1413 002c 0028     		cmp	r0, #0
 1414 002e 40F0C281 		bne	.L117
 1415              	.LBB811:
 1416              	.LBB812:
 1417              	.LBB813:
ARM GAS  C:\Users\jo\AppData\Local\Temp\ccngxRrK.s 			page 26


 1418              	.LBB814:
 1419              		.loc 2 318 0
 1420 0032 BF4D     		ldr	r5, .L124+4
 1421              		.loc 2 311 0
 1422 0034 FFF7FEFF 		bl	_dbg_check_unlock
 1423              	.LVL143:
 1424              		.loc 2 312 0
 1425 0038 FFF7FEFF 		bl	_stats_stop_measure_crit_thd
 1426              	.LVL144:
 1427              		.loc 2 318 0
 1428 003c AA69     		ldr	r2, [r5, #24]
 1429 003e 2B68     		ldr	r3, [r5]
 1430 0040 9268     		ldr	r2, [r2, #8]
 1431 0042 9B68     		ldr	r3, [r3, #8]
 1432 0044 9A42     		cmp	r2, r3
 1433 0046 C0F0B281 		bcc	.L118
 1434              	.L79:
 1435              	.LVL145:
 1436              	.LBB815:
 1437              	.LBB816:
 1438              	.LBB817:
 1439              		.loc 3 546 0
 1440 004a 0023     		movs	r3, #0
 1441              	@ 546 "../../../os/ext/CMSIS/include/core_cmFunc.h" 1
 1442 004c 83F31188 		MSR basepri, r3
 1443              	@ 0 "" 2
 1444              	.LVL146:
 1445              		.thumb
 1446 0050 4124     		movs	r4, #65
 1447              	.LVL147:
 1448              	.L80:
 1449              	.LBE817:
 1450              	.LBE816:
 1451              	.LBE815:
 1452              	.LBE814:
 1453              	.LBE813:
 1454              	.LBB819:
 1455              	.LBB820:
 1456              		.loc 4 423 0
 1457 0052 B64E     		ldr	r6, .L124
 1458 0054 2146     		mov	r1, r4
 1459 0056 0134     		adds	r4, r4, #1
 1460              	.LVL148:
 1461 0058 3046     		mov	r0, r6
 1462 005a 4FF0FF32 		mov	r2, #-1
 1463 005e E4B2     		uxtb	r4, r4
 1464 0060 FFF7FEFF 		bl	chOQPutTimeout
 1465              	.LVL149:
 1466              	.LBE820:
 1467              	.LBE819:
 1468              		.loc 1 185 0
 1469 0064 452C     		cmp	r4, #69
 1470 0066 F4D1     		bne	.L80
 1471              	.LVL150:
 1472              	.LBB821:
 1473              	.LBB822:
 1474              	.LBB823:
ARM GAS  C:\Users\jo\AppData\Local\Temp\ccngxRrK.s 			page 27


 1475              	.LBB824:
 1476              	.LBB825:
 1477              		.loc 3 546 0
 1478 0068 2023     		movs	r3, #32
 1479              	@ 546 "../../../os/ext/CMSIS/include/core_cmFunc.h" 1
 1480 006a 83F31188 		MSR basepri, r3
 1481              	@ 0 "" 2
 1482              		.thumb
 1483              	.LBE825:
 1484              	.LBE824:
 1485              	.LBE823:
 1486              		.loc 2 300 0
 1487 006e FFF7FEFF 		bl	_stats_start_measure_crit_thd
 1488              	.LVL151:
 1489              		.loc 2 301 0
 1490 0072 FFF7FEFF 		bl	_dbg_check_lock
 1491              	.LVL152:
 1492              	.LBE822:
 1493              	.LBE821:
 1494              	.LBB826:
 1495              	.LBB827:
 1496              		.loc 4 402 0
 1497 0076 FFF7FEFF 		bl	chDbgCheckClassI
 1498              	.LVL153:
 1499              		.loc 4 404 0
 1500 007a B168     		ldr	r1, [r6, #8]
 1501              	.LBE827:
 1502              	.LBE826:
 1503              		.loc 1 187 0
 1504 007c B1FA81F1 		clz	r1, r1
 1505 0080 0220     		movs	r0, #2
 1506 0082 4909     		lsrs	r1, r1, #5
 1507 0084 FFF7FEFF 		bl	_test_assert
 1508              	.LVL154:
 1509 0088 8146     		mov	r9, r0
 1510 008a 0028     		cmp	r0, #0
 1511 008c 40F07F81 		bne	.L112
 1512              	.LBB828:
 1513              	.LBB829:
 1514              		.loc 2 311 0
 1515 0090 FFF7FEFF 		bl	_dbg_check_unlock
 1516              	.LVL155:
 1517              		.loc 2 312 0
 1518 0094 FFF7FEFF 		bl	_stats_stop_measure_crit_thd
 1519              	.LVL156:
 1520              		.loc 2 318 0
 1521 0098 AA69     		ldr	r2, [r5, #24]
 1522 009a 2B68     		ldr	r3, [r5]
 1523 009c 9268     		ldr	r2, [r2, #8]
 1524 009e 9B68     		ldr	r3, [r3, #8]
 1525 00a0 9A42     		cmp	r2, r3
 1526 00a2 02D2     		bcs	.L83
 1527 00a4 A348     		ldr	r0, .L124+8
 1528 00a6 FFF7FEFF 		bl	chSysHalt
 1529              	.LVL157:
 1530              	.L83:
 1531              	.LBB830:
ARM GAS  C:\Users\jo\AppData\Local\Temp\ccngxRrK.s 			page 28


 1532              	.LBB831:
 1533              	.LBB832:
 1534              		.loc 3 546 0
 1535 00aa 0023     		movs	r3, #0
 1536              	@ 546 "../../../os/ext/CMSIS/include/core_cmFunc.h" 1
 1537 00ac 83F31188 		MSR basepri, r3
 1538              	@ 0 "" 2
 1539              	.LVL158:
 1540              		.thumb
 1541 00b0 0424     		movs	r4, #4
 1542              	.LBE832:
 1543              	.LBE831:
 1544              	.LBE830:
 1545              	.LBE829:
 1546              	.LBE828:
 1547              	.LBB833:
 1548              	.LBB834:
 1549              	.LBB835:
 1550              	.LBB836:
 1551              	.LBB837:
 1552              	.LBB838:
 1553 00b2 4FF02008 		mov	r8, #32
 1554              	.LVL159:
 1555              	.L85:
 1556              	@ 546 "../../../os/ext/CMSIS/include/core_cmFunc.h" 1
 1557 00b6 88F31188 		MSR basepri, r8
 1558              	@ 0 "" 2
 1559              		.thumb
 1560              	.LBE838:
 1561              	.LBE837:
 1562              	.LBE836:
 1563              		.loc 2 300 0
 1564 00ba FFF7FEFF 		bl	_stats_start_measure_crit_thd
 1565              	.LVL160:
 1566              		.loc 2 301 0
 1567 00be FFF7FEFF 		bl	_dbg_check_lock
 1568              	.LVL161:
 1569              	.LBE835:
 1570              	.LBE834:
 1571              		.loc 1 194 0
 1572 00c2 9A48     		ldr	r0, .L124
 1573 00c4 FFF7FEFF 		bl	chOQGetI
 1574              	.LVL162:
 1575 00c8 C6B2     		uxtb	r6, r0
 1576              	.LVL163:
 1577              	.LBB839:
 1578              	.LBB840:
 1579              		.loc 2 311 0
 1580 00ca FFF7FEFF 		bl	_dbg_check_unlock
 1581              	.LVL164:
 1582              		.loc 2 312 0
 1583 00ce FFF7FEFF 		bl	_stats_stop_measure_crit_thd
 1584              	.LVL165:
 1585              		.loc 2 318 0
 1586 00d2 AA69     		ldr	r2, [r5, #24]
 1587 00d4 2B68     		ldr	r3, [r5]
 1588 00d6 9268     		ldr	r2, [r2, #8]
ARM GAS  C:\Users\jo\AppData\Local\Temp\ccngxRrK.s 			page 29


 1589 00d8 9B68     		ldr	r3, [r3, #8]
 1590 00da 9A42     		cmp	r2, r3
 1591 00dc 02D2     		bcs	.L84
 1592 00de 9548     		ldr	r0, .L124+8
 1593 00e0 FFF7FEFF 		bl	chSysHalt
 1594              	.LVL166:
 1595              	.L84:
 1596              	.LBB841:
 1597              	.LBB842:
 1598              	.LBB843:
 1599              		.loc 3 546 0
 1600 00e4 0023     		movs	r3, #0
 1601              	@ 546 "../../../os/ext/CMSIS/include/core_cmFunc.h" 1
 1602 00e6 83F31188 		MSR basepri, r3
 1603              	@ 0 "" 2
 1604              		.thumb
 1605              	.LBE843:
 1606              	.LBE842:
 1607              	.LBE841:
 1608              	.LBE840:
 1609              	.LBE839:
 1610              		.loc 1 196 0
 1611 00ea 3046     		mov	r0, r6
 1612 00ec FFF7FEFF 		bl	test_emit_token
 1613              	.LVL167:
 1614              	.LBE833:
 1615              		.loc 1 190 0
 1616 00f0 013C     		subs	r4, r4, #1
 1617              	.LVL168:
 1618 00f2 E0D1     		bne	.L85
 1619              	.LVL169:
 1620              	.LBB844:
 1621              	.LBB845:
 1622              	.LBB846:
 1623              	.LBB847:
 1624              	.LBB848:
 1625              		.loc 3 546 0
 1626 00f4 2023     		movs	r3, #32
 1627              	@ 546 "../../../os/ext/CMSIS/include/core_cmFunc.h" 1
 1628 00f6 83F31188 		MSR basepri, r3
 1629              	@ 0 "" 2
 1630              		.thumb
 1631              	.LBE848:
 1632              	.LBE847:
 1633              	.LBE846:
 1634              		.loc 2 300 0
 1635 00fa FFF7FEFF 		bl	_stats_start_measure_crit_thd
 1636              	.LVL170:
 1637              		.loc 2 301 0
 1638 00fe FFF7FEFF 		bl	_dbg_check_lock
 1639              	.LVL171:
 1640              	.LBE845:
 1641              	.LBE844:
 1642              	.LBB849:
 1643              	.LBB850:
 1644              		.loc 4 385 0
 1645 0102 FFF7FEFF 		bl	chDbgCheckClassI
ARM GAS  C:\Users\jo\AppData\Local\Temp\ccngxRrK.s 			page 30


 1646              	.LVL172:
 1647              		.loc 4 387 0
 1648 0106 7A69     		ldr	r2, [r7, #20]
 1649 0108 BB69     		ldr	r3, [r7, #24]
 1650 010a 8849     		ldr	r1, .L124
 1651 010c 9A42     		cmp	r2, r3
 1652 010e 00F06A81 		beq	.L119
 1653              	.L86:
 1654              	.LBE850:
 1655              	.LBE849:
 1656              		.loc 1 198 0
 1657 0112 4946     		mov	r1, r9
 1658 0114 0320     		movs	r0, #3
 1659 0116 FFF7FEFF 		bl	_test_assert
 1660              	.LVL173:
 1661 011a 0028     		cmp	r0, #0
 1662 011c 40F03781 		bne	.L112
 1663              	.LBB852:
 1664              	.LBB853:
 1665              		.loc 2 311 0
 1666 0120 FFF7FEFF 		bl	_dbg_check_unlock
 1667              	.LVL174:
 1668              		.loc 2 312 0
 1669 0124 FFF7FEFF 		bl	_stats_stop_measure_crit_thd
 1670              	.LVL175:
 1671              		.loc 2 318 0
 1672 0128 AA69     		ldr	r2, [r5, #24]
 1673 012a 2B68     		ldr	r3, [r5]
 1674 012c 9268     		ldr	r2, [r2, #8]
 1675 012e 9B68     		ldr	r3, [r3, #8]
 1676 0130 9A42     		cmp	r2, r3
 1677 0132 C0F04F81 		bcc	.L120
 1678              	.L89:
 1679              	.LVL176:
 1680              	.LBB854:
 1681              	.LBB855:
 1682              	.LBB856:
 1683              		.loc 3 546 0
 1684 0136 0023     		movs	r3, #0
 1685              	@ 546 "../../../os/ext/CMSIS/include/core_cmFunc.h" 1
 1686 0138 83F31188 		MSR basepri, r3
 1687              	@ 0 "" 2
 1688              		.thumb
 1689              	.LBE856:
 1690              	.LBE855:
 1691              	.LBE854:
 1692              	.LBE853:
 1693              	.LBE852:
 1694              		.loc 1 199 0
 1695 013c 0420     		movs	r0, #4
 1696 013e 7E49     		ldr	r1, .L124+12
 1697 0140 FFF7FEFF 		bl	_test_assert_sequence
 1698              	.LVL177:
 1699 0144 0028     		cmp	r0, #0
 1700 0146 40F02F81 		bne	.L74
 1701              	.LVL178:
 1702              	.LBB858:
ARM GAS  C:\Users\jo\AppData\Local\Temp\ccngxRrK.s 			page 31


 1703              	.LBB859:
 1704              	.LBB860:
 1705              	.LBB861:
 1706              	.LBB862:
 1707              		.loc 3 546 0
 1708 014a 2023     		movs	r3, #32
 1709              	@ 546 "../../../os/ext/CMSIS/include/core_cmFunc.h" 1
 1710 014c 83F31188 		MSR basepri, r3
 1711              	@ 0 "" 2
 1712              		.thumb
 1713              	.LBE862:
 1714              	.LBE861:
 1715              	.LBE860:
 1716              		.loc 2 300 0
 1717 0150 FFF7FEFF 		bl	_stats_start_measure_crit_thd
 1718              	.LVL179:
 1719              		.loc 2 301 0
 1720 0154 FFF7FEFF 		bl	_dbg_check_lock
 1721              	.LVL180:
 1722              	.LBE859:
 1723              	.LBE858:
 1724              		.loc 1 200 0
 1725 0158 7448     		ldr	r0, .L124
 1726 015a FFF7FEFF 		bl	chOQGetI
 1727              	.LVL181:
 1728 015e 0330     		adds	r0, r0, #3
 1729 0160 14BF     		ite	ne
 1730 0162 0021     		movne	r1, #0
 1731 0164 0121     		moveq	r1, #1
 1732 0166 0520     		movs	r0, #5
 1733 0168 FFF7FEFF 		bl	_test_assert
 1734              	.LVL182:
 1735 016c 0028     		cmp	r0, #0
 1736 016e 40F00E81 		bne	.L112
 1737              	.LBB863:
 1738              	.LBB864:
 1739              		.loc 2 311 0
 1740 0172 FFF7FEFF 		bl	_dbg_check_unlock
 1741              	.LVL183:
 1742              		.loc 2 312 0
 1743 0176 FFF7FEFF 		bl	_stats_stop_measure_crit_thd
 1744              	.LVL184:
 1745              		.loc 2 318 0
 1746 017a AA69     		ldr	r2, [r5, #24]
 1747 017c 2B68     		ldr	r3, [r5]
 1748 017e 9268     		ldr	r2, [r2, #8]
 1749 0180 9B68     		ldr	r3, [r3, #8]
 1750 0182 9A42     		cmp	r2, r3
 1751 0184 C0F03681 		bcc	.L121
 1752              	.L93:
 1753              	.LVL185:
 1754              	.LBB865:
 1755              	.LBB866:
 1756              	.LBB867:
 1757              		.loc 3 546 0
 1758 0188 0023     		movs	r3, #0
 1759              	@ 546 "../../../os/ext/CMSIS/include/core_cmFunc.h" 1
ARM GAS  C:\Users\jo\AppData\Local\Temp\ccngxRrK.s 			page 32


 1760 018a 83F31188 		MSR basepri, r3
 1761              	@ 0 "" 2
 1762              		.thumb
 1763              	.LBE867:
 1764              	.LBE866:
 1765              	.LBE865:
 1766              	.LBE864:
 1767              	.LBE863:
 1768              		.loc 1 203 0
 1769 018e 674C     		ldr	r4, .L124
 1770              	.LVL186:
 1771 0190 6A4E     		ldr	r6, .L124+16
 1772              	.LVL187:
 1773 0192 2046     		mov	r0, r4
 1774 0194 7168     		ldr	r1, [r6, #4]
 1775 0196 0822     		movs	r2, #8
 1776 0198 FFF7FEFF 		bl	chOQWriteTimeout
 1777              	.LVL188:
 1778              		.loc 1 204 0
 1779 019c A0F10401 		sub	r1, r0, #4
 1780 01a0 0620     		movs	r0, #6
 1781              	.LVL189:
 1782 01a2 B1FA81F1 		clz	r1, r1
 1783              	.LVL190:
 1784 01a6 4909     		lsrs	r1, r1, #5
 1785 01a8 FFF7FEFF 		bl	_test_assert
 1786              	.LVL191:
 1787 01ac 0028     		cmp	r0, #0
 1788 01ae 40F0FB80 		bne	.L74
 1789              	.LVL192:
 1790              	.LBB869:
 1791              	.LBB870:
 1792              	.LBB871:
 1793              	.LBB872:
 1794              	.LBB873:
 1795              		.loc 3 546 0
 1796 01b2 2023     		movs	r3, #32
 1797              	@ 546 "../../../os/ext/CMSIS/include/core_cmFunc.h" 1
 1798 01b4 83F31188 		MSR basepri, r3
 1799              	@ 0 "" 2
 1800              		.thumb
 1801              	.LBE873:
 1802              	.LBE872:
 1803              	.LBE871:
 1804              		.loc 2 300 0
 1805 01b8 FFF7FEFF 		bl	_stats_start_measure_crit_thd
 1806              	.LVL193:
 1807              		.loc 2 301 0
 1808 01bc FFF7FEFF 		bl	_dbg_check_lock
 1809              	.LVL194:
 1810              	.LBE870:
 1811              	.LBE869:
 1812              	.LBB874:
 1813              	.LBB875:
 1814              		.loc 4 402 0
 1815 01c0 FFF7FEFF 		bl	chDbgCheckClassI
 1816              	.LVL195:
ARM GAS  C:\Users\jo\AppData\Local\Temp\ccngxRrK.s 			page 33


 1817              		.loc 4 404 0
 1818 01c4 A168     		ldr	r1, [r4, #8]
 1819              	.LBE875:
 1820              	.LBE874:
 1821              		.loc 1 205 0
 1822 01c6 B1FA81F1 		clz	r1, r1
 1823 01ca 0720     		movs	r0, #7
 1824 01cc 4909     		lsrs	r1, r1, #5
 1825 01ce FFF7FEFF 		bl	_test_assert
 1826              	.LVL196:
 1827 01d2 0028     		cmp	r0, #0
 1828 01d4 40F0DB80 		bne	.L112
 1829              	.LBB876:
 1830              	.LBB877:
 1831              		.loc 2 311 0
 1832 01d8 FFF7FEFF 		bl	_dbg_check_unlock
 1833              	.LVL197:
 1834              		.loc 2 312 0
 1835 01dc FFF7FEFF 		bl	_stats_stop_measure_crit_thd
 1836              	.LVL198:
 1837              		.loc 2 318 0
 1838 01e0 AA69     		ldr	r2, [r5, #24]
 1839 01e2 2B68     		ldr	r3, [r5]
 1840 01e4 9268     		ldr	r2, [r2, #8]
 1841 01e6 9B68     		ldr	r3, [r3, #8]
 1842 01e8 9A42     		cmp	r2, r3
 1843 01ea 02D2     		bcs	.L97
 1844 01ec 5148     		ldr	r0, .L124+8
 1845 01ee FFF7FEFF 		bl	chSysHalt
 1846              	.LVL199:
 1847              	.L97:
 1848              	.LBB878:
 1849              	.LBB879:
 1850              	.LBB880:
 1851              		.loc 3 546 0
 1852 01f2 0021     		movs	r1, #0
 1853              	@ 546 "../../../os/ext/CMSIS/include/core_cmFunc.h" 1
 1854 01f4 81F31188 		MSR basepri, r1
 1855              	@ 0 "" 2
 1856              		.thumb
 1857              	.LBE880:
 1858              	.LBE879:
 1859              	.LBE878:
 1860              	.LBE877:
 1861              	.LBE876:
 1862              	.LBB881:
 1863              	.LBB882:
 1864              		.loc 5 192 0
 1865 01f8 AB69     		ldr	r3, [r5, #24]
 1866              	.LBE882:
 1867              	.LBE881:
 1868              		.loc 1 206 0
 1869 01fa 3068     		ldr	r0, [r6]
 1870 01fc 9A68     		ldr	r2, [r3, #8]
 1871 01fe 0091     		str	r1, [sp]
 1872 0200 4F4B     		ldr	r3, .L124+20
 1873              	.LBB886:
ARM GAS  C:\Users\jo\AppData\Local\Temp\ccngxRrK.s 			page 34


 1874              	.LBB885:
 1875              	.LBB883:
 1876              	.LBB884:
 1877              		.loc 5 179 0
 1878 0202 4B4C     		ldr	r4, .L124+4
 1879              	.LBE884:
 1880              	.LBE883:
 1881              	.LBE885:
 1882              	.LBE886:
 1883              		.loc 1 206 0
 1884 0204 0132     		adds	r2, r2, #1
 1885 0206 4FF4B471 		mov	r1, #360
 1886 020a FFF7FEFF 		bl	chThdCreateStatic
 1887              	.LVL200:
 1888 020e 4D4B     		ldr	r3, .L124+24
 1889 0210 1860     		str	r0, [r3]
 1890              	.LVL201:
 1891              	.LBB887:
 1892              	.LBB888:
 1893              	.LBB889:
 1894              	.LBB890:
 1895              	.LBB891:
 1896              		.loc 3 546 0
 1897 0212 2023     		movs	r3, #32
 1898              	@ 546 "../../../os/ext/CMSIS/include/core_cmFunc.h" 1
 1899 0214 83F31188 		MSR basepri, r3
 1900              	@ 0 "" 2
 1901              		.thumb
 1902              	.LBE891:
 1903              	.LBE890:
 1904              	.LBE889:
 1905              		.loc 2 300 0
 1906 0218 FFF7FEFF 		bl	_stats_start_measure_crit_thd
 1907              	.LVL202:
 1908              		.loc 2 301 0
 1909 021c FFF7FEFF 		bl	_dbg_check_lock
 1910              	.LVL203:
 1911              	.LBE888:
 1912              	.LBE887:
 1913              	.LBB892:
 1914              	.LBB893:
 1915              		.loc 4 352 0
 1916 0220 FFF7FEFF 		bl	chDbgCheckClassI
 1917              	.LVL204:
 1918              		.loc 4 354 0
 1919 0224 F968     		ldr	r1, [r7, #12]
 1920 0226 3B69     		ldr	r3, [r7, #16]
 1921 0228 BA68     		ldr	r2, [r7, #8]
 1922 022a 5B1A     		subs	r3, r3, r1
 1923 022c 991A     		subs	r1, r3, r2
 1924              	.LBE893:
 1925              	.LBE892:
 1926              		.loc 1 207 0
 1927 022e A1F10401 		sub	r1, #4
 1928 0232 0820     		movs	r0, #8
 1929 0234 B1FA81F1 		clz	r1, r1
 1930 0238 4909     		lsrs	r1, r1, #5
ARM GAS  C:\Users\jo\AppData\Local\Temp\ccngxRrK.s 			page 35


 1931 023a FFF7FEFF 		bl	_test_assert
 1932              	.LVL205:
 1933 023e 0028     		cmp	r0, #0
 1934 0240 40F0DC80 		bne	.L122
 1935              	.LBB894:
 1936              	.LBB895:
 1937              		.loc 2 311 0
 1938 0244 FFF7FEFF 		bl	_dbg_check_unlock
 1939              	.LVL206:
 1940              		.loc 2 312 0
 1941 0248 FFF7FEFF 		bl	_stats_stop_measure_crit_thd
 1942              	.LVL207:
 1943              		.loc 2 318 0
 1944 024c A269     		ldr	r2, [r4, #24]
 1945 024e 2368     		ldr	r3, [r4]
 1946 0250 9268     		ldr	r2, [r2, #8]
 1947 0252 9B68     		ldr	r3, [r3, #8]
 1948 0254 9A42     		cmp	r2, r3
 1949 0256 02D2     		bcs	.L100
 1950 0258 3648     		ldr	r0, .L124+8
 1951 025a FFF7FEFF 		bl	chSysHalt
 1952              	.LVL208:
 1953              	.L100:
 1954              	.LBB896:
 1955              	.LBB897:
 1956              	.LBB898:
 1957              		.loc 3 546 0
 1958 025e 0023     		movs	r3, #0
 1959              	@ 546 "../../../os/ext/CMSIS/include/core_cmFunc.h" 1
 1960 0260 83F31188 		MSR basepri, r3
 1961              	@ 0 "" 2
 1962              		.thumb
 1963              	.LBE898:
 1964              	.LBE897:
 1965              	.LBE896:
 1966              	.LBE895:
 1967              	.LBE894:
 1968              		.loc 1 208 0
 1969 0264 FFF7FEFF 		bl	test_wait_threads
 1970              	.LVL209:
 1971              	.LBB899:
 1972              	.LBB900:
 1973              	.LBB901:
 1974              	.LBB902:
 1975              	.LBB903:
 1976              		.loc 3 546 0
 1977 0268 2023     		movs	r3, #32
 1978              	@ 546 "../../../os/ext/CMSIS/include/core_cmFunc.h" 1
 1979 026a 83F31188 		MSR basepri, r3
 1980              	@ 0 "" 2
 1981              		.thumb
 1982              	.LBE903:
 1983              	.LBE902:
 1984              	.LBE901:
 1985              		.loc 2 300 0
 1986 026e FFF7FEFF 		bl	_stats_start_measure_crit_thd
 1987              	.LVL210:
ARM GAS  C:\Users\jo\AppData\Local\Temp\ccngxRrK.s 			page 36


 1988              		.loc 2 301 0
 1989 0272 FFF7FEFF 		bl	_dbg_check_lock
 1990              	.LVL211:
 1991              	.LBE900:
 1992              	.LBE899:
 1993              		.loc 1 212 0
 1994 0276 2D48     		ldr	r0, .L124
 1995 0278 FFF7FEFF 		bl	chOQResetI
 1996              	.LVL212:
 1997              	.LBB904:
 1998              	.LBB905:
 1999              		.loc 2 311 0
 2000 027c FFF7FEFF 		bl	_dbg_check_unlock
 2001              	.LVL213:
 2002              		.loc 2 312 0
 2003 0280 FFF7FEFF 		bl	_stats_stop_measure_crit_thd
 2004              	.LVL214:
 2005              		.loc 2 318 0
 2006 0284 AA69     		ldr	r2, [r5, #24]
 2007 0286 2B68     		ldr	r3, [r5]
 2008 0288 9268     		ldr	r2, [r2, #8]
 2009 028a 9B68     		ldr	r3, [r3, #8]
 2010 028c 9A42     		cmp	r2, r3
 2011 028e 02D2     		bcs	.L101
 2012 0290 2848     		ldr	r0, .L124+8
 2013 0292 FFF7FEFF 		bl	chSysHalt
 2014              	.LVL215:
 2015              	.L101:
 2016              	.LBB906:
 2017              	.LBB907:
 2018              	.LBB908:
 2019              		.loc 3 546 0
 2020 0296 0023     		movs	r3, #0
 2021              	@ 546 "../../../os/ext/CMSIS/include/core_cmFunc.h" 1
 2022 0298 83F31188 		MSR basepri, r3
 2023              	@ 0 "" 2
 2024              	.LVL216:
 2025              		.thumb
 2026              	.LBE908:
 2027              	.LBE907:
 2028              	.LBE906:
 2029              	.LBE905:
 2030              	.LBE904:
 2031              	.LBB909:
 2032              	.LBB910:
 2033              	.LBB911:
 2034              	.LBB912:
 2035              	.LBB913:
 2036 029c 2023     		movs	r3, #32
 2037              	@ 546 "../../../os/ext/CMSIS/include/core_cmFunc.h" 1
 2038 029e 83F31188 		MSR basepri, r3
 2039              	@ 0 "" 2
 2040              		.thumb
 2041              	.LBE913:
 2042              	.LBE912:
 2043              	.LBE911:
 2044              		.loc 2 300 0
ARM GAS  C:\Users\jo\AppData\Local\Temp\ccngxRrK.s 			page 37


 2045 02a2 FFF7FEFF 		bl	_stats_start_measure_crit_thd
 2046              	.LVL217:
 2047              		.loc 2 301 0
 2048 02a6 FFF7FEFF 		bl	_dbg_check_lock
 2049              	.LVL218:
 2050              	.LBE910:
 2051              	.LBE909:
 2052              	.LBB914:
 2053              	.LBB915:
 2054              		.loc 4 352 0
 2055 02aa FFF7FEFF 		bl	chDbgCheckClassI
 2056              	.LVL219:
 2057              	.LBE915:
 2058              	.LBE914:
 2059              		.loc 1 214 0
 2060 02ae 07F10801 		add	r1, r7, #8
 2061 02b2 0EC9     		ldmia	r1, {r1, r2, r3}
 2062              	.LBB917:
 2063              	.LBB916:
 2064              		.loc 4 354 0
 2065 02b4 9B1A     		subs	r3, r3, r2
 2066              	.LBE916:
 2067              	.LBE917:
 2068              		.loc 1 214 0
 2069 02b6 591A     		subs	r1, r3, r1
 2070 02b8 0920     		movs	r0, #9
 2071 02ba B1FA81F1 		clz	r1, r1
 2072 02be 4909     		lsrs	r1, r1, #5
 2073 02c0 FFF7FEFF 		bl	_test_assert
 2074              	.LVL220:
 2075 02c4 0028     		cmp	r0, #0
 2076 02c6 62D1     		bne	.L112
 2077              	.LBB918:
 2078              	.LBB919:
 2079              		.loc 2 311 0
 2080 02c8 FFF7FEFF 		bl	_dbg_check_unlock
 2081              	.LVL221:
 2082              		.loc 2 312 0
 2083 02cc FFF7FEFF 		bl	_stats_stop_measure_crit_thd
 2084              	.LVL222:
 2085              		.loc 2 318 0
 2086 02d0 AA69     		ldr	r2, [r5, #24]
 2087 02d2 2B68     		ldr	r3, [r5]
 2088 02d4 9268     		ldr	r2, [r2, #8]
 2089 02d6 9B68     		ldr	r3, [r3, #8]
 2090 02d8 9A42     		cmp	r2, r3
 2091 02da 02D2     		bcs	.L104
 2092 02dc 1548     		ldr	r0, .L124+8
 2093 02de FFF7FEFF 		bl	chSysHalt
 2094              	.LVL223:
 2095              	.L104:
 2096              	.LBB920:
 2097              	.LBB921:
 2098              	.LBB922:
 2099              		.loc 3 546 0
 2100 02e2 0023     		movs	r3, #0
 2101              	@ 546 "../../../os/ext/CMSIS/include/core_cmFunc.h" 1
ARM GAS  C:\Users\jo\AppData\Local\Temp\ccngxRrK.s 			page 38


 2102 02e4 83F31188 		MSR basepri, r3
 2103              	@ 0 "" 2
 2104              		.thumb
 2105              	.LBE922:
 2106              	.LBE921:
 2107              	.LBE920:
 2108              	.LBE919:
 2109              	.LBE918:
 2110              		.loc 1 217 0
 2111 02e8 104C     		ldr	r4, .L124
 2112 02ea 7568     		ldr	r5, [r6, #4]
 2113 02ec 0222     		movs	r2, #2
 2114 02ee 2946     		mov	r1, r5
 2115 02f0 2046     		mov	r0, r4
 2116 02f2 FFF7FEFF 		bl	chOQWriteTimeout
 2117              	.LVL224:
 2118              		.loc 1 218 0
 2119 02f6 A0F10201 		sub	r1, r0, #2
 2120 02fa 0A20     		movs	r0, #10
 2121              	.LVL225:
 2122 02fc B1FA81F1 		clz	r1, r1
 2123              	.LVL226:
 2124 0300 4909     		lsrs	r1, r1, #5
 2125 0302 FFF7FEFF 		bl	_test_assert
 2126              	.LVL227:
 2127 0306 0346     		mov	r3, r0
 2128 0308 0028     		cmp	r0, #0
 2129 030a 4DD1     		bne	.L74
 2130              		.loc 1 219 0
 2131 030c 2946     		mov	r1, r5
 2132 030e 2046     		mov	r0, r4
 2133 0310 0222     		movs	r2, #2
 2134 0312 FFF7FEFF 		bl	chOQWriteTimeout
 2135              	.LVL228:
 2136              		.loc 1 220 0
 2137 0316 A0F10201 		sub	r1, r0, #2
 2138 031a 0B20     		movs	r0, #11
 2139              	.LVL229:
 2140 031c B1FA81F1 		clz	r1, r1
 2141              	.LVL230:
 2142 0320 4909     		lsrs	r1, r1, #5
 2143 0322 FFF7FEFF 		bl	_test_assert
 2144              	.LVL231:
 2145 0326 0028     		cmp	r0, #0
 2146 0328 3ED1     		bne	.L74
 2147 032a 0DE0     		b	.L125
 2148              	.L126:
 2149              		.align	2
 2150              	.L124:
 2151 032c 00000000 		.word	.LANCHOR2
 2152 0330 00000000 		.word	ch
 2153 0334 00000000 		.word	.LANCHOR1
 2154 0338 00000000 		.word	.LC0
 2155 033c 00000000 		.word	wa
 2156 0340 00000000 		.word	thread2
 2157 0344 00000000 		.word	threads
 2158              	.L125:
ARM GAS  C:\Users\jo\AppData\Local\Temp\ccngxRrK.s 			page 39


 2159              	.LVL232:
 2160              	.LBB923:
 2161              	.LBB924:
 2162              	.LBB925:
 2163              	.LBB926:
 2164              	.LBB927:
 2165              		.loc 3 546 0
 2166 0348 2023     		movs	r3, #32
 2167              	@ 546 "../../../os/ext/CMSIS/include/core_cmFunc.h" 1
 2168 034a 83F31188 		MSR basepri, r3
 2169              	@ 0 "" 2
 2170              		.thumb
 2171              	.LBE927:
 2172              	.LBE926:
 2173              	.LBE925:
 2174              		.loc 2 300 0
 2175 034e FFF7FEFF 		bl	_stats_start_measure_crit_thd
 2176              	.LVL233:
 2177              		.loc 2 301 0
 2178 0352 FFF7FEFF 		bl	_dbg_check_lock
 2179              	.LVL234:
 2180              	.LBE924:
 2181              	.LBE923:
 2182              	.LBB928:
 2183              	.LBB929:
 2184              		.loc 4 402 0
 2185 0356 FFF7FEFF 		bl	chDbgCheckClassI
 2186              	.LVL235:
 2187              		.loc 4 404 0
 2188 035a A168     		ldr	r1, [r4, #8]
 2189              	.LBE929:
 2190              	.LBE928:
 2191              		.loc 1 221 0
 2192 035c B1FA81F1 		clz	r1, r1
 2193 0360 0C20     		movs	r0, #12
 2194 0362 4909     		lsrs	r1, r1, #5
 2195 0364 FFF7FEFF 		bl	_test_assert
 2196              	.LVL236:
 2197 0368 0546     		mov	r5, r0
 2198 036a 0028     		cmp	r0, #0
 2199 036c 51D1     		bne	.L123
 2200 036e FFF7FEFF 		bl	chSysUnlock
 2201              	.LVL237:
 2202              		.loc 1 224 0
 2203 0372 2946     		mov	r1, r5
 2204 0374 2046     		mov	r0, r4
 2205 0376 0A22     		movs	r2, #10
 2206 0378 FFF7FEFF 		bl	chOQPutTimeout
 2207              	.LVL238:
 2208 037c 431C     		adds	r3, r0, #1
 2209 037e 5942     		rsbs	r1, r3, #0
 2210 0380 5941     		adcs	r1, r1, r3
 2211 0382 0D20     		movs	r0, #13
 2212              	.LBE812:
 2213              	.LBE811:
 2214              		.loc 1 225 0
 2215 0384 03B0     		add	sp, sp, #12
ARM GAS  C:\Users\jo\AppData\Local\Temp\ccngxRrK.s 			page 40


 2216              		.cfi_remember_state
 2217              		.cfi_def_cfa_offset 28
 2218              		@ sp needed
 2219 0386 BDE8F043 		pop	{r4, r5, r6, r7, r8, r9, lr}
 2220              		.cfi_restore 14
 2221              		.cfi_restore 9
 2222              		.cfi_restore 8
 2223              		.cfi_restore 7
 2224              		.cfi_restore 6
 2225              		.cfi_restore 5
 2226              		.cfi_restore 4
 2227              		.cfi_def_cfa_offset 0
 2228              	.LBB948:
 2229              	.LBB943:
 2230              		.loc 1 224 0
 2231 038a FFF7FEBF 		b	_test_assert
 2232              	.LVL239:
 2233              	.L112:
 2234              		.cfi_restore_state
 2235              	.LBB930:
 2236              	.LBB931:
 2237              		.loc 2 311 0
 2238 038e FFF7FEFF 		bl	_dbg_check_unlock
 2239              	.LVL240:
 2240              		.loc 2 312 0
 2241 0392 FFF7FEFF 		bl	_stats_stop_measure_crit_thd
 2242              	.LVL241:
 2243              		.loc 2 318 0
 2244 0396 AA69     		ldr	r2, [r5, #24]
 2245 0398 2B68     		ldr	r3, [r5]
 2246 039a 9268     		ldr	r2, [r2, #8]
 2247 039c 9B68     		ldr	r3, [r3, #8]
 2248 039e 9A42     		cmp	r2, r3
 2249 03a0 14D3     		bcc	.L110
 2250              	.LVL242:
 2251              	.L103:
 2252              	.LBB932:
 2253              	.LBB933:
 2254              	.LBB934:
 2255              		.loc 3 546 0
 2256 03a2 0023     		movs	r3, #0
 2257              	@ 546 "../../../os/ext/CMSIS/include/core_cmFunc.h" 1
 2258 03a4 83F31188 		MSR basepri, r3
 2259              	@ 0 "" 2
 2260              	.LVL243:
 2261              		.thumb
 2262              	.L74:
 2263              	.LBE934:
 2264              	.LBE933:
 2265              	.LBE932:
 2266              	.LBE931:
 2267              	.LBE930:
 2268              	.LBE943:
 2269              	.LBE948:
 2270              		.loc 1 225 0
 2271 03a8 03B0     		add	sp, sp, #12
 2272              		.cfi_remember_state
ARM GAS  C:\Users\jo\AppData\Local\Temp\ccngxRrK.s 			page 41


 2273              		.cfi_def_cfa_offset 28
 2274              		@ sp needed
 2275 03aa BDE8F083 		pop	{r4, r5, r6, r7, r8, r9, pc}
 2276              	.L118:
 2277              		.cfi_restore_state
 2278              	.LBB949:
 2279              	.LBB944:
 2280              	.LBB936:
 2281              	.LBB818:
 2282              		.loc 2 318 0
 2283 03ae 1B48     		ldr	r0, .L127
 2284 03b0 FFF7FEFF 		bl	chSysHalt
 2285              	.LVL244:
 2286 03b4 49E6     		b	.L79
 2287              	.L117:
 2288              	.LBE818:
 2289              	.LBE936:
 2290              	.LBE944:
 2291              	.LBE949:
 2292              	.LBB950:
 2293              	.LBB951:
 2294              		.loc 2 311 0
 2295 03b6 FFF7FEFF 		bl	_dbg_check_unlock
 2296              	.LVL245:
 2297              		.loc 2 312 0
 2298 03ba FFF7FEFF 		bl	_stats_stop_measure_crit_thd
 2299              	.LVL246:
 2300              		.loc 2 318 0
 2301 03be 184B     		ldr	r3, .L127+4
 2302 03c0 9A69     		ldr	r2, [r3, #24]
 2303 03c2 1B68     		ldr	r3, [r3]
 2304 03c4 9268     		ldr	r2, [r2, #8]
 2305 03c6 9B68     		ldr	r3, [r3, #8]
 2306 03c8 9A42     		cmp	r2, r3
 2307 03ca EAD2     		bcs	.L103
 2308              	.L110:
 2309              	.LBE951:
 2310              	.LBE950:
 2311              	.LBB952:
 2312              	.LBB945:
 2313              	.LBB937:
 2314              	.LBB935:
 2315 03cc 1348     		ldr	r0, .L127
 2316 03ce FFF7FEFF 		bl	chSysHalt
 2317              	.LVL247:
 2318 03d2 E6E7     		b	.L103
 2319              	.LVL248:
 2320              	.L120:
 2321              	.LBE935:
 2322              	.LBE937:
 2323              	.LBB938:
 2324              	.LBB857:
 2325 03d4 1148     		ldr	r0, .L127
 2326 03d6 FFF7FEFF 		bl	chSysHalt
 2327              	.LVL249:
 2328 03da ACE6     		b	.L89
 2329              	.LVL250:
ARM GAS  C:\Users\jo\AppData\Local\Temp\ccngxRrK.s 			page 42


 2330              	.L116:
 2331              	.LBE857:
 2332              	.LBE938:
 2333              	.LBE945:
 2334              	.LBE952:
 2335              	.LBB953:
 2336              	.LBB808:
 2337              		.loc 4 387 0
 2338 03dc B968     		ldr	r1, [r7, #8]
 2339 03de 0031     		adds	r1, r1, #0
 2340 03e0 18BF     		it	ne
 2341 03e2 0121     		movne	r1, #1
 2342 03e4 1FE6     		b	.L75
 2343              	.LVL251:
 2344              	.L119:
 2345              	.LBE808:
 2346              	.LBE953:
 2347              	.LBB954:
 2348              	.LBB946:
 2349              	.LBB939:
 2350              	.LBB851:
 2351 03e6 8B68     		ldr	r3, [r1, #8]
 2352 03e8 13F10009 		adds	r9, r3, #0
 2353 03ec 18BF     		it	ne
 2354 03ee 4FF00109 		movne	r9, #1
 2355 03f2 8EE6     		b	.L86
 2356              	.LVL252:
 2357              	.L121:
 2358              	.LBE851:
 2359              	.LBE939:
 2360              	.LBB940:
 2361              	.LBB868:
 2362              		.loc 2 318 0
 2363 03f4 0948     		ldr	r0, .L127
 2364 03f6 FFF7FEFF 		bl	chSysHalt
 2365              	.LVL253:
 2366 03fa C5E6     		b	.L93
 2367              	.LVL254:
 2368              	.L122:
 2369              	.LBE868:
 2370              	.LBE940:
 2371              	.LBB941:
 2372              	.LBB942:
 2373              		.loc 2 311 0
 2374 03fc FFF7FEFF 		bl	_dbg_check_unlock
 2375              	.LVL255:
 2376              		.loc 2 312 0
 2377 0400 FFF7FEFF 		bl	_stats_stop_measure_crit_thd
 2378              	.LVL256:
 2379              		.loc 2 318 0
 2380 0404 A269     		ldr	r2, [r4, #24]
 2381 0406 2368     		ldr	r3, [r4]
 2382 0408 9268     		ldr	r2, [r2, #8]
 2383 040a 9B68     		ldr	r3, [r3, #8]
 2384 040c 9A42     		cmp	r2, r3
 2385 040e C8D2     		bcs	.L103
 2386 0410 DCE7     		b	.L110
ARM GAS  C:\Users\jo\AppData\Local\Temp\ccngxRrK.s 			page 43


 2387              	.LVL257:
 2388              	.L123:
 2389              	.LBE942:
 2390              	.LBE941:
 2391              	.LBE946:
 2392              	.LBE954:
 2393              		.loc 1 225 0
 2394 0412 03B0     		add	sp, sp, #12
 2395              		.cfi_def_cfa_offset 28
 2396              		@ sp needed
 2397 0414 BDE8F043 		pop	{r4, r5, r6, r7, r8, r9, lr}
 2398              		.cfi_restore 14
 2399              		.cfi_restore 9
 2400              		.cfi_restore 8
 2401              		.cfi_restore 7
 2402              		.cfi_restore 6
 2403              		.cfi_restore 5
 2404              		.cfi_restore 4
 2405              		.cfi_def_cfa_offset 0
 2406              	.LBB955:
 2407              	.LBB947:
 2408              		.loc 1 221 0
 2409 0418 FFF7FEBF 		b	chSysUnlock
 2410              	.LVL258:
 2411              	.L128:
 2412              		.align	2
 2413              	.L127:
 2414 041c 00000000 		.word	.LANCHOR1
 2415 0420 00000000 		.word	ch
 2416              	.LBE947:
 2417              	.LBE955:
 2418              		.cfi_endproc
 2419              	.LFE232:
 2420              		.size	queues2_execute, .-queues2_execute
 2421              		.global	patternqueues
 2422              		.global	testqueues2
 2423              		.global	testqueues1
 2424 0424 AFF30080 		.section	.rodata.testqueues1,"a",%progbits
 2424      AFF30080 
 2424      AFF30080 
 2425              		.align	2
 2426              		.type	testqueues1, %object
 2427              		.size	testqueues1, 16
 2428              	testqueues1:
 2429 0000 20000000 		.word	.LC2
 2430 0004 00000000 		.word	queues1_setup
 2431 0008 00000000 		.word	0
 2432 000c 00000000 		.word	queues1_execute
 2433              		.section	.rodata.testqueues2,"a",%progbits
 2434              		.align	2
 2435              		.type	testqueues2, %object
 2436              		.size	testqueues2, 16
 2437              	testqueues2:
 2438 0000 08000000 		.word	.LC1
 2439 0004 00000000 		.word	queues2_setup
 2440 0008 00000000 		.word	0
 2441 000c 00000000 		.word	queues2_execute
ARM GAS  C:\Users\jo\AppData\Local\Temp\ccngxRrK.s 			page 44


 2442              		.section	.rodata.str1.4,"aMS",%progbits,1
 2443              		.align	2
 2444              	.LC0:
 2445 0000 41424344 		.ascii	"ABCD\000"
 2445      00
 2446 0005 000000   		.space	3
 2447              	.LC1:
 2448 0008 51756575 		.ascii	"Queues, output queues\000"
 2448      65732C20 
 2448      6F757470 
 2448      75742071 
 2448      75657565 
 2449 001e 0000     		.space	2
 2450              	.LC2:
 2451 0020 51756575 		.ascii	"Queues, input queues\000"
 2451      65732C20 
 2451      696E7075 
 2451      74207175 
 2451      65756573 
 2452 0035 000000   		.section	.rodata.patternqueues,"a",%progbits
 2453              		.align	2
 2454              		.type	patternqueues, %object
 2455              		.size	patternqueues, 12
 2456              	patternqueues:
 2457 0000 00000000 		.word	testqueues1
 2458 0004 00000000 		.word	testqueues2
 2459 0008 00000000 		.word	0
 2460              		.section	.rodata.__func__.5870,"a",%progbits
 2461              		.align	2
 2462              		.set	.LANCHOR1,. + 0
 2463              		.type	__func__.5870, %object
 2464              		.size	__func__.5870, 12
 2465              	__func__.5870:
 2466 0000 63685379 		.ascii	"chSysUnlock\000"
 2466      73556E6C 
 2466      6F636B00 
 2467              		.section	.data.oq,"aw",%progbits
 2468              		.align	2
 2469              		.set	.LANCHOR2,. + 0
 2470              		.type	oq, %object
 2471              		.size	oq, 36
 2472              	oq:
 2473 0000 00000000 		.word	oq
 2474 0004 00000000 		.word	oq
 2475 0008 04000000 		.word	4
 2476 000c 68010000 		.word	test+360
 2477 0010 6C010000 		.word	test+364
 2478 0014 68010000 		.word	test+360
 2479 0018 68010000 		.word	test+360
 2480 001c 00000000 		.word	notify
 2481 0020 00000000 		.word	0
 2482              		.section	.data.iq,"aw",%progbits
 2483              		.align	2
 2484              		.set	.LANCHOR0,. + 0
 2485              		.type	iq, %object
 2486              		.size	iq, 36
 2487              	iq:
ARM GAS  C:\Users\jo\AppData\Local\Temp\ccngxRrK.s 			page 45


 2488 0000 00000000 		.word	iq
 2489 0004 00000000 		.word	iq
 2490 0008 00000000 		.word	0
 2491 000c 00000000 		.word	test
 2492 0010 04000000 		.word	test+4
 2493 0014 00000000 		.word	test
 2494 0018 00000000 		.word	test
 2495 001c 00000000 		.word	notify
 2496 0020 00000000 		.word	0
 2497              		.text
 2498              	.Letext0:
 2499              		.file 6 "c:\\program files\\gnu tools arm embedded\\4.9 2014q4\\lib\\gcc\\arm-none-eabi\\4.9.3\\in
 2500              		.file 7 "c:\\program files\\gnu tools arm embedded\\4.9 2014q4\\arm-none-eabi\\include\\machine\\_
 2501              		.file 8 "c:\\program files\\gnu tools arm embedded\\4.9 2014q4\\arm-none-eabi\\include\\stdint.h"
 2502              		.file 9 "../../../os/rt/ports/ARMCMx/compilers/GCC/chtypes.h"
 2503              		.file 10 "../../../os/rt/include/chsystypes.h"
 2504              		.file 11 "../../../os/rt/include/chschd.h"
 2505              		.file 12 "../../../os/rt/ports/ARMCMx/chcore.h"
 2506              		.file 13 "../../../os/rt/ports/ARMCMx/chcore_v7m.h"
 2507              		.file 14 "../../../os/rt/include/chdebug.h"
 2508              		.file 15 "../../../os/rt/include/chtm.h"
 2509              		.file 16 "../../../os/rt/include/chstats.h"
 2510              		.file 17 "../../../os/rt/include/chmtx.h"
 2511              		.file 18 "../../../test/rt/test.h"
 2512              		.file 19 "../../../os/ext/CMSIS/include/core_cm4.h"