ARM GAS  C:\Users\jo\AppData\Local\Temp\ccuVAaqe.s 			page 1


   1              		.syntax unified
   2              		.cpu cortex-m4
   3              		.fpu softvfp
   4              		.eabi_attribute 20, 1
   5              		.eabi_attribute 21, 1
   6              		.eabi_attribute 23, 3
   7              		.eabi_attribute 24, 1
   8              		.eabi_attribute 25, 1
   9              		.eabi_attribute 26, 1
  10              		.eabi_attribute 30, 2
  11              		.eabi_attribute 34, 1
  12              		.eabi_attribute 18, 4
  13              		.thumb
  14              		.file	"testbmk.c"
  15              		.text
  16              	.Ltext0:
  17              		.cfi_sections	.debug_frame
  18              		.section	.text.thread1,"ax",%progbits
  19              		.align	2
  20              		.p2align 4,,15
  21              		.thumb
  22              		.thumb_func
  23              		.type	thread1, %function
  24              	thread1:
  25              	.LFB226:
  26              		.file 1 "../../../test/rt/testbmk.c"
  27              		.loc 1 66 0
  28              		.cfi_startproc
  29              		@ args = 0, pretend = 0, frame = 0
  30              		@ frame_needed = 0, uses_anonymous_args = 0
  31              		@ link register save eliminated.
  32              	.LVL0:
  33              		.loc 1 69 0
  34 0000 7047     		bx	lr
  35              		.cfi_endproc
  36              	.LFE226:
  37              		.size	thread1, .-thread1
  38 0002 00BFAFF3 		.section	.text.tmo,"ax",%progbits
  38      0080AFF3 
  38      0080AFF3 
  38      0080
  39              		.align	2
  40              		.p2align 4,,15
  41              		.thumb
  42              		.thumb_func
  43              		.type	tmo, %function
  44              	tmo:
  45              	.LFB242:
  46              		.loc 1 509 0
  47              		.cfi_startproc
  48              		@ args = 0, pretend = 0, frame = 0
  49              		@ frame_needed = 0, uses_anonymous_args = 0
  50              		@ link register save eliminated.
  51              	.LVL1:
  52 0000 7047     		bx	lr
  53              		.cfi_endproc
  54              	.LFE242:
ARM GAS  C:\Users\jo\AppData\Local\Temp\ccuVAaqe.s 			page 2


  55              		.size	tmo, .-tmo
  56 0002 00BFAFF3 		.section	.text.bmk13_execute,"ax",%progbits
  56      0080AFF3 
  56      0080AFF3 
  56      0080
  57              		.align	2
  58              		.p2align 4,,15
  59              		.thumb
  60              		.thumb_func
  61              		.type	bmk13_execute, %function
  62              	bmk13_execute:
  63              	.LFB248:
  64              		.loc 1 644 0
  65              		.cfi_startproc
  66              		@ args = 0, pretend = 0, frame = 0
  67              		@ frame_needed = 0, uses_anonymous_args = 0
  68              		.loc 1 644 0
  69 0000 10B5     		push	{r4, lr}
  70              		.cfi_def_cfa_offset 8
  71              		.cfi_offset 4, -8
  72              		.cfi_offset 14, -4
  73              		.loc 1 646 0
  74 0002 2F48     		ldr	r0, .L5
  75              		.loc 1 648 0
  76 0004 2F4C     		ldr	r4, .L5+4
  77              		.loc 1 646 0
  78 0006 FFF7FEFF 		bl	test_print
  79              	.LVL2:
  80              		.loc 1 647 0
  81 000a 4FF4BB60 		mov	r0, #1496
  82 000e FFF7FEFF 		bl	test_printn
  83              	.LVL3:
  84              		.loc 1 648 0
  85 0012 2046     		mov	r0, r4
  86 0014 FFF7FEFF 		bl	test_println
  87              	.LVL4:
  88              		.loc 1 649 0
  89 0018 2B48     		ldr	r0, .L5+8
  90 001a FFF7FEFF 		bl	test_print
  91              	.LVL5:
  92              		.loc 1 650 0
  93 001e 6020     		movs	r0, #96
  94 0020 FFF7FEFF 		bl	test_printn
  95              	.LVL6:
  96              		.loc 1 651 0
  97 0024 2046     		mov	r0, r4
  98 0026 FFF7FEFF 		bl	test_println
  99              	.LVL7:
 100              		.loc 1 652 0
 101 002a 2848     		ldr	r0, .L5+12
 102 002c FFF7FEFF 		bl	test_print
 103              	.LVL8:
 104              		.loc 1 653 0
 105 0030 1420     		movs	r0, #20
 106 0032 FFF7FEFF 		bl	test_printn
 107              	.LVL9:
 108              		.loc 1 654 0
ARM GAS  C:\Users\jo\AppData\Local\Temp\ccuVAaqe.s 			page 3


 109 0036 2046     		mov	r0, r4
 110 0038 FFF7FEFF 		bl	test_println
 111              	.LVL10:
 112              		.loc 1 656 0
 113 003c 2448     		ldr	r0, .L5+16
 114 003e FFF7FEFF 		bl	test_print
 115              	.LVL11:
 116              		.loc 1 657 0
 117 0042 0C20     		movs	r0, #12
 118 0044 FFF7FEFF 		bl	test_printn
 119              	.LVL12:
 120              		.loc 1 658 0
 121 0048 2046     		mov	r0, r4
 122 004a FFF7FEFF 		bl	test_println
 123              	.LVL13:
 124              		.loc 1 661 0
 125 004e 2148     		ldr	r0, .L5+20
 126 0050 FFF7FEFF 		bl	test_print
 127              	.LVL14:
 128              		.loc 1 662 0
 129 0054 0420     		movs	r0, #4
 130 0056 FFF7FEFF 		bl	test_printn
 131              	.LVL15:
 132              		.loc 1 663 0
 133 005a 2046     		mov	r0, r4
 134 005c FFF7FEFF 		bl	test_println
 135              	.LVL16:
 136              		.loc 1 664 0
 137 0060 1D48     		ldr	r0, .L5+24
 138 0062 FFF7FEFF 		bl	test_print
 139              	.LVL17:
 140              		.loc 1 665 0
 141 0066 1420     		movs	r0, #20
 142 0068 FFF7FEFF 		bl	test_printn
 143              	.LVL18:
 144              		.loc 1 666 0
 145 006c 2046     		mov	r0, r4
 146 006e FFF7FEFF 		bl	test_println
 147              	.LVL19:
 148              		.loc 1 669 0
 149 0072 1A48     		ldr	r0, .L5+28
 150 0074 FFF7FEFF 		bl	test_print
 151              	.LVL20:
 152              		.loc 1 670 0
 153 0078 1020     		movs	r0, #16
 154 007a FFF7FEFF 		bl	test_printn
 155              	.LVL21:
 156              		.loc 1 671 0
 157 007e 2046     		mov	r0, r4
 158 0080 FFF7FEFF 		bl	test_println
 159              	.LVL22:
 160              		.loc 1 674 0
 161 0084 1648     		ldr	r0, .L5+32
 162 0086 FFF7FEFF 		bl	test_print
 163              	.LVL23:
 164              		.loc 1 675 0
 165 008a 0820     		movs	r0, #8
ARM GAS  C:\Users\jo\AppData\Local\Temp\ccuVAaqe.s 			page 4


 166 008c FFF7FEFF 		bl	test_printn
 167              	.LVL24:
 168              		.loc 1 676 0
 169 0090 2046     		mov	r0, r4
 170 0092 FFF7FEFF 		bl	test_println
 171              	.LVL25:
 172              		.loc 1 679 0
 173 0096 1348     		ldr	r0, .L5+36
 174 0098 FFF7FEFF 		bl	test_print
 175              	.LVL26:
 176              		.loc 1 680 0
 177 009c 2420     		movs	r0, #36
 178 009e FFF7FEFF 		bl	test_printn
 179              	.LVL27:
 180              		.loc 1 681 0
 181 00a2 2046     		mov	r0, r4
 182 00a4 FFF7FEFF 		bl	test_println
 183              	.LVL28:
 184              		.loc 1 684 0
 185 00a8 0F48     		ldr	r0, .L5+40
 186 00aa FFF7FEFF 		bl	test_print
 187              	.LVL29:
 188              		.loc 1 685 0
 189 00ae 2820     		movs	r0, #40
 190 00b0 FFF7FEFF 		bl	test_printn
 191              	.LVL30:
 192              		.loc 1 686 0
 193 00b4 2046     		mov	r0, r4
 194              		.loc 1 688 0
 195 00b6 BDE81040 		pop	{r4, lr}
 196              		.cfi_restore 14
 197              		.cfi_restore 4
 198              		.cfi_def_cfa_offset 0
 199              		.loc 1 686 0
 200 00ba FFF7FEBF 		b	test_println
 201              	.LVL31:
 202              	.L6:
 203 00be 00BF     		.align	2
 204              	.L5:
 205 00c0 00000000 		.word	.LC0
 206 00c4 10000000 		.word	.LC1
 207 00c8 18000000 		.word	.LC2
 208 00cc 28000000 		.word	.LC3
 209 00d0 38000000 		.word	.LC4
 210 00d4 48000000 		.word	.LC5
 211 00d8 58000000 		.word	.LC6
 212 00dc 68000000 		.word	.LC7
 213 00e0 78000000 		.word	.LC8
 214 00e4 88000000 		.word	.LC9
 215 00e8 98000000 		.word	.LC10
 216              		.cfi_endproc
 217              	.LFE248:
 218              		.size	bmk13_execute, .-bmk13_execute
 219 00ec AFF30080 		.section	.text.thread2,"ax",%progbits
 220              		.align	2
 221              		.p2align 4,,15
 222              		.thumb
ARM GAS  C:\Users\jo\AppData\Local\Temp\ccuVAaqe.s 			page 5


 223              		.thumb_func
 224              		.type	thread2, %function
 225              	thread2:
 226              	.LFB227:
 227              		.loc 1 72 0
 228              		.cfi_startproc
 229              		@ args = 0, pretend = 0, frame = 0
 230              		@ frame_needed = 0, uses_anonymous_args = 0
 231              	.LVL32:
 232 0000 10B5     		push	{r4, lr}
 233              		.cfi_def_cfa_offset 8
 234              		.cfi_offset 4, -8
 235              		.cfi_offset 14, -4
 236              	.LVL33:
 237              	.L8:
 238              		.loc 1 78 0 discriminator 1
 239 0002 FFF7FEFF 		bl	chMsgWait
 240              	.LVL34:
 241 0006 446B     		ldr	r4, [r0, #52]
 242              	.LVL35:
 243              		.loc 1 80 0 discriminator 1
 244 0008 2146     		mov	r1, r4
 245 000a FFF7FEFF 		bl	chMsgRelease
 246              	.LVL36:
 247              		.loc 1 81 0 discriminator 1
 248 000e 002C     		cmp	r4, #0
 249 0010 F7D1     		bne	.L8
 250              		.loc 1 83 0
 251 0012 2046     		mov	r0, r4
 252 0014 10BD     		pop	{r4, pc}
 253              		.cfi_endproc
 254              	.LFE227:
 255              		.size	thread2, .-thread2
 256 0016 00BFAFF3 		.section	.text.bmk6_execute,"ax",%progbits
 256      0080AFF3 
 256      0080
 257              		.align	2
 258              		.p2align 4,,15
 259              		.thumb
 260              		.thumb_func
 261              		.type	bmk6_execute, %function
 262              	bmk6_execute:
 263              	.LFB235:
 264              		.loc 1 309 0
 265              		.cfi_startproc
 266              		@ args = 0, pretend = 0, frame = 0
 267              		@ frame_needed = 0, uses_anonymous_args = 0
 268              	.LVL37:
 269 0000 2DE9F041 		push	{r4, r5, r6, r7, r8, lr}
 270              		.cfi_def_cfa_offset 24
 271              		.cfi_offset 4, -24
 272              		.cfi_offset 5, -20
 273              		.cfi_offset 6, -16
 274              		.cfi_offset 7, -12
 275              		.cfi_offset 8, -8
 276              		.cfi_offset 14, -4
 277              	.LBB143:
ARM GAS  C:\Users\jo\AppData\Local\Temp\ccuVAaqe.s 			page 6


 278              	.LBB144:
 279              	.LBB145:
 280              	.LBB146:
 281              		.file 2 "../../../os/rt/include/chthreads.h"
 282              		.loc 2 179 0
 283 0004 144B     		ldr	r3, .L17
 284              	.LBE146:
 285              	.LBE145:
 286              	.LBE144:
 287              	.LBE143:
 288              		.loc 1 312 0
 289 0006 154A     		ldr	r2, .L17+4
 290              	.LBB148:
 291              	.LBB147:
 292              		.loc 2 192 0
 293 0008 9B69     		ldr	r3, [r3, #24]
 294              	.LBE147:
 295              	.LBE148:
 296              		.loc 1 312 0
 297 000a D2F80080 		ldr	r8, [r2]
 298              	.LVL38:
 299              		.loc 1 313 0
 300 000e 9D68     		ldr	r5, [r3, #8]
 301 0010 134F     		ldr	r7, .L17+8
 302              		.loc 1 309 0
 303 0012 82B0     		sub	sp, sp, #8
 304              		.cfi_def_cfa_offset 32
 305              		.loc 1 314 0
 306 0014 FFF7FEFF 		bl	test_wait_tick
 307              	.LVL39:
 308              		.loc 1 315 0
 309 0018 4FF47A70 		mov	r0, #1000
 310 001c FFF7FEFF 		bl	test_start_timer
 311              	.LVL40:
 312              		.loc 1 311 0
 313 0020 0024     		movs	r4, #0
 314              		.loc 1 313 0
 315 0022 0135     		adds	r5, r5, #1
 316              	.LVL41:
 317              		.loc 1 317 0
 318 0024 2646     		mov	r6, r4
 319              	.LVL42:
 320              	.L13:
 321              		.loc 1 317 0 is_stmt 0 discriminator 1
 322 0026 0F4B     		ldr	r3, .L17+12
 323 0028 0096     		str	r6, [sp]
 324 002a 4046     		mov	r0, r8
 325 002c 4FF4B471 		mov	r1, #360
 326 0030 2A46     		mov	r2, r5
 327 0032 FFF7FEFF 		bl	chThdCreateStatic
 328              	.LVL43:
 329              		.loc 1 322 0 is_stmt 1 discriminator 1
 330 0036 3B78     		ldrb	r3, [r7]	@ zero_extendqisi2
 331              		.loc 1 318 0 discriminator 1
 332 0038 0134     		adds	r4, r4, #1
 333              	.LVL44:
 334              		.loc 1 322 0 discriminator 1
ARM GAS  C:\Users\jo\AppData\Local\Temp\ccuVAaqe.s 			page 7


 335 003a 002B     		cmp	r3, #0
 336 003c F3D0     		beq	.L13
 337              		.loc 1 323 0
 338 003e 0A48     		ldr	r0, .L17+16
 339 0040 FFF7FEFF 		bl	test_print
 340              	.LVL45:
 341              		.loc 1 324 0
 342 0044 2046     		mov	r0, r4
 343 0046 FFF7FEFF 		bl	test_printn
 344              	.LVL46:
 345              		.loc 1 325 0
 346 004a 0848     		ldr	r0, .L17+20
 347              		.loc 1 326 0
 348 004c 02B0     		add	sp, sp, #8
 349              		.cfi_def_cfa_offset 24
 350              		@ sp needed
 351 004e BDE8F041 		pop	{r4, r5, r6, r7, r8, lr}
 352              		.cfi_restore 14
 353              		.cfi_restore 8
 354              		.cfi_restore 7
 355              		.cfi_restore 6
 356              		.cfi_restore 5
 357              		.cfi_restore 4
 358              		.cfi_def_cfa_offset 0
 359              	.LVL47:
 360              		.loc 1 325 0
 361 0052 FFF7FEBF 		b	test_println
 362              	.LVL48:
 363              	.L18:
 364 0056 00BF     		.align	2
 365              	.L17:
 366 0058 00000000 		.word	ch
 367 005c 00000000 		.word	wa
 368 0060 00000000 		.word	test_timer_done
 369 0064 00000000 		.word	thread1
 370 0068 A8000000 		.word	.LC11
 371 006c B8000000 		.word	.LC12
 372              		.cfi_endproc
 373              	.LFE235:
 374              		.size	bmk6_execute, .-bmk6_execute
 375              		.section	.text.msg_loop_test,"ax",%progbits
 376              		.align	2
 377              		.p2align 4,,15
 378              		.thumb
 379              		.thumb_func
 380              		.type	msg_loop_test, %function
 381              	msg_loop_test:
 382              	.LFB228:
 383              		.loc 1 88 0
 384              		.cfi_startproc
 385              		@ args = 0, pretend = 0, frame = 0
 386              		@ frame_needed = 0, uses_anonymous_args = 0
 387              	.LVL49:
 388 0000 70B5     		push	{r4, r5, r6, lr}
 389              		.cfi_def_cfa_offset 16
 390              		.cfi_offset 4, -16
 391              		.cfi_offset 5, -12
ARM GAS  C:\Users\jo\AppData\Local\Temp\ccuVAaqe.s 			page 8


 392              		.cfi_offset 6, -8
 393              		.cfi_offset 14, -4
 394              		.loc 1 88 0
 395 0002 0546     		mov	r5, r0
 396              		.loc 1 91 0
 397 0004 FFF7FEFF 		bl	test_wait_tick
 398              	.LVL50:
 399              		.loc 1 92 0
 400 0008 4FF47A70 		mov	r0, #1000
 401 000c FFF7FEFF 		bl	test_start_timer
 402              	.LVL51:
 403 0010 074E     		ldr	r6, .L24
 404              		.loc 1 90 0
 405 0012 0024     		movs	r4, #0
 406              	.LVL52:
 407              	.L20:
 408              		.loc 1 94 0 discriminator 1
 409 0014 2846     		mov	r0, r5
 410 0016 0121     		movs	r1, #1
 411 0018 FFF7FEFF 		bl	chMsgSend
 412              	.LVL53:
 413              		.loc 1 99 0 discriminator 1
 414 001c 3378     		ldrb	r3, [r6]	@ zero_extendqisi2
 415              		.loc 1 95 0 discriminator 1
 416 001e 0134     		adds	r4, r4, #1
 417              	.LVL54:
 418              		.loc 1 99 0 discriminator 1
 419 0020 002B     		cmp	r3, #0
 420 0022 F7D0     		beq	.L20
 421              		.loc 1 100 0
 422 0024 2846     		mov	r0, r5
 423 0026 0021     		movs	r1, #0
 424 0028 FFF7FEFF 		bl	chMsgSend
 425              	.LVL55:
 426              		.loc 1 102 0
 427 002c 2046     		mov	r0, r4
 428 002e 70BD     		pop	{r4, r5, r6, pc}
 429              	.LVL56:
 430              	.L25:
 431              		.align	2
 432              	.L24:
 433 0030 00000000 		.word	test_timer_done
 434              		.cfi_endproc
 435              	.LFE228:
 436              		.size	msg_loop_test, .-msg_loop_test
 437 0034 AFF30080 		.section	.text.bmk1_execute,"ax",%progbits
 437      AFF30080 
 437      AFF30080 
 438              		.align	2
 439              		.p2align 4,,15
 440              		.thumb
 441              		.thumb_func
 442              		.type	bmk1_execute, %function
 443              	bmk1_execute:
 444              	.LFB229:
 445              		.loc 1 113 0
 446              		.cfi_startproc
ARM GAS  C:\Users\jo\AppData\Local\Temp\ccuVAaqe.s 			page 9


 447              		@ args = 0, pretend = 0, frame = 0
 448              		@ frame_needed = 0, uses_anonymous_args = 0
 449 0000 10B5     		push	{r4, lr}
 450              		.cfi_def_cfa_offset 8
 451              		.cfi_offset 4, -8
 452              		.cfi_offset 14, -4
 453              	.LBB149:
 454              	.LBB150:
 455              	.LBB151:
 456              	.LBB152:
 457              		.loc 2 179 0
 458 0002 134B     		ldr	r3, .L28
 459              	.LBE152:
 460              	.LBE151:
 461              	.LBE150:
 462              	.LBE149:
 463              		.loc 1 116 0
 464 0004 134A     		ldr	r2, .L28+4
 465              	.LBB154:
 466              	.LBB153:
 467              		.loc 2 192 0
 468 0006 9B69     		ldr	r3, [r3, #24]
 469              	.LBE153:
 470              	.LBE154:
 471              		.loc 1 116 0
 472 0008 1068     		ldr	r0, [r2]
 473 000a 9A68     		ldr	r2, [r3, #8]
 474 000c 124B     		ldr	r3, .L28+8
 475              		.loc 1 113 0
 476 000e 82B0     		sub	sp, sp, #8
 477              		.cfi_def_cfa_offset 16
 478              		.loc 1 116 0
 479 0010 0021     		movs	r1, #0
 480 0012 013A     		subs	r2, r2, #1
 481 0014 0091     		str	r1, [sp]
 482 0016 4FF4B471 		mov	r1, #360
 483 001a FFF7FEFF 		bl	chThdCreateStatic
 484              	.LVL57:
 485 001e 0F4B     		ldr	r3, .L28+12
 486 0020 1860     		str	r0, [r3]
 487              		.loc 1 117 0
 488 0022 FFF7FEFF 		bl	msg_loop_test
 489              	.LVL58:
 490 0026 0446     		mov	r4, r0
 491              	.LVL59:
 492              		.loc 1 118 0
 493 0028 FFF7FEFF 		bl	test_wait_threads
 494              	.LVL60:
 495              		.loc 1 119 0
 496 002c 0C48     		ldr	r0, .L28+16
 497 002e FFF7FEFF 		bl	test_print
 498              	.LVL61:
 499              		.loc 1 120 0
 500 0032 2046     		mov	r0, r4
 501 0034 FFF7FEFF 		bl	test_printn
 502              	.LVL62:
 503              		.loc 1 121 0
ARM GAS  C:\Users\jo\AppData\Local\Temp\ccuVAaqe.s 			page 10


 504 0038 0A48     		ldr	r0, .L28+20
 505 003a FFF7FEFF 		bl	test_print
 506              	.LVL63:
 507              		.loc 1 122 0
 508 003e 6000     		lsls	r0, r4, #1
 509 0040 FFF7FEFF 		bl	test_printn
 510              	.LVL64:
 511              		.loc 1 123 0
 512 0044 0848     		ldr	r0, .L28+24
 513              		.loc 1 124 0
 514 0046 02B0     		add	sp, sp, #8
 515              		.cfi_def_cfa_offset 8
 516              		@ sp needed
 517 0048 BDE81040 		pop	{r4, lr}
 518              		.cfi_restore 14
 519              		.cfi_restore 4
 520              		.cfi_def_cfa_offset 0
 521              	.LVL65:
 522              		.loc 1 123 0
 523 004c FFF7FEBF 		b	test_println
 524              	.LVL66:
 525              	.L29:
 526              		.align	2
 527              	.L28:
 528 0050 00000000 		.word	ch
 529 0054 00000000 		.word	wa
 530 0058 00000000 		.word	thread2
 531 005c 00000000 		.word	threads
 532 0060 A8000000 		.word	.LC11
 533 0064 C4000000 		.word	.LC13
 534 0068 D0000000 		.word	.LC14
 535              		.cfi_endproc
 536              	.LFE229:
 537              		.size	bmk1_execute, .-bmk1_execute
 538 006c AFF30080 		.section	.text.bmk2_execute,"ax",%progbits
 539              		.align	2
 540              		.p2align 4,,15
 541              		.thumb
 542              		.thumb_func
 543              		.type	bmk2_execute, %function
 544              	bmk2_execute:
 545              	.LFB230:
 546              		.loc 1 142 0
 547              		.cfi_startproc
 548              		@ args = 0, pretend = 0, frame = 0
 549              		@ frame_needed = 0, uses_anonymous_args = 0
 550 0000 10B5     		push	{r4, lr}
 551              		.cfi_def_cfa_offset 8
 552              		.cfi_offset 4, -8
 553              		.cfi_offset 14, -4
 554              	.LBB155:
 555              	.LBB156:
 556              	.LBB157:
 557              	.LBB158:
 558              		.loc 2 179 0
 559 0002 134B     		ldr	r3, .L32
 560              	.LBE158:
ARM GAS  C:\Users\jo\AppData\Local\Temp\ccuVAaqe.s 			page 11


 561              	.LBE157:
 562              	.LBE156:
 563              	.LBE155:
 564              		.loc 1 145 0
 565 0004 134A     		ldr	r2, .L32+4
 566              	.LBB160:
 567              	.LBB159:
 568              		.loc 2 192 0
 569 0006 9B69     		ldr	r3, [r3, #24]
 570              	.LBE159:
 571              	.LBE160:
 572              		.loc 1 145 0
 573 0008 1068     		ldr	r0, [r2]
 574 000a 9A68     		ldr	r2, [r3, #8]
 575 000c 124B     		ldr	r3, .L32+8
 576              		.loc 1 142 0
 577 000e 82B0     		sub	sp, sp, #8
 578              		.cfi_def_cfa_offset 16
 579              		.loc 1 145 0
 580 0010 0021     		movs	r1, #0
 581 0012 0132     		adds	r2, r2, #1
 582 0014 0091     		str	r1, [sp]
 583 0016 4FF4B471 		mov	r1, #360
 584 001a FFF7FEFF 		bl	chThdCreateStatic
 585              	.LVL67:
 586 001e 0F4B     		ldr	r3, .L32+12
 587 0020 1860     		str	r0, [r3]
 588              		.loc 1 146 0
 589 0022 FFF7FEFF 		bl	msg_loop_test
 590              	.LVL68:
 591 0026 0446     		mov	r4, r0
 592              	.LVL69:
 593              		.loc 1 147 0
 594 0028 FFF7FEFF 		bl	test_wait_threads
 595              	.LVL70:
 596              		.loc 1 148 0
 597 002c 0C48     		ldr	r0, .L32+16
 598 002e FFF7FEFF 		bl	test_print
 599              	.LVL71:
 600              		.loc 1 149 0
 601 0032 2046     		mov	r0, r4
 602 0034 FFF7FEFF 		bl	test_printn
 603              	.LVL72:
 604              		.loc 1 150 0
 605 0038 0A48     		ldr	r0, .L32+20
 606 003a FFF7FEFF 		bl	test_print
 607              	.LVL73:
 608              		.loc 1 151 0
 609 003e 6000     		lsls	r0, r4, #1
 610 0040 FFF7FEFF 		bl	test_printn
 611              	.LVL74:
 612              		.loc 1 152 0
 613 0044 0848     		ldr	r0, .L32+24
 614              		.loc 1 153 0
 615 0046 02B0     		add	sp, sp, #8
 616              		.cfi_def_cfa_offset 8
 617              		@ sp needed
ARM GAS  C:\Users\jo\AppData\Local\Temp\ccuVAaqe.s 			page 12


 618 0048 BDE81040 		pop	{r4, lr}
 619              		.cfi_restore 14
 620              		.cfi_restore 4
 621              		.cfi_def_cfa_offset 0
 622              	.LVL75:
 623              		.loc 1 152 0
 624 004c FFF7FEBF 		b	test_println
 625              	.LVL76:
 626              	.L33:
 627              		.align	2
 628              	.L32:
 629 0050 00000000 		.word	ch
 630 0054 00000000 		.word	wa
 631 0058 00000000 		.word	thread2
 632 005c 00000000 		.word	threads
 633 0060 A8000000 		.word	.LC11
 634 0064 C4000000 		.word	.LC13
 635 0068 D0000000 		.word	.LC14
 636              		.cfi_endproc
 637              	.LFE230:
 638              		.size	bmk2_execute, .-bmk2_execute
 639 006c AFF30080 		.section	.text.bmk3_execute,"ax",%progbits
 640              		.align	2
 641              		.p2align 4,,15
 642              		.thumb
 643              		.thumb_func
 644              		.type	bmk3_execute, %function
 645              	bmk3_execute:
 646              	.LFB231:
 647              		.loc 1 172 0
 648              		.cfi_startproc
 649              		@ args = 0, pretend = 0, frame = 0
 650              		@ frame_needed = 0, uses_anonymous_args = 0
 651 0000 2DE9F041 		push	{r4, r5, r6, r7, r8, lr}
 652              		.cfi_def_cfa_offset 24
 653              		.cfi_offset 4, -24
 654              		.cfi_offset 5, -20
 655              		.cfi_offset 6, -16
 656              		.cfi_offset 7, -12
 657              		.cfi_offset 8, -8
 658              		.cfi_offset 14, -4
 659              	.LBB161:
 660              	.LBB162:
 661              	.LBB163:
 662              	.LBB164:
 663              		.loc 2 179 0
 664 0004 2C4F     		ldr	r7, .L36
 665              	.LBE164:
 666              	.LBE163:
 667              	.LBE162:
 668              	.LBE161:
 669              		.loc 1 175 0
 670 0006 2D4E     		ldr	r6, .L36+4
 671              	.LBB166:
 672              	.LBB165:
 673              		.loc 2 192 0
 674 0008 BB69     		ldr	r3, [r7, #24]
ARM GAS  C:\Users\jo\AppData\Local\Temp\ccuVAaqe.s 			page 13


 675              	.LBE165:
 676              	.LBE166:
 677              		.loc 1 175 0
 678 000a 3068     		ldr	r0, [r6]
 679 000c 9A68     		ldr	r2, [r3, #8]
 680 000e 2C4B     		ldr	r3, .L36+8
 681 0010 2C4C     		ldr	r4, .L36+12
 682              		.loc 1 176 0
 683 0012 DFF8C080 		ldr	r8, .L36+28
 684              		.loc 1 172 0
 685 0016 82B0     		sub	sp, sp, #8
 686              		.cfi_def_cfa_offset 32
 687              		.loc 1 175 0
 688 0018 0025     		movs	r5, #0
 689 001a 0132     		adds	r2, r2, #1
 690 001c 0095     		str	r5, [sp]
 691 001e 4FF4B471 		mov	r1, #360
 692 0022 FFF7FEFF 		bl	chThdCreateStatic
 693              	.LVL77:
 694              	.LBB167:
 695              	.LBB168:
 696              		.loc 2 192 0
 697 0026 BA69     		ldr	r2, [r7, #24]
 698              	.LBE168:
 699              	.LBE167:
 700              		.loc 1 176 0
 701 0028 7368     		ldr	r3, [r6, #4]
 702 002a 9268     		ldr	r2, [r2, #8]
 703              		.loc 1 175 0
 704 002c 2060     		str	r0, [r4]
 705              		.loc 1 176 0
 706 002e 023A     		subs	r2, r2, #2
 707 0030 0095     		str	r5, [sp]
 708 0032 1846     		mov	r0, r3
 709 0034 4FF4B471 		mov	r1, #360
 710 0038 4346     		mov	r3, r8
 711 003a FFF7FEFF 		bl	chThdCreateStatic
 712              	.LVL78:
 713              	.LBB169:
 714              	.LBB170:
 715              		.loc 2 192 0
 716 003e BA69     		ldr	r2, [r7, #24]
 717              	.LBE170:
 718              	.LBE169:
 719              		.loc 1 177 0
 720 0040 B368     		ldr	r3, [r6, #8]
 721 0042 9268     		ldr	r2, [r2, #8]
 722              		.loc 1 176 0
 723 0044 6060     		str	r0, [r4, #4]
 724              		.loc 1 177 0
 725 0046 033A     		subs	r2, r2, #3
 726 0048 0095     		str	r5, [sp]
 727 004a 1846     		mov	r0, r3
 728 004c 4FF4B471 		mov	r1, #360
 729 0050 4346     		mov	r3, r8
 730 0052 FFF7FEFF 		bl	chThdCreateStatic
 731              	.LVL79:
ARM GAS  C:\Users\jo\AppData\Local\Temp\ccuVAaqe.s 			page 14


 732              	.LBB171:
 733              	.LBB172:
 734              		.loc 2 192 0
 735 0056 BA69     		ldr	r2, [r7, #24]
 736              	.LBE172:
 737              	.LBE171:
 738              		.loc 1 178 0
 739 0058 F368     		ldr	r3, [r6, #12]
 740 005a 9268     		ldr	r2, [r2, #8]
 741              		.loc 1 177 0
 742 005c A060     		str	r0, [r4, #8]
 743              		.loc 1 178 0
 744 005e 043A     		subs	r2, r2, #4
 745 0060 0095     		str	r5, [sp]
 746 0062 1846     		mov	r0, r3
 747 0064 4FF4B471 		mov	r1, #360
 748 0068 4346     		mov	r3, r8
 749 006a FFF7FEFF 		bl	chThdCreateStatic
 750              	.LVL80:
 751              	.LBB173:
 752              	.LBB174:
 753              		.loc 2 192 0
 754 006e BA69     		ldr	r2, [r7, #24]
 755              	.LBE174:
 756              	.LBE173:
 757              		.loc 1 179 0
 758 0070 3369     		ldr	r3, [r6, #16]
 759 0072 9268     		ldr	r2, [r2, #8]
 760              		.loc 1 178 0
 761 0074 E060     		str	r0, [r4, #12]
 762              		.loc 1 179 0
 763 0076 053A     		subs	r2, r2, #5
 764 0078 4FF4B471 		mov	r1, #360
 765 007c 1846     		mov	r0, r3
 766 007e 0095     		str	r5, [sp]
 767 0080 4346     		mov	r3, r8
 768 0082 FFF7FEFF 		bl	chThdCreateStatic
 769              	.LVL81:
 770 0086 2061     		str	r0, [r4, #16]
 771              		.loc 1 180 0
 772 0088 2068     		ldr	r0, [r4]
 773 008a FFF7FEFF 		bl	msg_loop_test
 774              	.LVL82:
 775 008e 0446     		mov	r4, r0
 776              	.LVL83:
 777              		.loc 1 181 0
 778 0090 FFF7FEFF 		bl	test_wait_threads
 779              	.LVL84:
 780              		.loc 1 182 0
 781 0094 0C48     		ldr	r0, .L36+16
 782 0096 FFF7FEFF 		bl	test_print
 783              	.LVL85:
 784              		.loc 1 183 0
 785 009a 2046     		mov	r0, r4
 786 009c FFF7FEFF 		bl	test_printn
 787              	.LVL86:
 788              		.loc 1 184 0
ARM GAS  C:\Users\jo\AppData\Local\Temp\ccuVAaqe.s 			page 15


 789 00a0 0A48     		ldr	r0, .L36+20
 790 00a2 FFF7FEFF 		bl	test_print
 791              	.LVL87:
 792              		.loc 1 185 0
 793 00a6 6000     		lsls	r0, r4, #1
 794 00a8 FFF7FEFF 		bl	test_printn
 795              	.LVL88:
 796              		.loc 1 186 0
 797 00ac 0848     		ldr	r0, .L36+24
 798              		.loc 1 187 0
 799 00ae 02B0     		add	sp, sp, #8
 800              		.cfi_def_cfa_offset 24
 801              		@ sp needed
 802 00b0 BDE8F041 		pop	{r4, r5, r6, r7, r8, lr}
 803              		.cfi_restore 14
 804              		.cfi_restore 8
 805              		.cfi_restore 7
 806              		.cfi_restore 6
 807              		.cfi_restore 5
 808              		.cfi_restore 4
 809              		.cfi_def_cfa_offset 0
 810              	.LVL89:
 811              		.loc 1 186 0
 812 00b4 FFF7FEBF 		b	test_println
 813              	.LVL90:
 814              	.L37:
 815              		.align	2
 816              	.L36:
 817 00b8 00000000 		.word	ch
 818 00bc 00000000 		.word	wa
 819 00c0 00000000 		.word	thread2
 820 00c4 00000000 		.word	threads
 821 00c8 A8000000 		.word	.LC11
 822 00cc C4000000 		.word	.LC13
 823 00d0 D0000000 		.word	.LC14
 824 00d4 00000000 		.word	thread1
 825              		.cfi_endproc
 826              	.LFE231:
 827              		.size	bmk3_execute, .-bmk3_execute
 828 00d8 AFF30080 		.section	.text.bmk5_execute,"ax",%progbits
 828      AFF30080 
 829              		.align	2
 830              		.p2align 4,,15
 831              		.thumb
 832              		.thumb_func
 833              		.type	bmk5_execute, %function
 834              	bmk5_execute:
 835              	.LFB234:
 836              		.loc 1 270 0
 837              		.cfi_startproc
 838              		@ args = 0, pretend = 0, frame = 0
 839              		@ frame_needed = 0, uses_anonymous_args = 0
 840              	.LVL91:
 841 0000 2DE9F041 		push	{r4, r5, r6, r7, r8, lr}
 842              		.cfi_def_cfa_offset 24
 843              		.cfi_offset 4, -24
 844              		.cfi_offset 5, -20
ARM GAS  C:\Users\jo\AppData\Local\Temp\ccuVAaqe.s 			page 16


 845              		.cfi_offset 6, -16
 846              		.cfi_offset 7, -12
 847              		.cfi_offset 8, -8
 848              		.cfi_offset 14, -4
 849              	.LBB175:
 850              	.LBB176:
 851              	.LBB177:
 852              	.LBB178:
 853              		.loc 2 179 0
 854 0004 154B     		ldr	r3, .L43
 855              	.LBE178:
 856              	.LBE177:
 857              	.LBE176:
 858              	.LBE175:
 859              		.loc 1 273 0
 860 0006 164A     		ldr	r2, .L43+4
 861              	.LBB180:
 862              	.LBB179:
 863              		.loc 2 192 0
 864 0008 9B69     		ldr	r3, [r3, #24]
 865              	.LBE179:
 866              	.LBE180:
 867              		.loc 1 273 0
 868 000a D2F80080 		ldr	r8, [r2]
 869              	.LVL92:
 870              		.loc 1 274 0
 871 000e 9D68     		ldr	r5, [r3, #8]
 872 0010 144F     		ldr	r7, .L43+8
 873              		.loc 1 270 0
 874 0012 82B0     		sub	sp, sp, #8
 875              		.cfi_def_cfa_offset 32
 876              		.loc 1 275 0
 877 0014 FFF7FEFF 		bl	test_wait_tick
 878              	.LVL93:
 879              		.loc 1 276 0
 880 0018 4FF47A70 		mov	r0, #1000
 881 001c FFF7FEFF 		bl	test_start_timer
 882              	.LVL94:
 883              		.loc 1 272 0
 884 0020 0024     		movs	r4, #0
 885              		.loc 1 274 0
 886 0022 013D     		subs	r5, r5, #1
 887              	.LVL95:
 888              		.loc 1 278 0
 889 0024 2646     		mov	r6, r4
 890              	.LVL96:
 891              	.L39:
 892              		.loc 1 278 0 is_stmt 0 discriminator 1
 893 0026 104B     		ldr	r3, .L43+12
 894 0028 0096     		str	r6, [sp]
 895 002a 4FF4B471 		mov	r1, #360
 896 002e 2A46     		mov	r2, r5
 897 0030 4046     		mov	r0, r8
 898 0032 FFF7FEFF 		bl	chThdCreateStatic
 899              	.LVL97:
 900 0036 FFF7FEFF 		bl	chThdWait
 901              	.LVL98:
ARM GAS  C:\Users\jo\AppData\Local\Temp\ccuVAaqe.s 			page 17


 902              		.loc 1 283 0 is_stmt 1 discriminator 1
 903 003a 3B78     		ldrb	r3, [r7]	@ zero_extendqisi2
 904              		.loc 1 279 0 discriminator 1
 905 003c 0134     		adds	r4, r4, #1
 906              	.LVL99:
 907              		.loc 1 283 0 discriminator 1
 908 003e 002B     		cmp	r3, #0
 909 0040 F1D0     		beq	.L39
 910              		.loc 1 284 0
 911 0042 0A48     		ldr	r0, .L43+16
 912 0044 FFF7FEFF 		bl	test_print
 913              	.LVL100:
 914              		.loc 1 285 0
 915 0048 2046     		mov	r0, r4
 916 004a FFF7FEFF 		bl	test_printn
 917              	.LVL101:
 918              		.loc 1 286 0
 919 004e 0848     		ldr	r0, .L43+20
 920              		.loc 1 287 0
 921 0050 02B0     		add	sp, sp, #8
 922              		.cfi_def_cfa_offset 24
 923              		@ sp needed
 924 0052 BDE8F041 		pop	{r4, r5, r6, r7, r8, lr}
 925              		.cfi_restore 14
 926              		.cfi_restore 8
 927              		.cfi_restore 7
 928              		.cfi_restore 6
 929              		.cfi_restore 5
 930              		.cfi_restore 4
 931              		.cfi_def_cfa_offset 0
 932              	.LVL102:
 933              		.loc 1 286 0
 934 0056 FFF7FEBF 		b	test_println
 935              	.LVL103:
 936              	.L44:
 937 005a 00BF     		.align	2
 938              	.L43:
 939 005c 00000000 		.word	ch
 940 0060 00000000 		.word	wa
 941 0064 00000000 		.word	test_timer_done
 942 0068 00000000 		.word	thread1
 943 006c A8000000 		.word	.LC11
 944 0070 B8000000 		.word	.LC12
 945              		.cfi_endproc
 946              	.LFE234:
 947              		.size	bmk5_execute, .-bmk5_execute
 948 0074 AFF30080 		.section	.text.bmk7_execute,"ax",%progbits
 948      AFF30080 
 948      AFF30080 
 949              		.align	2
 950              		.p2align 4,,15
 951              		.thumb
 952              		.thumb_func
 953              		.type	bmk7_execute, %function
 954              	bmk7_execute:
 955              	.LFB238:
 956              		.loc 1 360 0
ARM GAS  C:\Users\jo\AppData\Local\Temp\ccuVAaqe.s 			page 18


 957              		.cfi_startproc
 958              		@ args = 0, pretend = 0, frame = 0
 959              		@ frame_needed = 0, uses_anonymous_args = 0
 960 0000 2DE9F041 		push	{r4, r5, r6, r7, r8, lr}
 961              		.cfi_def_cfa_offset 24
 962              		.cfi_offset 4, -24
 963              		.cfi_offset 5, -20
 964              		.cfi_offset 6, -16
 965              		.cfi_offset 7, -12
 966              		.cfi_offset 8, -8
 967              		.cfi_offset 14, -4
 968              	.LBB181:
 969              	.LBB182:
 970              	.LBB183:
 971              	.LBB184:
 972              		.loc 2 179 0
 973 0004 DFF80081 		ldr	r8, .L50+32
 974              	.LBE184:
 975              	.LBE183:
 976              	.LBE182:
 977              	.LBE181:
 978              		.loc 1 363 0
 979 0008 374F     		ldr	r7, .L50
 980              	.LBB186:
 981              	.LBB185:
 982              		.loc 2 192 0
 983 000a D8F81830 		ldr	r3, [r8, #24]
 984              	.LBE185:
 985              	.LBE186:
 986              		.loc 1 363 0
 987 000e 3868     		ldr	r0, [r7]
 988 0010 9A68     		ldr	r2, [r3, #8]
 989 0012 364B     		ldr	r3, .L50+4
 990 0014 364E     		ldr	r6, .L50+8
 991 0016 374D     		ldr	r5, .L50+12
 992              		.loc 1 360 0
 993 0018 82B0     		sub	sp, sp, #8
 994              		.cfi_def_cfa_offset 32
 995              		.loc 1 363 0
 996 001a 0024     		movs	r4, #0
 997 001c 0532     		adds	r2, r2, #5
 998 001e 4FF4B471 		mov	r1, #360
 999 0022 0094     		str	r4, [sp]
 1000 0024 FFF7FEFF 		bl	chThdCreateStatic
 1001              	.LVL104:
 1002              	.LBB187:
 1003              	.LBB188:
 1004              		.loc 2 192 0
 1005 0028 D8F81820 		ldr	r2, [r8, #24]
 1006              	.LBE188:
 1007              	.LBE187:
 1008              		.loc 1 364 0
 1009 002c 7B68     		ldr	r3, [r7, #4]
 1010 002e 9268     		ldr	r2, [r2, #8]
 1011              		.loc 1 363 0
 1012 0030 3060     		str	r0, [r6]
 1013              		.loc 1 364 0
ARM GAS  C:\Users\jo\AppData\Local\Temp\ccuVAaqe.s 			page 19


 1014 0032 0432     		adds	r2, r2, #4
 1015 0034 1846     		mov	r0, r3
 1016 0036 4FF4B471 		mov	r1, #360
 1017 003a 2C4B     		ldr	r3, .L50+4
 1018 003c 0094     		str	r4, [sp]
 1019 003e FFF7FEFF 		bl	chThdCreateStatic
 1020              	.LVL105:
 1021              	.LBB189:
 1022              	.LBB190:
 1023              		.loc 2 192 0
 1024 0042 D8F81820 		ldr	r2, [r8, #24]
 1025              	.LBE190:
 1026              	.LBE189:
 1027              		.loc 1 365 0
 1028 0046 BB68     		ldr	r3, [r7, #8]
 1029 0048 9268     		ldr	r2, [r2, #8]
 1030              		.loc 1 364 0
 1031 004a 7060     		str	r0, [r6, #4]
 1032              		.loc 1 365 0
 1033 004c 0332     		adds	r2, r2, #3
 1034 004e 1846     		mov	r0, r3
 1035 0050 4FF4B471 		mov	r1, #360
 1036 0054 254B     		ldr	r3, .L50+4
 1037 0056 0094     		str	r4, [sp]
 1038 0058 FFF7FEFF 		bl	chThdCreateStatic
 1039              	.LVL106:
 1040              	.LBB191:
 1041              	.LBB192:
 1042              		.loc 2 192 0
 1043 005c D8F81820 		ldr	r2, [r8, #24]
 1044              	.LBE192:
 1045              	.LBE191:
 1046              		.loc 1 366 0
 1047 0060 FB68     		ldr	r3, [r7, #12]
 1048 0062 9268     		ldr	r2, [r2, #8]
 1049              		.loc 1 365 0
 1050 0064 B060     		str	r0, [r6, #8]
 1051              		.loc 1 366 0
 1052 0066 0232     		adds	r2, r2, #2
 1053 0068 1846     		mov	r0, r3
 1054 006a 4FF4B471 		mov	r1, #360
 1055 006e 1F4B     		ldr	r3, .L50+4
 1056 0070 0094     		str	r4, [sp]
 1057 0072 FFF7FEFF 		bl	chThdCreateStatic
 1058              	.LVL107:
 1059              	.LBB193:
 1060              	.LBB194:
 1061              		.loc 2 192 0
 1062 0076 D8F81820 		ldr	r2, [r8, #24]
 1063              	.LBE194:
 1064              	.LBE193:
 1065              		.loc 1 367 0
 1066 007a 3B69     		ldr	r3, [r7, #16]
 1067 007c 9268     		ldr	r2, [r2, #8]
 1068              		.loc 1 366 0
 1069 007e F060     		str	r0, [r6, #12]
 1070              		.loc 1 367 0
ARM GAS  C:\Users\jo\AppData\Local\Temp\ccuVAaqe.s 			page 20


 1071 0080 0132     		adds	r2, r2, #1
 1072 0082 1846     		mov	r0, r3
 1073 0084 4FF4B471 		mov	r1, #360
 1074 0088 184B     		ldr	r3, .L50+4
 1075 008a 0094     		str	r4, [sp]
 1076 008c FFF7FEFF 		bl	chThdCreateStatic
 1077              	.LVL108:
 1078 0090 3061     		str	r0, [r6, #16]
 1079              	.LVL109:
 1080              		.loc 1 370 0
 1081 0092 FFF7FEFF 		bl	test_wait_tick
 1082              	.LVL110:
 1083              		.loc 1 371 0
 1084 0096 4FF47A70 		mov	r0, #1000
 1085 009a FFF7FEFF 		bl	test_start_timer
 1086              	.LVL111:
 1087              	.L46:
 1088              		.loc 1 373 0 discriminator 1
 1089 009e 1648     		ldr	r0, .L50+16
 1090 00a0 0021     		movs	r1, #0
 1091 00a2 FFF7FEFF 		bl	chSemReset
 1092              	.LVL112:
 1093              		.loc 1 378 0 discriminator 1
 1094 00a6 2B78     		ldrb	r3, [r5]	@ zero_extendqisi2
 1095              		.loc 1 374 0 discriminator 1
 1096 00a8 0134     		adds	r4, r4, #1
 1097              	.LVL113:
 1098              		.loc 1 378 0 discriminator 1
 1099 00aa 002B     		cmp	r3, #0
 1100 00ac F7D0     		beq	.L46
 1101              		.loc 1 379 0
 1102 00ae FFF7FEFF 		bl	test_terminate_threads
 1103              	.LVL114:
 1104              		.loc 1 380 0
 1105 00b2 0021     		movs	r1, #0
 1106 00b4 1048     		ldr	r0, .L50+16
 1107 00b6 FFF7FEFF 		bl	chSemReset
 1108              	.LVL115:
 1109              		.loc 1 381 0
 1110 00ba FFF7FEFF 		bl	test_wait_threads
 1111              	.LVL116:
 1112              		.loc 1 383 0
 1113 00be 0F48     		ldr	r0, .L50+20
 1114 00c0 FFF7FEFF 		bl	test_print
 1115              	.LVL117:
 1116              		.loc 1 384 0
 1117 00c4 2046     		mov	r0, r4
 1118 00c6 FFF7FEFF 		bl	test_printn
 1119              	.LVL118:
 1120              		.loc 1 385 0
 1121 00ca 0D48     		ldr	r0, .L50+24
 1122 00cc FFF7FEFF 		bl	test_print
 1123              	.LVL119:
 1124              		.loc 1 386 0
 1125 00d0 04EB4400 		add	r0, r4, r4, lsl #1
 1126 00d4 4000     		lsls	r0, r0, #1
 1127 00d6 FFF7FEFF 		bl	test_printn
ARM GAS  C:\Users\jo\AppData\Local\Temp\ccuVAaqe.s 			page 21


 1128              	.LVL120:
 1129              		.loc 1 387 0
 1130 00da 0A48     		ldr	r0, .L50+28
 1131              		.loc 1 388 0
 1132 00dc 02B0     		add	sp, sp, #8
 1133              		.cfi_def_cfa_offset 24
 1134              		@ sp needed
 1135 00de BDE8F041 		pop	{r4, r5, r6, r7, r8, lr}
 1136              		.cfi_restore 14
 1137              		.cfi_restore 8
 1138              		.cfi_restore 7
 1139              		.cfi_restore 6
 1140              		.cfi_restore 5
 1141              		.cfi_restore 4
 1142              		.cfi_def_cfa_offset 0
 1143              	.LVL121:
 1144              		.loc 1 387 0
 1145 00e2 FFF7FEBF 		b	test_println
 1146              	.LVL122:
 1147              	.L51:
 1148 00e6 00BF     		.align	2
 1149              	.L50:
 1150 00e8 00000000 		.word	wa
 1151 00ec 00000000 		.word	thread3
 1152 00f0 00000000 		.word	threads
 1153 00f4 00000000 		.word	test_timer_done
 1154 00f8 00000000 		.word	.LANCHOR0
 1155 00fc A8000000 		.word	.LC11
 1156 0100 DC000000 		.word	.LC15
 1157 0104 D0000000 		.word	.LC14
 1158 0108 00000000 		.word	ch
 1159              		.cfi_endproc
 1160              	.LFE238:
 1161              		.size	bmk7_execute, .-bmk7_execute
 1162 010c AFF30080 		.section	.text.thread3,"ax",%progbits
 1163              		.align	2
 1164              		.p2align 4,,15
 1165              		.thumb
 1166              		.thumb_func
 1167              		.type	thread3, %function
 1168              	thread3:
 1169              	.LFB236:
 1170              		.loc 1 347 0
 1171              		.cfi_startproc
 1172              		@ args = 0, pretend = 0, frame = 0
 1173              		@ frame_needed = 0, uses_anonymous_args = 0
 1174              	.LVL123:
 1175 0000 10B5     		push	{r4, lr}
 1176              		.cfi_def_cfa_offset 8
 1177              		.cfi_offset 4, -8
 1178              		.cfi_offset 14, -4
 1179              	.LBB195:
 1180              	.LBB196:
 1181              	.LBB197:
 1182              	.LBB198:
 1183              		.loc 2 179 0
 1184 0002 084C     		ldr	r4, .L60
ARM GAS  C:\Users\jo\AppData\Local\Temp\ccuVAaqe.s 			page 22


 1185              	.LBE198:
 1186              	.LBE197:
 1187              		.loc 2 236 0
 1188 0004 A369     		ldr	r3, [r4, #24]
 1189 0006 93F82130 		ldrb	r3, [r3, #33]	@ zero_extendqisi2
 1190              	.LBE196:
 1191              	.LBE195:
 1192              		.loc 1 350 0
 1193 000a 5A07     		lsls	r2, r3, #29
 1194 000c 07D4     		bmi	.L58
 1195              	.LVL124:
 1196              	.L53:
 1197              		.loc 1 351 0
 1198 000e 0648     		ldr	r0, .L60+4
 1199 0010 FFF7FEFF 		bl	chSemWait
 1200              	.LVL125:
 1201              	.LBB200:
 1202              	.LBB199:
 1203              		.loc 2 236 0
 1204 0014 A369     		ldr	r3, [r4, #24]
 1205 0016 93F82130 		ldrb	r3, [r3, #33]	@ zero_extendqisi2
 1206              	.LBE199:
 1207              	.LBE200:
 1208              		.loc 1 350 0
 1209 001a 5B07     		lsls	r3, r3, #29
 1210 001c F7D5     		bpl	.L53
 1211              	.L58:
 1212              		.loc 1 353 0
 1213 001e 0020     		movs	r0, #0
 1214 0020 10BD     		pop	{r4, pc}
 1215              	.L61:
 1216 0022 00BF     		.align	2
 1217              	.L60:
 1218 0024 00000000 		.word	ch
 1219 0028 00000000 		.word	.LANCHOR0
 1220              		.cfi_endproc
 1221              	.LFE236:
 1222              		.size	thread3, .-thread3
 1223 002c AFF30080 		.section	.text.bmk7_setup,"ax",%progbits
 1224              		.align	2
 1225              		.p2align 4,,15
 1226              		.thumb
 1227              		.thumb_func
 1228              		.type	bmk7_setup, %function
 1229              	bmk7_setup:
 1230              	.LFB237:
 1231              		.loc 1 355 0
 1232              		.cfi_startproc
 1233              		@ args = 0, pretend = 0, frame = 0
 1234              		@ frame_needed = 0, uses_anonymous_args = 0
 1235              		@ link register save eliminated.
 1236              		.loc 1 357 0
 1237 0000 0148     		ldr	r0, .L63
 1238 0002 0021     		movs	r1, #0
 1239 0004 FFF7FEBF 		b	chSemObjectInit
 1240              	.LVL126:
 1241              	.L64:
ARM GAS  C:\Users\jo\AppData\Local\Temp\ccuVAaqe.s 			page 23


 1242              		.align	2
 1243              	.L63:
 1244 0008 00000000 		.word	.LANCHOR0
 1245              		.cfi_endproc
 1246              	.LFE237:
 1247              		.size	bmk7_setup, .-bmk7_setup
 1248 000c AFF30080 		.section	.text.bmk11_setup,"ax",%progbits
 1249              		.align	2
 1250              		.p2align 4,,15
 1251              		.thumb
 1252              		.thumb_func
 1253              		.type	bmk11_setup, %function
 1254              	bmk11_setup:
 1255              	.LFB244:
 1256              		.loc 1 552 0
 1257              		.cfi_startproc
 1258              		@ args = 0, pretend = 0, frame = 0
 1259              		@ frame_needed = 0, uses_anonymous_args = 0
 1260              		@ link register save eliminated.
 1261              		.loc 1 554 0
 1262 0000 0148     		ldr	r0, .L66
 1263 0002 0121     		movs	r1, #1
 1264 0004 FFF7FEBF 		b	chSemObjectInit
 1265              	.LVL127:
 1266              	.L67:
 1267              		.align	2
 1268              	.L66:
 1269 0008 00000000 		.word	.LANCHOR0
 1270              		.cfi_endproc
 1271              	.LFE244:
 1272              		.size	bmk11_setup, .-bmk11_setup
 1273 000c AFF30080 		.section	.text.bmk8_execute,"ax",%progbits
 1274              		.align	2
 1275              		.p2align 4,,15
 1276              		.thumb
 1277              		.thumb_func
 1278              		.type	bmk8_execute, %function
 1279              	bmk8_execute:
 1280              	.LFB240:
 1281              		.loc 1 423 0
 1282              		.cfi_startproc
 1283              		@ args = 0, pretend = 0, frame = 8
 1284              		@ frame_needed = 0, uses_anonymous_args = 0
 1285 0000 2DE9F041 		push	{r4, r5, r6, r7, r8, lr}
 1286              		.cfi_def_cfa_offset 24
 1287              		.cfi_offset 4, -24
 1288              		.cfi_offset 5, -20
 1289              		.cfi_offset 6, -16
 1290              		.cfi_offset 7, -12
 1291              		.cfi_offset 8, -8
 1292              		.cfi_offset 14, -4
 1293 0004 84B0     		sub	sp, sp, #16
 1294              		.cfi_def_cfa_offset 40
 1295              		.loc 1 426 0
 1296 0006 04AC     		add	r4, sp, #16
 1297              	.LBB201:
 1298              	.LBB202:
ARM GAS  C:\Users\jo\AppData\Local\Temp\ccuVAaqe.s 			page 24


 1299              	.LBB203:
 1300              	.LBB204:
 1301              		.loc 2 179 0
 1302 0008 DFF8CC80 		ldr	r8, .L70+20
 1303              	.LBE204:
 1304              	.LBE203:
 1305              	.LBE202:
 1306              	.LBE201:
 1307              		.loc 1 429 0
 1308 000c 2D4F     		ldr	r7, .L70
 1309 000e 2E4E     		ldr	r6, .L70+4
 1310 0010 2E4D     		ldr	r5, .L70+8
 1311              		.loc 1 426 0
 1312 0012 0023     		movs	r3, #0
 1313 0014 44F8043D 		str	r3, [r4, #-4]!
 1314              		.loc 1 427 0
 1315 0018 FFF7FEFF 		bl	test_wait_tick
 1316              	.LVL128:
 1317              	.LBB206:
 1318              	.LBB205:
 1319              		.loc 2 192 0
 1320 001c D8F81830 		ldr	r3, [r8, #24]
 1321              	.LBE205:
 1322              	.LBE206:
 1323              		.loc 1 429 0
 1324 0020 3868     		ldr	r0, [r7]
 1325 0022 9A68     		ldr	r2, [r3, #8]
 1326 0024 0094     		str	r4, [sp]
 1327 0026 3346     		mov	r3, r6
 1328 0028 013A     		subs	r2, r2, #1
 1329 002a 4FF4B471 		mov	r1, #360
 1330 002e FFF7FEFF 		bl	chThdCreateStatic
 1331              	.LVL129:
 1332              	.LBB207:
 1333              	.LBB208:
 1334              		.loc 2 192 0
 1335 0032 D8F81820 		ldr	r2, [r8, #24]
 1336              	.LBE208:
 1337              	.LBE207:
 1338              		.loc 1 430 0
 1339 0036 7B68     		ldr	r3, [r7, #4]
 1340 0038 9268     		ldr	r2, [r2, #8]
 1341              		.loc 1 429 0
 1342 003a 2860     		str	r0, [r5]
 1343              		.loc 1 430 0
 1344 003c 013A     		subs	r2, r2, #1
 1345 003e 0094     		str	r4, [sp]
 1346 0040 1846     		mov	r0, r3
 1347 0042 4FF4B471 		mov	r1, #360
 1348 0046 3346     		mov	r3, r6
 1349 0048 FFF7FEFF 		bl	chThdCreateStatic
 1350              	.LVL130:
 1351              	.LBB209:
 1352              	.LBB210:
 1353              		.loc 2 192 0
 1354 004c D8F81820 		ldr	r2, [r8, #24]
 1355              	.LBE210:
ARM GAS  C:\Users\jo\AppData\Local\Temp\ccuVAaqe.s 			page 25


 1356              	.LBE209:
 1357              		.loc 1 431 0
 1358 0050 BB68     		ldr	r3, [r7, #8]
 1359 0052 9268     		ldr	r2, [r2, #8]
 1360              		.loc 1 430 0
 1361 0054 6860     		str	r0, [r5, #4]
 1362              		.loc 1 431 0
 1363 0056 013A     		subs	r2, r2, #1
 1364 0058 0094     		str	r4, [sp]
 1365 005a 1846     		mov	r0, r3
 1366 005c 4FF4B471 		mov	r1, #360
 1367 0060 3346     		mov	r3, r6
 1368 0062 FFF7FEFF 		bl	chThdCreateStatic
 1369              	.LVL131:
 1370              	.LBB211:
 1371              	.LBB212:
 1372              		.loc 2 192 0
 1373 0066 D8F81820 		ldr	r2, [r8, #24]
 1374              	.LBE212:
 1375              	.LBE211:
 1376              		.loc 1 432 0
 1377 006a FB68     		ldr	r3, [r7, #12]
 1378 006c 9268     		ldr	r2, [r2, #8]
 1379              		.loc 1 431 0
 1380 006e A860     		str	r0, [r5, #8]
 1381              		.loc 1 432 0
 1382 0070 013A     		subs	r2, r2, #1
 1383 0072 0094     		str	r4, [sp]
 1384 0074 1846     		mov	r0, r3
 1385 0076 4FF4B471 		mov	r1, #360
 1386 007a 3346     		mov	r3, r6
 1387 007c FFF7FEFF 		bl	chThdCreateStatic
 1388              	.LVL132:
 1389              	.LBB213:
 1390              	.LBB214:
 1391              		.loc 2 192 0
 1392 0080 D8F81820 		ldr	r2, [r8, #24]
 1393              	.LBE214:
 1394              	.LBE213:
 1395              		.loc 1 433 0
 1396 0084 3B69     		ldr	r3, [r7, #16]
 1397 0086 9268     		ldr	r2, [r2, #8]
 1398              		.loc 1 432 0
 1399 0088 E860     		str	r0, [r5, #12]
 1400              		.loc 1 433 0
 1401 008a 013A     		subs	r2, r2, #1
 1402 008c 4FF4B471 		mov	r1, #360
 1403 0090 0094     		str	r4, [sp]
 1404 0092 1846     		mov	r0, r3
 1405 0094 3346     		mov	r3, r6
 1406 0096 FFF7FEFF 		bl	chThdCreateStatic
 1407              	.LVL133:
 1408 009a 2861     		str	r0, [r5, #16]
 1409              		.loc 1 435 0
 1410 009c 42F21070 		movw	r0, #10000
 1411 00a0 FFF7FEFF 		bl	chThdSleep
 1412              	.LVL134:
ARM GAS  C:\Users\jo\AppData\Local\Temp\ccuVAaqe.s 			page 26


 1413              		.loc 1 436 0
 1414 00a4 FFF7FEFF 		bl	test_terminate_threads
 1415              	.LVL135:
 1416              		.loc 1 437 0
 1417 00a8 FFF7FEFF 		bl	test_wait_threads
 1418              	.LVL136:
 1419              		.loc 1 439 0
 1420 00ac 0848     		ldr	r0, .L70+12
 1421 00ae FFF7FEFF 		bl	test_print
 1422              	.LVL137:
 1423              		.loc 1 440 0
 1424 00b2 0398     		ldr	r0, [sp, #12]
 1425 00b4 FFF7FEFF 		bl	test_printn
 1426              	.LVL138:
 1427              		.loc 1 441 0
 1428 00b8 0648     		ldr	r0, .L70+16
 1429 00ba FFF7FEFF 		bl	test_println
 1430              	.LVL139:
 1431              		.loc 1 442 0
 1432 00be 04B0     		add	sp, sp, #16
 1433              		.cfi_def_cfa_offset 24
 1434              		@ sp needed
 1435 00c0 BDE8F081 		pop	{r4, r5, r6, r7, r8, pc}
 1436              	.L71:
 1437              		.align	2
 1438              	.L70:
 1439 00c4 00000000 		.word	wa
 1440 00c8 00000000 		.word	thread8
 1441 00cc 00000000 		.word	threads
 1442 00d0 A8000000 		.word	.LC11
 1443 00d4 D0000000 		.word	.LC14
 1444 00d8 00000000 		.word	ch
 1445              		.cfi_endproc
 1446              	.LFE240:
 1447              		.size	bmk8_execute, .-bmk8_execute
 1448 00dc AFF30080 		.section	.text.thread8,"ax",%progbits
 1449              		.align	2
 1450              		.p2align 4,,15
 1451              		.thumb
 1452              		.thumb_func
 1453              		.type	thread8, %function
 1454              	thread8:
 1455              	.LFB239:
 1456              		.loc 1 408 0
 1457              		.cfi_startproc
 1458              		@ args = 0, pretend = 0, frame = 0
 1459              		@ frame_needed = 0, uses_anonymous_args = 0
 1460              	.LVL140:
 1461 0000 38B5     		push	{r3, r4, r5, lr}
 1462              		.cfi_def_cfa_offset 16
 1463              		.cfi_offset 3, -16
 1464              		.cfi_offset 4, -12
 1465              		.cfi_offset 5, -8
 1466              		.cfi_offset 14, -4
 1467 0002 0A4D     		ldr	r5, .L77
 1468              		.loc 1 408 0
 1469 0004 0446     		mov	r4, r0
ARM GAS  C:\Users\jo\AppData\Local\Temp\ccuVAaqe.s 			page 27


 1470              	.LVL141:
 1471              	.L73:
 1472              		.loc 1 411 0 discriminator 1
 1473 0006 FFF7FEFF 		bl	chThdYield
 1474              	.LVL142:
 1475              		.loc 1 412 0 discriminator 1
 1476 000a FFF7FEFF 		bl	chThdYield
 1477              	.LVL143:
 1478              		.loc 1 413 0 discriminator 1
 1479 000e FFF7FEFF 		bl	chThdYield
 1480              	.LVL144:
 1481              		.loc 1 414 0 discriminator 1
 1482 0012 FFF7FEFF 		bl	chThdYield
 1483              	.LVL145:
 1484              		.loc 1 415 0 discriminator 1
 1485 0016 2368     		ldr	r3, [r4]
 1486              	.LBB215:
 1487              	.LBB216:
 1488              		.loc 2 236 0 discriminator 1
 1489 0018 AA69     		ldr	r2, [r5, #24]
 1490              	.LBE216:
 1491              	.LBE215:
 1492              		.loc 1 415 0 discriminator 1
 1493 001a 0433     		adds	r3, r3, #4
 1494 001c 2360     		str	r3, [r4]
 1495              	.LBB218:
 1496              	.LBB217:
 1497              		.loc 2 236 0 discriminator 1
 1498 001e 92F82130 		ldrb	r3, [r2, #33]	@ zero_extendqisi2
 1499              	.LBE217:
 1500              	.LBE218:
 1501              		.loc 1 419 0 discriminator 1
 1502 0022 5B07     		lsls	r3, r3, #29
 1503 0024 EFD5     		bpl	.L73
 1504              		.loc 1 421 0
 1505 0026 0020     		movs	r0, #0
 1506 0028 38BD     		pop	{r3, r4, r5, pc}
 1507              	.LVL146:
 1508              	.L78:
 1509 002a 00BF     		.align	2
 1510              	.L77:
 1511 002c 00000000 		.word	ch
 1512              		.cfi_endproc
 1513              	.LFE239:
 1514              		.size	thread8, .-thread8
 1515              		.section	.text.bmk11_execute,"ax",%progbits
 1516              		.align	2
 1517              		.p2align 4,,15
 1518              		.thumb
 1519              		.thumb_func
 1520              		.type	bmk11_execute, %function
 1521              	bmk11_execute:
 1522              	.LFB245:
 1523              		.loc 1 557 0
 1524              		.cfi_startproc
 1525              		@ args = 0, pretend = 0, frame = 0
 1526              		@ frame_needed = 0, uses_anonymous_args = 0
ARM GAS  C:\Users\jo\AppData\Local\Temp\ccuVAaqe.s 			page 28


 1527              	.LVL147:
 1528 0000 38B5     		push	{r3, r4, r5, lr}
 1529              		.cfi_def_cfa_offset 16
 1530              		.cfi_offset 3, -16
 1531              		.cfi_offset 4, -12
 1532              		.cfi_offset 5, -8
 1533              		.cfi_offset 14, -4
 1534              		.loc 1 560 0
 1535 0002 FFF7FEFF 		bl	test_wait_tick
 1536              	.LVL148:
 1537              		.loc 1 561 0
 1538 0006 4FF47A70 		mov	r0, #1000
 1539 000a FFF7FEFF 		bl	test_start_timer
 1540              	.LVL149:
 1541 000e 144D     		ldr	r5, .L84
 1542              		.loc 1 558 0
 1543 0010 0024     		movs	r4, #0
 1544              	.LVL150:
 1545              	.L80:
 1546              		.loc 1 563 0 discriminator 1
 1547 0012 1448     		ldr	r0, .L84+4
 1548 0014 FFF7FEFF 		bl	chSemWait
 1549              	.LVL151:
 1550              		.loc 1 564 0 discriminator 1
 1551 0018 1248     		ldr	r0, .L84+4
 1552 001a FFF7FEFF 		bl	chSemSignal
 1553              	.LVL152:
 1554              		.loc 1 565 0 discriminator 1
 1555 001e 1148     		ldr	r0, .L84+4
 1556 0020 FFF7FEFF 		bl	chSemWait
 1557              	.LVL153:
 1558              		.loc 1 566 0 discriminator 1
 1559 0024 0F48     		ldr	r0, .L84+4
 1560 0026 FFF7FEFF 		bl	chSemSignal
 1561              	.LVL154:
 1562              		.loc 1 567 0 discriminator 1
 1563 002a 0E48     		ldr	r0, .L84+4
 1564 002c FFF7FEFF 		bl	chSemWait
 1565              	.LVL155:
 1566              		.loc 1 568 0 discriminator 1
 1567 0030 0C48     		ldr	r0, .L84+4
 1568 0032 FFF7FEFF 		bl	chSemSignal
 1569              	.LVL156:
 1570              		.loc 1 569 0 discriminator 1
 1571 0036 0B48     		ldr	r0, .L84+4
 1572 0038 FFF7FEFF 		bl	chSemWait
 1573              	.LVL157:
 1574              		.loc 1 570 0 discriminator 1
 1575 003c 0948     		ldr	r0, .L84+4
 1576 003e FFF7FEFF 		bl	chSemSignal
 1577              	.LVL158:
 1578              		.loc 1 575 0 discriminator 1
 1579 0042 2B78     		ldrb	r3, [r5]	@ zero_extendqisi2
 1580              		.loc 1 571 0 discriminator 1
 1581 0044 0134     		adds	r4, r4, #1
 1582              	.LVL159:
 1583              		.loc 1 575 0 discriminator 1
ARM GAS  C:\Users\jo\AppData\Local\Temp\ccuVAaqe.s 			page 29


 1584 0046 002B     		cmp	r3, #0
 1585 0048 E3D0     		beq	.L80
 1586              		.loc 1 576 0
 1587 004a 0748     		ldr	r0, .L84+8
 1588 004c FFF7FEFF 		bl	test_print
 1589              	.LVL160:
 1590              		.loc 1 577 0
 1591 0050 A000     		lsls	r0, r4, #2
 1592 0052 FFF7FEFF 		bl	test_printn
 1593              	.LVL161:
 1594              		.loc 1 578 0
 1595 0056 0548     		ldr	r0, .L84+12
 1596              		.loc 1 579 0
 1597 0058 BDE83840 		pop	{r3, r4, r5, lr}
 1598              		.cfi_restore 14
 1599              		.cfi_restore 5
 1600              		.cfi_restore 4
 1601              		.cfi_restore 3
 1602              		.cfi_def_cfa_offset 0
 1603              	.LVL162:
 1604              		.loc 1 578 0
 1605 005c FFF7FEBF 		b	test_println
 1606              	.LVL163:
 1607              	.L85:
 1608              		.align	2
 1609              	.L84:
 1610 0060 00000000 		.word	test_timer_done
 1611 0064 00000000 		.word	.LANCHOR0
 1612 0068 A8000000 		.word	.LC11
 1613 006c F0000000 		.word	.LC16
 1614              		.cfi_endproc
 1615              	.LFE245:
 1616              		.size	bmk11_execute, .-bmk11_execute
 1617              		.section	.text.bmk12_execute,"ax",%progbits
 1618              		.align	2
 1619              		.p2align 4,,15
 1620              		.thumb
 1621              		.thumb_func
 1622              		.type	bmk12_execute, %function
 1623              	bmk12_execute:
 1624              	.LFB247:
 1625              		.loc 1 605 0
 1626              		.cfi_startproc
 1627              		@ args = 0, pretend = 0, frame = 0
 1628              		@ frame_needed = 0, uses_anonymous_args = 0
 1629              	.LVL164:
 1630 0000 38B5     		push	{r3, r4, r5, lr}
 1631              		.cfi_def_cfa_offset 16
 1632              		.cfi_offset 3, -16
 1633              		.cfi_offset 4, -12
 1634              		.cfi_offset 5, -8
 1635              		.cfi_offset 14, -4
 1636              		.loc 1 608 0
 1637 0002 FFF7FEFF 		bl	test_wait_tick
 1638              	.LVL165:
 1639              		.loc 1 609 0
 1640 0006 4FF47A70 		mov	r0, #1000
ARM GAS  C:\Users\jo\AppData\Local\Temp\ccuVAaqe.s 			page 30


 1641 000a FFF7FEFF 		bl	test_start_timer
 1642              	.LVL166:
 1643 000e 144D     		ldr	r5, .L91
 1644              		.loc 1 606 0
 1645 0010 0024     		movs	r4, #0
 1646              	.LVL167:
 1647              	.L87:
 1648              		.loc 1 611 0 discriminator 1
 1649 0012 1448     		ldr	r0, .L91+4
 1650 0014 FFF7FEFF 		bl	chMtxLock
 1651              	.LVL168:
 1652              		.loc 1 612 0 discriminator 1
 1653 0018 1248     		ldr	r0, .L91+4
 1654 001a FFF7FEFF 		bl	chMtxUnlock
 1655              	.LVL169:
 1656              		.loc 1 613 0 discriminator 1
 1657 001e 1148     		ldr	r0, .L91+4
 1658 0020 FFF7FEFF 		bl	chMtxLock
 1659              	.LVL170:
 1660              		.loc 1 614 0 discriminator 1
 1661 0024 0F48     		ldr	r0, .L91+4
 1662 0026 FFF7FEFF 		bl	chMtxUnlock
 1663              	.LVL171:
 1664              		.loc 1 615 0 discriminator 1
 1665 002a 0E48     		ldr	r0, .L91+4
 1666 002c FFF7FEFF 		bl	chMtxLock
 1667              	.LVL172:
 1668              		.loc 1 616 0 discriminator 1
 1669 0030 0C48     		ldr	r0, .L91+4
 1670 0032 FFF7FEFF 		bl	chMtxUnlock
 1671              	.LVL173:
 1672              		.loc 1 617 0 discriminator 1
 1673 0036 0B48     		ldr	r0, .L91+4
 1674 0038 FFF7FEFF 		bl	chMtxLock
 1675              	.LVL174:
 1676              		.loc 1 618 0 discriminator 1
 1677 003c 0948     		ldr	r0, .L91+4
 1678 003e FFF7FEFF 		bl	chMtxUnlock
 1679              	.LVL175:
 1680              		.loc 1 623 0 discriminator 1
 1681 0042 2B78     		ldrb	r3, [r5]	@ zero_extendqisi2
 1682              		.loc 1 619 0 discriminator 1
 1683 0044 0134     		adds	r4, r4, #1
 1684              	.LVL176:
 1685              		.loc 1 623 0 discriminator 1
 1686 0046 002B     		cmp	r3, #0
 1687 0048 E3D0     		beq	.L87
 1688              		.loc 1 624 0
 1689 004a 0748     		ldr	r0, .L91+8
 1690 004c FFF7FEFF 		bl	test_print
 1691              	.LVL177:
 1692              		.loc 1 625 0
 1693 0050 A000     		lsls	r0, r4, #2
 1694 0052 FFF7FEFF 		bl	test_printn
 1695              	.LVL178:
 1696              		.loc 1 626 0
 1697 0056 0548     		ldr	r0, .L91+12
ARM GAS  C:\Users\jo\AppData\Local\Temp\ccuVAaqe.s 			page 31


 1698              		.loc 1 627 0
 1699 0058 BDE83840 		pop	{r3, r4, r5, lr}
 1700              		.cfi_restore 14
 1701              		.cfi_restore 5
 1702              		.cfi_restore 4
 1703              		.cfi_restore 3
 1704              		.cfi_def_cfa_offset 0
 1705              	.LVL179:
 1706              		.loc 1 626 0
 1707 005c FFF7FEBF 		b	test_println
 1708              	.LVL180:
 1709              	.L92:
 1710              		.align	2
 1711              	.L91:
 1712 0060 00000000 		.word	test_timer_done
 1713 0064 00000000 		.word	.LANCHOR1
 1714 0068 A8000000 		.word	.LC11
 1715 006c 00010000 		.word	.LC17
 1716              		.cfi_endproc
 1717              	.LFE247:
 1718              		.size	bmk12_execute, .-bmk12_execute
 1719              		.section	.text.bmk12_setup,"ax",%progbits
 1720              		.align	2
 1721              		.p2align 4,,15
 1722              		.thumb
 1723              		.thumb_func
 1724              		.type	bmk12_setup, %function
 1725              	bmk12_setup:
 1726              	.LFB246:
 1727              		.loc 1 600 0
 1728              		.cfi_startproc
 1729              		@ args = 0, pretend = 0, frame = 0
 1730              		@ frame_needed = 0, uses_anonymous_args = 0
 1731              		@ link register save eliminated.
 1732              		.loc 1 602 0
 1733 0000 0148     		ldr	r0, .L94
 1734 0002 FFF7FEBF 		b	chMtxObjectInit
 1735              	.LVL181:
 1736              	.L95:
 1737 0006 00BF     		.align	2
 1738              	.L94:
 1739 0008 00000000 		.word	.LANCHOR1
 1740              		.cfi_endproc
 1741              	.LFE246:
 1742              		.size	bmk12_setup, .-bmk12_setup
 1743 000c AFF30080 		.section	.text.bmk10_execute,"ax",%progbits
 1744              		.align	2
 1745              		.p2align 4,,15
 1746              		.thumb
 1747              		.thumb_func
 1748              		.type	bmk10_execute, %function
 1749              	bmk10_execute:
 1750              	.LFB243:
 1751              		.loc 1 511 0
 1752              		.cfi_startproc
 1753              		@ args = 0, pretend = 0, frame = 0
 1754              		@ frame_needed = 0, uses_anonymous_args = 0
ARM GAS  C:\Users\jo\AppData\Local\Temp\ccuVAaqe.s 			page 32


 1755              	.LVL182:
 1756 0000 70B5     		push	{r4, r5, r6, lr}
 1757              		.cfi_def_cfa_offset 16
 1758              		.cfi_offset 4, -16
 1759              		.cfi_offset 5, -12
 1760              		.cfi_offset 6, -8
 1761              		.cfi_offset 14, -4
 1762              		.loc 1 515 0
 1763 0002 FFF7FEFF 		bl	test_wait_tick
 1764              	.LVL183:
 1765              		.loc 1 516 0
 1766 0006 4FF47A70 		mov	r0, #1000
 1767 000a FFF7FEFF 		bl	test_start_timer
 1768              	.LVL184:
 1769 000e 1E4D     		ldr	r5, .L102
 1770 0010 1E4E     		ldr	r6, .L102+4
 1771              		.loc 1 513 0
 1772 0012 0024     		movs	r4, #0
 1773              	.LVL185:
 1774              	.L98:
 1775              	.LBB229:
 1776              	.LBB230:
 1777              	.LBB231:
 1778              	.LBB232:
 1779              	.LBB233:
 1780              		.file 3 "../../../os/ext/CMSIS/include/core_cmFunc.h"
 1781              		.loc 3 546 0 discriminator 1
 1782 0014 2023     		movs	r3, #32
 1783              	@ 546 "../../../os/ext/CMSIS/include/core_cmFunc.h" 1
 1784 0016 83F31188 		MSR basepri, r3
 1785              	@ 0 "" 2
 1786              		.thumb
 1787              	.LBE233:
 1788              	.LBE232:
 1789              	.LBE231:
 1790              		.file 4 "../../../os/rt/include/chsys.h"
 1791              		.loc 4 300 0 discriminator 1
 1792 001a FFF7FEFF 		bl	_stats_start_measure_crit_thd
 1793              	.LVL186:
 1794              		.loc 4 301 0 discriminator 1
 1795 001e FFF7FEFF 		bl	_dbg_check_lock
 1796              	.LVL187:
 1797              	.LBE230:
 1798              	.LBE229:
 1799              		.loc 1 519 0 discriminator 1
 1800 0022 1B48     		ldr	r0, .L102+8
 1801 0024 1B4A     		ldr	r2, .L102+12
 1802 0026 0121     		movs	r1, #1
 1803 0028 0023     		movs	r3, #0
 1804 002a FFF7FEFF 		bl	chVTDoSetI
 1805              	.LVL188:
 1806              		.loc 1 520 0 discriminator 1
 1807 002e 194A     		ldr	r2, .L102+12
 1808 0030 1948     		ldr	r0, .L102+16
 1809 0032 0023     		movs	r3, #0
 1810 0034 42F21071 		movw	r1, #10000
 1811 0038 FFF7FEFF 		bl	chVTDoSetI
ARM GAS  C:\Users\jo\AppData\Local\Temp\ccuVAaqe.s 			page 33


 1812              	.LVL189:
 1813              		.loc 1 521 0 discriminator 1
 1814 003c 1448     		ldr	r0, .L102+8
 1815 003e FFF7FEFF 		bl	chVTDoResetI
 1816              	.LVL190:
 1817              		.loc 1 522 0 discriminator 1
 1818 0042 1548     		ldr	r0, .L102+16
 1819 0044 FFF7FEFF 		bl	chVTDoResetI
 1820              	.LVL191:
 1821              	.LBB234:
 1822              	.LBB235:
 1823              		.loc 4 311 0 discriminator 1
 1824 0048 FFF7FEFF 		bl	_dbg_check_unlock
 1825              	.LVL192:
 1826              		.loc 4 312 0 discriminator 1
 1827 004c FFF7FEFF 		bl	_stats_stop_measure_crit_thd
 1828              	.LVL193:
 1829              		.loc 4 318 0 discriminator 1
 1830 0050 AA69     		ldr	r2, [r5, #24]
 1831 0052 2B68     		ldr	r3, [r5]
 1832 0054 9268     		ldr	r2, [r2, #8]
 1833 0056 9B68     		ldr	r3, [r3, #8]
 1834 0058 9A42     		cmp	r2, r3
 1835 005a 02D2     		bcs	.L97
 1836              		.loc 4 318 0 is_stmt 0
 1837 005c 0F48     		ldr	r0, .L102+20
 1838 005e FFF7FEFF 		bl	chSysHalt
 1839              	.LVL194:
 1840              	.L97:
 1841              	.LBB236:
 1842              	.LBB237:
 1843              	.LBB238:
 1844              		.loc 3 546 0 is_stmt 1
 1845 0062 0023     		movs	r3, #0
 1846              	@ 546 "../../../os/ext/CMSIS/include/core_cmFunc.h" 1
 1847 0064 83F31188 		MSR basepri, r3
 1848              	@ 0 "" 2
 1849              		.thumb
 1850              	.LBE238:
 1851              	.LBE237:
 1852              	.LBE236:
 1853              	.LBE235:
 1854              	.LBE234:
 1855              		.loc 1 528 0
 1856 0068 3378     		ldrb	r3, [r6]	@ zero_extendqisi2
 1857              		.loc 1 524 0
 1858 006a 0134     		adds	r4, r4, #1
 1859              	.LVL195:
 1860              		.loc 1 528 0
 1861 006c 002B     		cmp	r3, #0
 1862 006e D1D0     		beq	.L98
 1863              		.loc 1 529 0
 1864 0070 0B48     		ldr	r0, .L102+24
 1865 0072 FFF7FEFF 		bl	test_print
 1866              	.LVL196:
 1867              		.loc 1 530 0
 1868 0076 6000     		lsls	r0, r4, #1
ARM GAS  C:\Users\jo\AppData\Local\Temp\ccuVAaqe.s 			page 34


 1869 0078 FFF7FEFF 		bl	test_printn
 1870              	.LVL197:
 1871              		.loc 1 531 0
 1872 007c 0948     		ldr	r0, .L102+28
 1873              		.loc 1 532 0
 1874 007e BDE87040 		pop	{r4, r5, r6, lr}
 1875              		.cfi_restore 14
 1876              		.cfi_restore 6
 1877              		.cfi_restore 5
 1878              		.cfi_restore 4
 1879              		.cfi_def_cfa_offset 0
 1880              	.LVL198:
 1881              		.loc 1 531 0
 1882 0082 FFF7FEBF 		b	test_println
 1883              	.LVL199:
 1884              	.L103:
 1885 0086 00BF     		.align	2
 1886              	.L102:
 1887 0088 00000000 		.word	ch
 1888 008c 00000000 		.word	test_timer_done
 1889 0090 00000000 		.word	.LANCHOR2
 1890 0094 00000000 		.word	tmo
 1891 0098 00000000 		.word	.LANCHOR3
 1892 009c 00000000 		.word	.LANCHOR4
 1893 00a0 A8000000 		.word	.LC11
 1894 00a4 10010000 		.word	.LC18
 1895              		.cfi_endproc
 1896              	.LFE243:
 1897              		.size	bmk10_execute, .-bmk10_execute
 1898 00a8 AFF30080 		.section	.text.bmk4_execute,"ax",%progbits
 1898      AFF30080 
 1899              		.align	2
 1900              		.p2align 4,,15
 1901              		.thumb
 1902              		.thumb_func
 1903              		.type	bmk4_execute, %function
 1904              	bmk4_execute:
 1905              	.LFB233:
 1906              		.loc 1 221 0
 1907              		.cfi_startproc
 1908              		@ args = 0, pretend = 0, frame = 0
 1909              		@ frame_needed = 0, uses_anonymous_args = 0
 1910 0000 2DE9F043 		push	{r4, r5, r6, r7, r8, r9, lr}
 1911              		.cfi_def_cfa_offset 28
 1912              		.cfi_offset 4, -28
 1913              		.cfi_offset 5, -24
 1914              		.cfi_offset 6, -20
 1915              		.cfi_offset 7, -16
 1916              		.cfi_offset 8, -12
 1917              		.cfi_offset 9, -8
 1918              		.cfi_offset 14, -4
 1919              	.LBB263:
 1920              	.LBB264:
 1921              	.LBB265:
 1922              	.LBB266:
 1923              		.loc 2 179 0
 1924 0004 374E     		ldr	r6, .L111
ARM GAS  C:\Users\jo\AppData\Local\Temp\ccuVAaqe.s 			page 35


 1925              	.LBE266:
 1926              	.LBE265:
 1927              	.LBE264:
 1928              	.LBE263:
 1929              		.loc 1 225 0
 1930 0006 384A     		ldr	r2, .L111+4
 1931              	.LBB268:
 1932              	.LBB267:
 1933              		.loc 2 192 0
 1934 0008 B369     		ldr	r3, [r6, #24]
 1935              	.LBE267:
 1936              	.LBE268:
 1937              		.loc 1 225 0
 1938 000a 1068     		ldr	r0, [r2]
 1939 000c 9A68     		ldr	r2, [r3, #8]
 1940 000e 374B     		ldr	r3, .L111+8
 1941 0010 DFF8EC90 		ldr	r9, .L111+28
 1942              		.loc 1 221 0
 1943 0014 83B0     		sub	sp, sp, #12
 1944              		.cfi_def_cfa_offset 40
 1945              		.loc 1 225 0
 1946 0016 0025     		movs	r5, #0
 1947 0018 0132     		adds	r2, r2, #1
 1948 001a 4FF4B471 		mov	r1, #360
 1949 001e 0095     		str	r5, [sp]
 1950 0020 FFF7FEFF 		bl	chThdCreateStatic
 1951              	.LVL200:
 1952 0024 324B     		ldr	r3, .L111+12
 1953 0026 0446     		mov	r4, r0
 1954 0028 1860     		str	r0, [r3]
 1955              	.LVL201:
 1956              		.loc 1 228 0
 1957 002a FFF7FEFF 		bl	test_wait_tick
 1958              	.LVL202:
 1959              		.loc 1 229 0
 1960 002e 4FF47A70 		mov	r0, #1000
 1961 0032 FFF7FEFF 		bl	test_start_timer
 1962              	.LVL203:
 1963              		.loc 1 232 0
 1964 0036 A846     		mov	r8, r5
 1965              	.LBB269:
 1966              	.LBB270:
 1967              	.LBB271:
 1968              	.LBB272:
 1969              	.LBB273:
 1970              		.loc 3 546 0
 1971 0038 2027     		movs	r7, #32
 1972              	.LVL204:
 1973              	.L106:
 1974              		.loc 3 546 0 is_stmt 0 discriminator 1
 1975              	@ 546 "../../../os/ext/CMSIS/include/core_cmFunc.h" 1
 1976 003a 87F31188 		MSR basepri, r7
 1977              	@ 0 "" 2
 1978              		.thumb
 1979              	.LBE273:
 1980              	.LBE272:
 1981              	.LBE271:
ARM GAS  C:\Users\jo\AppData\Local\Temp\ccuVAaqe.s 			page 36


 1982              		.loc 4 300 0 is_stmt 1 discriminator 1
 1983 003e FFF7FEFF 		bl	_stats_start_measure_crit_thd
 1984              	.LVL205:
 1985              		.loc 4 301 0 discriminator 1
 1986 0042 FFF7FEFF 		bl	_dbg_check_lock
 1987              	.LVL206:
 1988              	.LBE270:
 1989              	.LBE269:
 1990              		.loc 1 232 0 discriminator 1
 1991 0046 2046     		mov	r0, r4
 1992 0048 0021     		movs	r1, #0
 1993 004a FFF7FEFF 		bl	chSchWakeupS
 1994              	.LVL207:
 1995              		.loc 1 233 0 discriminator 1
 1996 004e 2046     		mov	r0, r4
 1997 0050 0021     		movs	r1, #0
 1998 0052 FFF7FEFF 		bl	chSchWakeupS
 1999              	.LVL208:
 2000              		.loc 1 234 0 discriminator 1
 2001 0056 2046     		mov	r0, r4
 2002 0058 0021     		movs	r1, #0
 2003 005a FFF7FEFF 		bl	chSchWakeupS
 2004              	.LVL209:
 2005              		.loc 1 235 0 discriminator 1
 2006 005e 2046     		mov	r0, r4
 2007 0060 0021     		movs	r1, #0
 2008 0062 FFF7FEFF 		bl	chSchWakeupS
 2009              	.LVL210:
 2010              	.LBB274:
 2011              	.LBB275:
 2012              		.loc 4 311 0 discriminator 1
 2013 0066 FFF7FEFF 		bl	_dbg_check_unlock
 2014              	.LVL211:
 2015              		.loc 4 312 0 discriminator 1
 2016 006a FFF7FEFF 		bl	_stats_stop_measure_crit_thd
 2017              	.LVL212:
 2018              		.loc 4 318 0 discriminator 1
 2019 006e B269     		ldr	r2, [r6, #24]
 2020 0070 3368     		ldr	r3, [r6]
 2021 0072 9268     		ldr	r2, [r2, #8]
 2022 0074 9B68     		ldr	r3, [r3, #8]
 2023 0076 9A42     		cmp	r2, r3
 2024 0078 02D2     		bcs	.L105
 2025              		.loc 4 318 0 is_stmt 0
 2026 007a 1E48     		ldr	r0, .L111+16
 2027 007c FFF7FEFF 		bl	chSysHalt
 2028              	.LVL213:
 2029              	.L105:
 2030              	.LBB276:
 2031              	.LBB277:
 2032              	.LBB278:
 2033              		.loc 3 546 0 is_stmt 1
 2034              	@ 546 "../../../os/ext/CMSIS/include/core_cmFunc.h" 1
 2035 0080 88F31188 		MSR basepri, r8
 2036              	@ 0 "" 2
 2037              		.thumb
 2038              	.LBE278:
ARM GAS  C:\Users\jo\AppData\Local\Temp\ccuVAaqe.s 			page 37


 2039              	.LBE277:
 2040              	.LBE276:
 2041              	.LBE275:
 2042              	.LBE274:
 2043              		.loc 1 241 0
 2044 0084 99F80030 		ldrb	r3, [r9]	@ zero_extendqisi2
 2045              		.loc 1 237 0
 2046 0088 0435     		adds	r5, r5, #4
 2047              	.LVL214:
 2048              		.loc 1 241 0
 2049 008a 002B     		cmp	r3, #0
 2050 008c D5D0     		beq	.L106
 2051              	.LVL215:
 2052              	.LBB279:
 2053              	.LBB280:
 2054              	.LBB281:
 2055              	.LBB282:
 2056              	.LBB283:
 2057              		.loc 3 546 0
 2058 008e 2023     		movs	r3, #32
 2059              	@ 546 "../../../os/ext/CMSIS/include/core_cmFunc.h" 1
 2060 0090 83F31188 		MSR basepri, r3
 2061              	@ 0 "" 2
 2062              		.thumb
 2063              	.LBE283:
 2064              	.LBE282:
 2065              	.LBE281:
 2066              		.loc 4 300 0
 2067 0094 FFF7FEFF 		bl	_stats_start_measure_crit_thd
 2068              	.LVL216:
 2069              		.loc 4 301 0
 2070 0098 FFF7FEFF 		bl	_dbg_check_lock
 2071              	.LVL217:
 2072              	.LBE280:
 2073              	.LBE279:
 2074              		.loc 1 243 0
 2075 009c 2046     		mov	r0, r4
 2076 009e 4FF0FF31 		mov	r1, #-1
 2077 00a2 FFF7FEFF 		bl	chSchWakeupS
 2078              	.LVL218:
 2079              	.LBB284:
 2080              	.LBB285:
 2081              		.loc 4 311 0
 2082 00a6 FFF7FEFF 		bl	_dbg_check_unlock
 2083              	.LVL219:
 2084              		.loc 4 312 0
 2085 00aa FFF7FEFF 		bl	_stats_stop_measure_crit_thd
 2086              	.LVL220:
 2087              		.loc 4 318 0
 2088 00ae B269     		ldr	r2, [r6, #24]
 2089 00b0 3368     		ldr	r3, [r6]
 2090 00b2 9268     		ldr	r2, [r2, #8]
 2091 00b4 9B68     		ldr	r3, [r3, #8]
 2092 00b6 9A42     		cmp	r2, r3
 2093 00b8 02D2     		bcs	.L107
 2094 00ba 0E48     		ldr	r0, .L111+16
 2095 00bc FFF7FEFF 		bl	chSysHalt
ARM GAS  C:\Users\jo\AppData\Local\Temp\ccuVAaqe.s 			page 38


 2096              	.LVL221:
 2097              	.L107:
 2098              	.LBB286:
 2099              	.LBB287:
 2100              	.LBB288:
 2101              		.loc 3 546 0
 2102 00c0 0023     		movs	r3, #0
 2103              	@ 546 "../../../os/ext/CMSIS/include/core_cmFunc.h" 1
 2104 00c2 83F31188 		MSR basepri, r3
 2105              	@ 0 "" 2
 2106              		.thumb
 2107              	.LBE288:
 2108              	.LBE287:
 2109              	.LBE286:
 2110              	.LBE285:
 2111              	.LBE284:
 2112              		.loc 1 246 0
 2113 00c6 FFF7FEFF 		bl	test_wait_threads
 2114              	.LVL222:
 2115              		.loc 1 247 0
 2116 00ca 0B48     		ldr	r0, .L111+20
 2117 00cc FFF7FEFF 		bl	test_print
 2118              	.LVL223:
 2119              		.loc 1 248 0
 2120 00d0 6800     		lsls	r0, r5, #1
 2121 00d2 FFF7FEFF 		bl	test_printn
 2122              	.LVL224:
 2123              		.loc 1 249 0
 2124 00d6 0948     		ldr	r0, .L111+24
 2125              		.loc 1 250 0
 2126 00d8 03B0     		add	sp, sp, #12
 2127              		.cfi_def_cfa_offset 28
 2128              		@ sp needed
 2129 00da BDE8F043 		pop	{r4, r5, r6, r7, r8, r9, lr}
 2130              		.cfi_restore 14
 2131              		.cfi_restore 9
 2132              		.cfi_restore 8
 2133              		.cfi_restore 7
 2134              		.cfi_restore 6
 2135              		.cfi_restore 5
 2136              		.cfi_restore 4
 2137              		.cfi_def_cfa_offset 0
 2138              	.LVL225:
 2139              		.loc 1 249 0
 2140 00de FFF7FEBF 		b	test_println
 2141              	.LVL226:
 2142              	.L112:
 2143 00e2 00BF     		.align	2
 2144              	.L111:
 2145 00e4 00000000 		.word	ch
 2146 00e8 00000000 		.word	wa
 2147 00ec 00000000 		.word	thread4
 2148 00f0 00000000 		.word	threads
 2149 00f4 00000000 		.word	.LANCHOR4
 2150 00f8 A8000000 		.word	.LC11
 2151 00fc D0000000 		.word	.LC14
 2152 0100 00000000 		.word	test_timer_done
ARM GAS  C:\Users\jo\AppData\Local\Temp\ccuVAaqe.s 			page 39


 2153              		.cfi_endproc
 2154              	.LFE233:
 2155              		.size	bmk4_execute, .-bmk4_execute
 2156 0104 AFF30080 		.section	.text.bmk9_execute,"ax",%progbits
 2156      AFF30080 
 2156      AFF30080 
 2157              		.align	2
 2158              		.p2align 4,,15
 2159              		.thumb
 2160              		.thumb_func
 2161              		.type	bmk9_execute, %function
 2162              	bmk9_execute:
 2163              	.LFB241:
 2164              		.loc 1 462 0
 2165              		.cfi_startproc
 2166              		@ args = 0, pretend = 0, frame = 0
 2167              		@ frame_needed = 0, uses_anonymous_args = 0
 2168 0000 F0B5     		push	{r4, r5, r6, r7, lr}
 2169              		.cfi_def_cfa_offset 20
 2170              		.cfi_offset 4, -20
 2171              		.cfi_offset 5, -16
 2172              		.cfi_offset 6, -12
 2173              		.cfi_offset 7, -8
 2174              		.cfi_offset 14, -4
 2175 0002 83B0     		sub	sp, sp, #12
 2176              		.cfi_def_cfa_offset 32
 2177              		.loc 1 467 0
 2178 0004 0024     		movs	r4, #0
 2179 0006 2346     		mov	r3, r4
 2180 0008 2C49     		ldr	r1, .L119
 2181 000a 2D48     		ldr	r0, .L119+4
 2182 000c 0094     		str	r4, [sp]
 2183 000e 1022     		movs	r2, #16
 2184 0010 FFF7FEFF 		bl	chIQObjectInit
 2185              	.LVL227:
 2186              		.loc 1 469 0
 2187 0014 FFF7FEFF 		bl	test_wait_tick
 2188              	.LVL228:
 2189              		.loc 1 470 0
 2190 0018 4FF47A70 		mov	r0, #1000
 2191 001c FFF7FEFF 		bl	test_start_timer
 2192              	.LVL229:
 2193 0020 284D     		ldr	r5, .L119+8
 2194 0022 294F     		ldr	r7, .L119+12
 2195              	.LBB307:
 2196              	.LBB308:
 2197              	.LBB309:
 2198              	.LBB310:
 2199              	.LBB311:
 2200              		.loc 3 546 0
 2201 0024 2026     		movs	r6, #32
 2202              	.LVL230:
 2203              	.L115:
 2204              		.loc 3 546 0 is_stmt 0 discriminator 1
 2205              	@ 546 "../../../os/ext/CMSIS/include/core_cmFunc.h" 1
 2206 0026 86F31188 		MSR basepri, r6
 2207              	@ 0 "" 2
ARM GAS  C:\Users\jo\AppData\Local\Temp\ccuVAaqe.s 			page 40


 2208              		.thumb
 2209              	.LBE311:
 2210              	.LBE310:
 2211              	.LBE309:
 2212              		.loc 4 300 0 is_stmt 1 discriminator 1
 2213 002a FFF7FEFF 		bl	_stats_start_measure_crit_thd
 2214              	.LVL231:
 2215              		.loc 4 301 0 discriminator 1
 2216 002e FFF7FEFF 		bl	_dbg_check_lock
 2217              	.LVL232:
 2218              	.LBE308:
 2219              	.LBE307:
 2220              		.loc 1 473 0 discriminator 1
 2221 0032 0021     		movs	r1, #0
 2222 0034 2248     		ldr	r0, .L119+4
 2223 0036 FFF7FEFF 		bl	chIQPutI
 2224              	.LVL233:
 2225              		.loc 1 474 0 discriminator 1
 2226 003a 0121     		movs	r1, #1
 2227 003c 2048     		ldr	r0, .L119+4
 2228 003e FFF7FEFF 		bl	chIQPutI
 2229              	.LVL234:
 2230              		.loc 1 475 0 discriminator 1
 2231 0042 0221     		movs	r1, #2
 2232 0044 1E48     		ldr	r0, .L119+4
 2233 0046 FFF7FEFF 		bl	chIQPutI
 2234              	.LVL235:
 2235              		.loc 1 476 0 discriminator 1
 2236 004a 0321     		movs	r1, #3
 2237 004c 1C48     		ldr	r0, .L119+4
 2238 004e FFF7FEFF 		bl	chIQPutI
 2239              	.LVL236:
 2240              	.LBB312:
 2241              	.LBB313:
 2242              		.loc 4 311 0 discriminator 1
 2243 0052 FFF7FEFF 		bl	_dbg_check_unlock
 2244              	.LVL237:
 2245              		.loc 4 312 0 discriminator 1
 2246 0056 FFF7FEFF 		bl	_stats_stop_measure_crit_thd
 2247              	.LVL238:
 2248              		.loc 4 318 0 discriminator 1
 2249 005a AA69     		ldr	r2, [r5, #24]
 2250 005c 2B68     		ldr	r3, [r5]
 2251 005e 9268     		ldr	r2, [r2, #8]
 2252 0060 9B68     		ldr	r3, [r3, #8]
 2253 0062 9A42     		cmp	r2, r3
 2254 0064 02D2     		bcs	.L114
 2255              		.loc 4 318 0 is_stmt 0
 2256 0066 1948     		ldr	r0, .L119+16
 2257 0068 FFF7FEFF 		bl	chSysHalt
 2258              	.LVL239:
 2259              	.L114:
 2260              	.LBB314:
 2261              	.LBB315:
 2262              	.LBB316:
 2263              		.loc 3 546 0 is_stmt 1
 2264 006c 0023     		movs	r3, #0
ARM GAS  C:\Users\jo\AppData\Local\Temp\ccuVAaqe.s 			page 41


 2265              	@ 546 "../../../os/ext/CMSIS/include/core_cmFunc.h" 1
 2266 006e 83F31188 		MSR basepri, r3
 2267              	@ 0 "" 2
 2268              	.LVL240:
 2269              		.thumb
 2270              	.LBE316:
 2271              	.LBE315:
 2272              	.LBE314:
 2273              	.LBE313:
 2274              	.LBE312:
 2275              	.LBB317:
 2276              	.LBB318:
 2277              		.file 5 "../../../os/rt/include/chqueues.h"
 2278              		.loc 5 338 0
 2279 0072 4FF0FF31 		mov	r1, #-1
 2280 0076 1248     		ldr	r0, .L119+4
 2281 0078 FFF7FEFF 		bl	chIQGetTimeout
 2282              	.LVL241:
 2283              	.LBE318:
 2284              	.LBE317:
 2285              	.LBB319:
 2286              	.LBB320:
 2287 007c 4FF0FF31 		mov	r1, #-1
 2288 0080 0F48     		ldr	r0, .L119+4
 2289 0082 FFF7FEFF 		bl	chIQGetTimeout
 2290              	.LVL242:
 2291              	.LBE320:
 2292              	.LBE319:
 2293              	.LBB321:
 2294              	.LBB322:
 2295 0086 4FF0FF31 		mov	r1, #-1
 2296 008a 0D48     		ldr	r0, .L119+4
 2297 008c FFF7FEFF 		bl	chIQGetTimeout
 2298              	.LVL243:
 2299              	.LBE322:
 2300              	.LBE321:
 2301              	.LBB323:
 2302              	.LBB324:
 2303 0090 0B48     		ldr	r0, .L119+4
 2304 0092 4FF0FF31 		mov	r1, #-1
 2305 0096 FFF7FEFF 		bl	chIQGetTimeout
 2306              	.LVL244:
 2307              	.LBE324:
 2308              	.LBE323:
 2309              		.loc 1 486 0
 2310 009a 3B78     		ldrb	r3, [r7]	@ zero_extendqisi2
 2311              		.loc 1 482 0
 2312 009c 0134     		adds	r4, r4, #1
 2313              	.LVL245:
 2314              		.loc 1 486 0
 2315 009e 002B     		cmp	r3, #0
 2316 00a0 C1D0     		beq	.L115
 2317              		.loc 1 487 0
 2318 00a2 0B48     		ldr	r0, .L119+20
 2319 00a4 FFF7FEFF 		bl	test_print
 2320              	.LVL246:
 2321              		.loc 1 488 0
ARM GAS  C:\Users\jo\AppData\Local\Temp\ccuVAaqe.s 			page 42


 2322 00a8 A000     		lsls	r0, r4, #2
 2323 00aa FFF7FEFF 		bl	test_printn
 2324              	.LVL247:
 2325              		.loc 1 489 0
 2326 00ae 0948     		ldr	r0, .L119+24
 2327              		.loc 1 490 0
 2328 00b0 03B0     		add	sp, sp, #12
 2329              		.cfi_def_cfa_offset 20
 2330              		@ sp needed
 2331 00b2 BDE8F040 		pop	{r4, r5, r6, r7, lr}
 2332              		.cfi_restore 14
 2333              		.cfi_restore 7
 2334              		.cfi_restore 6
 2335              		.cfi_restore 5
 2336              		.cfi_restore 4
 2337              		.cfi_def_cfa_offset 0
 2338              	.LVL248:
 2339              		.loc 1 489 0
 2340 00b6 FFF7FEBF 		b	test_println
 2341              	.LVL249:
 2342              	.L120:
 2343 00ba 00BF     		.align	2
 2344              	.L119:
 2345 00bc 00000000 		.word	.LANCHOR6
 2346 00c0 00000000 		.word	.LANCHOR5
 2347 00c4 00000000 		.word	ch
 2348 00c8 00000000 		.word	test_timer_done
 2349 00cc 00000000 		.word	.LANCHOR4
 2350 00d0 A8000000 		.word	.LC11
 2351 00d4 1C010000 		.word	.LC19
 2352              		.cfi_endproc
 2353              	.LFE241:
 2354              		.size	bmk9_execute, .-bmk9_execute
 2355 00d8 AFF30080 		.section	.text.thread4,"ax",%progbits
 2355      AFF30080 
 2356              		.align	2
 2357              		.p2align 4,,15
 2358              		.global	thread4
 2359              		.thumb
 2360              		.thumb_func
 2361              		.type	thread4, %function
 2362              	thread4:
 2363              	.LFB232:
 2364              		.loc 1 207 0
 2365              		.cfi_startproc
 2366              		@ args = 0, pretend = 0, frame = 0
 2367              		@ frame_needed = 0, uses_anonymous_args = 0
 2368              	.LVL250:
 2369 0000 38B5     		push	{r3, r4, r5, lr}
 2370              		.cfi_def_cfa_offset 16
 2371              		.cfi_offset 3, -16
 2372              		.cfi_offset 4, -12
 2373              		.cfi_offset 5, -8
 2374              		.cfi_offset 14, -4
 2375              	.LBB337:
 2376              	.LBB338:
 2377              		.loc 2 179 0
ARM GAS  C:\Users\jo\AppData\Local\Temp\ccuVAaqe.s 			page 43


 2378 0002 104D     		ldr	r5, .L127
 2379              	.LBE338:
 2380              	.LBE337:
 2381              	.LBB340:
 2382              	.LBB341:
 2383              	.LBB342:
 2384              	.LBB343:
 2385              	.LBB344:
 2386              		.loc 3 546 0
 2387 0004 2023     		movs	r3, #32
 2388              	.LBE344:
 2389              	.LBE343:
 2390              	.LBE342:
 2391              	.LBE341:
 2392              	.LBE340:
 2393              	.LBB349:
 2394              	.LBB339:
 2395              		.loc 2 179 0
 2396 0006 AC69     		ldr	r4, [r5, #24]
 2397              	.LVL251:
 2398              	.LBE339:
 2399              	.LBE349:
 2400              	.LBB350:
 2401              	.LBB348:
 2402              	.LBB347:
 2403              	.LBB346:
 2404              	.LBB345:
 2405              		.loc 3 546 0
 2406              	@ 546 "../../../os/ext/CMSIS/include/core_cmFunc.h" 1
 2407 0008 83F31188 		MSR basepri, r3
 2408              	@ 0 "" 2
 2409              		.thumb
 2410              	.LBE345:
 2411              	.LBE346:
 2412              	.LBE347:
 2413              		.loc 4 300 0
 2414 000c FFF7FEFF 		bl	_stats_start_measure_crit_thd
 2415              	.LVL252:
 2416              		.loc 4 301 0
 2417 0010 FFF7FEFF 		bl	_dbg_check_lock
 2418              	.LVL253:
 2419              	.L122:
 2420              	.LBE348:
 2421              	.LBE350:
 2422              		.loc 1 214 0 discriminator 1
 2423 0014 0320     		movs	r0, #3
 2424 0016 FFF7FEFF 		bl	chSchGoSleepS
 2425              	.LVL254:
 2426              		.loc 1 216 0 discriminator 1
 2427 001a 636A     		ldr	r3, [r4, #36]
 2428 001c 002B     		cmp	r3, #0
 2429 001e F9D0     		beq	.L122
 2430              	.LBB351:
 2431              	.LBB352:
 2432              		.loc 4 311 0
 2433 0020 FFF7FEFF 		bl	_dbg_check_unlock
 2434              	.LVL255:
ARM GAS  C:\Users\jo\AppData\Local\Temp\ccuVAaqe.s 			page 44


 2435              		.loc 4 312 0
 2436 0024 FFF7FEFF 		bl	_stats_stop_measure_crit_thd
 2437              	.LVL256:
 2438              		.loc 4 318 0
 2439 0028 AA69     		ldr	r2, [r5, #24]
 2440 002a 2B68     		ldr	r3, [r5]
 2441 002c 9268     		ldr	r2, [r2, #8]
 2442 002e 9B68     		ldr	r3, [r3, #8]
 2443 0030 9A42     		cmp	r2, r3
 2444 0032 02D2     		bcs	.L123
 2445 0034 0448     		ldr	r0, .L127+4
 2446 0036 FFF7FEFF 		bl	chSysHalt
 2447              	.LVL257:
 2448              	.L123:
 2449              	.LBB353:
 2450              	.LBB354:
 2451              	.LBB355:
 2452              		.loc 3 546 0
 2453 003a 0020     		movs	r0, #0
 2454              	@ 546 "../../../os/ext/CMSIS/include/core_cmFunc.h" 1
 2455 003c 80F31188 		MSR basepri, r0
 2456              	@ 0 "" 2
 2457              		.thumb
 2458              	.LBE355:
 2459              	.LBE354:
 2460              	.LBE353:
 2461              	.LBE352:
 2462              	.LBE351:
 2463              		.loc 1 219 0
 2464 0040 38BD     		pop	{r3, r4, r5, pc}
 2465              	.L128:
 2466 0042 00BF     		.align	2
 2467              	.L127:
 2468 0044 00000000 		.word	ch
 2469 0048 00000000 		.word	.LANCHOR4
 2470              		.cfi_endproc
 2471              	.LFE232:
 2472              		.size	thread4, .-thread4
 2473              		.global	patternbmk
 2474              		.global	testbmk13
 2475              		.global	testbmk12
 2476              		.global	testbmk11
 2477              		.global	testbmk10
 2478              		.global	testbmk9
 2479              		.global	testbmk8
 2480              		.global	testbmk7
 2481              		.global	testbmk6
 2482              		.global	testbmk5
 2483              		.global	testbmk4
 2484              		.global	testbmk3
 2485              		.global	testbmk2
 2486              		.global	testbmk1
 2487 004c AFF30080 		.section	.rodata.testbmk8,"a",%progbits
 2488              		.align	2
 2489              		.type	testbmk8, %object
 2490              		.size	testbmk8, 16
 2491              	testbmk8:
ARM GAS  C:\Users\jo\AppData\Local\Temp\ccuVAaqe.s 			page 45


 2492 0000 D0010000 		.word	.LC25
 2493 0004 00000000 		.word	0
 2494 0008 00000000 		.word	0
 2495 000c 00000000 		.word	bmk8_execute
 2496              		.section	.rodata.patternbmk,"a",%progbits
 2497              		.align	2
 2498              		.type	patternbmk, %object
 2499              		.size	patternbmk, 56
 2500              	patternbmk:
 2501 0000 00000000 		.word	testbmk1
 2502 0004 00000000 		.word	testbmk2
 2503 0008 00000000 		.word	testbmk3
 2504 000c 00000000 		.word	testbmk4
 2505 0010 00000000 		.word	testbmk5
 2506 0014 00000000 		.word	testbmk6
 2507 0018 00000000 		.word	testbmk7
 2508 001c 00000000 		.word	testbmk8
 2509 0020 00000000 		.word	testbmk9
 2510 0024 00000000 		.word	testbmk10
 2511 0028 00000000 		.word	testbmk11
 2512 002c 00000000 		.word	testbmk12
 2513 0030 00000000 		.word	testbmk13
 2514 0034 00000000 		.word	0
 2515              		.section	.bss.vt1.6709,"aw",%nobits
 2516              		.align	2
 2517              		.set	.LANCHOR2,. + 0
 2518              		.type	vt1.6709, %object
 2519              		.size	vt1.6709, 20
 2520              	vt1.6709:
 2521 0000 00000000 		.space	20
 2521      00000000 
 2521      00000000 
 2521      00000000 
 2521      00000000 
 2522              		.section	.rodata.testbmk4,"a",%progbits
 2523              		.align	2
 2524              		.type	testbmk4, %object
 2525              		.size	testbmk4, 16
 2526              	testbmk4:
 2527 0000 64020000 		.word	.LC29
 2528 0004 00000000 		.word	0
 2529 0008 00000000 		.word	0
 2530 000c 00000000 		.word	bmk4_execute
 2531              		.section	.rodata.testbmk2,"a",%progbits
 2532              		.align	2
 2533              		.type	testbmk2, %object
 2534              		.size	testbmk2, 16
 2535              	testbmk2:
 2536 0000 98020000 		.word	.LC31
 2537 0004 00000000 		.word	0
 2538 0008 00000000 		.word	0
 2539 000c 00000000 		.word	bmk2_execute
 2540              		.section	.bss.iq.6699,"aw",%nobits
 2541              		.align	2
 2542              		.set	.LANCHOR5,. + 0
 2543              		.type	iq.6699, %object
 2544              		.size	iq.6699, 36
ARM GAS  C:\Users\jo\AppData\Local\Temp\ccuVAaqe.s 			page 46


 2545              	iq.6699:
 2546 0000 00000000 		.space	36
 2546      00000000 
 2546      00000000 
 2546      00000000 
 2546      00000000 
 2547              		.section	.rodata.testbmk10,"a",%progbits
 2548              		.align	2
 2549              		.type	testbmk10, %object
 2550              		.size	testbmk10, 16
 2551              	testbmk10:
 2552 0000 88010000 		.word	.LC23
 2553 0004 00000000 		.word	0
 2554 0008 00000000 		.word	0
 2555 000c 00000000 		.word	bmk10_execute
 2556              		.section	.rodata.testbmk11,"a",%progbits
 2557              		.align	2
 2558              		.type	testbmk11, %object
 2559              		.size	testbmk11, 16
 2560              	testbmk11:
 2561 0000 64010000 		.word	.LC22
 2562 0004 00000000 		.word	bmk11_setup
 2563 0008 00000000 		.word	0
 2564 000c 00000000 		.word	bmk11_execute
 2565              		.section	.bss.mtx1,"aw",%nobits
 2566              		.align	2
 2567              		.set	.LANCHOR1,. + 0
 2568              		.type	mtx1, %object
 2569              		.size	mtx1, 16
 2570              	mtx1:
 2571 0000 00000000 		.space	16
 2571      00000000 
 2571      00000000 
 2571      00000000 
 2572              		.section	.rodata.testbmk3,"a",%progbits
 2573              		.align	2
 2574              		.type	testbmk3, %object
 2575              		.size	testbmk3, 16
 2576              	testbmk3:
 2577 0000 80020000 		.word	.LC30
 2578 0004 00000000 		.word	0
 2579 0008 00000000 		.word	0
 2580 000c 00000000 		.word	bmk3_execute
 2581              		.section	.rodata.str1.4,"aMS",%progbits,1
 2582              		.align	2
 2583              	.LC0:
 2584 0000 2D2D2D20 		.ascii	"--- System: \000"
 2584      53797374 
 2584      656D3A20 
 2584      00
 2585 000d 000000   		.space	3
 2586              	.LC1:
 2587 0010 20627974 		.ascii	" bytes\000"
 2587      657300
 2588 0017 00       		.space	1
 2589              	.LC2:
 2590 0018 2D2D2D20 		.ascii	"--- Thread: \000"
ARM GAS  C:\Users\jo\AppData\Local\Temp\ccuVAaqe.s 			page 47


 2590      54687265 
 2590      61643A20 
 2590      00
 2591 0025 000000   		.space	3
 2592              	.LC3:
 2593 0028 2D2D2D20 		.ascii	"--- Timer : \000"
 2593      54696D65 
 2593      72203A20 
 2593      00
 2594 0035 000000   		.space	3
 2595              	.LC4:
 2596 0038 2D2D2D20 		.ascii	"--- Semaph: \000"
 2596      53656D61 
 2596      70683A20 
 2596      00
 2597 0045 000000   		.space	3
 2598              	.LC5:
 2599 0048 2D2D2D20 		.ascii	"--- EventS: \000"
 2599      4576656E 
 2599      74533A20 
 2599      00
 2600 0055 000000   		.space	3
 2601              	.LC6:
 2602 0058 2D2D2D20 		.ascii	"--- EventL: \000"
 2602      4576656E 
 2602      744C3A20 
 2602      00
 2603 0065 000000   		.space	3
 2604              	.LC7:
 2605 0068 2D2D2D20 		.ascii	"--- Mutex : \000"
 2605      4D757465 
 2605      78203A20 
 2605      00
 2606 0075 000000   		.space	3
 2607              	.LC8:
 2608 0078 2D2D2D20 		.ascii	"--- CondV.: \000"
 2608      436F6E64 
 2608      562E3A20 
 2608      00
 2609 0085 000000   		.space	3
 2610              	.LC9:
 2611 0088 2D2D2D20 		.ascii	"--- Queue : \000"
 2611      51756575 
 2611      65203A20 
 2611      00
 2612 0095 000000   		.space	3
 2613              	.LC10:
 2614 0098 2D2D2D20 		.ascii	"--- MailB.: \000"
 2614      4D61696C 
 2614      422E3A20 
 2614      00
 2615 00a5 000000   		.space	3
 2616              	.LC11:
 2617 00a8 2D2D2D20 		.ascii	"--- Score : \000"
 2617      53636F72 
 2617      65203A20 
 2617      00
ARM GAS  C:\Users\jo\AppData\Local\Temp\ccuVAaqe.s 			page 48


 2618 00b5 000000   		.space	3
 2619              	.LC12:
 2620 00b8 20746872 		.ascii	" threads/S\000"
 2620      65616473 
 2620      2F5300
 2621 00c3 00       		.space	1
 2622              	.LC13:
 2623 00c4 206D7367 		.ascii	" msgs/S, \000"
 2623      732F532C 
 2623      2000
 2624 00ce 0000     		.space	2
 2625              	.LC14:
 2626 00d0 20637478 		.ascii	" ctxswc/S\000"
 2626      7377632F 
 2626      5300
 2627 00da 0000     		.space	2
 2628              	.LC15:
 2629 00dc 20726573 		.ascii	" reschedules/S, \000"
 2629      63686564 
 2629      756C6573 
 2629      2F532C20 
 2629      00
 2630 00ed 000000   		.space	3
 2631              	.LC16:
 2632 00f0 20776169 		.ascii	" wait+signal/S\000"
 2632      742B7369 
 2632      676E616C 
 2632      2F5300
 2633 00ff 00       		.space	1
 2634              	.LC17:
 2635 0100 206C6F63 		.ascii	" lock+unlock/S\000"
 2635      6B2B756E 
 2635      6C6F636B 
 2635      2F5300
 2636 010f 00       		.space	1
 2637              	.LC18:
 2638 0110 2074696D 		.ascii	" timers/S\000"
 2638      6572732F 
 2638      5300
 2639 011a 0000     		.space	2
 2640              	.LC19:
 2641 011c 20627974 		.ascii	" bytes/S\000"
 2641      65732F53 
 2641      00
 2642 0125 000000   		.space	3
 2643              	.LC20:
 2644 0128 42656E63 		.ascii	"Benchmark, RAM footprint\000"
 2644      686D6172 
 2644      6B2C2052 
 2644      414D2066 
 2644      6F6F7470 
 2645 0141 000000   		.space	3
 2646              	.LC21:
 2647 0144 42656E63 		.ascii	"Benchmark, mutexes lock/unlock\000"
 2647      686D6172 
 2647      6B2C206D 
 2647      75746578 
ARM GAS  C:\Users\jo\AppData\Local\Temp\ccuVAaqe.s 			page 49


 2647      6573206C 
 2648 0163 00       		.space	1
 2649              	.LC22:
 2650 0164 42656E63 		.ascii	"Benchmark, semaphores wait/signal\000"
 2650      686D6172 
 2650      6B2C2073 
 2650      656D6170 
 2650      686F7265 
 2651 0186 0000     		.space	2
 2652              	.LC23:
 2653 0188 42656E63 		.ascii	"Benchmark, virtual timers set/reset\000"
 2653      686D6172 
 2653      6B2C2076 
 2653      69727475 
 2653      616C2074 
 2654              	.LC24:
 2655 01ac 42656E63 		.ascii	"Benchmark, I/O Queues throughput\000"
 2655      686D6172 
 2655      6B2C2049 
 2655      2F4F2051 
 2655      75657565 
 2656 01cd 000000   		.space	3
 2657              	.LC25:
 2658 01d0 42656E63 		.ascii	"Benchmark, round robin context switching\000"
 2658      686D6172 
 2658      6B2C2072 
 2658      6F756E64 
 2658      20726F62 
 2659 01f9 000000   		.space	3
 2660              	.LC26:
 2661 01fc 42656E63 		.ascii	"Benchmark, mass reschedule, 5 threads\000"
 2661      686D6172 
 2661      6B2C206D 
 2661      61737320 
 2661      72657363 
 2662 0222 0000     		.space	2
 2663              	.LC27:
 2664 0224 42656E63 		.ascii	"Benchmark, threads, create only\000"
 2664      686D6172 
 2664      6B2C2074 
 2664      68726561 
 2664      64732C20 
 2665              	.LC28:
 2666 0244 42656E63 		.ascii	"Benchmark, threads, full cycle\000"
 2666      686D6172 
 2666      6B2C2074 
 2666      68726561 
 2666      64732C20 
 2667 0263 00       		.space	1
 2668              	.LC29:
 2669 0264 42656E63 		.ascii	"Benchmark, context switch\000"
 2669      686D6172 
 2669      6B2C2063 
 2669      6F6E7465 
 2669      78742073 
 2670 027e 0000     		.space	2
 2671              	.LC30:
ARM GAS  C:\Users\jo\AppData\Local\Temp\ccuVAaqe.s 			page 50


 2672 0280 42656E63 		.ascii	"Benchmark, messages #3\000"
 2672      686D6172 
 2672      6B2C206D 
 2672      65737361 
 2672      67657320 
 2673 0297 00       		.space	1
 2674              	.LC31:
 2675 0298 42656E63 		.ascii	"Benchmark, messages #2\000"
 2675      686D6172 
 2675      6B2C206D 
 2675      65737361 
 2675      67657320 
 2676 02af 00       		.space	1
 2677              	.LC32:
 2678 02b0 42656E63 		.ascii	"Benchmark, messages #1\000"
 2678      686D6172 
 2678      6B2C206D 
 2678      65737361 
 2678      67657320 
 2679 02c7 00       		.section	.rodata.testbmk9,"a",%progbits
 2680              		.align	2
 2681              		.type	testbmk9, %object
 2682              		.size	testbmk9, 16
 2683              	testbmk9:
 2684 0000 AC010000 		.word	.LC24
 2685 0004 00000000 		.word	0
 2686 0008 00000000 		.word	0
 2687 000c 00000000 		.word	bmk9_execute
 2688              		.section	.bss.sem1,"aw",%nobits
 2689              		.align	2
 2690              		.set	.LANCHOR0,. + 0
 2691              		.type	sem1, %object
 2692              		.size	sem1, 12
 2693              	sem1:
 2694 0000 00000000 		.space	12
 2694      00000000 
 2694      00000000 
 2695              		.section	.bss.ib.6698,"aw",%nobits
 2696              		.align	2
 2697              		.set	.LANCHOR6,. + 0
 2698              		.type	ib.6698, %object
 2699              		.size	ib.6698, 16
 2700              	ib.6698:
 2701 0000 00000000 		.space	16
 2701      00000000 
 2701      00000000 
 2701      00000000 
 2702              		.section	.bss.vt2.6710,"aw",%nobits
 2703              		.align	2
 2704              		.set	.LANCHOR3,. + 0
 2705              		.type	vt2.6710, %object
 2706              		.size	vt2.6710, 20
 2707              	vt2.6710:
 2708 0000 00000000 		.space	20
 2708      00000000 
 2708      00000000 
 2708      00000000 
ARM GAS  C:\Users\jo\AppData\Local\Temp\ccuVAaqe.s 			page 51


 2708      00000000 
 2709              		.section	.rodata.testbmk1,"a",%progbits
 2710              		.align	2
 2711              		.type	testbmk1, %object
 2712              		.size	testbmk1, 16
 2713              	testbmk1:
 2714 0000 B0020000 		.word	.LC32
 2715 0004 00000000 		.word	0
 2716 0008 00000000 		.word	0
 2717 000c 00000000 		.word	bmk1_execute
 2718              		.section	.rodata.__func__.5870,"a",%progbits
 2719              		.align	2
 2720              		.set	.LANCHOR4,. + 0
 2721              		.type	__func__.5870, %object
 2722              		.size	__func__.5870, 12
 2723              	__func__.5870:
 2724 0000 63685379 		.ascii	"chSysUnlock\000"
 2724      73556E6C 
 2724      6F636B00 
 2725              		.section	.rodata.testbmk12,"a",%progbits
 2726              		.align	2
 2727              		.type	testbmk12, %object
 2728              		.size	testbmk12, 16
 2729              	testbmk12:
 2730 0000 44010000 		.word	.LC21
 2731 0004 00000000 		.word	bmk12_setup
 2732 0008 00000000 		.word	0
 2733 000c 00000000 		.word	bmk12_execute
 2734              		.section	.rodata.testbmk13,"a",%progbits
 2735              		.align	2
 2736              		.type	testbmk13, %object
 2737              		.size	testbmk13, 16
 2738              	testbmk13:
 2739 0000 28010000 		.word	.LC20
 2740 0004 00000000 		.word	0
 2741 0008 00000000 		.word	0
 2742 000c 00000000 		.word	bmk13_execute
 2743              		.section	.rodata.testbmk5,"a",%progbits
 2744              		.align	2
 2745              		.type	testbmk5, %object
 2746              		.size	testbmk5, 16
 2747              	testbmk5:
 2748 0000 44020000 		.word	.LC28
 2749 0004 00000000 		.word	0
 2750 0008 00000000 		.word	0
 2751 000c 00000000 		.word	bmk5_execute
 2752              		.section	.rodata.testbmk6,"a",%progbits
 2753              		.align	2
 2754              		.type	testbmk6, %object
 2755              		.size	testbmk6, 16
 2756              	testbmk6:
 2757 0000 24020000 		.word	.LC27
 2758 0004 00000000 		.word	0
 2759 0008 00000000 		.word	0
 2760 000c 00000000 		.word	bmk6_execute
 2761              		.section	.rodata.testbmk7,"a",%progbits
 2762              		.align	2
ARM GAS  C:\Users\jo\AppData\Local\Temp\ccuVAaqe.s 			page 52


 2763              		.type	testbmk7, %object
 2764              		.size	testbmk7, 16
 2765              	testbmk7:
 2766 0000 FC010000 		.word	.LC26
 2767 0004 00000000 		.word	bmk7_setup
 2768 0008 00000000 		.word	0
 2769 000c 00000000 		.word	bmk7_execute
 2770              		.text
 2771              	.Letext0:
 2772              		.file 6 "c:\\program files\\gnu tools arm embedded\\4.9 2014q4\\lib\\gcc\\arm-none-eabi\\4.9.3\\in
 2773              		.file 7 "c:\\program files\\gnu tools arm embedded\\4.9 2014q4\\arm-none-eabi\\include\\machine\\_
 2774              		.file 8 "c:\\program files\\gnu tools arm embedded\\4.9 2014q4\\arm-none-eabi\\include\\stdint.h"
 2775              		.file 9 "../../../os/rt/ports/ARMCMx/compilers/GCC/chtypes.h"
 2776              		.file 10 "../../../os/rt/include/chsystypes.h"
 2777              		.file 11 "../../../os/rt/include/chschd.h"
 2778              		.file 12 "../../../os/rt/ports/ARMCMx/chcore.h"
 2779              		.file 13 "../../../os/rt/ports/ARMCMx/chcore_v7m.h"
 2780              		.file 14 "../../../os/rt/include/chdebug.h"
 2781              		.file 15 "../../../os/rt/include/chtm.h"
 2782              		.file 16 "../../../os/rt/include/chstats.h"
 2783              		.file 17 "../../../os/rt/include/chmtx.h"
 2784              		.file 18 "../../../os/rt/include/chsem.h"
 2785              		.file 19 "../../../test/rt/test.h"
 2786              		.file 20 "../../../os/rt/include/chmsg.h"
 2787              		.file 21 "../../../os/ext/CMSIS/include/core_cm4.h"
 2788              		.file 22 "../../../os/rt/include/chvt.h"