ARM GAS  C:\Users\jo\AppData\Local\Temp\ccQTnh5s.s 			page 1


   1              		.syntax unified
   2              		.cpu cortex-m4
   3              		.fpu softvfp
   4              		.eabi_attribute 20, 1
   5              		.eabi_attribute 21, 1
   6              		.eabi_attribute 23, 3
   7              		.eabi_attribute 24, 1
   8              		.eabi_attribute 25, 1
   9              		.eabi_attribute 26, 1
  10              		.eabi_attribute 30, 2
  11              		.eabi_attribute 34, 1
  12              		.eabi_attribute 18, 4
  13              		.thumb
  14              		.file	"testevt.c"
  15              		.text
  16              	.Ltext0:
  17              		.cfi_sections	.debug_frame
  18              		.section	.text.h3,"ax",%progbits
  19              		.align	2
  20              		.p2align 4,,15
  21              		.thumb
  22              		.thumb_func
  23              		.type	h3, %function
  24              	h3:
  25              	.LFB229:
  26              		.file 1 "../../../test/rt/testevt.c"
  27              		.loc 1 82 0
  28              		.cfi_startproc
  29              		@ args = 0, pretend = 0, frame = 0
  30              		@ frame_needed = 0, uses_anonymous_args = 0
  31              		@ link register save eliminated.
  32              	.LVL0:
  33              		.loc 1 82 0
  34 0000 4320     		movs	r0, #67
  35              	.LVL1:
  36 0002 FFF7FEBF 		b	test_emit_token
  37              	.LVL2:
  38              		.cfi_endproc
  39              	.LFE229:
  40              		.size	h3, .-h3
  41 0006 00BFAFF3 		.section	.text.h2,"ax",%progbits
  41      0080AFF3 
  41      0080
  42              		.align	2
  43              		.p2align 4,,15
  44              		.thumb
  45              		.thumb_func
  46              		.type	h2, %function
  47              	h2:
  48              	.LFB228:
  49              		.loc 1 81 0
  50              		.cfi_startproc
  51              		@ args = 0, pretend = 0, frame = 0
  52              		@ frame_needed = 0, uses_anonymous_args = 0
  53              		@ link register save eliminated.
  54              	.LVL3:
  55              		.loc 1 81 0
ARM GAS  C:\Users\jo\AppData\Local\Temp\ccQTnh5s.s 			page 2


  56 0000 4220     		movs	r0, #66
  57              	.LVL4:
  58 0002 FFF7FEBF 		b	test_emit_token
  59              	.LVL5:
  60              		.cfi_endproc
  61              	.LFE228:
  62              		.size	h2, .-h2
  63 0006 00BFAFF3 		.section	.text.h1,"ax",%progbits
  63      0080AFF3 
  63      0080
  64              		.align	2
  65              		.p2align 4,,15
  66              		.thumb
  67              		.thumb_func
  68              		.type	h1, %function
  69              	h1:
  70              	.LFB227:
  71              		.loc 1 80 0
  72              		.cfi_startproc
  73              		@ args = 0, pretend = 0, frame = 0
  74              		@ frame_needed = 0, uses_anonymous_args = 0
  75              		@ link register save eliminated.
  76              	.LVL6:
  77              		.loc 1 80 0
  78 0000 4120     		movs	r0, #65
  79              	.LVL7:
  80 0002 FFF7FEBF 		b	test_emit_token
  81              	.LVL8:
  82              		.cfi_endproc
  83              	.LFE227:
  84              		.size	h1, .-h1
  85 0006 00BFAFF3 		.section	.text.evt1_execute,"ax",%progbits
  85      0080AFF3 
  85      0080
  86              		.align	2
  87              		.p2align 4,,15
  88              		.thumb
  89              		.thumb_func
  90              		.type	evt1_execute, %function
  91              	evt1_execute:
  92              	.LFB230:
  93              		.loc 1 85 0
  94              		.cfi_startproc
  95              		@ args = 0, pretend = 0, frame = 40
  96              		@ frame_needed = 0, uses_anonymous_args = 0
  97              	.LVL9:
  98 0000 10B5     		push	{r4, lr}
  99              		.cfi_def_cfa_offset 8
 100              		.cfi_offset 4, -8
 101              		.cfi_offset 14, -4
 102              	.LBB76:
 103              	.LBB77:
 104              		.file 2 "../../../os/rt/include/chevents.h"
 105              		.loc 2 172 0
 106 0002 1F4C     		ldr	r4, .L10
 107              	.LBE77:
 108              	.LBE76:
ARM GAS  C:\Users\jo\AppData\Local\Temp\ccQTnh5s.s 			page 3


 109              		.loc 1 85 0
 110 0004 8AB0     		sub	sp, sp, #40
 111              		.cfi_def_cfa_offset 48
 112              	.LBB79:
 113              	.LBB80:
 114              		.loc 2 193 0
 115 0006 2046     		mov	r0, r4
 116 0008 6946     		mov	r1, sp
 117 000a 0122     		movs	r2, #1
 118 000c 4FF0FF33 		mov	r3, #-1
 119              	.LBE80:
 120              	.LBE79:
 121              	.LBB82:
 122              	.LBB78:
 123              		.loc 2 172 0
 124 0010 2460     		str	r4, [r4]
 125              	.LVL10:
 126              	.LBE78:
 127              	.LBE82:
 128              	.LBB83:
 129              	.LBB81:
 130              		.loc 2 193 0
 131 0012 FFF7FEFF 		bl	chEvtRegisterMaskWithFlags
 132              	.LVL11:
 133              	.LBE81:
 134              	.LBE83:
 135              	.LBB84:
 136              	.LBB85:
 137 0016 2046     		mov	r0, r4
 138 0018 05A9     		add	r1, sp, #20
 139              	.LVL12:
 140 001a 0222     		movs	r2, #2
 141 001c 4FF0FF33 		mov	r3, #-1
 142 0020 FFF7FEFF 		bl	chEvtRegisterMaskWithFlags
 143              	.LVL13:
 144              	.LBE85:
 145              	.LBE84:
 146              	.LBB86:
 147              	.LBB87:
 148              		.loc 2 226 0
 149 0024 2168     		ldr	r1, [r4]
 150              	.LBE87:
 151              	.LBE86:
 152              		.loc 1 94 0
 153 0026 091B     		subs	r1, r1, r4
 154 0028 18BF     		it	ne
 155 002a 0121     		movne	r1, #1
 156 002c 0120     		movs	r0, #1
 157 002e FFF7FEFF 		bl	_test_assert
 158              	.LVL14:
 159 0032 08B1     		cbz	r0, .L9
 160              	.L4:
 161              		.loc 1 105 0
 162 0034 0AB0     		add	sp, sp, #40
 163              		.cfi_remember_state
 164              		.cfi_def_cfa_offset 8
 165              	.LVL15:
ARM GAS  C:\Users\jo\AppData\Local\Temp\ccQTnh5s.s 			page 4


 166              		@ sp needed
 167 0036 10BD     		pop	{r4, pc}
 168              	.LVL16:
 169              	.L9:
 170              		.cfi_restore_state
 171              		.loc 1 95 0
 172 0038 6946     		mov	r1, sp
 173 003a 2046     		mov	r0, r4
 174 003c FFF7FEFF 		bl	chEvtUnregister
 175              	.LVL17:
 176              	.LBB88:
 177              	.LBB89:
 178              		.loc 2 226 0
 179 0040 2168     		ldr	r1, [r4]
 180              	.LBE89:
 181              	.LBE88:
 182              		.loc 1 96 0
 183 0042 091B     		subs	r1, r1, r4
 184 0044 18BF     		it	ne
 185 0046 0121     		movne	r1, #1
 186 0048 0220     		movs	r0, #2
 187 004a FFF7FEFF 		bl	_test_assert
 188              	.LVL18:
 189 004e 0028     		cmp	r0, #0
 190 0050 F0D1     		bne	.L4
 191              		.loc 1 97 0
 192 0052 05A9     		add	r1, sp, #20
 193              	.LVL19:
 194 0054 2046     		mov	r0, r4
 195 0056 FFF7FEFF 		bl	chEvtUnregister
 196              	.LVL20:
 197              		.loc 1 98 0
 198 005a 2168     		ldr	r1, [r4]
 199 005c 0320     		movs	r0, #3
 200 005e 091B     		subs	r1, r1, r4
 201 0060 B1FA81F1 		clz	r1, r1
 202 0064 4909     		lsrs	r1, r1, #5
 203 0066 FFF7FEFF 		bl	_test_assert
 204              	.LVL21:
 205 006a 0028     		cmp	r0, #0
 206 006c E2D1     		bne	.L4
 207              		.loc 1 103 0
 208 006e 0548     		ldr	r0, .L10+4
 209 0070 0721     		movs	r1, #7
 210 0072 FFF7FEFF 		bl	chEvtDispatch
 211              	.LVL22:
 212              		.loc 1 104 0
 213 0076 0449     		ldr	r1, .L10+8
 214 0078 0420     		movs	r0, #4
 215 007a FFF7FEFF 		bl	_test_assert_sequence
 216              	.LVL23:
 217 007e D9E7     		b	.L4
 218              	.L11:
 219              		.align	2
 220              	.L10:
 221 0080 00000000 		.word	.LANCHOR0
 222 0084 00000000 		.word	.LANCHOR1
ARM GAS  C:\Users\jo\AppData\Local\Temp\ccQTnh5s.s 			page 5


 223 0088 00000000 		.word	.LC0
 224              		.cfi_endproc
 225              	.LFE230:
 226              		.size	evt1_execute, .-evt1_execute
 227 008c AFF30080 		.section	.text.evt1_setup,"ax",%progbits
 228              		.align	2
 229              		.p2align 4,,15
 230              		.thumb
 231              		.thumb_func
 232              		.type	evt1_setup, %function
 233              	evt1_setup:
 234              	.LFB226:
 235              		.loc 1 75 0
 236              		.cfi_startproc
 237              		@ args = 0, pretend = 0, frame = 0
 238              		@ frame_needed = 0, uses_anonymous_args = 0
 239              		@ link register save eliminated.
 240              		.loc 1 77 0
 241 0000 4FF0FF30 		mov	r0, #-1
 242 0004 FFF7FEBF 		b	chEvtGetAndClearEvents
 243              	.LVL24:
 244              		.cfi_endproc
 245              	.LFE226:
 246              		.size	evt1_setup, .-evt1_setup
 247 0008 AFF30080 		.section	.text.evt2_setup,"ax",%progbits
 247      AFF30080 
 248              		.align	2
 249              		.p2align 4,,15
 250              		.thumb
 251              		.thumb_func
 252              		.type	evt2_setup, %function
 253              	evt2_setup:
 254              	.LFB231:
 255              		.loc 1 128 0
 256              		.cfi_startproc
 257              		@ args = 0, pretend = 0, frame = 0
 258              		@ frame_needed = 0, uses_anonymous_args = 0
 259              		@ link register save eliminated.
 260              		.loc 1 130 0
 261 0000 4FF0FF30 		mov	r0, #-1
 262 0004 FFF7FEBF 		b	chEvtGetAndClearEvents
 263              	.LVL25:
 264              		.cfi_endproc
 265              	.LFE231:
 266              		.size	evt2_setup, .-evt2_setup
 267 0008 AFF30080 		.section	.text.evt3_setup,"ax",%progbits
 267      AFF30080 
 268              		.align	2
 269              		.p2align 4,,15
 270              		.thumb
 271              		.thumb_func
 272              		.type	evt3_setup, %function
 273              	evt3_setup:
 274              	.LFB235:
 275              		.loc 1 249 0
 276              		.cfi_startproc
 277              		@ args = 0, pretend = 0, frame = 0
ARM GAS  C:\Users\jo\AppData\Local\Temp\ccQTnh5s.s 			page 6


 278              		@ frame_needed = 0, uses_anonymous_args = 0
 279              		@ link register save eliminated.
 280              		.loc 1 251 0
 281 0000 4FF0FF30 		mov	r0, #-1
 282 0004 FFF7FEBF 		b	chEvtGetAndClearEvents
 283              	.LVL26:
 284              		.cfi_endproc
 285              	.LFE235:
 286              		.size	evt3_setup, .-evt3_setup
 287 0008 AFF30080 		.section	.text.thread2,"ax",%progbits
 287      AFF30080 
 288              		.align	2
 289              		.p2align 4,,15
 290              		.thumb
 291              		.thumb_func
 292              		.type	thread2, %function
 293              	thread2:
 294              	.LFB233:
 295              		.loc 1 140 0
 296              		.cfi_startproc
 297              		@ args = 0, pretend = 0, frame = 0
 298              		@ frame_needed = 0, uses_anonymous_args = 0
 299              	.LVL27:
 300 0000 08B5     		push	{r3, lr}
 301              		.cfi_def_cfa_offset 8
 302              		.cfi_offset 3, -8
 303              		.cfi_offset 14, -4
 304              	.LBB90:
 305              	.LBB91:
 306              		.loc 2 239 0
 307 0002 0021     		movs	r1, #0
 308 0004 0648     		ldr	r0, .L17
 309              	.LVL28:
 310 0006 FFF7FEFF 		bl	chEvtBroadcastFlags
 311              	.LVL29:
 312              	.LBE91:
 313              	.LBE90:
 314              		.loc 1 144 0
 315 000a 4FF4FA70 		mov	r0, #500
 316 000e FFF7FEFF 		bl	chThdSleep
 317              	.LVL30:
 318              	.LBB92:
 319              	.LBB93:
 320              		.loc 2 239 0
 321 0012 0448     		ldr	r0, .L17+4
 322 0014 0021     		movs	r1, #0
 323 0016 FFF7FEFF 		bl	chEvtBroadcastFlags
 324              	.LVL31:
 325              	.LBE93:
 326              	.LBE92:
 327              		.loc 1 147 0
 328 001a 0020     		movs	r0, #0
 329 001c 08BD     		pop	{r3, pc}
 330              	.L18:
 331 001e 00BF     		.align	2
 332              	.L17:
 333 0020 00000000 		.word	.LANCHOR0
ARM GAS  C:\Users\jo\AppData\Local\Temp\ccQTnh5s.s 			page 7


 334 0024 00000000 		.word	.LANCHOR2
 335              		.cfi_endproc
 336              	.LFE233:
 337              		.size	thread2, .-thread2
 338 0028 AFF30080 		.section	.text.thread1,"ax",%progbits
 338      AFF30080 
 339              		.align	2
 340              		.p2align 4,,15
 341              		.thumb
 342              		.thumb_func
 343              		.type	thread1, %function
 344              	thread1:
 345              	.LFB232:
 346              		.loc 1 133 0
 347              		.cfi_startproc
 348              		@ args = 0, pretend = 0, frame = 0
 349              		@ frame_needed = 0, uses_anonymous_args = 0
 350              	.LVL32:
 351 0000 10B5     		push	{r4, lr}
 352              		.cfi_def_cfa_offset 8
 353              		.cfi_offset 4, -8
 354              		.cfi_offset 14, -4
 355              		.loc 1 133 0
 356 0002 0446     		mov	r4, r0
 357              		.loc 1 135 0
 358 0004 4FF4FA70 		mov	r0, #500
 359              	.LVL33:
 360 0008 FFF7FEFF 		bl	chThdSleep
 361              	.LVL34:
 362              		.loc 1 136 0
 363 000c 2046     		mov	r0, r4
 364 000e 0121     		movs	r1, #1
 365 0010 FFF7FEFF 		bl	chEvtSignal
 366              	.LVL35:
 367              		.loc 1 138 0
 368 0014 0020     		movs	r0, #0
 369 0016 10BD     		pop	{r4, pc}
 370              		.cfi_endproc
 371              	.LFE232:
 372              		.size	thread1, .-thread1
 373 0018 AFF30080 		.section	.text.chVTGetSystemTime,"ax",%progbits
 373      AFF30080 
 374              		.align	2
 375              		.p2align 4,,15
 376              		.thumb
 377              		.thumb_func
 378              		.type	chVTGetSystemTime, %function
 379              	chVTGetSystemTime:
 380              	.LFB165:
 381              		.file 3 "../../../os/rt/include/chvt.h"
 382              		.loc 3 245 0
 383              		.cfi_startproc
 384              		@ args = 0, pretend = 0, frame = 0
 385              		@ frame_needed = 0, uses_anonymous_args = 0
 386              	.LVL36:
 387 0000 10B5     		push	{r4, lr}
 388              		.cfi_def_cfa_offset 8
ARM GAS  C:\Users\jo\AppData\Local\Temp\ccQTnh5s.s 			page 8


 389              		.cfi_offset 4, -8
 390              		.cfi_offset 14, -4
 391              	.LBB117:
 392              	.LBB118:
 393              	.LBB119:
 394              	.LBB120:
 395              	.LBB121:
 396              		.file 4 "../../../os/ext/CMSIS/include/core_cmFunc.h"
 397              		.loc 4 546 0
 398 0002 2023     		movs	r3, #32
 399              	@ 546 "../../../os/ext/CMSIS/include/core_cmFunc.h" 1
 400 0004 83F31188 		MSR basepri, r3
 401              	@ 0 "" 2
 402              		.thumb
 403              	.LBE121:
 404              	.LBE120:
 405              	.LBE119:
 406              		.file 5 "../../../os/rt/include/chsys.h"
 407              		.loc 5 300 0
 408 0008 FFF7FEFF 		bl	_stats_start_measure_crit_thd
 409              	.LVL37:
 410              		.loc 5 301 0
 411 000c FFF7FEFF 		bl	_dbg_check_lock
 412              	.LVL38:
 413              	.LBE118:
 414              	.LBE117:
 415              	.LBB122:
 416              	.LBB123:
 417              	.LBB124:
 418              	.LBB125:
 419              		.file 6 "../../../os/hal/ports/STM32/LLD/TIMv1/st_lld.h"
 420              		.loc 6 128 0
 421 0010 4FF08043 		mov	r3, #1073741824
 422 0014 5C6A     		ldr	r4, [r3, #36]
 423              	.LBE125:
 424              	.LBE124:
 425              	.LBE123:
 426              	.LBE122:
 427              	.LBB126:
 428              	.LBB127:
 429              		.loc 5 311 0
 430 0016 FFF7FEFF 		bl	_dbg_check_unlock
 431              	.LVL39:
 432              		.loc 5 312 0
 433 001a FFF7FEFF 		bl	_stats_stop_measure_crit_thd
 434              	.LVL40:
 435              		.loc 5 318 0
 436 001e 074B     		ldr	r3, .L24
 437 0020 9A69     		ldr	r2, [r3, #24]
 438 0022 1B68     		ldr	r3, [r3]
 439 0024 9268     		ldr	r2, [r2, #8]
 440 0026 9B68     		ldr	r3, [r3, #8]
 441 0028 9A42     		cmp	r2, r3
 442 002a 02D2     		bcs	.L22
 443 002c 0448     		ldr	r0, .L24+4
 444 002e FFF7FEFF 		bl	chSysHalt
 445              	.LVL41:
ARM GAS  C:\Users\jo\AppData\Local\Temp\ccQTnh5s.s 			page 9


 446              	.L22:
 447              	.LBB128:
 448              	.LBB129:
 449              	.LBB130:
 450              		.loc 4 546 0
 451 0032 0023     		movs	r3, #0
 452              	@ 546 "../../../os/ext/CMSIS/include/core_cmFunc.h" 1
 453 0034 83F31188 		MSR basepri, r3
 454              	@ 0 "" 2
 455              		.thumb
 456              	.LBE130:
 457              	.LBE129:
 458              	.LBE128:
 459              	.LBE127:
 460              	.LBE126:
 461              		.loc 3 253 0
 462 0038 2046     		mov	r0, r4
 463 003a 10BD     		pop	{r4, pc}
 464              	.L25:
 465              		.align	2
 466              	.L24:
 467 003c 00000000 		.word	ch
 468 0040 00000000 		.word	.LANCHOR3
 469              		.cfi_endproc
 470              	.LFE165:
 471              		.size	chVTGetSystemTime, .-chVTGetSystemTime
 472 0044 AFF30080 		.section	.text.evt3_execute,"ax",%progbits
 472      AFF30080 
 472      AFF30080 
 473              		.align	2
 474              		.p2align 4,,15
 475              		.thumb
 476              		.thumb_func
 477              		.type	evt3_execute, %function
 478              	evt3_execute:
 479              	.LFB236:
 480              		.loc 1 254 0
 481              		.cfi_startproc
 482              		@ args = 0, pretend = 0, frame = 0
 483              		@ frame_needed = 0, uses_anonymous_args = 0
 484 0000 08B5     		push	{r3, lr}
 485              		.cfi_def_cfa_offset 8
 486              		.cfi_offset 3, -8
 487              		.cfi_offset 14, -4
 488              		.loc 1 260 0
 489 0002 0021     		movs	r1, #0
 490 0004 4FF0FF30 		mov	r0, #-1
 491 0008 FFF7FEFF 		bl	chEvtWaitOneTimeout
 492              	.LVL42:
 493              		.loc 1 261 0
 494 000c B0FA80F1 		clz	r1, r0
 495 0010 0120     		movs	r0, #1
 496              	.LVL43:
 497 0012 4909     		lsrs	r1, r1, #5
 498 0014 FFF7FEFF 		bl	_test_assert
 499              	.LVL44:
 500 0018 00B1     		cbz	r0, .L31
ARM GAS  C:\Users\jo\AppData\Local\Temp\ccQTnh5s.s 			page 10


 501              	.L26:
 502 001a 08BD     		pop	{r3, pc}
 503              	.L31:
 504              		.loc 1 262 0
 505 001c 0146     		mov	r1, r0
 506 001e 4FF0FF30 		mov	r0, #-1
 507 0022 FFF7FEFF 		bl	chEvtWaitAnyTimeout
 508              	.LVL45:
 509              		.loc 1 263 0
 510 0026 B0FA80F1 		clz	r1, r0
 511 002a 0220     		movs	r0, #2
 512              	.LVL46:
 513 002c 4909     		lsrs	r1, r1, #5
 514 002e FFF7FEFF 		bl	_test_assert
 515              	.LVL47:
 516 0032 0028     		cmp	r0, #0
 517 0034 F1D1     		bne	.L26
 518              		.loc 1 264 0
 519 0036 0146     		mov	r1, r0
 520 0038 4FF0FF30 		mov	r0, #-1
 521 003c FFF7FEFF 		bl	chEvtWaitAllTimeout
 522              	.LVL48:
 523              		.loc 1 265 0
 524 0040 B0FA80F1 		clz	r1, r0
 525 0044 0320     		movs	r0, #3
 526              	.LVL49:
 527 0046 4909     		lsrs	r1, r1, #5
 528 0048 FFF7FEFF 		bl	_test_assert
 529              	.LVL50:
 530 004c 0028     		cmp	r0, #0
 531 004e E4D1     		bne	.L26
 532              	.LBB133:
 533              	.LBB134:
 534              		.loc 1 266 0
 535 0050 0A21     		movs	r1, #10
 536 0052 4FF0FF30 		mov	r0, #-1
 537 0056 FFF7FEFF 		bl	chEvtWaitOneTimeout
 538              	.LVL51:
 539              		.loc 1 267 0
 540 005a B0FA80F1 		clz	r1, r0
 541 005e 0420     		movs	r0, #4
 542              	.LVL52:
 543 0060 4909     		lsrs	r1, r1, #5
 544 0062 FFF7FEFF 		bl	_test_assert
 545              	.LVL53:
 546 0066 0028     		cmp	r0, #0
 547 0068 D7D1     		bne	.L26
 548              		.loc 1 268 0
 549 006a 0A21     		movs	r1, #10
 550 006c 4FF0FF30 		mov	r0, #-1
 551 0070 FFF7FEFF 		bl	chEvtWaitAnyTimeout
 552              	.LVL54:
 553              		.loc 1 269 0
 554 0074 B0FA80F1 		clz	r1, r0
 555 0078 0520     		movs	r0, #5
 556              	.LVL55:
 557 007a 4909     		lsrs	r1, r1, #5
ARM GAS  C:\Users\jo\AppData\Local\Temp\ccQTnh5s.s 			page 11


 558 007c FFF7FEFF 		bl	_test_assert
 559              	.LVL56:
 560 0080 0028     		cmp	r0, #0
 561 0082 CAD1     		bne	.L26
 562              		.loc 1 270 0
 563 0084 0A21     		movs	r1, #10
 564 0086 4FF0FF30 		mov	r0, #-1
 565 008a FFF7FEFF 		bl	chEvtWaitAllTimeout
 566              	.LVL57:
 567              	.LBE134:
 568              	.LBE133:
 569              		.loc 1 272 0
 570 008e BDE80840 		pop	{r3, lr}
 571              		.cfi_restore 14
 572              		.cfi_restore 3
 573              		.cfi_def_cfa_offset 0
 574              	.LBB136:
 575              	.LBB135:
 576              		.loc 1 271 0
 577 0092 B0FA80F1 		clz	r1, r0
 578 0096 0620     		movs	r0, #6
 579              	.LVL58:
 580 0098 4909     		lsrs	r1, r1, #5
 581 009a FFF7FEBF 		b	_test_assert
 582              	.LVL59:
 583              	.LBE135:
 584              	.LBE136:
 585              		.cfi_endproc
 586              	.LFE236:
 587              		.size	evt3_execute, .-evt3_execute
 588 009e 00BF     		.section	.text.evt2_execute,"ax",%progbits
 589              		.align	2
 590              		.p2align 4,,15
 591              		.thumb
 592              		.thumb_func
 593              		.type	evt2_execute, %function
 594              	evt2_execute:
 595              	.LFB234:
 596              		.loc 1 149 0
 597              		.cfi_startproc
 598              		@ args = 0, pretend = 0, frame = 40
 599              		@ frame_needed = 0, uses_anonymous_args = 0
 600 0000 2DE9F041 		push	{r4, r5, r6, r7, r8, lr}
 601              		.cfi_def_cfa_offset 24
 602              		.cfi_offset 4, -24
 603              		.cfi_offset 5, -20
 604              		.cfi_offset 6, -16
 605              		.cfi_offset 7, -12
 606              		.cfi_offset 8, -8
 607              		.cfi_offset 14, -4
 608              		.loc 1 157 0
 609 0004 0720     		movs	r0, #7
 610              		.loc 1 149 0
 611 0006 8CB0     		sub	sp, sp, #48
 612              		.cfi_def_cfa_offset 72
 613              		.loc 1 157 0
 614 0008 FFF7FEFF 		bl	chEvtAddEvents
ARM GAS  C:\Users\jo\AppData\Local\Temp\ccQTnh5s.s 			page 12


 615              	.LVL60:
 616              		.loc 1 158 0
 617 000c 4FF0FF30 		mov	r0, #-1
 618 0010 FFF7FEFF 		bl	chEvtWaitOne
 619              	.LVL61:
 620              		.loc 1 159 0
 621 0014 A0F10101 		sub	r1, r0, #1
 622 0018 0120     		movs	r0, #1
 623              	.LVL62:
 624 001a B1FA81F1 		clz	r1, r1
 625              	.LVL63:
 626 001e 4909     		lsrs	r1, r1, #5
 627 0020 FFF7FEFF 		bl	_test_assert
 628              	.LVL64:
 629 0024 10B1     		cbz	r0, .L37
 630              	.L32:
 631              		.loc 1 224 0
 632 0026 0CB0     		add	sp, sp, #48
 633              		.cfi_remember_state
 634              		.cfi_def_cfa_offset 24
 635              		@ sp needed
 636 0028 BDE8F081 		pop	{r4, r5, r6, r7, r8, pc}
 637              	.L37:
 638              		.cfi_restore_state
 639              		.loc 1 160 0
 640 002c 4FF0FF30 		mov	r0, #-1
 641 0030 FFF7FEFF 		bl	chEvtWaitOne
 642              	.LVL65:
 643              		.loc 1 161 0
 644 0034 A0F10201 		sub	r1, r0, #2
 645 0038 0220     		movs	r0, #2
 646              	.LVL66:
 647 003a B1FA81F1 		clz	r1, r1
 648              	.LVL67:
 649 003e 4909     		lsrs	r1, r1, #5
 650 0040 FFF7FEFF 		bl	_test_assert
 651              	.LVL68:
 652 0044 0028     		cmp	r0, #0
 653 0046 EED1     		bne	.L32
 654              		.loc 1 162 0
 655 0048 4FF0FF30 		mov	r0, #-1
 656 004c FFF7FEFF 		bl	chEvtWaitOne
 657              	.LVL69:
 658              		.loc 1 163 0
 659 0050 A0F10401 		sub	r1, r0, #4
 660 0054 0320     		movs	r0, #3
 661              	.LVL70:
 662 0056 B1FA81F1 		clz	r1, r1
 663              	.LVL71:
 664 005a 4909     		lsrs	r1, r1, #5
 665 005c FFF7FEFF 		bl	_test_assert
 666              	.LVL72:
 667 0060 0028     		cmp	r0, #0
 668 0062 E0D1     		bne	.L32
 669              		.loc 1 164 0
 670 0064 4FF0FF30 		mov	r0, #-1
 671 0068 FFF7FEFF 		bl	chEvtGetAndClearEvents
ARM GAS  C:\Users\jo\AppData\Local\Temp\ccQTnh5s.s 			page 13


 672              	.LVL73:
 673              		.loc 1 165 0
 674 006c B0FA80F1 		clz	r1, r0
 675 0070 0420     		movs	r0, #4
 676              	.LVL74:
 677 0072 4909     		lsrs	r1, r1, #5
 678 0074 FFF7FEFF 		bl	_test_assert
 679              	.LVL75:
 680 0078 0028     		cmp	r0, #0
 681 007a D4D1     		bne	.L32
 682              		.loc 1 170 0
 683 007c FFF7FEFF 		bl	test_wait_tick
 684              	.LVL76:
 685              	.LBB177:
 686              	.LBB178:
 687              	.LBB179:
 688              	.LBB180:
 689              	.LBB181:
 690              	.LBB182:
 691              	.LBB183:
 692              		.loc 4 546 0
 693 0080 2023     		movs	r3, #32
 694              	@ 546 "../../../os/ext/CMSIS/include/core_cmFunc.h" 1
 695 0082 83F31188 		MSR basepri, r3
 696              	@ 0 "" 2
 697              		.thumb
 698              	.LBE183:
 699              	.LBE182:
 700              	.LBE181:
 701              		.loc 5 300 0
 702 0086 FFF7FEFF 		bl	_stats_start_measure_crit_thd
 703              	.LVL77:
 704              	.LBE180:
 705              	.LBE179:
 706              	.LBB185:
 707              	.LBB186:
 708              		.loc 5 318 0
 709 008a 7E4C     		ldr	r4, .L38
 710              	.LBE186:
 711              	.LBE185:
 712              	.LBB191:
 713              	.LBB184:
 714              		.loc 5 301 0
 715 008c FFF7FEFF 		bl	_dbg_check_lock
 716              	.LVL78:
 717              	.LBE184:
 718              	.LBE191:
 719              	.LBB192:
 720              	.LBB193:
 721              	.LBB194:
 722              	.LBB195:
 723              		.loc 6 128 0
 724 0090 4FF08043 		mov	r3, #1073741824
 725 0094 5D6A     		ldr	r5, [r3, #36]
 726              	.LBE195:
 727              	.LBE194:
 728              	.LBE193:
ARM GAS  C:\Users\jo\AppData\Local\Temp\ccQTnh5s.s 			page 14


 729              	.LBE192:
 730              	.LBB196:
 731              	.LBB190:
 732              		.loc 5 311 0
 733 0096 FFF7FEFF 		bl	_dbg_check_unlock
 734              	.LVL79:
 735              		.loc 5 312 0
 736 009a FFF7FEFF 		bl	_stats_stop_measure_crit_thd
 737              	.LVL80:
 738              		.loc 5 318 0
 739 009e A269     		ldr	r2, [r4, #24]
 740 00a0 2368     		ldr	r3, [r4]
 741 00a2 9268     		ldr	r2, [r2, #8]
 742 00a4 9B68     		ldr	r3, [r3, #8]
 743 00a6 9A42     		cmp	r2, r3
 744 00a8 02D2     		bcs	.L34
 745 00aa 7748     		ldr	r0, .L38+4
 746 00ac FFF7FEFF 		bl	chSysHalt
 747              	.LVL81:
 748              	.L34:
 749              	.LBB187:
 750              	.LBB188:
 751              	.LBB189:
 752              		.loc 4 546 0
 753 00b0 0023     		movs	r3, #0
 754              	@ 546 "../../../os/ext/CMSIS/include/core_cmFunc.h" 1
 755 00b2 83F31188 		MSR basepri, r3
 756              	@ 0 "" 2
 757              	.LVL82:
 758              		.thumb
 759              	.LBE189:
 760              	.LBE188:
 761              	.LBE187:
 762              	.LBE190:
 763              	.LBE196:
 764              	.LBE178:
 765              	.LBE177:
 766              		.loc 1 172 0
 767 00b6 754B     		ldr	r3, .L38+8
 768              	.LBB197:
 769              	.LBB198:
 770              	.LBB199:
 771              	.LBB200:
 772              		.file 7 "../../../os/rt/include/chthreads.h"
 773              		.loc 7 179 0
 774 00b8 A169     		ldr	r1, [r4, #24]
 775              	.LBE200:
 776              	.LBE199:
 777              	.LBE198:
 778              	.LBE197:
 779              		.loc 1 172 0
 780 00ba 1E68     		ldr	r6, [r3]
 781 00bc 8A68     		ldr	r2, [r1, #8]
 782 00be 744B     		ldr	r3, .L38+12
 783 00c0 0091     		str	r1, [sp]
 784 00c2 013A     		subs	r2, r2, #1
 785 00c4 4FF4B471 		mov	r1, #360
ARM GAS  C:\Users\jo\AppData\Local\Temp\ccQTnh5s.s 			page 15


 786 00c8 3046     		mov	r0, r6
 787 00ca FFF7FEFF 		bl	chThdCreateStatic
 788              	.LVL83:
 789 00ce 714C     		ldr	r4, .L38+16
 790              	.LBB204:
 791              	.LBB203:
 792              	.LBB202:
 793              	.LBB201:
 794              		.loc 7 179 0
 795 00d0 6C4F     		ldr	r7, .L38
 796              	.LBE201:
 797              	.LBE202:
 798              	.LBE203:
 799              	.LBE204:
 800              		.loc 1 172 0
 801 00d2 2060     		str	r0, [r4]
 802              		.loc 1 174 0
 803 00d4 4FF0FF30 		mov	r0, #-1
 804 00d8 FFF7FEFF 		bl	chEvtWaitOne
 805              	.LVL84:
 806              		.loc 1 175 0
 807 00dc 05F5FA71 		add	r1, r5, #500
 808              	.LVL85:
 809              		.loc 1 174 0
 810 00e0 8046     		mov	r8, r0
 811              	.LVL86:
 812              		.loc 1 175 0
 813 00e2 05F22622 		addw	r2, r5, #550
 814 00e6 0520     		movs	r0, #5
 815              	.LVL87:
 816 00e8 FFF7FEFF 		bl	_test_assert_time_window
 817              	.LVL88:
 818 00ec 0028     		cmp	r0, #0
 819 00ee 9AD1     		bne	.L32
 820              		.loc 1 176 0
 821 00f0 A8F10101 		sub	r1, r8, #1
 822 00f4 0620     		movs	r0, #6
 823 00f6 B1FA81F1 		clz	r1, r1
 824 00fa 4909     		lsrs	r1, r1, #5
 825 00fc FFF7FEFF 		bl	_test_assert
 826              	.LVL89:
 827 0100 0028     		cmp	r0, #0
 828 0102 90D1     		bne	.L32
 829              		.loc 1 177 0
 830 0104 4FF0FF30 		mov	r0, #-1
 831 0108 FFF7FEFF 		bl	chEvtGetAndClearEvents
 832              	.LVL90:
 833              		.loc 1 178 0
 834 010c B0FA80F1 		clz	r1, r0
 835 0110 0720     		movs	r0, #7
 836              	.LVL91:
 837 0112 4909     		lsrs	r1, r1, #5
 838 0114 FFF7FEFF 		bl	_test_assert
 839              	.LVL92:
 840 0118 0028     		cmp	r0, #0
 841 011a 84D1     		bne	.L32
 842              		.loc 1 179 0
ARM GAS  C:\Users\jo\AppData\Local\Temp\ccQTnh5s.s 			page 16


 843 011c FFF7FEFF 		bl	test_wait_threads
 844              	.LVL93:
 845              		.loc 1 184 0
 846 0120 0520     		movs	r0, #5
 847 0122 FFF7FEFF 		bl	chEvtAddEvents
 848              	.LVL94:
 849              		.loc 1 185 0
 850 0126 4FF0FF30 		mov	r0, #-1
 851 012a FFF7FEFF 		bl	chEvtWaitAny
 852              	.LVL95:
 853              		.loc 1 186 0
 854 012e 451F     		subs	r5, r0, #5
 855              	.LVL96:
 856 0130 6942     		rsbs	r1, r5, #0
 857 0132 6941     		adcs	r1, r1, r5
 858 0134 0820     		movs	r0, #8
 859              	.LVL97:
 860 0136 FFF7FEFF 		bl	_test_assert
 861              	.LVL98:
 862 013a 0028     		cmp	r0, #0
 863 013c 7FF473AF 		bne	.L32
 864              		.loc 1 187 0
 865 0140 4FF0FF30 		mov	r0, #-1
 866 0144 FFF7FEFF 		bl	chEvtGetAndClearEvents
 867              	.LVL99:
 868              		.loc 1 188 0
 869 0148 B0FA80F1 		clz	r1, r0
 870 014c 0920     		movs	r0, #9
 871              	.LVL100:
 872 014e 4909     		lsrs	r1, r1, #5
 873 0150 FFF7FEFF 		bl	_test_assert
 874              	.LVL101:
 875 0154 0028     		cmp	r0, #0
 876 0156 7FF466AF 		bne	.L32
 877              		.loc 1 193 0
 878 015a FFF7FEFF 		bl	test_wait_tick
 879              	.LVL102:
 880              		.loc 1 194 0
 881 015e FFF7FEFF 		bl	chVTGetSystemTime
 882              	.LVL103:
 883              	.LBB205:
 884              	.LBB206:
 885              	.LBB207:
 886              	.LBB208:
 887              		.loc 7 179 0
 888 0162 B969     		ldr	r1, [r7, #24]
 889              	.LBE208:
 890              	.LBE207:
 891              	.LBE206:
 892              	.LBE205:
 893              		.loc 1 195 0
 894 0164 4A4B     		ldr	r3, .L38+12
 895 0166 8A68     		ldr	r2, [r1, #8]
 896 0168 0091     		str	r1, [sp]
 897              		.loc 1 194 0
 898 016a 0546     		mov	r5, r0
 899              	.LVL104:
ARM GAS  C:\Users\jo\AppData\Local\Temp\ccQTnh5s.s 			page 17


 900              		.loc 1 195 0
 901 016c 013A     		subs	r2, r2, #1
 902 016e 4FF4B471 		mov	r1, #360
 903 0172 3046     		mov	r0, r6
 904              	.LVL105:
 905 0174 FFF7FEFF 		bl	chThdCreateStatic
 906              	.LVL106:
 907 0178 2060     		str	r0, [r4]
 908              		.loc 1 197 0
 909 017a 4FF0FF30 		mov	r0, #-1
 910 017e FFF7FEFF 		bl	chEvtWaitAny
 911              	.LVL107:
 912              		.loc 1 198 0
 913 0182 05F5FA71 		add	r1, r5, #500
 914              	.LVL108:
 915              		.loc 1 197 0
 916 0186 8046     		mov	r8, r0
 917              	.LVL109:
 918              		.loc 1 198 0
 919 0188 05F22622 		addw	r2, r5, #550
 920 018c 0A20     		movs	r0, #10
 921              	.LVL110:
 922 018e FFF7FEFF 		bl	_test_assert_time_window
 923              	.LVL111:
 924 0192 0028     		cmp	r0, #0
 925 0194 7FF447AF 		bne	.L32
 926              		.loc 1 199 0
 927 0198 08F1FF30 		add	r0, r8, #-1
 928 019c 4142     		rsbs	r1, r0, #0
 929 019e 4141     		adcs	r1, r1, r0
 930 01a0 0B20     		movs	r0, #11
 931 01a2 FFF7FEFF 		bl	_test_assert
 932              	.LVL112:
 933 01a6 0028     		cmp	r0, #0
 934 01a8 7FF43DAF 		bne	.L32
 935              		.loc 1 200 0
 936 01ac 4FF0FF30 		mov	r0, #-1
 937 01b0 FFF7FEFF 		bl	chEvtGetAndClearEvents
 938              	.LVL113:
 939              		.loc 1 201 0
 940 01b4 B0FA80F1 		clz	r1, r0
 941 01b8 0C20     		movs	r0, #12
 942              	.LVL114:
 943 01ba 4909     		lsrs	r1, r1, #5
 944 01bc FFF7FEFF 		bl	_test_assert
 945              	.LVL115:
 946 01c0 0028     		cmp	r0, #0
 947 01c2 7FF430AF 		bne	.L32
 948              	.LBB209:
 949              	.LBB210:
 950              		.loc 2 172 0
 951 01c6 344D     		ldr	r5, .L38+20
 952              	.LVL116:
 953              	.LBE210:
 954              	.LBE209:
 955              	.LBB212:
 956              	.LBB213:
ARM GAS  C:\Users\jo\AppData\Local\Temp\ccQTnh5s.s 			page 18


 957 01c8 DFF8D880 		ldr	r8, .L38+32
 958              	.LBE213:
 959              	.LBE212:
 960              		.loc 1 202 0
 961 01cc FFF7FEFF 		bl	test_wait_threads
 962              	.LVL117:
 963              	.LBB215:
 964              	.LBB216:
 965              		.loc 2 193 0
 966 01d0 2846     		mov	r0, r5
 967 01d2 02A9     		add	r1, sp, #8
 968 01d4 0122     		movs	r2, #1
 969 01d6 4FF0FF33 		mov	r3, #-1
 970              	.LBE216:
 971              	.LBE215:
 972              	.LBB218:
 973              	.LBB214:
 974              		.loc 2 172 0
 975 01da C8F80080 		str	r8, [r8]
 976              	.LBE214:
 977              	.LBE218:
 978              	.LBB219:
 979              	.LBB211:
 980 01de 2D60     		str	r5, [r5]
 981              	.LVL118:
 982              	.LBE211:
 983              	.LBE219:
 984              	.LBB220:
 985              	.LBB217:
 986              		.loc 2 193 0
 987 01e0 FFF7FEFF 		bl	chEvtRegisterMaskWithFlags
 988              	.LVL119:
 989              	.LBE217:
 990              	.LBE220:
 991              	.LBB221:
 992              	.LBB222:
 993 01e4 07A9     		add	r1, sp, #28
 994              	.LVL120:
 995 01e6 0422     		movs	r2, #4
 996 01e8 4FF0FF33 		mov	r3, #-1
 997 01ec 4046     		mov	r0, r8
 998 01ee FFF7FEFF 		bl	chEvtRegisterMaskWithFlags
 999              	.LVL121:
 1000              	.LBE222:
 1001              	.LBE221:
 1002              		.loc 1 211 0
 1003 01f2 FFF7FEFF 		bl	test_wait_tick
 1004              	.LVL122:
 1005              		.loc 1 212 0
 1006 01f6 FFF7FEFF 		bl	chVTGetSystemTime
 1007              	.LVL123:
 1008              	.LBB223:
 1009              	.LBB224:
 1010              		.loc 7 192 0
 1011 01fa BB69     		ldr	r3, [r7, #24]
 1012              	.LBE224:
 1013              	.LBE223:
ARM GAS  C:\Users\jo\AppData\Local\Temp\ccQTnh5s.s 			page 19


 1014              		.loc 1 213 0
 1015 01fc 2749     		ldr	r1, .L38+24
 1016 01fe 9A68     		ldr	r2, [r3, #8]
 1017 0200 274B     		ldr	r3, .L38+28
 1018 0202 0091     		str	r1, [sp]
 1019              		.loc 1 212 0
 1020 0204 8046     		mov	r8, r0
 1021              	.LVL124:
 1022              		.loc 1 213 0
 1023 0206 013A     		subs	r2, r2, #1
 1024 0208 4FF4B471 		mov	r1, #360
 1025 020c 3046     		mov	r0, r6
 1026              	.LVL125:
 1027 020e FFF7FEFF 		bl	chThdCreateStatic
 1028              	.LVL126:
 1029 0212 2060     		str	r0, [r4]
 1030              		.loc 1 215 0
 1031 0214 0520     		movs	r0, #5
 1032 0216 FFF7FEFF 		bl	chEvtWaitAll
 1033              	.LVL127:
 1034              		.loc 1 216 0
 1035 021a 08F5FA71 		add	r1, r8, #500
 1036              	.LVL128:
 1037 021e 08F22622 		addw	r2, r8, #550
 1038 0222 0D20     		movs	r0, #13
 1039 0224 FFF7FEFF 		bl	_test_assert_time_window
 1040              	.LVL129:
 1041 0228 0028     		cmp	r0, #0
 1042 022a 7FF4FCAE 		bne	.L32
 1043              		.loc 1 217 0
 1044 022e 4FF0FF30 		mov	r0, #-1
 1045 0232 FFF7FEFF 		bl	chEvtGetAndClearEvents
 1046              	.LVL130:
 1047              		.loc 1 218 0
 1048 0236 B0FA80F1 		clz	r1, r0
 1049 023a 0E20     		movs	r0, #14
 1050              	.LVL131:
 1051 023c 4909     		lsrs	r1, r1, #5
 1052 023e FFF7FEFF 		bl	_test_assert
 1053              	.LVL132:
 1054 0242 0028     		cmp	r0, #0
 1055 0244 7FF4EFAE 		bne	.L32
 1056              		.loc 1 221 0
 1057 0248 164C     		ldr	r4, .L38+32
 1058              		.loc 1 219 0
 1059 024a FFF7FEFF 		bl	test_wait_threads
 1060              	.LVL133:
 1061              		.loc 1 220 0
 1062 024e 02A9     		add	r1, sp, #8
 1063              	.LVL134:
 1064 0250 2846     		mov	r0, r5
 1065 0252 FFF7FEFF 		bl	chEvtUnregister
 1066              	.LVL135:
 1067              		.loc 1 221 0
 1068 0256 07A9     		add	r1, sp, #28
 1069              	.LVL136:
 1070 0258 2046     		mov	r0, r4
ARM GAS  C:\Users\jo\AppData\Local\Temp\ccQTnh5s.s 			page 20


 1071 025a FFF7FEFF 		bl	chEvtUnregister
 1072              	.LVL137:
 1073              		.loc 1 222 0
 1074 025e 2968     		ldr	r1, [r5]
 1075 0260 4A1B     		subs	r2, r1, r5
 1076 0262 5142     		rsbs	r1, r2, #0
 1077 0264 5141     		adcs	r1, r1, r2
 1078 0266 0F20     		movs	r0, #15
 1079 0268 FFF7FEFF 		bl	_test_assert
 1080              	.LVL138:
 1081 026c 0028     		cmp	r0, #0
 1082 026e 7FF4DAAE 		bne	.L32
 1083              	.LVL139:
 1084              		.loc 1 223 0
 1085 0272 2168     		ldr	r1, [r4]
 1086 0274 0B1B     		subs	r3, r1, r4
 1087 0276 5942     		rsbs	r1, r3, #0
 1088 0278 5941     		adcs	r1, r1, r3
 1089 027a 1020     		movs	r0, #16
 1090 027c FFF7FEFF 		bl	_test_assert
 1091              	.LVL140:
 1092 0280 D1E6     		b	.L32
 1093              	.L39:
 1094 0282 00BF     		.align	2
 1095              	.L38:
 1096 0284 00000000 		.word	ch
 1097 0288 00000000 		.word	.LANCHOR3
 1098 028c 00000000 		.word	wa
 1099 0290 00000000 		.word	thread1
 1100 0294 00000000 		.word	threads
 1101 0298 00000000 		.word	.LANCHOR0
 1102 029c 04000000 		.word	.LC1
 1103 02a0 00000000 		.word	thread2
 1104 02a4 00000000 		.word	.LANCHOR2
 1105              		.cfi_endproc
 1106              	.LFE234:
 1107              		.size	evt2_execute, .-evt2_execute
 1108              		.global	patternevt
 1109              		.global	testevt3
 1110              		.global	testevt2
 1111              		.global	testevt1
 1112 02a8 AFF30080 		.section	.rodata.patternevt,"a",%progbits
 1112      AFF30080 
 1113              		.align	2
 1114              		.type	patternevt, %object
 1115              		.size	patternevt, 16
 1116              	patternevt:
 1117 0000 00000000 		.word	testevt1
 1118 0004 00000000 		.word	testevt2
 1119 0008 00000000 		.word	testevt3
 1120 000c 00000000 		.word	0
 1121              		.section	.rodata.testevt2,"a",%progbits
 1122              		.align	2
 1123              		.type	testevt2, %object
 1124              		.size	testevt2, 16
 1125              	testevt2:
 1126 0000 1C000000 		.word	.LC3
ARM GAS  C:\Users\jo\AppData\Local\Temp\ccQTnh5s.s 			page 21


 1127 0004 00000000 		.word	evt2_setup
 1128 0008 00000000 		.word	0
 1129 000c 00000000 		.word	evt2_execute
 1130              		.section	.rodata.str1.4,"aMS",%progbits,1
 1131              		.align	2
 1132              	.LC0:
 1133 0000 41424300 		.ascii	"ABC\000"
 1134              	.LC1:
 1135 0004 4100     		.ascii	"A\000"
 1136 0006 0000     		.space	2
 1137              	.LC2:
 1138 0008 4576656E 		.ascii	"Events, timeouts\000"
 1138      74732C20 
 1138      74696D65 
 1138      6F757473 
 1138      00
 1139 0019 000000   		.space	3
 1140              	.LC3:
 1141 001c 4576656E 		.ascii	"Events, wait and broadcast\000"
 1141      74732C20 
 1141      77616974 
 1141      20616E64 
 1141      2062726F 
 1142 0037 00       		.space	1
 1143              	.LC4:
 1144 0038 4576656E 		.ascii	"Events, registration and dispatch\000"
 1144      74732C20 
 1144      72656769 
 1144      73747261 
 1144      74696F6E 
 1145 005a 0000     		.section	.rodata.testevt1,"a",%progbits
 1146              		.align	2
 1147              		.type	testevt1, %object
 1148              		.size	testevt1, 16
 1149              	testevt1:
 1150 0000 38000000 		.word	.LC4
 1151 0004 00000000 		.word	evt1_setup
 1152 0008 00000000 		.word	0
 1153 000c 00000000 		.word	evt1_execute
 1154              		.section	.rodata.evhndl,"a",%progbits
 1155              		.align	2
 1156              		.set	.LANCHOR1,. + 0
 1157              		.type	evhndl, %object
 1158              		.size	evhndl, 12
 1159              	evhndl:
 1160 0000 00000000 		.word	h1
 1161 0004 00000000 		.word	h2
 1162 0008 00000000 		.word	h3
 1163              		.section	.rodata.testevt3,"a",%progbits
 1164              		.align	2
 1165              		.type	testevt3, %object
 1166              		.size	testevt3, 16
 1167              	testevt3:
 1168 0000 08000000 		.word	.LC2
 1169 0004 00000000 		.word	evt3_setup
 1170 0008 00000000 		.word	0
 1171 000c 00000000 		.word	evt3_execute
ARM GAS  C:\Users\jo\AppData\Local\Temp\ccQTnh5s.s 			page 22


 1172              		.section	.rodata.__func__.5870,"a",%progbits
 1173              		.align	2
 1174              		.set	.LANCHOR3,. + 0
 1175              		.type	__func__.5870, %object
 1176              		.size	__func__.5870, 12
 1177              	__func__.5870:
 1178 0000 63685379 		.ascii	"chSysUnlock\000"
 1178      73556E6C 
 1178      6F636B00 
 1179              		.section	.data.es1,"aw",%progbits
 1180              		.align	2
 1181              		.set	.LANCHOR0,. + 0
 1182              		.type	es1, %object
 1183              		.size	es1, 4
 1184              	es1:
 1185 0000 00000000 		.word	es1
 1186              		.section	.data.es2,"aw",%progbits
 1187              		.align	2
 1188              		.set	.LANCHOR2,. + 0
 1189              		.type	es2, %object
 1190              		.size	es2, 4
 1191              	es2:
 1192 0000 00000000 		.word	es2
 1193              		.text
 1194              	.Letext0:
 1195              		.file 8 "c:\\program files\\gnu tools arm embedded\\4.9 2014q4\\lib\\gcc\\arm-none-eabi\\4.9.3\\in
 1196              		.file 9 "c:\\program files\\gnu tools arm embedded\\4.9 2014q4\\arm-none-eabi\\include\\machine\\_
 1197              		.file 10 "c:\\program files\\gnu tools arm embedded\\4.9 2014q4\\arm-none-eabi\\include\\stdint.h"
 1198              		.file 11 "../../../os/rt/ports/ARMCMx/compilers/GCC/chtypes.h"
 1199              		.file 12 "../../../os/rt/include/chsystypes.h"
 1200              		.file 13 "../../../os/rt/include/chschd.h"
 1201              		.file 14 "../../../os/rt/ports/ARMCMx/chcore.h"
 1202              		.file 15 "../../../os/rt/ports/ARMCMx/chcore_v7m.h"
 1203              		.file 16 "../../../os/hal/ports/STM32/LLD/TIMv1/stm32_tim.h"
 1204              		.file 17 "../../../os/rt/include/chdebug.h"
 1205              		.file 18 "../../../os/rt/include/chtm.h"
 1206              		.file 19 "../../../os/rt/include/chstats.h"
 1207              		.file 20 "../../../os/rt/include/chmtx.h"
 1208              		.file 21 "../../../test/rt/test.h"
 1209              		.file 22 "../../../os/rt/ports/ARMCMx/chcore_timer.h"
 1210              		.file 23 "../../../os/ext/CMSIS/include/core_cm4.h"