ARM GAS  C:\cygwin\tmp\cc4hzV0G.s 			page 1


   1              		.syntax unified
   2              		.cpu cortex-m4
   3              		.fpu softvfp
   4              		.eabi_attribute 20, 1
   5              		.eabi_attribute 21, 1
   6              		.eabi_attribute 23, 3
   7              		.eabi_attribute 24, 1
   8              		.eabi_attribute 25, 1
   9              		.eabi_attribute 26, 1
  10              		.eabi_attribute 30, 2
  11              		.eabi_attribute 34, 1
  12              		.eabi_attribute 18, 4
  13              		.thumb
  14              		.file	"chheap.c"
  15              		.text
  16              	.Ltext0:
  17              		.cfi_sections	.debug_frame
  18              		.section	.text._heap_init,"ax",%progbits
  19              		.align	2
  20              		.p2align 4,,15
  21              		.global	_heap_init
  22              		.thumb
  23              		.thumb_func
  24              		.type	_heap_init, %function
  25              	_heap_init:
  26              	.LFB227:
  27              		.file 1 "../../../../os/rt/src/chheap.c"
  28              		.loc 1 89 0
  29              		.cfi_startproc
  30              		@ args = 0, pretend = 0, frame = 0
  31              		@ frame_needed = 0, uses_anonymous_args = 0
  32              		@ link register save eliminated.
  33              		.loc 1 91 0
  34 0000 044B     		ldr	r3, .L2
  35 0002 054A     		ldr	r2, .L2+4
  36 0004 1A60     		str	r2, [r3]
  37              		.loc 1 95 0
  38 0006 03F11000 		add	r0, r3, #16
  39              		.loc 1 92 0
  40 000a 0022     		movs	r2, #0
  41 000c 9A60     		str	r2, [r3, #8]
  42              		.loc 1 93 0
  43 000e DA60     		str	r2, [r3, #12]
  44              		.loc 1 95 0
  45 0010 FFF7FEBF 		b	chMtxObjectInit
  46              	.LVL0:
  47              	.L3:
  48              		.align	2
  49              	.L2:
  50 0014 00000000 		.word	.LANCHOR0
  51 0018 00000000 		.word	chCoreAlloc
  52              		.cfi_endproc
  53              	.LFE227:
  54              		.size	_heap_init, .-_heap_init
  55 001c AFF30080 		.section	.text.chHeapObjectInit,"ax",%progbits
  56              		.align	2
  57              		.p2align 4,,15
ARM GAS  C:\cygwin\tmp\cc4hzV0G.s 			page 2


  58              		.global	chHeapObjectInit
  59              		.thumb
  60              		.thumb_func
  61              		.type	chHeapObjectInit, %function
  62              	chHeapObjectInit:
  63              	.LFB228:
  64              		.loc 1 112 0
  65              		.cfi_startproc
  66              		@ args = 0, pretend = 0, frame = 0
  67              		@ frame_needed = 0, uses_anonymous_args = 0
  68              		@ link register save eliminated.
  69              	.LVL1:
  70              		.loc 1 117 0
  71 0000 0023     		movs	r3, #0
  72              		.loc 1 121 0
  73 0002 083A     		subs	r2, r2, #8
  74              	.LVL2:
  75              		.loc 1 118 0
  76 0004 8160     		str	r1, [r0, #8]
  77              		.loc 1 117 0
  78 0006 0360     		str	r3, [r0]
  79              	.LVL3:
  80              		.loc 1 119 0
  81 0008 C360     		str	r3, [r0, #12]
  82              		.loc 1 123 0
  83 000a 1030     		adds	r0, r0, #16
  84              	.LVL4:
  85              		.loc 1 121 0
  86 000c 4A60     		str	r2, [r1, #4]
  87              		.loc 1 120 0
  88 000e 0B60     		str	r3, [r1]
  89              		.loc 1 123 0
  90 0010 FFF7FEBF 		b	chMtxObjectInit
  91              	.LVL5:
  92              		.cfi_endproc
  93              	.LFE228:
  94              		.size	chHeapObjectInit, .-chHeapObjectInit
  95 0014 AFF30080 		.section	.text.chHeapAlloc,"ax",%progbits
  95      AFF30080 
  95      AFF30080 
  96              		.align	2
  97              		.p2align 4,,15
  98              		.global	chHeapAlloc
  99              		.thumb
 100              		.thumb_func
 101              		.type	chHeapAlloc, %function
 102              	chHeapAlloc:
 103              	.LFB229:
 104              		.loc 1 145 0
 105              		.cfi_startproc
 106              		@ args = 0, pretend = 0, frame = 0
 107              		@ frame_needed = 0, uses_anonymous_args = 0
 108              	.LVL6:
 109 0000 F8B5     		push	{r3, r4, r5, r6, r7, lr}
 110              		.cfi_def_cfa_offset 24
 111              		.cfi_offset 3, -24
 112              		.cfi_offset 4, -20
ARM GAS  C:\cygwin\tmp\cc4hzV0G.s 			page 3


 113              		.cfi_offset 5, -16
 114              		.cfi_offset 6, -12
 115              		.cfi_offset 7, -8
 116              		.cfi_offset 14, -4
 117              		.loc 1 149 0
 118 0002 214E     		ldr	r6, .L21
 119 0004 0028     		cmp	r0, #0
 120 0006 18BF     		it	ne
 121 0008 0646     		movne	r6, r0
 122              	.LVL7:
 123              		.loc 1 155 0
 124 000a 06F11007 		add	r7, r6, #16
 125              		.loc 1 151 0
 126 000e 0731     		adds	r1, r1, #7
 127              	.LVL8:
 128              		.loc 1 155 0
 129 0010 3846     		mov	r0, r7
 130              		.loc 1 151 0
 131 0012 21F00705 		bic	r5, r1, #7
 132              	.LVL9:
 133              		.loc 1 153 0
 134 0016 06F10804 		add	r4, r6, #8
 135              	.LVL10:
 136              		.loc 1 155 0
 137 001a FFF7FEFF 		bl	chMtxLock
 138              	.LVL11:
 139              		.loc 1 157 0
 140 001e 03E0     		b	.L7
 141              	.LVL12:
 142              	.L11:
 143              		.loc 1 160 0
 144 0020 4368     		ldr	r3, [r0, #4]
 145 0022 9D42     		cmp	r5, r3
 146 0024 12D9     		bls	.L20
 147 0026 0446     		mov	r4, r0
 148              	.LVL13:
 149              	.L7:
 150              		.loc 1 157 0
 151 0028 2068     		ldr	r0, [r4]
 152              	.LVL14:
 153 002a 0028     		cmp	r0, #0
 154 002c F8D1     		bne	.L11
 155              		.loc 1 183 0
 156 002e 3846     		mov	r0, r7
 157              	.LVL15:
 158 0030 FFF7FEFF 		bl	chMtxUnlock
 159              	.LVL16:
 160              		.loc 1 188 0
 161 0034 3368     		ldr	r3, [r6]
 162 0036 2BB3     		cbz	r3, .L13
 163              		.loc 1 189 0
 164 0038 05F10800 		add	r0, r5, #8
 165 003c 9847     		blx	r3
 166              	.LVL17:
 167              		.loc 1 190 0
 168 003e 08B3     		cbz	r0, .L13
 169              		.loc 1 191 0
ARM GAS  C:\cygwin\tmp\cc4hzV0G.s 			page 4


 170 0040 0660     		str	r6, [r0]
 171              		.loc 1 192 0
 172 0042 4560     		str	r5, [r0, #4]
 173              		.loc 1 193 0
 174 0044 00F10804 		add	r4, r0, #8
 175              	.LVL18:
 176              	.L10:
 177              		.loc 1 200 0
 178 0048 2046     		mov	r0, r4
 179 004a F8BD     		pop	{r3, r4, r5, r6, r7, pc}
 180              	.LVL19:
 181              	.L20:
 182              		.loc 1 161 0
 183 004c 05F10802 		add	r2, r5, #8
 184 0050 9A42     		cmp	r2, r3
 185 0052 09D9     		bls	.L8
 186              		.loc 1 165 0
 187 0054 0368     		ldr	r3, [r0]
 188 0056 2360     		str	r3, [r4]
 189              	.L9:
 190              		.loc 1 175 0
 191 0058 0446     		mov	r4, r0
 192              	.LVL20:
 193              		.loc 1 176 0
 194 005a 3846     		mov	r0, r7
 195              	.LVL21:
 196              		.loc 1 175 0
 197 005c 44F8086B 		str	r6, [r4], #8
 198              	.LVL22:
 199              		.loc 1 176 0
 200 0060 FFF7FEFF 		bl	chMtxUnlock
 201              	.LVL23:
 202              		.loc 1 200 0
 203 0064 2046     		mov	r0, r4
 204 0066 F8BD     		pop	{r3, r4, r5, r6, r7, pc}
 205              	.LVL24:
 206              	.L8:
 207 0068 6FF00701 		mvn	r1, #7
 208 006c 491B     		subs	r1, r1, r5
 209              		.loc 1 169 0
 210 006e 00EB020E 		add	lr, r0, r2
 211              	.LVL25:
 212              		.loc 1 171 0
 213 0072 0B44     		add	r3, r3, r1
 214              		.loc 1 170 0
 215 0074 0168     		ldr	r1, [r0]
 216 0076 8150     		str	r1, [r0, r2]
 217              		.loc 1 171 0
 218 0078 CEF80430 		str	r3, [lr, #4]
 219              		.loc 1 172 0
 220 007c C4F800E0 		str	lr, [r4]
 221              		.loc 1 173 0
 222 0080 4560     		str	r5, [r0, #4]
 223 0082 E9E7     		b	.L9
 224              	.LVL26:
 225              	.L13:
 226              		.loc 1 199 0
ARM GAS  C:\cygwin\tmp\cc4hzV0G.s 			page 5


 227 0084 0024     		movs	r4, #0
 228              	.LVL27:
 229 0086 DFE7     		b	.L10
 230              	.L22:
 231              		.align	2
 232              	.L21:
 233 0088 00000000 		.word	.LANCHOR0
 234              		.cfi_endproc
 235              	.LFE229:
 236              		.size	chHeapAlloc, .-chHeapAlloc
 237 008c AFF30080 		.section	.text.chHeapFree,"ax",%progbits
 238              		.align	2
 239              		.p2align 4,,15
 240              		.global	chHeapFree
 241              		.thumb
 242              		.thumb_func
 243              		.type	chHeapFree, %function
 244              	chHeapFree:
 245              	.LFB230:
 246              		.loc 1 213 0
 247              		.cfi_startproc
 248              		@ args = 0, pretend = 0, frame = 0
 249              		@ frame_needed = 0, uses_anonymous_args = 0
 250              	.LVL28:
 251 0000 F8B5     		push	{r3, r4, r5, r6, r7, lr}
 252              		.cfi_def_cfa_offset 24
 253              		.cfi_offset 3, -24
 254              		.cfi_offset 4, -20
 255              		.cfi_offset 5, -16
 256              		.cfi_offset 6, -12
 257              		.cfi_offset 7, -8
 258              		.cfi_offset 14, -4
 259              		.loc 1 220 0
 260 0002 50F8085C 		ldr	r5, [r0, #-8]
 261              		.loc 1 223 0
 262 0006 05F11007 		add	r7, r5, #16
 263              		.loc 1 213 0
 264 000a 0646     		mov	r6, r0
 265              		.loc 1 219 0
 266 000c A0F10804 		sub	r4, r0, #8
 267              	.LVL29:
 268              		.loc 1 221 0
 269 0010 0835     		adds	r5, r5, #8
 270              	.LVL30:
 271              		.loc 1 223 0
 272 0012 3846     		mov	r0, r7
 273              	.LVL31:
 274 0014 FFF7FEFF 		bl	chMtxLock
 275              	.LVL32:
 276              		.loc 1 221 0
 277 0018 2B46     		mov	r3, r5
 278              	.LVL33:
 279              	.L30:
 280              		.loc 1 227 0
 281 001a AB42     		cmp	r3, r5
 282 001c 04D0     		beq	.L24
 283              	.L36:
ARM GAS  C:\cygwin\tmp\cc4hzV0G.s 			page 6


 284              		.loc 1 227 0 is_stmt 0 discriminator 2
 285 001e A342     		cmp	r3, r4
 286 0020 02D3     		bcc	.L24
 287 0022 1B68     		ldr	r3, [r3]
 288              	.LVL34:
 289              		.loc 1 227 0
 290 0024 AB42     		cmp	r3, r5
 291 0026 FAD1     		bne	.L36
 292              	.L24:
 293              		.loc 1 228 0 is_stmt 1 discriminator 3
 294 0028 1A68     		ldr	r2, [r3]
 295              		.loc 1 227 0 discriminator 3
 296 002a 1AB1     		cbz	r2, .L26
 297              		.loc 1 228 0
 298 002c 9442     		cmp	r4, r2
 299 002e 01D3     		bcc	.L26
 300 0030 1346     		mov	r3, r2
 301              	.LVL35:
 302              		.loc 1 246 0
 303 0032 F2E7     		b	.L30
 304              	.LVL36:
 305              	.L26:
 306              		.loc 1 233 0
 307 0034 56F8041C 		ldr	r1, [r6, #-4]
 308              		.loc 1 230 0
 309 0038 46F8082C 		str	r2, [r6, #-8]
 310              		.loc 1 231 0
 311 003c 1C60     		str	r4, [r3]
 312              		.loc 1 233 0
 313 003e 01F10802 		add	r2, r1, #8
 314 0042 56F8085C 		ldr	r5, [r6, #-8]
 315              	.LVL37:
 316 0046 A018     		adds	r0, r4, r2
 317 0048 A842     		cmp	r0, r5
 318 004a 0AD0     		beq	.L37
 319              		.loc 1 238 0
 320 004c 5968     		ldr	r1, [r3, #4]
 321 004e 01F10802 		add	r2, r1, #8
 322 0052 1A44     		add	r2, r2, r3
 323 0054 9442     		cmp	r4, r2
 324 0056 12D0     		beq	.L38
 325              	.L29:
 326              		.loc 1 247 0
 327 0058 3846     		mov	r0, r7
 328              		.loc 1 250 0
 329 005a BDE8F840 		pop	{r3, r4, r5, r6, r7, lr}
 330              		.cfi_remember_state
 331              		.cfi_restore 14
 332              		.cfi_restore 7
 333              		.cfi_restore 6
 334              		.cfi_restore 5
 335              		.cfi_restore 4
 336              		.cfi_restore 3
 337              		.cfi_def_cfa_offset 0
 338              	.LVL38:
 339              		.loc 1 247 0
 340 005e FFF7FEBF 		b	chMtxUnlock
ARM GAS  C:\cygwin\tmp\cc4hzV0G.s 			page 7


 341              	.LVL39:
 342              	.L37:
 343              		.cfi_restore_state
 344              		.loc 1 235 0
 345 0062 4068     		ldr	r0, [r0, #4]
 346              		.loc 1 236 0
 347 0064 A258     		ldr	r2, [r4, r2]
 348 0066 46F8082C 		str	r2, [r6, #-8]
 349              		.loc 1 235 0
 350 006a 0A18     		adds	r2, r1, r0
 351 006c 0832     		adds	r2, r2, #8
 352 006e 46F8042C 		str	r2, [r6, #-4]
 353              		.loc 1 238 0
 354 0072 5968     		ldr	r1, [r3, #4]
 355 0074 01F10802 		add	r2, r1, #8
 356 0078 1A44     		add	r2, r2, r3
 357 007a 9442     		cmp	r4, r2
 358 007c ECD1     		bne	.L29
 359              	.L38:
 360              		.loc 1 241 0
 361 007e 16E90500 		ldmdb	r6, {r0, r2}
 362              		.loc 1 240 0
 363 0082 0A44     		add	r2, r2, r1
 364 0084 0832     		adds	r2, r2, #8
 365              		.loc 1 241 0
 366 0086 1860     		str	r0, [r3]
 367              		.loc 1 240 0
 368 0088 5A60     		str	r2, [r3, #4]
 369              		.loc 1 247 0
 370 008a 3846     		mov	r0, r7
 371              		.loc 1 250 0
 372 008c BDE8F840 		pop	{r3, r4, r5, r6, r7, lr}
 373              		.cfi_restore 3
 374              		.cfi_restore 4
 375              		.cfi_restore 5
 376              		.cfi_restore 6
 377              		.cfi_restore 7
 378              		.cfi_restore 14
 379              		.cfi_def_cfa_offset 0
 380              	.LVL40:
 381              		.loc 1 247 0
 382 0090 FFF7FEBF 		b	chMtxUnlock
 383              	.LVL41:
 384              		.cfi_endproc
 385              	.LFE230:
 386              		.size	chHeapFree, .-chHeapFree
 387 0094 AFF30080 		.section	.text.chHeapStatus,"ax",%progbits
 387      AFF30080 
 387      AFF30080 
 388              		.align	2
 389              		.p2align 4,,15
 390              		.global	chHeapStatus
 391              		.thumb
 392              		.thumb_func
 393              		.type	chHeapStatus, %function
 394              	chHeapStatus:
 395              	.LFB231:
ARM GAS  C:\cygwin\tmp\cc4hzV0G.s 			page 8


 396              		.loc 1 265 0
 397              		.cfi_startproc
 398              		@ args = 0, pretend = 0, frame = 0
 399              		@ frame_needed = 0, uses_anonymous_args = 0
 400              	.LVL42:
 401 0000 70B5     		push	{r4, r5, r6, lr}
 402              		.cfi_def_cfa_offset 16
 403              		.cfi_offset 4, -16
 404              		.cfi_offset 5, -12
 405              		.cfi_offset 6, -8
 406              		.cfi_offset 14, -4
 407              		.loc 1 270 0
 408 0002 0F4C     		ldr	r4, .L50
 409 0004 0028     		cmp	r0, #0
 410 0006 18BF     		it	ne
 411 0008 0446     		movne	r4, r0
 412              	.LVL43:
 413              		.loc 1 273 0
 414 000a 04F11005 		add	r5, r4, #16
 415 000e 2846     		mov	r0, r5
 416              		.loc 1 265 0
 417 0010 0E46     		mov	r6, r1
 418              		.loc 1 273 0
 419 0012 FFF7FEFF 		bl	chMtxLock
 420              	.LVL44:
 421              		.loc 1 275 0
 422 0016 A368     		ldr	r3, [r4, #8]
 423 0018 73B1     		cbz	r3, .L44
 424              		.loc 1 275 0 is_stmt 0 discriminator 3
 425 001a 0022     		movs	r2, #0
 426 001c 1446     		mov	r4, r2
 427              	.LVL45:
 428              	.L42:
 429              		.loc 1 276 0 is_stmt 1 discriminator 3
 430 001e 5868     		ldr	r0, [r3, #4]
 431              		.loc 1 275 0 discriminator 3
 432 0020 1B68     		ldr	r3, [r3]
 433 0022 0134     		adds	r4, r4, #1
 434              	.LVL46:
 435              		.loc 1 276 0 discriminator 3
 436 0024 0244     		add	r2, r2, r0
 437              	.LVL47:
 438              		.loc 1 275 0 discriminator 3
 439 0026 002B     		cmp	r3, #0
 440 0028 F9D1     		bne	.L42
 441              	.LVL48:
 442              	.L41:
 443              		.loc 1 278 0
 444 002a 06B1     		cbz	r6, .L43
 445              		.loc 1 279 0
 446 002c 3260     		str	r2, [r6]
 447              	.L43:
 448              		.loc 1 281 0
 449 002e 2846     		mov	r0, r5
 450 0030 FFF7FEFF 		bl	chMtxUnlock
 451              	.LVL49:
 452              		.loc 1 284 0
ARM GAS  C:\cygwin\tmp\cc4hzV0G.s 			page 9


 453 0034 2046     		mov	r0, r4
 454 0036 70BD     		pop	{r4, r5, r6, pc}
 455              	.LVL50:
 456              	.L44:
 457              		.loc 1 274 0
 458 0038 1A46     		mov	r2, r3
 459              		.loc 1 275 0
 460 003a 1C46     		mov	r4, r3
 461              	.LVL51:
 462 003c F5E7     		b	.L41
 463              	.L51:
 464 003e 00BF     		.align	2
 465              	.L50:
 466 0040 00000000 		.word	.LANCHOR0
 467              		.cfi_endproc
 468              	.LFE231:
 469              		.size	chHeapStatus, .-chHeapStatus
 470 0044 AFF30080 		.section	.bss.default_heap,"aw",%nobits
 470      AFF30080 
 470      AFF30080 
 471              		.align	3
 472              		.set	.LANCHOR0,. + 0
 473              		.type	default_heap, %object
 474              		.size	default_heap, 32
 475              	default_heap:
 476 0000 00000000 		.space	32
 476      00000000 
 476      00000000 
 476      00000000 
 476      00000000 
 477              		.text
 478              	.Letext0:
 479              		.file 2 "c:\\program files\\gnu tools arm embedded\\4.9 2014q4\\lib\\gcc\\arm-none-eabi\\4.9.3\\in
 480              		.file 3 "c:\\program files\\gnu tools arm embedded\\4.9 2014q4\\arm-none-eabi\\include\\machine\\_
 481              		.file 4 "c:\\program files\\gnu tools arm embedded\\4.9 2014q4\\arm-none-eabi\\include\\stdint.h"
 482              		.file 5 "../../../../os/rt/ports/ARMCMx/compilers/GCC/chtypes.h"
 483              		.file 6 "../../../../os/rt/include/chsystypes.h"
 484              		.file 7 "../../../../os/rt/include/chschd.h"
 485              		.file 8 "../../../../os/rt/ports/ARMCMx/chcore.h"
 486              		.file 9 "../../../../os/rt/ports/ARMCMx/chcore_v7m.h"
 487              		.file 10 "../../../../os/rt/include/chtm.h"
 488              		.file 11 "../../../../os/rt/include/chmtx.h"
 489              		.file 12 "../../../../os/rt/include/chmemcore.h"
 490              		.file 13 "../../../../os/rt/include/chheap.h"
 491              		.file 14 "../../../../os/ext/CMSIS/include/core_cm4.h"