ARM GAS  C:\cygwin\tmp\ccM8HyI0.s 			page 1


   1              		.syntax unified
   2              		.cpu cortex-m4
   3              		.fpu softvfp
   4              		.eabi_attribute 20, 1
   5              		.eabi_attribute 21, 1
   6              		.eabi_attribute 23, 3
   7              		.eabi_attribute 24, 1
   8              		.eabi_attribute 25, 1
   9              		.eabi_attribute 26, 1
  10              		.eabi_attribute 30, 2
  11              		.eabi_attribute 34, 1
  12              		.eabi_attribute 18, 4
  13              		.thumb
  14              		.file	"chmempools.c"
  15              		.text
  16              	.Ltext0:
  17              		.cfi_sections	.debug_frame
  18              		.section	.text.chPoolObjectInit,"ax",%progbits
  19              		.align	2
  20              		.p2align 4,,15
  21              		.global	chPoolObjectInit
  22              		.thumb
  23              		.thumb_func
  24              		.type	chPoolObjectInit, %function
  25              	chPoolObjectInit:
  26              	.LFB226:
  27              		.file 1 "../../../../os/rt/src/chmempools.c"
  28              		.loc 1 75 0
  29              		.cfi_startproc
  30              		@ args = 0, pretend = 0, frame = 0
  31              		@ frame_needed = 0, uses_anonymous_args = 0
  32              		@ link register save eliminated.
  33              	.LVL0:
  34              		.loc 1 79 0
  35 0000 0023     		movs	r3, #0
  36              		.loc 1 80 0
  37 0002 4160     		str	r1, [r0, #4]
  38              		.loc 1 81 0
  39 0004 8260     		str	r2, [r0, #8]
  40              		.loc 1 79 0
  41 0006 0360     		str	r3, [r0]
  42 0008 7047     		bx	lr
  43              		.cfi_endproc
  44              	.LFE226:
  45              		.size	chPoolObjectInit, .-chPoolObjectInit
  46 000a 00BFAFF3 		.section	.text.chPoolLoadArray,"ax",%progbits
  46      0080
  47              		.align	2
  48              		.p2align 4,,15
  49              		.global	chPoolLoadArray
  50              		.thumb
  51              		.thumb_func
  52              		.type	chPoolLoadArray, %function
  53              	chPoolLoadArray:
  54              	.LFB227:
  55              		.loc 1 97 0
  56              		.cfi_startproc
ARM GAS  C:\cygwin\tmp\ccM8HyI0.s 			page 2


  57              		@ args = 0, pretend = 0, frame = 0
  58              		@ frame_needed = 0, uses_anonymous_args = 0
  59              		@ link register save eliminated.
  60              	.LVL1:
  61              		.loc 1 101 0
  62 0000 72B1     		cbz	r2, .L9
  63              		.loc 1 97 0
  64 0002 30B4     		push	{r4, r5}
  65              		.cfi_def_cfa_offset 8
  66              		.cfi_offset 4, -8
  67              		.cfi_offset 5, -4
  68              	.LBB77:
  69              	.LBB78:
  70              	.LBB79:
  71              	.LBB80:
  72              	.LBB81:
  73              	.LBB82:
  74              		.file 2 "../../../../os/ext/CMSIS/include/core_cmFunc.h"
  75              		.loc 2 546 0
  76 0004 2025     		movs	r5, #32
  77              	.LBE82:
  78              	.LBE81:
  79              	.LBE80:
  80              	.LBE79:
  81              	.LBB86:
  82              	.LBB87:
  83              	.LBB88:
  84              	.LBB89:
  85              	.LBB90:
  86 0006 0024     		movs	r4, #0
  87              	.LVL2:
  88              	.L4:
  89              	.LBE90:
  90              	.LBE89:
  91              	.LBE88:
  92              	.LBE87:
  93              	.LBE86:
  94              	.LBB95:
  95              	.LBB85:
  96              	.LBB84:
  97              	.LBB83:
  98              	@ 546 "../../../../os/ext/CMSIS/include/core_cmFunc.h" 1
  99 0008 85F31188 		MSR basepri, r5
 100              	@ 0 "" 2
 101              	.LVL3:
 102              		.thumb
 103              	.LBE83:
 104              	.LBE84:
 105              	.LBE85:
 106              	.LBE95:
 107              	.LBB96:
 108              	.LBB97:
 109              		.loc 1 172 0
 110 000c 0368     		ldr	r3, [r0]
 111 000e 0B60     		str	r3, [r1]
 112              		.loc 1 173 0
 113 0010 0160     		str	r1, [r0]
ARM GAS  C:\cygwin\tmp\ccM8HyI0.s 			page 3


 114              	.LVL4:
 115              	.LBE97:
 116              	.LBE96:
 117              	.LBB98:
 118              	.LBB94:
 119              	.LBB93:
 120              	.LBB92:
 121              	.LBB91:
 122              		.loc 2 546 0
 123              	@ 546 "../../../../os/ext/CMSIS/include/core_cmFunc.h" 1
 124 0012 84F31188 		MSR basepri, r4
 125              	@ 0 "" 2
 126              		.thumb
 127              	.LBE91:
 128              	.LBE92:
 129              	.LBE93:
 130              	.LBE94:
 131              	.LBE98:
 132              	.LBE78:
 133              	.LBE77:
 134              		.loc 1 103 0
 135 0016 4368     		ldr	r3, [r0, #4]
 136              		.loc 1 101 0
 137 0018 013A     		subs	r2, r2, #1
 138              	.LVL5:
 139              		.loc 1 103 0
 140 001a 1944     		add	r1, r1, r3
 141              	.LVL6:
 142              		.loc 1 101 0
 143 001c F4D1     		bne	.L4
 144              		.loc 1 106 0
 145 001e 30BC     		pop	{r4, r5}
 146              		.cfi_restore 5
 147              		.cfi_restore 4
 148              		.cfi_def_cfa_offset 0
 149              	.LVL7:
 150              	.L9:
 151 0020 7047     		bx	lr
 152              		.cfi_endproc
 153              	.LFE227:
 154              		.size	chPoolLoadArray, .-chPoolLoadArray
 155 0022 00BFAFF3 		.section	.text.chPoolAllocI,"ax",%progbits
 155      0080AFF3 
 155      0080AFF3 
 155      0080
 156              		.align	2
 157              		.p2align 4,,15
 158              		.global	chPoolAllocI
 159              		.thumb
 160              		.thumb_func
 161              		.type	chPoolAllocI, %function
 162              	chPoolAllocI:
 163              	.LFB228:
 164              		.loc 1 118 0
 165              		.cfi_startproc
 166              		@ args = 0, pretend = 0, frame = 0
 167              		@ frame_needed = 0, uses_anonymous_args = 0
ARM GAS  C:\cygwin\tmp\ccM8HyI0.s 			page 4


 168              		@ link register save eliminated.
 169              	.LVL8:
 170              		.loc 1 124 0
 171 0000 0368     		ldr	r3, [r0]
 172              	.LVL9:
 173 0002 1BB1     		cbz	r3, .L12
 174              		.loc 1 125 0
 175 0004 1A68     		ldr	r2, [r3]
 176 0006 0260     		str	r2, [r0]
 177              	.L13:
 178              		.loc 1 132 0
 179 0008 1846     		mov	r0, r3
 180              	.LVL10:
 181 000a 7047     		bx	lr
 182              	.LVL11:
 183              	.L12:
 184              		.loc 1 127 0
 185 000c 8268     		ldr	r2, [r0, #8]
 186 000e 002A     		cmp	r2, #0
 187 0010 FAD0     		beq	.L13
 188              		.loc 1 128 0
 189 0012 4068     		ldr	r0, [r0, #4]
 190              	.LVL12:
 191 0014 1047     		bx	r2
 192              	.LVL13:
 193              		.cfi_endproc
 194              	.LFE228:
 195              		.size	chPoolAllocI, .-chPoolAllocI
 196 0016 00BFAFF3 		.section	.text.chPoolAlloc,"ax",%progbits
 196      0080AFF3 
 196      0080
 197              		.align	2
 198              		.p2align 4,,15
 199              		.global	chPoolAlloc
 200              		.thumb
 201              		.thumb_func
 202              		.type	chPoolAlloc, %function
 203              	chPoolAlloc:
 204              	.LFB229:
 205              		.loc 1 144 0
 206              		.cfi_startproc
 207              		@ args = 0, pretend = 0, frame = 0
 208              		@ frame_needed = 0, uses_anonymous_args = 0
 209              	.LVL14:
 210 0000 08B5     		push	{r3, lr}
 211              		.cfi_def_cfa_offset 8
 212              		.cfi_offset 3, -8
 213              		.cfi_offset 14, -4
 214              	.LBB99:
 215              	.LBB100:
 216              	.LBB101:
 217              	.LBB102:
 218              		.loc 2 546 0
 219 0002 2022     		movs	r2, #32
 220              	.LBE102:
 221              	.LBE101:
 222              	.LBE100:
ARM GAS  C:\cygwin\tmp\ccM8HyI0.s 			page 5


 223              	.LBE99:
 224              		.loc 1 144 0
 225 0004 0346     		mov	r3, r0
 226              	.LBB106:
 227              	.LBB105:
 228              	.LBB104:
 229              	.LBB103:
 230              		.loc 2 546 0
 231              	@ 546 "../../../../os/ext/CMSIS/include/core_cmFunc.h" 1
 232 0006 82F31188 		MSR basepri, r2
 233              	@ 0 "" 2
 234              	.LVL15:
 235              		.thumb
 236              	.LBE103:
 237              	.LBE104:
 238              	.LBE105:
 239              	.LBE106:
 240              	.LBB107:
 241              	.LBB108:
 242              		.loc 1 124 0
 243 000a 0068     		ldr	r0, [r0]
 244              	.LVL16:
 245 000c 28B1     		cbz	r0, .L18
 246              		.loc 1 125 0
 247 000e 0268     		ldr	r2, [r0]
 248 0010 1A60     		str	r2, [r3]
 249              	.L19:
 250              	.LVL17:
 251              	.LBE108:
 252              	.LBE107:
 253              	.LBB110:
 254              	.LBB111:
 255              	.LBB112:
 256              	.LBB113:
 257              	.LBB114:
 258              		.loc 2 546 0
 259 0012 0023     		movs	r3, #0
 260              	.LVL18:
 261              	@ 546 "../../../../os/ext/CMSIS/include/core_cmFunc.h" 1
 262 0014 83F31188 		MSR basepri, r3
 263              	@ 0 "" 2
 264              		.thumb
 265              	.LBE114:
 266              	.LBE113:
 267              	.LBE112:
 268              	.LBE111:
 269              	.LBE110:
 270              		.loc 1 152 0
 271 0018 08BD     		pop	{r3, pc}
 272              	.LVL19:
 273              	.L18:
 274              	.LBB119:
 275              	.LBB109:
 276              		.loc 1 127 0
 277 001a 9A68     		ldr	r2, [r3, #8]
 278 001c 002A     		cmp	r2, #0
 279 001e F8D0     		beq	.L19
ARM GAS  C:\cygwin\tmp\ccM8HyI0.s 			page 6


 280              		.loc 1 128 0
 281 0020 5868     		ldr	r0, [r3, #4]
 282              	.LVL20:
 283 0022 9047     		blx	r2
 284              	.LVL21:
 285              	.LBE109:
 286              	.LBE119:
 287              	.LBB120:
 288              	.LBB118:
 289              	.LBB117:
 290              	.LBB116:
 291              	.LBB115:
 292              		.loc 2 546 0
 293 0024 0023     		movs	r3, #0
 294              	@ 546 "../../../../os/ext/CMSIS/include/core_cmFunc.h" 1
 295 0026 83F31188 		MSR basepri, r3
 296              	@ 0 "" 2
 297              		.thumb
 298              	.LBE115:
 299              	.LBE116:
 300              	.LBE117:
 301              	.LBE118:
 302              	.LBE120:
 303              		.loc 1 152 0
 304 002a 08BD     		pop	{r3, pc}
 305              		.cfi_endproc
 306              	.LFE229:
 307              		.size	chPoolAlloc, .-chPoolAlloc
 308 002c AFF30080 		.section	.text.chPoolFreeI,"ax",%progbits
 309              		.align	2
 310              		.p2align 4,,15
 311              		.global	chPoolFreeI
 312              		.thumb
 313              		.thumb_func
 314              		.type	chPoolFreeI, %function
 315              	chPoolFreeI:
 316              	.LFB230:
 317              		.loc 1 166 0
 318              		.cfi_startproc
 319              		@ args = 0, pretend = 0, frame = 0
 320              		@ frame_needed = 0, uses_anonymous_args = 0
 321              		@ link register save eliminated.
 322              	.LVL22:
 323              		.loc 1 172 0
 324 0000 0368     		ldr	r3, [r0]
 325 0002 0B60     		str	r3, [r1]
 326              		.loc 1 173 0
 327 0004 0160     		str	r1, [r0]
 328 0006 7047     		bx	lr
 329              		.cfi_endproc
 330              	.LFE230:
 331              		.size	chPoolFreeI, .-chPoolFreeI
 332 0008 AFF30080 		.section	.text.chPoolFree,"ax",%progbits
 332      AFF30080 
 333              		.align	2
 334              		.p2align 4,,15
 335              		.global	chPoolFree
ARM GAS  C:\cygwin\tmp\ccM8HyI0.s 			page 7


 336              		.thumb
 337              		.thumb_func
 338              		.type	chPoolFree, %function
 339              	chPoolFree:
 340              	.LFB231:
 341              		.loc 1 188 0
 342              		.cfi_startproc
 343              		@ args = 0, pretend = 0, frame = 0
 344              		@ frame_needed = 0, uses_anonymous_args = 0
 345              		@ link register save eliminated.
 346              	.LVL23:
 347              	.LBB121:
 348              	.LBB122:
 349              	.LBB123:
 350              	.LBB124:
 351              		.loc 2 546 0
 352 0000 2023     		movs	r3, #32
 353              	@ 546 "../../../../os/ext/CMSIS/include/core_cmFunc.h" 1
 354 0002 83F31188 		MSR basepri, r3
 355              	@ 0 "" 2
 356              	.LVL24:
 357              		.thumb
 358              	.LBE124:
 359              	.LBE123:
 360              	.LBE122:
 361              	.LBE121:
 362              	.LBB125:
 363              	.LBB126:
 364              		.loc 1 172 0
 365 0006 0368     		ldr	r3, [r0]
 366 0008 0B60     		str	r3, [r1]
 367              	.LBE126:
 368              	.LBE125:
 369              	.LBB128:
 370              	.LBB129:
 371              	.LBB130:
 372              	.LBB131:
 373              	.LBB132:
 374              		.loc 2 546 0
 375 000a 0023     		movs	r3, #0
 376              	.LBE132:
 377              	.LBE131:
 378              	.LBE130:
 379              	.LBE129:
 380              	.LBE128:
 381              	.LBB137:
 382              	.LBB127:
 383              		.loc 1 173 0
 384 000c 0160     		str	r1, [r0]
 385              	.LVL25:
 386              	.LBE127:
 387              	.LBE137:
 388              	.LBB138:
 389              	.LBB136:
 390              	.LBB135:
 391              	.LBB134:
 392              	.LBB133:
ARM GAS  C:\cygwin\tmp\ccM8HyI0.s 			page 8


 393              		.loc 2 546 0
 394              	@ 546 "../../../../os/ext/CMSIS/include/core_cmFunc.h" 1
 395 000e 83F31188 		MSR basepri, r3
 396              	@ 0 "" 2
 397              		.thumb
 398 0012 7047     		bx	lr
 399              	.LBE133:
 400              	.LBE134:
 401              	.LBE135:
 402              	.LBE136:
 403              	.LBE138:
 404              		.cfi_endproc
 405              	.LFE231:
 406              		.size	chPoolFree, .-chPoolFree
 407 0014 AFF30080 		.text
 407      AFF30080 
 407      AFF30080 
 408              	.Letext0:
 409              		.file 3 "c:\\program files\\gnu tools arm embedded\\4.9 2014q4\\lib\\gcc\\arm-none-eabi\\4.9.3\\in
 410              		.file 4 "c:\\program files\\gnu tools arm embedded\\4.9 2014q4\\arm-none-eabi\\include\\machine\\_
 411              		.file 5 "c:\\program files\\gnu tools arm embedded\\4.9 2014q4\\arm-none-eabi\\include\\stdint.h"
 412              		.file 6 "../../../../os/rt/ports/ARMCMx/compilers/GCC/chtypes.h"
 413              		.file 7 "../../../../os/rt/include/chsystypes.h"
 414              		.file 8 "../../../../os/rt/include/chschd.h"
 415              		.file 9 "../../../../os/rt/ports/ARMCMx/chcore.h"
 416              		.file 10 "../../../../os/rt/ports/ARMCMx/chcore_v7m.h"
 417              		.file 11 "../../../../os/rt/include/chtm.h"
 418              		.file 12 "../../../../os/rt/include/chmtx.h"
 419              		.file 13 "../../../../os/rt/include/chmemcore.h"
 420              		.file 14 "../../../../os/rt/include/chmempools.h"
 421              		.file 15 "../../../../os/rt/include/chsys.h"
 422              		.file 16 "../../../../os/ext/CMSIS/include/core_cm4.h"