ARM GAS  C:\cygwin\tmp\cc7UKGza.s 			page 1


   1              		.syntax unified
   2              		.cpu cortex-m4
   3              		.fpu softvfp
   4              		.eabi_attribute 20, 1
   5              		.eabi_attribute 21, 1
   6              		.eabi_attribute 23, 3
   7              		.eabi_attribute 24, 1
   8              		.eabi_attribute 25, 1
   9              		.eabi_attribute 26, 1
  10              		.eabi_attribute 30, 2
  11              		.eabi_attribute 34, 1
  12              		.eabi_attribute 18, 4
  13              		.thumb
  14              		.file	"chschd.c"
  15              		.text
  16              	.Ltext0:
  17              		.cfi_sections	.debug_frame
  18              		.section	.text.wakeup,"ax",%progbits
  19              		.align	2
  20              		.p2align 4,,15
  21              		.thumb
  22              		.thumb_func
  23              		.type	wakeup, %function
  24              	wakeup:
  25              	.LFB229:
  26              		.file 1 "../../../../os/rt/src/chschd.c"
  27              		.loc 1 272 0
  28              		.cfi_startproc
  29              		@ args = 0, pretend = 0, frame = 0
  30              		@ frame_needed = 0, uses_anonymous_args = 0
  31              		@ link register save eliminated.
  32              	.LVL0:
  33 0000 10B4     		push	{r4}
  34              		.cfi_def_cfa_offset 4
  35              		.cfi_offset 4, -4
  36              	.LBB128:
  37              	.LBB129:
  38              	.LBB130:
  39              	.LBB131:
  40              	.LBB132:
  41              		.file 2 "../../../../os/ext/CMSIS/include/core_cmFunc.h"
  42              		.loc 2 546 0
  43 0002 2023     		movs	r3, #32
  44              	@ 546 "../../../../os/ext/CMSIS/include/core_cmFunc.h" 1
  45 0004 83F31188 		MSR basepri, r3
  46              	@ 0 "" 2
  47              		.thumb
  48              	.LBE132:
  49              	.LBE131:
  50              	.LBE130:
  51              	.LBE129:
  52              	.LBE128:
  53              		.loc 1 276 0
  54 0008 037F     		ldrb	r3, [r0, #28]	@ zero_extendqisi2
  55 000a 072B     		cmp	r3, #7
  56 000c 0ED8     		bhi	.L2
  57 000e DFE803F0 		tbb	[pc, r3]
ARM GAS  C:\cygwin\tmp\cc7UKGza.s 			page 2


  58              	.L4:
  59 0012 27       		.byte	(.L3-.L4)/2
  60 0013 0D       		.byte	(.L2-.L4)/2
  61 0014 0D       		.byte	(.L2-.L4)/2
  62 0015 23       		.byte	(.L5-.L4)/2
  63 0016 08       		.byte	(.L6-.L4)/2
  64 0017 04       		.byte	(.L7-.L4)/2
  65 0018 0D       		.byte	(.L2-.L4)/2
  66 0019 08       		.byte	(.L6-.L4)/2
  67              		.p2align 1
  68              	.L7:
  69              		.loc 1 287 0
  70 001a 026A     		ldr	r2, [r0, #32]
  71              	.LVL1:
  72              	.LBB133:
  73              	.LBB134:
  74              		.file 3 "../../../../os/rt/include/chsem.h"
  75              		.loc 3 138 0
  76 001c 9368     		ldr	r3, [r2, #8]
  77 001e 0133     		adds	r3, r3, #1
  78 0020 9360     		str	r3, [r2, #8]
  79              	.LVL2:
  80              	.L6:
  81              	.LBE134:
  82              	.LBE133:
  83              	.LBB135:
  84              	.LBB136:
  85              		.file 4 "../../../../os/rt/include/chschd.h"
  86              		.loc 4 656 0
  87 0022 90E80C00 		ldmia	r0, {r2, r3}
  88 0026 1A60     		str	r2, [r3]
  89              		.loc 4 657 0
  90 0028 0268     		ldr	r2, [r0]
  91 002a 5360     		str	r3, [r2, #4]
  92              	.LVL3:
  93              	.L2:
  94              	.LBE136:
  95              	.LBE135:
  96              		.loc 1 297 0
  97 002c 4FF0FF34 		mov	r4, #-1
  98              	.LBB137:
  99              	.LBB138:
 100              		.loc 1 226 0
 101 0030 0022     		movs	r2, #0
 102 0032 8168     		ldr	r1, [r0, #8]
 103              	.LBE138:
 104              	.LBE137:
 105              	.LBB140:
 106              	.LBB141:
 107              	.LBB142:
 108              	.LBB143:
 109              		.loc 1 227 0
 110 0034 0D4B     		ldr	r3, .L13
 111              	.LBE143:
 112              	.LBE142:
 113              	.LBE141:
 114              	.LBE140:
ARM GAS  C:\cygwin\tmp\cc7UKGza.s 			page 3


 115              		.loc 1 297 0
 116 0036 0462     		str	r4, [r0, #32]
 117              	.LVL4:
 118              	.LBB159:
 119              	.LBB139:
 120              		.loc 1 226 0
 121 0038 0277     		strb	r2, [r0, #28]
 122              	.LVL5:
 123              	.L9:
 124              	.LBE139:
 125              	.LBE159:
 126              	.LBB160:
 127              	.LBB158:
 128              	.LBB146:
 129              	.LBB144:
 130              		.loc 1 229 0
 131 003a 1B68     		ldr	r3, [r3]
 132              	.LVL6:
 133              		.loc 1 230 0
 134 003c 9A68     		ldr	r2, [r3, #8]
 135 003e 8A42     		cmp	r2, r1
 136 0040 FBD2     		bcs	.L9
 137              		.loc 1 233 0
 138 0042 5A68     		ldr	r2, [r3, #4]
 139 0044 4260     		str	r2, [r0, #4]
 140              		.loc 1 232 0
 141 0046 0360     		str	r3, [r0]
 142              	.LBE144:
 143              	.LBE146:
 144              	.LBB147:
 145              	.LBB148:
 146              	.LBB149:
 147              	.LBB150:
 148              	.LBB151:
 149              		.loc 2 546 0
 150 0048 0021     		movs	r1, #0
 151              	.LBE151:
 152              	.LBE150:
 153              	.LBE149:
 154              	.LBE148:
 155              	.LBE147:
 156              	.LBB156:
 157              	.LBB145:
 158              		.loc 1 234 0
 159 004a 5860     		str	r0, [r3, #4]
 160 004c 1060     		str	r0, [r2]
 161              	.LVL7:
 162              	.LBE145:
 163              	.LBE156:
 164              	.LBB157:
 165              	.LBB155:
 166              	.LBB154:
 167              	.LBB153:
 168              	.LBB152:
 169              		.loc 2 546 0
 170              	@ 546 "../../../../os/ext/CMSIS/include/core_cmFunc.h" 1
 171 004e 81F31188 		MSR basepri, r1
ARM GAS  C:\cygwin\tmp\cc7UKGza.s 			page 4


 172              	@ 0 "" 2
 173              		.thumb
 174              	.LBE152:
 175              	.LBE153:
 176              	.LBE154:
 177              	.LBE155:
 178              	.LBE157:
 179              	.LBE158:
 180              	.LBE160:
 181              		.loc 1 300 0
 182 0052 5DF8044B 		ldr	r4, [sp], #4
 183              		.cfi_remember_state
 184              		.cfi_restore 4
 185              		.cfi_def_cfa_offset 0
 186 0056 7047     		bx	lr
 187              	.LVL8:
 188              	.L5:
 189              		.cfi_restore_state
 190              		.loc 1 283 0
 191 0058 036A     		ldr	r3, [r0, #32]
 192 005a 0022     		movs	r2, #0
 193 005c 1A60     		str	r2, [r3]
 194              		.loc 1 284 0
 195 005e E5E7     		b	.L2
 196              	.L3:
 197              	.LVL9:
 198              	.LBB161:
 199              	.LBB162:
 200              	.LBB163:
 201              	.LBB164:
 202              	.LBB165:
 203              		.loc 2 546 0
 204 0060 0023     		movs	r3, #0
 205              	@ 546 "../../../../os/ext/CMSIS/include/core_cmFunc.h" 1
 206 0062 83F31188 		MSR basepri, r3
 207              	@ 0 "" 2
 208              		.thumb
 209              	.LBE165:
 210              	.LBE164:
 211              	.LBE163:
 212              	.LBE162:
 213              	.LBE161:
 214              		.loc 1 300 0
 215 0066 5DF8044B 		ldr	r4, [sp], #4
 216              		.cfi_restore 4
 217              		.cfi_def_cfa_offset 0
 218 006a 7047     		bx	lr
 219              	.L14:
 220              		.align	2
 221              	.L13:
 222 006c 00000000 		.word	.LANCHOR0
 223              		.cfi_endproc
 224              	.LFE229:
 225              		.size	wakeup, .-wakeup
 226              		.section	.text._scheduler_init,"ax",%progbits
 227              		.align	2
 228              		.p2align 4,,15
ARM GAS  C:\cygwin\tmp\cc7UKGza.s 			page 5


 229              		.global	_scheduler_init
 230              		.thumb
 231              		.thumb_func
 232              		.type	_scheduler_init, %function
 233              	_scheduler_init:
 234              	.LFB226:
 235              		.loc 1 65 0
 236              		.cfi_startproc
 237              		@ args = 0, pretend = 0, frame = 0
 238              		@ frame_needed = 0, uses_anonymous_args = 0
 239              		@ link register save eliminated.
 240              	.LVL10:
 241              	.LBB166:
 242              	.LBB167:
 243              		.loc 4 574 0
 244 0000 034B     		ldr	r3, .L16
 245              	.LBE167:
 246              	.LBE166:
 247              		.loc 1 68 0
 248 0002 0022     		movs	r2, #0
 249              	.LBB169:
 250              	.LBB168:
 251              		.loc 4 574 0
 252 0004 5B60     		str	r3, [r3, #4]
 253 0006 1B60     		str	r3, [r3]
 254              	.LBE168:
 255              	.LBE169:
 256              		.loc 1 70 0
 257 0008 5B61     		str	r3, [r3, #20]
 258 000a 1B61     		str	r3, [r3, #16]
 259              		.loc 1 68 0
 260 000c 9A60     		str	r2, [r3, #8]
 261 000e 7047     		bx	lr
 262              	.L17:
 263              		.align	2
 264              	.L16:
 265 0010 00000000 		.word	.LANCHOR0
 266              		.cfi_endproc
 267              	.LFE226:
 268              		.size	_scheduler_init, .-_scheduler_init
 269 0014 AFF30080 		.section	.text.chSchReadyI,"ax",%progbits
 269      AFF30080 
 269      AFF30080 
 270              		.align	2
 271              		.p2align 4,,15
 272              		.global	chSchReadyI
 273              		.thumb
 274              		.thumb_func
 275              		.type	chSchReadyI, %function
 276              	chSchReadyI:
 277              	.LFB227:
 278              		.loc 1 217 0
 279              		.cfi_startproc
 280              		@ args = 0, pretend = 0, frame = 0
 281              		@ frame_needed = 0, uses_anonymous_args = 0
 282              		@ link register save eliminated.
 283              	.LVL11:
ARM GAS  C:\cygwin\tmp\cc7UKGza.s 			page 6


 284              		.loc 1 226 0
 285 0000 0022     		movs	r2, #0
 286 0002 8168     		ldr	r1, [r0, #8]
 287              		.loc 1 227 0
 288 0004 084B     		ldr	r3, .L22
 289              		.loc 1 217 0
 290 0006 10B4     		push	{r4}
 291              		.cfi_def_cfa_offset 4
 292              		.cfi_offset 4, -4
 293              		.loc 1 217 0
 294 0008 0446     		mov	r4, r0
 295              		.loc 1 226 0
 296 000a 0277     		strb	r2, [r0, #28]
 297              	.LVL12:
 298              	.L19:
 299              		.loc 1 229 0 discriminator 1
 300 000c 1B68     		ldr	r3, [r3]
 301              	.LVL13:
 302              		.loc 1 230 0 discriminator 1
 303 000e 9A68     		ldr	r2, [r3, #8]
 304 0010 8A42     		cmp	r2, r1
 305 0012 FBD2     		bcs	.L19
 306              		.loc 1 233 0
 307 0014 5A68     		ldr	r2, [r3, #4]
 308 0016 6260     		str	r2, [r4, #4]
 309              		.loc 1 232 0
 310 0018 2360     		str	r3, [r4]
 311              		.loc 1 237 0
 312 001a 2046     		mov	r0, r4
 313              	.LVL14:
 314              		.loc 1 234 0
 315 001c 5C60     		str	r4, [r3, #4]
 316 001e 1460     		str	r4, [r2]
 317              		.loc 1 237 0
 318 0020 5DF8044B 		ldr	r4, [sp], #4
 319              		.cfi_restore 4
 320              		.cfi_def_cfa_offset 0
 321              	.LVL15:
 322 0024 7047     		bx	lr
 323              	.L23:
 324 0026 00BF     		.align	2
 325              	.L22:
 326 0028 00000000 		.word	.LANCHOR0
 327              		.cfi_endproc
 328              	.LFE227:
 329              		.size	chSchReadyI, .-chSchReadyI
 330 002c AFF30080 		.section	.text.chSchGoSleepS,"ax",%progbits
 331              		.align	2
 332              		.p2align 4,,15
 333              		.global	chSchGoSleepS
 334              		.thumb
 335              		.thumb_func
 336              		.type	chSchGoSleepS, %function
 337              	chSchGoSleepS:
 338              	.LFB228:
 339              		.loc 1 248 0
 340              		.cfi_startproc
ARM GAS  C:\cygwin\tmp\cc7UKGza.s 			page 7


 341              		@ args = 0, pretend = 0, frame = 0
 342              		@ frame_needed = 0, uses_anonymous_args = 0
 343              		@ link register save eliminated.
 344              	.LVL16:
 345              		.loc 1 253 0
 346 0000 074B     		ldr	r3, .L26
 347              		.loc 1 248 0
 348 0002 30B4     		push	{r4, r5}
 349              		.cfi_def_cfa_offset 8
 350              		.cfi_offset 4, -8
 351              		.cfi_offset 5, -4
 352              	.LBB170:
 353              	.LBB171:
 354              		.loc 4 639 0
 355 0004 1A68     		ldr	r2, [r3]
 356              	.LBE171:
 357              	.LBE170:
 358              		.loc 1 253 0
 359 0006 9969     		ldr	r1, [r3, #24]
 360              	.LVL17:
 361              	.LBB175:
 362              	.LBB172:
 363              		.loc 4 641 0
 364 0008 1468     		ldr	r4, [r2]
 365              	.LBE172:
 366              	.LBE175:
 367              		.loc 1 253 0
 368 000a 0877     		strb	r0, [r1, #28]
 369              	.LVL18:
 370              		.loc 1 265 0
 371 000c 0125     		movs	r5, #1
 372              	.LBB176:
 373              	.LBB173:
 374              		.loc 4 641 0
 375 000e 6360     		str	r3, [r4, #4]
 376              	.LBE173:
 377              	.LBE176:
 378              		.loc 1 265 0
 379 0010 1577     		strb	r5, [r2, #28]
 380              	.LBB177:
 381              	.LBB174:
 382              		.loc 4 641 0
 383 0012 1C60     		str	r4, [r3]
 384              	.LBE174:
 385              	.LBE177:
 386              		.loc 1 266 0
 387 0014 1046     		mov	r0, r2
 388              	.LVL19:
 389              		.loc 1 267 0
 390 0016 30BC     		pop	{r4, r5}
 391              		.cfi_restore 5
 392              		.cfi_restore 4
 393              		.cfi_def_cfa_offset 0
 394              		.loc 1 259 0
 395 0018 9A61     		str	r2, [r3, #24]
 396              		.loc 1 266 0
 397 001a FFF7FEBF 		b	_port_switch
ARM GAS  C:\cygwin\tmp\cc7UKGza.s 			page 8


 398              	.LVL20:
 399              	.L27:
 400 001e 00BF     		.align	2
 401              	.L26:
 402 0020 00000000 		.word	.LANCHOR0
 403              		.cfi_endproc
 404              	.LFE228:
 405              		.size	chSchGoSleepS, .-chSchGoSleepS
 406 0024 AFF30080 		.section	.text.chSchGoSleepTimeoutS,"ax",%progbits
 406      AFF30080 
 406      AFF30080 
 407              		.align	2
 408              		.p2align 4,,15
 409              		.global	chSchGoSleepTimeoutS
 410              		.thumb
 411              		.thumb_func
 412              		.type	chSchGoSleepTimeoutS, %function
 413              	chSchGoSleepTimeoutS:
 414              	.LFB230:
 415              		.loc 1 323 0
 416              		.cfi_startproc
 417              		@ args = 0, pretend = 0, frame = 24
 418              		@ frame_needed = 0, uses_anonymous_args = 0
 419              	.LVL21:
 420 0000 30B5     		push	{r4, r5, lr}
 421              		.cfi_def_cfa_offset 12
 422              		.cfi_offset 4, -12
 423              		.cfi_offset 5, -8
 424              		.cfi_offset 14, -4
 425              		.loc 1 327 0
 426 0002 4B1C     		adds	r3, r1, #1
 427              		.loc 1 323 0
 428 0004 87B0     		sub	sp, sp, #28
 429              		.cfi_def_cfa_offset 40
 430              		.loc 1 327 0
 431 0006 12D0     		beq	.L29
 432              	.LBB178:
 433              		.loc 1 330 0
 434 0008 0C4C     		ldr	r4, .L36
 435 000a 0D4A     		ldr	r2, .L36+4
 436 000c A369     		ldr	r3, [r4, #24]
 437 000e 0546     		mov	r5, r0
 438 0010 01A8     		add	r0, sp, #4
 439              	.LVL22:
 440 0012 FFF7FEFF 		bl	chVTDoSetI
 441              	.LVL23:
 442              		.loc 1 331 0
 443 0016 2846     		mov	r0, r5
 444 0018 FFF7FEFF 		bl	chSchGoSleepS
 445              	.LVL24:
 446              		.loc 1 332 0
 447 001c 049B     		ldr	r3, [sp, #16]
 448 001e 13B1     		cbz	r3, .L31
 449              		.loc 1 333 0
 450 0020 01A8     		add	r0, sp, #4
 451              	.LVL25:
 452 0022 FFF7FEFF 		bl	chVTDoResetI
ARM GAS  C:\cygwin\tmp\cc7UKGza.s 			page 9


 453              	.LVL26:
 454              	.L31:
 455              	.LBE178:
 456              		.loc 1 339 0
 457 0026 A369     		ldr	r3, [r4, #24]
 458              		.loc 1 340 0
 459 0028 186A     		ldr	r0, [r3, #32]
 460 002a 07B0     		add	sp, sp, #28
 461              		.cfi_remember_state
 462              		.cfi_def_cfa_offset 12
 463              		@ sp needed
 464 002c 30BD     		pop	{r4, r5, pc}
 465              	.LVL27:
 466              	.L29:
 467              		.cfi_restore_state
 468 002e 034C     		ldr	r4, .L36
 469              		.loc 1 336 0
 470 0030 FFF7FEFF 		bl	chSchGoSleepS
 471              	.LVL28:
 472              		.loc 1 339 0
 473 0034 A369     		ldr	r3, [r4, #24]
 474              		.loc 1 340 0
 475 0036 186A     		ldr	r0, [r3, #32]
 476 0038 07B0     		add	sp, sp, #28
 477              		.cfi_def_cfa_offset 12
 478              		@ sp needed
 479 003a 30BD     		pop	{r4, r5, pc}
 480              	.L37:
 481              		.align	2
 482              	.L36:
 483 003c 00000000 		.word	.LANCHOR0
 484 0040 00000000 		.word	wakeup
 485              		.cfi_endproc
 486              	.LFE230:
 487              		.size	chSchGoSleepTimeoutS, .-chSchGoSleepTimeoutS
 488 0044 AFF30080 		.section	.text.chSchWakeupS,"ax",%progbits
 488      AFF30080 
 488      AFF30080 
 489              		.align	2
 490              		.p2align 4,,15
 491              		.global	chSchWakeupS
 492              		.thumb
 493              		.thumb_func
 494              		.type	chSchWakeupS, %function
 495              	chSchWakeupS:
 496              	.LFB231:
 497              		.loc 1 359 0
 498              		.cfi_startproc
 499              		@ args = 0, pretend = 0, frame = 0
 500              		@ frame_needed = 0, uses_anonymous_args = 0
 501              		@ link register save eliminated.
 502              	.LVL29:
 503              		.loc 1 371 0
 504 0000 144B     		ldr	r3, .L47
 505              		.loc 1 359 0
 506 0002 F0B4     		push	{r4, r5, r6, r7}
 507              		.cfi_def_cfa_offset 16
ARM GAS  C:\cygwin\tmp\cc7UKGza.s 			page 10


 508              		.cfi_offset 4, -16
 509              		.cfi_offset 5, -12
 510              		.cfi_offset 6, -8
 511              		.cfi_offset 7, -4
 512              		.loc 1 371 0
 513 0004 9E69     		ldr	r6, [r3, #24]
 514 0006 8468     		ldr	r4, [r0, #8]
 515              		.loc 1 359 0
 516 0008 0546     		mov	r5, r0
 517              		.loc 1 371 0
 518 000a B068     		ldr	r0, [r6, #8]
 519              	.LVL30:
 520              		.loc 1 365 0
 521 000c 2962     		str	r1, [r5, #32]
 522              		.loc 1 371 0
 523 000e 8442     		cmp	r4, r0
 524              	.LBB179:
 525              	.LBB180:
 526              		.loc 1 226 0
 527 0010 4FF00002 		mov	r2, #0
 528              	.LBE180:
 529              	.LBE179:
 530              		.loc 1 371 0
 531 0014 0BD8     		bhi	.L39
 532              	.LVL31:
 533              	.LBB182:
 534              	.LBB181:
 535              		.loc 1 226 0
 536 0016 2A77     		strb	r2, [r5, #28]
 537              	.LVL32:
 538              	.L40:
 539              		.loc 1 229 0
 540 0018 1B68     		ldr	r3, [r3]
 541              	.LVL33:
 542              		.loc 1 230 0
 543 001a 9A68     		ldr	r2, [r3, #8]
 544 001c 9442     		cmp	r4, r2
 545 001e FBD9     		bls	.L40
 546              		.loc 1 233 0
 547 0020 5A68     		ldr	r2, [r3, #4]
 548 0022 6A60     		str	r2, [r5, #4]
 549              		.loc 1 232 0
 550 0024 2B60     		str	r3, [r5]
 551              		.loc 1 234 0
 552 0026 5D60     		str	r5, [r3, #4]
 553 0028 1560     		str	r5, [r2]
 554              	.LBE181:
 555              	.LBE182:
 556              		.loc 1 385 0
 557 002a F0BC     		pop	{r4, r5, r6, r7}
 558              		.cfi_remember_state
 559              		.cfi_restore 7
 560              		.cfi_restore 6
 561              		.cfi_restore 5
 562              		.cfi_restore 4
 563              		.cfi_def_cfa_offset 0
 564              	.LVL34:
ARM GAS  C:\cygwin\tmp\cc7UKGza.s 			page 11


 565 002c 7047     		bx	lr
 566              	.LVL35:
 567              	.L39:
 568              		.cfi_restore_state
 569              	.LBB183:
 570              	.LBB184:
 571              	.LBB185:
 572              		.loc 1 226 0
 573 002e 3277     		strb	r2, [r6, #28]
 574              	.LVL36:
 575              		.loc 1 227 0
 576 0030 1A46     		mov	r2, r3
 577              	.LVL37:
 578              	.L42:
 579              		.loc 1 229 0
 580 0032 1268     		ldr	r2, [r2]
 581              	.LVL38:
 582              		.loc 1 230 0
 583 0034 9168     		ldr	r1, [r2, #8]
 584 0036 8842     		cmp	r0, r1
 585 0038 FBD9     		bls	.L42
 586              		.loc 1 233 0
 587 003a 5468     		ldr	r4, [r2, #4]
 588 003c 7460     		str	r4, [r6, #4]
 589              	.LBE185:
 590              	.LBE184:
 591              		.loc 1 382 0
 592 003e 0127     		movs	r7, #1
 593              	.LBB187:
 594              	.LBB186:
 595              		.loc 1 232 0
 596 0040 3260     		str	r2, [r6]
 597              		.loc 1 234 0
 598 0042 5660     		str	r6, [r2, #4]
 599 0044 2660     		str	r6, [r4]
 600              	.LBE186:
 601              	.LBE187:
 602              		.loc 1 382 0
 603 0046 2F77     		strb	r7, [r5, #28]
 604              		.loc 1 383 0
 605 0048 3146     		mov	r1, r6
 606 004a 2846     		mov	r0, r5
 607              		.loc 1 376 0
 608 004c 9D61     		str	r5, [r3, #24]
 609              	.LBE183:
 610              		.loc 1 385 0
 611 004e F0BC     		pop	{r4, r5, r6, r7}
 612              		.cfi_restore 7
 613              		.cfi_restore 6
 614              		.cfi_restore 5
 615              		.cfi_restore 4
 616              		.cfi_def_cfa_offset 0
 617              	.LVL39:
 618              	.LBB188:
 619              		.loc 1 383 0
 620 0050 FFF7FEBF 		b	_port_switch
 621              	.LVL40:
ARM GAS  C:\cygwin\tmp\cc7UKGza.s 			page 12


 622              	.L48:
 623              		.align	2
 624              	.L47:
 625 0054 00000000 		.word	.LANCHOR0
 626              	.LBE188:
 627              		.cfi_endproc
 628              	.LFE231:
 629              		.size	chSchWakeupS, .-chSchWakeupS
 630 0058 AFF30080 		.section	.text.chSchIsPreemptionRequired,"ax",%progbits
 630      AFF30080 
 631              		.align	2
 632              		.p2align 4,,15
 633              		.global	chSchIsPreemptionRequired
 634              		.thumb
 635              		.thumb_func
 636              		.type	chSchIsPreemptionRequired, %function
 637              	chSchIsPreemptionRequired:
 638              	.LFB233:
 639              		.loc 1 416 0
 640              		.cfi_startproc
 641              		@ args = 0, pretend = 0, frame = 0
 642              		@ frame_needed = 0, uses_anonymous_args = 0
 643              		@ link register save eliminated.
 644              	.LVL41:
 645              		.loc 1 417 0
 646 0000 044B     		ldr	r3, .L50
 647 0002 1A68     		ldr	r2, [r3]
 648              		.loc 1 418 0
 649 0004 9B69     		ldr	r3, [r3, #24]
 650              		.loc 1 429 0
 651 0006 9068     		ldr	r0, [r2, #8]
 652 0008 9B68     		ldr	r3, [r3, #8]
 653              		.loc 1 431 0
 654 000a 9842     		cmp	r0, r3
 655 000c 94BF     		ite	ls
 656 000e 0020     		movls	r0, #0
 657 0010 0120     		movhi	r0, #1
 658 0012 7047     		bx	lr
 659              	.L51:
 660              		.align	2
 661              	.L50:
 662 0014 00000000 		.word	.LANCHOR0
 663              		.cfi_endproc
 664              	.LFE233:
 665              		.size	chSchIsPreemptionRequired, .-chSchIsPreemptionRequired
 666 0018 AFF30080 		.section	.text.chSchDoRescheduleBehind,"ax",%progbits
 666      AFF30080 
 667              		.align	2
 668              		.p2align 4,,15
 669              		.global	chSchDoRescheduleBehind
 670              		.thumb
 671              		.thumb_func
 672              		.type	chSchDoRescheduleBehind, %function
 673              	chSchDoRescheduleBehind:
 674              	.LFB234:
 675              		.loc 1 443 0
 676              		.cfi_startproc
ARM GAS  C:\cygwin\tmp\cc7UKGza.s 			page 13


 677              		@ args = 0, pretend = 0, frame = 0
 678              		@ frame_needed = 0, uses_anonymous_args = 0
 679              		@ link register save eliminated.
 680              		.loc 1 446 0
 681 0000 0D4A     		ldr	r2, .L57
 682              	.LBB189:
 683              	.LBB190:
 684              		.loc 4 639 0
 685 0002 1068     		ldr	r0, [r2]
 686              	.LBE190:
 687              	.LBE189:
 688              		.loc 1 443 0
 689 0004 70B4     		push	{r4, r5, r6}
 690              		.cfi_def_cfa_offset 12
 691              		.cfi_offset 4, -12
 692              		.cfi_offset 5, -8
 693              		.cfi_offset 6, -4
 694              	.LBB194:
 695              	.LBB191:
 696              		.loc 4 641 0
 697 0006 0368     		ldr	r3, [r0]
 698              	.LBE191:
 699              	.LBE194:
 700              		.loc 1 446 0
 701 0008 9469     		ldr	r4, [r2, #24]
 702              	.LVL42:
 703              	.LBB195:
 704              	.LBB192:
 705              		.loc 4 641 0
 706 000a 1360     		str	r3, [r2]
 707              	.LBE192:
 708              	.LBE195:
 709              		.loc 1 454 0
 710 000c 0126     		movs	r6, #1
 711              	.LBB196:
 712              	.LBB197:
 713              		.loc 1 226 0
 714 000e 0025     		movs	r5, #0
 715 0010 A168     		ldr	r1, [r4, #8]
 716              	.LBE197:
 717              	.LBE196:
 718              	.LBB200:
 719              	.LBB193:
 720              		.loc 4 641 0
 721 0012 5A60     		str	r2, [r3, #4]
 722              	.LBE193:
 723              	.LBE200:
 724              		.loc 1 454 0
 725 0014 0677     		strb	r6, [r0, #28]
 726              	.LVL43:
 727              		.loc 1 448 0
 728 0016 9061     		str	r0, [r2, #24]
 729              	.LBB201:
 730              	.LBB198:
 731              		.loc 1 226 0
 732 0018 2577     		strb	r5, [r4, #28]
 733              	.LVL44:
ARM GAS  C:\cygwin\tmp\cc7UKGza.s 			page 14


 734 001a 00E0     		b	.L54
 735              	.LVL45:
 736              	.L56:
 737 001c 1B68     		ldr	r3, [r3]
 738              	.LVL46:
 739              	.L54:
 740              		.loc 1 230 0
 741 001e 9A68     		ldr	r2, [r3, #8]
 742 0020 8A42     		cmp	r2, r1
 743 0022 FBD2     		bcs	.L56
 744              		.loc 1 233 0
 745 0024 5A68     		ldr	r2, [r3, #4]
 746 0026 6260     		str	r2, [r4, #4]
 747              		.loc 1 232 0
 748 0028 2360     		str	r3, [r4]
 749              	.LBE198:
 750              	.LBE201:
 751              		.loc 1 459 0
 752 002a 2146     		mov	r1, r4
 753              	.LBB202:
 754              	.LBB199:
 755              		.loc 1 234 0
 756 002c 5C60     		str	r4, [r3, #4]
 757 002e 1460     		str	r4, [r2]
 758              	.LBE199:
 759              	.LBE202:
 760              		.loc 1 460 0
 761 0030 70BC     		pop	{r4, r5, r6}
 762              		.cfi_restore 6
 763              		.cfi_restore 5
 764              		.cfi_restore 4
 765              		.cfi_def_cfa_offset 0
 766              	.LVL47:
 767              		.loc 1 459 0
 768 0032 FFF7FEBF 		b	_port_switch
 769              	.LVL48:
 770              	.L58:
 771 0036 00BF     		.align	2
 772              	.L57:
 773 0038 00000000 		.word	.LANCHOR0
 774              		.cfi_endproc
 775              	.LFE234:
 776              		.size	chSchDoRescheduleBehind, .-chSchDoRescheduleBehind
 777 003c AFF30080 		.section	.text.chSchDoRescheduleAhead,"ax",%progbits
 778              		.align	2
 779              		.p2align 4,,15
 780              		.global	chSchDoRescheduleAhead
 781              		.thumb
 782              		.thumb_func
 783              		.type	chSchDoRescheduleAhead, %function
 784              	chSchDoRescheduleAhead:
 785              	.LFB235:
 786              		.loc 1 471 0
 787              		.cfi_startproc
 788              		@ args = 0, pretend = 0, frame = 0
 789              		@ frame_needed = 0, uses_anonymous_args = 0
 790              		@ link register save eliminated.
ARM GAS  C:\cygwin\tmp\cc7UKGza.s 			page 15


 791              		.loc 1 474 0
 792 0000 0D4A     		ldr	r2, .L64
 793              	.LBB203:
 794              	.LBB204:
 795              		.loc 4 639 0
 796 0002 1068     		ldr	r0, [r2]
 797              	.LBE204:
 798              	.LBE203:
 799              		.loc 1 471 0
 800 0004 70B4     		push	{r4, r5, r6}
 801              		.cfi_def_cfa_offset 12
 802              		.cfi_offset 4, -12
 803              		.cfi_offset 5, -8
 804              		.cfi_offset 6, -4
 805              	.LBB208:
 806              	.LBB205:
 807              		.loc 4 641 0
 808 0006 0368     		ldr	r3, [r0]
 809              	.LBE205:
 810              	.LBE208:
 811              		.loc 1 474 0
 812 0008 9469     		ldr	r4, [r2, #24]
 813              	.LVL49:
 814              	.LBB209:
 815              	.LBB206:
 816              		.loc 4 641 0
 817 000a 1360     		str	r3, [r2]
 818              	.LBE206:
 819              	.LBE209:
 820              		.loc 1 482 0
 821 000c 0126     		movs	r6, #1
 822              		.loc 1 484 0
 823 000e 0025     		movs	r5, #0
 824 0010 A168     		ldr	r1, [r4, #8]
 825              	.LBB210:
 826              	.LBB207:
 827              		.loc 4 641 0
 828 0012 5A60     		str	r2, [r3, #4]
 829              	.LBE207:
 830              	.LBE210:
 831              		.loc 1 482 0
 832 0014 0677     		strb	r6, [r0, #28]
 833              		.loc 1 476 0
 834 0016 9061     		str	r0, [r2, #24]
 835              		.loc 1 484 0
 836 0018 2577     		strb	r5, [r4, #28]
 837              	.LVL50:
 838 001a 00E0     		b	.L61
 839              	.LVL51:
 840              	.L63:
 841 001c 1B68     		ldr	r3, [r3]
 842              	.LVL52:
 843              	.L61:
 844              		.loc 1 488 0 discriminator 1
 845 001e 9A68     		ldr	r2, [r3, #8]
 846 0020 8A42     		cmp	r2, r1
 847 0022 FBD8     		bhi	.L63
ARM GAS  C:\cygwin\tmp\cc7UKGza.s 			page 16


 848              		.loc 1 491 0
 849 0024 5A68     		ldr	r2, [r3, #4]
 850 0026 6260     		str	r2, [r4, #4]
 851              		.loc 1 490 0
 852 0028 2360     		str	r3, [r4]
 853              		.loc 1 494 0
 854 002a 2146     		mov	r1, r4
 855              		.loc 1 492 0
 856 002c 5C60     		str	r4, [r3, #4]
 857 002e 1460     		str	r4, [r2]
 858              		.loc 1 495 0
 859 0030 70BC     		pop	{r4, r5, r6}
 860              		.cfi_restore 6
 861              		.cfi_restore 5
 862              		.cfi_restore 4
 863              		.cfi_def_cfa_offset 0
 864              	.LVL53:
 865              		.loc 1 494 0
 866 0032 FFF7FEBF 		b	_port_switch
 867              	.LVL54:
 868              	.L65:
 869 0036 00BF     		.align	2
 870              	.L64:
 871 0038 00000000 		.word	.LANCHOR0
 872              		.cfi_endproc
 873              	.LFE235:
 874              		.size	chSchDoRescheduleAhead, .-chSchDoRescheduleAhead
 875 003c AFF30080 		.section	.text.chSchRescheduleS,"ax",%progbits
 876              		.align	2
 877              		.p2align 4,,15
 878              		.global	chSchRescheduleS
 879              		.thumb
 880              		.thumb_func
 881              		.type	chSchRescheduleS, %function
 882              	chSchRescheduleS:
 883              	.LFB232:
 884              		.loc 1 394 0
 885              		.cfi_startproc
 886              		@ args = 0, pretend = 0, frame = 0
 887              		@ frame_needed = 0, uses_anonymous_args = 0
 888              		@ link register save eliminated.
 889              	.LBB211:
 890              	.LBB212:
 891              		.loc 4 678 0
 892 0000 044B     		ldr	r3, .L69
 893 0002 1A68     		ldr	r2, [r3]
 894 0004 9B69     		ldr	r3, [r3, #24]
 895              	.LBE212:
 896              	.LBE211:
 897              		.loc 1 398 0
 898 0006 9268     		ldr	r2, [r2, #8]
 899 0008 9B68     		ldr	r3, [r3, #8]
 900 000a 9A42     		cmp	r2, r3
 901 000c 00D8     		bhi	.L68
 902 000e 7047     		bx	lr
 903              	.L68:
 904              		.loc 1 399 0
ARM GAS  C:\cygwin\tmp\cc7UKGza.s 			page 17


 905 0010 FFF7FEBF 		b	chSchDoRescheduleAhead
 906              	.LVL55:
 907              	.L70:
 908              		.align	2
 909              	.L69:
 910 0014 00000000 		.word	.LANCHOR0
 911              		.cfi_endproc
 912              	.LFE232:
 913              		.size	chSchRescheduleS, .-chSchRescheduleS
 914 0018 AFF30080 		.section	.text.chSchDoReschedule,"ax",%progbits
 914      AFF30080 
 915              		.align	2
 916              		.p2align 4,,15
 917              		.global	chSchDoReschedule
 918              		.thumb
 919              		.thumb_func
 920              		.type	chSchDoReschedule, %function
 921              	chSchDoReschedule:
 922              	.LFB236:
 923              		.loc 1 507 0
 924              		.cfi_startproc
 925              		@ args = 0, pretend = 0, frame = 0
 926              		@ frame_needed = 0, uses_anonymous_args = 0
 927              		@ link register save eliminated.
 928              		.loc 1 525 0
 929 0000 FFF7FEBF 		b	chSchDoRescheduleAhead
 930              	.LVL56:
 931              		.cfi_endproc
 932              	.LFE236:
 933              		.size	chSchDoReschedule, .-chSchDoReschedule
 934              		.global	ch
 935 0004 AFF30080 		.section	.bss.ch,"aw",%nobits
 935      AFF30080 
 935      AFF30080 
 936              		.align	3
 937              		.set	.LANCHOR0,. + 0
 938              		.type	ch, %object
 939              		.size	ch, 336
 940              	ch:
 941 0000 00000000 		.space	336
 941      00000000 
 941      00000000 
 941      00000000 
 941      00000000 
 942              		.text
 943              	.Letext0:
 944              		.file 5 "c:\\program files\\gnu tools arm embedded\\4.9 2014q4\\lib\\gcc\\arm-none-eabi\\4.9.3\\in
 945              		.file 6 "c:\\program files\\gnu tools arm embedded\\4.9 2014q4\\arm-none-eabi\\include\\machine\\_
 946              		.file 7 "c:\\program files\\gnu tools arm embedded\\4.9 2014q4\\arm-none-eabi\\include\\stdint.h"
 947              		.file 8 "../../../../os/rt/ports/ARMCMx/compilers/GCC/chtypes.h"
 948              		.file 9 "../../../../os/rt/include/chsystypes.h"
 949              		.file 10 "../../../../os/rt/ports/ARMCMx/chcore.h"
 950              		.file 11 "../../../../os/rt/ports/ARMCMx/chcore_v7m.h"
 951              		.file 12 "../../../../os/rt/include/chtm.h"
 952              		.file 13 "../../../../os/rt/include/chmtx.h"
 953              		.file 14 "../../../../os/rt/include/chthreads.h"
 954              		.file 15 "../../../../os/rt/include/chvt.h"
ARM GAS  C:\cygwin\tmp\cc7UKGza.s 			page 18


 955              		.file 16 "../../../../os/rt/include/chsys.h"
 956              		.file 17 "../../../../os/ext/CMSIS/include/core_cm4.h"