ARM GAS  C:\cygwin\tmp\cc83NXNh.s 			page 1


   1              		.syntax unified
   2              		.cpu cortex-m4
   3              		.fpu softvfp
   4              		.eabi_attribute 20, 1
   5              		.eabi_attribute 21, 1
   6              		.eabi_attribute 23, 3
   7              		.eabi_attribute 24, 1
   8              		.eabi_attribute 25, 1
   9              		.eabi_attribute 26, 1
  10              		.eabi_attribute 30, 2
  11              		.eabi_attribute 34, 1
  12              		.eabi_attribute 18, 4
  13              		.thumb
  14              		.file	"chsys.c"
  15              		.text
  16              	.Ltext0:
  17              		.cfi_sections	.debug_frame
  18              		.section	.text._idle_thread,"ax",%progbits
  19              		.align	2
  20              		.p2align 4,,15
  21              		.thumb
  22              		.thumb_func
  23              		.type	_idle_thread, %function
  24              	_idle_thread:
  25              	.LFB226:
  26              		.file 1 "../../../../os/rt/src/chsys.c"
  27              		.loc 1 65 0
  28              		.cfi_startproc
  29              		@ Volatile: function does not return.
  30              		@ args = 0, pretend = 0, frame = 0
  31              		@ frame_needed = 0, uses_anonymous_args = 0
  32              		@ link register save eliminated.
  33              	.LVL0:
  34              		.loc 1 68 0
  35 0000 024B     		ldr	r3, .L4
  36 0002 034A     		ldr	r2, .L4+4
  37 0004 9B69     		ldr	r3, [r3, #24]
  38 0006 9A61     		str	r2, [r3, #24]
  39              	.L2:
  40 0008 FEE7     		b	.L2
  41              	.L5:
  42 000a 00BF     		.align	2
  43              	.L4:
  44 000c 00000000 		.word	ch
  45 0010 00000000 		.word	.LC0
  46              		.cfi_endproc
  47              	.LFE226:
  48              		.size	_idle_thread, .-_idle_thread
  49 0014 AFF30080 		.section	.text.chSysInit,"ax",%progbits
  49      AFF30080 
  49      AFF30080 
  50              		.align	2
  51              		.p2align 4,,15
  52              		.global	chSysInit
  53              		.thumb
  54              		.thumb_func
  55              		.type	chSysInit, %function
ARM GAS  C:\cygwin\tmp\cc83NXNh.s 			page 2


  56              	chSysInit:
  57              	.LFB227:
  58              		.loc 1 90 0
  59              		.cfi_startproc
  60              		@ args = 0, pretend = 0, frame = 0
  61              		@ frame_needed = 0, uses_anonymous_args = 0
  62              	.LBB155:
  63              	.LBB156:
  64              		.file 2 "../../../../os/rt/ports/ARMCMx/chcore_v7m.h"
  65              		.loc 2 376 0
  66 0000 1E4B     		ldr	r3, .L8
  67              	.LBB157:
  68              	.LBB158:
  69              		.file 3 "../../../../os/ext/CMSIS/include/core_cm4.h"
  70              		.loc 3 1442 0
  71 0002 1F4A     		ldr	r2, .L8+4
  72              	.LBE158:
  73              	.LBE157:
  74              		.loc 2 383 0
  75 0004 1F48     		ldr	r0, .L8+8
  76              	.LBE156:
  77              	.LBE155:
  78              		.loc 1 90 0
  79 0006 F0B5     		push	{r4, r5, r6, r7, lr}
  80              		.cfi_def_cfa_offset 20
  81              		.cfi_offset 4, -20
  82              		.cfi_offset 5, -16
  83              		.cfi_offset 6, -12
  84              		.cfi_offset 7, -8
  85              		.cfi_offset 14, -4
  86              	.LBB174:
  87              	.LBB171:
  88              		.loc 2 376 0
  89 0008 0024     		movs	r4, #0
  90 000a 9C60     		str	r4, [r3, #8]
  91              	.LVL1:
  92              	.LBB161:
  93              	.LBB159:
  94              		.loc 3 1440 0
  95 000c DF68     		ldr	r7, [r3, #12]
  96              	.LVL2:
  97              	.LBE159:
  98              	.LBE161:
  99              		.loc 2 382 0
 100 000e 1E4E     		ldr	r6, .L8+12
 101              	.LBE171:
 102              	.LBE174:
 103              		.loc 1 116 0
 104 0010 1E4D     		ldr	r5, .L8+16
 105              	.LBB175:
 106              	.LBB172:
 107              	.LBB162:
 108              	.LBB160:
 109              		.loc 3 1441 0
 110 0012 4FF6FF01 		movw	r1, #63743
 111 0016 3940     		ands	r1, r1, r7
 112              	.LVL3:
ARM GAS  C:\cygwin\tmp\cc83NXNh.s 			page 3


 113              		.loc 3 1442 0
 114 0018 0A43     		orrs	r2, r2, r1
 115              	.LVL4:
 116              		.loc 3 1445 0
 117 001a DA60     		str	r2, [r3, #12]
 118              	.LBE160:
 119              	.LBE162:
 120              		.loc 2 382 0
 121 001c F268     		ldr	r2, [r6, #12]
 122              	.LVL5:
 123 001e 42F08072 		orr	r2, r2, #16777216
 124 0022 F260     		str	r2, [r6, #12]
 125              	.LVL6:
 126              		.loc 2 383 0
 127 0024 0268     		ldr	r2, [r0]
 128              	.LBB163:
 129              	.LBB164:
 130              		.loc 3 1553 0
 131 0026 2021     		movs	r1, #32
 132              	.LVL7:
 133              	.LBE164:
 134              	.LBE163:
 135              		.loc 2 383 0
 136 0028 42F00102 		orr	r2, r2, #1
 137              	.LBB166:
 138              	.LBB167:
 139              		.loc 3 1553 0
 140 002c 1026     		movs	r6, #16
 141              	.LBE167:
 142              	.LBE166:
 143              		.loc 2 383 0
 144 002e 0260     		str	r2, [r0]
 145              	.LVL8:
 146              	.LBE172:
 147              	.LBE175:
 148              		.loc 1 90 0
 149 0030 83B0     		sub	sp, sp, #12
 150              		.cfi_def_cfa_offset 32
 151              	.LBB176:
 152              	.LBB173:
 153              	.LBB169:
 154              	.LBB168:
 155              		.loc 3 1553 0
 156 0032 DE77     		strb	r6, [r3, #31]
 157              	.LVL9:
 158              	.LBE168:
 159              	.LBE169:
 160              	.LBB170:
 161              	.LBB165:
 162 0034 83F82210 		strb	r1, [r3, #34]
 163              	.LBE165:
 164              	.LBE170:
 165              	.LBE173:
 166              	.LBE176:
 167              		.loc 1 96 0
 168 0038 FFF7FEFF 		bl	_scheduler_init
 169              	.LVL10:
ARM GAS  C:\cygwin\tmp\cc83NXNh.s 			page 4


 170              		.loc 1 97 0
 171 003c FFF7FEFF 		bl	_vt_init
 172              	.LVL11:
 173              		.loc 1 99 0
 174 0040 FFF7FEFF 		bl	_tm_init
 175              	.LVL12:
 176              		.loc 1 102 0
 177 0044 FFF7FEFF 		bl	_core_init
 178              	.LVL13:
 179              		.loc 1 105 0
 180 0048 FFF7FEFF 		bl	_heap_init
 181              	.LVL14:
 182              		.loc 1 116 0
 183 004c 2846     		mov	r0, r5
 184 004e 4021     		movs	r1, #64
 185 0050 FFF7FEFF 		bl	_thread_init
 186              	.LVL15:
 187 0054 A5F13003 		sub	r3, r5, #48
 188              		.loc 1 122 0
 189 0058 0122     		movs	r2, #1
 190              		.loc 1 116 0
 191 005a 9861     		str	r0, [r3, #24]
 192              		.loc 1 122 0
 193 005c 0277     		strb	r2, [r0, #28]
 194              	.LVL16:
 195              	.LBB177:
 196              	.LBB178:
 197              	.LBB179:
 198              	.LBB180:
 199              		.file 4 "../../../../os/ext/CMSIS/include/core_cmFunc.h"
 200              		.loc 4 546 0
 201              	@ 546 "../../../../os/ext/CMSIS/include/core_cmFunc.h" 1
 202 005e 84F31188 		MSR basepri, r4
 203              	@ 0 "" 2
 204              		.thumb
 205              	.LBE180:
 206              	.LBE179:
 207              	.LBB181:
 208              	.LBB182:
 209              		.loc 4 331 0
 210              	@ 331 "../../../../os/ext/CMSIS/include/core_cmFunc.h" 1
 211 0062 62B6     		cpsie i
 212              	@ 0 "" 2
 213              		.thumb
 214              	.LBE182:
 215              	.LBE181:
 216              	.LBE178:
 217              	.LBE177:
 218              		.loc 1 132 0
 219 0064 9B69     		ldr	r3, [r3, #24]
 220 0066 0A49     		ldr	r1, .L8+20
 221 0068 9961     		str	r1, [r3, #24]
 222              		.loc 1 138 0
 223 006a 05F14800 		add	r0, r5, #72
 224 006e 0094     		str	r4, [sp]
 225 0070 D821     		movs	r1, #216
 226 0072 084B     		ldr	r3, .L8+24
ARM GAS  C:\cygwin\tmp\cc83NXNh.s 			page 5


 227 0074 FFF7FEFF 		bl	chThdCreateStatic
 228              	.LVL17:
 229              		.loc 1 141 0
 230 0078 03B0     		add	sp, sp, #12
 231              		.cfi_def_cfa_offset 20
 232              		@ sp needed
 233 007a F0BD     		pop	{r4, r5, r6, r7, pc}
 234              	.LVL18:
 235              	.L9:
 236              		.align	2
 237              	.L8:
 238 007c 00ED00E0 		.word	-536810240
 239 0080 0003FA05 		.word	100270848
 240 0084 001000E0 		.word	-536866816
 241 0088 F0ED00E0 		.word	-536810000
 242 008c 30000000 		.word	ch+48
 243 0090 00000000 		.word	ch_debug
 244 0094 00000000 		.word	_idle_thread
 245              		.cfi_endproc
 246              	.LFE227:
 247              		.size	chSysInit, .-chSysInit
 248 0098 AFF30080 		.section	.text.chSysHalt,"ax",%progbits
 248      AFF30080 
 249              		.align	2
 250              		.p2align 4,,15
 251              		.global	chSysHalt
 252              		.thumb
 253              		.thumb_func
 254              		.type	chSysHalt, %function
 255              	chSysHalt:
 256              	.LFB228:
 257              		.loc 1 155 0
 258              		.cfi_startproc
 259              		@ Volatile: function does not return.
 260              		@ args = 0, pretend = 0, frame = 0
 261              		@ frame_needed = 0, uses_anonymous_args = 0
 262              		@ link register save eliminated.
 263              	.LVL19:
 264              	.LBB183:
 265              	.LBB184:
 266              	.LBB185:
 267              		.loc 4 342 0
 268              	@ 342 "../../../../os/ext/CMSIS/include/core_cmFunc.h" 1
 269 0000 72B6     		cpsid i
 270              	@ 0 "" 2
 271              		.thumb
 272              	.LBE185:
 273              	.LBE184:
 274              	.LBE183:
 275              		.loc 1 164 0
 276 0002 014B     		ldr	r3, .L12
 277 0004 D862     		str	r0, [r3, #44]
 278              	.L11:
 279              		.loc 1 168 0 discriminator 1
 280 0006 FEE7     		b	.L11
 281              	.L13:
 282              		.align	2
ARM GAS  C:\cygwin\tmp\cc83NXNh.s 			page 6


 283              	.L12:
 284 0008 00000000 		.word	ch
 285              		.cfi_endproc
 286              	.LFE228:
 287              		.size	chSysHalt, .-chSysHalt
 288 000c AFF30080 		.section	.text.chSysTimerHandlerI,"ax",%progbits
 289              		.align	2
 290              		.p2align 4,,15
 291              		.global	chSysTimerHandlerI
 292              		.thumb
 293              		.thumb_func
 294              		.type	chSysTimerHandlerI, %function
 295              	chSysTimerHandlerI:
 296              	.LFB229:
 297              		.loc 1 182 0
 298              		.cfi_startproc
 299              		@ args = 0, pretend = 0, frame = 0
 300              		@ frame_needed = 0, uses_anonymous_args = 0
 301 0000 2DE9F041 		push	{r4, r5, r6, r7, r8, lr}
 302              		.cfi_def_cfa_offset 24
 303              		.cfi_offset 4, -24
 304              		.cfi_offset 5, -20
 305              		.cfi_offset 6, -16
 306              		.cfi_offset 7, -12
 307              		.cfi_offset 8, -8
 308              		.cfi_offset 14, -4
 309              	.LBB209:
 310              	.LBB210:
 311              	.LBB211:
 312              		.file 5 "../../../../os/rt/include/chvt.h"
 313              		.loc 5 475 0
 314 0004 1B4C     		ldr	r4, .L24
 315              	.LBB212:
 316              	.LBB213:
 317              	.LBB214:
 318              	.LBB215:
 319              		.file 6 "../../../../os/hal/ports/STM32/LLD/TIMv1/st_lld.h"
 320              		.loc 6 128 0
 321 0006 4FF08045 		mov	r5, #1073741824
 322              	.LBE215:
 323              	.LBE214:
 324              	.LBE213:
 325              	.LBE212:
 326              		.loc 5 479 0
 327 000a E369     		ldr	r3, [r4, #28]
 328              		.loc 5 475 0
 329 000c A26A     		ldr	r2, [r4, #40]
 330              	.LBB222:
 331              	.LBB220:
 332              	.LBB218:
 333              	.LBB216:
 334              		.loc 6 128 0
 335 000e 696A     		ldr	r1, [r5, #36]
 336              	.LVL20:
 337              	.LBE216:
 338              	.LBE218:
 339              	.LBE220:
ARM GAS  C:\cygwin\tmp\cc83NXNh.s 			page 7


 340              	.LBE222:
 341              		.loc 5 479 0
 342 0010 9868     		ldr	r0, [r3, #8]
 343              		.loc 5 475 0
 344 0012 8E1A     		subs	r6, r1, r2
 345              	.LVL21:
 346              		.loc 5 479 0
 347 0014 8642     		cmp	r6, r0
 348 0016 04F11C06 		add	r6, r4, #28
 349              	.LVL22:
 350 001a 19D3     		bcc	.L15
 351              		.loc 5 491 0
 352 001c 4FF00008 		mov	r8, #0
 353              	.LBB223:
 354              	.LBB224:
 355              	.LBB225:
 356              	.LBB226:
 357              	.LBB227:
 358              		.loc 4 546 0
 359 0020 2027     		movs	r7, #32
 360              	.LVL23:
 361              	.L16:
 362              	.LBE227:
 363              	.LBE226:
 364              	.LBE225:
 365              	.LBE224:
 366              	.LBE223:
 367              		.loc 5 488 0
 368 0022 1968     		ldr	r1, [r3]
 369              		.loc 5 490 0
 370 0024 D3F80CC0 		ldr	ip, [r3, #12]
 371              	.LVL24:
 372              		.loc 5 485 0
 373 0028 0244     		add	r2, r2, r0
 374 002a A262     		str	r2, [r4, #40]
 375              		.loc 5 488 0
 376 002c 4E60     		str	r6, [r1, #4]
 377              		.loc 5 489 0
 378 002e E161     		str	r1, [r4, #28]
 379              		.loc 5 491 0
 380 0030 C3F80C80 		str	r8, [r3, #12]
 381              	.LVL25:
 382              	.LBB232:
 383              	.LBB233:
 384              	.LBB234:
 385              	.LBB235:
 386              	.LBB236:
 387              		.loc 4 546 0
 388              	@ 546 "../../../../os/ext/CMSIS/include/core_cmFunc.h" 1
 389 0034 88F31188 		MSR basepri, r8
 390              	@ 0 "" 2
 391              		.thumb
 392              	.LBE236:
 393              	.LBE235:
 394              	.LBE234:
 395              	.LBE233:
 396              	.LBE232:
ARM GAS  C:\cygwin\tmp\cc83NXNh.s 			page 8


 397              		.loc 5 495 0
 398 0038 1869     		ldr	r0, [r3, #16]
 399 003a E047     		blx	ip
 400              	.LVL26:
 401              	.LBB237:
 402              	.LBB231:
 403              	.LBB230:
 404              	.LBB229:
 405              	.LBB228:
 406              		.loc 4 546 0
 407              	@ 546 "../../../../os/ext/CMSIS/include/core_cmFunc.h" 1
 408 003c 87F31188 		MSR basepri, r7
 409              	@ 0 "" 2
 410              		.thumb
 411              	.LBE228:
 412              	.LBE229:
 413              	.LBE230:
 414              	.LBE231:
 415              	.LBE237:
 416              		.loc 5 479 0
 417 0040 E369     		ldr	r3, [r4, #28]
 418              	.LBB238:
 419              	.LBB221:
 420              	.LBB219:
 421              	.LBB217:
 422              		.loc 6 128 0
 423 0042 696A     		ldr	r1, [r5, #36]
 424              	.LBE217:
 425              	.LBE219:
 426              	.LBE221:
 427              	.LBE238:
 428              		.loc 5 475 0
 429 0044 A26A     		ldr	r2, [r4, #40]
 430              	.LVL27:
 431              		.loc 5 479 0
 432 0046 9868     		ldr	r0, [r3, #8]
 433              		.loc 5 475 0
 434 0048 C2EB010E 		rsb	lr, r2, r1
 435              	.LVL28:
 436              		.loc 5 479 0
 437 004c 8645     		cmp	lr, r0
 438 004e E8D2     		bcs	.L16
 439              	.LVL29:
 440              	.L15:
 441              	.LBE211:
 442              		.loc 5 498 0
 443 0050 B342     		cmp	r3, r6
 444 0052 0BD0     		beq	.L23
 445              		.loc 5 506 0
 446 0054 0128     		cmp	r0, #1
 447 0056 04D0     		beq	.L18
 448              	.LVL30:
 449              	.LBB239:
 450              	.LBB240:
 451              		.file 7 "../../../../os/rt/ports/ARMCMx/chcore_timer.h"
 452              		.loc 7 95 0
 453 0058 0844     		add	r0, r0, r1
ARM GAS  C:\cygwin\tmp\cc83NXNh.s 			page 9


 454              	.LVL31:
 455              	.LBE240:
 456              	.LBE239:
 457              	.LBE210:
 458              	.LBE209:
 459              		.loc 1 199 0
 460 005a BDE8F041 		pop	{r4, r5, r6, r7, r8, lr}
 461              		.cfi_remember_state
 462              		.cfi_restore 14
 463              		.cfi_restore 8
 464              		.cfi_restore 7
 465              		.cfi_restore 6
 466              		.cfi_restore 5
 467              		.cfi_restore 4
 468              		.cfi_def_cfa_offset 0
 469              	.LBB252:
 470              	.LBB249:
 471              	.LBB242:
 472              	.LBB241:
 473              		.loc 7 95 0
 474 005e FFF7FEBF 		b	stSetAlarm
 475              	.LVL32:
 476              	.L18:
 477              		.cfi_restore_state
 478              	.LBE241:
 479              	.LBE242:
 480              	.LBB243:
 481              	.LBB244:
 482 0062 881C     		adds	r0, r1, #2
 483              	.LVL33:
 484              	.LBE244:
 485              	.LBE243:
 486              	.LBE249:
 487              	.LBE252:
 488              		.loc 1 199 0
 489 0064 BDE8F041 		pop	{r4, r5, r6, r7, r8, lr}
 490              		.cfi_remember_state
 491              		.cfi_restore 14
 492              		.cfi_restore 8
 493              		.cfi_restore 7
 494              		.cfi_restore 6
 495              		.cfi_restore 5
 496              		.cfi_restore 4
 497              		.cfi_def_cfa_offset 0
 498              	.LBB253:
 499              	.LBB250:
 500              	.LBB246:
 501              	.LBB245:
 502              		.loc 7 95 0
 503 0068 FFF7FEBF 		b	stSetAlarm
 504              	.LVL34:
 505              	.L23:
 506              		.cfi_restore_state
 507              	.LBE245:
 508              	.LBE246:
 509              	.LBE250:
 510              	.LBE253:
ARM GAS  C:\cygwin\tmp\cc83NXNh.s 			page 10


 511              		.loc 1 199 0
 512 006c BDE8F041 		pop	{r4, r5, r6, r7, r8, lr}
 513              		.cfi_restore 14
 514              		.cfi_restore 8
 515              		.cfi_restore 7
 516              		.cfi_restore 6
 517              		.cfi_restore 5
 518              		.cfi_restore 4
 519              		.cfi_def_cfa_offset 0
 520              	.LBB254:
 521              	.LBB251:
 522              	.LBB247:
 523              	.LBB248:
 524              		.loc 7 83 0
 525 0070 FFF7FEBF 		b	stStopAlarm
 526              	.LVL35:
 527              	.L25:
 528              		.align	2
 529              	.L24:
 530 0074 00000000 		.word	ch
 531              	.LBE248:
 532              	.LBE247:
 533              	.LBE251:
 534              	.LBE254:
 535              		.cfi_endproc
 536              	.LFE229:
 537              		.size	chSysTimerHandlerI, .-chSysTimerHandlerI
 538 0078 AFF30080 		.section	.text.chSysGetStatusAndLockX,"ax",%progbits
 538      AFF30080 
 539              		.align	2
 540              		.p2align 4,,15
 541              		.global	chSysGetStatusAndLockX
 542              		.thumb
 543              		.thumb_func
 544              		.type	chSysGetStatusAndLockX, %function
 545              	chSysGetStatusAndLockX:
 546              	.LFB230:
 547              		.loc 1 214 0
 548              		.cfi_startproc
 549              		@ args = 0, pretend = 0, frame = 0
 550              		@ frame_needed = 0, uses_anonymous_args = 0
 551              		@ link register save eliminated.
 552              	.LBB255:
 553              	.LBB256:
 554              	.LBB257:
 555              	.LBB258:
 556              		.loc 4 533 0
 557              	@ 533 "../../../../os/ext/CMSIS/include/core_cmFunc.h" 1
 558 0000 EFF31280 		MRS r0, basepri_max
 559              	@ 0 "" 2
 560              	.LVL36:
 561              		.thumb
 562              	.LBE258:
 563              	.LBE257:
 564              	.LBE256:
 565              	.LBE255:
 566              		.loc 1 217 0
ARM GAS  C:\cygwin\tmp\cc83NXNh.s 			page 11


 567 0004 20B9     		cbnz	r0, .L27
 568              	.LBB259:
 569              	.LBB260:
 570              	.LBB261:
 571              	.LBB262:
 572              		.loc 4 383 0
 573              	@ 383 "../../../../os/ext/CMSIS/include/core_cmFunc.h" 1
 574 0006 EFF30583 		MRS r3, ipsr
 575              	@ 0 "" 2
 576              	.LVL37:
 577              		.thumb
 578              	.LBE262:
 579              	.LBE261:
 580              	.LBE260:
 581              	.LBE259:
 582              	.LBB263:
 583              	.LBB264:
 584              	.LBB265:
 585              	.LBB266:
 586              		.loc 4 546 0
 587 000a 2023     		movs	r3, #32
 588              	.LVL38:
 589              	@ 546 "../../../../os/ext/CMSIS/include/core_cmFunc.h" 1
 590 000c 83F31188 		MSR basepri, r3
 591              	@ 0 "" 2
 592              	.LVL39:
 593              		.thumb
 594              	.L27:
 595              	.LBE266:
 596              	.LBE265:
 597              	.LBE264:
 598              	.LBE263:
 599              		.loc 1 226 0
 600 0010 7047     		bx	lr
 601              		.cfi_endproc
 602              	.LFE230:
 603              		.size	chSysGetStatusAndLockX, .-chSysGetStatusAndLockX
 604 0012 00BFAFF3 		.section	.text.chSysRestoreStatusX,"ax",%progbits
 604      0080AFF3 
 604      0080AFF3 
 604      0080
 605              		.align	2
 606              		.p2align 4,,15
 607              		.global	chSysRestoreStatusX
 608              		.thumb
 609              		.thumb_func
 610              		.type	chSysRestoreStatusX, %function
 611              	chSysRestoreStatusX:
 612              	.LFB231:
 613              		.loc 1 237 0
 614              		.cfi_startproc
 615              		@ args = 0, pretend = 0, frame = 0
 616              		@ frame_needed = 0, uses_anonymous_args = 0
 617              	.LVL40:
 618              		.loc 1 239 0
 619 0000 68B9     		cbnz	r0, .L33
 620              		.loc 1 237 0
ARM GAS  C:\cygwin\tmp\cc83NXNh.s 			page 12


 621 0002 10B5     		push	{r4, lr}
 622              		.cfi_def_cfa_offset 8
 623              		.cfi_offset 4, -8
 624              		.cfi_offset 14, -4
 625              	.LBB267:
 626              	.LBB268:
 627              	.LBB269:
 628              	.LBB270:
 629              		.loc 4 383 0
 630              	@ 383 "../../../../os/ext/CMSIS/include/core_cmFunc.h" 1
 631 0004 EFF30584 		MRS r4, ipsr
 632              	@ 0 "" 2
 633              	.LVL41:
 634              		.thumb
 635              	.LBE270:
 636              	.LBE269:
 637              		.loc 2 435 0
 638 0008 C4F30804 		ubfx	r4, r4, #0, #9
 639              	.LVL42:
 640              	.LBE268:
 641              	.LBE267:
 642              		.loc 1 240 0
 643 000c 14B1     		cbz	r4, .L31
 644              	.LVL43:
 645              	.LBB271:
 646              	.LBB272:
 647              	.LBB273:
 648              	.LBB274:
 649              	.LBB275:
 650              		.loc 4 546 0
 651              	@ 546 "../../../../os/ext/CMSIS/include/core_cmFunc.h" 1
 652 000e 80F31188 		MSR basepri, r0
 653              	@ 0 "" 2
 654              		.thumb
 655 0012 10BD     		pop	{r4, pc}
 656              	.LVL44:
 657              	.L31:
 658              	.LBE275:
 659              	.LBE274:
 660              	.LBE273:
 661              	.LBE272:
 662              	.LBE271:
 663              		.loc 1 244 0
 664 0014 FFF7FEFF 		bl	chSchRescheduleS
 665              	.LVL45:
 666              	.LBB276:
 667              	.LBB277:
 668              	.LBB278:
 669              	.LBB279:
 670              	.LBB280:
 671              		.loc 4 546 0
 672              	@ 546 "../../../../os/ext/CMSIS/include/core_cmFunc.h" 1
 673 0018 84F31188 		MSR basepri, r4
 674              	@ 0 "" 2
 675              		.thumb
 676 001c 10BD     		pop	{r4, pc}
 677              	.LVL46:
ARM GAS  C:\cygwin\tmp\cc83NXNh.s 			page 13


 678              	.L33:
 679              		.cfi_def_cfa_offset 0
 680              		.cfi_restore 4
 681              		.cfi_restore 14
 682 001e 7047     		bx	lr
 683              	.LBE280:
 684              	.LBE279:
 685              	.LBE278:
 686              	.LBE277:
 687              	.LBE276:
 688              		.cfi_endproc
 689              	.LFE231:
 690              		.size	chSysRestoreStatusX, .-chSysRestoreStatusX
 691              		.section	.text.chSysIsCounterWithinX,"ax",%progbits
 692              		.align	2
 693              		.p2align 4,,15
 694              		.global	chSysIsCounterWithinX
 695              		.thumb
 696              		.thumb_func
 697              		.type	chSysIsCounterWithinX, %function
 698              	chSysIsCounterWithinX:
 699              	.LFB232:
 700              		.loc 1 269 0
 701              		.cfi_startproc
 702              		@ args = 0, pretend = 0, frame = 0
 703              		@ frame_needed = 0, uses_anonymous_args = 0
 704              		@ link register save eliminated.
 705              	.LVL47:
 706              		.loc 1 271 0
 707 0000 8A42     		cmp	r2, r1
 708 0002 06D9     		bls	.L35
 709              		.loc 1 271 0 is_stmt 0 discriminator 1
 710 0004 8142     		cmp	r1, r0
 711 0006 08D8     		bhi	.L42
 712              	.L41:
 713 0008 8242     		cmp	r2, r0
 714 000a 94BF     		ite	ls
 715 000c 0020     		movls	r0, #0
 716              	.LVL48:
 717 000e 0120     		movhi	r0, #1
 718 0010 7047     		bx	lr
 719              	.LVL49:
 720              	.L35:
 721              		.loc 1 272 0 is_stmt 1
 722 0012 8142     		cmp	r1, r0
 723 0014 F8D8     		bhi	.L41
 724 0016 0120     		movs	r0, #1
 725              	.LVL50:
 726              		.loc 1 273 0
 727 0018 7047     		bx	lr
 728              	.LVL51:
 729              	.L42:
 730 001a 0020     		movs	r0, #0
 731              	.LVL52:
 732 001c 7047     		bx	lr
 733              		.cfi_endproc
 734              	.LFE232:
ARM GAS  C:\cygwin\tmp\cc83NXNh.s 			page 14


 735              		.size	chSysIsCounterWithinX, .-chSysIsCounterWithinX
 736 001e 00BF     		.section	.text.chSysPolledDelayX,"ax",%progbits
 737              		.align	2
 738              		.p2align 4,,15
 739              		.global	chSysPolledDelayX
 740              		.thumb
 741              		.thumb_func
 742              		.type	chSysPolledDelayX, %function
 743              	chSysPolledDelayX:
 744              	.LFB233:
 745              		.loc 1 286 0
 746              		.cfi_startproc
 747              		@ args = 0, pretend = 0, frame = 0
 748              		@ frame_needed = 0, uses_anonymous_args = 0
 749              		@ link register save eliminated.
 750              	.LVL53:
 751              	.LBB281:
 752              	.LBB282:
 753              		.loc 2 547 0
 754 0000 0849     		ldr	r1, .L54
 755 0002 4A68     		ldr	r2, [r1, #4]
 756              	.LBE282:
 757              	.LBE281:
 758              		.loc 1 288 0
 759 0004 1044     		add	r0, r0, r2
 760              	.LVL54:
 761              	.L52:
 762              	.LBB283:
 763              	.LBB284:
 764              		.loc 1 271 0 discriminator 1
 765 0006 9042     		cmp	r0, r2
 766              	.LBE284:
 767              	.LBE283:
 768              	.LBB286:
 769              	.LBB287:
 770              		.loc 2 547 0 discriminator 1
 771 0008 4B68     		ldr	r3, [r1, #4]
 772              	.LVL55:
 773              	.LBE287:
 774              	.LBE286:
 775              	.LBB288:
 776              	.LBB285:
 777              		.loc 1 271 0 discriminator 1
 778 000a 02D9     		bls	.L44
 779              		.loc 1 271 0 is_stmt 0
 780 000c 9342     		cmp	r3, r2
 781 000e 02D2     		bcs	.L53
 782 0010 7047     		bx	lr
 783              	.L44:
 784              		.loc 1 272 0 is_stmt 1
 785 0012 9342     		cmp	r3, r2
 786 0014 F7D2     		bcs	.L52
 787              	.L53:
 788 0016 8342     		cmp	r3, r0
 789 0018 2CBF     		ite	cs
 790 001a 0023     		movcs	r3, #0
 791              	.LVL56:
ARM GAS  C:\cygwin\tmp\cc83NXNh.s 			page 15


 792 001c 0123     		movcc	r3, #1
 793              	.LBE285:
 794              	.LBE288:
 795              		.loc 1 290 0
 796 001e 002B     		cmp	r3, #0
 797 0020 F1D1     		bne	.L52
 798 0022 7047     		bx	lr
 799              	.L55:
 800              		.align	2
 801              	.L54:
 802 0024 001000E0 		.word	-536866816
 803              		.cfi_endproc
 804              	.LFE233:
 805              		.size	chSysPolledDelayX, .-chSysPolledDelayX
 806 0028 AFF30080 		.section	.rodata.str1.4,"aMS",%progbits,1
 806      AFF30080 
 807              		.align	2
 808              	.LC0:
 809 0000 69646C65 		.ascii	"idle\000"
 809      00
 810 0005 000000   		.text
 811              	.Letext0:
 812              		.file 8 "c:\\program files\\gnu tools arm embedded\\4.9 2014q4\\lib\\gcc\\arm-none-eabi\\4.9.3\\in
 813              		.file 9 "c:\\program files\\gnu tools arm embedded\\4.9 2014q4\\arm-none-eabi\\include\\machine\\_
 814              		.file 10 "c:\\program files\\gnu tools arm embedded\\4.9 2014q4\\arm-none-eabi\\include\\stdint.h"
 815              		.file 11 "../../../../os/rt/ports/ARMCMx/compilers/GCC/chtypes.h"
 816              		.file 12 "../../../../os/rt/include/chsystypes.h"
 817              		.file 13 "../../../../os/rt/include/chschd.h"
 818              		.file 14 "../../../../os/ext/CMSIS/ST/stm32f407xx.h"
 819              		.file 15 "../../../../os/rt/ports/ARMCMx/chcore.h"
 820              		.file 16 "../../../../os/hal/ports/STM32/LLD/TIMv1/stm32_tim.h"
 821              		.file 17 "../../../../os/rt/include/chtm.h"
 822              		.file 18 "../../../../os/rt/include/chmtx.h"
 823              		.file 19 "../../../../os/rt/include/chthreads.h"
 824              		.file 20 "../../../../os/rt/include/chregistry.h"
 825              		.file 21 "../../../../os/rt/include/chsys.h"
 826              		.file 22 "../../../../os/rt/include/chmemcore.h"
 827              		.file 23 "../../../../os/rt/include/chheap.h"
 828              		.file 24 "../../../../os/hal/include/st.h"