ARM GAS  C:\cygwin\tmp\ccqU4nVJ.s 			page 1


   1              		.syntax unified
   2              		.cpu cortex-m4
   3              		.fpu softvfp
   4              		.eabi_attribute 20, 1
   5              		.eabi_attribute 21, 1
   6              		.eabi_attribute 23, 3
   7              		.eabi_attribute 24, 1
   8              		.eabi_attribute 25, 1
   9              		.eabi_attribute 26, 1
  10              		.eabi_attribute 30, 2
  11              		.eabi_attribute 34, 1
  12              		.eabi_attribute 18, 4
  13              		.thumb
  14              		.file	"hal_lld.c"
  15              		.text
  16              	.Ltext0:
  17              		.cfi_sections	.debug_frame
  18              		.section	.text.hal_lld_init,"ax",%progbits
  19              		.align	2
  20              		.p2align 4,,15
  21              		.global	hal_lld_init
  22              		.thumb
  23              		.thumb_func
  24              		.type	hal_lld_init, %function
  25              	hal_lld_init:
  26              	.LFB256:
  27              		.file 1 "../../../../os/hal/ports/STM32/STM32F4xx/hal_lld.c"
  28              		.loc 1 108 0
  29              		.cfi_startproc
  30              		@ args = 0, pretend = 0, frame = 0
  31              		@ frame_needed = 0, uses_anonymous_args = 0
  32              		@ link register save eliminated.
  33              		.loc 1 112 0
  34 0000 164B     		ldr	r3, .L8
  35 0002 4FF0FF31 		mov	r1, #-1
  36 0006 1A69     		ldr	r2, [r3, #16]
  37 0008 0022     		movs	r2, #0
  38              		.loc 1 108 0
  39 000a 10B4     		push	{r4}
  40              		.cfi_def_cfa_offset 4
  41              		.cfi_offset 4, -4
  42              		.loc 1 112 0
  43 000c 1961     		str	r1, [r3, #16]
  44 000e 1A61     		str	r2, [r3, #16]
  45              		.loc 1 113 0
  46 0010 5869     		ldr	r0, [r3, #20]
  47 0012 5961     		str	r1, [r3, #20]
  48 0014 5A61     		str	r2, [r3, #20]
  49              		.loc 1 114 0
  50 0016 186A     		ldr	r0, [r3, #32]
  51              	.LBB4:
  52              	.LBB5:
  53              		.loc 1 51 0
  54 0018 114C     		ldr	r4, .L8+4
  55              	.LBE5:
  56              	.LBE4:
  57              		.loc 1 114 0
ARM GAS  C:\cygwin\tmp\ccqU4nVJ.s 			page 2


  58 001a 60F08050 		orn	r0, r0, #268435456
  59 001e 1862     		str	r0, [r3, #32]
  60 0020 1A62     		str	r2, [r3, #32]
  61              		.loc 1 115 0
  62 0022 586A     		ldr	r0, [r3, #36]
  63 0024 5962     		str	r1, [r3, #36]
  64 0026 5A62     		str	r2, [r3, #36]
  65              		.loc 1 118 0
  66 0028 196C     		ldr	r1, [r3, #64]
  67 002a 41F08051 		orr	r1, r1, #268435456
  68 002e 1964     		str	r1, [r3, #64]
  69              	.LBB8:
  70              	.LBB6:
  71              		.loc 1 51 0
  72 0030 2168     		ldr	r1, [r4]
  73 0032 41F48071 		orr	r1, r1, #256
  74 0036 2160     		str	r1, [r4]
  75              		.loc 1 54 0
  76 0038 196F     		ldr	r1, [r3, #112]
  77 003a 01F44071 		and	r1, r1, #768
  78 003e B1F5007F 		cmp	r1, #512
  79 0042 03D0     		beq	.L2
  80              		.loc 1 56 0
  81 0044 4FF48031 		mov	r1, #65536
  82 0048 1967     		str	r1, [r3, #112]
  83              		.loc 1 57 0
  84 004a 1A67     		str	r2, [r3, #112]
  85              	.L2:
  86              		.loc 1 91 0
  87 004c 044A     		ldr	r2, .L8+4
  88              	.LBE6:
  89              	.LBE8:
  90              		.loc 1 131 0
  91 004e 5DF8044B 		ldr	r4, [sp], #4
  92              		.cfi_restore 4
  93              		.cfi_def_cfa_offset 0
  94              	.LBB9:
  95              	.LBB7:
  96              		.loc 1 91 0
  97 0052 5368     		ldr	r3, [r2, #4]
  98 0054 23F40073 		bic	r3, r3, #512
  99 0058 5360     		str	r3, [r2, #4]
 100              	.LBE7:
 101              	.LBE9:
 102              		.loc 1 131 0
 103 005a 7047     		bx	lr
 104              	.L9:
 105              		.align	2
 106              	.L8:
 107 005c 00380240 		.word	1073887232
 108 0060 00700040 		.word	1073770496
 109              		.cfi_endproc
 110              	.LFE256:
 111              		.size	hal_lld_init, .-hal_lld_init
 112 0064 AFF30080 		.section	.text.stm32_clock_init,"ax",%progbits
 112      AFF30080 
 112      AFF30080 
ARM GAS  C:\cygwin\tmp\ccqU4nVJ.s 			page 3


 113              		.align	2
 114              		.p2align 4,,15
 115              		.global	stm32_clock_init
 116              		.thumb
 117              		.thumb_func
 118              		.type	stm32_clock_init, %function
 119              	stm32_clock_init:
 120              	.LFB257:
 121              		.loc 1 140 0
 122              		.cfi_startproc
 123              		@ args = 0, pretend = 0, frame = 0
 124              		@ frame_needed = 0, uses_anonymous_args = 0
 125              		@ link register save eliminated.
 126              		.loc 1 144 0
 127 0000 2C49     		ldr	r1, .L31
 128              		.loc 1 148 0
 129 0002 2D4B     		ldr	r3, .L31+4
 130              		.loc 1 144 0
 131 0004 4FF08050 		mov	r0, #268435456
 132              		.loc 1 148 0
 133 0008 4FF44042 		mov	r2, #49152
 134              		.loc 1 144 0
 135 000c 0864     		str	r0, [r1, #64]
 136              		.loc 1 148 0
 137 000e 1A60     		str	r2, [r3]
 138              		.loc 1 155 0
 139 0010 0B68     		ldr	r3, [r1]
 140 0012 43F00103 		orr	r3, r3, #1
 141 0016 0B60     		str	r3, [r1]
 142              	.L11:
 143              		.loc 1 156 0 discriminator 1
 144 0018 0A68     		ldr	r2, [r1]
 145 001a 264B     		ldr	r3, .L31
 146 001c 9007     		lsls	r0, r2, #30
 147 001e FBD5     		bpl	.L11
 148              		.loc 1 162 0
 149 0020 9A68     		ldr	r2, [r3, #8]
 150 0022 22F00302 		bic	r2, r2, #3
 151 0026 9A60     		str	r2, [r3, #8]
 152              		.loc 1 163 0
 153 0028 9A68     		ldr	r2, [r3, #8]
 154 002a 9A60     		str	r2, [r3, #8]
 155              		.loc 1 164 0
 156 002c 1946     		mov	r1, r3
 157              	.L12:
 158              		.loc 1 164 0 is_stmt 0 discriminator 1
 159 002e 8B68     		ldr	r3, [r1, #8]
 160 0030 204A     		ldr	r2, .L31
 161 0032 13F00C03 		ands	r3, r3, #12
 162 0036 FAD1     		bne	.L12
 163              		.loc 1 168 0 is_stmt 1
 164 0038 1168     		ldr	r1, [r2]
 165 003a 01F0F901 		and	r1, r1, #249
 166 003e 1160     		str	r1, [r2]
 167              		.loc 1 169 0
 168 0040 9360     		str	r3, [r2, #8]
 169              		.loc 1 178 0
ARM GAS  C:\cygwin\tmp\ccqU4nVJ.s 			page 4


 170 0042 1368     		ldr	r3, [r2]
 171 0044 43F48033 		orr	r3, r3, #65536
 172 0048 1360     		str	r3, [r2]
 173              	.L13:
 174              		.loc 1 180 0 discriminator 1
 175 004a 1168     		ldr	r1, [r2]
 176 004c 194B     		ldr	r3, .L31
 177 004e 8903     		lsls	r1, r1, #14
 178 0050 FBD5     		bpl	.L13
 179              		.loc 1 186 0
 180 0052 5A6F     		ldr	r2, [r3, #116]
 181 0054 42F00102 		orr	r2, r2, #1
 182 0058 5A67     		str	r2, [r3, #116]
 183              	.L14:
 184              		.loc 1 187 0 discriminator 1
 185 005a 5A6F     		ldr	r2, [r3, #116]
 186 005c 1549     		ldr	r1, .L31
 187 005e 9007     		lsls	r0, r2, #30
 188 0060 FBD5     		bpl	.L14
 189              		.loc 1 193 0
 190 0062 164B     		ldr	r3, .L31+8
 191 0064 4B60     		str	r3, [r1, #4]
 192              		.loc 1 195 0
 193 0066 0B68     		ldr	r3, [r1]
 194              		.loc 1 199 0
 195 0068 134A     		ldr	r2, .L31+4
 196              		.loc 1 195 0
 197 006a 43F08073 		orr	r3, r3, #16777216
 198 006e 0B60     		str	r3, [r1]
 199              	.L15:
 200              		.loc 1 199 0 discriminator 1
 201 0070 5368     		ldr	r3, [r2, #4]
 202 0072 5904     		lsls	r1, r3, #17
 203 0074 FCD5     		bpl	.L15
 204              		.loc 1 215 0 discriminator 1
 205 0076 0F49     		ldr	r1, .L31
 206              	.L25:
 207 0078 0A68     		ldr	r2, [r1]
 208 007a 0E4B     		ldr	r3, .L31
 209 007c 9201     		lsls	r2, r2, #6
 210 007e FBD5     		bpl	.L25
 211              		.loc 1 243 0
 212 0080 0F4A     		ldr	r2, .L31+12
 213              		.loc 1 230 0
 214 0082 1049     		ldr	r1, .L31+16
 215 0084 9960     		str	r1, [r3, #8]
 216              		.loc 1 243 0
 217 0086 40F20471 		movw	r1, #1796
 218 008a 1160     		str	r1, [r2]
 219              		.loc 1 249 0
 220 008c 9A68     		ldr	r2, [r3, #8]
 221 008e 42F00202 		orr	r2, r2, #2
 222 0092 9A60     		str	r2, [r3, #8]
 223              		.loc 1 250 0
 224 0094 1A46     		mov	r2, r3
 225              	.L17:
 226              		.loc 1 250 0 is_stmt 0 discriminator 1
ARM GAS  C:\cygwin\tmp\ccqU4nVJ.s 			page 5


 227 0096 9368     		ldr	r3, [r2, #8]
 228 0098 0649     		ldr	r1, .L31
 229 009a 03F00C03 		and	r3, r3, #12
 230 009e 082B     		cmp	r3, #8
 231 00a0 F9D1     		bne	.L17
 232              		.loc 1 257 0 is_stmt 1
 233 00a2 4B6C     		ldr	r3, [r1, #68]
 234 00a4 43F48043 		orr	r3, r3, #16384
 235 00a8 4B64     		str	r3, [r1, #68]
 236 00aa 4B6E     		ldr	r3, [r1, #100]
 237 00ac 43F48043 		orr	r3, r3, #16384
 238 00b0 4B66     		str	r3, [r1, #100]
 239 00b2 7047     		bx	lr
 240              	.L32:
 241              		.align	2
 242              	.L31:
 243 00b4 00380240 		.word	1073887232
 244 00b8 00700040 		.word	1073770496
 245 00bc 194B4007 		.word	121654041
 246 00c0 003C0240 		.word	1073888256
 247 00c4 00940838 		.word	940086272
 248              		.cfi_endproc
 249              	.LFE257:
 250              		.size	stm32_clock_init, .-stm32_clock_init
 251 00c8 AFF30080 		.text
 251      AFF30080 
 252              	.Letext0:
 253              		.file 2 "c:\\program files\\gnu tools arm embedded\\4.9 2014q4\\arm-none-eabi\\include\\machine\\_
 254              		.file 3 "c:\\program files\\gnu tools arm embedded\\4.9 2014q4\\arm-none-eabi\\include\\stdint.h"
 255              		.file 4 "../../../../os/rt/ports/ARMCMx/compilers/GCC/chtypes.h"
 256              		.file 5 "../../../../os/rt/include/chsystypes.h"
 257              		.file 6 "../../../../os/rt/include/chschd.h"
 258              		.file 7 "../../../../os/ext/CMSIS/ST/stm32f407xx.h"
 259              		.file 8 "../../../../os/rt/ports/ARMCMx/chcore.h"
 260              		.file 9 "../../../../os/rt/ports/ARMCMx/chcore_v7m.h"
 261              		.file 10 "../../../../os/rt/include/chtm.h"
 262              		.file 11 "../../../../os/rt/include/chmtx.h"
 263              		.file 12 "../../../../os/ext/CMSIS/include/core_cm4.h"
 264              		.section	.debug_info,"",%progbits
 265              	.Ldebug_info0:
 266 0000 56080000 		.4byte	0x856
 267 0004 0400     		.2byte	0x4
 268 0006 00000000 		.4byte	.Ldebug_abbrev0
 269 000a 04       		.byte	0x4
 270 000b 01       		.uleb128 0x1
 271 000c A7020000 		.4byte	.LASF129
 272 0010 01       		.byte	0x1
 273 0011 D5030000 		.4byte	.LASF130
 274 0015 4F000000 		.4byte	.LASF131
 275 0019 20000000 		.4byte	.Ldebug_ranges0+0x20
 276 001d 00000000 		.4byte	0
 277 0021 00000000 		.4byte	.Ldebug_line0
 278 0025 02       		.uleb128 0x2
 279 0026 04       		.byte	0x4
 280 0027 05       		.byte	0x5
 281 0028 696E7400 		.ascii	"int\000"
 282 002c 03       		.uleb128 0x3
ARM GAS  C:\cygwin\tmp\ccqU4nVJ.s 			page 6


 283 002d 04       		.byte	0x4
 284 002e 07       		.byte	0x7
 285 002f E7010000 		.4byte	.LASF0
 286 0033 03       		.uleb128 0x3
 287 0034 01       		.byte	0x1
 288 0035 06       		.byte	0x6
 289 0036 14010000 		.4byte	.LASF1
 290 003a 04       		.uleb128 0x4
 291 003b 1D000000 		.4byte	.LASF5
 292 003f 02       		.byte	0x2
 293 0040 1D       		.byte	0x1d
 294 0041 45000000 		.4byte	0x45
 295 0045 03       		.uleb128 0x3
 296 0046 01       		.byte	0x1
 297 0047 08       		.byte	0x8
 298 0048 E1040000 		.4byte	.LASF2
 299 004c 03       		.uleb128 0x3
 300 004d 02       		.byte	0x2
 301 004e 05       		.byte	0x5
 302 004f F9040000 		.4byte	.LASF3
 303 0053 03       		.uleb128 0x3
 304 0054 02       		.byte	0x2
 305 0055 07       		.byte	0x7
 306 0056 13020000 		.4byte	.LASF4
 307 005a 04       		.uleb128 0x4
 308 005b 9D020000 		.4byte	.LASF6
 309 005f 02       		.byte	0x2
 310 0060 3F       		.byte	0x3f
 311 0061 65000000 		.4byte	0x65
 312 0065 03       		.uleb128 0x3
 313 0066 04       		.byte	0x4
 314 0067 05       		.byte	0x5
 315 0068 64010000 		.4byte	.LASF7
 316 006c 04       		.uleb128 0x4
 317 006d D1050000 		.4byte	.LASF8
 318 0071 02       		.byte	0x2
 319 0072 41       		.byte	0x41
 320 0073 77000000 		.4byte	0x77
 321 0077 03       		.uleb128 0x3
 322 0078 04       		.byte	0x4
 323 0079 07       		.byte	0x7
 324 007a 83050000 		.4byte	.LASF9
 325 007e 03       		.uleb128 0x3
 326 007f 08       		.byte	0x8
 327 0080 05       		.byte	0x5
 328 0081 06010000 		.4byte	.LASF10
 329 0085 04       		.uleb128 0x4
 330 0086 5F040000 		.4byte	.LASF11
 331 008a 02       		.byte	0x2
 332 008b 5B       		.byte	0x5b
 333 008c 90000000 		.4byte	0x90
 334 0090 03       		.uleb128 0x3
 335 0091 08       		.byte	0x8
 336 0092 07       		.byte	0x7
 337 0093 96000000 		.4byte	.LASF12
 338 0097 04       		.uleb128 0x4
 339 0098 51060000 		.4byte	.LASF13
ARM GAS  C:\cygwin\tmp\ccqU4nVJ.s 			page 7


 340 009c 03       		.byte	0x3
 341 009d 15       		.byte	0x15
 342 009e 3A000000 		.4byte	0x3a
 343 00a2 04       		.uleb128 0x4
 344 00a3 D9040000 		.4byte	.LASF14
 345 00a7 03       		.byte	0x3
 346 00a8 2C       		.byte	0x2c
 347 00a9 5A000000 		.4byte	0x5a
 348 00ad 04       		.uleb128 0x4
 349 00ae 59050000 		.4byte	.LASF15
 350 00b2 03       		.byte	0x3
 351 00b3 2D       		.byte	0x2d
 352 00b4 6C000000 		.4byte	0x6c
 353 00b8 04       		.uleb128 0x4
 354 00b9 14000000 		.4byte	.LASF16
 355 00bd 03       		.byte	0x3
 356 00be 39       		.byte	0x39
 357 00bf 85000000 		.4byte	0x85
 358 00c3 05       		.uleb128 0x5
 359 00c4 A2000000 		.4byte	0xa2
 360 00c8 05       		.uleb128 0x5
 361 00c9 AD000000 		.4byte	0xad
 362 00cd 04       		.uleb128 0x4
 363 00ce 1A060000 		.4byte	.LASF17
 364 00d2 04       		.byte	0x4
 365 00d3 45       		.byte	0x45
 366 00d4 AD000000 		.4byte	0xad
 367 00d8 04       		.uleb128 0x4
 368 00d9 71020000 		.4byte	.LASF18
 369 00dd 04       		.byte	0x4
 370 00de 48       		.byte	0x48
 371 00df 97000000 		.4byte	0x97
 372 00e3 04       		.uleb128 0x4
 373 00e4 80010000 		.4byte	.LASF19
 374 00e8 04       		.byte	0x4
 375 00e9 49       		.byte	0x49
 376 00ea 97000000 		.4byte	0x97
 377 00ee 04       		.uleb128 0x4
 378 00ef 6A040000 		.4byte	.LASF20
 379 00f3 04       		.byte	0x4
 380 00f4 4A       		.byte	0x4a
 381 00f5 97000000 		.4byte	0x97
 382 00f9 04       		.uleb128 0x4
 383 00fa B5040000 		.4byte	.LASF21
 384 00fe 04       		.byte	0x4
 385 00ff 4C       		.byte	0x4c
 386 0100 AD000000 		.4byte	0xad
 387 0104 04       		.uleb128 0x4
 388 0105 3B020000 		.4byte	.LASF22
 389 0109 04       		.byte	0x4
 390 010a 4D       		.byte	0x4d
 391 010b A2000000 		.4byte	0xa2
 392 010f 04       		.uleb128 0x4
 393 0110 91020000 		.4byte	.LASF23
 394 0114 04       		.byte	0x4
 395 0115 4F       		.byte	0x4f
 396 0116 AD000000 		.4byte	0xad
ARM GAS  C:\cygwin\tmp\ccqU4nVJ.s 			page 8


 397 011a 04       		.uleb128 0x4
 398 011b B3050000 		.4byte	.LASF24
 399 011f 05       		.byte	0x5
 400 0120 33       		.byte	0x33
 401 0121 AD000000 		.4byte	0xad
 402 0125 04       		.uleb128 0x4
 403 0126 A3050000 		.4byte	.LASF25
 404 012a 05       		.byte	0x5
 405 012b 3F       		.byte	0x3f
 406 012c 30010000 		.4byte	0x130
 407 0130 06       		.uleb128 0x6
 408 0131 26020000 		.4byte	.LASF44
 409 0135 44       		.byte	0x44
 410 0136 06       		.byte	0x6
 411 0137 BE       		.byte	0xbe
 412 0138 1D020000 		.4byte	0x21d
 413 013c 07       		.uleb128 0x7
 414 013d 08040000 		.4byte	.LASF26
 415 0141 06       		.byte	0x6
 416 0142 BF       		.byte	0xbf
 417 0143 4A070000 		.4byte	0x74a
 418 0147 00       		.byte	0
 419 0148 07       		.uleb128 0x7
 420 0149 A4040000 		.4byte	.LASF27
 421 014d 06       		.byte	0x6
 422 014e C1       		.byte	0xc1
 423 014f 4A070000 		.4byte	0x74a
 424 0153 04       		.byte	0x4
 425 0154 07       		.uleb128 0x7
 426 0155 FF000000 		.4byte	.LASF28
 427 0159 06       		.byte	0x6
 428 015a C3       		.byte	0xc3
 429 015b F9000000 		.4byte	0xf9
 430 015f 08       		.byte	0x8
 431 0160 07       		.uleb128 0x7
 432 0161 82060000 		.4byte	.LASF29
 433 0165 06       		.byte	0x6
 434 0166 C4       		.byte	0xc4
 435 0167 90060000 		.4byte	0x690
 436 016b 0C       		.byte	0xc
 437 016c 07       		.uleb128 0x7
 438 016d 91010000 		.4byte	.LASF30
 439 0171 06       		.byte	0x6
 440 0172 C6       		.byte	0xc6
 441 0173 4A070000 		.4byte	0x74a
 442 0177 10       		.byte	0x10
 443 0178 07       		.uleb128 0x7
 444 0179 23040000 		.4byte	.LASF31
 445 017d 06       		.byte	0x6
 446 017e C7       		.byte	0xc7
 447 017f 4A070000 		.4byte	0x74a
 448 0183 14       		.byte	0x14
 449 0184 07       		.uleb128 0x7
 450 0185 60060000 		.4byte	.LASF32
 451 0189 06       		.byte	0x6
 452 018a CE       		.byte	0xce
 453 018b 88070000 		.4byte	0x788
ARM GAS  C:\cygwin\tmp\ccqU4nVJ.s 			page 9


 454 018f 18       		.byte	0x18
 455 0190 07       		.uleb128 0x7
 456 0191 03050000 		.4byte	.LASF33
 457 0195 06       		.byte	0x6
 458 0196 D9       		.byte	0xd9
 459 0197 E3000000 		.4byte	0xe3
 460 019b 1C       		.byte	0x1c
 461 019c 07       		.uleb128 0x7
 462 019d 23050000 		.4byte	.LASF34
 463 01a1 06       		.byte	0x6
 464 01a2 DD       		.byte	0xdd
 465 01a3 D8000000 		.4byte	0xd8
 466 01a7 1D       		.byte	0x1d
 467 01a8 07       		.uleb128 0x7
 468 01a9 3F060000 		.4byte	.LASF35
 469 01ad 06       		.byte	0x6
 470 01ae E2       		.byte	0xe2
 471 01af EE000000 		.4byte	0xee
 472 01b3 1E       		.byte	0x1e
 473 01b4 08       		.uleb128 0x8
 474 01b5 705F7500 		.ascii	"p_u\000"
 475 01b9 06       		.byte	0x6
 476 01ba 1401     		.2byte	0x114
 477 01bc 50070000 		.4byte	0x750
 478 01c0 20       		.byte	0x20
 479 01c1 09       		.uleb128 0x9
 480 01c2 AB030000 		.4byte	.LASF36
 481 01c6 06       		.byte	0x6
 482 01c7 1901     		.2byte	0x119
 483 01c9 1D020000 		.4byte	0x21d
 484 01cd 24       		.byte	0x24
 485 01ce 09       		.uleb128 0x9
 486 01cf FC010000 		.4byte	.LASF37
 487 01d3 06       		.byte	0x6
 488 01d4 1F01     		.2byte	0x11f
 489 01d6 41020000 		.4byte	0x241
 490 01da 28       		.byte	0x28
 491 01db 09       		.uleb128 0x9
 492 01dc 74060000 		.4byte	.LASF38
 493 01e0 06       		.byte	0x6
 494 01e1 2301     		.2byte	0x123
 495 01e3 04010000 		.4byte	0x104
 496 01e7 30       		.byte	0x30
 497 01e8 09       		.uleb128 0x9
 498 01e9 44050000 		.4byte	.LASF39
 499 01ed 06       		.byte	0x6
 500 01ee 2901     		.2byte	0x129
 501 01f0 0F010000 		.4byte	0x10f
 502 01f4 34       		.byte	0x34
 503 01f5 09       		.uleb128 0x9
 504 01f6 EF040000 		.4byte	.LASF40
 505 01fa 06       		.byte	0x6
 506 01fb 3001     		.2byte	0x130
 507 01fd CB070000 		.4byte	0x7cb
 508 0201 38       		.byte	0x38
 509 0202 09       		.uleb128 0x9
 510 0203 BD050000 		.4byte	.LASF41
ARM GAS  C:\cygwin\tmp\ccqU4nVJ.s 			page 10


 511 0207 06       		.byte	0x6
 512 0208 3401     		.2byte	0x134
 513 020a F9000000 		.4byte	0xf9
 514 020e 3C       		.byte	0x3c
 515 020f 09       		.uleb128 0x9
 516 0210 37010000 		.4byte	.LASF42
 517 0214 06       		.byte	0x6
 518 0215 3A01     		.2byte	0x13a
 519 0217 F4020000 		.4byte	0x2f4
 520 021b 40       		.byte	0x40
 521 021c 00       		.byte	0
 522 021d 04       		.uleb128 0x4
 523 021e 8C030000 		.4byte	.LASF43
 524 0222 05       		.byte	0x5
 525 0223 44       		.byte	0x44
 526 0224 28020000 		.4byte	0x228
 527 0228 06       		.uleb128 0x6
 528 0229 73050000 		.4byte	.LASF45
 529 022d 04       		.byte	0x4
 530 022e 06       		.byte	0x6
 531 022f AC       		.byte	0xac
 532 0230 41020000 		.4byte	0x241
 533 0234 07       		.uleb128 0x7
 534 0235 08040000 		.4byte	.LASF26
 535 0239 06       		.byte	0x6
 536 023a AD       		.byte	0xad
 537 023b 4A070000 		.4byte	0x74a
 538 023f 00       		.byte	0
 539 0240 00       		.byte	0
 540 0241 04       		.uleb128 0x4
 541 0242 2F060000 		.4byte	.LASF46
 542 0246 05       		.byte	0x5
 543 0247 4B       		.byte	0x4b
 544 0248 4C020000 		.4byte	0x24c
 545 024c 06       		.uleb128 0x6
 546 024d E4000000 		.4byte	.LASF47
 547 0251 08       		.byte	0x8
 548 0252 06       		.byte	0x6
 549 0253 B3       		.byte	0xb3
 550 0254 71020000 		.4byte	0x271
 551 0258 07       		.uleb128 0x7
 552 0259 08040000 		.4byte	.LASF26
 553 025d 06       		.byte	0x6
 554 025e B4       		.byte	0xb4
 555 025f 4A070000 		.4byte	0x74a
 556 0263 00       		.byte	0
 557 0264 07       		.uleb128 0x7
 558 0265 A4040000 		.4byte	.LASF27
 559 0269 06       		.byte	0x6
 560 026a B5       		.byte	0xb5
 561 026b 4A070000 		.4byte	0x74a
 562 026f 04       		.byte	0x4
 563 0270 00       		.byte	0
 564 0271 04       		.uleb128 0x4
 565 0272 00000000 		.4byte	.LASF48
 566 0276 05       		.byte	0x5
 567 0277 52       		.byte	0x52
ARM GAS  C:\cygwin\tmp\ccqU4nVJ.s 			page 11


 568 0278 7C020000 		.4byte	0x27c
 569 027c 0A       		.uleb128 0xa
 570 027d 83020000 		.4byte	.LASF49
 571 0281 1C       		.byte	0x1c
 572 0282 06       		.byte	0x6
 573 0283 7201     		.2byte	0x172
 574 0285 D8020000 		.4byte	0x2d8
 575 0289 09       		.uleb128 0x9
 576 028a 62050000 		.4byte	.LASF50
 577 028e 06       		.byte	0x6
 578 028f 7301     		.2byte	0x173
 579 0291 41020000 		.4byte	0x241
 580 0295 00       		.byte	0
 581 0296 09       		.uleb128 0x9
 582 0297 15050000 		.4byte	.LASF51
 583 029b 06       		.byte	0x6
 584 029c 7401     		.2byte	0x174
 585 029e F9000000 		.4byte	0xf9
 586 02a2 08       		.byte	0x8
 587 02a3 09       		.uleb128 0x9
 588 02a4 2B040000 		.4byte	.LASF52
 589 02a8 06       		.byte	0x6
 590 02a9 7601     		.2byte	0x176
 591 02ab 90060000 		.4byte	0x690
 592 02af 0C       		.byte	0xc
 593 02b0 09       		.uleb128 0x9
 594 02b1 A1010000 		.4byte	.LASF53
 595 02b5 06       		.byte	0x6
 596 02b6 7901     		.2byte	0x179
 597 02b8 4A070000 		.4byte	0x74a
 598 02bc 10       		.byte	0x10
 599 02bd 09       		.uleb128 0x9
 600 02be 05060000 		.4byte	.LASF54
 601 02c2 06       		.byte	0x6
 602 02c3 7A01     		.2byte	0x17a
 603 02c5 4A070000 		.4byte	0x74a
 604 02c9 14       		.byte	0x14
 605 02ca 09       		.uleb128 0x9
 606 02cb 4C040000 		.4byte	.LASF55
 607 02cf 06       		.byte	0x6
 608 02d0 7D01     		.2byte	0x17d
 609 02d2 4A070000 		.4byte	0x74a
 610 02d6 18       		.byte	0x18
 611 02d7 00       		.byte	0
 612 02d8 04       		.uleb128 0x4
 613 02d9 C8050000 		.4byte	.LASF56
 614 02dd 05       		.byte	0x5
 615 02de 57       		.byte	0x57
 616 02df E3020000 		.4byte	0x2e3
 617 02e3 0B       		.uleb128 0xb
 618 02e4 04       		.byte	0x4
 619 02e5 E9020000 		.4byte	0x2e9
 620 02e9 0C       		.uleb128 0xc
 621 02ea F4020000 		.4byte	0x2f4
 622 02ee 0D       		.uleb128 0xd
 623 02ef F4020000 		.4byte	0x2f4
 624 02f3 00       		.byte	0
ARM GAS  C:\cygwin\tmp\ccqU4nVJ.s 			page 12


 625 02f4 0E       		.uleb128 0xe
 626 02f5 04       		.byte	0x4
 627 02f6 04       		.uleb128 0x4
 628 02f7 9B030000 		.4byte	.LASF57
 629 02fb 05       		.byte	0x5
 630 02fc 5C       		.byte	0x5c
 631 02fd 01030000 		.4byte	0x301
 632 0301 0A       		.uleb128 0xa
 633 0302 33050000 		.4byte	.LASF58
 634 0306 14       		.byte	0x14
 635 0307 06       		.byte	0x6
 636 0308 4D01     		.2byte	0x14d
 637 030a 50030000 		.4byte	0x350
 638 030e 09       		.uleb128 0x9
 639 030f F4010000 		.4byte	.LASF59
 640 0313 06       		.byte	0x6
 641 0314 4E01     		.2byte	0x14e
 642 0316 D1070000 		.4byte	0x7d1
 643 031a 00       		.byte	0
 644 031b 09       		.uleb128 0x9
 645 031c B2010000 		.4byte	.LASF60
 646 0320 06       		.byte	0x6
 647 0321 4F01     		.2byte	0x14f
 648 0323 D1070000 		.4byte	0x7d1
 649 0327 04       		.byte	0x4
 650 0328 09       		.uleb128 0x9
 651 0329 6A050000 		.4byte	.LASF61
 652 032d 06       		.byte	0x6
 653 032e 5001     		.2byte	0x150
 654 0330 1A010000 		.4byte	0x11a
 655 0334 08       		.byte	0x8
 656 0335 09       		.uleb128 0x9
 657 0336 88060000 		.4byte	.LASF62
 658 033a 06       		.byte	0x6
 659 033b 5101     		.2byte	0x151
 660 033d D8020000 		.4byte	0x2d8
 661 0341 0C       		.byte	0xc
 662 0342 09       		.uleb128 0x9
 663 0343 22060000 		.4byte	.LASF63
 664 0347 06       		.byte	0x6
 665 0348 5301     		.2byte	0x153
 666 034a F4020000 		.4byte	0x2f4
 667 034e 10       		.byte	0x10
 668 034f 00       		.byte	0
 669 0350 04       		.uleb128 0x4
 670 0351 C1000000 		.4byte	.LASF64
 671 0355 05       		.byte	0x5
 672 0356 61       		.byte	0x61
 673 0357 5B030000 		.4byte	0x35b
 674 035b 0A       		.uleb128 0xa
 675 035c BE030000 		.4byte	.LASF65
 676 0360 10       		.byte	0x10
 677 0361 06       		.byte	0x6
 678 0362 5D01     		.2byte	0x15d
 679 0364 9D030000 		.4byte	0x39d
 680 0368 09       		.uleb128 0x9
 681 0369 F4010000 		.4byte	.LASF59
ARM GAS  C:\cygwin\tmp\ccqU4nVJ.s 			page 13


 682 036d 06       		.byte	0x6
 683 036e 5E01     		.2byte	0x15e
 684 0370 D1070000 		.4byte	0x7d1
 685 0374 00       		.byte	0
 686 0375 09       		.uleb128 0x9
 687 0376 B2010000 		.4byte	.LASF60
 688 037a 06       		.byte	0x6
 689 037b 6001     		.2byte	0x160
 690 037d D1070000 		.4byte	0x7d1
 691 0381 04       		.byte	0x4
 692 0382 09       		.uleb128 0x9
 693 0383 6A050000 		.4byte	.LASF61
 694 0387 06       		.byte	0x6
 695 0388 6201     		.2byte	0x162
 696 038a 1A010000 		.4byte	0x11a
 697 038e 08       		.byte	0x8
 698 038f 09       		.uleb128 0x9
 699 0390 17040000 		.4byte	.LASF66
 700 0394 06       		.byte	0x6
 701 0395 6A01     		.2byte	0x16a
 702 0397 1A010000 		.4byte	0x11a
 703 039b 0C       		.byte	0xc
 704 039c 00       		.byte	0
 705 039d 04       		.uleb128 0x4
 706 039e 33000000 		.4byte	.LASF67
 707 03a2 05       		.byte	0x5
 708 03a3 66       		.byte	0x66
 709 03a4 A8030000 		.4byte	0x3a8
 710 03a8 0A       		.uleb128 0xa
 711 03a9 C3040000 		.4byte	.LASF68
 712 03ad 04       		.byte	0x4
 713 03ae 06       		.byte	0x6
 714 03af 8401     		.2byte	0x184
 715 03b1 C3030000 		.4byte	0x3c3
 716 03b5 09       		.uleb128 0x9
 717 03b6 DC050000 		.4byte	.LASF69
 718 03ba 06       		.byte	0x6
 719 03bb 8C01     		.2byte	0x18c
 720 03bd D7070000 		.4byte	0x7d7
 721 03c1 00       		.byte	0
 722 03c2 00       		.byte	0
 723 03c3 04       		.uleb128 0x4
 724 03c4 65020000 		.4byte	.LASF70
 725 03c8 05       		.byte	0x5
 726 03c9 6B       		.byte	0x6b
 727 03ca CE030000 		.4byte	0x3ce
 728 03ce 0F       		.uleb128 0xf
 729 03cf 5A010000 		.4byte	.LASF71
 730 03d3 5001     		.2byte	0x150
 731 03d5 06       		.byte	0x6
 732 03d6 A401     		.2byte	0x1a4
 733 03d8 2A040000 		.4byte	0x42a
 734 03dc 09       		.uleb128 0x9
 735 03dd 4B060000 		.4byte	.LASF72
 736 03e1 06       		.byte	0x6
 737 03e2 A801     		.2byte	0x1a8
 738 03e4 71020000 		.4byte	0x271
ARM GAS  C:\cygwin\tmp\ccqU4nVJ.s 			page 14


 739 03e8 00       		.byte	0
 740 03e9 09       		.uleb128 0x9
 741 03ea 47010000 		.4byte	.LASF73
 742 03ee 06       		.byte	0x6
 743 03ef AC01     		.2byte	0x1ac
 744 03f1 50030000 		.4byte	0x350
 745 03f5 1C       		.byte	0x1c
 746 03f6 08       		.uleb128 0x8
 747 03f7 64626700 		.ascii	"dbg\000"
 748 03fb 06       		.byte	0x6
 749 03fc B001     		.2byte	0x1b0
 750 03fe 9D030000 		.4byte	0x39d
 751 0402 2C       		.byte	0x2c
 752 0403 09       		.uleb128 0x9
 753 0404 B6000000 		.4byte	.LASF74
 754 0408 06       		.byte	0x6
 755 0409 B401     		.2byte	0x1b4
 756 040b 25010000 		.4byte	0x125
 757 040f 30       		.byte	0x30
 758 0410 08       		.uleb128 0x8
 759 0411 746D00   		.ascii	"tm\000"
 760 0414 06       		.byte	0x6
 761 0415 B901     		.2byte	0x1b9
 762 0417 3F070000 		.4byte	0x73f
 763 041b 74       		.byte	0x74
 764 041c 09       		.uleb128 0x9
 765 041d D8010000 		.4byte	.LASF75
 766 0421 06       		.byte	0x6
 767 0422 C501     		.2byte	0x1c5
 768 0424 DC070000 		.4byte	0x7dc
 769 0428 78       		.byte	0x78
 770 0429 00       		.byte	0
 771 042a 03       		.uleb128 0x3
 772 042b 04       		.byte	0x4
 773 042c 07       		.byte	0x7
 774 042d B5030000 		.4byte	.LASF76
 775 0431 10       		.uleb128 0x10
 776 0432 AD000000 		.4byte	0xad
 777 0436 41040000 		.4byte	0x441
 778 043a 11       		.uleb128 0x11
 779 043b 2A040000 		.4byte	0x42a
 780 043f 01       		.byte	0x1
 781 0440 00       		.byte	0
 782 0441 12       		.uleb128 0x12
 783 0442 1C       		.byte	0x1c
 784 0443 07       		.byte	0x7
 785 0444 DA01     		.2byte	0x1da
 786 0446 A4040000 		.4byte	0x4a4
 787 044a 08       		.uleb128 0x8
 788 044b 41435200 		.ascii	"ACR\000"
 789 044f 07       		.byte	0x7
 790 0450 DC01     		.2byte	0x1dc
 791 0452 C8000000 		.4byte	0xc8
 792 0456 00       		.byte	0
 793 0457 09       		.uleb128 0x9
 794 0458 BA010000 		.4byte	.LASF77
 795 045c 07       		.byte	0x7
ARM GAS  C:\cygwin\tmp\ccqU4nVJ.s 			page 15


 796 045d DD01     		.2byte	0x1dd
 797 045f C8000000 		.4byte	0xc8
 798 0463 04       		.byte	0x4
 799 0464 09       		.uleb128 0x9
 800 0465 89010000 		.4byte	.LASF78
 801 0469 07       		.byte	0x7
 802 046a DE01     		.2byte	0x1de
 803 046c C8000000 		.4byte	0xc8
 804 0470 08       		.byte	0x8
 805 0471 08       		.uleb128 0x8
 806 0472 535200   		.ascii	"SR\000"
 807 0475 07       		.byte	0x7
 808 0476 DF01     		.2byte	0x1df
 809 0478 C8000000 		.4byte	0xc8
 810 047c 0C       		.byte	0xc
 811 047d 08       		.uleb128 0x8
 812 047e 435200   		.ascii	"CR\000"
 813 0481 07       		.byte	0x7
 814 0482 E001     		.2byte	0x1e0
 815 0484 C8000000 		.4byte	0xc8
 816 0488 10       		.byte	0x10
 817 0489 09       		.uleb128 0x9
 818 048a 42000000 		.4byte	.LASF79
 819 048e 07       		.byte	0x7
 820 048f E101     		.2byte	0x1e1
 821 0491 C8000000 		.4byte	0xc8
 822 0495 14       		.byte	0x14
 823 0496 09       		.uleb128 0x9
 824 0497 48000000 		.4byte	.LASF80
 825 049b 07       		.byte	0x7
 826 049c E201     		.2byte	0x1e2
 827 049e C8000000 		.4byte	0xc8
 828 04a2 18       		.byte	0x18
 829 04a3 00       		.byte	0
 830 04a4 13       		.uleb128 0x13
 831 04a5 29010000 		.4byte	.LASF81
 832 04a9 07       		.byte	0x7
 833 04aa E301     		.2byte	0x1e3
 834 04ac 41040000 		.4byte	0x441
 835 04b0 12       		.uleb128 0x12
 836 04b1 08       		.byte	0x8
 837 04b2 07       		.byte	0x7
 838 04b3 5D02     		.2byte	0x25d
 839 04b5 D3040000 		.4byte	0x4d3
 840 04b9 08       		.uleb128 0x8
 841 04ba 435200   		.ascii	"CR\000"
 842 04bd 07       		.byte	0x7
 843 04be 5F02     		.2byte	0x25f
 844 04c0 C8000000 		.4byte	0xc8
 845 04c4 00       		.byte	0
 846 04c5 08       		.uleb128 0x8
 847 04c6 43535200 		.ascii	"CSR\000"
 848 04ca 07       		.byte	0x7
 849 04cb 6002     		.2byte	0x260
 850 04cd C8000000 		.4byte	0xc8
 851 04d1 04       		.byte	0x4
 852 04d2 00       		.byte	0
ARM GAS  C:\cygwin\tmp\ccqU4nVJ.s 			page 16


 853 04d3 13       		.uleb128 0x13
 854 04d4 4E010000 		.4byte	.LASF82
 855 04d8 07       		.byte	0x7
 856 04d9 6102     		.2byte	0x261
 857 04db B0040000 		.4byte	0x4b0
 858 04df 12       		.uleb128 0x12
 859 04e0 88       		.byte	0x88
 860 04e1 07       		.byte	0x7
 861 04e2 6702     		.2byte	0x267
 862 04e4 6E060000 		.4byte	0x66e
 863 04e8 08       		.uleb128 0x8
 864 04e9 435200   		.ascii	"CR\000"
 865 04ec 07       		.byte	0x7
 866 04ed 6902     		.2byte	0x269
 867 04ef C8000000 		.4byte	0xc8
 868 04f3 00       		.byte	0
 869 04f4 09       		.uleb128 0x9
 870 04f5 99010000 		.4byte	.LASF83
 871 04f9 07       		.byte	0x7
 872 04fa 6A02     		.2byte	0x26a
 873 04fc C8000000 		.4byte	0xc8
 874 0500 04       		.byte	0x4
 875 0501 09       		.uleb128 0x9
 876 0502 6F060000 		.4byte	.LASF84
 877 0506 07       		.byte	0x7
 878 0507 6B02     		.2byte	0x26b
 879 0509 C8000000 		.4byte	0xc8
 880 050d 08       		.byte	0x8
 881 050e 08       		.uleb128 0x8
 882 050f 43495200 		.ascii	"CIR\000"
 883 0513 07       		.byte	0x7
 884 0514 6C02     		.2byte	0x26c
 885 0516 C8000000 		.4byte	0xc8
 886 051a 0C       		.byte	0xc
 887 051b 09       		.uleb128 0x9
 888 051c 20010000 		.4byte	.LASF85
 889 0520 07       		.byte	0x7
 890 0521 6D02     		.2byte	0x26d
 891 0523 C8000000 		.4byte	0xc8
 892 0527 10       		.byte	0x10
 893 0528 09       		.uleb128 0x9
 894 0529 9A050000 		.4byte	.LASF86
 895 052d 07       		.byte	0x7
 896 052e 6E02     		.2byte	0x26e
 897 0530 C8000000 		.4byte	0xc8
 898 0534 14       		.byte	0x14
 899 0535 09       		.uleb128 0x9
 900 0536 41020000 		.4byte	.LASF87
 901 053a 07       		.byte	0x7
 902 053b 6F02     		.2byte	0x26f
 903 053d C8000000 		.4byte	0xc8
 904 0541 18       		.byte	0x18
 905 0542 09       		.uleb128 0x9
 906 0543 72040000 		.4byte	.LASF88
 907 0547 07       		.byte	0x7
 908 0548 7002     		.2byte	0x270
 909 054a AD000000 		.4byte	0xad
ARM GAS  C:\cygwin\tmp\ccqU4nVJ.s 			page 17


 910 054e 1C       		.byte	0x1c
 911 054f 09       		.uleb128 0x9
 912 0550 56040000 		.4byte	.LASF89
 913 0554 07       		.byte	0x7
 914 0555 7102     		.2byte	0x271
 915 0557 C8000000 		.4byte	0xc8
 916 055b 20       		.byte	0x20
 917 055c 09       		.uleb128 0x9
 918 055d 6D010000 		.4byte	.LASF90
 919 0561 07       		.byte	0x7
 920 0562 7202     		.2byte	0x272
 921 0564 C8000000 		.4byte	0xc8
 922 0568 24       		.byte	0x24
 923 0569 09       		.uleb128 0x9
 924 056a 7C040000 		.4byte	.LASF91
 925 056e 07       		.byte	0x7
 926 056f 7302     		.2byte	0x273
 927 0571 31040000 		.4byte	0x431
 928 0575 28       		.byte	0x28
 929 0576 09       		.uleb128 0x9
 930 0577 67060000 		.4byte	.LASF92
 931 057b 07       		.byte	0x7
 932 057c 7402     		.2byte	0x274
 933 057e C8000000 		.4byte	0xc8
 934 0582 30       		.byte	0x30
 935 0583 09       		.uleb128 0x9
 936 0584 F5050000 		.4byte	.LASF93
 937 0588 07       		.byte	0x7
 938 0589 7502     		.2byte	0x275
 939 058b C8000000 		.4byte	0xc8
 940 058f 34       		.byte	0x34
 941 0590 09       		.uleb128 0x9
 942 0591 0F040000 		.4byte	.LASF94
 943 0595 07       		.byte	0x7
 944 0596 7602     		.2byte	0x276
 945 0598 C8000000 		.4byte	0xc8
 946 059c 38       		.byte	0x38
 947 059d 09       		.uleb128 0x9
 948 059e 86040000 		.4byte	.LASF95
 949 05a2 07       		.byte	0x7
 950 05a3 7702     		.2byte	0x277
 951 05a5 AD000000 		.4byte	0xad
 952 05a9 3C       		.byte	0x3c
 953 05aa 09       		.uleb128 0x9
 954 05ab ED050000 		.4byte	.LASF96
 955 05af 07       		.byte	0x7
 956 05b0 7802     		.2byte	0x278
 957 05b2 C8000000 		.4byte	0xc8
 958 05b6 40       		.byte	0x40
 959 05b7 09       		.uleb128 0x9
 960 05b8 2B050000 		.4byte	.LASF97
 961 05bc 07       		.byte	0x7
 962 05bd 7902     		.2byte	0x279
 963 05bf C8000000 		.4byte	0xc8
 964 05c3 44       		.byte	0x44
 965 05c4 09       		.uleb128 0x9
 966 05c5 90040000 		.4byte	.LASF98
ARM GAS  C:\cygwin\tmp\ccqU4nVJ.s 			page 18


 967 05c9 07       		.byte	0x7
 968 05ca 7A02     		.2byte	0x27a
 969 05cc 31040000 		.4byte	0x431
 970 05d0 48       		.byte	0x48
 971 05d1 09       		.uleb128 0x9
 972 05d2 F5000000 		.4byte	.LASF99
 973 05d6 07       		.byte	0x7
 974 05d7 7B02     		.2byte	0x27b
 975 05d9 C8000000 		.4byte	0xc8
 976 05dd 50       		.byte	0x50
 977 05de 09       		.uleb128 0x9
 978 05df 31040000 		.4byte	.LASF100
 979 05e3 07       		.byte	0x7
 980 05e4 7C02     		.2byte	0x27c
 981 05e6 C8000000 		.4byte	0xc8
 982 05ea 54       		.byte	0x54
 983 05eb 09       		.uleb128 0x9
 984 05ec 0B050000 		.4byte	.LASF101
 985 05f0 07       		.byte	0x7
 986 05f1 7D02     		.2byte	0x27d
 987 05f3 C8000000 		.4byte	0xc8
 988 05f7 58       		.byte	0x58
 989 05f8 09       		.uleb128 0x9
 990 05f9 9A040000 		.4byte	.LASF102
 991 05fd 07       		.byte	0x7
 992 05fe 7E02     		.2byte	0x27e
 993 0600 AD000000 		.4byte	0xad
 994 0604 5C       		.byte	0x5c
 995 0605 09       		.uleb128 0x9
 996 0606 76010000 		.4byte	.LASF103
 997 060a 07       		.byte	0x7
 998 060b 7F02     		.2byte	0x27f
 999 060d C8000000 		.4byte	0xc8
 1000 0611 60       		.byte	0x60
 1001 0612 09       		.uleb128 0x9
 1002 0613 79020000 		.4byte	.LASF104
 1003 0617 07       		.byte	0x7
 1004 0618 8002     		.2byte	0x280
 1005 061a C8000000 		.4byte	0xc8
 1006 061e 64       		.byte	0x64
 1007 061f 09       		.uleb128 0x9
 1008 0620 4F050000 		.4byte	.LASF105
 1009 0624 07       		.byte	0x7
 1010 0625 8102     		.2byte	0x281
 1011 0627 31040000 		.4byte	0x431
 1012 062b 68       		.byte	0x68
 1013 062c 09       		.uleb128 0x9
 1014 062d 46060000 		.4byte	.LASF106
 1015 0631 07       		.byte	0x7
 1016 0632 8202     		.2byte	0x282
 1017 0634 C8000000 		.4byte	0xc8
 1018 0638 70       		.byte	0x70
 1019 0639 08       		.uleb128 0x8
 1020 063a 43535200 		.ascii	"CSR\000"
 1021 063e 07       		.byte	0x7
 1022 063f 8302     		.2byte	0x283
 1023 0641 C8000000 		.4byte	0xc8
ARM GAS  C:\cygwin\tmp\ccqU4nVJ.s 			page 19


 1024 0645 74       		.byte	0x74
 1025 0646 09       		.uleb128 0x9
 1026 0647 AB040000 		.4byte	.LASF107
 1027 064b 07       		.byte	0x7
 1028 064c 8402     		.2byte	0x284
 1029 064e 31040000 		.4byte	0x431
 1030 0652 78       		.byte	0x78
 1031 0653 09       		.uleb128 0x9
 1032 0654 29060000 		.4byte	.LASF108
 1033 0658 07       		.byte	0x7
 1034 0659 8502     		.2byte	0x285
 1035 065b C8000000 		.4byte	0xc8
 1036 065f 80       		.byte	0x80
 1037 0660 09       		.uleb128 0x9
 1038 0661 30020000 		.4byte	.LASF109
 1039 0665 07       		.byte	0x7
 1040 0666 8602     		.2byte	0x286
 1041 0668 C8000000 		.4byte	0xc8
 1042 066c 84       		.byte	0x84
 1043 066d 00       		.byte	0
 1044 066e 13       		.uleb128 0x13
 1045 066f 07020000 		.4byte	.LASF110
 1046 0673 07       		.byte	0x7
 1047 0674 8802     		.2byte	0x288
 1048 0676 DF040000 		.4byte	0x4df
 1049 067a 04       		.uleb128 0x4
 1050 067b A9010000 		.4byte	.LASF111
 1051 067f 08       		.byte	0x8
 1052 0680 85       		.byte	0x85
 1053 0681 F4020000 		.4byte	0x2f4
 1054 0685 04       		.uleb128 0x4
 1055 0686 81030000 		.4byte	.LASF112
 1056 068a 08       		.byte	0x8
 1057 068b 8D       		.byte	0x8d
 1058 068c B8000000 		.4byte	0xb8
 1059 0690 06       		.uleb128 0x6
 1060 0691 FD050000 		.4byte	.LASF113
 1061 0695 04       		.byte	0x4
 1062 0696 08       		.byte	0x8
 1063 0697 A9       		.byte	0xa9
 1064 0698 A9060000 		.4byte	0x6a9
 1065 069c 14       		.uleb128 0x14
 1066 069d 72313300 		.ascii	"r13\000"
 1067 06a1 08       		.byte	0x8
 1068 06a2 AA       		.byte	0xaa
 1069 06a3 24070000 		.4byte	0x724
 1070 06a7 00       		.byte	0
 1071 06a8 00       		.byte	0
 1072 06a9 06       		.uleb128 0x6
 1073 06aa 27000000 		.4byte	.LASF114
 1074 06ae 24       		.byte	0x24
 1075 06af 09       		.byte	0x9
 1076 06b0 F4       		.byte	0xf4
 1077 06b1 24070000 		.4byte	0x724
 1078 06b5 08       		.uleb128 0x8
 1079 06b6 723400   		.ascii	"r4\000"
 1080 06b9 09       		.byte	0x9
ARM GAS  C:\cygwin\tmp\ccqU4nVJ.s 			page 20


 1081 06ba 0701     		.2byte	0x107
 1082 06bc 7A060000 		.4byte	0x67a
 1083 06c0 00       		.byte	0
 1084 06c1 08       		.uleb128 0x8
 1085 06c2 723500   		.ascii	"r5\000"
 1086 06c5 09       		.byte	0x9
 1087 06c6 0801     		.2byte	0x108
 1088 06c8 7A060000 		.4byte	0x67a
 1089 06cc 04       		.byte	0x4
 1090 06cd 08       		.uleb128 0x8
 1091 06ce 723600   		.ascii	"r6\000"
 1092 06d1 09       		.byte	0x9
 1093 06d2 0901     		.2byte	0x109
 1094 06d4 7A060000 		.4byte	0x67a
 1095 06d8 08       		.byte	0x8
 1096 06d9 08       		.uleb128 0x8
 1097 06da 723700   		.ascii	"r7\000"
 1098 06dd 09       		.byte	0x9
 1099 06de 0A01     		.2byte	0x10a
 1100 06e0 7A060000 		.4byte	0x67a
 1101 06e4 0C       		.byte	0xc
 1102 06e5 08       		.uleb128 0x8
 1103 06e6 723800   		.ascii	"r8\000"
 1104 06e9 09       		.byte	0x9
 1105 06ea 0B01     		.2byte	0x10b
 1106 06ec 7A060000 		.4byte	0x67a
 1107 06f0 10       		.byte	0x10
 1108 06f1 08       		.uleb128 0x8
 1109 06f2 723900   		.ascii	"r9\000"
 1110 06f5 09       		.byte	0x9
 1111 06f6 0C01     		.2byte	0x10c
 1112 06f8 7A060000 		.4byte	0x67a
 1113 06fc 14       		.byte	0x14
 1114 06fd 08       		.uleb128 0x8
 1115 06fe 72313000 		.ascii	"r10\000"
 1116 0702 09       		.byte	0x9
 1117 0703 0D01     		.2byte	0x10d
 1118 0705 7A060000 		.4byte	0x67a
 1119 0709 18       		.byte	0x18
 1120 070a 08       		.uleb128 0x8
 1121 070b 72313100 		.ascii	"r11\000"
 1122 070f 09       		.byte	0x9
 1123 0710 0E01     		.2byte	0x10e
 1124 0712 7A060000 		.4byte	0x67a
 1125 0716 1C       		.byte	0x1c
 1126 0717 08       		.uleb128 0x8
 1127 0718 6C7200   		.ascii	"lr\000"
 1128 071b 09       		.byte	0x9
 1129 071c 0F01     		.2byte	0x10f
 1130 071e 7A060000 		.4byte	0x67a
 1131 0722 20       		.byte	0x20
 1132 0723 00       		.byte	0
 1133 0724 0B       		.uleb128 0xb
 1134 0725 04       		.byte	0x4
 1135 0726 A9060000 		.4byte	0x6a9
 1136 072a 15       		.uleb128 0x15
 1137 072b 04       		.byte	0x4
ARM GAS  C:\cygwin\tmp\ccqU4nVJ.s 			page 21


 1138 072c 0A       		.byte	0xa
 1139 072d 38       		.byte	0x38
 1140 072e 3F070000 		.4byte	0x73f
 1141 0732 07       		.uleb128 0x7
 1142 0733 E6050000 		.4byte	.LASF115
 1143 0737 0A       		.byte	0xa
 1144 0738 3C       		.byte	0x3c
 1145 0739 CD000000 		.4byte	0xcd
 1146 073d 00       		.byte	0
 1147 073e 00       		.byte	0
 1148 073f 04       		.uleb128 0x4
 1149 0740 3B040000 		.4byte	.LASF116
 1150 0744 0A       		.byte	0xa
 1151 0745 3D       		.byte	0x3d
 1152 0746 2A070000 		.4byte	0x72a
 1153 074a 0B       		.uleb128 0xb
 1154 074b 04       		.byte	0x4
 1155 074c 25010000 		.4byte	0x125
 1156 0750 16       		.uleb128 0x16
 1157 0751 04       		.byte	0x4
 1158 0752 06       		.byte	0x6
 1159 0753 F6       		.byte	0xf6
 1160 0754 88070000 		.4byte	0x788
 1161 0758 17       		.uleb128 0x17
 1162 0759 0D000000 		.4byte	.LASF117
 1163 075d 06       		.byte	0x6
 1164 075e FD       		.byte	0xfd
 1165 075f 04010000 		.4byte	0x104
 1166 0763 18       		.uleb128 0x18
 1167 0764 AD000000 		.4byte	.LASF118
 1168 0768 06       		.byte	0x6
 1169 0769 0401     		.2byte	0x104
 1170 076b 04010000 		.4byte	0x104
 1171 076f 18       		.uleb128 0x18
 1172 0770 59060000 		.4byte	.LASF119
 1173 0774 06       		.byte	0x6
 1174 0775 0B01     		.2byte	0x10b
 1175 0777 F4020000 		.4byte	0x2f4
 1176 077b 18       		.uleb128 0x18
 1177 077c 1C050000 		.4byte	.LASF120
 1178 0780 06       		.byte	0x6
 1179 0781 1201     		.2byte	0x112
 1180 0783 0F010000 		.4byte	0x10f
 1181 0787 00       		.byte	0
 1182 0788 0B       		.uleb128 0xb
 1183 0789 04       		.byte	0x4
 1184 078a 8E070000 		.4byte	0x78e
 1185 078e 19       		.uleb128 0x19
 1186 078f 93070000 		.4byte	0x793
 1187 0793 03       		.uleb128 0x3
 1188 0794 01       		.byte	0x1
 1189 0795 08       		.byte	0x8
 1190 0796 95050000 		.4byte	.LASF121
 1191 079a 06       		.uleb128 0x6
 1192 079b BD040000 		.4byte	.LASF122
 1193 079f 10       		.byte	0x10
 1194 07a0 0B       		.byte	0xb
ARM GAS  C:\cygwin\tmp\ccqU4nVJ.s 			page 22


 1195 07a1 39       		.byte	0x39
 1196 07a2 CB070000 		.4byte	0x7cb
 1197 07a6 07       		.uleb128 0x7
 1198 07a7 3F010000 		.4byte	.LASF123
 1199 07ab 0B       		.byte	0xb
 1200 07ac 3A       		.byte	0x3a
 1201 07ad 41020000 		.4byte	0x241
 1202 07b1 00       		.byte	0
 1203 07b2 07       		.uleb128 0x7
 1204 07b3 7A060000 		.4byte	.LASF124
 1205 07b7 0B       		.byte	0xb
 1206 07b8 3C       		.byte	0x3c
 1207 07b9 4A070000 		.4byte	0x74a
 1208 07bd 08       		.byte	0x8
 1209 07be 07       		.uleb128 0x7
 1210 07bf AC050000 		.4byte	.LASF125
 1211 07c3 0B       		.byte	0xb
 1212 07c4 3E       		.byte	0x3e
 1213 07c5 F7070000 		.4byte	0x7f7
 1214 07c9 0C       		.byte	0xc
 1215 07ca 00       		.byte	0
 1216 07cb 0B       		.uleb128 0xb
 1217 07cc 04       		.byte	0x4
 1218 07cd 9A070000 		.4byte	0x79a
 1219 07d1 0B       		.uleb128 0xb
 1220 07d2 04       		.byte	0x4
 1221 07d3 F6020000 		.4byte	0x2f6
 1222 07d7 05       		.uleb128 0x5
 1223 07d8 88070000 		.4byte	0x788
 1224 07dc 10       		.uleb128 0x10
 1225 07dd 85060000 		.4byte	0x685
 1226 07e1 EC070000 		.4byte	0x7ec
 1227 07e5 11       		.uleb128 0x11
 1228 07e6 2A040000 		.4byte	0x42a
 1229 07ea 1A       		.byte	0x1a
 1230 07eb 00       		.byte	0
 1231 07ec 04       		.uleb128 0x4
 1232 07ed D0010000 		.4byte	.LASF126
 1233 07f1 0B       		.byte	0xb
 1234 07f2 34       		.byte	0x34
 1235 07f3 9A070000 		.4byte	0x79a
 1236 07f7 0B       		.uleb128 0xb
 1237 07f8 04       		.byte	0x4
 1238 07f9 EC070000 		.4byte	0x7ec
 1239 07fd 03       		.uleb128 0x3
 1240 07fe 01       		.byte	0x1
 1241 07ff 02       		.byte	0x2
 1242 0800 D3040000 		.4byte	.LASF127
 1243 0804 1A       		.uleb128 0x1a
 1244 0805 4A020000 		.4byte	.LASF132
 1245 0809 01       		.byte	0x1
 1246 080a 30       		.byte	0x30
 1247 080b 01       		.byte	0x1
 1248 080c 1B       		.uleb128 0x1b
 1249 080d 0D060000 		.4byte	.LASF133
 1250 0811 01       		.byte	0x1
 1251 0812 6C       		.byte	0x6c
ARM GAS  C:\cygwin\tmp\ccqU4nVJ.s 			page 23


 1252 0813 00000000 		.4byte	.LFB256
 1253 0817 64000000 		.4byte	.LFE256-.LFB256
 1254 081b 01       		.uleb128 0x1
 1255 081c 9C       		.byte	0x9c
 1256 081d 31080000 		.4byte	0x831
 1257 0821 1C       		.uleb128 0x1c
 1258 0822 04080000 		.4byte	0x804
 1259 0826 18000000 		.4byte	.LBB4
 1260 082a 00000000 		.4byte	.Ldebug_ranges0+0
 1261 082e 01       		.byte	0x1
 1262 082f 79       		.byte	0x79
 1263 0830 00       		.byte	0
 1264 0831 1D       		.uleb128 0x1d
 1265 0832 BF010000 		.4byte	.LASF134
 1266 0836 01       		.byte	0x1
 1267 0837 8C       		.byte	0x8c
 1268 0838 00000000 		.4byte	.LFB257
 1269 083c C8000000 		.4byte	.LFE257-.LFB257
 1270 0840 01       		.uleb128 0x1
 1271 0841 9C       		.byte	0x9c
 1272 0842 1E       		.uleb128 0x1e
 1273 0843 D7000000 		.4byte	.LASF128
 1274 0847 0C       		.byte	0xc
 1275 0848 A706     		.2byte	0x6a7
 1276 084a C3000000 		.4byte	0xc3
 1277 084e 1F       		.uleb128 0x1f
 1278 084f 636800   		.ascii	"ch\000"
 1279 0852 06       		.byte	0x6
 1280 0853 EB01     		.2byte	0x1eb
 1281 0855 C3030000 		.4byte	0x3c3
 1282 0859 00       		.byte	0
 1283              		.section	.debug_abbrev,"",%progbits
 1284              	.Ldebug_abbrev0:
 1285 0000 01       		.uleb128 0x1
 1286 0001 11       		.uleb128 0x11
 1287 0002 01       		.byte	0x1
 1288 0003 25       		.uleb128 0x25
 1289 0004 0E       		.uleb128 0xe
 1290 0005 13       		.uleb128 0x13
 1291 0006 0B       		.uleb128 0xb
 1292 0007 03       		.uleb128 0x3
 1293 0008 0E       		.uleb128 0xe
 1294 0009 1B       		.uleb128 0x1b
 1295 000a 0E       		.uleb128 0xe
 1296 000b 55       		.uleb128 0x55
 1297 000c 17       		.uleb128 0x17
 1298 000d 11       		.uleb128 0x11
 1299 000e 01       		.uleb128 0x1
 1300 000f 10       		.uleb128 0x10
 1301 0010 17       		.uleb128 0x17
 1302 0011 00       		.byte	0
 1303 0012 00       		.byte	0
 1304 0013 02       		.uleb128 0x2
 1305 0014 24       		.uleb128 0x24
 1306 0015 00       		.byte	0
 1307 0016 0B       		.uleb128 0xb
 1308 0017 0B       		.uleb128 0xb
ARM GAS  C:\cygwin\tmp\ccqU4nVJ.s 			page 24


 1309 0018 3E       		.uleb128 0x3e
 1310 0019 0B       		.uleb128 0xb
 1311 001a 03       		.uleb128 0x3
 1312 001b 08       		.uleb128 0x8
 1313 001c 00       		.byte	0
 1314 001d 00       		.byte	0
 1315 001e 03       		.uleb128 0x3
 1316 001f 24       		.uleb128 0x24
 1317 0020 00       		.byte	0
 1318 0021 0B       		.uleb128 0xb
 1319 0022 0B       		.uleb128 0xb
 1320 0023 3E       		.uleb128 0x3e
 1321 0024 0B       		.uleb128 0xb
 1322 0025 03       		.uleb128 0x3
 1323 0026 0E       		.uleb128 0xe
 1324 0027 00       		.byte	0
 1325 0028 00       		.byte	0
 1326 0029 04       		.uleb128 0x4
 1327 002a 16       		.uleb128 0x16
 1328 002b 00       		.byte	0
 1329 002c 03       		.uleb128 0x3
 1330 002d 0E       		.uleb128 0xe
 1331 002e 3A       		.uleb128 0x3a
 1332 002f 0B       		.uleb128 0xb
 1333 0030 3B       		.uleb128 0x3b
 1334 0031 0B       		.uleb128 0xb
 1335 0032 49       		.uleb128 0x49
 1336 0033 13       		.uleb128 0x13
 1337 0034 00       		.byte	0
 1338 0035 00       		.byte	0
 1339 0036 05       		.uleb128 0x5
 1340 0037 35       		.uleb128 0x35
 1341 0038 00       		.byte	0
 1342 0039 49       		.uleb128 0x49
 1343 003a 13       		.uleb128 0x13
 1344 003b 00       		.byte	0
 1345 003c 00       		.byte	0
 1346 003d 06       		.uleb128 0x6
 1347 003e 13       		.uleb128 0x13
 1348 003f 01       		.byte	0x1
 1349 0040 03       		.uleb128 0x3
 1350 0041 0E       		.uleb128 0xe
 1351 0042 0B       		.uleb128 0xb
 1352 0043 0B       		.uleb128 0xb
 1353 0044 3A       		.uleb128 0x3a
 1354 0045 0B       		.uleb128 0xb
 1355 0046 3B       		.uleb128 0x3b
 1356 0047 0B       		.uleb128 0xb
 1357 0048 01       		.uleb128 0x1
 1358 0049 13       		.uleb128 0x13
 1359 004a 00       		.byte	0
 1360 004b 00       		.byte	0
 1361 004c 07       		.uleb128 0x7
 1362 004d 0D       		.uleb128 0xd
 1363 004e 00       		.byte	0
 1364 004f 03       		.uleb128 0x3
 1365 0050 0E       		.uleb128 0xe
ARM GAS  C:\cygwin\tmp\ccqU4nVJ.s 			page 25


 1366 0051 3A       		.uleb128 0x3a
 1367 0052 0B       		.uleb128 0xb
 1368 0053 3B       		.uleb128 0x3b
 1369 0054 0B       		.uleb128 0xb
 1370 0055 49       		.uleb128 0x49
 1371 0056 13       		.uleb128 0x13
 1372 0057 38       		.uleb128 0x38
 1373 0058 0B       		.uleb128 0xb
 1374 0059 00       		.byte	0
 1375 005a 00       		.byte	0
 1376 005b 08       		.uleb128 0x8
 1377 005c 0D       		.uleb128 0xd
 1378 005d 00       		.byte	0
 1379 005e 03       		.uleb128 0x3
 1380 005f 08       		.uleb128 0x8
 1381 0060 3A       		.uleb128 0x3a
 1382 0061 0B       		.uleb128 0xb
 1383 0062 3B       		.uleb128 0x3b
 1384 0063 05       		.uleb128 0x5
 1385 0064 49       		.uleb128 0x49
 1386 0065 13       		.uleb128 0x13
 1387 0066 38       		.uleb128 0x38
 1388 0067 0B       		.uleb128 0xb
 1389 0068 00       		.byte	0
 1390 0069 00       		.byte	0
 1391 006a 09       		.uleb128 0x9
 1392 006b 0D       		.uleb128 0xd
 1393 006c 00       		.byte	0
 1394 006d 03       		.uleb128 0x3
 1395 006e 0E       		.uleb128 0xe
 1396 006f 3A       		.uleb128 0x3a
 1397 0070 0B       		.uleb128 0xb
 1398 0071 3B       		.uleb128 0x3b
 1399 0072 05       		.uleb128 0x5
 1400 0073 49       		.uleb128 0x49
 1401 0074 13       		.uleb128 0x13
 1402 0075 38       		.uleb128 0x38
 1403 0076 0B       		.uleb128 0xb
 1404 0077 00       		.byte	0
 1405 0078 00       		.byte	0
 1406 0079 0A       		.uleb128 0xa
 1407 007a 13       		.uleb128 0x13
 1408 007b 01       		.byte	0x1
 1409 007c 03       		.uleb128 0x3
 1410 007d 0E       		.uleb128 0xe
 1411 007e 0B       		.uleb128 0xb
 1412 007f 0B       		.uleb128 0xb
 1413 0080 3A       		.uleb128 0x3a
 1414 0081 0B       		.uleb128 0xb
 1415 0082 3B       		.uleb128 0x3b
 1416 0083 05       		.uleb128 0x5
 1417 0084 01       		.uleb128 0x1
 1418 0085 13       		.uleb128 0x13
 1419 0086 00       		.byte	0
 1420 0087 00       		.byte	0
 1421 0088 0B       		.uleb128 0xb
 1422 0089 0F       		.uleb128 0xf
ARM GAS  C:\cygwin\tmp\ccqU4nVJ.s 			page 26


 1423 008a 00       		.byte	0
 1424 008b 0B       		.uleb128 0xb
 1425 008c 0B       		.uleb128 0xb
 1426 008d 49       		.uleb128 0x49
 1427 008e 13       		.uleb128 0x13
 1428 008f 00       		.byte	0
 1429 0090 00       		.byte	0
 1430 0091 0C       		.uleb128 0xc
 1431 0092 15       		.uleb128 0x15
 1432 0093 01       		.byte	0x1
 1433 0094 27       		.uleb128 0x27
 1434 0095 19       		.uleb128 0x19
 1435 0096 01       		.uleb128 0x1
 1436 0097 13       		.uleb128 0x13
 1437 0098 00       		.byte	0
 1438 0099 00       		.byte	0
 1439 009a 0D       		.uleb128 0xd
 1440 009b 05       		.uleb128 0x5
 1441 009c 00       		.byte	0
 1442 009d 49       		.uleb128 0x49
 1443 009e 13       		.uleb128 0x13
 1444 009f 00       		.byte	0
 1445 00a0 00       		.byte	0
 1446 00a1 0E       		.uleb128 0xe
 1447 00a2 0F       		.uleb128 0xf
 1448 00a3 00       		.byte	0
 1449 00a4 0B       		.uleb128 0xb
 1450 00a5 0B       		.uleb128 0xb
 1451 00a6 00       		.byte	0
 1452 00a7 00       		.byte	0
 1453 00a8 0F       		.uleb128 0xf
 1454 00a9 13       		.uleb128 0x13
 1455 00aa 01       		.byte	0x1
 1456 00ab 03       		.uleb128 0x3
 1457 00ac 0E       		.uleb128 0xe
 1458 00ad 0B       		.uleb128 0xb
 1459 00ae 05       		.uleb128 0x5
 1460 00af 3A       		.uleb128 0x3a
 1461 00b0 0B       		.uleb128 0xb
 1462 00b1 3B       		.uleb128 0x3b
 1463 00b2 05       		.uleb128 0x5
 1464 00b3 01       		.uleb128 0x1
 1465 00b4 13       		.uleb128 0x13
 1466 00b5 00       		.byte	0
 1467 00b6 00       		.byte	0
 1468 00b7 10       		.uleb128 0x10
 1469 00b8 01       		.uleb128 0x1
 1470 00b9 01       		.byte	0x1
 1471 00ba 49       		.uleb128 0x49
 1472 00bb 13       		.uleb128 0x13
 1473 00bc 01       		.uleb128 0x1
 1474 00bd 13       		.uleb128 0x13
 1475 00be 00       		.byte	0
 1476 00bf 00       		.byte	0
 1477 00c0 11       		.uleb128 0x11
 1478 00c1 21       		.uleb128 0x21
 1479 00c2 00       		.byte	0
ARM GAS  C:\cygwin\tmp\ccqU4nVJ.s 			page 27


 1480 00c3 49       		.uleb128 0x49
 1481 00c4 13       		.uleb128 0x13
 1482 00c5 2F       		.uleb128 0x2f
 1483 00c6 0B       		.uleb128 0xb
 1484 00c7 00       		.byte	0
 1485 00c8 00       		.byte	0
 1486 00c9 12       		.uleb128 0x12
 1487 00ca 13       		.uleb128 0x13
 1488 00cb 01       		.byte	0x1
 1489 00cc 0B       		.uleb128 0xb
 1490 00cd 0B       		.uleb128 0xb
 1491 00ce 3A       		.uleb128 0x3a
 1492 00cf 0B       		.uleb128 0xb
 1493 00d0 3B       		.uleb128 0x3b
 1494 00d1 05       		.uleb128 0x5
 1495 00d2 01       		.uleb128 0x1
 1496 00d3 13       		.uleb128 0x13
 1497 00d4 00       		.byte	0
 1498 00d5 00       		.byte	0
 1499 00d6 13       		.uleb128 0x13
 1500 00d7 16       		.uleb128 0x16
 1501 00d8 00       		.byte	0
 1502 00d9 03       		.uleb128 0x3
 1503 00da 0E       		.uleb128 0xe
 1504 00db 3A       		.uleb128 0x3a
 1505 00dc 0B       		.uleb128 0xb
 1506 00dd 3B       		.uleb128 0x3b
 1507 00de 05       		.uleb128 0x5
 1508 00df 49       		.uleb128 0x49
 1509 00e0 13       		.uleb128 0x13
 1510 00e1 00       		.byte	0
 1511 00e2 00       		.byte	0
 1512 00e3 14       		.uleb128 0x14
 1513 00e4 0D       		.uleb128 0xd
 1514 00e5 00       		.byte	0
 1515 00e6 03       		.uleb128 0x3
 1516 00e7 08       		.uleb128 0x8
 1517 00e8 3A       		.uleb128 0x3a
 1518 00e9 0B       		.uleb128 0xb
 1519 00ea 3B       		.uleb128 0x3b
 1520 00eb 0B       		.uleb128 0xb
 1521 00ec 49       		.uleb128 0x49
 1522 00ed 13       		.uleb128 0x13
 1523 00ee 38       		.uleb128 0x38
 1524 00ef 0B       		.uleb128 0xb
 1525 00f0 00       		.byte	0
 1526 00f1 00       		.byte	0
 1527 00f2 15       		.uleb128 0x15
 1528 00f3 13       		.uleb128 0x13
 1529 00f4 01       		.byte	0x1
 1530 00f5 0B       		.uleb128 0xb
 1531 00f6 0B       		.uleb128 0xb
 1532 00f7 3A       		.uleb128 0x3a
 1533 00f8 0B       		.uleb128 0xb
 1534 00f9 3B       		.uleb128 0x3b
 1535 00fa 0B       		.uleb128 0xb
 1536 00fb 01       		.uleb128 0x1
ARM GAS  C:\cygwin\tmp\ccqU4nVJ.s 			page 28


 1537 00fc 13       		.uleb128 0x13
 1538 00fd 00       		.byte	0
 1539 00fe 00       		.byte	0
 1540 00ff 16       		.uleb128 0x16
 1541 0100 17       		.uleb128 0x17
 1542 0101 01       		.byte	0x1
 1543 0102 0B       		.uleb128 0xb
 1544 0103 0B       		.uleb128 0xb
 1545 0104 3A       		.uleb128 0x3a
 1546 0105 0B       		.uleb128 0xb
 1547 0106 3B       		.uleb128 0x3b
 1548 0107 0B       		.uleb128 0xb
 1549 0108 01       		.uleb128 0x1
 1550 0109 13       		.uleb128 0x13
 1551 010a 00       		.byte	0
 1552 010b 00       		.byte	0
 1553 010c 17       		.uleb128 0x17
 1554 010d 0D       		.uleb128 0xd
 1555 010e 00       		.byte	0
 1556 010f 03       		.uleb128 0x3
 1557 0110 0E       		.uleb128 0xe
 1558 0111 3A       		.uleb128 0x3a
 1559 0112 0B       		.uleb128 0xb
 1560 0113 3B       		.uleb128 0x3b
 1561 0114 0B       		.uleb128 0xb
 1562 0115 49       		.uleb128 0x49
 1563 0116 13       		.uleb128 0x13
 1564 0117 00       		.byte	0
 1565 0118 00       		.byte	0
 1566 0119 18       		.uleb128 0x18
 1567 011a 0D       		.uleb128 0xd
 1568 011b 00       		.byte	0
 1569 011c 03       		.uleb128 0x3
 1570 011d 0E       		.uleb128 0xe
 1571 011e 3A       		.uleb128 0x3a
 1572 011f 0B       		.uleb128 0xb
 1573 0120 3B       		.uleb128 0x3b
 1574 0121 05       		.uleb128 0x5
 1575 0122 49       		.uleb128 0x49
 1576 0123 13       		.uleb128 0x13
 1577 0124 00       		.byte	0
 1578 0125 00       		.byte	0
 1579 0126 19       		.uleb128 0x19
 1580 0127 26       		.uleb128 0x26
 1581 0128 00       		.byte	0
 1582 0129 49       		.uleb128 0x49
 1583 012a 13       		.uleb128 0x13
 1584 012b 00       		.byte	0
 1585 012c 00       		.byte	0
 1586 012d 1A       		.uleb128 0x1a
 1587 012e 2E       		.uleb128 0x2e
 1588 012f 00       		.byte	0
 1589 0130 03       		.uleb128 0x3
 1590 0131 0E       		.uleb128 0xe
 1591 0132 3A       		.uleb128 0x3a
 1592 0133 0B       		.uleb128 0xb
 1593 0134 3B       		.uleb128 0x3b
ARM GAS  C:\cygwin\tmp\ccqU4nVJ.s 			page 29


 1594 0135 0B       		.uleb128 0xb
 1595 0136 27       		.uleb128 0x27
 1596 0137 19       		.uleb128 0x19
 1597 0138 20       		.uleb128 0x20
 1598 0139 0B       		.uleb128 0xb
 1599 013a 00       		.byte	0
 1600 013b 00       		.byte	0
 1601 013c 1B       		.uleb128 0x1b
 1602 013d 2E       		.uleb128 0x2e
 1603 013e 01       		.byte	0x1
 1604 013f 3F       		.uleb128 0x3f
 1605 0140 19       		.uleb128 0x19
 1606 0141 03       		.uleb128 0x3
 1607 0142 0E       		.uleb128 0xe
 1608 0143 3A       		.uleb128 0x3a
 1609 0144 0B       		.uleb128 0xb
 1610 0145 3B       		.uleb128 0x3b
 1611 0146 0B       		.uleb128 0xb
 1612 0147 27       		.uleb128 0x27
 1613 0148 19       		.uleb128 0x19
 1614 0149 11       		.uleb128 0x11
 1615 014a 01       		.uleb128 0x1
 1616 014b 12       		.uleb128 0x12
 1617 014c 06       		.uleb128 0x6
 1618 014d 40       		.uleb128 0x40
 1619 014e 18       		.uleb128 0x18
 1620 014f 9742     		.uleb128 0x2117
 1621 0151 19       		.uleb128 0x19
 1622 0152 01       		.uleb128 0x1
 1623 0153 13       		.uleb128 0x13
 1624 0154 00       		.byte	0
 1625 0155 00       		.byte	0
 1626 0156 1C       		.uleb128 0x1c
 1627 0157 1D       		.uleb128 0x1d
 1628 0158 00       		.byte	0
 1629 0159 31       		.uleb128 0x31
 1630 015a 13       		.uleb128 0x13
 1631 015b 52       		.uleb128 0x52
 1632 015c 01       		.uleb128 0x1
 1633 015d 55       		.uleb128 0x55
 1634 015e 17       		.uleb128 0x17
 1635 015f 58       		.uleb128 0x58
 1636 0160 0B       		.uleb128 0xb
 1637 0161 59       		.uleb128 0x59
 1638 0162 0B       		.uleb128 0xb
 1639 0163 00       		.byte	0
 1640 0164 00       		.byte	0
 1641 0165 1D       		.uleb128 0x1d
 1642 0166 2E       		.uleb128 0x2e
 1643 0167 00       		.byte	0
 1644 0168 3F       		.uleb128 0x3f
 1645 0169 19       		.uleb128 0x19
 1646 016a 03       		.uleb128 0x3
 1647 016b 0E       		.uleb128 0xe
 1648 016c 3A       		.uleb128 0x3a
 1649 016d 0B       		.uleb128 0xb
 1650 016e 3B       		.uleb128 0x3b
ARM GAS  C:\cygwin\tmp\ccqU4nVJ.s 			page 30


 1651 016f 0B       		.uleb128 0xb
 1652 0170 27       		.uleb128 0x27
 1653 0171 19       		.uleb128 0x19
 1654 0172 11       		.uleb128 0x11
 1655 0173 01       		.uleb128 0x1
 1656 0174 12       		.uleb128 0x12
 1657 0175 06       		.uleb128 0x6
 1658 0176 40       		.uleb128 0x40
 1659 0177 18       		.uleb128 0x18
 1660 0178 9742     		.uleb128 0x2117
 1661 017a 19       		.uleb128 0x19
 1662 017b 00       		.byte	0
 1663 017c 00       		.byte	0
 1664 017d 1E       		.uleb128 0x1e
 1665 017e 34       		.uleb128 0x34
 1666 017f 00       		.byte	0
 1667 0180 03       		.uleb128 0x3
 1668 0181 0E       		.uleb128 0xe
 1669 0182 3A       		.uleb128 0x3a
 1670 0183 0B       		.uleb128 0xb
 1671 0184 3B       		.uleb128 0x3b
 1672 0185 05       		.uleb128 0x5
 1673 0186 49       		.uleb128 0x49
 1674 0187 13       		.uleb128 0x13
 1675 0188 3F       		.uleb128 0x3f
 1676 0189 19       		.uleb128 0x19
 1677 018a 3C       		.uleb128 0x3c
 1678 018b 19       		.uleb128 0x19
 1679 018c 00       		.byte	0
 1680 018d 00       		.byte	0
 1681 018e 1F       		.uleb128 0x1f
 1682 018f 34       		.uleb128 0x34
 1683 0190 00       		.byte	0
 1684 0191 03       		.uleb128 0x3
 1685 0192 08       		.uleb128 0x8
 1686 0193 3A       		.uleb128 0x3a
 1687 0194 0B       		.uleb128 0xb
 1688 0195 3B       		.uleb128 0x3b
 1689 0196 05       		.uleb128 0x5
 1690 0197 49       		.uleb128 0x49
 1691 0198 13       		.uleb128 0x13
 1692 0199 3F       		.uleb128 0x3f
 1693 019a 19       		.uleb128 0x19
 1694 019b 3C       		.uleb128 0x3c
 1695 019c 19       		.uleb128 0x19
 1696 019d 00       		.byte	0
 1697 019e 00       		.byte	0
 1698 019f 00       		.byte	0
 1699              		.section	.debug_aranges,"",%progbits
 1700 0000 24000000 		.4byte	0x24
 1701 0004 0200     		.2byte	0x2
 1702 0006 00000000 		.4byte	.Ldebug_info0
 1703 000a 04       		.byte	0x4
 1704 000b 00       		.byte	0
 1705 000c 0000     		.2byte	0
 1706 000e 0000     		.2byte	0
 1707 0010 00000000 		.4byte	.LFB256
ARM GAS  C:\cygwin\tmp\ccqU4nVJ.s 			page 31


 1708 0014 64000000 		.4byte	.LFE256-.LFB256
 1709 0018 00000000 		.4byte	.LFB257
 1710 001c C8000000 		.4byte	.LFE257-.LFB257
 1711 0020 00000000 		.4byte	0
 1712 0024 00000000 		.4byte	0
 1713              		.section	.debug_ranges,"",%progbits
 1714              	.Ldebug_ranges0:
 1715 0000 18000000 		.4byte	.LBB4
 1716 0004 1A000000 		.4byte	.LBE4
 1717 0008 30000000 		.4byte	.LBB8
 1718 000c 4E000000 		.4byte	.LBE8
 1719 0010 52000000 		.4byte	.LBB9
 1720 0014 5A000000 		.4byte	.LBE9
 1721 0018 00000000 		.4byte	0
 1722 001c 00000000 		.4byte	0
 1723 0020 00000000 		.4byte	.LFB256
 1724 0024 64000000 		.4byte	.LFE256
 1725 0028 00000000 		.4byte	.LFB257
 1726 002c C8000000 		.4byte	.LFE257
 1727 0030 00000000 		.4byte	0
 1728 0034 00000000 		.4byte	0
 1729              		.section	.debug_line,"",%progbits
 1730              	.Ldebug_line0:
 1731 0000 AE020000 		.section	.debug_str,"MS",%progbits,1
 1731      02001F02 
 1731      00000201 
 1731      FB0E0D00 
 1731      01010101 
 1732              	.LASF48:
 1733 0000 72656164 		.ascii	"ready_list_t\000"
 1733      795F6C69 
 1733      73745F74 
 1733      00
 1734              	.LASF117:
 1735 000d 7264796D 		.ascii	"rdymsg\000"
 1735      736700
 1736              	.LASF16:
 1737 0014 75696E74 		.ascii	"uint64_t\000"
 1737      36345F74 
 1737      00
 1738              	.LASF5:
 1739 001d 5F5F7569 		.ascii	"__uint8_t\000"
 1739      6E74385F 
 1739      7400
 1740              	.LASF114:
 1741 0027 706F7274 		.ascii	"port_intctx\000"
 1741      5F696E74 
 1741      63747800 
 1742              	.LASF67:
 1743 0033 73797374 		.ascii	"system_debug_t\000"
 1743      656D5F64 
 1743      65627567 
 1743      5F7400
 1744              	.LASF79:
 1745 0042 4F505443 		.ascii	"OPTCR\000"
 1745      5200
 1746              	.LASF80:
ARM GAS  C:\cygwin\tmp\ccqU4nVJ.s 			page 32


 1747 0048 4F505443 		.ascii	"OPTCR1\000"
 1747      523100
 1748              	.LASF131:
 1749 004f 433A5C55 		.ascii	"C:\\Users\\Jo\\Documents\\GitHub\\chibiOS\\testhal\\"
 1749      73657273 
 1749      5C4A6F5C 
 1749      446F6375 
 1749      6D656E74 
 1750 007c 53544D33 		.ascii	"STM32\\STM32F4xx\\IRQ_STORM\000"
 1750      325C5354 
 1750      4D333246 
 1750      3478785C 
 1750      4952515F 
 1751              	.LASF12:
 1752 0096 6C6F6E67 		.ascii	"long long unsigned int\000"
 1752      206C6F6E 
 1752      6720756E 
 1752      7369676E 
 1752      65642069 
 1753              	.LASF118:
 1754 00ad 65786974 		.ascii	"exitcode\000"
 1754      636F6465 
 1754      00
 1755              	.LASF74:
 1756 00b6 6D61696E 		.ascii	"mainthread\000"
 1756      74687265 
 1756      616400
 1757              	.LASF64:
 1758 00c1 76697274 		.ascii	"virtual_timers_list_t\000"
 1758      75616C5F 
 1758      74696D65 
 1758      72735F6C 
 1758      6973745F 
 1759              	.LASF128:
 1760 00d7 49544D5F 		.ascii	"ITM_RxBuffer\000"
 1760      52784275 
 1760      66666572 
 1760      00
 1761              	.LASF47:
 1762 00e4 63685F74 		.ascii	"ch_threads_queue\000"
 1762      68726561 
 1762      64735F71 
 1762      75657565 
 1762      00
 1763              	.LASF99:
 1764 00f5 41484231 		.ascii	"AHB1LPENR\000"
 1764      4C50454E 
 1764      5200
 1765              	.LASF28:
 1766 00ff 705F7072 		.ascii	"p_prio\000"
 1766      696F00
 1767              	.LASF10:
 1768 0106 6C6F6E67 		.ascii	"long long int\000"
 1768      206C6F6E 
 1768      6720696E 
 1768      7400
 1769              	.LASF1:
ARM GAS  C:\cygwin\tmp\ccqU4nVJ.s 			page 33


 1770 0114 7369676E 		.ascii	"signed char\000"
 1770      65642063 
 1770      68617200 
 1771              	.LASF85:
 1772 0120 41484231 		.ascii	"AHB1RSTR\000"
 1772      52535452 
 1772      00
 1773              	.LASF81:
 1774 0129 464C4153 		.ascii	"FLASH_TypeDef\000"
 1774      485F5479 
 1774      70654465 
 1774      6600
 1775              	.LASF42:
 1776 0137 705F6D70 		.ascii	"p_mpool\000"
 1776      6F6F6C00 
 1777              	.LASF123:
 1778 013f 6D5F7175 		.ascii	"m_queue\000"
 1778      65756500 
 1779              	.LASF73:
 1780 0147 76746C69 		.ascii	"vtlist\000"
 1780      737400
 1781              	.LASF82:
 1782 014e 5057525F 		.ascii	"PWR_TypeDef\000"
 1782      54797065 
 1782      44656600 
 1783              	.LASF71:
 1784 015a 63685F73 		.ascii	"ch_system\000"
 1784      79737465 
 1784      6D00
 1785              	.LASF7:
 1786 0164 6C6F6E67 		.ascii	"long int\000"
 1786      20696E74 
 1786      00
 1787              	.LASF90:
 1788 016d 41504232 		.ascii	"APB2RSTR\000"
 1788      52535452 
 1788      00
 1789              	.LASF103:
 1790 0176 41504231 		.ascii	"APB1LPENR\000"
 1790      4C50454E 
 1790      5200
 1791              	.LASF19:
 1792 0180 74737461 		.ascii	"tstate_t\000"
 1792      74655F74 
 1792      00
 1793              	.LASF78:
 1794 0189 4F50544B 		.ascii	"OPTKEYR\000"
 1794      45595200 
 1795              	.LASF30:
 1796 0191 705F6E65 		.ascii	"p_newer\000"
 1796      77657200 
 1797              	.LASF83:
 1798 0199 504C4C43 		.ascii	"PLLCFGR\000"
 1798      46475200 
 1799              	.LASF53:
 1800 01a1 725F6E65 		.ascii	"r_newer\000"
 1800      77657200 
ARM GAS  C:\cygwin\tmp\ccqU4nVJ.s 			page 34


 1801              	.LASF111:
 1802 01a9 72656761 		.ascii	"regarm_t\000"
 1802      726D5F74 
 1802      00
 1803              	.LASF60:
 1804 01b2 76745F70 		.ascii	"vt_prev\000"
 1804      72657600 
 1805              	.LASF77:
 1806 01ba 4B455952 		.ascii	"KEYR\000"
 1806      00
 1807              	.LASF134:
 1808 01bf 73746D33 		.ascii	"stm32_clock_init\000"
 1808      325F636C 
 1808      6F636B5F 
 1808      696E6974 
 1808      00
 1809              	.LASF126:
 1810 01d0 6D757465 		.ascii	"mutex_t\000"
 1810      785F7400 
 1811              	.LASF75:
 1812 01d8 69646C65 		.ascii	"idle_thread_wa\000"
 1812      5F746872 
 1812      6561645F 
 1812      776100
 1813              	.LASF0:
 1814 01e7 756E7369 		.ascii	"unsigned int\000"
 1814      676E6564 
 1814      20696E74 
 1814      00
 1815              	.LASF59:
 1816 01f4 76745F6E 		.ascii	"vt_next\000"
 1816      65787400 
 1817              	.LASF37:
 1818 01fc 705F6D73 		.ascii	"p_msgqueue\000"
 1818      67717565 
 1818      756500
 1819              	.LASF110:
 1820 0207 5243435F 		.ascii	"RCC_TypeDef\000"
 1820      54797065 
 1820      44656600 
 1821              	.LASF4:
 1822 0213 73686F72 		.ascii	"short unsigned int\000"
 1822      7420756E 
 1822      7369676E 
 1822      65642069 
 1822      6E7400
 1823              	.LASF44:
 1824 0226 63685F74 		.ascii	"ch_thread\000"
 1824      68726561 
 1824      6400
 1825              	.LASF109:
 1826 0230 504C4C49 		.ascii	"PLLI2SCFGR\000"
 1826      32534346 
 1826      475200
 1827              	.LASF22:
 1828 023b 6D73675F 		.ascii	"msg_t\000"
 1828      7400
ARM GAS  C:\cygwin\tmp\ccqU4nVJ.s 			page 35


 1829              	.LASF87:
 1830 0241 41484233 		.ascii	"AHB3RSTR\000"
 1830      52535452 
 1830      00
 1831              	.LASF132:
 1832 024a 68616C5F 		.ascii	"hal_lld_backup_domain_init\000"
 1832      6C6C645F 
 1832      6261636B 
 1832      75705F64 
 1832      6F6D6169 
 1833              	.LASF70:
 1834 0265 63685F73 		.ascii	"ch_system_t\000"
 1834      79737465 
 1834      6D5F7400 
 1835              	.LASF18:
 1836 0271 746D6F64 		.ascii	"tmode_t\000"
 1836      655F7400 
 1837              	.LASF104:
 1838 0279 41504232 		.ascii	"APB2LPENR\000"
 1838      4C50454E 
 1838      5200
 1839              	.LASF49:
 1840 0283 63685F72 		.ascii	"ch_ready_list\000"
 1840      65616479 
 1840      5F6C6973 
 1840      7400
 1841              	.LASF23:
 1842 0291 6576656E 		.ascii	"eventmask_t\000"
 1842      746D6173 
 1842      6B5F7400 
 1843              	.LASF6:
 1844 029d 5F5F696E 		.ascii	"__int32_t\000"
 1844      7433325F 
 1844      7400
 1845              	.LASF129:
 1846 02a7 474E5520 		.ascii	"GNU C 4.9.3 20141119 (release) [ARM/embedded-4_9-br"
 1846      4320342E 
 1846      392E3320 
 1846      32303134 
 1846      31313139 
 1847 02da 616E6368 		.ascii	"anch revision 218278] -mcpu=cortex-m4 -mno-thumb-in"
 1847      20726576 
 1847      6973696F 
 1847      6E203231 
 1847      38323738 
 1848 030d 74657277 		.ascii	"terwork -mthumb -ggdb -O2 -fomit-frame-pointer -fal"
 1848      6F726B20 
 1848      2D6D7468 
 1848      756D6220 
 1848      2D676764 
 1849 0340 69676E2D 		.ascii	"ign-functions=16 -ffunction-sections -fdata-section"
 1849      66756E63 
 1849      74696F6E 
 1849      733D3136 
 1849      202D6666 
 1850 0373 73202D66 		.ascii	"s -fno-common\000"
 1850      6E6F2D63 
ARM GAS  C:\cygwin\tmp\ccqU4nVJ.s 			page 36


 1850      6F6D6D6F 
 1850      6E00
 1851              	.LASF112:
 1852 0381 73746B61 		.ascii	"stkalign_t\000"
 1852      6C69676E 
 1852      5F7400
 1853              	.LASF43:
 1854 038c 74687265 		.ascii	"threads_list_t\000"
 1854      6164735F 
 1854      6C697374 
 1854      5F7400
 1855              	.LASF57:
 1856 039b 76697274 		.ascii	"virtual_timer_t\000"
 1856      75616C5F 
 1856      74696D65 
 1856      725F7400 
 1857              	.LASF36:
 1858 03ab 705F7761 		.ascii	"p_waiting\000"
 1858      6974696E 
 1858      6700
 1859              	.LASF76:
 1860 03b5 73697A65 		.ascii	"sizetype\000"
 1860      74797065 
 1860      00
 1861              	.LASF65:
 1862 03be 63685F76 		.ascii	"ch_virtual_timers_list\000"
 1862      69727475 
 1862      616C5F74 
 1862      696D6572 
 1862      735F6C69 
 1863              	.LASF130:
 1864 03d5 2E2E2F2E 		.ascii	"../../../../os/hal/ports/STM32/STM32F4xx/hal_lld.c\000"
 1864      2E2F2E2E 
 1864      2F2E2E2F 
 1864      6F732F68 
 1864      616C2F70 
 1865              	.LASF26:
 1866 0408 705F6E65 		.ascii	"p_next\000"
 1866      787400
 1867              	.LASF94:
 1868 040f 41484233 		.ascii	"AHB3ENR\000"
 1868      454E5200 
 1869              	.LASF66:
 1870 0417 76745F6C 		.ascii	"vt_lasttime\000"
 1870      61737474 
 1870      696D6500 
 1871              	.LASF31:
 1872 0423 705F6F6C 		.ascii	"p_older\000"
 1872      64657200 
 1873              	.LASF52:
 1874 042b 725F6374 		.ascii	"r_ctx\000"
 1874      7800
 1875              	.LASF100:
 1876 0431 41484232 		.ascii	"AHB2LPENR\000"
 1876      4C50454E 
 1876      5200
 1877              	.LASF116:
ARM GAS  C:\cygwin\tmp\ccqU4nVJ.s 			page 37


 1878 043b 746D5F63 		.ascii	"tm_calibration_t\000"
 1878      616C6962 
 1878      72617469 
 1878      6F6E5F74 
 1878      00
 1879              	.LASF55:
 1880 044c 725F6375 		.ascii	"r_current\000"
 1880      7272656E 
 1880      7400
 1881              	.LASF89:
 1882 0456 41504231 		.ascii	"APB1RSTR\000"
 1882      52535452 
 1882      00
 1883              	.LASF11:
 1884 045f 5F5F7569 		.ascii	"__uint64_t\000"
 1884      6E743634 
 1884      5F7400
 1885              	.LASF20:
 1886 046a 74726566 		.ascii	"trefs_t\000"
 1886      735F7400 
 1887              	.LASF88:
 1888 0472 52455345 		.ascii	"RESERVED0\000"
 1888      52564544 
 1888      3000
 1889              	.LASF91:
 1890 047c 52455345 		.ascii	"RESERVED1\000"
 1890      52564544 
 1890      3100
 1891              	.LASF95:
 1892 0486 52455345 		.ascii	"RESERVED2\000"
 1892      52564544 
 1892      3200
 1893              	.LASF98:
 1894 0490 52455345 		.ascii	"RESERVED3\000"
 1894      52564544 
 1894      3300
 1895              	.LASF102:
 1896 049a 52455345 		.ascii	"RESERVED4\000"
 1896      52564544 
 1896      3400
 1897              	.LASF27:
 1898 04a4 705F7072 		.ascii	"p_prev\000"
 1898      657600
 1899              	.LASF107:
 1900 04ab 52455345 		.ascii	"RESERVED6\000"
 1900      52564544 
 1900      3600
 1901              	.LASF21:
 1902 04b5 74707269 		.ascii	"tprio_t\000"
 1902      6F5F7400 
 1903              	.LASF122:
 1904 04bd 6D757465 		.ascii	"mutex\000"
 1904      7800
 1905              	.LASF68:
 1906 04c3 63685F73 		.ascii	"ch_system_debug\000"
 1906      79737465 
 1906      6D5F6465 
ARM GAS  C:\cygwin\tmp\ccqU4nVJ.s 			page 38


 1906      62756700 
 1907              	.LASF127:
 1908 04d3 5F426F6F 		.ascii	"_Bool\000"
 1908      6C00
 1909              	.LASF14:
 1910 04d9 696E7433 		.ascii	"int32_t\000"
 1910      325F7400 
 1911              	.LASF2:
 1912 04e1 756E7369 		.ascii	"unsigned char\000"
 1912      676E6564 
 1912      20636861 
 1912      7200
 1913              	.LASF40:
 1914 04ef 705F6D74 		.ascii	"p_mtxlist\000"
 1914      786C6973 
 1914      7400
 1915              	.LASF3:
 1916 04f9 73686F72 		.ascii	"short int\000"
 1916      7420696E 
 1916      7400
 1917              	.LASF33:
 1918 0503 705F7374 		.ascii	"p_state\000"
 1918      61746500 
 1919              	.LASF101:
 1920 050b 41484233 		.ascii	"AHB3LPENR\000"
 1920      4C50454E 
 1920      5200
 1921              	.LASF51:
 1922 0515 725F7072 		.ascii	"r_prio\000"
 1922      696F00
 1923              	.LASF120:
 1924 051c 65776D61 		.ascii	"ewmask\000"
 1924      736B00
 1925              	.LASF34:
 1926 0523 705F666C 		.ascii	"p_flags\000"
 1926      61677300 
 1927              	.LASF97:
 1928 052b 41504232 		.ascii	"APB2ENR\000"
 1928      454E5200 
 1929              	.LASF58:
 1930 0533 63685F76 		.ascii	"ch_virtual_timer\000"
 1930      69727475 
 1930      616C5F74 
 1930      696D6572 
 1930      00
 1931              	.LASF39:
 1932 0544 705F6570 		.ascii	"p_epending\000"
 1932      656E6469 
 1932      6E6700
 1933              	.LASF105:
 1934 054f 52455345 		.ascii	"RESERVED5\000"
 1934      52564544 
 1934      3500
 1935              	.LASF15:
 1936 0559 75696E74 		.ascii	"uint32_t\000"
 1936      33325F74 
 1936      00
ARM GAS  C:\cygwin\tmp\ccqU4nVJ.s 			page 39


 1937              	.LASF50:
 1938 0562 725F7175 		.ascii	"r_queue\000"
 1938      65756500 
 1939              	.LASF61:
 1940 056a 76745F64 		.ascii	"vt_delta\000"
 1940      656C7461 
 1940      00
 1941              	.LASF45:
 1942 0573 63685F74 		.ascii	"ch_threads_list\000"
 1942      68726561 
 1942      64735F6C 
 1942      69737400 
 1943              	.LASF9:
 1944 0583 6C6F6E67 		.ascii	"long unsigned int\000"
 1944      20756E73 
 1944      69676E65 
 1944      6420696E 
 1944      7400
 1945              	.LASF121:
 1946 0595 63686172 		.ascii	"char\000"
 1946      00
 1947              	.LASF86:
 1948 059a 41484232 		.ascii	"AHB2RSTR\000"
 1948      52535452 
 1948      00
 1949              	.LASF25:
 1950 05a3 74687265 		.ascii	"thread_t\000"
 1950      61645F74 
 1950      00
 1951              	.LASF125:
 1952 05ac 6D5F6E65 		.ascii	"m_next\000"
 1952      787400
 1953              	.LASF24:
 1954 05b3 73797374 		.ascii	"systime_t\000"
 1954      696D655F 
 1954      7400
 1955              	.LASF41:
 1956 05bd 705F7265 		.ascii	"p_realprio\000"
 1956      616C7072 
 1956      696F00
 1957              	.LASF56:
 1958 05c8 76746675 		.ascii	"vtfunc_t\000"
 1958      6E635F74 
 1958      00
 1959              	.LASF8:
 1960 05d1 5F5F7569 		.ascii	"__uint32_t\000"
 1960      6E743332 
 1960      5F7400
 1961              	.LASF69:
 1962 05dc 70616E69 		.ascii	"panic_msg\000"
 1962      635F6D73 
 1962      6700
 1963              	.LASF115:
 1964 05e6 6F666673 		.ascii	"offset\000"
 1964      657400
 1965              	.LASF96:
 1966 05ed 41504231 		.ascii	"APB1ENR\000"
ARM GAS  C:\cygwin\tmp\ccqU4nVJ.s 			page 40


 1966      454E5200 
 1967              	.LASF93:
 1968 05f5 41484232 		.ascii	"AHB2ENR\000"
 1968      454E5200 
 1969              	.LASF113:
 1970 05fd 636F6E74 		.ascii	"context\000"
 1970      65787400 
 1971              	.LASF54:
 1972 0605 725F6F6C 		.ascii	"r_older\000"
 1972      64657200 
 1973              	.LASF133:
 1974 060d 68616C5F 		.ascii	"hal_lld_init\000"
 1974      6C6C645F 
 1974      696E6974 
 1974      00
 1975              	.LASF17:
 1976 061a 7274636E 		.ascii	"rtcnt_t\000"
 1976      745F7400 
 1977              	.LASF63:
 1978 0622 76745F70 		.ascii	"vt_par\000"
 1978      617200
 1979              	.LASF108:
 1980 0629 53534347 		.ascii	"SSCGR\000"
 1980      5200
 1981              	.LASF46:
 1982 062f 74687265 		.ascii	"threads_queue_t\000"
 1982      6164735F 
 1982      71756575 
 1982      655F7400 
 1983              	.LASF35:
 1984 063f 705F7265 		.ascii	"p_refs\000"
 1984      667300
 1985              	.LASF106:
 1986 0646 42444352 		.ascii	"BDCR\000"
 1986      00
 1987              	.LASF72:
 1988 064b 726C6973 		.ascii	"rlist\000"
 1988      7400
 1989              	.LASF13:
 1990 0651 75696E74 		.ascii	"uint8_t\000"
 1990      385F7400 
 1991              	.LASF119:
 1992 0659 77746F62 		.ascii	"wtobjp\000"
 1992      6A7000
 1993              	.LASF32:
 1994 0660 705F6E61 		.ascii	"p_name\000"
 1994      6D6500
 1995              	.LASF92:
 1996 0667 41484231 		.ascii	"AHB1ENR\000"
 1996      454E5200 
 1997              	.LASF84:
 1998 066f 43464752 		.ascii	"CFGR\000"
 1998      00
 1999              	.LASF38:
 2000 0674 705F6D73 		.ascii	"p_msg\000"
 2000      6700
 2001              	.LASF124:
ARM GAS  C:\cygwin\tmp\ccqU4nVJ.s 			page 41


 2002 067a 6D5F6F77 		.ascii	"m_owner\000"
 2002      6E657200 
 2003              	.LASF29:
 2004 0682 705F6374 		.ascii	"p_ctx\000"
 2004      7800
 2005              	.LASF62:
 2006 0688 76745F66 		.ascii	"vt_func\000"
 2006      756E6300 
 2007              		.ident	"GCC: (GNU Tools for ARM Embedded Processors) 4.9.3 20141119 (release) [ARM/embedded-4_9-br
ARM GAS  C:\cygwin\tmp\ccqU4nVJ.s 			page 42


DEFINED SYMBOLS
                            *ABS*:00000000 hal_lld.c
C:\cygwin\tmp\ccqU4nVJ.s:19     .text.hal_lld_init:00000000 $t
C:\cygwin\tmp\ccqU4nVJ.s:25     .text.hal_lld_init:00000000 hal_lld_init
C:\cygwin\tmp\ccqU4nVJ.s:107    .text.hal_lld_init:0000005c $d
C:\cygwin\tmp\ccqU4nVJ.s:113    .text.stm32_clock_init:00000000 $t
C:\cygwin\tmp\ccqU4nVJ.s:119    .text.stm32_clock_init:00000000 stm32_clock_init
C:\cygwin\tmp\ccqU4nVJ.s:243    .text.stm32_clock_init:000000b4 $d
                     .debug_frame:00000010 $d
C:\cygwin\tmp\ccqU4nVJ.s:112    .text.hal_lld_init:00000064 $t
C:\cygwin\tmp\ccqU4nVJ.s:251    .text.stm32_clock_init:000000c8 $t

NO UNDEFINED SYMBOLS
