ARM GAS  C:\cygwin\tmp\ccpI4IED.s 			page 1


   1              		.syntax unified
   2              		.cpu cortex-m4
   3              		.fpu softvfp
   4              		.eabi_attribute 20, 1
   5              		.eabi_attribute 21, 1
   6              		.eabi_attribute 23, 3
   7              		.eabi_attribute 24, 1
   8              		.eabi_attribute 25, 1
   9              		.eabi_attribute 26, 1
  10              		.eabi_attribute 30, 2
  11              		.eabi_attribute 34, 1
  12              		.eabi_attribute 18, 4
  13              		.thumb
  14              		.file	"main.c"
  15              		.text
  16              	.Ltext0:
  17              		.cfi_sections	.debug_frame
  18              		.section	.text.println,"ax",%progbits
  19              		.align	2
  20              		.p2align 4,,15
  21              		.thumb
  22              		.thumb_func
  23              		.type	println, %function
  24              	println:
  25              	.LFB263:
  26              		.file 1 "main.c"
  27              		.loc 1 221 0
  28              		.cfi_startproc
  29              		@ args = 0, pretend = 0, frame = 0
  30              		@ frame_needed = 0, uses_anonymous_args = 0
  31              	.LVL0:
  32 0000 70B5     		push	{r4, r5, r6, lr}
  33              		.cfi_def_cfa_offset 16
  34              		.cfi_offset 4, -16
  35              		.cfi_offset 5, -12
  36              		.cfi_offset 6, -8
  37              		.cfi_offset 14, -4
  38              		.loc 1 223 0
  39 0002 0178     		ldrb	r1, [r0]	@ zero_extendqisi2
  40 0004 094D     		ldr	r5, .L8
  41              		.loc 1 221 0
  42 0006 0446     		mov	r4, r0
  43              		.loc 1 223 0
  44 0008 39B1     		cbz	r1, .L4
  45              	.LVL1:
  46              	.L3:
  47              		.loc 1 224 0
  48 000a 2B68     		ldr	r3, [r5]
  49 000c 0748     		ldr	r0, .L8
  50 000e 9B68     		ldr	r3, [r3, #8]
  51 0010 9847     		blx	r3
  52              	.LVL2:
  53              		.loc 1 223 0
  54 0012 14F8011F 		ldrb	r1, [r4, #1]!	@ zero_extendqisi2
  55              	.LVL3:
  56 0016 0029     		cmp	r1, #0
  57 0018 F7D1     		bne	.L3
ARM GAS  C:\cygwin\tmp\ccpI4IED.s 			page 2


  58              	.LVL4:
  59              	.L4:
  60              		.loc 1 226 0
  61 001a 2B68     		ldr	r3, [r5]
  62 001c 0348     		ldr	r0, .L8
  63 001e 1B68     		ldr	r3, [r3]
  64 0020 0349     		ldr	r1, .L8+4
  65 0022 0222     		movs	r2, #2
  66              		.loc 1 227 0
  67 0024 BDE87040 		pop	{r4, r5, r6, lr}
  68              		.cfi_restore 14
  69              		.cfi_restore 6
  70              		.cfi_restore 5
  71              		.cfi_restore 4
  72              		.cfi_def_cfa_offset 0
  73              		.loc 1 226 0
  74 0028 1847     		bx	r3
  75              	.LVL5:
  76              	.L9:
  77 002a 00BF     		.align	2
  78              	.L8:
  79 002c 00000000 		.word	SD6
  80 0030 00000000 		.word	.LC0
  81              		.cfi_endproc
  82              	.LFE263:
  83              		.size	println, .-println
  84 0034 AFF30080 		.section	.text.WorkerThread,"ax",%progbits
  84      AFF30080 
  84      AFF30080 
  85              		.align	2
  86              		.p2align 4,,15
  87              		.thumb
  88              		.thumb_func
  89              		.type	WorkerThread, %function
  90              	WorkerThread:
  91              	.LFB259:
  92              		.loc 1 101 0
  93              		.cfi_startproc
  94              		@ args = 0, pretend = 0, frame = 8
  95              		@ frame_needed = 0, uses_anonymous_args = 0
  96              	.LVL6:
  97              		.loc 1 109 0
  98 0000 274B     		ldr	r3, .L30
  99 0002 284A     		ldr	r2, .L30+4
 100 0004 9B69     		ldr	r3, [r3, #24]
 101              		.loc 1 101 0
 102 0006 2DE9F04F 		push	{r4, r5, r6, r7, r8, r9, r10, fp, lr}
 103              		.cfi_def_cfa_offset 36
 104              		.cfi_offset 4, -36
 105              		.cfi_offset 5, -32
 106              		.cfi_offset 6, -28
 107              		.cfi_offset 7, -24
 108              		.cfi_offset 8, -20
 109              		.cfi_offset 9, -16
 110              		.cfi_offset 10, -12
 111              		.cfi_offset 11, -8
 112              		.cfi_offset 14, -4
ARM GAS  C:\cygwin\tmp\ccpI4IED.s 			page 3


 113 000a DFF8A8A0 		ldr	r10, .L30+20
 114              		.loc 1 109 0
 115 000e 9A61     		str	r2, [r3, #24]
 116              	.LVL7:
 117 0010 254B     		ldr	r3, .L30+8
 118 0012 DFF8A4B0 		ldr	fp, .L30+24
 119 0016 00EB8005 		add	r5, r0, r0, lsl #2
 120 001a 0609     		lsrs	r6, r0, #4
 121              		.loc 1 101 0
 122 001c 83B0     		sub	sp, sp, #12
 123              		.cfi_def_cfa_offset 48
 124 001e 03EBC505 		add	r5, r3, r5, lsl #3
 125 0022 06F1FF38 		add	r8, r6, #-1
 126 0026 471E     		subs	r7, r0, #1
 127 0028 441C     		adds	r4, r0, #1
 128              		.loc 1 149 0
 129 002a D146     		mov	r9, r10
 130              	.LVL8:
 131              	.L11:
 132              		.loc 1 114 0
 133 002c 4FF0FF32 		mov	r2, #-1
 134 0030 2846     		mov	r0, r5
 135 0032 01A9     		add	r1, sp, #4
 136 0034 FFF7FEFF 		bl	chMBFetch
 137              	.LVL9:
 138              		.loc 1 129 0
 139 0038 4246     		mov	r2, r8
 140 003a 3EB1     		cbz	r6, .L16
 141              	.L15:
 142              	.LVL10:
 143              		.loc 1 130 0
 144 003c DBF80030 		ldr	r3, [fp]
 145              		.loc 1 129 0
 146 0040 013A     		subs	r2, r2, #1
 147              	.LVL11:
 148              		.loc 1 130 0
 149 0042 0133     		adds	r3, r3, #1
 150 0044 CBF80030 		str	r3, [fp]
 151              	.LVL12:
 152              		.loc 1 129 0
 153 0048 531C     		adds	r3, r2, #1
 154 004a F7D1     		bne	.L15
 155              	.LVL13:
 156              	.L16:
 157              		.loc 1 135 0
 158 004c 0199     		ldr	r1, [sp, #4]
 159              		.loc 1 138 0
 160 004e 0029     		cmp	r1, #0
 161 0050 0CBF     		ite	eq
 162 0052 3846     		moveq	r0, r7
 163 0054 2046     		movne	r0, r4
 164              	.LVL14:
 165              		.loc 1 140 0
 166 0056 0328     		cmp	r0, #3
 167 0058 12D9     		bls	.L29
 168              		.loc 1 149 0
 169 005a DAF80030 		ldr	r3, [r10]
ARM GAS  C:\cygwin\tmp\ccpI4IED.s 			page 4


 170 005e 0133     		adds	r3, r3, #1
 171 0060 B3F5FA7F 		cmp	r3, #500
 172 0064 02D2     		bcs	.L21
 173 0066 C9F80030 		str	r3, [r9]
 174 006a DFE7     		b	.L11
 175              	.L21:
 176              		.loc 1 150 0
 177 006c 0023     		movs	r3, #0
 178 006e C9F80030 		str	r3, [r9]
 179              		.loc 1 151 0
 180 0072 0E4B     		ldr	r3, .L30+12
 181 0074 0D4A     		ldr	r2, .L30+12
 182 0076 5B69     		ldr	r3, [r3, #20]
 183 0078 83F04003 		eor	r3, r3, #64
 184 007c 5361     		str	r3, [r2, #20]
 185 007e D5E7     		b	.L11
 186              	.L29:
 187              		.loc 1 143 0
 188 0080 094B     		ldr	r3, .L30+8
 189 0082 00EB8000 		add	r0, r0, r0, lsl #2
 190              	.LVL15:
 191 0086 03EBC000 		add	r0, r3, r0, lsl #3
 192 008a 0022     		movs	r2, #0
 193 008c FFF7FEFF 		bl	chMBPost
 194              	.LVL16:
 195 0090 0190     		str	r0, [sp, #4]
 196              		.loc 1 144 0
 197 0092 0028     		cmp	r0, #0
 198 0094 CAD0     		beq	.L11
 199              		.loc 1 145 0
 200 0096 064A     		ldr	r2, .L30+16
 201 0098 0123     		movs	r3, #1
 202 009a 1370     		strb	r3, [r2]
 203 009c C6E7     		b	.L11
 204              	.L31:
 205 009e 00BF     		.align	2
 206              	.L30:
 207 00a0 00000000 		.word	ch
 208 00a4 04000000 		.word	.LC1
 209 00a8 00000000 		.word	.LANCHOR0
 210 00ac 00180240 		.word	1073879040
 211 00b0 00000000 		.word	.LANCHOR2
 212 00b4 00000000 		.word	.LANCHOR3
 213 00b8 00000000 		.word	.LANCHOR1
 214              		.cfi_endproc
 215              	.LFE259:
 216              		.size	WorkerThread, .-WorkerThread
 217 00bc AFF30080 		.section	.text.gpt3cb,"ax",%progbits
 218              		.align	2
 219              		.p2align 4,,15
 220              		.thumb
 221              		.thumb_func
 222              		.type	gpt3cb, %function
 223              	gpt3cb:
 224              	.LFB261:
 225              		.loc 1 176 0
 226              		.cfi_startproc
ARM GAS  C:\cygwin\tmp\ccpI4IED.s 			page 5


 227              		@ args = 0, pretend = 0, frame = 0
 228              		@ frame_needed = 0, uses_anonymous_args = 0
 229              	.LVL17:
 230              		.loc 1 179 0
 231 0000 0A4A     		ldr	r2, .L38
 232              		.loc 1 176 0
 233 0002 08B5     		push	{r3, lr}
 234              		.cfi_def_cfa_offset 8
 235              		.cfi_offset 3, -8
 236              		.cfi_offset 14, -4
 237              		.loc 1 179 0
 238 0004 5369     		ldr	r3, [r2, #20]
 239 0006 83F40043 		eor	r3, r3, #32768
 240 000a 5361     		str	r3, [r2, #20]
 241              	.LVL18:
 242              	.LBB86:
 243              	.LBB87:
 244              	.LBB88:
 245              	.LBB89:
 246              	.LBB90:
 247              		.file 2 "../../../../os/ext/CMSIS/include/core_cmFunc.h"
 248              		.loc 2 546 0
 249 000c 2023     		movs	r3, #32
 250              	@ 546 "../../../../os/ext/CMSIS/include/core_cmFunc.h" 1
 251 000e 83F31188 		MSR basepri, r3
 252              	@ 0 "" 2
 253              		.thumb
 254              	.LBE90:
 255              	.LBE89:
 256              	.LBE88:
 257              	.LBE87:
 258              	.LBE86:
 259              		.loc 1 183 0
 260 0012 0748     		ldr	r0, .L38+4
 261              	.LVL19:
 262 0014 0021     		movs	r1, #0
 263 0016 FFF7FEFF 		bl	chMBPostI
 264              	.LVL20:
 265              		.loc 1 184 0
 266 001a 10B1     		cbz	r0, .L33
 267              		.loc 1 185 0
 268 001c 054B     		ldr	r3, .L38+8
 269 001e 0122     		movs	r2, #1
 270 0020 1A70     		strb	r2, [r3]
 271              	.L33:
 272              	.LVL21:
 273              	.LBB91:
 274              	.LBB92:
 275              	.LBB93:
 276              	.LBB94:
 277              	.LBB95:
 278              		.loc 2 546 0
 279 0022 0023     		movs	r3, #0
 280              	@ 546 "../../../../os/ext/CMSIS/include/core_cmFunc.h" 1
 281 0024 83F31188 		MSR basepri, r3
 282              	@ 0 "" 2
 283              		.thumb
ARM GAS  C:\cygwin\tmp\ccpI4IED.s 			page 6


 284 0028 08BD     		pop	{r3, pc}
 285              	.L39:
 286 002a 00BF     		.align	2
 287              	.L38:
 288 002c 000C0240 		.word	1073875968
 289 0030 78000000 		.word	.LANCHOR0+120
 290 0034 00000000 		.word	.LANCHOR2
 291              	.LBE95:
 292              	.LBE94:
 293              	.LBE93:
 294              	.LBE92:
 295              	.LBE91:
 296              		.cfi_endproc
 297              	.LFE261:
 298              		.size	gpt3cb, .-gpt3cb
 299 0038 AFF30080 		.section	.text.gpt4cb,"ax",%progbits
 299      AFF30080 
 300              		.align	2
 301              		.p2align 4,,15
 302              		.thumb
 303              		.thumb_func
 304              		.type	gpt4cb, %function
 305              	gpt4cb:
 306              	.LFB260:
 307              		.loc 1 160 0
 308              		.cfi_startproc
 309              		@ args = 0, pretend = 0, frame = 0
 310              		@ frame_needed = 0, uses_anonymous_args = 0
 311              	.LVL22:
 312              		.loc 1 163 0
 313 0000 0A4A     		ldr	r2, .L46
 314              		.loc 1 160 0
 315 0002 08B5     		push	{r3, lr}
 316              		.cfi_def_cfa_offset 8
 317              		.cfi_offset 3, -8
 318              		.cfi_offset 14, -4
 319              		.loc 1 163 0
 320 0004 5369     		ldr	r3, [r2, #20]
 321 0006 83F40073 		eor	r3, r3, #512
 322 000a 5361     		str	r3, [r2, #20]
 323              	.LVL23:
 324              	.LBB96:
 325              	.LBB97:
 326              	.LBB98:
 327              	.LBB99:
 328              	.LBB100:
 329              		.loc 2 546 0
 330 000c 2023     		movs	r3, #32
 331              	@ 546 "../../../../os/ext/CMSIS/include/core_cmFunc.h" 1
 332 000e 83F31188 		MSR basepri, r3
 333              	@ 0 "" 2
 334              		.thumb
 335              	.LBE100:
 336              	.LBE99:
 337              	.LBE98:
 338              	.LBE97:
 339              	.LBE96:
ARM GAS  C:\cygwin\tmp\ccpI4IED.s 			page 7


 340              		.loc 1 167 0
 341 0012 0748     		ldr	r0, .L46+4
 342              	.LVL24:
 343 0014 0121     		movs	r1, #1
 344 0016 FFF7FEFF 		bl	chMBPostI
 345              	.LVL25:
 346              		.loc 1 168 0
 347 001a 10B1     		cbz	r0, .L41
 348              		.loc 1 169 0
 349 001c 054B     		ldr	r3, .L46+8
 350 001e 0122     		movs	r2, #1
 351 0020 1A70     		strb	r2, [r3]
 352              	.L41:
 353              	.LVL26:
 354              	.LBB101:
 355              	.LBB102:
 356              	.LBB103:
 357              	.LBB104:
 358              	.LBB105:
 359              		.loc 2 546 0
 360 0022 0023     		movs	r3, #0
 361              	@ 546 "../../../../os/ext/CMSIS/include/core_cmFunc.h" 1
 362 0024 83F31188 		MSR basepri, r3
 363              	@ 0 "" 2
 364              		.thumb
 365 0028 08BD     		pop	{r3, pc}
 366              	.L47:
 367 002a 00BF     		.align	2
 368              	.L46:
 369 002c 00200240 		.word	1073881088
 370 0030 00000000 		.word	.LANCHOR0
 371 0034 00000000 		.word	.LANCHOR2
 372              	.LBE105:
 373              	.LBE104:
 374              	.LBE103:
 375              	.LBE102:
 376              	.LBE101:
 377              		.cfi_endproc
 378              	.LFE260:
 379              		.size	gpt4cb, .-gpt4cb
 380 0038 AFF30080 		.section	.text.printn.part.0,"ax",%progbits
 380      AFF30080 
 381              		.align	2
 382              		.p2align 4,,15
 383              		.thumb
 384              		.thumb_func
 385              		.type	printn.part.0, %function
 386              	printn.part.0:
 387              	.LFB266:
 388              		.loc 1 229 0
 389              		.cfi_startproc
 390              		@ args = 0, pretend = 0, frame = 0
 391              		@ frame_needed = 0, uses_anonymous_args = 0
 392              		@ link register save eliminated.
 393              	.LVL27:
 394              		.loc 1 233 0
 395 0000 0248     		ldr	r0, .L49
ARM GAS  C:\cygwin\tmp\ccpI4IED.s 			page 8


 396 0002 0368     		ldr	r3, [r0]
 397 0004 3021     		movs	r1, #48
 398 0006 9B68     		ldr	r3, [r3, #8]
 399 0008 1847     		bx	r3
 400              	.LVL28:
 401              	.L50:
 402 000a 00BF     		.align	2
 403              	.L49:
 404 000c 00000000 		.word	SD6
 405              		.cfi_endproc
 406              	.LFE266:
 407              		.size	printn.part.0, .-printn.part.0
 408              		.section	.text.printn,"ax",%progbits
 409              		.align	2
 410              		.p2align 4,,15
 411              		.thumb
 412              		.thumb_func
 413              		.type	printn, %function
 414              	printn:
 415              	.LFB264:
 416              		.loc 1 229 0
 417              		.cfi_startproc
 418              		@ args = 0, pretend = 0, frame = 16
 419              		@ frame_needed = 0, uses_anonymous_args = 0
 420              	.LVL29:
 421              		.loc 1 232 0
 422 0000 10B3     		cbz	r0, .L60
 423              		.loc 1 229 0
 424 0002 70B5     		push	{r4, r5, r6, lr}
 425              		.cfi_def_cfa_offset 16
 426              		.cfi_offset 4, -16
 427              		.cfi_offset 5, -12
 428              		.cfi_offset 6, -8
 429              		.cfi_offset 14, -4
 430              		.loc 1 237 0
 431 0004 114A     		ldr	r2, .L62
 432              		.loc 1 229 0
 433 0006 84B0     		sub	sp, sp, #16
 434              		.cfi_def_cfa_offset 32
 435              		.loc 1 232 0
 436 0008 6D46     		mov	r5, sp
 437 000a 6C46     		mov	r4, sp
 438              	.L53:
 439              	.LVL30:
 440              		.loc 1 237 0
 441 000c A2FB0013 		umull	r1, r3, r2, r0
 442 0010 DB08     		lsrs	r3, r3, #3
 443 0012 03EB8301 		add	r1, r3, r3, lsl #2
 444 0016 A0EB4100 		sub	r0, r0, r1, lsl #1
 445              	.LVL31:
 446 001a 00F13001 		add	r1, r0, #48
 447 001e C9B2     		uxtb	r1, r1
 448 0020 04F8011B 		strb	r1, [r4], #1
 449              	.LVL32:
 450              		.loc 1 236 0
 451 0024 1846     		mov	r0, r3
 452 0026 002B     		cmp	r3, #0
ARM GAS  C:\cygwin\tmp\ccpI4IED.s 			page 9


 453 0028 F0D1     		bne	.L53
 454              		.loc 1 238 0
 455 002a AC42     		cmp	r4, r5
 456 002c 0AD9     		bls	.L51
 457 002e 084E     		ldr	r6, .L62+4
 458 0030 013C     		subs	r4, r4, #1
 459              	.LVL33:
 460 0032 01E0     		b	.L57
 461              	.LVL34:
 462              	.L61:
 463 0034 14F8011D 		ldrb	r1, [r4, #-1]!	@ zero_extendqisi2
 464              	.LVL35:
 465              	.L57:
 466              		.loc 1 239 0
 467 0038 3368     		ldr	r3, [r6]
 468 003a 0548     		ldr	r0, .L62+4
 469 003c 9B68     		ldr	r3, [r3, #8]
 470 003e 9847     		blx	r3
 471              	.LVL36:
 472              		.loc 1 238 0
 473 0040 AC42     		cmp	r4, r5
 474 0042 F7D1     		bne	.L61
 475              	.LVL37:
 476              	.L51:
 477              		.loc 1 241 0
 478 0044 04B0     		add	sp, sp, #16
 479              		.cfi_def_cfa_offset 16
 480              		@ sp needed
 481 0046 70BD     		pop	{r4, r5, r6, pc}
 482              	.LVL38:
 483              	.L60:
 484              		.cfi_def_cfa_offset 0
 485              		.cfi_restore 4
 486              		.cfi_restore 5
 487              		.cfi_restore 6
 488              		.cfi_restore 14
 489 0048 FFF7FEBF 		b	printn.part.0
 490              	.LVL39:
 491              	.L63:
 492              		.align	2
 493              	.L62:
 494 004c CDCCCCCC 		.word	-858993459
 495 0050 00000000 		.word	SD6
 496              		.cfi_endproc
 497              	.LFE264:
 498              		.size	printn, .-printn
 499 0054 AFF30080 		.section	.text.chprintf.constprop.4,"ax",%progbits
 499      AFF30080 
 499      AFF30080 
 500              		.align	2
 501              		.p2align 4,,15
 502              		.thumb
 503              		.thumb_func
 504              		.type	chprintf.constprop.4, %function
 505              	chprintf.constprop.4:
 506              	.LFB270:
 507              		.file 3 "../../../../os/hal/lib/streams/chprintf.h"
ARM GAS  C:\cygwin\tmp\ccpI4IED.s 			page 10


 508              		.loc 3 69 0
 509              		.cfi_startproc
 510              		@ args = 4, pretend = 12, frame = 8
 511              		@ frame_needed = 0, uses_anonymous_args = 1
 512              	.LVL40:
 513 0000 0EB4     		push	{r1, r2, r3}
 514              		.cfi_def_cfa_offset 12
 515              		.cfi_offset 1, -12
 516              		.cfi_offset 2, -8
 517              		.cfi_offset 3, -4
 518 0002 00B5     		push	{lr}
 519              		.cfi_def_cfa_offset 16
 520              		.cfi_offset 14, -16
 521 0004 82B0     		sub	sp, sp, #8
 522              		.cfi_def_cfa_offset 24
 523              		.loc 3 73 0
 524 0006 04AB     		add	r3, sp, #16
 525              		.loc 3 74 0
 526 0008 1A46     		mov	r2, r3
 527 000a 0549     		ldr	r1, .L66
 528 000c 0548     		ldr	r0, .L66+4
 529              	.LVL41:
 530              		.loc 3 73 0
 531 000e 0193     		str	r3, [sp, #4]
 532              		.loc 3 74 0
 533 0010 FFF7FEFF 		bl	chvprintf
 534              	.LVL42:
 535              		.loc 3 78 0
 536 0014 02B0     		add	sp, sp, #8
 537              		.cfi_def_cfa_offset 16
 538              		@ sp needed
 539 0016 5DF804EB 		ldr	lr, [sp], #4
 540              		.cfi_restore 14
 541              		.cfi_def_cfa_offset 12
 542 001a 03B0     		add	sp, sp, #12
 543              		.cfi_restore 3
 544              		.cfi_restore 2
 545              		.cfi_restore 1
 546              		.cfi_def_cfa_offset 0
 547 001c 7047     		bx	lr
 548              	.L67:
 549 001e 00BF     		.align	2
 550              	.L66:
 551 0020 0C000000 		.word	.LC2
 552 0024 00000000 		.word	.LANCHOR4
 553              		.cfi_endproc
 554              	.LFE270:
 555              		.size	chprintf.constprop.4, .-chprintf.constprop.4
 556 0028 AFF30080 		.section	.text.Debug_ITMDebugEnable,"ax",%progbits
 556      AFF30080 
 557              		.align	2
 558              		.p2align 4,,15
 559              		.global	Debug_ITMDebugEnable
 560              		.thumb
 561              		.thumb_func
 562              		.type	Debug_ITMDebugEnable, %function
 563              	Debug_ITMDebugEnable:
ARM GAS  C:\cygwin\tmp\ccpI4IED.s 			page 11


 564              	.LFB256:
 565              		.loc 1 65 0
 566              		.cfi_startproc
 567              		@ args = 0, pretend = 0, frame = 0
 568              		@ frame_needed = 0, uses_anonymous_args = 0
 569              		@ link register save eliminated.
 570              	.LVL43:
 571              		.loc 1 70 0
 572 0000 084A     		ldr	r2, .L76
 573              		.loc 1 72 0
 574 0002 0949     		ldr	r1, .L76+4
 575              		.loc 1 70 0
 576 0004 1368     		ldr	r3, [r2]
 577 0006 43F02703 		orr	r3, r3, #39
 578 000a 1360     		str	r3, [r2]
 579              		.loc 1 72 0
 580 000c 0B68     		ldr	r3, [r1]
 581 000e DA07     		lsls	r2, r3, #31
 582 0010 06D5     		bpl	.L68
 583              	.LBB108:
 584 0012 064B     		ldr	r3, .L76+8
 585 0014 1B68     		ldr	r3, [r3]
 586 0016 DB07     		lsls	r3, r3, #31
 587 0018 02D5     		bpl	.L68
 588              		.loc 1 73 0
 589 001a 054B     		ldr	r3, .L76+12
 590 001c 0122     		movs	r2, #1
 591 001e 1A60     		str	r2, [r3]
 592              	.L68:
 593 0020 7047     		bx	lr
 594              	.L77:
 595 0022 00BF     		.align	2
 596              	.L76:
 597 0024 042004E0 		.word	-536600572
 598 0028 F0ED00E0 		.word	-536810000
 599 002c 000E00E0 		.word	-536867328
 600 0030 00000000 		.word	.LANCHOR5
 601              	.LBE108:
 602              		.cfi_endproc
 603              	.LFE256:
 604              		.size	Debug_ITMDebugEnable, .-Debug_ITMDebugEnable
 605 0034 AFF30080 		.section	.text.Debug_ITMDebugOutputChar,"ax",%progbits
 605      AFF30080 
 605      AFF30080 
 606              		.align	2
 607              		.p2align 4,,15
 608              		.global	Debug_ITMDebugOutputChar
 609              		.thumb
 610              		.thumb_func
 611              		.type	Debug_ITMDebugOutputChar, %function
 612              	Debug_ITMDebugOutputChar:
 613              	.LFB257:
 614              		.loc 1 78 0
 615              		.cfi_startproc
 616              		@ args = 0, pretend = 0, frame = 0
 617              		@ frame_needed = 0, uses_anonymous_args = 0
 618              		@ link register save eliminated.
ARM GAS  C:\cygwin\tmp\ccpI4IED.s 			page 12


 619              	.LVL44:
 620              		.loc 1 82 0
 621 0000 074B     		ldr	r3, .L90
 622 0002 1B68     		ldr	r3, [r3]
 623 0004 5BB1     		cbz	r3, .L78
 624              		.loc 1 82 0 is_stmt 0 discriminator 1
 625 0006 074B     		ldr	r3, .L90+4
 626 0008 1B68     		ldr	r3, [r3]
 627 000a DB01     		lsls	r3, r3, #7
 628 000c 07D5     		bpl	.L78
 629              	.LBB111:
 630              	.LBB112:
 631              		.loc 1 84 0 is_stmt 1
 632 000e 4FF06041 		mov	r1, #-536870912
 633              	.L86:
 634 0012 0B68     		ldr	r3, [r1]
 635 0014 4FF06042 		mov	r2, #-536870912
 636 0018 002B     		cmp	r3, #0
 637 001a FAD0     		beq	.L86
 638              		.loc 1 85 0
 639 001c 1070     		strb	r0, [r2]
 640              	.L78:
 641 001e 7047     		bx	lr
 642              	.L91:
 643              		.align	2
 644              	.L90:
 645 0020 00000000 		.word	.LANCHOR5
 646 0024 FCED00E0 		.word	-536809988
 647              	.LBE112:
 648              	.LBE111:
 649              		.cfi_endproc
 650              	.LFE257:
 651              		.size	Debug_ITMDebugOutputChar, .-Debug_ITMDebugOutputChar
 652 0028 AFF30080 		.section	.text.Debug_ITMDebugOutputString,"ax",%progbits
 652      AFF30080 
 653              		.align	2
 654              		.p2align 4,,15
 655              		.global	Debug_ITMDebugOutputString
 656              		.thumb
 657              		.thumb_func
 658              		.type	Debug_ITMDebugOutputString, %function
 659              	Debug_ITMDebugOutputString:
 660              	.LFB258:
 661              		.loc 1 91 0
 662              		.cfi_startproc
 663              		@ args = 0, pretend = 0, frame = 0
 664              		@ frame_needed = 0, uses_anonymous_args = 0
 665              	.LVL45:
 666              		.loc 1 92 0
 667 0000 074B     		ldr	r3, .L102
 668 0002 1B68     		ldr	r3, [r3]
 669 0004 53B1     		cbz	r3, .L101
 670              	.LVL46:
 671              		.loc 1 91 0
 672 0006 10B5     		push	{r4, lr}
 673              		.cfi_def_cfa_offset 8
 674              		.cfi_offset 4, -8
ARM GAS  C:\cygwin\tmp\ccpI4IED.s 			page 13


 675              		.cfi_offset 14, -4
 676 0008 0446     		mov	r4, r0
 677              	.LBB115:
 678              	.LBB116:
 679              		.loc 1 93 0
 680 000a 0078     		ldrb	r0, [r0]	@ zero_extendqisi2
 681              	.LVL47:
 682 000c 28B1     		cbz	r0, .L92
 683              	.LVL48:
 684              	.L95:
 685              		.loc 1 94 0
 686 000e FFF7FEFF 		bl	Debug_ITMDebugOutputChar
 687              	.LVL49:
 688              		.loc 1 93 0
 689 0012 14F8010F 		ldrb	r0, [r4, #1]!	@ zero_extendqisi2
 690              	.LVL50:
 691 0016 0028     		cmp	r0, #0
 692 0018 F9D1     		bne	.L95
 693              	.LVL51:
 694              	.L92:
 695 001a 10BD     		pop	{r4, pc}
 696              	.LVL52:
 697              	.L101:
 698              		.cfi_def_cfa_offset 0
 699              		.cfi_restore 4
 700              		.cfi_restore 14
 701 001c 7047     		bx	lr
 702              	.L103:
 703 001e 00BF     		.align	2
 704              	.L102:
 705 0020 00000000 		.word	.LANCHOR5
 706              	.LBE116:
 707              	.LBE115:
 708              		.cfi_endproc
 709              	.LFE258:
 710              		.size	Debug_ITMDebugOutputString, .-Debug_ITMDebugOutputString
 711 0024 AFF30080 		.section	.text.startup.main,"ax",%progbits
 711      AFF30080 
 711      AFF30080 
 712              		.align	2
 713              		.p2align 4,,15
 714              		.global	main
 715              		.thumb
 716              		.thumb_func
 717              		.type	main, %function
 718              	main:
 719              	.LFB265:
 720              		.loc 1 246 0
 721              		.cfi_startproc
 722              		@ args = 0, pretend = 0, frame = 8
 723              		@ frame_needed = 0, uses_anonymous_args = 0
 724 0000 2DE9F043 		push	{r4, r5, r6, r7, r8, r9, lr}
 725              		.cfi_def_cfa_offset 28
 726              		.cfi_offset 4, -28
 727              		.cfi_offset 5, -24
 728              		.cfi_offset 6, -20
 729              		.cfi_offset 7, -16
ARM GAS  C:\cygwin\tmp\ccpI4IED.s 			page 14


 730              		.cfi_offset 8, -12
 731              		.cfi_offset 9, -8
 732              		.cfi_offset 14, -4
 733 0004 85B0     		sub	sp, sp, #20
 734              		.cfi_def_cfa_offset 48
 735              		.loc 1 248 0
 736 0006 FFF7FEFF 		bl	Debug_ITMDebugEnable
 737              	.LVL53:
 738              	.LBB159:
 739              	.LBB160:
 740              		.loc 1 92 0
 741 000a A24B     		ldr	r3, .L189
 742 000c 1B68     		ldr	r3, [r3]
 743 000e 002B     		cmp	r3, #0
 744 0010 40F0D581 		bne	.L142
 745              	.L107:
 746              	.LBE160:
 747              	.LBE159:
 748              		.loc 1 251 0
 749 0014 A048     		ldr	r0, .L189+4
 750 0016 A14F     		ldr	r7, .L189+8
 751 0018 A14E     		ldr	r6, .L189+12
 752 001a A24D     		ldr	r5, .L189+16
 753 001c FFF7FEFF 		bl	itmObjectInit
 754              	.LVL54:
 755              		.loc 1 263 0
 756 0020 FFF7FEFF 		bl	halInit
 757              	.LVL55:
 758              		.loc 1 264 0
 759 0024 FFF7FEFF 		bl	chSysInit
 760              	.LVL56:
 761              		.loc 1 267 0
 762 0028 9F4A     		ldr	r2, .L189+20
 763 002a A049     		ldr	r1, .L189+24
 764 002c 9A48     		ldr	r0, .L189+4
 765 002e FFF7FEFF 		bl	chprintf.constprop.4
 766              	.LVL57:
 767              		.loc 1 272 0
 768 0032 9F48     		ldr	r0, .L189+28
 769 0034 0021     		movs	r1, #0
 770 0036 FFF7FEFF 		bl	sdStart
 771              	.LVL58:
 772              		.loc 1 275 0
 773 003a 9E48     		ldr	r0, .L189+32
 774 003c 9E49     		ldr	r1, .L189+36
 775 003e FFF7FEFF 		bl	gptStart
 776              	.LVL59:
 777              		.loc 1 276 0
 778 0042 9E48     		ldr	r0, .L189+40
 779 0044 9E49     		ldr	r1, .L189+44
 780 0046 FFF7FEFF 		bl	gptStart
 781              	.LVL60:
 782              		.loc 1 281 0
 783 004a 0024     		movs	r4, #0
 784              	.LVL61:
 785              	.L106:
 786              		.loc 1 282 0 discriminator 3
ARM GAS  C:\cygwin\tmp\ccpI4IED.s 			page 15


 787 004c 3846     		mov	r0, r7
 788 004e 3146     		mov	r1, r6
 789 0050 0422     		movs	r2, #4
 790 0052 FFF7FEFF 		bl	chMBObjectInit
 791              	.LVL62:
 792              		.loc 1 283 0 discriminator 3
 793 0056 0094     		str	r4, [sp]
 794 0058 2846     		mov	r0, r5
 795 005a 4FF4A471 		mov	r1, #328
 796              		.loc 1 281 0 discriminator 3
 797 005e 0134     		adds	r4, r4, #1
 798              	.LVL63:
 799              		.loc 1 283 0 discriminator 3
 800 0060 2C22     		movs	r2, #44
 801 0062 984B     		ldr	r3, .L189+48
 802 0064 0D44     		add	r5, r5, r1
 803 0066 FFF7FEFF 		bl	chThdCreateStatic
 804              	.LVL64:
 805              		.loc 1 281 0 discriminator 3
 806 006a 042C     		cmp	r4, #4
 807 006c 07F12807 		add	r7, r7, #40
 808 0070 06F11006 		add	r6, r6, #16
 809 0074 EAD1     		bne	.L106
 810              		.loc 1 290 0
 811 0076 9448     		ldr	r0, .L189+52
 812              		.loc 1 292 0
 813 0078 944C     		ldr	r4, .L189+56
 814              	.LVL65:
 815 007a 8D4D     		ldr	r5, .L189+28
 816              		.loc 1 290 0
 817 007c FFF7FEFF 		bl	println
 818              	.LVL66:
 819              		.loc 1 291 0
 820 0080 9348     		ldr	r0, .L189+60
 821 0082 FFF7FEFF 		bl	println
 822              	.LVL67:
 823              		.loc 1 292 0
 824 0086 9348     		ldr	r0, .L189+64
 825 0088 FFF7FEFF 		bl	println
 826              	.LVL68:
 827 008c 2A21     		movs	r1, #42
 828              	.LVL69:
 829              	.L108:
 830              	.LBB164:
 831              	.LBB165:
 832              		.loc 1 217 0
 833 008e 2B68     		ldr	r3, [r5]
 834 0090 8748     		ldr	r0, .L189+28
 835 0092 9B68     		ldr	r3, [r3, #8]
 836 0094 9847     		blx	r3
 837              	.LVL70:
 838              		.loc 1 216 0
 839 0096 14F8011F 		ldrb	r1, [r4, #1]!	@ zero_extendqisi2
 840              	.LVL71:
 841 009a 0029     		cmp	r1, #0
 842 009c F7D1     		bne	.L108
 843              	.LBE165:
ARM GAS  C:\cygwin\tmp\ccpI4IED.s 			page 16


 844              	.LBE164:
 845              		.loc 1 294 0
 846 009e 8E48     		ldr	r0, .L189+68
 847 00a0 8E4C     		ldr	r4, .L189+72
 848              	.LVL72:
 849 00a2 FFF7FEFF 		bl	println
 850              	.LVL73:
 851 00a6 2A21     		movs	r1, #42
 852              	.LVL74:
 853              	.L110:
 854              	.LBB166:
 855              	.LBB167:
 856              		.loc 1 217 0
 857 00a8 2B68     		ldr	r3, [r5]
 858 00aa 8148     		ldr	r0, .L189+28
 859 00ac 9B68     		ldr	r3, [r3, #8]
 860 00ae 9847     		blx	r3
 861              	.LVL75:
 862              		.loc 1 216 0
 863 00b0 14F8011F 		ldrb	r1, [r4, #1]!	@ zero_extendqisi2
 864              	.LVL76:
 865 00b4 0029     		cmp	r1, #0
 866 00b6 F7D1     		bne	.L110
 867              	.LBE167:
 868              	.LBE166:
 869              		.loc 1 296 0
 870 00b8 8948     		ldr	r0, .L189+76
 871 00ba 8A4C     		ldr	r4, .L189+80
 872              	.LVL77:
 873 00bc FFF7FEFF 		bl	println
 874              	.LVL78:
 875 00c0 2A21     		movs	r1, #42
 876              	.LVL79:
 877              	.L112:
 878              	.LBB168:
 879              	.LBB169:
 880              		.loc 1 217 0
 881 00c2 2B68     		ldr	r3, [r5]
 882 00c4 7A48     		ldr	r0, .L189+28
 883 00c6 9B68     		ldr	r3, [r3, #8]
 884 00c8 9847     		blx	r3
 885              	.LVL80:
 886              		.loc 1 216 0
 887 00ca 14F8011F 		ldrb	r1, [r4, #1]!	@ zero_extendqisi2
 888              	.LVL81:
 889 00ce 0029     		cmp	r1, #0
 890 00d0 F7D1     		bne	.L112
 891              	.LBE169:
 892              	.LBE168:
 893              		.loc 1 299 0
 894 00d2 8548     		ldr	r0, .L189+84
 895 00d4 854C     		ldr	r4, .L189+88
 896              	.LVL82:
 897 00d6 FFF7FEFF 		bl	println
 898              	.LVL83:
 899 00da 2A21     		movs	r1, #42
 900              	.LVL84:
ARM GAS  C:\cygwin\tmp\ccpI4IED.s 			page 17


 901              	.L114:
 902              	.LBB170:
 903              	.LBB171:
 904              		.loc 1 217 0
 905 00dc 2B68     		ldr	r3, [r5]
 906 00de 7448     		ldr	r0, .L189+28
 907 00e0 9B68     		ldr	r3, [r3, #8]
 908 00e2 9847     		blx	r3
 909              	.LVL85:
 910              		.loc 1 216 0
 911 00e4 14F8011F 		ldrb	r1, [r4, #1]!	@ zero_extendqisi2
 912              	.LVL86:
 913 00e8 0029     		cmp	r1, #0
 914 00ea F7D1     		bne	.L114
 915              	.LBE171:
 916              	.LBE170:
 917              		.loc 1 302 0
 918 00ec 8048     		ldr	r0, .L189+92
 919 00ee 814C     		ldr	r4, .L189+96
 920              	.LVL87:
 921 00f0 FFF7FEFF 		bl	println
 922              	.LVL88:
 923 00f4 2A21     		movs	r1, #42
 924              	.LVL89:
 925              	.L116:
 926              	.LBB172:
 927              	.LBB173:
 928              		.loc 1 217 0
 929 00f6 2B68     		ldr	r3, [r5]
 930 00f8 6D48     		ldr	r0, .L189+28
 931 00fa 9B68     		ldr	r3, [r3, #8]
 932 00fc 9847     		blx	r3
 933              	.LVL90:
 934              		.loc 1 216 0
 935 00fe 14F8011F 		ldrb	r1, [r4, #1]!	@ zero_extendqisi2
 936              	.LVL91:
 937 0102 0029     		cmp	r1, #0
 938 0104 F7D1     		bne	.L116
 939              	.LBE173:
 940              	.LBE172:
 941              		.loc 1 305 0
 942 0106 7C48     		ldr	r0, .L189+100
 943 0108 7C4C     		ldr	r4, .L189+104
 944              	.LVL92:
 945 010a FFF7FEFF 		bl	println
 946              	.LVL93:
 947 010e 2A21     		movs	r1, #42
 948              	.LVL94:
 949              	.L118:
 950              	.LBB174:
 951              	.LBB175:
 952              		.loc 1 217 0
 953 0110 2B68     		ldr	r3, [r5]
 954 0112 6748     		ldr	r0, .L189+28
 955 0114 9B68     		ldr	r3, [r3, #8]
 956 0116 9847     		blx	r3
 957              	.LVL95:
ARM GAS  C:\cygwin\tmp\ccpI4IED.s 			page 18


 958              		.loc 1 216 0
 959 0118 14F8011F 		ldrb	r1, [r4, #1]!	@ zero_extendqisi2
 960              	.LVL96:
 961 011c 0029     		cmp	r1, #0
 962 011e F7D1     		bne	.L118
 963              	.LBE175:
 964              	.LBE174:
 965              		.loc 1 309 0
 966 0120 7748     		ldr	r0, .L189+108
 967 0122 784C     		ldr	r4, .L189+112
 968              	.LVL97:
 969 0124 FFF7FEFF 		bl	println
 970              	.LVL98:
 971 0128 2A21     		movs	r1, #42
 972              	.LVL99:
 973              	.L120:
 974              	.LBB176:
 975              	.LBB177:
 976              		.loc 1 217 0
 977 012a 2B68     		ldr	r3, [r5]
 978 012c 6048     		ldr	r0, .L189+28
 979 012e 9B68     		ldr	r3, [r3, #8]
 980 0130 9847     		blx	r3
 981              	.LVL100:
 982              		.loc 1 216 0
 983 0132 14F8011F 		ldrb	r1, [r4, #1]!	@ zero_extendqisi2
 984              	.LVL101:
 985 0136 0029     		cmp	r1, #0
 986 0138 F7D1     		bne	.L120
 987              	.LBE177:
 988              	.LBE176:
 989              		.loc 1 313 0
 990 013a 7348     		ldr	r0, .L189+116
 991 013c 734C     		ldr	r4, .L189+120
 992              	.LVL102:
 993 013e FFF7FEFF 		bl	println
 994              	.LVL103:
 995 0142 2A21     		movs	r1, #42
 996              	.LVL104:
 997              	.L122:
 998              	.LBB178:
 999              	.LBB179:
 1000              		.loc 1 217 0
 1001 0144 2B68     		ldr	r3, [r5]
 1002 0146 5A48     		ldr	r0, .L189+28
 1003 0148 9B68     		ldr	r3, [r3, #8]
 1004 014a 9847     		blx	r3
 1005              	.LVL105:
 1006              		.loc 1 216 0
 1007 014c 14F8011F 		ldrb	r1, [r4, #1]!	@ zero_extendqisi2
 1008              	.LVL106:
 1009 0150 0029     		cmp	r1, #0
 1010 0152 F7D1     		bne	.L122
 1011              	.LBE179:
 1012              	.LBE178:
 1013              		.loc 1 317 0
 1014 0154 6E48     		ldr	r0, .L189+124
ARM GAS  C:\cygwin\tmp\ccpI4IED.s 			page 19


 1015              		.loc 1 319 0
 1016 0156 6F4C     		ldr	r4, .L189+128
 1017              	.LVL107:
 1018              		.loc 1 317 0
 1019 0158 FFF7FEFF 		bl	println
 1020              	.LVL108:
 1021              		.loc 1 319 0
 1022 015c 5D48     		ldr	r0, .L189+64
 1023 015e FFF7FEFF 		bl	println
 1024              	.LVL109:
 1025 0162 2A21     		movs	r1, #42
 1026              	.LVL110:
 1027              	.L124:
 1028              	.LBB180:
 1029              	.LBB181:
 1030              		.loc 1 217 0
 1031 0164 2B68     		ldr	r3, [r5]
 1032 0166 5248     		ldr	r0, .L189+28
 1033 0168 9B68     		ldr	r3, [r3, #8]
 1034 016a 9847     		blx	r3
 1035              	.LVL111:
 1036              		.loc 1 216 0
 1037 016c 14F8011F 		ldrb	r1, [r4, #1]!	@ zero_extendqisi2
 1038              	.LVL112:
 1039 0170 0029     		cmp	r1, #0
 1040 0172 F7D1     		bne	.L124
 1041              	.LBE181:
 1042              	.LBE180:
 1043              		.loc 1 321 0
 1044 0174 6848     		ldr	r0, .L189+132
 1045              		.loc 1 322 0
 1046 0176 694C     		ldr	r4, .L189+136
 1047              	.LVL113:
 1048              		.loc 1 321 0
 1049 0178 FFF7FEFF 		bl	printn
 1050              	.LVL114:
 1051              		.loc 1 322 0
 1052 017c 5248     		ldr	r0, .L189+52
 1053 017e FFF7FEFF 		bl	println
 1054              	.LVL115:
 1055 0182 2A21     		movs	r1, #42
 1056              	.LVL116:
 1057              	.L126:
 1058              	.LBB182:
 1059              	.LBB183:
 1060              		.loc 1 217 0
 1061 0184 2B68     		ldr	r3, [r5]
 1062 0186 4A48     		ldr	r0, .L189+28
 1063 0188 9B68     		ldr	r3, [r3, #8]
 1064 018a 9847     		blx	r3
 1065              	.LVL117:
 1066              		.loc 1 216 0
 1067 018c 14F8011F 		ldrb	r1, [r4, #1]!	@ zero_extendqisi2
 1068              	.LVL118:
 1069 0190 0029     		cmp	r1, #0
 1070 0192 F7D1     		bne	.L126
 1071              	.LBE183:
ARM GAS  C:\cygwin\tmp\ccpI4IED.s 			page 20


 1072              	.LBE182:
 1073              		.loc 1 324 0
 1074 0194 6420     		movs	r0, #100
 1075 0196 FFF7FEFF 		bl	printn
 1076              	.LVL119:
 1077              		.loc 1 325 0
 1078 019a 614C     		ldr	r4, .L189+140
 1079              	.LVL120:
 1080 019c 4A48     		ldr	r0, .L189+52
 1081 019e FFF7FEFF 		bl	println
 1082              	.LVL121:
 1083 01a2 2A21     		movs	r1, #42
 1084              	.LVL122:
 1085              	.L128:
 1086              	.LBB184:
 1087              	.LBB185:
 1088              		.loc 1 217 0
 1089 01a4 2B68     		ldr	r3, [r5]
 1090 01a6 4248     		ldr	r0, .L189+28
 1091 01a8 9B68     		ldr	r3, [r3, #8]
 1092 01aa 9847     		blx	r3
 1093              	.LVL123:
 1094              		.loc 1 216 0
 1095 01ac 14F8011F 		ldrb	r1, [r4, #1]!	@ zero_extendqisi2
 1096              	.LVL124:
 1097 01b0 0029     		cmp	r1, #0
 1098 01b2 F7D1     		bne	.L128
 1099              	.LVL125:
 1100              	.LBE185:
 1101              	.LBE184:
 1102              	.LBB186:
 1103              	.LBB187:
 1104 01b4 FFF7FEFF 		bl	printn.part.0
 1105              	.LVL126:
 1106              	.LBE187:
 1107              	.LBE186:
 1108              		.loc 1 328 0
 1109 01b8 5A4C     		ldr	r4, .L189+144
 1110              	.LVL127:
 1111 01ba 4348     		ldr	r0, .L189+52
 1112 01bc FFF7FEFF 		bl	println
 1113              	.LVL128:
 1114 01c0 2A21     		movs	r1, #42
 1115              	.LVL129:
 1116              	.L130:
 1117              	.LBB188:
 1118              	.LBB189:
 1119              		.loc 1 217 0
 1120 01c2 2B68     		ldr	r3, [r5]
 1121 01c4 3A48     		ldr	r0, .L189+28
 1122 01c6 9B68     		ldr	r3, [r3, #8]
 1123 01c8 9847     		blx	r3
 1124              	.LVL130:
 1125              		.loc 1 216 0
 1126 01ca 14F8011F 		ldrb	r1, [r4, #1]!	@ zero_extendqisi2
 1127              	.LVL131:
 1128 01ce 0029     		cmp	r1, #0
ARM GAS  C:\cygwin\tmp\ccpI4IED.s 			page 21


 1129 01d0 F7D1     		bne	.L130
 1130              	.LBE189:
 1131              	.LBE188:
 1132              		.loc 1 330 0
 1133 01d2 0420     		movs	r0, #4
 1134 01d4 FFF7FEFF 		bl	printn
 1135              	.LVL132:
 1136              		.loc 1 331 0
 1137 01d8 3B48     		ldr	r0, .L189+52
 1138 01da 534E     		ldr	r6, .L189+148
 1139 01dc FFF7FEFF 		bl	println
 1140              	.LVL133:
 1141 01e0 2A24     		movs	r4, #42
 1142              	.LVL134:
 1143              	.L132:
 1144              	.LBB190:
 1145              	.LBB191:
 1146              		.loc 1 217 0
 1147 01e2 2B68     		ldr	r3, [r5]
 1148 01e4 3248     		ldr	r0, .L189+28
 1149 01e6 9B68     		ldr	r3, [r3, #8]
 1150 01e8 2146     		mov	r1, r4
 1151 01ea 9847     		blx	r3
 1152              	.LVL135:
 1153              		.loc 1 216 0
 1154 01ec 16F8014F 		ldrb	r4, [r6, #1]!	@ zero_extendqisi2
 1155              	.LVL136:
 1156 01f0 002C     		cmp	r4, #0
 1157 01f2 F6D1     		bne	.L132
 1158              	.LBE191:
 1159              	.LBE190:
 1160              		.loc 1 333 0
 1161 01f4 0420     		movs	r0, #4
 1162 01f6 FFF7FEFF 		bl	printn
 1163              	.LVL137:
 1164              		.loc 1 334 0
 1165 01fa 3348     		ldr	r0, .L189+52
 1166 01fc 4B4F     		ldr	r7, .L189+152
 1167 01fe FFF7FEFF 		bl	println
 1168              	.LVL138:
 1169              		.loc 1 336 0
 1170 0202 3148     		ldr	r0, .L189+52
 1171 0204 FFF7FEFF 		bl	println
 1172              	.LVL139:
 1173              		.loc 1 337 0
 1174 0208 A146     		mov	r9, r4
 1175              		.loc 1 338 0
 1176 020a 4FF00108 		mov	r8, #1
 1177              	.LVL140:
 1178              	.L133:
 1179              		.loc 1 331 0
 1180 020e 484C     		ldr	r4, .L189+156
 1181 0210 4921     		movs	r1, #73
 1182              	.LVL141:
 1183              	.L134:
 1184              	.LBB192:
 1185              	.LBB193:
ARM GAS  C:\cygwin\tmp\ccpI4IED.s 			page 22


 1186              		.loc 1 217 0
 1187 0212 2B68     		ldr	r3, [r5]
 1188 0214 2648     		ldr	r0, .L189+28
 1189 0216 9B68     		ldr	r3, [r3, #8]
 1190 0218 9847     		blx	r3
 1191              	.LVL142:
 1192              		.loc 1 216 0
 1193 021a 14F8011F 		ldrb	r1, [r4, #1]!	@ zero_extendqisi2
 1194              	.LVL143:
 1195 021e 0029     		cmp	r1, #0
 1196 0220 F7D1     		bne	.L134
 1197              	.LBE193:
 1198              	.LBE192:
 1199              		.loc 1 340 0
 1200 0222 4046     		mov	r0, r8
 1201 0224 0391     		str	r1, [sp, #12]
 1202 0226 FFF7FEFF 		bl	printn
 1203              	.LVL144:
 1204              		.loc 1 341 0
 1205 022a 2748     		ldr	r0, .L189+52
 1206 022c FFF7FEFF 		bl	println
 1207              	.LVL145:
 1208              		.loc 1 343 0
 1209 0230 0399     		ldr	r1, [sp, #12]
 1210              		.loc 1 342 0
 1211 0232 3970     		strb	r1, [r7]
 1212              	.LVL146:
 1213              		.loc 1 343 0
 1214 0234 0C46     		mov	r4, r1
 1215              	.LVL147:
 1216              		.loc 1 344 0
 1217 0236 4FF4FA66 		mov	r6, #2000
 1218 023a 0BE0     		b	.L137
 1219              	.LVL148:
 1220              	.L188:
 1221              	.LBB194:
 1222              	.LBB195:
 1223              		.loc 1 217 0
 1224 023c 2B68     		ldr	r3, [r5]
 1225 023e 9B68     		ldr	r3, [r3, #8]
 1226 0240 9847     		blx	r3
 1227              	.LVL149:
 1228              	.L136:
 1229              	.LBE195:
 1230              	.LBE194:
 1231              		.loc 1 346 0
 1232 0242 3C4A     		ldr	r2, .L189+160
 1233 0244 06F10903 		add	r3, r6, #9
 1234 0248 A2FB0323 		umull	r2, r3, r2, r3
 1235 024c A6EBD306 		sub	r6, r6, r3, lsr #3
 1236              	.LVL150:
 1237              		.loc 1 344 0
 1238 0250 012E     		cmp	r6, #1
 1239 0252 71D9     		bls	.L187
 1240              	.LVL151:
 1241              	.L137:
 1242              		.loc 1 347 0
ARM GAS  C:\cygwin\tmp\ccpI4IED.s 			page 23


 1243 0254 1748     		ldr	r0, .L189+32
 1244 0256 711E     		subs	r1, r6, #1
 1245 0258 FFF7FEFF 		bl	gptStartContinuous
 1246              	.LVL152:
 1247              		.loc 1 348 0
 1248 025c 711C     		adds	r1, r6, #1
 1249 025e 1748     		ldr	r0, .L189+40
 1250 0260 FFF7FEFF 		bl	gptStartContinuous
 1251              	.LVL153:
 1252              		.loc 1 349 0
 1253 0264 42F21070 		movw	r0, #10000
 1254 0268 FFF7FEFF 		bl	chThdSleep
 1255              	.LVL154:
 1256              		.loc 1 350 0
 1257 026c 1148     		ldr	r0, .L189+32
 1258 026e FFF7FEFF 		bl	gptStopTimer
 1259              	.LVL155:
 1260              		.loc 1 351 0
 1261 0272 1248     		ldr	r0, .L189+40
 1262 0274 FFF7FEFF 		bl	gptStopTimer
 1263              	.LVL156:
 1264              		.loc 1 352 0
 1265 0278 3B78     		ldrb	r3, [r7]	@ zero_extendqisi2
 1266              	.LBB197:
 1267              	.LBB196:
 1268              		.loc 1 217 0
 1269 027a 0D48     		ldr	r0, .L189+28
 1270 027c 2E21     		movs	r1, #46
 1271              	.LBE196:
 1272              	.LBE197:
 1273              		.loc 1 352 0
 1274 027e 002B     		cmp	r3, #0
 1275 0280 DCD0     		beq	.L188
 1276              	.LBB198:
 1277              	.LBB199:
 1278              		.loc 1 217 0
 1279 0282 2B68     		ldr	r3, [r5]
 1280 0284 0A48     		ldr	r0, .L189+28
 1281 0286 9B68     		ldr	r3, [r3, #8]
 1282 0288 2321     		movs	r1, #35
 1283 028a 9847     		blx	r3
 1284              	.LVL157:
 1285              	.LBE199:
 1286              	.LBE198:
 1287              		.loc 1 356 0
 1288 028c 002C     		cmp	r4, #0
 1289 028e 08BF     		it	eq
 1290 0290 3446     		moveq	r4, r6
 1291              	.LVL158:
 1292 0292 D6E7     		b	.L136
 1293              	.L190:
 1294              		.align	2
 1295              	.L189:
 1296 0294 00000000 		.word	.LANCHOR5
 1297 0298 00000000 		.word	.LANCHOR4
 1298 029c 00000000 		.word	.LANCHOR0
 1299 02a0 00000000 		.word	.LANCHOR8
ARM GAS  C:\cygwin\tmp\ccpI4IED.s 			page 24


 1300 02a4 00000000 		.word	.LANCHOR9
 1301 02a8 50010000 		.word	.LC20
 1302 02ac 0C000000 		.word	.LC2
 1303 02b0 00000000 		.word	SD6
 1304 02b4 00000000 		.word	GPTD4
 1305 02b8 00000000 		.word	.LANCHOR6
 1306 02bc 00000000 		.word	GPTD3
 1307 02c0 00000000 		.word	.LANCHOR7
 1308 02c4 00000000 		.word	WorkerThread
 1309 02c8 60010000 		.word	.LC21
 1310 02cc 20000000 		.word	.LC4
 1311 02d0 64010000 		.word	.LC22
 1312 02d4 90010000 		.word	.LC23
 1313 02d8 A8010000 		.word	.LC26
 1314 02dc 34000000 		.word	.LC5
 1315 02e0 B4010000 		.word	.LC27
 1316 02e4 48000000 		.word	.LC6
 1317 02e8 CC010000 		.word	.LC28
 1318 02ec 5C000000 		.word	.LC7
 1319 02f0 14020000 		.word	.LC29
 1320 02f4 70000000 		.word	.LC8
 1321 02f8 20020000 		.word	.LC30
 1322 02fc 84000000 		.word	.LC9
 1323 0300 2C020000 		.word	.LC31
 1324 0304 98000000 		.word	.LC10
 1325 0308 44020000 		.word	.LC32
 1326 030c AC000000 		.word	.LC11
 1327 0310 70020000 		.word	.LC33
 1328 0314 C0000000 		.word	.LC12
 1329 0318 80D1F008 		.word	150000000
 1330 031c D4000000 		.word	.LC13
 1331 0320 E8000000 		.word	.LC14
 1332 0324 FC000000 		.word	.LC15
 1333 0328 10010000 		.word	.LC16
 1334 032c 00000000 		.word	.LANCHOR2
 1335 0330 24010000 		.word	.LC17
 1336 0334 CDCCCCCC 		.word	-858993459
 1337              	.LVL159:
 1338              	.L187:
 1339              		.loc 1 362 0
 1340 0338 C820     		movs	r0, #200
 1341 033a FFF7FEFF 		bl	chThdSleep
 1342              	.LVL160:
 1343              		.loc 1 363 0
 1344 033e 244E     		ldr	r6, .L191
 1345              	.LVL161:
 1346 0340 2448     		ldr	r0, .L191+4
 1347 0342 FFF7FEFF 		bl	println
 1348              	.LVL162:
 1349 0346 5321     		movs	r1, #83
 1350              	.LVL163:
 1351              	.L138:
 1352              	.LBB200:
 1353              	.LBB201:
 1354              		.loc 1 217 0
 1355 0348 2B68     		ldr	r3, [r5]
 1356 034a 2348     		ldr	r0, .L191+8
ARM GAS  C:\cygwin\tmp\ccpI4IED.s 			page 25


 1357 034c 9B68     		ldr	r3, [r3, #8]
 1358 034e 9847     		blx	r3
 1359              	.LVL164:
 1360              		.loc 1 216 0
 1361 0350 16F8011F 		ldrb	r1, [r6, #1]!	@ zero_extendqisi2
 1362              	.LVL165:
 1363 0354 0029     		cmp	r1, #0
 1364 0356 F7D1     		bne	.L138
 1365              	.LBE201:
 1366              	.LBE200:
 1367              		.loc 1 365 0
 1368 0358 2046     		mov	r0, r4
 1369 035a FFF7FEFF 		bl	printn
 1370              	.LVL166:
 1371              		.loc 1 366 0
 1372 035e 1F48     		ldr	r0, .L191+12
 1373 0360 FFF7FEFF 		bl	println
 1374              	.LVL167:
 1375              		.loc 1 338 0
 1376 0364 08F10108 		add	r8, r8, #1
 1377              	.LVL168:
 1378 0368 A145     		cmp	r9, r4
 1379              		.loc 1 367 0
 1380 036a 1A48     		ldr	r0, .L191+4
 1381 036c 38BF     		it	cc
 1382 036e A146     		movcc	r9, r4
 1383              	.LVL169:
 1384 0370 FFF7FEFF 		bl	println
 1385              	.LVL170:
 1386              		.loc 1 338 0
 1387 0374 B8F1650F 		cmp	r8, #101
 1388 0378 7FF449AF 		bne	.L133
 1389              		.loc 1 371 0
 1390 037c 1848     		ldr	r0, .L191+16
 1391              		.loc 1 372 0
 1392 037e 194C     		ldr	r4, .L191+20
 1393              	.LVL171:
 1394              		.loc 1 371 0
 1395 0380 FFF7FEFF 		bl	gptStopTimer
 1396              	.LVL172:
 1397              		.loc 1 372 0
 1398 0384 1848     		ldr	r0, .L191+24
 1399 0386 FFF7FEFF 		bl	gptStopTimer
 1400              	.LVL173:
 1401 038a 5721     		movs	r1, #87
 1402              	.LVL174:
 1403              	.L140:
 1404              	.LBB202:
 1405              	.LBB203:
 1406              		.loc 1 217 0
 1407 038c 2B68     		ldr	r3, [r5]
 1408 038e 1248     		ldr	r0, .L191+8
 1409 0390 9B68     		ldr	r3, [r3, #8]
 1410 0392 9847     		blx	r3
 1411              	.LVL175:
 1412              		.loc 1 216 0
 1413 0394 14F8011F 		ldrb	r1, [r4, #1]!	@ zero_extendqisi2
ARM GAS  C:\cygwin\tmp\ccpI4IED.s 			page 26


 1414              	.LVL176:
 1415 0398 0029     		cmp	r1, #0
 1416 039a F7D1     		bne	.L140
 1417              	.LBE203:
 1418              	.LBE202:
 1419              		.loc 1 375 0
 1420 039c 4846     		mov	r0, r9
 1421 039e FFF7FEFF 		bl	printn
 1422              	.LVL177:
 1423              		.loc 1 376 0
 1424 03a2 0E48     		ldr	r0, .L191+12
 1425 03a4 FFF7FEFF 		bl	println
 1426              	.LVL178:
 1427              		.loc 1 377 0
 1428 03a8 0A48     		ldr	r0, .L191+4
 1429 03aa FFF7FEFF 		bl	println
 1430              	.LVL179:
 1431              		.loc 1 378 0
 1432 03ae 0F48     		ldr	r0, .L191+28
 1433 03b0 FFF7FEFF 		bl	println
 1434              	.LVL180:
 1435              	.L141:
 1436              		.loc 1 384 0 discriminator 1
 1437 03b4 4CF25030 		movw	r0, #50000
 1438 03b8 FFF7FEFF 		bl	chThdSleep
 1439              	.LVL181:
 1440              		.loc 1 385 0 discriminator 1
 1441 03bc FAE7     		b	.L141
 1442              	.LVL182:
 1443              	.L142:
 1444              	.LBB204:
 1445              	.LBB163:
 1446              		.loc 1 92 0
 1447 03be 0C4C     		ldr	r4, .L191+32
 1448 03c0 5320     		movs	r0, #83
 1449              	.L105:
 1450              	.LVL183:
 1451              	.LBB161:
 1452              	.LBB162:
 1453              		.loc 1 94 0
 1454 03c2 FFF7FEFF 		bl	Debug_ITMDebugOutputChar
 1455              	.LVL184:
 1456              		.loc 1 93 0
 1457 03c6 14F8010F 		ldrb	r0, [r4, #1]!	@ zero_extendqisi2
 1458              	.LVL185:
 1459 03ca 0028     		cmp	r0, #0
 1460 03cc F9D1     		bne	.L105
 1461 03ce 21E6     		b	.L107
 1462              	.L192:
 1463              		.align	2
 1464              	.L191:
 1465 03d0 30010000 		.word	.LC18
 1466 03d4 60010000 		.word	.LC21
 1467 03d8 00000000 		.word	SD6
 1468 03dc 94010000 		.word	.LC24
 1469 03e0 00000000 		.word	GPTD4
 1470 03e4 40010000 		.word	.LC19
ARM GAS  C:\cygwin\tmp\ccpI4IED.s 			page 27


 1471 03e8 00000000 		.word	GPTD3
 1472 03ec 98010000 		.word	.LC25
 1473 03f0 10000000 		.word	.LC3
 1474              	.LBE162:
 1475              	.LBE161:
 1476              	.LBE163:
 1477              	.LBE204:
 1478              		.cfi_endproc
 1479              	.LFE265:
 1480              		.size	main, .-main
 1481              		.global	itm_port
 1482 03f4 AFF30080 		.section	.rodata.gpt3cfg,"a",%progbits
 1482      AFF30080 
 1482      AFF30080 
 1483              		.align	2
 1484              		.set	.LANCHOR7,. + 0
 1485              		.type	gpt3cfg, %object
 1486              		.size	gpt3cfg, 16
 1487              	gpt3cfg:
 1488 0000 40420F00 		.word	1000000
 1489 0004 00000000 		.word	gpt3cb
 1490 0008 00000000 		.word	0
 1491 000c 00000000 		.word	0
 1492              		.section	.bss.waWorkerThread,"aw",%nobits
 1493              		.align	3
 1494              		.set	.LANCHOR9,. + 0
 1495              		.type	waWorkerThread, %object
 1496              		.size	waWorkerThread, 1312
 1497              	waWorkerThread:
 1498 0000 00000000 		.space	1312
 1498      00000000 
 1498      00000000 
 1498      00000000 
 1498      00000000 
 1499              		.section	.bss.saturated,"aw",%nobits
 1500              		.set	.LANCHOR2,. + 0
 1501              		.type	saturated, %object
 1502              		.size	saturated, 1
 1503              	saturated:
 1504 0000 00       		.space	1
 1505              		.section	.bss.Debug_ITMDebug,"aw",%nobits
 1506              		.align	2
 1507              		.set	.LANCHOR5,. + 0
 1508              		.type	Debug_ITMDebug, %object
 1509              		.size	Debug_ITMDebug, 4
 1510              	Debug_ITMDebug:
 1511 0000 00000000 		.space	4
 1512              		.section	.rodata.gpt4cfg,"a",%progbits
 1513              		.align	2
 1514              		.set	.LANCHOR6,. + 0
 1515              		.type	gpt4cfg, %object
 1516              		.size	gpt4cfg, 16
 1517              	gpt4cfg:
 1518 0000 40420F00 		.word	1000000
 1519 0004 00000000 		.word	gpt4cb
 1520 0008 00000000 		.word	0
 1521 000c 00000000 		.word	0
ARM GAS  C:\cygwin\tmp\ccpI4IED.s 			page 28


 1522              		.section	.bss.itm_port,"aw",%nobits
 1523              		.align	2
 1524              		.set	.LANCHOR4,. + 0
 1525              		.type	itm_port, %object
 1526              		.size	itm_port, 4
 1527              	itm_port:
 1528 0000 00000000 		.space	4
 1529              		.section	.rodata.str1.4,"aMS",%progbits,1
 1530              		.align	2
 1531              	.LC0:
 1532 0000 0D0A00   		.ascii	"\015\012\000"
 1533 0003 00       		.space	1
 1534              	.LC1:
 1535 0004 776F726B 		.ascii	"worker\000"
 1535      657200
 1536 000b 00       		.space	1
 1537              	.LC2:
 1538 000c 257300   		.ascii	"%s\000"
 1539 000f 00       		.space	1
 1540              	.LC3:
 1541 0010 53575620 		.ascii	"SWV Enabled\012\000"
 1541      456E6162 
 1541      6C65640A 
 1541      00
 1542 001d 000000   		.space	3
 1543              	.LC4:
 1544 0020 2A2A2A20 		.ascii	"*** Kernel:       \000"
 1544      4B65726E 
 1544      656C3A20 
 1544      20202020 
 1544      202000
 1545 0033 00       		.space	1
 1546              	.LC5:
 1547 0034 2A2A2A20 		.ascii	"*** Compiled:     \000"
 1547      436F6D70 
 1547      696C6564 
 1547      3A202020 
 1547      202000
 1548 0047 00       		.space	1
 1549              	.LC6:
 1550 0048 2A2A2A20 		.ascii	"*** Compiler:     \000"
 1550      436F6D70 
 1550      696C6572 
 1550      3A202020 
 1550      202000
 1551 005b 00       		.space	1
 1552              	.LC7:
 1553 005c 2A2A2A20 		.ascii	"*** Architecture: \000"
 1553      41726368 
 1553      69746563 
 1553      74757265 
 1553      3A2000
 1554 006f 00       		.space	1
 1555              	.LC8:
 1556 0070 2A2A2A20 		.ascii	"*** Core Variant: \000"
 1556      436F7265 
 1556      20566172 
ARM GAS  C:\cygwin\tmp\ccpI4IED.s 			page 29


 1556      69616E74 
 1556      3A2000
 1557 0083 00       		.space	1
 1558              	.LC9:
 1559 0084 2A2A2A20 		.ascii	"*** Port Info:    \000"
 1559      506F7274 
 1559      20496E66 
 1559      6F3A2020 
 1559      202000
 1560 0097 00       		.space	1
 1561              	.LC10:
 1562 0098 2A2A2A20 		.ascii	"*** Platform:     \000"
 1562      506C6174 
 1562      666F726D 
 1562      3A202020 
 1562      202000
 1563 00ab 00       		.space	1
 1564              	.LC11:
 1565 00ac 2A2A2A20 		.ascii	"*** Test Board:   \000"
 1565      54657374 
 1565      20426F61 
 1565      72643A20 
 1565      202000
 1566 00bf 00       		.space	1
 1567              	.LC12:
 1568 00c0 2A2A2A20 		.ascii	"*** System Clock: \000"
 1568      53797374 
 1568      656D2043 
 1568      6C6F636B 
 1568      3A2000
 1569 00d3 00       		.space	1
 1570              	.LC13:
 1571 00d4 2A2A2A20 		.ascii	"*** Iterations:   \000"
 1571      49746572 
 1571      6174696F 
 1571      6E733A20 
 1571      202000
 1572 00e7 00       		.space	1
 1573              	.LC14:
 1574 00e8 2A2A2A20 		.ascii	"*** Randomize:    \000"
 1574      52616E64 
 1574      6F6D697A 
 1574      653A2020 
 1574      202000
 1575 00fb 00       		.space	1
 1576              	.LC15:
 1577 00fc 2A2A2A20 		.ascii	"*** Threads:      \000"
 1577      54687265 
 1577      6164733A 
 1577      20202020 
 1577      202000
 1578 010f 00       		.space	1
 1579              	.LC16:
 1580 0110 2A2A2A20 		.ascii	"*** Mailbox size: \000"
 1580      4D61696C 
 1580      626F7820 
 1580      73697A65 
ARM GAS  C:\cygwin\tmp\ccpI4IED.s 			page 30


 1580      3A2000
 1581 0123 00       		.space	1
 1582              	.LC17:
 1583 0124 49746572 		.ascii	"Iteration \000"
 1583      6174696F 
 1583      6E2000
 1584 012f 00       		.space	1
 1585              	.LC18:
 1586 0130 53617475 		.ascii	"Saturated at \000"
 1586      72617465 
 1586      64206174 
 1586      2000
 1587 013e 0000     		.space	2
 1588              	.LC19:
 1589 0140 576F7273 		.ascii	"Worst case at \000"
 1589      74206361 
 1589      73652061 
 1589      742000
 1590 014f 00       		.space	1
 1591              	.LC20:
 1592 0150 43686962 		.ascii	"ChibiOS V3.0\012\000"
 1592      694F5320 
 1592      56332E30 
 1592      0A00
 1593 015e 0000     		.space	2
 1594              	.LC21:
 1595 0160 00       		.ascii	"\000"
 1596 0161 000000   		.space	3
 1597              	.LC22:
 1598 0164 2A2A2A20 		.ascii	"*** ChibiOS/RT IRQ-STORM long duration test\000"
 1598      43686962 
 1598      694F532F 
 1598      52542049 
 1598      52512D53 
 1599              	.LC23:
 1600 0190 2A2A2A00 		.ascii	"***\000"
 1601              	.LC24:
 1602 0194 20755300 		.ascii	" uS\000"
 1603              	.LC25:
 1604 0198 54657374 		.ascii	"Test Complete\000"
 1604      20436F6D 
 1604      706C6574 
 1604      6500
 1605 01a6 0000     		.space	2
 1606              	.LC26:
 1607 01a8 332E302E 		.ascii	"3.0.0dev\000"
 1607      30646576 
 1607      00
 1608 01b1 000000   		.space	3
 1609              	.LC27:
 1610 01b4 4D617920 		.ascii	"May  8 2015 - 06:45:24\000"
 1610      20382032 
 1610      30313520 
 1610      2D203036 
 1610      3A34353A 
 1611 01cb 00       		.space	1
 1612              	.LC28:
ARM GAS  C:\cygwin\tmp\ccpI4IED.s 			page 31


 1613 01cc 47434320 		.ascii	"GCC 4.9.3 20141119 (release) [ARM/embedded-4_9-bran"
 1613      342E392E 
 1613      33203230 
 1613      31343131 
 1613      31392028 
 1614 01ff 63682072 		.ascii	"ch revision 218278]\000"
 1614      65766973 
 1614      696F6E20 
 1614      32313832 
 1614      37385D00 
 1615 0213 00       		.space	1
 1616              	.LC29:
 1617 0214 41524D76 		.ascii	"ARMv7-ME\000"
 1617      372D4D45 
 1617      00
 1618 021d 000000   		.space	3
 1619              	.LC30:
 1620 0220 436F7274 		.ascii	"Cortex-M4\000"
 1620      65782D4D 
 1620      3400
 1621 022a 0000     		.space	2
 1622              	.LC31:
 1623 022c 41647661 		.ascii	"Advanced kernel mode\000"
 1623      6E636564 
 1623      206B6572 
 1623      6E656C20 
 1623      6D6F6465 
 1624 0241 000000   		.space	3
 1625              	.LC32:
 1626 0244 53544D33 		.ascii	"STM32F407 High Performance with DSP and FPU\000"
 1626      32463430 
 1626      37204869 
 1626      67682050 
 1626      6572666F 
 1627              	.LC33:
 1628 0270 53544D69 		.ascii	"STMicroelectronics STM32F4-Discovery\000"
 1628      63726F65 
 1628      6C656374 
 1628      726F6E69 
 1628      63732053 
 1629 0295 000000   		.section	.bss.x.7585,"aw",%nobits
 1630              		.align	2
 1631              		.set	.LANCHOR1,. + 0
 1632              		.type	x.7585, %object
 1633              		.size	x.7585, 4
 1634              	x.7585:
 1635 0000 00000000 		.space	4
 1636              		.section	.bss.cnt.7586,"aw",%nobits
 1637              		.align	2
 1638              		.set	.LANCHOR3,. + 0
 1639              		.type	cnt.7586, %object
 1640              		.size	cnt.7586, 4
 1641              	cnt.7586:
 1642 0000 00000000 		.space	4
 1643              		.section	.bss.mb,"aw",%nobits
 1644              		.align	2
 1645              		.set	.LANCHOR0,. + 0
ARM GAS  C:\cygwin\tmp\ccpI4IED.s 			page 32


 1646              		.type	mb, %object
 1647              		.size	mb, 160
 1648              	mb:
 1649 0000 00000000 		.space	160
 1649      00000000 
 1649      00000000 
 1649      00000000 
 1649      00000000 
 1650              		.section	.bss.b,"aw",%nobits
 1651              		.align	2
 1652              		.set	.LANCHOR8,. + 0
 1653              		.type	b, %object
 1654              		.size	b, 64
 1655              	b:
 1656 0000 00000000 		.space	64
 1656      00000000 
 1656      00000000 
 1656      00000000 
 1656      00000000 
 1657              		.text
 1658              	.Letext0:
 1659              		.file 4 "c:\\program files\\gnu tools arm embedded\\4.9 2014q4\\lib\\gcc\\arm-none-eabi\\4.9.3\\in
 1660              		.file 5 "c:\\program files\\gnu tools arm embedded\\4.9 2014q4\\arm-none-eabi\\include\\machine\\_
 1661              		.file 6 "c:\\program files\\gnu tools arm embedded\\4.9 2014q4\\arm-none-eabi\\include\\stdint.h"
 1662              		.file 7 "../../../../os/rt/ports/ARMCMx/compilers/GCC/chtypes.h"
 1663              		.file 8 "../../../../os/rt/include/chsystypes.h"
 1664              		.file 9 "../../../../os/rt/include/chschd.h"
 1665              		.file 10 "../../../../os/ext/CMSIS/ST/stm32f407xx.h"
 1666              		.file 11 "../../../../os/rt/ports/ARMCMx/chcore.h"
 1667              		.file 12 "../../../../os/rt/ports/ARMCMx/chcore_v7m.h"
 1668              		.file 13 "../../../../os/hal/ports/STM32/LLD/TIMv1/stm32_tim.h"
 1669              		.file 14 "../../../../os/rt/include/chtm.h"
 1670              		.file 15 "../../../../os/rt/include/chmtx.h"
 1671              		.file 16 "../../../../os/rt/include/chthreads.h"
 1672              		.file 17 "../../../../os/rt/include/chsem.h"
 1673              		.file 18 "../../../../os/rt/include/chevents.h"
 1674              		.file 19 "../../../../os/rt/include/chmboxes.h"
 1675              		.file 20 "../../../../os/rt/include/chqueues.h"
 1676              		.file 21 "../../../../os/rt/include/chstreams.h"
 1677              		.file 22 "../../../../os/hal/ports/STM32/LLD/GPIOv2/pal_lld.h"
 1678              		.file 23 "../../../../os/hal/include/gpt.h"
 1679              		.file 24 "../../../../os/hal/ports/STM32/LLD/TIMv1/gpt_lld.h"
 1680              		.file 25 "../../../../os/hal/include/serial.h"
 1681              		.file 26 "../../../../os/hal/ports/STM32/LLD/USARTv1/serial_lld.h"
 1682              		.file 27 "ITM_trace.h"
 1683              		.file 28 "c:\\program files\\gnu tools arm embedded\\4.9 2014q4\\lib\\gcc\\arm-none-eabi\\4.9.3\\i
 1684              		.file 29 "<built-in>"
 1685              		.file 30 "../../../../os/rt/include/chsys.h"
 1686              		.file 31 "../../../../os/ext/CMSIS/include/core_cm4.h"
 1687              		.file 32 "../../../../os/hal/include/hal.h"