ARM GAS  C:\cygwin\tmp\ccFb2W90.s 			page 1


   1              		.syntax unified
   2              		.cpu cortex-m4
   3              		.fpu softvfp
   4              		.eabi_attribute 20, 1
   5              		.eabi_attribute 21, 1
   6              		.eabi_attribute 23, 3
   7              		.eabi_attribute 24, 1
   8              		.eabi_attribute 25, 1
   9              		.eabi_attribute 26, 1
  10              		.eabi_attribute 30, 2
  11              		.eabi_attribute 34, 1
  12              		.eabi_attribute 18, 4
  13              		.thumb
  14              		.file	"pal.c"
  15              		.text
  16              	.Ltext0:
  17              		.cfi_sections	.debug_frame
  18              		.section	.text.palReadBus,"ax",%progbits
  19              		.align	2
  20              		.p2align 4,,15
  21              		.global	palReadBus
  22              		.thumb
  23              		.thumb_func
  24              		.type	palReadBus, %function
  25              	palReadBus:
  26              	.LFB255:
  27              		.file 1 "../../../../os/hal/src/pal.c"
  28              		.loc 1 68 0
  29              		.cfi_startproc
  30              		@ args = 0, pretend = 0, frame = 0
  31              		@ frame_needed = 0, uses_anonymous_args = 0
  32              		@ link register save eliminated.
  33              	.LVL0:
  34              		.loc 1 72 0
  35 0000 0368     		ldr	r3, [r0]
  36 0002 8168     		ldr	r1, [r0, #8]
  37 0004 1B69     		ldr	r3, [r3, #16]
  38 0006 4268     		ldr	r2, [r0, #4]
  39 0008 23FA01F0 		lsr	r0, r3, r1
  40              	.LVL1:
  41              		.loc 1 73 0
  42 000c 1040     		ands	r0, r0, r2
  43 000e 7047     		bx	lr
  44              		.cfi_endproc
  45              	.LFE255:
  46              		.size	palReadBus, .-palReadBus
  47              		.section	.text.palWriteBus,"ax",%progbits
  48              		.align	2
  49              		.p2align 4,,15
  50              		.global	palWriteBus
  51              		.thumb
  52              		.thumb_func
  53              		.type	palWriteBus, %function
  54              	palWriteBus:
  55              	.LFB256:
  56              		.loc 1 93 0
  57              		.cfi_startproc
ARM GAS  C:\cygwin\tmp\ccFb2W90.s 			page 2


  58              		@ args = 0, pretend = 0, frame = 0
  59              		@ frame_needed = 0, uses_anonymous_args = 0
  60              		@ link register save eliminated.
  61              	.LVL2:
  62 0000 30B4     		push	{r4, r5}
  63              		.cfi_def_cfa_offset 8
  64              		.cfi_offset 4, -8
  65              		.cfi_offset 5, -4
  66              		.loc 1 97 0
  67 0002 19C8     		ldmia	r0, {r0, r3, r4}
  68              	.LVL3:
  69 0004 23EA0102 		bic	r2, r3, r1
  70 0008 04F11005 		add	r5, r4, #16
  71 000c 0B40     		ands	r3, r3, r1
  72 000e 03FA04F1 		lsl	r1, r3, r4
  73              	.LVL4:
  74 0012 02FA05F3 		lsl	r3, r2, r5
  75 0016 0B43     		orrs	r3, r3, r1
  76 0018 8361     		str	r3, [r0, #24]
  77              		.loc 1 98 0
  78 001a 30BC     		pop	{r4, r5}
  79              		.cfi_restore 5
  80              		.cfi_restore 4
  81              		.cfi_def_cfa_offset 0
  82 001c 7047     		bx	lr
  83              		.cfi_endproc
  84              	.LFE256:
  85              		.size	palWriteBus, .-palWriteBus
  86 001e 00BF     		.section	.text.palSetBusMode,"ax",%progbits
  87              		.align	2
  88              		.p2align 4,,15
  89              		.global	palSetBusMode
  90              		.thumb
  91              		.thumb_func
  92              		.type	palSetBusMode, %function
  93              	palSetBusMode:
  94              	.LFB257:
  95              		.loc 1 116 0
  96              		.cfi_startproc
  97              		@ args = 0, pretend = 0, frame = 0
  98              		@ frame_needed = 0, uses_anonymous_args = 0
  99              		@ link register save eliminated.
 100              	.LVL5:
 101              		.loc 1 116 0
 102 0000 0A46     		mov	r2, r1
 103              		.loc 1 120 0
 104 0002 0BC8     		ldmia	r0, {r0, r1, r3}
 105              	.LVL6:
 106 0004 9940     		lsls	r1, r1, r3
 107 0006 FFF7FEBF 		b	_pal_lld_setgroupmode
 108              	.LVL7:
 109              		.cfi_endproc
 110              	.LFE257:
 111              		.size	palSetBusMode, .-palSetBusMode
 112 000a 00BFAFF3 		.text
 112      0080
 113              	.Letext0:
ARM GAS  C:\cygwin\tmp\ccFb2W90.s 			page 3


 114              		.file 2 "c:\\program files\\gnu tools arm embedded\\4.9 2014q4\\arm-none-eabi\\include\\machine\\_
 115              		.file 3 "c:\\program files\\gnu tools arm embedded\\4.9 2014q4\\arm-none-eabi\\include\\stdint.h"
 116              		.file 4 "../../../../os/rt/ports/ARMCMx/compilers/GCC/chtypes.h"
 117              		.file 5 "../../../../os/rt/include/chsystypes.h"
 118              		.file 6 "../../../../os/rt/include/chschd.h"
 119              		.file 7 "../../../../os/rt/ports/ARMCMx/chcore.h"
 120              		.file 8 "../../../../os/rt/ports/ARMCMx/chcore_v7m.h"
 121              		.file 9 "../../../../os/rt/include/chtm.h"
 122              		.file 10 "../../../../os/rt/include/chmtx.h"
 123              		.file 11 "../../../../os/hal/ports/STM32/LLD/GPIOv2/pal_lld.h"
 124              		.file 12 "../../../../os/hal/include/pal.h"
 125              		.file 13 "../../../../os/ext/CMSIS/include/core_cm4.h"