ARM GAS  C:\Users\jo\AppData\Local\Temp\ccLDsGlj.s 			page 1


   1              		.syntax unified
   2              		.cpu cortex-m4
   3              		.eabi_attribute 27, 3
   4              		.eabi_attribute 28, 1
   5              		.fpu fpv4-sp-d16
   6              		.eabi_attribute 20, 1
   7              		.eabi_attribute 21, 1
   8              		.eabi_attribute 23, 3
   9              		.eabi_attribute 24, 1
  10              		.eabi_attribute 25, 1
  11              		.eabi_attribute 26, 1
  12              		.eabi_attribute 30, 2
  13              		.eabi_attribute 34, 1
  14              		.eabi_attribute 18, 4
  15              		.thumb
  16              		.file	"api_msg.c"
  17              		.text
  18              	.Ltext0:
  19              		.cfi_sections	.debug_frame
  20              		.section	.text.recv_raw,"ax",%progbits
  21              		.align	2
  22              		.p2align 4,,15
  23              		.thumb
  24              		.thumb_func
  25              		.type	recv_raw, %function
  26              	recv_raw:
  27              	.LFB256:
  28              		.file 1 "../../../os/ext/lwip-1.4.1/src/api/api_msg.c"
  29              		.loc 1 80 0
  30              		.cfi_startproc
  31              		@ args = 0, pretend = 0, frame = 0
  32              		@ frame_needed = 0, uses_anonymous_args = 0
  33              	.LVL0:
  34              		.loc 1 88 0
  35 0000 0028     		cmp	r0, #0
  36 0002 38D0     		beq	.L22
  37              		.loc 1 80 0 discriminator 1
  38 0004 2DE9F041 		push	{r4, r5, r6, r7, r8, lr}
  39              		.cfi_def_cfa_offset 24
  40              		.cfi_offset 4, -24
  41              		.cfi_offset 5, -20
  42              		.cfi_offset 6, -16
  43              		.cfi_offset 7, -12
  44              		.cfi_offset 8, -8
  45              		.cfi_offset 14, -4
  46              		.loc 1 88 0 discriminator 1
  47 0008 00F11007 		add	r7, r0, #16
  48 000c 0546     		mov	r5, r0
  49 000e 3846     		mov	r0, r7
  50              	.LVL1:
  51 0010 1446     		mov	r4, r2
  52 0012 0E46     		mov	r6, r1
  53 0014 FFF7FEFF 		bl	sys_mbox_valid
  54              	.LVL2:
  55 0018 10B9     		cbnz	r0, .L24
  56              	.LVL3:
  57              	.L16:
ARM GAS  C:\Users\jo\AppData\Local\Temp\ccLDsGlj.s 			page 2


  58              		.loc 1 133 0
  59 001a 0020     		movs	r0, #0
  60 001c BDE8F081 		pop	{r4, r5, r6, r7, r8, pc}
  61              	.LVL4:
  62              	.L24:
  63              		.loc 1 97 0
  64 0020 0320     		movs	r0, #3
  65 0022 2189     		ldrh	r1, [r4, #8]
  66 0024 0022     		movs	r2, #0
  67 0026 FFF7FEFF 		bl	pbuf_alloc
  68              	.LVL5:
  69              		.loc 1 98 0
  70 002a 8046     		mov	r8, r0
  71 002c 0028     		cmp	r0, #0
  72 002e F4D0     		beq	.L16
  73              		.loc 1 99 0
  74 0030 2146     		mov	r1, r4
  75 0032 FFF7FEFF 		bl	pbuf_copy
  76              	.LVL6:
  77 0036 00BB     		cbnz	r0, .L8
  78              	.LBB87:
  79              		.loc 1 107 0
  80 0038 0720     		movs	r0, #7
  81 003a FFF7FEFF 		bl	memp_malloc
  82              	.LVL7:
  83              		.loc 1 108 0
  84 003e 0446     		mov	r4, r0
  85              	.LVL8:
  86 0040 D8B1     		cbz	r0, .L8
  87              		.loc 1 115 0
  88 0042 124B     		ldr	r3, .L26
  89              		.loc 1 113 0
  90 0044 C4F80080 		str	r8, [r4]
  91              		.loc 1 115 0
  92 0048 1B68     		ldr	r3, [r3]
  93              		.loc 1 114 0
  94 004a C4F80480 		str	r8, [r4, #4]
  95              		.loc 1 115 0
  96 004e A360     		str	r3, [r4, #8]
  97              		.loc 1 116 0
  98 0050 337C     		ldrb	r3, [r6, #16]	@ zero_extendqisi2
  99 0052 A381     		strh	r3, [r4, #12]	@ movhi
 100              		.loc 1 119 0
 101 0054 2146     		mov	r1, r4
 102 0056 3846     		mov	r0, r7
 103              	.LVL9:
 104              		.loc 1 118 0
 105 0058 B8F80860 		ldrh	r6, [r8, #8]
 106              	.LVL10:
 107              		.loc 1 119 0
 108 005c FFF7FEFF 		bl	sys_mbox_trypost
 109              	.LVL11:
 110 0060 0146     		mov	r1, r0
 111 0062 70B9     		cbnz	r0, .L25
 112              		.loc 1 127 0
 113 0064 AB6A     		ldr	r3, [r5, #40]
 114 0066 002B     		cmp	r3, #0
ARM GAS  C:\Users\jo\AppData\Local\Temp\ccLDsGlj.s 			page 3


 115 0068 D7D0     		beq	.L16
 116              		.loc 1 127 0 is_stmt 0 discriminator 1
 117 006a 2846     		mov	r0, r5
 118 006c 3246     		mov	r2, r6
 119 006e 9847     		blx	r3
 120              	.LVL12:
 121              	.LBE87:
 122              		.loc 1 133 0 is_stmt 1 discriminator 1
 123 0070 0020     		movs	r0, #0
 124 0072 BDE8F081 		pop	{r4, r5, r6, r7, r8, pc}
 125              	.LVL13:
 126              	.L22:
 127              		.cfi_def_cfa_offset 0
 128              		.cfi_restore 4
 129              		.cfi_restore 5
 130              		.cfi_restore 6
 131              		.cfi_restore 7
 132              		.cfi_restore 8
 133              		.cfi_restore 14
 134              		.loc 1 133 0 is_stmt 0
 135 0076 0020     		movs	r0, #0
 136              	.LVL14:
 137 0078 7047     		bx	lr
 138              	.LVL15:
 139              	.L8:
 140              		.cfi_def_cfa_offset 24
 141              		.cfi_offset 4, -24
 142              		.cfi_offset 5, -20
 143              		.cfi_offset 6, -16
 144              		.cfi_offset 7, -12
 145              		.cfi_offset 8, -8
 146              		.cfi_offset 14, -4
 147              	.LBB88:
 148              		.loc 1 109 0 is_stmt 1
 149 007a 4046     		mov	r0, r8
 150 007c FFF7FEFF 		bl	pbuf_free
 151              	.LVL16:
 152              		.loc 1 110 0
 153 0080 CBE7     		b	.L16
 154              	.LVL17:
 155              	.L25:
 156              		.loc 1 120 0
 157 0082 2046     		mov	r0, r4
 158 0084 FFF7FEFF 		bl	netbuf_delete
 159              	.LVL18:
 160              		.loc 1 121 0
 161 0088 C7E7     		b	.L16
 162              	.L27:
 163 008a 00BF     		.align	2
 164              	.L26:
 165 008c 00000000 		.word	current_iphdr_src
 166              	.LBE88:
 167              		.cfi_endproc
 168              	.LFE256:
 169              		.size	recv_raw, .-recv_raw
 170              		.section	.text.setup_tcp,"ax",%progbits
 171              		.align	2
ARM GAS  C:\Users\jo\AppData\Local\Temp\ccLDsGlj.s 			page 4


 172              		.p2align 4,,15
 173              		.thumb
 174              		.thumb_func
 175              		.type	setup_tcp, %function
 176              	setup_tcp:
 177              	.LFB262:
 178              		.loc 1 414 0
 179              		.cfi_startproc
 180              		@ args = 0, pretend = 0, frame = 0
 181              		@ frame_needed = 0, uses_anonymous_args = 0
 182              	.LVL19:
 183 0000 10B5     		push	{r4, lr}
 184              		.cfi_def_cfa_offset 8
 185              		.cfi_offset 4, -8
 186              		.cfi_offset 14, -4
 187              		.loc 1 417 0
 188 0002 4468     		ldr	r4, [r0, #4]
 189              	.LVL20:
 190              		.loc 1 418 0
 191 0004 0146     		mov	r1, r0
 192 0006 2046     		mov	r0, r4
 193              	.LVL21:
 194 0008 FFF7FEFF 		bl	tcp_arg
 195              	.LVL22:
 196              		.loc 1 419 0
 197 000c 2046     		mov	r0, r4
 198 000e 0949     		ldr	r1, .L30
 199 0010 FFF7FEFF 		bl	tcp_recv
 200              	.LVL23:
 201              		.loc 1 420 0
 202 0014 2046     		mov	r0, r4
 203 0016 0849     		ldr	r1, .L30+4
 204 0018 FFF7FEFF 		bl	tcp_sent
 205              	.LVL24:
 206              		.loc 1 421 0
 207 001c 2046     		mov	r0, r4
 208 001e 0749     		ldr	r1, .L30+8
 209 0020 0422     		movs	r2, #4
 210 0022 FFF7FEFF 		bl	tcp_poll
 211              	.LVL25:
 212              		.loc 1 422 0
 213 0026 2046     		mov	r0, r4
 214 0028 0549     		ldr	r1, .L30+12
 215              		.loc 1 423 0
 216 002a BDE81040 		pop	{r4, lr}
 217              		.cfi_restore 14
 218              		.cfi_restore 4
 219              		.cfi_def_cfa_offset 0
 220              	.LVL26:
 221              		.loc 1 422 0
 222 002e FFF7FEBF 		b	tcp_err
 223              	.LVL27:
 224              	.L31:
 225 0032 00BF     		.align	2
 226              	.L30:
 227 0034 00000000 		.word	recv_tcp
 228 0038 00000000 		.word	sent_tcp
ARM GAS  C:\Users\jo\AppData\Local\Temp\ccLDsGlj.s 			page 5


 229 003c 00000000 		.word	poll_tcp
 230 0040 00000000 		.word	err_tcp
 231              		.cfi_endproc
 232              	.LFE262:
 233              		.size	setup_tcp, .-setup_tcp
 234 0044 AFF30080 		.section	.text.chprintf.constprop.1,"ax",%progbits
 234      AFF30080 
 234      AFF30080 
 235              		.align	2
 236              		.p2align 4,,15
 237              		.thumb
 238              		.thumb_func
 239              		.type	chprintf.constprop.1, %function
 240              	chprintf.constprop.1:
 241              	.LFB283:
 242              		.file 2 "../../../os/hal/lib/streams/chprintf.h"
 243              		.loc 2 69 0
 244              		.cfi_startproc
 245              		@ args = 4, pretend = 12, frame = 8
 246              		@ frame_needed = 0, uses_anonymous_args = 1
 247              	.LVL28:
 248 0000 0EB4     		push	{r1, r2, r3}
 249              		.cfi_def_cfa_offset 12
 250              		.cfi_offset 1, -12
 251              		.cfi_offset 2, -8
 252              		.cfi_offset 3, -4
 253 0002 00B5     		push	{lr}
 254              		.cfi_def_cfa_offset 16
 255              		.cfi_offset 14, -16
 256 0004 82B0     		sub	sp, sp, #8
 257              		.cfi_def_cfa_offset 24
 258              		.loc 2 73 0
 259 0006 04AB     		add	r3, sp, #16
 260              		.loc 2 74 0
 261 0008 1A46     		mov	r2, r3
 262 000a 0549     		ldr	r1, .L34
 263 000c 0548     		ldr	r0, .L34+4
 264              	.LVL29:
 265              		.loc 2 73 0
 266 000e 0193     		str	r3, [sp, #4]
 267              		.loc 2 74 0
 268 0010 FFF7FEFF 		bl	chvprintf
 269              	.LVL30:
 270              		.loc 2 78 0
 271 0014 02B0     		add	sp, sp, #8
 272              		.cfi_def_cfa_offset 16
 273              		@ sp needed
 274 0016 5DF804EB 		ldr	lr, [sp], #4
 275              		.cfi_restore 14
 276              		.cfi_def_cfa_offset 12
 277 001a 03B0     		add	sp, sp, #12
 278              		.cfi_restore 3
 279              		.cfi_restore 2
 280              		.cfi_restore 1
 281              		.cfi_def_cfa_offset 0
 282 001c 7047     		bx	lr
 283              	.L35:
ARM GAS  C:\Users\jo\AppData\Local\Temp\ccLDsGlj.s 			page 6


 284 001e 00BF     		.align	2
 285              	.L34:
 286 0020 00000000 		.word	.LC0
 287 0024 00000000 		.word	itm_port
 288              		.cfi_endproc
 289              	.LFE283:
 290              		.size	chprintf.constprop.1, .-chprintf.constprop.1
 291 0028 AFF30080 		.section	.text.recv_tcp,"ax",%progbits
 291      AFF30080 
 292              		.align	2
 293              		.p2align 4,,15
 294              		.thumb
 295              		.thumb_func
 296              		.type	recv_tcp, %function
 297              	recv_tcp:
 298              	.LFB258:
 299              		.loc 1 217 0
 300              		.cfi_startproc
 301              		@ args = 0, pretend = 0, frame = 0
 302              		@ frame_needed = 0, uses_anonymous_args = 0
 303              	.LVL31:
 304 0000 2DE9F043 		push	{r4, r5, r6, r7, r8, r9, lr}
 305              		.cfi_def_cfa_offset 28
 306              		.cfi_offset 4, -28
 307              		.cfi_offset 5, -24
 308              		.cfi_offset 6, -20
 309              		.cfi_offset 7, -16
 310              		.cfi_offset 8, -12
 311              		.cfi_offset 9, -8
 312              		.cfi_offset 14, -4
 313 0004 0446     		mov	r4, r0
 314 0006 83B0     		sub	sp, sp, #12
 315              		.cfi_def_cfa_offset 40
 316              		.loc 1 217 0
 317 0008 1646     		mov	r6, r2
 318 000a 9946     		mov	r9, r3
 319              		.loc 1 222 0
 320 000c 0F46     		mov	r7, r1
 321 000e 0029     		cmp	r1, #0
 322 0010 40D0     		beq	.L52
 323              	.LVL32:
 324              	.L37:
 325              		.loc 1 223 0
 326 0012 002C     		cmp	r4, #0
 327 0014 4CD0     		beq	.L53
 328              	.L38:
 329              	.LVL33:
 330              		.loc 1 225 0
 331 0016 6368     		ldr	r3, [r4, #4]
 332 0018 BB42     		cmp	r3, r7
 333 001a 0AD0     		beq	.L39
 334              		.loc 1 225 0 is_stmt 0 discriminator 1
 335 001c 2B4B     		ldr	r3, .L54
 336 001e 0093     		str	r3, [sp]
 337 0020 2B48     		ldr	r0, .L54+4
 338 0022 2C49     		ldr	r1, .L54+8
 339 0024 2C4A     		ldr	r2, .L54+12
ARM GAS  C:\Users\jo\AppData\Local\Temp\ccLDsGlj.s 			page 7


 340 0026 E123     		movs	r3, #225
 341 0028 FFF7FEFF 		bl	chprintf.constprop.1
 342              	.LVL34:
 343              	.LBB89:
 344              	.LBB90:
 345              		.file 3 "../../../os/hal/osal/rt/osal.h"
 346              		.loc 3 414 0 is_stmt 1 discriminator 1
 347 002c 2A48     		ldr	r0, .L54+12
 348 002e FFF7FEFF 		bl	chSysHalt
 349              	.LVL35:
 350              	.L39:
 351              	.LBE90:
 352              	.LBE89:
 353              		.loc 1 230 0
 354 0032 04F11008 		add	r8, r4, #16
 355 0036 4046     		mov	r0, r8
 356 0038 FFF7FEFF 		bl	sys_mbox_valid
 357              	.LVL36:
 358 003c 0546     		mov	r5, r0
 359 003e 80B9     		cbnz	r0, .L40
 360              		.loc 1 232 0
 361 0040 56B1     		cbz	r6, .L45
 362              		.loc 1 233 0
 363 0042 3846     		mov	r0, r7
 364 0044 3189     		ldrh	r1, [r6, #8]
 365 0046 FFF7FEFF 		bl	tcp_recved
 366              	.LVL37:
 367              		.loc 1 234 0
 368 004a 3046     		mov	r0, r6
 369 004c FFF7FEFF 		bl	pbuf_free
 370              	.LVL38:
 371              	.L42:
 372              		.loc 1 263 0
 373 0050 68B2     		sxtb	r0, r5
 374 0052 03B0     		add	sp, sp, #12
 375              		.cfi_remember_state
 376              		.cfi_def_cfa_offset 28
 377              		@ sp needed
 378 0054 BDE8F083 		pop	{r4, r5, r6, r7, r8, r9, pc}
 379              	.LVL39:
 380              	.L45:
 381              		.cfi_restore_state
 382              		.loc 1 236 0
 383 0058 0025     		movs	r5, #0
 384              		.loc 1 263 0
 385 005a 68B2     		sxtb	r0, r5
 386 005c 03B0     		add	sp, sp, #12
 387              		.cfi_remember_state
 388              		.cfi_def_cfa_offset 28
 389              		@ sp needed
 390 005e BDE8F083 		pop	{r4, r5, r6, r7, r8, r9, pc}
 391              	.LVL40:
 392              	.L40:
 393              		.cfi_restore_state
 394              		.loc 1 243 0
 395 0062 94F90830 		ldrsb	r3, [r4, #8]
 396 0066 0933     		adds	r3, r3, #9
ARM GAS  C:\Users\jo\AppData\Local\Temp\ccLDsGlj.s 			page 8


 397 0068 A8BF     		it	ge
 398 006a 84F80890 		strbge	r9, [r4, #8]
 399              		.loc 1 245 0
 400 006e EEB1     		cbz	r6, .L46
 401              		.loc 1 246 0
 402 0070 3789     		ldrh	r7, [r6, #8]
 403              	.LVL41:
 404              	.L44:
 405              		.loc 1 251 0
 406 0072 4046     		mov	r0, r8
 407 0074 3146     		mov	r1, r6
 408 0076 FFF7FEFF 		bl	sys_mbox_trypost
 409              	.LVL42:
 410 007a 0546     		mov	r5, r0
 411 007c 20BB     		cbnz	r0, .L47
 412              		.loc 1 259 0
 413 007e A36A     		ldr	r3, [r4, #40]
 414 0080 002B     		cmp	r3, #0
 415 0082 E9D0     		beq	.L45
 416              		.loc 1 259 0 is_stmt 0 discriminator 1
 417 0084 2046     		mov	r0, r4
 418 0086 3A46     		mov	r2, r7
 419 0088 2946     		mov	r1, r5
 420 008a 9847     		blx	r3
 421              	.LVL43:
 422              		.loc 1 263 0 is_stmt 1 discriminator 1
 423 008c 68B2     		sxtb	r0, r5
 424 008e 03B0     		add	sp, sp, #12
 425              		.cfi_remember_state
 426              		.cfi_def_cfa_offset 28
 427              		@ sp needed
 428 0090 BDE8F083 		pop	{r4, r5, r6, r7, r8, r9, pc}
 429              	.LVL44:
 430              	.L52:
 431              		.cfi_restore_state
 432              		.loc 1 222 0 discriminator 1
 433 0094 0D4B     		ldr	r3, .L54
 434              	.LVL45:
 435 0096 0093     		str	r3, [sp]
 436 0098 0E49     		ldr	r1, .L54+8
 437              	.LVL46:
 438 009a 104A     		ldr	r2, .L54+16
 439              	.LVL47:
 440 009c 0C48     		ldr	r0, .L54+4
 441              	.LVL48:
 442 009e DE23     		movs	r3, #222
 443 00a0 FFF7FEFF 		bl	chprintf.constprop.1
 444              	.LVL49:
 445              	.LBB91:
 446              	.LBB92:
 447              		.loc 3 414 0 discriminator 1
 448 00a4 0D48     		ldr	r0, .L54+16
 449 00a6 FFF7FEFF 		bl	chSysHalt
 450              	.LVL50:
 451 00aa B2E7     		b	.L37
 452              	.LVL51:
 453              	.L46:
ARM GAS  C:\Users\jo\AppData\Local\Temp\ccLDsGlj.s 			page 9


 454              	.LBE92:
 455              	.LBE91:
 456              		.loc 1 248 0
 457 00ac 3746     		mov	r7, r6
 458              	.LVL52:
 459 00ae E0E7     		b	.L44
 460              	.LVL53:
 461              	.L53:
 462              		.loc 1 223 0 discriminator 1
 463 00b0 064B     		ldr	r3, .L54
 464 00b2 0093     		str	r3, [sp]
 465 00b4 0749     		ldr	r1, .L54+8
 466 00b6 0A4A     		ldr	r2, .L54+20
 467 00b8 0548     		ldr	r0, .L54+4
 468 00ba DF23     		movs	r3, #223
 469 00bc FFF7FEFF 		bl	chprintf.constprop.1
 470              	.LVL54:
 471              	.LBB93:
 472              	.LBB94:
 473              		.loc 3 414 0 discriminator 1
 474 00c0 0748     		ldr	r0, .L54+20
 475 00c2 FFF7FEFF 		bl	chSysHalt
 476              	.LVL55:
 477 00c6 A6E7     		b	.L38
 478              	.LVL56:
 479              	.L47:
 480              	.LBE94:
 481              	.LBE93:
 482              		.loc 1 253 0
 483 00c8 FF25     		movs	r5, #255
 484 00ca C1E7     		b	.L42
 485              	.L55:
 486              		.align	2
 487              	.L54:
 488 00cc 4C000000 		.word	.LC2
 489 00d0 00000000 		.word	itm_port
 490 00d4 00000000 		.word	.LC0
 491 00d8 9C000000 		.word	.LC4
 492 00dc 28000000 		.word	.LC1
 493 00e0 7C000000 		.word	.LC3
 494              		.cfi_endproc
 495              	.LFE258:
 496              		.size	recv_tcp, .-recv_tcp
 497 00e4 AFF30080 		.section	.text.do_close_internal,"ax",%progbits
 497      AFF30080 
 497      AFF30080 
 498              		.align	2
 499              		.p2align 4,,15
 500              		.thumb
 501              		.thumb_func
 502              		.type	do_close_internal, %function
 503              	do_close_internal:
 504              	.LFB269:
 505              		.loc 1 748 0
 506              		.cfi_startproc
 507              		@ args = 0, pretend = 0, frame = 0
 508              		@ frame_needed = 0, uses_anonymous_args = 0
ARM GAS  C:\Users\jo\AppData\Local\Temp\ccLDsGlj.s 			page 10


 509              	.LVL57:
 510 0000 F0B5     		push	{r4, r5, r6, r7, lr}
 511              		.cfi_def_cfa_offset 20
 512              		.cfi_offset 4, -20
 513              		.cfi_offset 5, -16
 514              		.cfi_offset 6, -12
 515              		.cfi_offset 7, -8
 516              		.cfi_offset 14, -4
 517              		.loc 1 752 0
 518 0002 0446     		mov	r4, r0
 519              		.loc 1 748 0
 520 0004 83B0     		sub	sp, sp, #12
 521              		.cfi_def_cfa_offset 32
 522              		.loc 1 752 0
 523 0006 0028     		cmp	r0, #0
 524 0008 00F0D280 		beq	.L105
 525              	.LVL58:
 526              	.L57:
 527              		.loc 1 753 0
 528 000c 2378     		ldrb	r3, [r4]	@ zero_extendqisi2
 529 000e 102B     		cmp	r3, #16
 530 0010 0BD0     		beq	.L58
 531              		.loc 1 753 0 is_stmt 0 discriminator 1
 532 0012 704B     		ldr	r3, .L114
 533 0014 0093     		str	r3, [sp]
 534 0016 7048     		ldr	r0, .L114+4
 535 0018 7049     		ldr	r1, .L114+8
 536 001a 714A     		ldr	r2, .L114+12
 537 001c 40F2F123 		movw	r3, #753
 538 0020 FFF7FEFF 		bl	chprintf.constprop.1
 539              	.LVL59:
 540              	.LBB95:
 541              	.LBB96:
 542              		.loc 3 414 0 is_stmt 1 discriminator 1
 543 0024 6E48     		ldr	r0, .L114+12
 544 0026 FFF7FEFF 		bl	chSysHalt
 545              	.LVL60:
 546              	.L58:
 547              	.LBE96:
 548              	.LBE95:
 549              		.loc 1 754 0
 550 002a 6378     		ldrb	r3, [r4, #1]	@ zero_extendqisi2
 551 002c 042B     		cmp	r3, #4
 552 002e 0BD0     		beq	.L59
 553              		.loc 1 754 0 is_stmt 0 discriminator 1
 554 0030 684B     		ldr	r3, .L114
 555 0032 0093     		str	r3, [sp]
 556 0034 6848     		ldr	r0, .L114+4
 557 0036 6949     		ldr	r1, .L114+8
 558 0038 6A4A     		ldr	r2, .L114+16
 559 003a 40F2F223 		movw	r3, #754
 560 003e FFF7FEFF 		bl	chprintf.constprop.1
 561              	.LVL61:
 562              	.LBB97:
 563              	.LBB98:
 564              		.loc 3 414 0 is_stmt 1 discriminator 1
 565 0042 6848     		ldr	r0, .L114+16
ARM GAS  C:\Users\jo\AppData\Local\Temp\ccLDsGlj.s 			page 11


 566 0044 FFF7FEFF 		bl	chSysHalt
 567              	.LVL62:
 568              	.L59:
 569              	.LBE98:
 570              	.LBE97:
 571              		.loc 1 755 0
 572 0048 6368     		ldr	r3, [r4, #4]
 573 004a 002B     		cmp	r3, #0
 574 004c 00F09580 		beq	.L106
 575              	.L60:
 576              		.loc 1 756 0
 577 0050 636A     		ldr	r3, [r4, #36]
 578 0052 002B     		cmp	r3, #0
 579 0054 00F09E80 		beq	.L107
 580              	.L61:
 581              		.loc 1 758 0
 582 0058 197A     		ldrb	r1, [r3, #8]	@ zero_extendqisi2
 583              	.LVL63:
 584              		.loc 1 766 0
 585 005a 6068     		ldr	r0, [r4, #4]
 586              		.loc 1 760 0
 587 005c 01F00206 		and	r6, r1, #2
 588              		.loc 1 762 0
 589 0060 A1F10307 		sub	r7, r1, #3
 590 0064 B7FA87F7 		clz	r7, r7
 591 0068 7F09     		lsrs	r7, r7, #5
 592              		.loc 1 760 0
 593 006a F6B2     		uxtb	r6, r6
 594              		.loc 1 759 0
 595 006c 01F00105 		and	r5, r1, #1
 596              	.LVL64:
 597              		.loc 1 765 0
 598 0070 002F     		cmp	r7, #0
 599 0072 69D1     		bne	.L108
 600              		.loc 1 768 0
 601 0074 037E     		ldrb	r3, [r0, #24]	@ zero_extendqisi2
 602 0076 012B     		cmp	r3, #1
 603 0078 00F0A780 		beq	.L109
 604              	.LVL65:
 605              	.L81:
 606              		.loc 1 772 0
 607 007c 002D     		cmp	r5, #0
 608 007e 58D1     		bne	.L110
 609              		.loc 1 776 0
 610 0080 002E     		cmp	r6, #0
 611 0082 36D1     		bne	.L111
 612              	.L65:
 613              		.loc 1 779 0
 614 0084 002F     		cmp	r7, #0
 615 0086 3AD1     		bne	.L112
 616              	.L66:
 617              		.loc 1 788 0
 618 0088 2946     		mov	r1, r5
 619 008a 3246     		mov	r2, r6
 620 008c FFF7FEFF 		bl	tcp_shutdown
 621              	.LVL66:
 622              		.loc 1 790 0
ARM GAS  C:\Users\jo\AppData\Local\Temp\ccLDsGlj.s 			page 12


 623 0090 C0B9     		cbnz	r0, .L68
 624              		.loc 1 792 0
 625 0092 636A     		ldr	r3, [r4, #36]
 626 0094 1871     		strb	r0, [r3, #4]
 627              		.loc 1 793 0
 628 0096 6062     		str	r0, [r4, #36]
 629              		.loc 1 794 0
 630 0098 6070     		strb	r0, [r4, #1]
 631              	.LVL67:
 632              	.L76:
 633              		.loc 1 802 0
 634 009a 2DB1     		cbz	r5, .L71
 635              		.loc 1 803 0
 636 009c A36A     		ldr	r3, [r4, #40]
 637 009e 53B1     		cbz	r3, .L73
 638              		.loc 1 803 0 is_stmt 0 discriminator 1
 639 00a0 0021     		movs	r1, #0
 640 00a2 0A46     		mov	r2, r1
 641 00a4 2046     		mov	r0, r4
 642 00a6 9847     		blx	r3
 643              	.LVL68:
 644              	.L71:
 645              		.loc 1 805 0 is_stmt 1
 646 00a8 2EB1     		cbz	r6, .L73
 647              		.loc 1 806 0
 648 00aa A36A     		ldr	r3, [r4, #40]
 649 00ac 1BB1     		cbz	r3, .L73
 650              		.loc 1 806 0 is_stmt 0 discriminator 1
 651 00ae 2046     		mov	r0, r4
 652 00b0 0221     		movs	r1, #2
 653 00b2 0022     		movs	r2, #0
 654 00b4 9847     		blx	r3
 655              	.LVL69:
 656              	.L73:
 657              		.loc 1 809 0 is_stmt 1
 658 00b6 04F10C00 		add	r0, r4, #12
 659              		.loc 1 822 0
 660 00ba 03B0     		add	sp, sp, #12
 661              		.cfi_remember_state
 662              		.cfi_def_cfa_offset 20
 663              		@ sp needed
 664 00bc BDE8F040 		pop	{r4, r5, r6, r7, lr}
 665              		.cfi_restore 14
 666              		.cfi_restore 7
 667              		.cfi_restore 6
 668              		.cfi_restore 5
 669              		.cfi_restore 4
 670              		.cfi_def_cfa_offset 0
 671              	.LVL70:
 672              		.loc 1 809 0
 673 00c0 FFF7FEBF 		b	sys_sem_signal
 674              	.LVL71:
 675              	.L68:
 676              		.cfi_restore_state
 677              		.loc 1 813 0
 678 00c4 6068     		ldr	r0, [r4, #4]
 679              	.LVL72:
ARM GAS  C:\Users\jo\AppData\Local\Temp\ccLDsGlj.s 			page 13


 680 00c6 037E     		ldrb	r3, [r0, #24]	@ zero_extendqisi2
 681 00c8 012B     		cmp	r3, #1
 682 00ca 48D0     		beq	.L113
 683              	.L75:
 684              		.loc 1 814 0
 685 00cc 4649     		ldr	r1, .L114+20
 686 00ce FFF7FEFF 		bl	tcp_sent
 687              	.LVL73:
 688              		.loc 1 815 0
 689 00d2 6068     		ldr	r0, [r4, #4]
 690 00d4 4549     		ldr	r1, .L114+24
 691 00d6 0422     		movs	r2, #4
 692 00d8 FFF7FEFF 		bl	tcp_poll
 693              	.LVL74:
 694              		.loc 1 816 0
 695 00dc 6068     		ldr	r0, [r4, #4]
 696 00de 4449     		ldr	r1, .L114+28
 697 00e0 FFF7FEFF 		bl	tcp_err
 698              	.LVL75:
 699              		.loc 1 817 0
 700 00e4 6068     		ldr	r0, [r4, #4]
 701 00e6 2146     		mov	r1, r4
 702              		.loc 1 822 0
 703 00e8 03B0     		add	sp, sp, #12
 704              		.cfi_remember_state
 705              		.cfi_def_cfa_offset 20
 706              		@ sp needed
 707 00ea BDE8F040 		pop	{r4, r5, r6, r7, lr}
 708              		.cfi_restore 14
 709              		.cfi_restore 7
 710              		.cfi_restore 6
 711              		.cfi_restore 5
 712              		.cfi_restore 4
 713              		.cfi_def_cfa_offset 0
 714              	.LVL76:
 715              		.loc 1 817 0
 716 00ee FFF7FEBF 		b	tcp_arg
 717              	.LVL77:
 718              	.L111:
 719              		.cfi_restore_state
 720              		.loc 1 777 0
 721 00f2 0021     		movs	r1, #0
 722 00f4 FFF7FEFF 		bl	tcp_sent
 723              	.LVL78:
 724 00f8 6068     		ldr	r0, [r4, #4]
 725              		.loc 1 779 0
 726 00fa 002F     		cmp	r7, #0
 727 00fc C4D0     		beq	.L66
 728              	.L112:
 729              		.loc 1 780 0
 730 00fe 0021     		movs	r1, #0
 731 0100 0422     		movs	r2, #4
 732 0102 FFF7FEFF 		bl	tcp_poll
 733              	.LVL79:
 734              		.loc 1 781 0
 735 0106 6068     		ldr	r0, [r4, #4]
 736 0108 0021     		movs	r1, #0
ARM GAS  C:\Users\jo\AppData\Local\Temp\ccLDsGlj.s 			page 14


 737 010a FFF7FEFF 		bl	tcp_err
 738              	.LVL80:
 739              	.L79:
 740              		.loc 1 786 0
 741 010e 6068     		ldr	r0, [r4, #4]
 742 0110 FFF7FEFF 		bl	tcp_close
 743              	.LVL81:
 744              		.loc 1 790 0
 745 0114 0028     		cmp	r0, #0
 746 0116 D5D1     		bne	.L68
 747              		.loc 1 792 0
 748 0118 636A     		ldr	r3, [r4, #36]
 749 011a 1871     		strb	r0, [r3, #4]
 750              		.loc 1 800 0
 751 011c A36A     		ldr	r3, [r4, #40]
 752              		.loc 1 793 0
 753 011e 6062     		str	r0, [r4, #36]
 754              		.loc 1 794 0
 755 0120 6070     		strb	r0, [r4, #1]
 756              		.loc 1 797 0
 757 0122 6060     		str	r0, [r4, #4]
 758              		.loc 1 800 0
 759 0124 002B     		cmp	r3, #0
 760 0126 BFD0     		beq	.L71
 761              		.loc 1 800 0 is_stmt 0 discriminator 1
 762 0128 0246     		mov	r2, r0
 763 012a 0421     		movs	r1, #4
 764 012c 2046     		mov	r0, r4
 765              	.LVL82:
 766 012e 9847     		blx	r3
 767              	.LVL83:
 768 0130 B3E7     		b	.L76
 769              	.L110:
 770              		.loc 1 773 0 is_stmt 1
 771 0132 0021     		movs	r1, #0
 772 0134 FFF7FEFF 		bl	tcp_recv
 773              	.LVL84:
 774              		.loc 1 774 0
 775 0138 6068     		ldr	r0, [r4, #4]
 776 013a 0021     		movs	r1, #0
 777 013c FFF7FEFF 		bl	tcp_accept
 778              	.LVL85:
 779 0140 6068     		ldr	r0, [r4, #4]
 780              		.loc 1 776 0
 781 0142 002E     		cmp	r6, #0
 782 0144 9ED0     		beq	.L65
 783 0146 D4E7     		b	.L111
 784              	.LVL86:
 785              	.L108:
 786              		.loc 1 766 0
 787 0148 0021     		movs	r1, #0
 788              	.LVL87:
 789 014a FFF7FEFF 		bl	tcp_arg
 790              	.LVL88:
 791              		.loc 1 768 0
 792 014e 6068     		ldr	r0, [r4, #4]
 793 0150 037E     		ldrb	r3, [r0, #24]	@ zero_extendqisi2
ARM GAS  C:\Users\jo\AppData\Local\Temp\ccLDsGlj.s 			page 15


 794 0152 012B     		cmp	r3, #1
 795 0154 92D1     		bne	.L81
 796              		.loc 1 769 0
 797 0156 0021     		movs	r1, #0
 798 0158 FFF7FEFF 		bl	tcp_accept
 799              	.LVL89:
 800 015c D7E7     		b	.L79
 801              	.L113:
 802              		.loc 1 813 0 discriminator 1
 803 015e 1D4B     		ldr	r3, .L114
 804 0160 0093     		str	r3, [sp]
 805 0162 1E49     		ldr	r1, .L114+8
 806 0164 234A     		ldr	r2, .L114+32
 807 0166 1C48     		ldr	r0, .L114+4
 808 0168 40F22D33 		movw	r3, #813
 809 016c FFF7FEFF 		bl	chprintf.constprop.1
 810              	.LVL90:
 811              	.LBB99:
 812              	.LBB100:
 813              		.loc 3 414 0 discriminator 1
 814 0170 2048     		ldr	r0, .L114+32
 815 0172 FFF7FEFF 		bl	chSysHalt
 816              	.LVL91:
 817 0176 6068     		ldr	r0, [r4, #4]
 818 0178 A8E7     		b	.L75
 819              	.LVL92:
 820              	.L106:
 821              	.LBE100:
 822              	.LBE99:
 823              		.loc 1 755 0 discriminator 1
 824 017a 164B     		ldr	r3, .L114
 825 017c 0093     		str	r3, [sp]
 826 017e 1749     		ldr	r1, .L114+8
 827 0180 1D4A     		ldr	r2, .L114+36
 828 0182 1548     		ldr	r0, .L114+4
 829 0184 40F2F323 		movw	r3, #755
 830 0188 FFF7FEFF 		bl	chprintf.constprop.1
 831              	.LVL93:
 832              	.LBB101:
 833              	.LBB102:
 834              		.loc 3 414 0 discriminator 1
 835 018c 1A48     		ldr	r0, .L114+36
 836 018e FFF7FEFF 		bl	chSysHalt
 837              	.LVL94:
 838 0192 5DE7     		b	.L60
 839              	.LVL95:
 840              	.L107:
 841              	.LBE102:
 842              	.LBE101:
 843              		.loc 1 756 0 discriminator 1
 844 0194 0F4B     		ldr	r3, .L114
 845 0196 0093     		str	r3, [sp]
 846 0198 1049     		ldr	r1, .L114+8
 847 019a 184A     		ldr	r2, .L114+40
 848 019c 0E48     		ldr	r0, .L114+4
 849 019e 4FF43D73 		mov	r3, #756
 850 01a2 FFF7FEFF 		bl	chprintf.constprop.1
ARM GAS  C:\Users\jo\AppData\Local\Temp\ccLDsGlj.s 			page 16


 851              	.LVL96:
 852              	.LBB103:
 853              	.LBB104:
 854              		.loc 3 414 0 discriminator 1
 855 01a6 1548     		ldr	r0, .L114+40
 856 01a8 FFF7FEFF 		bl	chSysHalt
 857              	.LVL97:
 858 01ac 636A     		ldr	r3, [r4, #36]
 859 01ae 53E7     		b	.L61
 860              	.LVL98:
 861              	.L105:
 862              	.LBE104:
 863              	.LBE103:
 864              		.loc 1 752 0 discriminator 1
 865 01b0 084B     		ldr	r3, .L114
 866 01b2 0093     		str	r3, [sp]
 867 01b4 0949     		ldr	r1, .L114+8
 868 01b6 124A     		ldr	r2, .L114+44
 869 01b8 0748     		ldr	r0, .L114+4
 870              	.LVL99:
 871 01ba 4FF43C73 		mov	r3, #752
 872 01be FFF7FEFF 		bl	chprintf.constprop.1
 873              	.LVL100:
 874              	.LBB105:
 875              	.LBB106:
 876              		.loc 3 414 0 discriminator 1
 877 01c2 0F48     		ldr	r0, .L114+44
 878 01c4 FFF7FEFF 		bl	chSysHalt
 879              	.LVL101:
 880 01c8 20E7     		b	.L57
 881              	.LVL102:
 882              	.L109:
 883              	.LBE106:
 884              	.LBE105:
 885              		.loc 1 769 0
 886 01ca 3946     		mov	r1, r7
 887              	.LVL103:
 888 01cc FFF7FEFF 		bl	tcp_accept
 889              	.LVL104:
 890 01d0 6068     		ldr	r0, [r4, #4]
 891 01d2 59E7     		b	.L66
 892              	.L115:
 893              		.align	2
 894              	.L114:
 895 01d4 4C000000 		.word	.LC2
 896 01d8 00000000 		.word	itm_port
 897 01dc 00000000 		.word	.LC0
 898 01e0 CC000000 		.word	.LC6
 899 01e4 EC000000 		.word	.LC7
 900 01e8 00000000 		.word	sent_tcp
 901 01ec 00000000 		.word	poll_tcp
 902 01f0 00000000 		.word	err_tcp
 903 01f4 40010000 		.word	.LC10
 904 01f8 10010000 		.word	.LC8
 905 01fc 24010000 		.word	.LC9
 906 0200 BC000000 		.word	.LC5
 907              		.cfi_endproc
ARM GAS  C:\Users\jo\AppData\Local\Temp\ccLDsGlj.s 			page 17


 908              	.LFE269:
 909              		.size	do_close_internal, .-do_close_internal
 910 0204 AFF30080 		.section	.text.do_writemore,"ax",%progbits
 910      AFF30080 
 910      AFF30080 
 911              		.align	2
 912              		.p2align 4,,15
 913              		.thumb
 914              		.thumb_func
 915              		.type	do_writemore, %function
 916              	do_writemore:
 917              	.LFB278:
 918              		.loc 1 1209 0
 919              		.cfi_startproc
 920              		@ args = 0, pretend = 0, frame = 0
 921              		@ frame_needed = 0, uses_anonymous_args = 0
 922              	.LVL105:
 923 0000 2DE9F043 		push	{r4, r5, r6, r7, r8, r9, lr}
 924              		.cfi_def_cfa_offset 28
 925              		.cfi_offset 4, -28
 926              		.cfi_offset 5, -24
 927              		.cfi_offset 6, -20
 928              		.cfi_offset 7, -16
 929              		.cfi_offset 8, -12
 930              		.cfi_offset 9, -8
 931              		.cfi_offset 14, -4
 932              		.loc 1 1215 0
 933 0004 037F     		ldrb	r3, [r0, #28]	@ zero_extendqisi2
 934 0006 13F0020F 		tst	r3, #2
 935 000a 436A     		ldr	r3, [r0, #36]
 936              		.loc 1 1216 0
 937 000c 0CBF     		ite	eq
 938 000e 1E7C     		ldrbeq	r6, [r3, #16]	@ zero_extendqisi2
 939 0010 1E7C     		ldrbne	r6, [r3, #16]	@ zero_extendqisi2
 940              		.loc 1 1220 0
 941 0012 4378     		ldrb	r3, [r0, #1]	@ zero_extendqisi2
 942              		.loc 1 1215 0
 943 0014 14BF     		ite	ne
 944 0016 4FF00108 		movne	r8, #1
 945 001a C6F38008 		ubfxeq	r8, r6, #2, #1
 946              	.LVL106:
 947              		.loc 1 1220 0
 948 001e 012B     		cmp	r3, #1
 949              		.loc 1 1209 0
 950 0020 83B0     		sub	sp, sp, #12
 951              		.cfi_def_cfa_offset 40
 952              		.loc 1 1209 0
 953 0022 0446     		mov	r4, r0
 954              		.loc 1 1220 0
 955 0024 0FD0     		beq	.L119
 956              		.loc 1 1220 0 is_stmt 0 discriminator 1
 957 0026 6E4D     		ldr	r5, .L169
 958 0028 6E49     		ldr	r1, .L169+4
 959 002a 6F4A     		ldr	r2, .L169+8
 960 002c 0095     		str	r5, [sp]
 961 002e 40F2C443 		movw	r3, #1220
 962 0032 6E48     		ldr	r0, .L169+12
ARM GAS  C:\Users\jo\AppData\Local\Temp\ccLDsGlj.s 			page 18


 963              	.LVL107:
 964 0034 FFF7FEFF 		bl	chprintf.constprop.1
 965              	.LVL108:
 966              	.LBB107:
 967              	.LBB108:
 968              		.loc 3 414 0 is_stmt 1 discriminator 1
 969 0038 6B48     		ldr	r0, .L169+8
 970 003a FFF7FEFF 		bl	chSysHalt
 971              	.LVL109:
 972              	.LBE108:
 973              	.LBE107:
 974              		.loc 1 1221 0 discriminator 1
 975 003e 636A     		ldr	r3, [r4, #36]
 976 0040 002B     		cmp	r3, #0
 977 0042 00F0A080 		beq	.L162
 978              	.LVL110:
 979              	.L119:
 980              		.loc 1 1222 0
 981 0046 6368     		ldr	r3, [r4, #4]
 982 0048 002B     		cmp	r3, #0
 983 004a 00F0AE80 		beq	.L163
 984              	.L120:
 985              		.loc 1 1223 0
 986 004e 616A     		ldr	r1, [r4, #36]
 987 0050 236A     		ldr	r3, [r4, #32]
 988 0052 CA68     		ldr	r2, [r1, #12]
 989 0054 9342     		cmp	r3, r2
 990 0056 54D2     		bcs	.L164
 991              	.L121:
 992              		.loc 1 1253 0
 993 0058 6068     		ldr	r0, [r4, #4]
 994              		.loc 1 1242 0
 995 005a 8F68     		ldr	r7, [r1, #8]
 996              		.loc 1 1253 0
 997 005c B0F86690 		ldrh	r9, [r0, #102]
 998              		.loc 1 1243 0
 999 0060 D51A     		subs	r5, r2, r3
 1000              		.loc 1 1244 0
 1001 0062 B5F5803F 		cmp	r5, #65536
 1002              		.loc 1 1245 0
 1003 0066 2ABF     		itet	cs
 1004 0068 4FF6FF75 		movwcs	r5, #65535
 1005              		.loc 1 1251 0
 1006 006c ADB2     		uxthcc	r5, r5
 1007              		.loc 1 1249 0
 1008 006e 46F00206 		orrcs	r6, r6, #2
 1009              	.LVL111:
 1010              		.loc 1 1254 0
 1011 0072 4D45     		cmp	r5, r9
 1012              		.loc 1 1242 0
 1013 0074 1F44     		add	r7, r7, r3
 1014              	.LVL112:
 1015              		.loc 1 1254 0
 1016 0076 33D9     		bls	.L124
 1017              	.LVL113:
 1018              		.loc 1 1257 0
 1019 0078 B8F1000F 		cmp	r8, #0
ARM GAS  C:\Users\jo\AppData\Local\Temp\ccLDsGlj.s 			page 19


 1020 007c 2DD0     		beq	.L125
 1021              		.loc 1 1258 0
 1022 007e B9F1000F 		cmp	r9, #0
 1023 0082 2CD1     		bne	.L160
 1024              	.LVL114:
 1025              		.loc 1 1274 0
 1026 0084 002A     		cmp	r2, #0
 1027 0086 40F09D80 		bne	.L144
 1028              		.loc 1 1283 0
 1029 008a A36A     		ldr	r3, [r4, #40]
 1030              		.loc 1 1259 0
 1031 008c F926     		movs	r6, #249
 1032              	.LVL115:
 1033              		.loc 1 1283 0
 1034 008e 002B     		cmp	r3, #0
 1035 0090 67D0     		beq	.L134
 1036 0092 1546     		mov	r5, r2
 1037 0094 2046     		mov	r0, r4
 1038 0096 0321     		movs	r1, #3
 1039 0098 2A46     		mov	r2, r5
 1040 009a 9847     		blx	r3
 1041              	.LVL116:
 1042              	.L132:
 1043              		.loc 1 1287 0
 1044 009c 002E     		cmp	r6, #0
 1045 009e 60D1     		bne	.L134
 1046              		.loc 1 1288 0
 1047 00a0 236A     		ldr	r3, [r4, #32]
 1048              		.loc 1 1289 0
 1049 00a2 626A     		ldr	r2, [r4, #36]
 1050              		.loc 1 1288 0
 1051 00a4 1D44     		add	r5, r5, r3
 1052              	.LVL117:
 1053 00a6 2562     		str	r5, [r4, #32]
 1054              		.loc 1 1289 0
 1055 00a8 D368     		ldr	r3, [r2, #12]
 1056 00aa 9D42     		cmp	r5, r3
 1057 00ac 02D0     		beq	.L135
 1058              		.loc 1 1289 0 is_stmt 0 discriminator 1
 1059 00ae B8F1000F 		cmp	r8, #0
 1060 00b2 5CD0     		beq	.L136
 1061              	.L135:
 1062              		.loc 1 1291 0 is_stmt 1
 1063 00b4 D560     		str	r5, [r2, #12]
 1064              	.LVL118:
 1065              		.loc 1 1294 0
 1066 00b6 0023     		movs	r3, #0
 1067              		.loc 1 1296 0
 1068 00b8 6068     		ldr	r0, [r4, #4]
 1069              		.loc 1 1294 0
 1070 00ba 2362     		str	r3, [r4, #32]
 1071              		.loc 1 1296 0
 1072 00bc FFF7FEFF 		bl	tcp_output
 1073              	.LVL119:
 1074              	.L137:
 1075              		.loc 1 1318 0
 1076 00c0 626A     		ldr	r2, [r4, #36]
ARM GAS  C:\Users\jo\AppData\Local\Temp\ccLDsGlj.s 			page 20


 1077              		.loc 1 1319 0
 1078 00c2 0023     		movs	r3, #0
 1079              		.loc 1 1318 0
 1080 00c4 1671     		strb	r6, [r2, #4]
 1081              		.loc 1 1325 0
 1082 00c6 04F10C00 		add	r0, r4, #12
 1083              		.loc 1 1319 0
 1084 00ca 6362     		str	r3, [r4, #36]
 1085              		.loc 1 1320 0
 1086 00cc 6370     		strb	r3, [r4, #1]
 1087              		.loc 1 1325 0
 1088 00ce FFF7FEFF 		bl	sys_sem_signal
 1089              	.LVL120:
 1090              		.loc 1 1333 0
 1091 00d2 0020     		movs	r0, #0
 1092 00d4 03B0     		add	sp, sp, #12
 1093              		.cfi_remember_state
 1094              		.cfi_def_cfa_offset 28
 1095              		@ sp needed
 1096 00d6 BDE8F083 		pop	{r4, r5, r6, r7, r8, r9, pc}
 1097              	.LVL121:
 1098              	.L125:
 1099              		.cfi_restore_state
 1100              		.loc 1 1266 0
 1101 00da 46F00206 		orr	r6, r6, #2
 1102              	.LVL122:
 1103              	.L160:
 1104 00de 4D46     		mov	r5, r9
 1105              	.LVL123:
 1106              	.L124:
 1107              		.loc 1 1269 0
 1108 00e0 2B44     		add	r3, r3, r5
 1109 00e2 9342     		cmp	r3, r2
 1110 00e4 1DD8     		bhi	.L165
 1111              	.L127:
 1112              		.loc 1 1270 0
 1113 00e6 3346     		mov	r3, r6
 1114 00e8 3946     		mov	r1, r7
 1115 00ea 2A46     		mov	r2, r5
 1116 00ec FFF7FEFF 		bl	tcp_write
 1117              	.LVL124:
 1118              		.loc 1 1272 0
 1119 00f0 431C     		adds	r3, r0, #1
 1120 00f2 DBB2     		uxtb	r3, r3
 1121 00f4 012B     		cmp	r3, #1
 1122              		.loc 1 1270 0
 1123 00f6 0646     		mov	r6, r0
 1124              	.LVL125:
 1125              		.loc 1 1272 0
 1126 00f8 21D9     		bls	.L166
 1127              	.LVL126:
 1128              	.L138:
 1129              		.loc 1 1312 0
 1130 00fa 636A     		ldr	r3, [r4, #36]
 1131 00fc 0022     		movs	r2, #0
 1132 00fe DA60     		str	r2, [r3, #12]
 1133 0100 DEE7     		b	.L137
ARM GAS  C:\Users\jo\AppData\Local\Temp\ccLDsGlj.s 			page 21


 1134              	.LVL127:
 1135              	.L164:
 1136              		.loc 1 1223 0 discriminator 1
 1137 0102 374B     		ldr	r3, .L169
 1138 0104 3749     		ldr	r1, .L169+4
 1139 0106 3A4A     		ldr	r2, .L169+16
 1140 0108 0093     		str	r3, [sp]
 1141 010a 3848     		ldr	r0, .L169+12
 1142 010c 4FF49963 		mov	r3, #1224
 1143 0110 FFF7FEFF 		bl	chprintf.constprop.1
 1144              	.LVL128:
 1145              	.LBB109:
 1146              	.LBB110:
 1147              		.loc 3 414 0 discriminator 1
 1148 0114 3648     		ldr	r0, .L169+16
 1149 0116 FFF7FEFF 		bl	chSysHalt
 1150              	.LVL129:
 1151 011a 616A     		ldr	r1, [r4, #36]
 1152 011c 236A     		ldr	r3, [r4, #32]
 1153 011e CA68     		ldr	r2, [r1, #12]
 1154 0120 9AE7     		b	.L121
 1155              	.LVL130:
 1156              	.L165:
 1157              	.LBE110:
 1158              	.LBE109:
 1159              		.loc 1 1269 0 discriminator 1
 1160 0122 2F4B     		ldr	r3, .L169
 1161 0124 0093     		str	r3, [sp]
 1162 0126 2F49     		ldr	r1, .L169+4
 1163 0128 324A     		ldr	r2, .L169+20
 1164 012a 3048     		ldr	r0, .L169+12
 1165 012c 40F2F543 		movw	r3, #1269
 1166 0130 FFF7FEFF 		bl	chprintf.constprop.1
 1167              	.LVL131:
 1168              	.LBB111:
 1169              	.LBB112:
 1170              		.loc 3 414 0 discriminator 1
 1171 0134 2F48     		ldr	r0, .L169+20
 1172 0136 FFF7FEFF 		bl	chSysHalt
 1173              	.LVL132:
 1174 013a 6068     		ldr	r0, [r4, #4]
 1175 013c D3E7     		b	.L127
 1176              	.LVL133:
 1177              	.L166:
 1178              	.L129:
 1179              	.LBE112:
 1180              	.LBE111:
 1181              		.loc 1 1274 0
 1182 013e B8F1000F 		cmp	r8, #0
 1183 0142 2CD1     		bne	.L167
 1184              	.L130:
 1185              		.loc 1 1279 0
 1186 0144 6368     		ldr	r3, [r4, #4]
 1187 0146 B3F86610 		ldrh	r1, [r3, #102]
 1188 014a 40F2B452 		movw	r2, #1460
 1189 014e 9142     		cmp	r1, r2
 1190 0150 14D8     		bhi	.L168
ARM GAS  C:\Users\jo\AppData\Local\Temp\ccLDsGlj.s 			page 22


 1191              	.L133:
 1192              		.loc 1 1283 0
 1193 0152 A36A     		ldr	r3, [r4, #40]
 1194 0154 002B     		cmp	r3, #0
 1195 0156 A1D0     		beq	.L132
 1196 0158 2046     		mov	r0, r4
 1197 015a 0321     		movs	r1, #3
 1198 015c 2A46     		mov	r2, r5
 1199 015e 9847     		blx	r3
 1200              	.LVL134:
 1201 0160 9CE7     		b	.L132
 1202              	.LVL135:
 1203              	.L134:
 1204              		.loc 1 1297 0
 1205 0162 73B2     		sxtb	r3, r6
 1206 0164 0133     		adds	r3, r3, #1
 1207 0166 C8D1     		bne	.L138
 1208              		.loc 1 1297 0 is_stmt 0 discriminator 1
 1209 0168 B8F1000F 		cmp	r8, #0
 1210 016c C5D1     		bne	.L138
 1211              	.L136:
 1212              		.loc 1 1296 0 is_stmt 1
 1213 016e 6068     		ldr	r0, [r4, #4]
 1214 0170 FFF7FEFF 		bl	tcp_output
 1215              	.LVL136:
 1216              		.loc 1 1333 0
 1217 0174 0020     		movs	r0, #0
 1218 0176 03B0     		add	sp, sp, #12
 1219              		.cfi_remember_state
 1220              		.cfi_def_cfa_offset 28
 1221              		@ sp needed
 1222 0178 BDE8F083 		pop	{r4, r5, r6, r7, r8, r9, pc}
 1223              	.LVL137:
 1224              	.L168:
 1225              		.cfi_restore_state
 1226              		.loc 1 1279 0 discriminator 1
 1227 017c B3F86830 		ldrh	r3, [r3, #104]
 1228 0180 032B     		cmp	r3, #3
 1229 0182 8BD9     		bls	.L132
 1230 0184 E5E7     		b	.L133
 1231              	.LVL138:
 1232              	.L162:
 1233              		.loc 1 1221 0 discriminator 1
 1234 0186 0095     		str	r5, [sp]
 1235 0188 1649     		ldr	r1, .L169+4
 1236 018a 1B4A     		ldr	r2, .L169+24
 1237 018c 1748     		ldr	r0, .L169+12
 1238 018e 40F2C543 		movw	r3, #1221
 1239 0192 FFF7FEFF 		bl	chprintf.constprop.1
 1240              	.LVL139:
 1241              	.LBB113:
 1242              	.LBB114:
 1243              		.loc 3 414 0 discriminator 1
 1244 0196 1848     		ldr	r0, .L169+24
 1245 0198 FFF7FEFF 		bl	chSysHalt
 1246              	.LVL140:
 1247 019c 53E7     		b	.L119
ARM GAS  C:\Users\jo\AppData\Local\Temp\ccLDsGlj.s 			page 23


 1248              	.LVL141:
 1249              	.L167:
 1250 019e 636A     		ldr	r3, [r4, #36]
 1251              	.LBE114:
 1252              	.LBE113:
 1253              		.loc 1 1274 0
 1254 01a0 DB68     		ldr	r3, [r3, #12]
 1255 01a2 9D42     		cmp	r5, r3
 1256 01a4 CED2     		bcs	.L130
 1257 01a6 A946     		mov	r9, r5
 1258              	.LVL142:
 1259 01a8 0DE0     		b	.L140
 1260              	.LVL143:
 1261              	.L163:
 1262              		.loc 1 1222 0 discriminator 1
 1263 01aa 0D4B     		ldr	r3, .L169
 1264 01ac 0093     		str	r3, [sp]
 1265 01ae 0D49     		ldr	r1, .L169+4
 1266 01b0 124A     		ldr	r2, .L169+28
 1267 01b2 0E48     		ldr	r0, .L169+12
 1268 01b4 40F2C643 		movw	r3, #1222
 1269 01b8 FFF7FEFF 		bl	chprintf.constprop.1
 1270              	.LVL144:
 1271              	.LBB115:
 1272              	.LBB116:
 1273              		.loc 3 414 0 discriminator 1
 1274 01bc 0F48     		ldr	r0, .L169+28
 1275 01be FFF7FEFF 		bl	chSysHalt
 1276              	.LVL145:
 1277 01c2 44E7     		b	.L120
 1278              	.LVL146:
 1279              	.L144:
 1280              	.LBE116:
 1281              	.LBE115:
 1282              		.loc 1 1259 0
 1283 01c4 F926     		movs	r6, #249
 1284              	.LVL147:
 1285              	.L140:
 1286              		.loc 1 1277 0
 1287 01c6 A36A     		ldr	r3, [r4, #40]
 1288 01c8 1BB1     		cbz	r3, .L131
 1289              		.loc 1 1277 0 is_stmt 0 discriminator 1
 1290 01ca 2046     		mov	r0, r4
 1291 01cc 0321     		movs	r1, #3
 1292 01ce 4A46     		mov	r2, r9
 1293 01d0 9847     		blx	r3
 1294              	.LVL148:
 1295              	.L131:
 1296              		.loc 1 1278 0 is_stmt 1
 1297 01d2 237F     		ldrb	r3, [r4, #28]	@ zero_extendqisi2
 1298 01d4 43F01003 		orr	r3, r3, #16
 1299 01d8 4D46     		mov	r5, r9
 1300 01da 2377     		strb	r3, [r4, #28]
 1301 01dc 5EE7     		b	.L132
 1302              	.L170:
 1303 01de 00BF     		.align	2
 1304              	.L169:
ARM GAS  C:\Users\jo\AppData\Local\Temp\ccLDsGlj.s 			page 24


 1305 01e0 4C000000 		.word	.LC2
 1306 01e4 00000000 		.word	.LC0
 1307 01e8 64010000 		.word	.LC11
 1308 01ec 00000000 		.word	itm_port
 1309 01f0 9C010000 		.word	.LC13
 1310 01f4 D0010000 		.word	.LC14
 1311 01f8 24010000 		.word	.LC9
 1312 01fc 84010000 		.word	.LC12
 1313              		.cfi_endproc
 1314              	.LFE278:
 1315              		.size	do_writemore, .-do_writemore
 1316              		.section	.text.poll_tcp,"ax",%progbits
 1317              		.align	2
 1318              		.p2align 4,,15
 1319              		.thumb
 1320              		.thumb_func
 1321              		.type	poll_tcp, %function
 1322              	poll_tcp:
 1323              	.LFB259:
 1324              		.loc 1 278 0
 1325              		.cfi_startproc
 1326              		@ args = 0, pretend = 0, frame = 0
 1327              		@ frame_needed = 0, uses_anonymous_args = 0
 1328              	.LVL149:
 1329 0000 30B5     		push	{r4, r5, lr}
 1330              		.cfi_def_cfa_offset 12
 1331              		.cfi_offset 4, -12
 1332              		.cfi_offset 5, -8
 1333              		.cfi_offset 14, -4
 1334              		.loc 1 282 0
 1335 0002 0446     		mov	r4, r0
 1336              		.loc 1 278 0
 1337 0004 83B0     		sub	sp, sp, #12
 1338              		.cfi_def_cfa_offset 24
 1339              		.loc 1 282 0
 1340 0006 38B3     		cbz	r0, .L185
 1341              	.LVL150:
 1342              	.L172:
 1343              		.loc 1 284 0
 1344 0008 6378     		ldrb	r3, [r4, #1]	@ zero_extendqisi2
 1345 000a 012B     		cmp	r3, #1
 1346 000c 1CD0     		beq	.L186
 1347              		.loc 1 286 0
 1348 000e 042B     		cmp	r3, #4
 1349 0010 1ED0     		beq	.L187
 1350              	.L174:
 1351              		.loc 1 292 0
 1352 0012 237F     		ldrb	r3, [r4, #28]	@ zero_extendqisi2
 1353 0014 DA06     		lsls	r2, r3, #27
 1354 0016 14D5     		bpl	.L176
 1355              		.loc 1 295 0
 1356 0018 6268     		ldr	r2, [r4, #4]
 1357 001a 92B1     		cbz	r2, .L176
 1358              		.loc 1 295 0 is_stmt 0 discriminator 1
 1359 001c B2F86600 		ldrh	r0, [r2, #102]
 1360 0020 40F2B451 		movw	r1, #1460
 1361 0024 8842     		cmp	r0, r1
ARM GAS  C:\Users\jo\AppData\Local\Temp\ccLDsGlj.s 			page 25


 1362 0026 0CD9     		bls	.L176
 1363              		.loc 1 295 0 discriminator 2
 1364 0028 B2F86820 		ldrh	r2, [r2, #104]
 1365 002c 032A     		cmp	r2, #3
 1366 002e 08D8     		bhi	.L176
 1367              		.loc 1 298 0 is_stmt 1
 1368 0030 A56A     		ldr	r5, [r4, #40]
 1369              		.loc 1 297 0
 1370 0032 23F01003 		bic	r3, r3, #16
 1371 0036 2377     		strb	r3, [r4, #28]
 1372              		.loc 1 298 0
 1373 0038 1DB1     		cbz	r5, .L176
 1374              		.loc 1 298 0 is_stmt 0 discriminator 1
 1375 003a 2046     		mov	r0, r4
 1376 003c 0221     		movs	r1, #2
 1377 003e 0022     		movs	r2, #0
 1378 0040 A847     		blx	r5
 1379              	.LVL151:
 1380              	.L176:
 1381              		.loc 1 303 0 is_stmt 1
 1382 0042 0020     		movs	r0, #0
 1383 0044 03B0     		add	sp, sp, #12
 1384              		.cfi_remember_state
 1385              		.cfi_def_cfa_offset 12
 1386              		@ sp needed
 1387 0046 30BD     		pop	{r4, r5, pc}
 1388              	.LVL152:
 1389              	.L186:
 1390              		.cfi_restore_state
 1391              		.loc 1 285 0
 1392 0048 2046     		mov	r0, r4
 1393 004a FFF7FEFF 		bl	do_writemore
 1394              	.LVL153:
 1395 004e E0E7     		b	.L174
 1396              	.L187:
 1397              		.loc 1 287 0
 1398 0050 2046     		mov	r0, r4
 1399 0052 FFF7FEFF 		bl	do_close_internal
 1400              	.LVL154:
 1401 0056 DCE7     		b	.L174
 1402              	.LVL155:
 1403              	.L185:
 1404              		.loc 1 282 0 discriminator 1
 1405 0058 064B     		ldr	r3, .L188
 1406 005a 0093     		str	r3, [sp]
 1407 005c 0649     		ldr	r1, .L188+4
 1408              	.LVL156:
 1409 005e 074A     		ldr	r2, .L188+8
 1410 0060 0748     		ldr	r0, .L188+12
 1411              	.LVL157:
 1412 0062 4FF48D73 		mov	r3, #282
 1413 0066 FFF7FEFF 		bl	chprintf.constprop.1
 1414              	.LVL158:
 1415              	.LBB117:
 1416              	.LBB118:
 1417              		.loc 3 414 0 discriminator 1
 1418 006a 0448     		ldr	r0, .L188+8
ARM GAS  C:\Users\jo\AppData\Local\Temp\ccLDsGlj.s 			page 26


 1419 006c FFF7FEFF 		bl	chSysHalt
 1420              	.LVL159:
 1421 0070 CAE7     		b	.L172
 1422              	.L189:
 1423 0072 00BF     		.align	2
 1424              	.L188:
 1425 0074 4C000000 		.word	.LC2
 1426 0078 00000000 		.word	.LC0
 1427 007c F0010000 		.word	.LC15
 1428 0080 00000000 		.word	itm_port
 1429              	.LBE118:
 1430              	.LBE117:
 1431              		.cfi_endproc
 1432              	.LFE259:
 1433              		.size	poll_tcp, .-poll_tcp
 1434 0084 AFF30080 		.section	.text.sent_tcp,"ax",%progbits
 1434      AFF30080 
 1434      AFF30080 
 1435              		.align	2
 1436              		.p2align 4,,15
 1437              		.thumb
 1438              		.thumb_func
 1439              		.type	sent_tcp, %function
 1440              	sent_tcp:
 1441              	.LFB260:
 1442              		.loc 1 314 0
 1443              		.cfi_startproc
 1444              		@ args = 0, pretend = 0, frame = 0
 1445              		@ frame_needed = 0, uses_anonymous_args = 0
 1446              	.LVL160:
 1447 0000 70B5     		push	{r4, r5, r6, lr}
 1448              		.cfi_def_cfa_offset 16
 1449              		.cfi_offset 4, -16
 1450              		.cfi_offset 5, -12
 1451              		.cfi_offset 6, -8
 1452              		.cfi_offset 14, -4
 1453 0002 1546     		mov	r5, r2
 1454 0004 82B0     		sub	sp, sp, #8
 1455              		.cfi_def_cfa_offset 24
 1456              		.loc 1 318 0
 1457 0006 0446     		mov	r4, r0
 1458 0008 28B3     		cbz	r0, .L201
 1459              	.LVL161:
 1460              	.L191:
 1461              		.loc 1 320 0
 1462 000a 6378     		ldrb	r3, [r4, #1]	@ zero_extendqisi2
 1463 000c 012B     		cmp	r3, #1
 1464 000e 1AD0     		beq	.L202
 1465              		.loc 1 322 0
 1466 0010 042B     		cmp	r3, #4
 1467 0012 1CD0     		beq	.L203
 1468              	.L193:
 1469              		.loc 1 329 0
 1470 0014 6368     		ldr	r3, [r4, #4]
 1471 0016 9BB1     		cbz	r3, .L195
 1472              		.loc 1 329 0 is_stmt 0 discriminator 1
 1473 0018 B3F86610 		ldrh	r1, [r3, #102]
ARM GAS  C:\Users\jo\AppData\Local\Temp\ccLDsGlj.s 			page 27


 1474 001c 40F2B452 		movw	r2, #1460
 1475 0020 9142     		cmp	r1, r2
 1476 0022 0DD9     		bls	.L195
 1477              		.loc 1 329 0 discriminator 2
 1478 0024 B3F86830 		ldrh	r3, [r3, #104]
 1479 0028 032B     		cmp	r3, #3
 1480 002a 09D8     		bhi	.L195
 1481              	.LVL162:
 1482              	.LBB125:
 1483              	.LBB126:
 1484              		.loc 1 331 0 is_stmt 1
 1485 002c 237F     		ldrb	r3, [r4, #28]	@ zero_extendqisi2
 1486              		.loc 1 332 0
 1487 002e A66A     		ldr	r6, [r4, #40]
 1488              		.loc 1 331 0
 1489 0030 23F01003 		bic	r3, r3, #16
 1490 0034 2377     		strb	r3, [r4, #28]
 1491              		.loc 1 332 0
 1492 0036 1EB1     		cbz	r6, .L195
 1493 0038 2046     		mov	r0, r4
 1494 003a 2A46     		mov	r2, r5
 1495 003c 0221     		movs	r1, #2
 1496 003e B047     		blx	r6
 1497              	.LVL163:
 1498              	.L195:
 1499              	.LBE126:
 1500              	.LBE125:
 1501              		.loc 1 337 0
 1502 0040 0020     		movs	r0, #0
 1503 0042 02B0     		add	sp, sp, #8
 1504              		.cfi_remember_state
 1505              		.cfi_def_cfa_offset 16
 1506              		@ sp needed
 1507 0044 70BD     		pop	{r4, r5, r6, pc}
 1508              	.LVL164:
 1509              	.L202:
 1510              		.cfi_restore_state
 1511              		.loc 1 321 0
 1512 0046 2046     		mov	r0, r4
 1513 0048 FFF7FEFF 		bl	do_writemore
 1514              	.LVL165:
 1515 004c E2E7     		b	.L193
 1516              	.L203:
 1517              		.loc 1 323 0
 1518 004e 2046     		mov	r0, r4
 1519 0050 FFF7FEFF 		bl	do_close_internal
 1520              	.LVL166:
 1521 0054 DEE7     		b	.L193
 1522              	.LVL167:
 1523              	.L201:
 1524              		.loc 1 318 0 discriminator 1
 1525 0056 064B     		ldr	r3, .L204
 1526 0058 0093     		str	r3, [sp]
 1527 005a 0649     		ldr	r1, .L204+4
 1528              	.LVL168:
 1529 005c 064A     		ldr	r2, .L204+8
 1530              	.LVL169:
ARM GAS  C:\Users\jo\AppData\Local\Temp\ccLDsGlj.s 			page 28


 1531 005e 0748     		ldr	r0, .L204+12
 1532              	.LVL170:
 1533 0060 4FF49F73 		mov	r3, #318
 1534 0064 FFF7FEFF 		bl	chprintf.constprop.1
 1535              	.LVL171:
 1536              	.LBB127:
 1537              	.LBB128:
 1538              		.loc 3 414 0 discriminator 1
 1539 0068 0348     		ldr	r0, .L204+8
 1540 006a FFF7FEFF 		bl	chSysHalt
 1541              	.LVL172:
 1542 006e CCE7     		b	.L191
 1543              	.L205:
 1544              		.align	2
 1545              	.L204:
 1546 0070 4C000000 		.word	.LC2
 1547 0074 00000000 		.word	.LC0
 1548 0078 F0010000 		.word	.LC15
 1549 007c 00000000 		.word	itm_port
 1550              	.LBE128:
 1551              	.LBE127:
 1552              		.cfi_endproc
 1553              	.LFE260:
 1554              		.size	sent_tcp, .-sent_tcp
 1555              		.section	.text.do_connected,"ax",%progbits
 1556              		.align	2
 1557              		.p2align 4,,15
 1558              		.thumb
 1559              		.thumb_func
 1560              		.type	do_connected, %function
 1561              	do_connected:
 1562              	.LFB272:
 1563              		.loc 1 938 0
 1564              		.cfi_startproc
 1565              		@ args = 0, pretend = 0, frame = 0
 1566              		@ frame_needed = 0, uses_anonymous_args = 0
 1567              	.LVL173:
 1568 0000 30B5     		push	{r4, r5, lr}
 1569              		.cfi_def_cfa_offset 12
 1570              		.cfi_offset 4, -12
 1571              		.cfi_offset 5, -8
 1572              		.cfi_offset 14, -4
 1573              		.loc 1 946 0
 1574 0002 0446     		mov	r4, r0
 1575              		.loc 1 938 0
 1576 0004 83B0     		sub	sp, sp, #12
 1577              		.cfi_def_cfa_offset 24
 1578              		.loc 1 946 0
 1579 0006 0028     		cmp	r0, #0
 1580 0008 54D0     		beq	.L219
 1581              		.loc 1 950 0
 1582 000a 4378     		ldrb	r3, [r0, #1]	@ zero_extendqisi2
 1583 000c 032B     		cmp	r3, #3
 1584 000e 1546     		mov	r5, r2
 1585 0010 0BD0     		beq	.L208
 1586              		.loc 1 950 0 is_stmt 0 discriminator 1
 1587 0012 294B     		ldr	r3, .L235
ARM GAS  C:\Users\jo\AppData\Local\Temp\ccLDsGlj.s 			page 29


 1588 0014 0093     		str	r3, [sp]
 1589 0016 2948     		ldr	r0, .L235+4
 1590              	.LVL174:
 1591 0018 2949     		ldr	r1, .L235+8
 1592              	.LVL175:
 1593 001a 2A4A     		ldr	r2, .L235+12
 1594              	.LVL176:
 1595 001c 40F2B633 		movw	r3, #950
 1596 0020 FFF7FEFF 		bl	chprintf.constprop.1
 1597              	.LVL177:
 1598              	.LBB129:
 1599              	.LBB130:
 1600              		.loc 3 414 0 is_stmt 1 discriminator 1
 1601 0024 2748     		ldr	r0, .L235+12
 1602 0026 FFF7FEFF 		bl	chSysHalt
 1603              	.LVL178:
 1604              	.L208:
 1605              	.LBE130:
 1606              	.LBE129:
 1607              		.loc 1 951 0
 1608 002a 636A     		ldr	r3, [r4, #36]
 1609 002c 7BB3     		cbz	r3, .L232
 1610              	.L209:
 1611              		.loc 1 955 0
 1612 002e 1D71     		strb	r5, [r3, #4]
 1613              	.L211:
 1614              		.loc 1 957 0
 1615 0030 2378     		ldrb	r3, [r4]	@ zero_extendqisi2
 1616 0032 102B     		cmp	r3, #16
 1617 0034 25D0     		beq	.L233
 1618              	.L213:
 1619              		.loc 1 960 0
 1620 0036 237F     		ldrb	r3, [r4, #28]	@ zero_extendqisi2
 1621              	.LVL179:
 1622              		.loc 1 962 0
 1623 0038 0021     		movs	r1, #0
 1624              		.loc 1 961 0
 1625 003a 23F00402 		bic	r2, r3, #4
 1626              		.loc 1 960 0
 1627 003e 03F00403 		and	r3, r3, #4
 1628              	.LVL180:
 1629              		.loc 1 961 0
 1630 0042 2277     		strb	r2, [r4, #28]
 1631              	.LVL181:
 1632              		.loc 1 962 0
 1633 0044 6162     		str	r1, [r4, #36]
 1634              		.loc 1 964 0
 1635 0046 03F0FF02 		and	r2, r3, #255
 1636              		.loc 1 963 0
 1637 004a 6170     		strb	r1, [r4, #1]
 1638              		.loc 1 964 0
 1639 004c 63B9     		cbnz	r3, .L234
 1640              		.loc 1 967 0
 1641 004e A36A     		ldr	r3, [r4, #40]
 1642 0050 13B1     		cbz	r3, .L217
 1643 0052 2046     		mov	r0, r4
 1644 0054 0221     		movs	r1, #2
ARM GAS  C:\Users\jo\AppData\Local\Temp\ccLDsGlj.s 			page 30


 1645 0056 9847     		blx	r3
 1646              	.LVL182:
 1647              	.L217:
 1648              		.loc 1 970 0
 1649 0058 04F10C00 		add	r0, r4, #12
 1650 005c FFF7FEFF 		bl	sys_sem_signal
 1651              	.LVL183:
 1652              	.L231:
 1653              		.loc 1 972 0
 1654 0060 0020     		movs	r0, #0
 1655              	.L207:
 1656 0062 40B2     		sxtb	r0, r0
 1657              		.loc 1 973 0
 1658 0064 03B0     		add	sp, sp, #12
 1659              		.cfi_remember_state
 1660              		.cfi_def_cfa_offset 12
 1661              		@ sp needed
 1662 0066 30BD     		pop	{r4, r5, pc}
 1663              	.LVL184:
 1664              	.L234:
 1665              		.cfi_restore_state
 1666              		.loc 1 965 0
 1667 0068 94F90830 		ldrsb	r3, [r4, #8]
 1668 006c 0933     		adds	r3, r3, #9
 1669 006e 00DB     		blt	.L215
 1670              		.loc 1 965 0 is_stmt 0 discriminator 1
 1671 0070 2172     		strb	r1, [r4, #8]
 1672              	.L215:
 1673              		.loc 1 967 0 is_stmt 1
 1674 0072 A36A     		ldr	r3, [r4, #40]
 1675 0074 002B     		cmp	r3, #0
 1676 0076 F3D0     		beq	.L231
 1677 0078 2046     		mov	r0, r4
 1678 007a 0221     		movs	r1, #2
 1679 007c 0022     		movs	r2, #0
 1680 007e 9847     		blx	r3
 1681              	.LVL185:
 1682 0080 EEE7     		b	.L231
 1683              	.L233:
 1684              		.loc 1 957 0 discriminator 1
 1685 0082 002D     		cmp	r5, #0
 1686 0084 D7D1     		bne	.L213
 1687              		.loc 1 958 0
 1688 0086 2046     		mov	r0, r4
 1689 0088 FFF7FEFF 		bl	setup_tcp
 1690              	.LVL186:
 1691 008c D3E7     		b	.L213
 1692              	.L232:
 1693              		.loc 1 951 0 discriminator 1
 1694 008e 237F     		ldrb	r3, [r4, #28]	@ zero_extendqisi2
 1695 0090 5B07     		lsls	r3, r3, #29
 1696 0092 CDD4     		bmi	.L211
 1697              		.loc 1 951 0 is_stmt 0 discriminator 2
 1698 0094 084B     		ldr	r3, .L235
 1699 0096 0093     		str	r3, [sp]
 1700 0098 0949     		ldr	r1, .L235+8
 1701 009a 0B4A     		ldr	r2, .L235+16
ARM GAS  C:\Users\jo\AppData\Local\Temp\ccLDsGlj.s 			page 31


 1702 009c 0748     		ldr	r0, .L235+4
 1703 009e 4FF46E73 		mov	r3, #952
 1704 00a2 FFF7FEFF 		bl	chprintf.constprop.1
 1705              	.LVL187:
 1706              	.LBB131:
 1707              	.LBB132:
 1708              		.loc 3 414 0 is_stmt 1 discriminator 2
 1709 00a6 0848     		ldr	r0, .L235+16
 1710 00a8 FFF7FEFF 		bl	chSysHalt
 1711              	.LVL188:
 1712              	.LBE132:
 1713              	.LBE131:
 1714              		.loc 1 954 0 discriminator 2
 1715 00ac 636A     		ldr	r3, [r4, #36]
 1716 00ae 002B     		cmp	r3, #0
 1717 00b0 BED0     		beq	.L211
 1718 00b2 BCE7     		b	.L209
 1719              	.LVL189:
 1720              	.L219:
 1721              		.loc 1 947 0
 1722 00b4 FA20     		movs	r0, #250
 1723              	.LVL190:
 1724 00b6 D4E7     		b	.L207
 1725              	.L236:
 1726              		.align	2
 1727              	.L235:
 1728 00b8 4C000000 		.word	.LC2
 1729 00bc 00000000 		.word	itm_port
 1730 00c0 00000000 		.word	.LC0
 1731 00c4 00020000 		.word	.LC16
 1732 00c8 20020000 		.word	.LC17
 1733              		.cfi_endproc
 1734              	.LFE272:
 1735              		.size	do_connected, .-do_connected
 1736 00cc AFF30080 		.section	.text.err_tcp,"ax",%progbits
 1737              		.align	2
 1738              		.p2align 4,,15
 1739              		.thumb
 1740              		.thumb_func
 1741              		.type	err_tcp, %function
 1742              	err_tcp:
 1743              	.LFB261:
 1744              		.loc 1 348 0
 1745              		.cfi_startproc
 1746              		@ args = 0, pretend = 0, frame = 0
 1747              		@ frame_needed = 0, uses_anonymous_args = 0
 1748              	.LVL191:
 1749 0000 F0B5     		push	{r4, r5, r6, r7, lr}
 1750              		.cfi_def_cfa_offset 20
 1751              		.cfi_offset 4, -20
 1752              		.cfi_offset 5, -16
 1753              		.cfi_offset 6, -12
 1754              		.cfi_offset 7, -8
 1755              		.cfi_offset 14, -4
 1756 0002 0F46     		mov	r7, r1
 1757 0004 83B0     		sub	sp, sp, #12
 1758              		.cfi_def_cfa_offset 32
ARM GAS  C:\Users\jo\AppData\Local\Temp\ccLDsGlj.s 			page 32


 1759              		.loc 1 354 0
 1760 0006 0446     		mov	r4, r0
 1761 0008 0028     		cmp	r0, #0
 1762 000a 57D0     		beq	.L269
 1763              	.LVL192:
 1764              	.L238:
 1765              		.loc 1 369 0
 1766 000c A36A     		ldr	r3, [r4, #40]
 1767              		.loc 1 364 0
 1768 000e 6678     		ldrb	r6, [r4, #1]	@ zero_extendqisi2
 1769              	.LVL193:
 1770              		.loc 1 360 0
 1771 0010 2772     		strb	r7, [r4, #8]
 1772              		.loc 1 356 0
 1773 0012 0025     		movs	r5, #0
 1774 0014 6560     		str	r5, [r4, #4]
 1775              		.loc 1 365 0
 1776 0016 6570     		strb	r5, [r4, #1]
 1777              		.loc 1 369 0
 1778 0018 7BB1     		cbz	r3, .L241
 1779              		.loc 1 369 0 is_stmt 0 discriminator 1
 1780 001a 2046     		mov	r0, r4
 1781 001c 0421     		movs	r1, #4
 1782 001e 2A46     		mov	r2, r5
 1783 0020 9847     		blx	r3
 1784              	.LVL194:
 1785              		.loc 1 372 0 is_stmt 1 discriminator 1
 1786 0022 A36A     		ldr	r3, [r4, #40]
 1787 0024 4BB1     		cbz	r3, .L241
 1788 0026 2046     		mov	r0, r4
 1789 0028 2946     		mov	r1, r5
 1790 002a 2A46     		mov	r2, r5
 1791 002c 9847     		blx	r3
 1792              	.LVL195:
 1793 002e A36A     		ldr	r3, [r4, #40]
 1794              		.loc 1 373 0 discriminator 1
 1795 0030 1BB1     		cbz	r3, .L241
 1796 0032 2A46     		mov	r2, r5
 1797 0034 2046     		mov	r0, r4
 1798 0036 0221     		movs	r1, #2
 1799 0038 9847     		blx	r3
 1800              	.LVL196:
 1801              	.L241:
 1802              		.loc 1 376 0
 1803 003a 04F11005 		add	r5, r4, #16
 1804 003e 2846     		mov	r0, r5
 1805 0040 FFF7FEFF 		bl	sys_mbox_valid
 1806              	.LVL197:
 1807 0044 0028     		cmp	r0, #0
 1808 0046 34D1     		bne	.L270
 1809              	.L242:
 1810              		.loc 1 381 0
 1811 0048 04F11405 		add	r5, r4, #20
 1812 004c 2846     		mov	r0, r5
 1813 004e FFF7FEFF 		bl	sys_mbox_valid
 1814              	.LVL198:
 1815 0052 48BB     		cbnz	r0, .L271
ARM GAS  C:\Users\jo\AppData\Local\Temp\ccLDsGlj.s 			page 33


 1816              	.L243:
 1817              		.loc 1 386 0
 1818 0054 012E     		cmp	r6, #1
 1819 0056 13D0     		beq	.L244
 1820              		.loc 1 386 0 is_stmt 0 discriminator 2
 1821 0058 033E     		subs	r6, r6, #3
 1822              	.LVL199:
 1823 005a 012E     		cmp	r6, #1
 1824 005c 10D9     		bls	.L244
 1825              		.loc 1 402 0 is_stmt 1
 1826 005e 636A     		ldr	r3, [r4, #36]
 1827 0060 03B3     		cbz	r3, .L237
 1828              		.loc 1 402 0 is_stmt 0 discriminator 1
 1829 0062 244B     		ldr	r3, .L273
 1830 0064 0093     		str	r3, [sp]
 1831 0066 2449     		ldr	r1, .L273+4
 1832 0068 244A     		ldr	r2, .L273+8
 1833 006a 2548     		ldr	r0, .L273+12
 1834 006c 4FF4C973 		mov	r3, #402
 1835 0070 FFF7FEFF 		bl	chprintf.constprop.1
 1836              	.LVL200:
 1837              	.LBB133:
 1838              	.LBB134:
 1839              		.loc 3 414 0 is_stmt 1 discriminator 1
 1840 0074 2148     		ldr	r0, .L273+8
 1841              	.LBE134:
 1842              	.LBE133:
 1843              		.loc 1 404 0 discriminator 1
 1844 0076 03B0     		add	sp, sp, #12
 1845              		.cfi_remember_state
 1846              		.cfi_def_cfa_offset 20
 1847              		@ sp needed
 1848 0078 BDE8F040 		pop	{r4, r5, r6, r7, lr}
 1849              		.cfi_restore 14
 1850              		.cfi_restore 7
 1851              		.cfi_restore 6
 1852              		.cfi_restore 5
 1853              		.cfi_restore 4
 1854              		.cfi_def_cfa_offset 0
 1855              	.LVL201:
 1856              	.LBB136:
 1857              	.LBB135:
 1858              		.loc 3 414 0 discriminator 1
 1859 007c FFF7FEBF 		b	chSysHalt
 1860              	.LVL202:
 1861              	.L244:
 1862              		.cfi_restore_state
 1863              	.LBE135:
 1864              	.LBE136:
 1865              	.LBB137:
 1866              		.loc 1 390 0
 1867 0080 237F     		ldrb	r3, [r4, #28]	@ zero_extendqisi2
 1868              	.LVL203:
 1869              		.loc 1 391 0
 1870 0082 23F00402 		bic	r2, r3, #4
 1871              		.loc 1 393 0
 1872 0086 5B07     		lsls	r3, r3, #29
ARM GAS  C:\Users\jo\AppData\Local\Temp\ccLDsGlj.s 			page 34


 1873              	.LVL204:
 1874              		.loc 1 391 0
 1875 0088 2277     		strb	r2, [r4, #28]
 1876              	.LVL205:
 1877              		.loc 1 393 0
 1878 008a 0BD4     		bmi	.L237
 1879              		.loc 1 395 0
 1880 008c 636A     		ldr	r3, [r4, #36]
 1881 008e 13B3     		cbz	r3, .L272
 1882              	.L248:
 1883              		.loc 1 396 0
 1884 0090 1F71     		strb	r7, [r3, #4]
 1885              		.loc 1 399 0
 1886 0092 04F10C00 		add	r0, r4, #12
 1887              		.loc 1 397 0
 1888 0096 0023     		movs	r3, #0
 1889 0098 6362     		str	r3, [r4, #36]
 1890              	.LBE137:
 1891              		.loc 1 404 0
 1892 009a 03B0     		add	sp, sp, #12
 1893              		.cfi_remember_state
 1894              		.cfi_def_cfa_offset 20
 1895              		@ sp needed
 1896 009c BDE8F040 		pop	{r4, r5, r6, r7, lr}
 1897              		.cfi_restore 14
 1898              		.cfi_restore 7
 1899              		.cfi_restore 6
 1900              		.cfi_restore 5
 1901              		.cfi_restore 4
 1902              		.cfi_def_cfa_offset 0
 1903              	.LVL206:
 1904              	.LBB140:
 1905              		.loc 1 399 0
 1906 00a0 FFF7FEBF 		b	sys_sem_signal
 1907              	.LVL207:
 1908              	.L237:
 1909              		.cfi_restore_state
 1910              	.LBE140:
 1911              		.loc 1 404 0
 1912 00a4 03B0     		add	sp, sp, #12
 1913              		.cfi_remember_state
 1914              		.cfi_def_cfa_offset 20
 1915              		@ sp needed
 1916 00a6 F0BD     		pop	{r4, r5, r6, r7, pc}
 1917              	.LVL208:
 1918              	.L271:
 1919              		.cfi_restore_state
 1920              		.loc 1 383 0
 1921 00a8 2846     		mov	r0, r5
 1922 00aa 0021     		movs	r1, #0
 1923 00ac FFF7FEFF 		bl	sys_mbox_trypost
 1924              	.LVL209:
 1925 00b0 D0E7     		b	.L243
 1926              	.L270:
 1927              		.loc 1 378 0
 1928 00b2 2846     		mov	r0, r5
 1929 00b4 0021     		movs	r1, #0
ARM GAS  C:\Users\jo\AppData\Local\Temp\ccLDsGlj.s 			page 35


 1930 00b6 FFF7FEFF 		bl	sys_mbox_trypost
 1931              	.LVL210:
 1932 00ba C5E7     		b	.L242
 1933              	.LVL211:
 1934              	.L269:
 1935              		.loc 1 354 0 discriminator 1
 1936 00bc 0D4B     		ldr	r3, .L273
 1937 00be 0093     		str	r3, [sp]
 1938 00c0 0D49     		ldr	r1, .L273+4
 1939              	.LVL212:
 1940 00c2 104A     		ldr	r2, .L273+16
 1941 00c4 0E48     		ldr	r0, .L273+12
 1942              	.LVL213:
 1943 00c6 4FF4B173 		mov	r3, #354
 1944 00ca FFF7FEFF 		bl	chprintf.constprop.1
 1945              	.LVL214:
 1946              	.LBB141:
 1947              	.LBB142:
 1948              		.loc 3 414 0 discriminator 1
 1949 00ce 0D48     		ldr	r0, .L273+16
 1950 00d0 FFF7FEFF 		bl	chSysHalt
 1951              	.LVL215:
 1952 00d4 9AE7     		b	.L238
 1953              	.LVL216:
 1954              	.L272:
 1955              	.LBE142:
 1956              	.LBE141:
 1957              	.LBB143:
 1958              		.loc 1 395 0 discriminator 1
 1959 00d6 074B     		ldr	r3, .L273
 1960 00d8 0093     		str	r3, [sp]
 1961 00da 0749     		ldr	r1, .L273+4
 1962 00dc 0A4A     		ldr	r2, .L273+20
 1963 00de 0848     		ldr	r0, .L273+12
 1964 00e0 40F28B13 		movw	r3, #395
 1965 00e4 FFF7FEFF 		bl	chprintf.constprop.1
 1966              	.LVL217:
 1967              	.LBB138:
 1968              	.LBB139:
 1969              		.loc 3 414 0 discriminator 1
 1970 00e8 0748     		ldr	r0, .L273+20
 1971 00ea FFF7FEFF 		bl	chSysHalt
 1972              	.LVL218:
 1973 00ee 636A     		ldr	r3, [r4, #36]
 1974 00f0 CEE7     		b	.L248
 1975              	.L274:
 1976 00f2 00BF     		.align	2
 1977              	.L273:
 1978 00f4 4C000000 		.word	.LC2
 1979 00f8 00000000 		.word	.LC0
 1980 00fc 60020000 		.word	.LC18
 1981 0100 00000000 		.word	itm_port
 1982 0104 F0010000 		.word	.LC15
 1983 0108 24010000 		.word	.LC9
 1984              	.LBE139:
 1985              	.LBE138:
 1986              	.LBE143:
ARM GAS  C:\Users\jo\AppData\Local\Temp\ccLDsGlj.s 			page 36


 1987              		.cfi_endproc
 1988              	.LFE261:
 1989              		.size	err_tcp, .-err_tcp
 1990 010c AFF30080 		.section	.text.recv_udp,"ax",%progbits
 1991              		.align	2
 1992              		.p2align 4,,15
 1993              		.thumb
 1994              		.thumb_func
 1995              		.type	recv_udp, %function
 1996              	recv_udp:
 1997              	.LFB257:
 1998              		.loc 1 146 0
 1999              		.cfi_startproc
 2000              		@ args = 4, pretend = 0, frame = 0
 2001              		@ frame_needed = 0, uses_anonymous_args = 0
 2002              	.LVL219:
 2003 0000 2DE9F043 		push	{r4, r5, r6, r7, r8, r9, lr}
 2004              		.cfi_def_cfa_offset 28
 2005              		.cfi_offset 4, -28
 2006              		.cfi_offset 5, -24
 2007              		.cfi_offset 6, -20
 2008              		.cfi_offset 7, -16
 2009              		.cfi_offset 8, -12
 2010              		.cfi_offset 9, -8
 2011              		.cfi_offset 14, -4
 2012 0004 83B0     		sub	sp, sp, #12
 2013              		.cfi_def_cfa_offset 40
 2014              		.loc 1 146 0
 2015 0006 0446     		mov	r4, r0
 2016 0008 1646     		mov	r6, r2
 2017 000a 1F46     		mov	r7, r3
 2018 000c BDF82890 		ldrh	r9, [sp, #40]
 2019              		.loc 1 155 0
 2020 0010 0D46     		mov	r5, r1
 2021 0012 0029     		cmp	r1, #0
 2022 0014 37D0     		beq	.L290
 2023              	.LVL220:
 2024              	.L276:
 2025              		.loc 1 156 0
 2026 0016 002C     		cmp	r4, #0
 2027 0018 47D0     		beq	.L291
 2028              	.L277:
 2029              	.LVL221:
 2030              		.loc 1 158 0
 2031 001a 6368     		ldr	r3, [r4, #4]
 2032 001c AB42     		cmp	r3, r5
 2033 001e 0AD0     		beq	.L284
 2034              		.loc 1 158 0 is_stmt 0 discriminator 1
 2035 0020 294B     		ldr	r3, .L293
 2036 0022 0093     		str	r3, [sp]
 2037 0024 2948     		ldr	r0, .L293+4
 2038 0026 2A49     		ldr	r1, .L293+8
 2039 0028 2A4A     		ldr	r2, .L293+12
 2040 002a 9E23     		movs	r3, #158
 2041 002c FFF7FEFF 		bl	chprintf.constprop.1
 2042              	.LVL222:
 2043              	.LBB144:
ARM GAS  C:\Users\jo\AppData\Local\Temp\ccLDsGlj.s 			page 37


 2044              	.LBB145:
 2045              		.loc 3 414 0 is_stmt 1 discriminator 1
 2046 0030 2848     		ldr	r0, .L293+12
 2047 0032 FFF7FEFF 		bl	chSysHalt
 2048              	.LVL223:
 2049              	.L284:
 2050              	.LBE145:
 2051              	.LBE144:
 2052              		.loc 1 165 0 discriminator 1
 2053 0036 04F11008 		add	r8, r4, #16
 2054 003a 4046     		mov	r0, r8
 2055 003c FFF7FEFF 		bl	sys_mbox_valid
 2056              	.LVL224:
 2057 0040 28B9     		cbnz	r0, .L278
 2058              	.LVL225:
 2059              	.L279:
 2060              		.loc 1 167 0
 2061 0042 3046     		mov	r0, r6
 2062              		.loc 1 205 0
 2063 0044 03B0     		add	sp, sp, #12
 2064              		.cfi_remember_state
 2065              		.cfi_def_cfa_offset 28
 2066              		@ sp needed
 2067 0046 BDE8F043 		pop	{r4, r5, r6, r7, r8, r9, lr}
 2068              		.cfi_restore 14
 2069              		.cfi_restore 9
 2070              		.cfi_restore 8
 2071              		.cfi_restore 7
 2072              		.cfi_restore 6
 2073              		.cfi_restore 5
 2074              		.cfi_restore 4
 2075              		.cfi_def_cfa_offset 0
 2076              	.LVL226:
 2077              		.loc 1 167 0
 2078 004a FFF7FEBF 		b	pbuf_free
 2079              	.LVL227:
 2080              	.L278:
 2081              		.cfi_restore_state
 2082              		.loc 1 171 0
 2083 004e 0720     		movs	r0, #7
 2084 0050 FFF7FEFF 		bl	memp_malloc
 2085              	.LVL228:
 2086              		.loc 1 172 0
 2087 0054 0546     		mov	r5, r0
 2088              	.LVL229:
 2089 0056 0028     		cmp	r0, #0
 2090 0058 F3D0     		beq	.L279
 2091              		.loc 1 176 0
 2092 005a 0660     		str	r6, [r0]
 2093              		.loc 1 177 0
 2094 005c 4660     		str	r6, [r0, #4]
 2095              		.loc 1 178 0
 2096 005e 07B1     		cbz	r7, .L280
 2097              		.loc 1 178 0 is_stmt 0 discriminator 1
 2098 0060 3F68     		ldr	r7, [r7]
 2099              	.LVL230:
 2100              	.L280:
ARM GAS  C:\Users\jo\AppData\Local\Temp\ccLDsGlj.s 			page 38


 2101              		.loc 1 178 0 discriminator 4
 2102 0062 AF60     		str	r7, [r5, #8]
 2103              		.loc 1 195 0 is_stmt 1 discriminator 4
 2104 0064 2946     		mov	r1, r5
 2105              		.loc 1 179 0 discriminator 4
 2106 0066 A5F80C90 		strh	r9, [r5, #12]	@ movhi
 2107              		.loc 1 195 0 discriminator 4
 2108 006a 4046     		mov	r0, r8
 2109              	.LVL231:
 2110              		.loc 1 194 0 discriminator 4
 2111 006c 3689     		ldrh	r6, [r6, #8]
 2112              	.LVL232:
 2113              		.loc 1 195 0 discriminator 4
 2114 006e FFF7FEFF 		bl	sys_mbox_trypost
 2115              	.LVL233:
 2116 0072 0146     		mov	r1, r0
 2117 0074 98B9     		cbnz	r0, .L292
 2118              		.loc 1 203 0
 2119 0076 A36A     		ldr	r3, [r4, #40]
 2120 0078 1BB3     		cbz	r3, .L275
 2121              		.loc 1 203 0 is_stmt 0 discriminator 1
 2122 007a 2046     		mov	r0, r4
 2123 007c 3246     		mov	r2, r6
 2124              		.loc 1 205 0 is_stmt 1 discriminator 1
 2125 007e 03B0     		add	sp, sp, #12
 2126              		.cfi_remember_state
 2127              		.cfi_def_cfa_offset 28
 2128              		@ sp needed
 2129 0080 BDE8F043 		pop	{r4, r5, r6, r7, r8, r9, lr}
 2130              		.cfi_restore 14
 2131              		.cfi_restore 9
 2132              		.cfi_restore 8
 2133              		.cfi_restore 7
 2134              		.cfi_restore 6
 2135              		.cfi_restore 5
 2136              		.cfi_restore 4
 2137              		.cfi_def_cfa_offset 0
 2138              	.LVL234:
 2139              		.loc 1 203 0 discriminator 1
 2140 0084 1847     		bx	r3	@ indirect register sibling call
 2141              	.LVL235:
 2142              	.L290:
 2143              		.cfi_restore_state
 2144              		.loc 1 155 0 discriminator 1
 2145 0086 104B     		ldr	r3, .L293
 2146              	.LVL236:
 2147 0088 0093     		str	r3, [sp]
 2148 008a 1149     		ldr	r1, .L293+8
 2149              	.LVL237:
 2150 008c 124A     		ldr	r2, .L293+16
 2151              	.LVL238:
 2152 008e 0F48     		ldr	r0, .L293+4
 2153              	.LVL239:
 2154 0090 9B23     		movs	r3, #155
 2155 0092 FFF7FEFF 		bl	chprintf.constprop.1
 2156              	.LVL240:
 2157              	.LBB146:
ARM GAS  C:\Users\jo\AppData\Local\Temp\ccLDsGlj.s 			page 39


 2158              	.LBB147:
 2159              		.loc 3 414 0 discriminator 1
 2160 0096 1048     		ldr	r0, .L293+16
 2161 0098 FFF7FEFF 		bl	chSysHalt
 2162              	.LVL241:
 2163 009c BBE7     		b	.L276
 2164              	.LVL242:
 2165              	.L292:
 2166              	.LBE147:
 2167              	.LBE146:
 2168              		.loc 1 196 0
 2169 009e 2846     		mov	r0, r5
 2170              		.loc 1 205 0
 2171 00a0 03B0     		add	sp, sp, #12
 2172              		.cfi_remember_state
 2173              		.cfi_def_cfa_offset 28
 2174              		@ sp needed
 2175 00a2 BDE8F043 		pop	{r4, r5, r6, r7, r8, r9, lr}
 2176              		.cfi_restore 14
 2177              		.cfi_restore 9
 2178              		.cfi_restore 8
 2179              		.cfi_restore 7
 2180              		.cfi_restore 6
 2181              		.cfi_restore 5
 2182              		.cfi_restore 4
 2183              		.cfi_def_cfa_offset 0
 2184              	.LVL243:
 2185              		.loc 1 196 0
 2186 00a6 FFF7FEBF 		b	netbuf_delete
 2187              	.LVL244:
 2188              	.L291:
 2189              		.cfi_restore_state
 2190              		.loc 1 156 0 discriminator 1
 2191 00aa 074B     		ldr	r3, .L293
 2192 00ac 0093     		str	r3, [sp]
 2193 00ae 0849     		ldr	r1, .L293+8
 2194 00b0 0A4A     		ldr	r2, .L293+20
 2195 00b2 0648     		ldr	r0, .L293+4
 2196 00b4 9C23     		movs	r3, #156
 2197 00b6 FFF7FEFF 		bl	chprintf.constprop.1
 2198              	.LVL245:
 2199              	.LBB148:
 2200              	.LBB149:
 2201              		.loc 3 414 0 discriminator 1
 2202 00ba 0848     		ldr	r0, .L293+20
 2203 00bc FFF7FEFF 		bl	chSysHalt
 2204              	.LVL246:
 2205 00c0 ABE7     		b	.L277
 2206              	.LVL247:
 2207              	.L275:
 2208              	.LBE149:
 2209              	.LBE148:
 2210              		.loc 1 205 0
 2211 00c2 03B0     		add	sp, sp, #12
 2212              		.cfi_def_cfa_offset 28
 2213              		@ sp needed
 2214 00c4 BDE8F083 		pop	{r4, r5, r6, r7, r8, r9, pc}
ARM GAS  C:\Users\jo\AppData\Local\Temp\ccLDsGlj.s 			page 40


 2215              	.LVL248:
 2216              	.L294:
 2217              		.align	2
 2218              	.L293:
 2219 00c8 4C000000 		.word	.LC2
 2220 00cc 00000000 		.word	itm_port
 2221 00d0 00000000 		.word	.LC0
 2222 00d4 C0020000 		.word	.LC21
 2223 00d8 7C020000 		.word	.LC19
 2224 00dc A0020000 		.word	.LC20
 2225              		.cfi_endproc
 2226              	.LFE257:
 2227              		.size	recv_udp, .-recv_udp
 2228              		.section	.text.do_newconn,"ax",%progbits
 2229              		.align	2
 2230              		.p2align 4,,15
 2231              		.global	do_newconn
 2232              		.thumb
 2233              		.thumb_func
 2234              		.type	do_newconn, %function
 2235              	do_newconn:
 2236              	.LFB265:
 2237              		.loc 1 549 0
 2238              		.cfi_startproc
 2239              		@ args = 0, pretend = 0, frame = 0
 2240              		@ frame_needed = 0, uses_anonymous_args = 0
 2241              	.LVL249:
 2242 0000 38B5     		push	{r3, r4, r5, lr}
 2243              		.cfi_def_cfa_offset 16
 2244              		.cfi_offset 3, -16
 2245              		.cfi_offset 4, -12
 2246              		.cfi_offset 5, -8
 2247              		.cfi_offset 14, -4
 2248              		.loc 1 550 0
 2249 0002 0023     		movs	r3, #0
 2250              		.loc 1 551 0
 2251 0004 0468     		ldr	r4, [r0]
 2252              		.loc 1 550 0
 2253 0006 0371     		strb	r3, [r0, #4]
 2254              		.loc 1 551 0
 2255 0008 6368     		ldr	r3, [r4, #4]
 2256 000a 2BB1     		cbz	r3, .L309
 2257              	.LVL250:
 2258              	.L296:
 2259              		.loc 1 558 0
 2260 000c 04F10C00 		add	r0, r4, #12
 2261              		.loc 1 559 0
 2262 0010 BDE83840 		pop	{r3, r4, r5, lr}
 2263              		.cfi_remember_state
 2264              		.cfi_restore 14
 2265              		.cfi_restore 5
 2266              		.cfi_restore 4
 2267              		.cfi_restore 3
 2268              		.cfi_def_cfa_offset 0
 2269              		.loc 1 558 0
 2270 0014 FFF7FEBF 		b	sys_sem_signal
 2271              	.LVL251:
ARM GAS  C:\Users\jo\AppData\Local\Temp\ccLDsGlj.s 			page 41


 2272              	.L309:
 2273              		.cfi_restore_state
 2274              	.LBB154:
 2275              	.LBB155:
 2276              		.loc 1 495 0
 2277 0018 2378     		ldrb	r3, [r4]	@ zero_extendqisi2
 2278 001a 03F0F003 		and	r3, r3, #240
 2279 001e 202B     		cmp	r3, #32
 2280 0020 0546     		mov	r5, r0
 2281 0022 1ED0     		beq	.L298
 2282 0024 402B     		cmp	r3, #64
 2283 0026 0FD0     		beq	.L299
 2284 0028 102B     		cmp	r3, #16
 2285 002a 02D0     		beq	.L310
 2286              		.loc 1 536 0
 2287 002c FA23     		movs	r3, #250
 2288 002e 0371     		strb	r3, [r0, #4]
 2289 0030 ECE7     		b	.L296
 2290              	.L310:
 2291              		.loc 1 526 0
 2292 0032 FFF7FEFF 		bl	tcp_new
 2293              	.LVL252:
 2294 0036 6060     		str	r0, [r4, #4]
 2295              		.loc 1 527 0
 2296 0038 2C68     		ldr	r4, [r5]
 2297 003a 6368     		ldr	r3, [r4, #4]
 2298 003c 23B3     		cbz	r3, .L307
 2299              		.loc 1 531 0
 2300 003e 2046     		mov	r0, r4
 2301 0040 FFF7FEFF 		bl	setup_tcp
 2302              	.LVL253:
 2303 0044 2C68     		ldr	r4, [r5]
 2304 0046 E1E7     		b	.L296
 2305              	.LVL254:
 2306              	.L299:
 2307              		.loc 1 498 0
 2308 0048 007A     		ldrb	r0, [r0, #8]	@ zero_extendqisi2
 2309              	.LVL255:
 2310 004a FFF7FEFF 		bl	raw_new
 2311              	.LVL256:
 2312 004e 6060     		str	r0, [r4, #4]
 2313              		.loc 1 499 0
 2314 0050 2C68     		ldr	r4, [r5]
 2315 0052 6068     		ldr	r0, [r4, #4]
 2316 0054 C0B1     		cbz	r0, .L307
 2317              		.loc 1 503 0
 2318 0056 2246     		mov	r2, r4
 2319 0058 0D49     		ldr	r1, .L311
 2320 005a FFF7FEFF 		bl	raw_recv
 2321              	.LVL257:
 2322 005e 2C68     		ldr	r4, [r5]
 2323 0060 D4E7     		b	.L296
 2324              	.LVL258:
 2325              	.L298:
 2326              		.loc 1 508 0
 2327 0062 FFF7FEFF 		bl	udp_new
 2328              	.LVL259:
ARM GAS  C:\Users\jo\AppData\Local\Temp\ccLDsGlj.s 			page 42


 2329 0066 6060     		str	r0, [r4, #4]
 2330              		.loc 1 509 0
 2331 0068 2C68     		ldr	r4, [r5]
 2332 006a 6068     		ldr	r0, [r4, #4]
 2333 006c 60B1     		cbz	r0, .L307
 2334              		.loc 1 518 0
 2335 006e 2378     		ldrb	r3, [r4]	@ zero_extendqisi2
 2336 0070 222B     		cmp	r3, #34
 2337 0072 03D1     		bne	.L303
 2338              		.loc 1 519 0
 2339 0074 0123     		movs	r3, #1
 2340 0076 0374     		strb	r3, [r0, #16]
 2341 0078 2C68     		ldr	r4, [r5]
 2342 007a 6068     		ldr	r0, [r4, #4]
 2343              	.L303:
 2344              		.loc 1 521 0
 2345 007c 0549     		ldr	r1, .L311+4
 2346 007e 2246     		mov	r2, r4
 2347 0080 FFF7FEFF 		bl	udp_recv
 2348              	.LVL260:
 2349 0084 2C68     		ldr	r4, [r5]
 2350 0086 C1E7     		b	.L296
 2351              	.L307:
 2352              		.loc 1 528 0
 2353 0088 FF23     		movs	r3, #255
 2354 008a 2B71     		strb	r3, [r5, #4]
 2355 008c BEE7     		b	.L296
 2356              	.L312:
 2357 008e 00BF     		.align	2
 2358              	.L311:
 2359 0090 00000000 		.word	recv_raw
 2360 0094 00000000 		.word	recv_udp
 2361              	.LBE155:
 2362              	.LBE154:
 2363              		.cfi_endproc
 2364              	.LFE265:
 2365              		.size	do_newconn, .-do_newconn
 2366 0098 AFF30080 		.section	.text.netconn_alloc,"ax",%progbits
 2366      AFF30080 
 2367              		.align	2
 2368              		.p2align 4,,15
 2369              		.global	netconn_alloc
 2370              		.thumb
 2371              		.thumb_func
 2372              		.type	netconn_alloc, %function
 2373              	netconn_alloc:
 2374              	.LFB266:
 2375              		.loc 1 573 0
 2376              		.cfi_startproc
 2377              		@ args = 0, pretend = 0, frame = 0
 2378              		@ frame_needed = 0, uses_anonymous_args = 0
 2379              	.LVL261:
 2380 0000 F0B5     		push	{r4, r5, r6, r7, lr}
 2381              		.cfi_def_cfa_offset 20
 2382              		.cfi_offset 4, -20
 2383              		.cfi_offset 5, -16
 2384              		.cfi_offset 6, -12
ARM GAS  C:\Users\jo\AppData\Local\Temp\ccLDsGlj.s 			page 43


 2385              		.cfi_offset 7, -8
 2386              		.cfi_offset 14, -4
 2387 0002 0546     		mov	r5, r0
 2388 0004 83B0     		sub	sp, sp, #12
 2389              		.cfi_def_cfa_offset 32
 2390              		.loc 1 577 0
 2391 0006 0820     		movs	r0, #8
 2392              	.LVL262:
 2393              		.loc 1 573 0
 2394 0008 0E46     		mov	r6, r1
 2395              		.loc 1 577 0
 2396 000a FFF7FEFF 		bl	memp_malloc
 2397              	.LVL263:
 2398              		.loc 1 578 0
 2399 000e 0446     		mov	r4, r0
 2400 0010 E0B1     		cbz	r0, .L314
 2401              		.loc 1 590 0
 2402 0012 05F0F003 		and	r3, r5, #240
 2403              		.loc 1 582 0
 2404 0016 0022     		movs	r2, #0
 2405              		.loc 1 590 0
 2406 0018 202B     		cmp	r3, #32
 2407              		.loc 1 583 0
 2408 001a 0570     		strb	r5, [r0]
 2409              		.loc 1 582 0
 2410 001c 0272     		strb	r2, [r0, #8]
 2411              		.loc 1 584 0
 2412 001e 4260     		str	r2, [r0, #4]
 2413              		.loc 1 590 0
 2414 0020 35D0     		beq	.L321
 2415 0022 402B     		cmp	r3, #64
 2416 0024 33D0     		beq	.L321
 2417 0026 102B     		cmp	r3, #16
 2418 0028 12D0     		beq	.L330
 2419              		.loc 1 607 0 discriminator 1
 2420 002a 1C4B     		ldr	r3, .L332
 2421 002c 0093     		str	r3, [sp]
 2422 002e 1C48     		ldr	r0, .L332+4
 2423              	.LVL264:
 2424 0030 1C49     		ldr	r1, .L332+8
 2425 0032 1D4A     		ldr	r2, .L332+12
 2426 0034 40F25F23 		movw	r3, #607
 2427 0038 FFF7FEFF 		bl	chprintf.constprop.1
 2428              	.LVL265:
 2429              	.LBB156:
 2430              	.LBB157:
 2431              		.loc 3 414 0 discriminator 1
 2432 003c 1A48     		ldr	r0, .L332+12
 2433 003e FFF7FEFF 		bl	chSysHalt
 2434              	.LVL266:
 2435              	.L318:
 2436              	.LBE157:
 2437              	.LBE156:
 2438              		.loc 1 646 0
 2439 0042 0820     		movs	r0, #8
 2440 0044 2146     		mov	r1, r4
 2441 0046 FFF7FEFF 		bl	memp_free
ARM GAS  C:\Users\jo\AppData\Local\Temp\ccLDsGlj.s 			page 44


 2442              	.LVL267:
 2443              		.loc 1 647 0
 2444 004a 0020     		movs	r0, #0
 2445              	.L314:
 2446              		.loc 1 648 0
 2447 004c 03B0     		add	sp, sp, #12
 2448              		.cfi_remember_state
 2449              		.cfi_def_cfa_offset 20
 2450              		@ sp needed
 2451 004e F0BD     		pop	{r4, r5, r6, r7, pc}
 2452              	.LVL268:
 2453              	.L330:
 2454              		.cfi_restore_state
 2455              		.loc 1 603 0
 2456 0050 2825     		movs	r5, #40
 2457              	.L316:
 2458              	.LVL269:
 2459              		.loc 1 612 0
 2460 0052 04F10C07 		add	r7, r4, #12
 2461 0056 3846     		mov	r0, r7
 2462              	.LVL270:
 2463 0058 0021     		movs	r1, #0
 2464 005a FFF7FEFF 		bl	sys_sem_new
 2465              	.LVL271:
 2466 005e 0028     		cmp	r0, #0
 2467 0060 EFD1     		bne	.L318
 2468              		.loc 1 615 0
 2469 0062 2946     		mov	r1, r5
 2470 0064 04F11000 		add	r0, r4, #16
 2471 0068 FFF7FEFF 		bl	sys_mbox_new
 2472              	.LVL272:
 2473 006c 0546     		mov	r5, r0
 2474              	.LVL273:
 2475 006e 80B9     		cbnz	r0, .L331
 2476              		.loc 1 621 0
 2477 0070 04F11400 		add	r0, r4, #20
 2478 0074 FFF7FEFF 		bl	sys_mbox_set_invalid
 2479              	.LVL274:
 2480              		.loc 1 626 0
 2481 0078 4FF0FF33 		mov	r3, #-1
 2482              		.loc 1 644 0
 2483 007c 2046     		mov	r0, r4
 2484              		.loc 1 623 0
 2485 007e 6570     		strb	r5, [r4, #1]
 2486              		.loc 1 628 0
 2487 0080 A662     		str	r6, [r4, #40]
 2488              		.loc 1 630 0
 2489 0082 6562     		str	r5, [r4, #36]
 2490              		.loc 1 631 0
 2491 0084 2562     		str	r5, [r4, #32]
 2492              		.loc 1 643 0
 2493 0086 2577     		strb	r5, [r4, #28]
 2494              		.loc 1 626 0
 2495 0088 A361     		str	r3, [r4, #24]
 2496              		.loc 1 648 0
 2497 008a 03B0     		add	sp, sp, #12
 2498              		.cfi_remember_state
ARM GAS  C:\Users\jo\AppData\Local\Temp\ccLDsGlj.s 			page 45


 2499              		.cfi_def_cfa_offset 20
 2500              		@ sp needed
 2501 008c F0BD     		pop	{r4, r5, r6, r7, pc}
 2502              	.LVL275:
 2503              	.L321:
 2504              		.cfi_restore_state
 2505              		.loc 1 593 0
 2506 008e 0425     		movs	r5, #4
 2507 0090 DFE7     		b	.L316
 2508              	.LVL276:
 2509              	.L331:
 2510              		.loc 1 616 0
 2511 0092 3846     		mov	r0, r7
 2512 0094 FFF7FEFF 		bl	sys_sem_free
 2513              	.LVL277:
 2514              		.loc 1 617 0
 2515 0098 D3E7     		b	.L318
 2516              	.L333:
 2517 009a 00BF     		.align	2
 2518              	.L332:
 2519 009c 4C000000 		.word	.LC2
 2520 00a0 00000000 		.word	itm_port
 2521 00a4 00000000 		.word	.LC0
 2522 00a8 E0020000 		.word	.LC22
 2523              		.cfi_endproc
 2524              	.LFE266:
 2525              		.size	netconn_alloc, .-netconn_alloc
 2526 00ac AFF30080 		.section	.text.netconn_free,"ax",%progbits
 2527              		.align	2
 2528              		.p2align 4,,15
 2529              		.global	netconn_free
 2530              		.thumb
 2531              		.thumb_func
 2532              		.type	netconn_free, %function
 2533              	netconn_free:
 2534              	.LFB267:
 2535              		.loc 1 658 0
 2536              		.cfi_startproc
 2537              		@ args = 0, pretend = 0, frame = 0
 2538              		@ frame_needed = 0, uses_anonymous_args = 0
 2539              	.LVL278:
 2540 0000 30B5     		push	{r4, r5, lr}
 2541              		.cfi_def_cfa_offset 12
 2542              		.cfi_offset 4, -12
 2543              		.cfi_offset 5, -8
 2544              		.cfi_offset 14, -4
 2545              		.loc 1 659 0
 2546 0002 4368     		ldr	r3, [r0, #4]
 2547              		.loc 1 658 0
 2548 0004 83B0     		sub	sp, sp, #12
 2549              		.cfi_def_cfa_offset 24
 2550              		.loc 1 658 0
 2551 0006 0446     		mov	r4, r0
 2552              		.loc 1 659 0
 2553 0008 5BB1     		cbz	r3, .L335
 2554              		.loc 1 659 0 is_stmt 0 discriminator 1
 2555 000a 1F4B     		ldr	r3, .L349
ARM GAS  C:\Users\jo\AppData\Local\Temp\ccLDsGlj.s 			page 46


 2556 000c 0093     		str	r3, [sp]
 2557 000e 1F48     		ldr	r0, .L349+4
 2558              	.LVL279:
 2559 0010 1F49     		ldr	r1, .L349+8
 2560 0012 204A     		ldr	r2, .L349+12
 2561 0014 40F29323 		movw	r3, #659
 2562 0018 FFF7FEFF 		bl	chprintf.constprop.1
 2563              	.LVL280:
 2564              	.LBB158:
 2565              	.LBB159:
 2566              		.loc 3 414 0 is_stmt 1 discriminator 1
 2567 001c 1D48     		ldr	r0, .L349+12
 2568 001e FFF7FEFF 		bl	chSysHalt
 2569              	.LVL281:
 2570              	.L335:
 2571              	.LBE159:
 2572              	.LBE158:
 2573              		.loc 1 660 0
 2574 0022 04F11000 		add	r0, r4, #16
 2575 0026 FFF7FEFF 		bl	sys_mbox_valid
 2576              	.LVL282:
 2577 002a F8B9     		cbnz	r0, .L348
 2578              	.L336:
 2579              		.loc 1 663 0
 2580 002c 04F11400 		add	r0, r4, #20
 2581 0030 FFF7FEFF 		bl	sys_mbox_valid
 2582              	.LVL283:
 2583 0034 58B1     		cbz	r0, .L337
 2584              		.loc 1 663 0 is_stmt 0 discriminator 1
 2585 0036 144B     		ldr	r3, .L349
 2586 0038 0093     		str	r3, [sp]
 2587 003a 1448     		ldr	r0, .L349+4
 2588 003c 1449     		ldr	r1, .L349+8
 2589 003e 164A     		ldr	r2, .L349+16
 2590 0040 4FF42673 		mov	r3, #664
 2591 0044 FFF7FEFF 		bl	chprintf.constprop.1
 2592              	.LVL284:
 2593              	.LBB160:
 2594              	.LBB161:
 2595              		.loc 3 414 0 is_stmt 1 discriminator 1
 2596 0048 1348     		ldr	r0, .L349+16
 2597 004a FFF7FEFF 		bl	chSysHalt
 2598              	.LVL285:
 2599              	.L337:
 2600              	.LBE161:
 2601              	.LBE160:
 2602              		.loc 1 667 0
 2603 004e 04F10C05 		add	r5, r4, #12
 2604 0052 2846     		mov	r0, r5
 2605 0054 FFF7FEFF 		bl	sys_sem_free
 2606              	.LVL286:
 2607              		.loc 1 668 0
 2608 0058 2846     		mov	r0, r5
 2609 005a FFF7FEFF 		bl	sys_sem_set_invalid
 2610              	.LVL287:
 2611              		.loc 1 670 0
 2612 005e 2146     		mov	r1, r4
ARM GAS  C:\Users\jo\AppData\Local\Temp\ccLDsGlj.s 			page 47


 2613 0060 0820     		movs	r0, #8
 2614              		.loc 1 671 0
 2615 0062 03B0     		add	sp, sp, #12
 2616              		.cfi_remember_state
 2617              		.cfi_def_cfa_offset 12
 2618              		@ sp needed
 2619 0064 BDE83040 		pop	{r4, r5, lr}
 2620              		.cfi_restore 14
 2621              		.cfi_restore 5
 2622              		.cfi_restore 4
 2623              		.cfi_def_cfa_offset 0
 2624              	.LVL288:
 2625              		.loc 1 670 0
 2626 0068 FFF7FEBF 		b	memp_free
 2627              	.LVL289:
 2628              	.L348:
 2629              		.cfi_restore_state
 2630              		.loc 1 660 0 discriminator 1
 2631 006c 064B     		ldr	r3, .L349
 2632 006e 0093     		str	r3, [sp]
 2633 0070 0749     		ldr	r1, .L349+8
 2634 0072 0A4A     		ldr	r2, .L349+20
 2635 0074 0548     		ldr	r0, .L349+4
 2636 0076 40F29523 		movw	r3, #661
 2637 007a FFF7FEFF 		bl	chprintf.constprop.1
 2638              	.LVL290:
 2639              	.LBB162:
 2640              	.LBB163:
 2641              		.loc 3 414 0 discriminator 1
 2642 007e 0748     		ldr	r0, .L349+20
 2643 0080 FFF7FEFF 		bl	chSysHalt
 2644              	.LVL291:
 2645 0084 D2E7     		b	.L336
 2646              	.L350:
 2647 0086 00BF     		.align	2
 2648              	.L349:
 2649 0088 4C000000 		.word	.LC2
 2650 008c 00000000 		.word	itm_port
 2651 0090 00000000 		.word	.LC0
 2652 0094 08030000 		.word	.LC23
 2653 0098 74030000 		.word	.LC25
 2654 009c 38030000 		.word	.LC24
 2655              	.LBE163:
 2656              	.LBE162:
 2657              		.cfi_endproc
 2658              	.LFE267:
 2659              		.size	netconn_free, .-netconn_free
 2660              		.section	.text.netconn_drain,"ax",%progbits
 2661              		.align	2
 2662              		.p2align 4,,15
 2663              		.thumb
 2664              		.thumb_func
 2665              		.type	netconn_drain, %function
 2666              	netconn_drain:
 2667              	.LFB268:
 2668              		.loc 1 683 0
 2669              		.cfi_startproc
ARM GAS  C:\Users\jo\AppData\Local\Temp\ccLDsGlj.s 			page 48


 2670              		@ args = 0, pretend = 0, frame = 8
 2671              		@ frame_needed = 0, uses_anonymous_args = 0
 2672              	.LVL292:
 2673 0000 2DE9F043 		push	{r4, r5, r6, r7, r8, r9, lr}
 2674              		.cfi_def_cfa_offset 28
 2675              		.cfi_offset 4, -28
 2676              		.cfi_offset 5, -24
 2677              		.cfi_offset 6, -20
 2678              		.cfi_offset 7, -16
 2679              		.cfi_offset 8, -12
 2680              		.cfi_offset 9, -8
 2681              		.cfi_offset 14, -4
 2682              		.loc 1 692 0
 2683 0004 00F11004 		add	r4, r0, #16
 2684              		.loc 1 683 0
 2685 0008 85B0     		sub	sp, sp, #20
 2686              		.cfi_def_cfa_offset 48
 2687              		.loc 1 683 0
 2688 000a 0646     		mov	r6, r0
 2689              		.loc 1 692 0
 2690 000c 2046     		mov	r0, r4
 2691              	.LVL293:
 2692 000e FFF7FEFF 		bl	sys_mbox_valid
 2693              	.LVL294:
 2694 0012 08B3     		cbz	r0, .L353
 2695 0014 03AF     		add	r7, sp, #12
 2696              	.L352:
 2697              		.loc 1 693 0
 2698 0016 2046     		mov	r0, r4
 2699 0018 3946     		mov	r1, r7
 2700 001a FFF7FEFF 		bl	sys_arch_mbox_tryfetch
 2701              	.LVL295:
 2702 001e 0130     		adds	r0, r0, #1
 2703 0020 14D0     		beq	.L381
 2704              	.L357:
 2705              		.loc 1 695 0
 2706 0022 3378     		ldrb	r3, [r6]	@ zero_extendqisi2
 2707 0024 102B     		cmp	r3, #16
 2708 0026 4ED1     		bne	.L354
 2709              		.loc 1 696 0
 2710 0028 039D     		ldr	r5, [sp, #12]
 2711              	.LVL296:
 2712 002a 002D     		cmp	r5, #0
 2713 002c F3D0     		beq	.L352
 2714              		.loc 1 699 0
 2715 002e 7368     		ldr	r3, [r6, #4]
 2716              		.loc 1 700 0
 2717 0030 1846     		mov	r0, r3
 2718              		.loc 1 699 0
 2719 0032 13B1     		cbz	r3, .L356
 2720              		.loc 1 700 0
 2721 0034 2989     		ldrh	r1, [r5, #8]
 2722 0036 FFF7FEFF 		bl	tcp_recved
 2723              	.LVL297:
 2724              	.L356:
 2725              		.loc 1 702 0
 2726 003a 2846     		mov	r0, r5
ARM GAS  C:\Users\jo\AppData\Local\Temp\ccLDsGlj.s 			page 49


 2727 003c FFF7FEFF 		bl	pbuf_free
 2728              	.LVL298:
 2729              		.loc 1 693 0
 2730 0040 2046     		mov	r0, r4
 2731 0042 3946     		mov	r1, r7
 2732 0044 FFF7FEFF 		bl	sys_arch_mbox_tryfetch
 2733              	.LVL299:
 2734 0048 0130     		adds	r0, r0, #1
 2735 004a EAD1     		bne	.L357
 2736              	.LVL300:
 2737              	.L381:
 2738              		.loc 1 710 0
 2739 004c 2046     		mov	r0, r4
 2740 004e FFF7FEFF 		bl	sys_mbox_free
 2741              	.LVL301:
 2742              		.loc 1 711 0
 2743 0052 2046     		mov	r0, r4
 2744 0054 FFF7FEFF 		bl	sys_mbox_set_invalid
 2745              	.LVL302:
 2746              	.L353:
 2747              		.loc 1 716 0
 2748 0058 06F11408 		add	r8, r6, #20
 2749 005c 4046     		mov	r0, r8
 2750 005e FFF7FEFF 		bl	sys_mbox_valid
 2751              	.LVL303:
 2752 0062 68B3     		cbz	r0, .L351
 2753 0064 03AF     		add	r7, sp, #12
 2754              	.LBB164:
 2755              		.loc 1 722 0
 2756 0066 DFF87490 		ldr	r9, .L382+12
 2757 006a 1DE0     		b	.L358
 2758              	.L362:
 2759              		.loc 1 721 0
 2760 006c 7568     		ldr	r5, [r6, #4]
 2761              		.loc 1 722 0
 2762 006e 1849     		ldr	r1, .L382
 2763 0070 184A     		ldr	r2, .L382+4
 2764 0072 1948     		ldr	r0, .L382+8
 2765              		.loc 1 718 0
 2766 0074 039C     		ldr	r4, [sp, #12]
 2767              	.LVL304:
 2768              		.loc 1 722 0
 2769 0076 40F2D223 		movw	r3, #722
 2770              		.loc 1 721 0
 2771 007a 4DB1     		cbz	r5, .L360
 2772              		.loc 1 722 0
 2773 007c 2D7E     		ldrb	r5, [r5, #24]	@ zero_extendqisi2
 2774 007e 012D     		cmp	r5, #1
 2775 0080 06D0     		beq	.L360
 2776              		.loc 1 722 0 is_stmt 0 discriminator 1
 2777 0082 CDF80090 		str	r9, [sp]
 2778 0086 FFF7FEFF 		bl	chprintf.constprop.1
 2779              	.LVL305:
 2780              	.LBB165:
 2781              	.LBB166:
 2782              		.loc 3 414 0 is_stmt 1 discriminator 1
 2783 008a 1248     		ldr	r0, .L382+4
ARM GAS  C:\Users\jo\AppData\Local\Temp\ccLDsGlj.s 			page 50


 2784 008c FFF7FEFF 		bl	chSysHalt
 2785              	.LVL306:
 2786              	.L360:
 2787              	.LBE166:
 2788              	.LBE165:
 2789              		.loc 1 725 0
 2790 0090 2046     		mov	r0, r4
 2791 0092 FFF7B5FF 		bl	netconn_drain
 2792              	.LVL307:
 2793              		.loc 1 726 0
 2794 0096 6068     		ldr	r0, [r4, #4]
 2795 0098 18B1     		cbz	r0, .L361
 2796              		.loc 1 727 0
 2797 009a FFF7FEFF 		bl	tcp_abort
 2798              	.LVL308:
 2799              		.loc 1 728 0
 2800 009e 0023     		movs	r3, #0
 2801 00a0 6360     		str	r3, [r4, #4]
 2802              	.L361:
 2803              		.loc 1 730 0
 2804 00a2 2046     		mov	r0, r4
 2805 00a4 FFF7FEFF 		bl	netconn_free
 2806              	.LVL309:
 2807              	.L358:
 2808              	.LBE164:
 2809              		.loc 1 717 0
 2810 00a8 4046     		mov	r0, r8
 2811 00aa 3946     		mov	r1, r7
 2812 00ac FFF7FEFF 		bl	sys_arch_mbox_tryfetch
 2813              	.LVL310:
 2814 00b0 0130     		adds	r0, r0, #1
 2815 00b2 DBD1     		bne	.L362
 2816              		.loc 1 732 0
 2817 00b4 4046     		mov	r0, r8
 2818 00b6 FFF7FEFF 		bl	sys_mbox_free
 2819              	.LVL311:
 2820              		.loc 1 733 0
 2821 00ba 4046     		mov	r0, r8
 2822 00bc FFF7FEFF 		bl	sys_mbox_set_invalid
 2823              	.LVL312:
 2824              	.L351:
 2825              		.loc 1 736 0
 2826 00c0 05B0     		add	sp, sp, #20
 2827              		.cfi_remember_state
 2828              		.cfi_def_cfa_offset 28
 2829              		@ sp needed
 2830 00c2 BDE8F083 		pop	{r4, r5, r6, r7, r8, r9, pc}
 2831              	.LVL313:
 2832              	.L354:
 2833              		.cfi_restore_state
 2834              		.loc 1 707 0
 2835 00c6 0398     		ldr	r0, [sp, #12]
 2836 00c8 FFF7FEFF 		bl	netbuf_delete
 2837              	.LVL314:
 2838 00cc A3E7     		b	.L352
 2839              	.L383:
 2840 00ce 00BF     		.align	2
ARM GAS  C:\Users\jo\AppData\Local\Temp\ccLDsGlj.s 			page 51


 2841              	.L382:
 2842 00d0 00000000 		.word	.LC0
 2843 00d4 B0030000 		.word	.LC26
 2844 00d8 00000000 		.word	itm_port
 2845 00dc 4C000000 		.word	.LC2
 2846              		.cfi_endproc
 2847              	.LFE268:
 2848              		.size	netconn_drain, .-netconn_drain
 2849              		.section	.text.accept_function,"ax",%progbits
 2850              		.align	2
 2851              		.p2align 4,,15
 2852              		.thumb
 2853              		.thumb_func
 2854              		.type	accept_function, %function
 2855              	accept_function:
 2856              	.LFB263:
 2857              		.loc 1 433 0
 2858              		.cfi_startproc
 2859              		@ args = 0, pretend = 0, frame = 0
 2860              		@ frame_needed = 0, uses_anonymous_args = 0
 2861              	.LVL315:
 2862 0000 2DE9F041 		push	{r4, r5, r6, r7, r8, lr}
 2863              		.cfi_def_cfa_offset 24
 2864              		.cfi_offset 4, -24
 2865              		.cfi_offset 5, -20
 2866              		.cfi_offset 6, -16
 2867              		.cfi_offset 7, -12
 2868              		.cfi_offset 8, -8
 2869              		.cfi_offset 14, -4
 2870              		.loc 1 439 0
 2871 0004 00F11405 		add	r5, r0, #20
 2872              		.loc 1 433 0
 2873 0008 0446     		mov	r4, r0
 2874              	.LVL316:
 2875              		.loc 1 439 0
 2876 000a 2846     		mov	r0, r5
 2877              	.LVL317:
 2878              		.loc 1 433 0
 2879 000c 8846     		mov	r8, r1
 2880 000e 1746     		mov	r7, r2
 2881              		.loc 1 439 0
 2882 0010 FFF7FEFF 		bl	sys_mbox_valid
 2883              	.LVL318:
 2884 0014 C8B1     		cbz	r0, .L387
 2885              		.loc 1 446 0
 2886 0016 2078     		ldrb	r0, [r4]	@ zero_extendqisi2
 2887 0018 A16A     		ldr	r1, [r4, #40]
 2888 001a FFF7FEFF 		bl	netconn_alloc
 2889              	.LVL319:
 2890              		.loc 1 447 0
 2891 001e 0646     		mov	r6, r0
 2892 0020 A8B1     		cbz	r0, .L388
 2893              		.loc 1 450 0
 2894 0022 C0F80480 		str	r8, [r0, #4]
 2895              		.loc 1 451 0
 2896 0026 FFF7FEFF 		bl	setup_tcp
 2897              	.LVL320:
ARM GAS  C:\Users\jo\AppData\Local\Temp\ccLDsGlj.s 			page 52


 2898              		.loc 1 456 0
 2899 002a 2846     		mov	r0, r5
 2900              		.loc 1 454 0
 2901 002c 3772     		strb	r7, [r6, #8]
 2902              		.loc 1 456 0
 2903 002e 3146     		mov	r1, r6
 2904 0030 FFF7FEFF 		bl	sys_mbox_trypost
 2905              	.LVL321:
 2906 0034 0546     		mov	r5, r0
 2907 0036 60B9     		cbnz	r0, .L393
 2908              		.loc 1 475 0
 2909 0038 A36A     		ldr	r3, [r4, #40]
 2910 003a 1BB1     		cbz	r3, .L385
 2911              		.loc 1 475 0 is_stmt 0 discriminator 1
 2912 003c 2046     		mov	r0, r4
 2913 003e 2946     		mov	r1, r5
 2914 0040 2A46     		mov	r2, r5
 2915 0042 9847     		blx	r3
 2916              	.LVL322:
 2917              	.L385:
 2918              		.loc 1 479 0 is_stmt 1
 2919 0044 68B2     		sxtb	r0, r5
 2920 0046 BDE8F081 		pop	{r4, r5, r6, r7, r8, pc}
 2921              	.LVL323:
 2922              	.L387:
 2923              		.loc 1 441 0
 2924 004a FA25     		movs	r5, #250
 2925 004c FAE7     		b	.L385
 2926              	.LVL324:
 2927              	.L388:
 2928              		.loc 1 448 0
 2929 004e FF25     		movs	r5, #255
 2930 0050 F8E7     		b	.L385
 2931              	.LVL325:
 2932              	.L393:
 2933              	.LBB167:
 2934              		.loc 1 460 0
 2935 0052 7468     		ldr	r4, [r6, #4]
 2936              	.LVL326:
 2937              		.loc 1 461 0
 2938 0054 0021     		movs	r1, #0
 2939 0056 2046     		mov	r0, r4
 2940 0058 FFF7FEFF 		bl	tcp_arg
 2941              	.LVL327:
 2942              		.loc 1 462 0
 2943 005c 2046     		mov	r0, r4
 2944 005e 0021     		movs	r1, #0
 2945 0060 FFF7FEFF 		bl	tcp_recv
 2946              	.LVL328:
 2947              		.loc 1 463 0
 2948 0064 2046     		mov	r0, r4
 2949 0066 0021     		movs	r1, #0
 2950 0068 FFF7FEFF 		bl	tcp_sent
 2951              	.LVL329:
 2952              		.loc 1 464 0
 2953 006c 0422     		movs	r2, #4
 2954 006e 2046     		mov	r0, r4
ARM GAS  C:\Users\jo\AppData\Local\Temp\ccLDsGlj.s 			page 53


 2955 0070 0021     		movs	r1, #0
 2956 0072 FFF7FEFF 		bl	tcp_poll
 2957              	.LVL330:
 2958              		.loc 1 465 0
 2959 0076 0021     		movs	r1, #0
 2960 0078 2046     		mov	r0, r4
 2961 007a FFF7FEFF 		bl	tcp_err
 2962              	.LVL331:
 2963              		.loc 1 469 0
 2964 007e 06F11004 		add	r4, r6, #16
 2965              	.LVL332:
 2966              		.loc 1 467 0
 2967 0082 0023     		movs	r3, #0
 2968 0084 7360     		str	r3, [r6, #4]
 2969              		.loc 1 469 0
 2970 0086 2046     		mov	r0, r4
 2971 0088 FFF7FEFF 		bl	sys_mbox_free
 2972              	.LVL333:
 2973              		.loc 1 470 0
 2974 008c 2046     		mov	r0, r4
 2975 008e FFF7FEFF 		bl	sys_mbox_set_invalid
 2976              	.LVL334:
 2977              		.loc 1 471 0
 2978 0092 3046     		mov	r0, r6
 2979 0094 FFF7FEFF 		bl	netconn_free
 2980              	.LVL335:
 2981              		.loc 1 472 0
 2982 0098 FF25     		movs	r5, #255
 2983 009a D3E7     		b	.L385
 2984              	.LBE167:
 2985              		.cfi_endproc
 2986              	.LFE263:
 2987              		.size	accept_function, .-accept_function
 2988 009c AFF30080 		.section	.text.do_delconn,"ax",%progbits
 2989              		.align	2
 2990              		.p2align 4,,15
 2991              		.global	do_delconn
 2992              		.thumb
 2993              		.thumb_func
 2994              		.type	do_delconn, %function
 2995              	do_delconn:
 2996              	.LFB270:
 2997              		.loc 1 833 0
 2998              		.cfi_startproc
 2999              		@ args = 0, pretend = 0, frame = 0
 3000              		@ frame_needed = 0, uses_anonymous_args = 0
 3001              	.LVL336:
 3002 0000 30B5     		push	{r4, r5, lr}
 3003              		.cfi_def_cfa_offset 12
 3004              		.cfi_offset 4, -12
 3005              		.cfi_offset 5, -8
 3006              		.cfi_offset 14, -4
 3007              		.loc 1 835 0
 3008 0002 0368     		ldr	r3, [r0]
 3009 0004 5A78     		ldrb	r2, [r3, #1]	@ zero_extendqisi2
 3010 0006 12F0FD0F 		tst	r2, #253
 3011              		.loc 1 833 0
ARM GAS  C:\Users\jo\AppData\Local\Temp\ccLDsGlj.s 			page 54


 3012 000a 83B0     		sub	sp, sp, #12
 3013              		.cfi_def_cfa_offset 24
 3014              		.loc 1 833 0
 3015 000c 0446     		mov	r4, r0
 3016              		.loc 1 835 0
 3017 000e 2BD0     		beq	.L395
 3018              		.loc 1 836 0
 3019 0010 032A     		cmp	r2, #3
 3020 0012 19D0     		beq	.L396
 3021              		.loc 1 839 0
 3022 0014 1A78     		ldrb	r2, [r3]	@ zero_extendqisi2
 3023 0016 102A     		cmp	r2, #16
 3024 0018 0CD0     		beq	.L397
 3025              		.loc 1 839 0 is_stmt 0 discriminator 1
 3026 001a 3F4B     		ldr	r3, .L430
 3027 001c 0093     		str	r3, [sp]
 3028 001e 3F49     		ldr	r1, .L430+4
 3029 0020 3F4A     		ldr	r2, .L430+8
 3030 0022 4048     		ldr	r0, .L430+12
 3031              	.LVL337:
 3032 0024 40F24733 		movw	r3, #839
 3033 0028 FFF7FEFF 		bl	chprintf.constprop.1
 3034              	.LVL338:
 3035              	.LBB168:
 3036              	.LBB169:
 3037              		.loc 3 414 0 is_stmt 1 discriminator 1
 3038 002c 3C48     		ldr	r0, .L430+8
 3039 002e FFF7FEFF 		bl	chSysHalt
 3040              	.LVL339:
 3041 0032 2368     		ldr	r3, [r4]
 3042              	.LVL340:
 3043              	.L397:
 3044              	.LBE169:
 3045              	.LBE168:
 3046              		.loc 1 840 0
 3047 0034 FB22     		movs	r2, #251
 3048 0036 2271     		strb	r2, [r4, #4]
 3049              	.L398:
 3050              		.loc 1 885 0
 3051 0038 03F10C00 		add	r0, r3, #12
 3052 003c FFF7FEFF 		bl	sys_sem_valid
 3053              	.LVL341:
 3054 0040 0028     		cmp	r0, #0
 3055 0042 39D1     		bne	.L427
 3056              	.L394:
 3057              		.loc 1 888 0
 3058 0044 03B0     		add	sp, sp, #12
 3059              		.cfi_remember_state
 3060              		.cfi_def_cfa_offset 12
 3061              		@ sp needed
 3062 0046 30BD     		pop	{r4, r5, pc}
 3063              	.LVL342:
 3064              	.L396:
 3065              		.cfi_restore_state
 3066              		.loc 1 842 0 discriminator 1
 3067 0048 1A7F     		ldrb	r2, [r3, #28]	@ zero_extendqisi2
 3068 004a 5207     		lsls	r2, r2, #29
ARM GAS  C:\Users\jo\AppData\Local\Temp\ccLDsGlj.s 			page 55


 3069 004c 0CD4     		bmi	.L395
 3070              		.loc 1 842 0 is_stmt 0 discriminator 2
 3071 004e 324B     		ldr	r3, .L430
 3072 0050 0093     		str	r3, [sp]
 3073 0052 3249     		ldr	r1, .L430+4
 3074 0054 344A     		ldr	r2, .L430+16
 3075 0056 3348     		ldr	r0, .L430+12
 3076              	.LVL343:
 3077 0058 40F24B33 		movw	r3, #843
 3078 005c FFF7FEFF 		bl	chprintf.constprop.1
 3079              	.LVL344:
 3080              	.LBB170:
 3081              	.LBB171:
 3082              		.loc 3 414 0 is_stmt 1 discriminator 2
 3083 0060 3148     		ldr	r0, .L430+16
 3084 0062 FFF7FEFF 		bl	chSysHalt
 3085              	.LVL345:
 3086 0066 2368     		ldr	r3, [r4]
 3087              	.LVL346:
 3088              	.L395:
 3089              	.LBE171:
 3090              	.LBE170:
 3091              		.loc 1 845 0
 3092 0068 1846     		mov	r0, r3
 3093 006a FFF7FEFF 		bl	netconn_drain
 3094              	.LVL347:
 3095              		.loc 1 847 0
 3096 006e 2368     		ldr	r3, [r4]
 3097 0070 5868     		ldr	r0, [r3, #4]
 3098 0072 58B1     		cbz	r0, .L399
 3099              		.loc 1 849 0
 3100 0074 1A78     		ldrb	r2, [r3]	@ zero_extendqisi2
 3101 0076 02F0F002 		and	r2, r2, #240
 3102 007a 202A     		cmp	r2, #32
 3103 007c 23D0     		beq	.L401
 3104 007e 402A     		cmp	r2, #64
 3105 0080 42D0     		beq	.L402
 3106 0082 102A     		cmp	r2, #16
 3107 0084 26D0     		beq	.L428
 3108              	.L400:
 3109              		.loc 1 876 0
 3110 0086 0022     		movs	r2, #0
 3111 0088 5A60     		str	r2, [r3, #4]
 3112 008a 2368     		ldr	r3, [r4]
 3113              	.L399:
 3114              		.loc 1 882 0
 3115 008c 9D6A     		ldr	r5, [r3, #40]
 3116 008e 002D     		cmp	r5, #0
 3117 0090 D2D0     		beq	.L398
 3118              		.loc 1 882 0 is_stmt 0 discriminator 1
 3119 0092 0021     		movs	r1, #0
 3120 0094 1846     		mov	r0, r3
 3121 0096 0A46     		mov	r2, r1
 3122 0098 A847     		blx	r5
 3123              	.LVL348:
 3124              		.loc 1 883 0 is_stmt 1 discriminator 1
 3125 009a 2368     		ldr	r3, [r4]
ARM GAS  C:\Users\jo\AppData\Local\Temp\ccLDsGlj.s 			page 56


 3126 009c 9D6A     		ldr	r5, [r3, #40]
 3127 009e 002D     		cmp	r5, #0
 3128 00a0 CAD0     		beq	.L398
 3129 00a2 1846     		mov	r0, r3
 3130 00a4 0221     		movs	r1, #2
 3131 00a6 0022     		movs	r2, #0
 3132 00a8 A847     		blx	r5
 3133              	.LVL349:
 3134 00aa 2368     		ldr	r3, [r4]
 3135              		.loc 1 885 0 discriminator 1
 3136 00ac 03F10C00 		add	r0, r3, #12
 3137 00b0 FFF7FEFF 		bl	sys_sem_valid
 3138              	.LVL350:
 3139 00b4 0028     		cmp	r0, #0
 3140 00b6 C5D0     		beq	.L394
 3141              	.L427:
 3142              		.loc 1 886 0
 3143 00b8 2068     		ldr	r0, [r4]
 3144 00ba 0C30     		adds	r0, r0, #12
 3145              		.loc 1 888 0
 3146 00bc 03B0     		add	sp, sp, #12
 3147              		.cfi_remember_state
 3148              		.cfi_def_cfa_offset 12
 3149              		@ sp needed
 3150 00be BDE83040 		pop	{r4, r5, lr}
 3151              		.cfi_restore 14
 3152              		.cfi_restore 5
 3153              		.cfi_restore 4
 3154              		.cfi_def_cfa_offset 0
 3155              	.LVL351:
 3156              		.loc 1 886 0
 3157 00c2 FFF7FEBF 		b	sys_sem_signal
 3158              	.LVL352:
 3159              	.L401:
 3160              		.cfi_restore_state
 3161              		.loc 1 857 0
 3162 00c6 0022     		movs	r2, #0
 3163 00c8 C261     		str	r2, [r0, #28]
 3164              		.loc 1 858 0
 3165 00ca 5868     		ldr	r0, [r3, #4]
 3166 00cc FFF7FEFF 		bl	udp_remove
 3167              	.LVL353:
 3168 00d0 2368     		ldr	r3, [r4]
 3169              		.loc 1 859 0
 3170 00d2 D8E7     		b	.L400
 3171              	.L428:
 3172              		.loc 1 863 0
 3173 00d4 5A6A     		ldr	r2, [r3, #36]
 3174 00d6 DAB1     		cbz	r2, .L429
 3175              	.L404:
 3176              		.loc 1 863 0 is_stmt 0 discriminator 3
 3177 00d8 0F4B     		ldr	r3, .L430
 3178 00da 0093     		str	r3, [sp]
 3179 00dc 0F49     		ldr	r1, .L430+4
 3180 00de 134A     		ldr	r2, .L430+20
 3181 00e0 1048     		ldr	r0, .L430+12
 3182 00e2 4FF45873 		mov	r3, #864
ARM GAS  C:\Users\jo\AppData\Local\Temp\ccLDsGlj.s 			page 57


 3183 00e6 FFF7FEFF 		bl	chprintf.constprop.1
 3184              	.LVL354:
 3185              	.LBB172:
 3186              	.LBB173:
 3187              		.loc 3 414 0 is_stmt 1 discriminator 3
 3188 00ea 1048     		ldr	r0, .L430+20
 3189 00ec FFF7FEFF 		bl	chSysHalt
 3190              	.LVL355:
 3191 00f0 2368     		ldr	r3, [r4]
 3192              	.LVL356:
 3193              	.L405:
 3194              	.LBE173:
 3195              	.LBE172:
 3196              		.loc 1 865 0
 3197 00f2 0421     		movs	r1, #4
 3198              		.loc 1 866 0
 3199 00f4 0322     		movs	r2, #3
 3200              		.loc 1 868 0
 3201 00f6 1846     		mov	r0, r3
 3202              		.loc 1 865 0
 3203 00f8 5970     		strb	r1, [r3, #1]
 3204              		.loc 1 866 0
 3205 00fa 2272     		strb	r2, [r4, #8]
 3206              		.loc 1 867 0
 3207 00fc 5C62     		str	r4, [r3, #36]
 3208              		.loc 1 888 0
 3209 00fe 03B0     		add	sp, sp, #12
 3210              		.cfi_remember_state
 3211              		.cfi_def_cfa_offset 12
 3212              		@ sp needed
 3213 0100 BDE83040 		pop	{r4, r5, lr}
 3214              		.cfi_restore 14
 3215              		.cfi_restore 5
 3216              		.cfi_restore 4
 3217              		.cfi_def_cfa_offset 0
 3218              	.LVL357:
 3219              		.loc 1 868 0
 3220 0104 FFF7FEBF 		b	do_close_internal
 3221              	.LVL358:
 3222              	.L402:
 3223              		.cfi_restore_state
 3224              		.loc 1 852 0
 3225 0108 FFF7FEFF 		bl	raw_remove
 3226              	.LVL359:
 3227 010c 2368     		ldr	r3, [r4]
 3228              		.loc 1 853 0
 3229 010e BAE7     		b	.L400
 3230              	.L429:
 3231              		.loc 1 863 0 discriminator 2
 3232 0110 1A6A     		ldr	r2, [r3, #32]
 3233 0112 002A     		cmp	r2, #0
 3234 0114 E0D1     		bne	.L404
 3235 0116 ECE7     		b	.L405
 3236              	.L431:
 3237              		.align	2
 3238              	.L430:
 3239 0118 4C000000 		.word	.LC2
ARM GAS  C:\Users\jo\AppData\Local\Temp\ccLDsGlj.s 			page 58


 3240 011c 00000000 		.word	.LC0
 3241 0120 E0030000 		.word	.LC27
 3242 0124 00000000 		.word	itm_port
 3243 0128 00040000 		.word	.LC28
 3244 012c 20040000 		.word	.LC29
 3245              		.cfi_endproc
 3246              	.LFE270:
 3247              		.size	do_delconn, .-do_delconn
 3248              		.section	.text.do_bind,"ax",%progbits
 3249              		.align	2
 3250              		.p2align 4,,15
 3251              		.global	do_bind
 3252              		.thumb
 3253              		.thumb_func
 3254              		.type	do_bind, %function
 3255              	do_bind:
 3256              	.LFB271:
 3257              		.loc 1 899 0
 3258              		.cfi_startproc
 3259              		@ args = 0, pretend = 0, frame = 0
 3260              		@ frame_needed = 0, uses_anonymous_args = 0
 3261              	.LVL360:
 3262              		.loc 1 900 0
 3263 0000 0368     		ldr	r3, [r0]
 3264 0002 1A7A     		ldrb	r2, [r3, #8]	@ zero_extendqisi2
 3265 0004 51B2     		sxtb	r1, r2
 3266 0006 0931     		adds	r1, r1, #9
 3267 0008 14DB     		blt	.L444
 3268              		.loc 1 903 0
 3269 000a FA22     		movs	r2, #250
 3270 000c 0271     		strb	r2, [r0, #4]
 3271              		.loc 1 904 0
 3272 000e 5968     		ldr	r1, [r3, #4]
 3273 0010 89B1     		cbz	r1, .L442
 3274              		.loc 1 905 0
 3275 0012 1A78     		ldrb	r2, [r3]	@ zero_extendqisi2
 3276 0014 02F0F002 		and	r2, r2, #240
 3277 0018 202A     		cmp	r2, #32
 3278              		.loc 1 899 0
 3279 001a 10B5     		push	{r4, lr}
 3280              		.cfi_def_cfa_offset 8
 3281              		.cfi_offset 4, -8
 3282              		.cfi_offset 14, -4
 3283 001c 0446     		mov	r4, r0
 3284              		.loc 1 905 0
 3285 001e 0ED0     		beq	.L435
 3286 0020 402A     		cmp	r2, #64
 3287 0022 26D0     		beq	.L436
 3288 0024 102A     		cmp	r2, #16
 3289 0026 17D0     		beq	.L445
 3290              		.loc 1 926 0
 3291 0028 03F10C00 		add	r0, r3, #12
 3292              	.LVL361:
 3293              		.loc 1 927 0
 3294 002c BDE81040 		pop	{r4, lr}
 3295              		.cfi_restore 14
 3296              		.cfi_restore 4
ARM GAS  C:\Users\jo\AppData\Local\Temp\ccLDsGlj.s 			page 59


 3297              		.cfi_def_cfa_offset 0
 3298              	.LVL362:
 3299              		.loc 1 926 0
 3300 0030 FFF7FEBF 		b	sys_sem_signal
 3301              	.LVL363:
 3302              	.L444:
 3303              		.loc 1 901 0
 3304 0034 0271     		strb	r2, [r0, #4]
 3305              	.L442:
 3306              		.loc 1 926 0
 3307 0036 03F10C00 		add	r0, r3, #12
 3308              	.LVL364:
 3309 003a FFF7FEBF 		b	sys_sem_signal
 3310              	.LVL365:
 3311              	.L435:
 3312              		.cfi_def_cfa_offset 8
 3313              		.cfi_offset 4, -8
 3314              		.cfi_offset 14, -4
 3315              		.loc 1 913 0
 3316 003e 0846     		mov	r0, r1
 3317              	.LVL366:
 3318 0040 A289     		ldrh	r2, [r4, #12]
 3319 0042 A168     		ldr	r1, [r4, #8]
 3320 0044 FFF7FEFF 		bl	udp_bind
 3321              	.LVL367:
 3322 0048 2368     		ldr	r3, [r4]
 3323 004a 2071     		strb	r0, [r4, #4]
 3324              		.loc 1 927 0
 3325 004c BDE81040 		pop	{r4, lr}
 3326              		.cfi_remember_state
 3327              		.cfi_restore 4
 3328              		.cfi_restore 14
 3329              		.cfi_def_cfa_offset 0
 3330              	.LVL368:
 3331              		.loc 1 926 0
 3332 0050 03F10C00 		add	r0, r3, #12
 3333 0054 FFF7FEBF 		b	sys_sem_signal
 3334              	.LVL369:
 3335              	.L445:
 3336              		.cfi_restore_state
 3337              		.loc 1 918 0
 3338 0058 0846     		mov	r0, r1
 3339              	.LVL370:
 3340 005a A289     		ldrh	r2, [r4, #12]
 3341 005c A168     		ldr	r1, [r4, #8]
 3342 005e FFF7FEFF 		bl	tcp_bind
 3343              	.LVL371:
 3344 0062 2368     		ldr	r3, [r4]
 3345 0064 2071     		strb	r0, [r4, #4]
 3346              		.loc 1 927 0
 3347 0066 BDE81040 		pop	{r4, lr}
 3348              		.cfi_remember_state
 3349              		.cfi_restore 4
 3350              		.cfi_restore 14
 3351              		.cfi_def_cfa_offset 0
 3352              	.LVL372:
 3353              		.loc 1 926 0
ARM GAS  C:\Users\jo\AppData\Local\Temp\ccLDsGlj.s 			page 60


 3354 006a 03F10C00 		add	r0, r3, #12
 3355 006e FFF7FEBF 		b	sys_sem_signal
 3356              	.LVL373:
 3357              	.L436:
 3358              		.cfi_restore_state
 3359              		.loc 1 908 0
 3360 0072 0846     		mov	r0, r1
 3361              	.LVL374:
 3362 0074 A168     		ldr	r1, [r4, #8]
 3363 0076 FFF7FEFF 		bl	raw_bind
 3364              	.LVL375:
 3365 007a 2368     		ldr	r3, [r4]
 3366 007c 2071     		strb	r0, [r4, #4]
 3367              		.loc 1 927 0
 3368 007e BDE81040 		pop	{r4, lr}
 3369              		.cfi_restore 4
 3370              		.cfi_restore 14
 3371              		.cfi_def_cfa_offset 0
 3372              	.LVL376:
 3373              		.loc 1 926 0
 3374 0082 03F10C00 		add	r0, r3, #12
 3375 0086 FFF7FEBF 		b	sys_sem_signal
 3376              	.LVL377:
 3377              		.cfi_endproc
 3378              	.LFE271:
 3379              		.size	do_bind, .-do_bind
 3380 008a 00BFAFF3 		.section	.text.do_connect,"ax",%progbits
 3380      0080
 3381              		.align	2
 3382              		.p2align 4,,15
 3383              		.global	do_connect
 3384              		.thumb
 3385              		.thumb_func
 3386              		.type	do_connect, %function
 3387              	do_connect:
 3388              	.LFB273:
 3389              		.loc 1 985 0
 3390              		.cfi_startproc
 3391              		@ args = 0, pretend = 0, frame = 0
 3392              		@ frame_needed = 0, uses_anonymous_args = 0
 3393              	.LVL378:
 3394              		.loc 1 986 0
 3395 0000 0368     		ldr	r3, [r0]
 3396 0002 5968     		ldr	r1, [r3, #4]
 3397 0004 0029     		cmp	r1, #0
 3398 0006 60D0     		beq	.L461
 3399              		.loc 1 985 0
 3400 0008 10B5     		push	{r4, lr}
 3401              		.cfi_def_cfa_offset 8
 3402              		.cfi_offset 4, -8
 3403              		.cfi_offset 14, -4
 3404              		.loc 1 990 0
 3405 000a 1A78     		ldrb	r2, [r3]	@ zero_extendqisi2
 3406 000c 02F0F002 		and	r2, r2, #240
 3407 0010 202A     		cmp	r2, #32
 3408              		.loc 1 985 0
 3409 0012 82B0     		sub	sp, sp, #8
ARM GAS  C:\Users\jo\AppData\Local\Temp\ccLDsGlj.s 			page 61


 3410              		.cfi_def_cfa_offset 16
 3411 0014 0446     		mov	r4, r0
 3412              		.loc 1 990 0
 3413 0016 31D0     		beq	.L450
 3414 0018 402A     		cmp	r2, #64
 3415 001a 17D0     		beq	.L451
 3416 001c 102A     		cmp	r2, #16
 3417 001e 22D0     		beq	.L462
 3418              		.loc 1 1027 0 discriminator 1
 3419 0020 314B     		ldr	r3, .L464
 3420 0022 324A     		ldr	r2, .L464+4
 3421 0024 0093     		str	r3, [sp]
 3422 0026 3249     		ldr	r1, .L464+8
 3423 0028 3248     		ldr	r0, .L464+12
 3424              	.LVL379:
 3425 002a 40F20343 		movw	r3, #1027
 3426 002e FFF7FEFF 		bl	chprintf.constprop.1
 3427              	.LVL380:
 3428              	.LBB174:
 3429              	.LBB175:
 3430              		.loc 3 414 0 discriminator 1
 3431 0032 2E48     		ldr	r0, .L464+4
 3432 0034 FFF7FEFF 		bl	chSysHalt
 3433              	.LVL381:
 3434              	.LBE175:
 3435              	.LBE174:
 3436              		.loc 1 1027 0 discriminator 1
 3437 0038 FA22     		movs	r2, #250
 3438 003a 2368     		ldr	r3, [r4]
 3439 003c 2271     		strb	r2, [r4, #4]
 3440              	.LVL382:
 3441              	.L448:
 3442              		.loc 1 1031 0
 3443 003e 03F10C00 		add	r0, r3, #12
 3444              		.loc 1 1032 0
 3445 0042 02B0     		add	sp, sp, #8
 3446              		.cfi_remember_state
 3447              		.cfi_def_cfa_offset 8
 3448              		@ sp needed
 3449 0044 BDE81040 		pop	{r4, lr}
 3450              		.cfi_restore 14
 3451              		.cfi_restore 4
 3452              		.cfi_def_cfa_offset 0
 3453              	.LVL383:
 3454              		.loc 1 1031 0
 3455 0048 FFF7FEBF 		b	sys_sem_signal
 3456              	.LVL384:
 3457              	.L451:
 3458              		.cfi_restore_state
 3459              		.loc 1 993 0
 3460 004c 0846     		mov	r0, r1
 3461              	.LVL385:
 3462 004e A168     		ldr	r1, [r4, #8]
 3463 0050 FFF7FEFF 		bl	raw_connect
 3464              	.LVL386:
 3465 0054 2368     		ldr	r3, [r4]
 3466 0056 2071     		strb	r0, [r4, #4]
ARM GAS  C:\Users\jo\AppData\Local\Temp\ccLDsGlj.s 			page 62


 3467              		.loc 1 1031 0
 3468 0058 03F10C00 		add	r0, r3, #12
 3469              		.loc 1 1032 0
 3470 005c 02B0     		add	sp, sp, #8
 3471              		.cfi_remember_state
 3472              		.cfi_def_cfa_offset 8
 3473              		@ sp needed
 3474 005e BDE81040 		pop	{r4, lr}
 3475              		.cfi_restore 4
 3476              		.cfi_restore 14
 3477              		.cfi_def_cfa_offset 0
 3478              	.LVL387:
 3479              		.loc 1 1031 0
 3480 0062 FFF7FEBF 		b	sys_sem_signal
 3481              	.LVL388:
 3482              	.L462:
 3483              		.cfi_restore_state
 3484              		.loc 1 1004 0
 3485 0066 5A78     		ldrb	r2, [r3, #1]	@ zero_extendqisi2
 3486 0068 B2B1     		cbz	r2, .L453
 3487              		.loc 1 1005 0
 3488 006a F722     		movs	r2, #247
 3489 006c 0271     		strb	r2, [r0, #4]
 3490              		.loc 1 1031 0
 3491 006e 03F10C00 		add	r0, r3, #12
 3492              	.LVL389:
 3493              		.loc 1 1032 0
 3494 0072 02B0     		add	sp, sp, #8
 3495              		.cfi_remember_state
 3496              		.cfi_def_cfa_offset 8
 3497              		@ sp needed
 3498 0074 BDE81040 		pop	{r4, lr}
 3499              		.cfi_restore 4
 3500              		.cfi_restore 14
 3501              		.cfi_def_cfa_offset 0
 3502              	.LVL390:
 3503              		.loc 1 1031 0
 3504 0078 FFF7FEBF 		b	sys_sem_signal
 3505              	.LVL391:
 3506              	.L450:
 3507              		.cfi_restore_state
 3508              		.loc 1 998 0
 3509 007c 0846     		mov	r0, r1
 3510              	.LVL392:
 3511 007e A289     		ldrh	r2, [r4, #12]
 3512 0080 A168     		ldr	r1, [r4, #8]
 3513 0082 FFF7FEFF 		bl	udp_connect
 3514              	.LVL393:
 3515 0086 2368     		ldr	r3, [r4]
 3516 0088 2071     		strb	r0, [r4, #4]
 3517              		.loc 1 1031 0
 3518 008a 03F10C00 		add	r0, r3, #12
 3519              		.loc 1 1032 0
 3520 008e 02B0     		add	sp, sp, #8
 3521              		.cfi_remember_state
 3522              		.cfi_def_cfa_offset 8
 3523              		@ sp needed
ARM GAS  C:\Users\jo\AppData\Local\Temp\ccLDsGlj.s 			page 63


 3524 0090 BDE81040 		pop	{r4, lr}
 3525              		.cfi_restore 4
 3526              		.cfi_restore 14
 3527              		.cfi_def_cfa_offset 0
 3528              	.LVL394:
 3529              		.loc 1 1031 0
 3530 0094 FFF7FEBF 		b	sys_sem_signal
 3531              	.LVL395:
 3532              	.L453:
 3533              		.cfi_restore_state
 3534              		.loc 1 1007 0
 3535 0098 1846     		mov	r0, r3
 3536              	.LVL396:
 3537 009a FFF7FEFF 		bl	setup_tcp
 3538              	.LVL397:
 3539              		.loc 1 1008 0
 3540 009e 2368     		ldr	r3, [r4]
 3541 00a0 A168     		ldr	r1, [r4, #8]
 3542 00a2 5868     		ldr	r0, [r3, #4]
 3543 00a4 A289     		ldrh	r2, [r4, #12]
 3544 00a6 144B     		ldr	r3, .L464+16
 3545 00a8 FFF7FEFF 		bl	tcp_connect
 3546              	.LVL398:
 3547 00ac 2071     		strb	r0, [r4, #4]
 3548              		.loc 1 1010 0
 3549 00ae 90B9     		cbnz	r0, .L463
 3550              	.LBB176:
 3551              		.loc 1 1011 0
 3552 00b0 2268     		ldr	r2, [r4]
 3553 00b2 137F     		ldrb	r3, [r2, #28]	@ zero_extendqisi2
 3554              	.LVL399:
 3555              		.loc 1 1012 0
 3556 00b4 0321     		movs	r1, #3
 3557 00b6 5170     		strb	r1, [r2, #1]
 3558              		.loc 1 1013 0
 3559 00b8 9907     		lsls	r1, r3, #30
 3560 00ba 0ED5     		bpl	.L455
 3561              		.loc 1 1013 0 is_stmt 0 discriminator 1
 3562 00bc 43F00403 		orr	r3, r3, #4
 3563              	.LVL400:
 3564 00c0 1377     		strb	r3, [r2, #28]
 3565              	.LVL401:
 3566              		.loc 1 1015 0 is_stmt 1 discriminator 1
 3567 00c2 FB22     		movs	r2, #251
 3568 00c4 2368     		ldr	r3, [r4]
 3569 00c6 2271     		strb	r2, [r4, #4]
 3570 00c8 B9E7     		b	.L448
 3571              	.LVL402:
 3572              	.L461:
 3573              		.cfi_def_cfa_offset 0
 3574              		.cfi_restore 4
 3575              		.cfi_restore 14
 3576              	.LBE176:
 3577              		.loc 1 988 0
 3578 00ca F422     		movs	r2, #244
 3579 00cc 0271     		strb	r2, [r0, #4]
 3580              		.loc 1 1031 0
ARM GAS  C:\Users\jo\AppData\Local\Temp\ccLDsGlj.s 			page 64


 3581 00ce 03F10C00 		add	r0, r3, #12
 3582              	.LVL403:
 3583 00d2 FFF7FEBF 		b	sys_sem_signal
 3584              	.LVL404:
 3585              	.L463:
 3586              		.cfi_def_cfa_offset 16
 3587              		.cfi_offset 4, -8
 3588              		.cfi_offset 14, -4
 3589 00d6 2368     		ldr	r3, [r4]
 3590 00d8 B1E7     		b	.L448
 3591              	.LVL405:
 3592              	.L455:
 3593              	.LBB177:
 3594              		.loc 1 1013 0 discriminator 2
 3595 00da 23F00403 		bic	r3, r3, #4
 3596              	.LVL406:
 3597 00de 1377     		strb	r3, [r2, #28]
 3598              	.LVL407:
 3599              		.loc 1 1017 0 discriminator 2
 3600 00e0 2368     		ldr	r3, [r4]
 3601 00e2 5C62     		str	r4, [r3, #36]
 3602              	.LBE177:
 3603              		.loc 1 1032 0 discriminator 2
 3604 00e4 02B0     		add	sp, sp, #8
 3605              		.cfi_def_cfa_offset 8
 3606              		@ sp needed
 3607 00e6 10BD     		pop	{r4, pc}
 3608              	.LVL408:
 3609              	.L465:
 3610              		.align	2
 3611              	.L464:
 3612 00e8 4C000000 		.word	.LC2
 3613 00ec 3C040000 		.word	.LC30
 3614 00f0 00000000 		.word	.LC0
 3615 00f4 00000000 		.word	itm_port
 3616 00f8 00000000 		.word	do_connected
 3617              		.cfi_endproc
 3618              	.LFE273:
 3619              		.size	do_connect, .-do_connect
 3620 00fc AFF30080 		.section	.text.do_disconnect,"ax",%progbits
 3621              		.align	2
 3622              		.p2align 4,,15
 3623              		.global	do_disconnect
 3624              		.thumb
 3625              		.thumb_func
 3626              		.type	do_disconnect, %function
 3627              	do_disconnect:
 3628              	.LFB274:
 3629              		.loc 1 1043 0
 3630              		.cfi_startproc
 3631              		@ args = 0, pretend = 0, frame = 0
 3632              		@ frame_needed = 0, uses_anonymous_args = 0
 3633              	.LVL409:
 3634              		.loc 1 1045 0
 3635 0000 0268     		ldr	r2, [r0]
 3636 0002 1378     		ldrb	r3, [r2]	@ zero_extendqisi2
 3637 0004 03F0F003 		and	r3, r3, #240
ARM GAS  C:\Users\jo\AppData\Local\Temp\ccLDsGlj.s 			page 65


 3638 0008 202B     		cmp	r3, #32
 3639 000a 05D0     		beq	.L471
 3640              		.loc 1 1051 0
 3641 000c FA23     		movs	r3, #250
 3642 000e 0371     		strb	r3, [r0, #4]
 3643              		.loc 1 1053 0
 3644 0010 02F10C00 		add	r0, r2, #12
 3645              	.LVL410:
 3646 0014 FFF7FEBF 		b	sys_sem_signal
 3647              	.LVL411:
 3648              	.L471:
 3649              		.loc 1 1043 0
 3650 0018 10B5     		push	{r4, lr}
 3651              		.cfi_def_cfa_offset 8
 3652              		.cfi_offset 4, -8
 3653              		.cfi_offset 14, -4
 3654 001a 0446     		mov	r4, r0
 3655              		.loc 1 1046 0
 3656 001c 5068     		ldr	r0, [r2, #4]
 3657              	.LVL412:
 3658 001e FFF7FEFF 		bl	udp_disconnect
 3659              	.LVL413:
 3660 0022 2268     		ldr	r2, [r4]
 3661              		.loc 1 1047 0
 3662 0024 0023     		movs	r3, #0
 3663 0026 2371     		strb	r3, [r4, #4]
 3664              		.loc 1 1053 0
 3665 0028 02F10C00 		add	r0, r2, #12
 3666              		.loc 1 1054 0
 3667 002c BDE81040 		pop	{r4, lr}
 3668              		.cfi_restore 14
 3669              		.cfi_restore 4
 3670              		.cfi_def_cfa_offset 0
 3671              	.LVL414:
 3672              		.loc 1 1053 0
 3673 0030 FFF7FEBF 		b	sys_sem_signal
 3674              	.LVL415:
 3675              		.cfi_endproc
 3676              	.LFE274:
 3677              		.size	do_disconnect, .-do_disconnect
 3678 0034 AFF30080 		.section	.text.do_listen,"ax",%progbits
 3678      AFF30080 
 3678      AFF30080 
 3679              		.align	2
 3680              		.p2align 4,,15
 3681              		.global	do_listen
 3682              		.thumb
 3683              		.thumb_func
 3684              		.type	do_listen, %function
 3685              	do_listen:
 3686              	.LFB275:
 3687              		.loc 1 1065 0
 3688              		.cfi_startproc
 3689              		@ args = 0, pretend = 0, frame = 0
 3690              		@ frame_needed = 0, uses_anonymous_args = 0
 3691              	.LVL416:
 3692 0000 38B5     		push	{r3, r4, r5, lr}
ARM GAS  C:\Users\jo\AppData\Local\Temp\ccLDsGlj.s 			page 66


 3693              		.cfi_def_cfa_offset 16
 3694              		.cfi_offset 3, -16
 3695              		.cfi_offset 4, -12
 3696              		.cfi_offset 5, -8
 3697              		.cfi_offset 14, -4
 3698              		.loc 1 1066 0
 3699 0002 0368     		ldr	r3, [r0]
 3700 0004 1A7A     		ldrb	r2, [r3, #8]	@ zero_extendqisi2
 3701 0006 51B2     		sxtb	r1, r2
 3702 0008 0931     		adds	r1, r1, #9
 3703 000a 07DB     		blt	.L488
 3704              		.loc 1 1069 0
 3705 000c F322     		movs	r2, #243
 3706 000e 0271     		strb	r2, [r0, #4]
 3707              		.loc 1 1070 0
 3708 0010 5A68     		ldr	r2, [r3, #4]
 3709 0012 22B1     		cbz	r2, .L474
 3710              		.loc 1 1071 0
 3711 0014 1978     		ldrb	r1, [r3]	@ zero_extendqisi2
 3712 0016 1029     		cmp	r1, #16
 3713 0018 07D0     		beq	.L489
 3714              		.loc 1 1105 0
 3715 001a F222     		movs	r2, #242
 3716              	.L488:
 3717 001c 0271     		strb	r2, [r0, #4]
 3718              	.LVL417:
 3719              	.L474:
 3720              		.loc 1 1109 0
 3721 001e 03F10C00 		add	r0, r3, #12
 3722              		.loc 1 1110 0
 3723 0022 BDE83840 		pop	{r3, r4, r5, lr}
 3724              		.cfi_remember_state
 3725              		.cfi_restore 14
 3726              		.cfi_restore 5
 3727              		.cfi_restore 4
 3728              		.cfi_restore 3
 3729              		.cfi_def_cfa_offset 0
 3730              		.loc 1 1109 0
 3731 0026 FFF7FEBF 		b	sys_sem_signal
 3732              	.LVL418:
 3733              	.L489:
 3734              		.cfi_restore_state
 3735              		.loc 1 1072 0
 3736 002a 5978     		ldrb	r1, [r3, #1]	@ zero_extendqisi2
 3737 002c 0029     		cmp	r1, #0
 3738 002e F6D1     		bne	.L474
 3739 0030 0446     		mov	r4, r0
 3740              	.LBB178:
 3741              		.loc 1 1076 0
 3742 0032 FF21     		movs	r1, #255
 3743 0034 1046     		mov	r0, r2
 3744              	.LVL419:
 3745 0036 FFF7FEFF 		bl	tcp_listen_with_backlog
 3746              	.LVL420:
 3747              		.loc 1 1078 0
 3748 003a 0546     		mov	r5, r0
 3749 003c E0B1     		cbz	r0, .L490
ARM GAS  C:\Users\jo\AppData\Local\Temp\ccLDsGlj.s 			page 67


 3750              		.loc 1 1083 0
 3751 003e 2068     		ldr	r0, [r4]
 3752              	.LVL421:
 3753 0040 1030     		adds	r0, r0, #16
 3754 0042 FFF7FEFF 		bl	sys_mbox_valid
 3755              	.LVL422:
 3756 0046 50BB     		cbnz	r0, .L491
 3757              	.L477:
 3758              		.loc 1 1089 0
 3759 0048 2068     		ldr	r0, [r4]
 3760              		.loc 1 1088 0
 3761 004a 0023     		movs	r3, #0
 3762              		.loc 1 1089 0
 3763 004c 1430     		adds	r0, r0, #20
 3764              		.loc 1 1088 0
 3765 004e 2371     		strb	r3, [r4, #4]
 3766              		.loc 1 1089 0
 3767 0050 FFF7FEFF 		bl	sys_mbox_valid
 3768              	.LVL423:
 3769 0054 E0B1     		cbz	r0, .L478
 3770 0056 2079     		ldrb	r0, [r4, #4]	@ zero_extendqisi2
 3771              	.L479:
 3772              		.loc 1 1092 0
 3773 0058 90B9     		cbnz	r0, .L480
 3774              		.loc 1 1093 0
 3775 005a 2368     		ldr	r3, [r4]
 3776              		.loc 1 1094 0
 3777 005c 5D60     		str	r5, [r3, #4]
 3778              		.loc 1 1095 0
 3779 005e 2168     		ldr	r1, [r4]
 3780              		.loc 1 1093 0
 3781 0060 0222     		movs	r2, #2
 3782 0062 5A70     		strb	r2, [r3, #1]
 3783              		.loc 1 1095 0
 3784 0064 4868     		ldr	r0, [r1, #4]
 3785 0066 FFF7FEFF 		bl	tcp_arg
 3786              	.LVL424:
 3787              		.loc 1 1096 0
 3788 006a 2368     		ldr	r3, [r4]
 3789 006c 1049     		ldr	r1, .L492
 3790 006e 5868     		ldr	r0, [r3, #4]
 3791 0070 FFF7FEFF 		bl	tcp_accept
 3792              	.LVL425:
 3793 0074 2368     		ldr	r3, [r4]
 3794 0076 D2E7     		b	.L474
 3795              	.LVL426:
 3796              	.L490:
 3797              		.loc 1 1080 0
 3798 0078 FF23     		movs	r3, #255
 3799 007a 2371     		strb	r3, [r4, #4]
 3800 007c 2368     		ldr	r3, [r4]
 3801 007e CEE7     		b	.L474
 3802              	.LVL427:
 3803              	.L480:
 3804              		.loc 1 1099 0
 3805 0080 2846     		mov	r0, r5
 3806 0082 FFF7FEFF 		bl	tcp_close
ARM GAS  C:\Users\jo\AppData\Local\Temp\ccLDsGlj.s 			page 68


 3807              	.LVL428:
 3808              		.loc 1 1100 0
 3809 0086 2368     		ldr	r3, [r4]
 3810 0088 0022     		movs	r2, #0
 3811 008a 5A60     		str	r2, [r3, #4]
 3812 008c 2368     		ldr	r3, [r4]
 3813 008e C6E7     		b	.L474
 3814              	.L478:
 3815              		.loc 1 1090 0
 3816 0090 2068     		ldr	r0, [r4]
 3817 0092 0421     		movs	r1, #4
 3818 0094 1430     		adds	r0, r0, #20
 3819 0096 FFF7FEFF 		bl	sys_mbox_new
 3820              	.LVL429:
 3821 009a 2071     		strb	r0, [r4, #4]
 3822 009c DCE7     		b	.L479
 3823              	.L491:
 3824              		.loc 1 1085 0
 3825 009e 2068     		ldr	r0, [r4]
 3826 00a0 1030     		adds	r0, r0, #16
 3827 00a2 FFF7FEFF 		bl	sys_mbox_free
 3828              	.LVL430:
 3829              		.loc 1 1086 0
 3830 00a6 2068     		ldr	r0, [r4]
 3831 00a8 1030     		adds	r0, r0, #16
 3832 00aa FFF7FEFF 		bl	sys_mbox_set_invalid
 3833              	.LVL431:
 3834 00ae CBE7     		b	.L477
 3835              	.L493:
 3836              		.align	2
 3837              	.L492:
 3838 00b0 00000000 		.word	accept_function
 3839              	.LBE178:
 3840              		.cfi_endproc
 3841              	.LFE275:
 3842              		.size	do_listen, .-do_listen
 3843 00b4 AFF30080 		.section	.text.do_send,"ax",%progbits
 3843      AFF30080 
 3843      AFF30080 
 3844              		.align	2
 3845              		.p2align 4,,15
 3846              		.global	do_send
 3847              		.thumb
 3848              		.thumb_func
 3849              		.type	do_send, %function
 3850              	do_send:
 3851              	.LFB276:
 3852              		.loc 1 1121 0
 3853              		.cfi_startproc
 3854              		@ args = 0, pretend = 0, frame = 0
 3855              		@ frame_needed = 0, uses_anonymous_args = 0
 3856              	.LVL432:
 3857              		.loc 1 1122 0
 3858 0000 0368     		ldr	r3, [r0]
 3859 0002 1A7A     		ldrb	r2, [r3, #8]	@ zero_extendqisi2
 3860 0004 51B2     		sxtb	r1, r2
 3861 0006 0931     		adds	r1, r1, #9
ARM GAS  C:\Users\jo\AppData\Local\Temp\ccLDsGlj.s 			page 69


 3862 0008 1EDB     		blt	.L514
 3863              		.loc 1 1125 0
 3864 000a F322     		movs	r2, #243
 3865 000c 0271     		strb	r2, [r0, #4]
 3866              		.loc 1 1126 0
 3867 000e 5968     		ldr	r1, [r3, #4]
 3868 0010 D9B1     		cbz	r1, .L513
 3869              		.loc 1 1127 0
 3870 0012 1A78     		ldrb	r2, [r3]	@ zero_extendqisi2
 3871 0014 02F0F002 		and	r2, r2, #240
 3872 0018 202A     		cmp	r2, #32
 3873              		.loc 1 1121 0
 3874 001a 10B5     		push	{r4, lr}
 3875              		.cfi_def_cfa_offset 8
 3876              		.cfi_offset 4, -8
 3877              		.cfi_offset 14, -4
 3878 001c 0446     		mov	r4, r0
 3879              		.loc 1 1127 0
 3880 001e 18D0     		beq	.L497
 3881 0020 402A     		cmp	r2, #64
 3882 0022 0BD1     		bne	.L496
 3883              		.loc 1 1130 0
 3884 0024 8368     		ldr	r3, [r0, #8]
 3885 0026 13F10802 		adds	r2, r3, #8
 3886 002a 01D0     		beq	.L499
 3887              		.loc 1 1130 0 is_stmt 0 discriminator 1
 3888 002c 9868     		ldr	r0, [r3, #8]
 3889              	.LVL433:
 3890 002e 50BB     		cbnz	r0, .L500
 3891              	.L499:
 3892              		.loc 1 1131 0 is_stmt 1
 3893 0030 0846     		mov	r0, r1
 3894 0032 1968     		ldr	r1, [r3]
 3895 0034 FFF7FEFF 		bl	raw_send
 3896              	.LVL434:
 3897 0038 2368     		ldr	r3, [r4]
 3898 003a 2071     		strb	r0, [r4, #4]
 3899              	.L496:
 3900              		.loc 1 1162 0
 3901 003c 03F10C00 		add	r0, r3, #12
 3902              		.loc 1 1163 0
 3903 0040 BDE81040 		pop	{r4, lr}
 3904              		.cfi_restore 14
 3905              		.cfi_restore 4
 3906              		.cfi_def_cfa_offset 0
 3907              	.LVL435:
 3908              		.loc 1 1162 0
 3909 0044 FFF7FEBF 		b	sys_sem_signal
 3910              	.LVL436:
 3911              	.L514:
 3912              		.loc 1 1123 0
 3913 0048 0271     		strb	r2, [r0, #4]
 3914              	.L513:
 3915              		.loc 1 1162 0
 3916 004a 03F10C00 		add	r0, r3, #12
 3917              	.LVL437:
 3918 004e FFF7FEBF 		b	sys_sem_signal
ARM GAS  C:\Users\jo\AppData\Local\Temp\ccLDsGlj.s 			page 70


 3919              	.LVL438:
 3920              	.L497:
 3921              		.cfi_def_cfa_offset 8
 3922              		.cfi_offset 4, -8
 3923              		.cfi_offset 14, -4
 3924              		.loc 1 1149 0
 3925 0052 8368     		ldr	r3, [r0, #8]
 3926 0054 13F10802 		adds	r2, r3, #8
 3927 0058 01D0     		beq	.L501
 3928              		.loc 1 1149 0 is_stmt 0 discriminator 1
 3929 005a 9868     		ldr	r0, [r3, #8]
 3930              	.LVL439:
 3931 005c 58B9     		cbnz	r0, .L502
 3932              	.L501:
 3933              		.loc 1 1150 0 is_stmt 1
 3934 005e 0846     		mov	r0, r1
 3935 0060 1968     		ldr	r1, [r3]
 3936 0062 FFF7FEFF 		bl	udp_send
 3937              	.LVL440:
 3938 0066 2368     		ldr	r3, [r4]
 3939 0068 2071     		strb	r0, [r4, #4]
 3940              		.loc 1 1163 0
 3941 006a BDE81040 		pop	{r4, lr}
 3942              		.cfi_remember_state
 3943              		.cfi_restore 4
 3944              		.cfi_restore 14
 3945              		.cfi_def_cfa_offset 0
 3946              	.LVL441:
 3947              		.loc 1 1162 0
 3948 006e 03F10C00 		add	r0, r3, #12
 3949 0072 FFF7FEBF 		b	sys_sem_signal
 3950              	.LVL442:
 3951              	.L502:
 3952              		.cfi_restore_state
 3953              		.loc 1 1152 0
 3954 0076 0846     		mov	r0, r1
 3955 0078 1968     		ldr	r1, [r3]
 3956 007a 9B89     		ldrh	r3, [r3, #12]
 3957 007c FFF7FEFF 		bl	udp_sendto
 3958              	.LVL443:
 3959 0080 2368     		ldr	r3, [r4]
 3960 0082 2071     		strb	r0, [r4, #4]
 3961 0084 DAE7     		b	.L496
 3962              	.L500:
 3963              		.loc 1 1133 0
 3964 0086 0846     		mov	r0, r1
 3965 0088 1968     		ldr	r1, [r3]
 3966 008a FFF7FEFF 		bl	raw_sendto
 3967              	.LVL444:
 3968 008e 2368     		ldr	r3, [r4]
 3969 0090 2071     		strb	r0, [r4, #4]
 3970 0092 D3E7     		b	.L496
 3971              		.cfi_endproc
 3972              	.LFE276:
 3973              		.size	do_send, .-do_send
 3974 0094 AFF30080 		.section	.text.do_recv,"ax",%progbits
 3974      AFF30080 
ARM GAS  C:\Users\jo\AppData\Local\Temp\ccLDsGlj.s 			page 71


 3974      AFF30080 
 3975              		.align	2
 3976              		.p2align 4,,15
 3977              		.global	do_recv
 3978              		.thumb
 3979              		.thumb_func
 3980              		.type	do_recv, %function
 3981              	do_recv:
 3982              	.LFB277:
 3983              		.loc 1 1174 0
 3984              		.cfi_startproc
 3985              		@ args = 0, pretend = 0, frame = 0
 3986              		@ frame_needed = 0, uses_anonymous_args = 0
 3987              	.LVL445:
 3988 0000 70B5     		push	{r4, r5, r6, lr}
 3989              		.cfi_def_cfa_offset 16
 3990              		.cfi_offset 4, -16
 3991              		.cfi_offset 5, -12
 3992              		.cfi_offset 6, -8
 3993              		.cfi_offset 14, -4
 3994              		.loc 1 1175 0
 3995 0002 0022     		movs	r2, #0
 3996              		.loc 1 1176 0
 3997 0004 0368     		ldr	r3, [r0]
 3998              		.loc 1 1175 0
 3999 0006 0271     		strb	r2, [r0, #4]
 4000              		.loc 1 1174 0
 4001 0008 0646     		mov	r6, r0
 4002              		.loc 1 1176 0
 4003 000a 5868     		ldr	r0, [r3, #4]
 4004              	.LVL446:
 4005 000c 10B1     		cbz	r0, .L516
 4006              		.loc 1 1177 0
 4007 000e 1A78     		ldrb	r2, [r3]	@ zero_extendqisi2
 4008 0010 102A     		cmp	r2, #16
 4009 0012 05D0     		beq	.L526
 4010              	.L516:
 4011              		.loc 1 1193 0
 4012 0014 03F10C00 		add	r0, r3, #12
 4013              		.loc 1 1194 0
 4014 0018 BDE87040 		pop	{r4, r5, r6, lr}
 4015              		.cfi_remember_state
 4016              		.cfi_restore 14
 4017              		.cfi_restore 6
 4018              		.cfi_restore 5
 4019              		.cfi_restore 4
 4020              		.cfi_def_cfa_offset 0
 4021              	.LVL447:
 4022              		.loc 1 1193 0
 4023 001c FFF7FEBF 		b	sys_sem_signal
 4024              	.LVL448:
 4025              	.L526:
 4026              		.cfi_restore_state
 4027              	.LBB179:
 4028              		.loc 1 1184 0
 4029 0020 B468     		ldr	r4, [r6, #8]
 4030              	.LVL449:
ARM GAS  C:\Users\jo\AppData\Local\Temp\ccLDsGlj.s 			page 72


 4031 0022 00E0     		b	.L519
 4032              	.LVL450:
 4033              	.L527:
 4034 0024 5868     		ldr	r0, [r3, #4]
 4035              	.L519:
 4036              	.LBB180:
 4037              		.loc 1 1186 0
 4038 0026 B4F5803F 		cmp	r4, #65536
 4039 002a 2DBF     		iteet	cs
 4040 002c 4FF6FF75 		movwcs	r5, #65535
 4041 0030 A1B2     		uxthcc	r1, r4
 4042 0032 2546     		movcc	r5, r4
 4043 0034 2946     		movcs	r1, r5
 4044              	.LVL451:
 4045              		.loc 1 1187 0
 4046 0036 FFF7FEFF 		bl	tcp_recved
 4047              	.LVL452:
 4048              	.LBE180:
 4049              		.loc 1 1189 0
 4050 003a 641B     		subs	r4, r4, r5
 4051              	.LVL453:
 4052 003c 3368     		ldr	r3, [r6]
 4053 003e F1D1     		bne	.L527
 4054              	.LBE179:
 4055              		.loc 1 1193 0
 4056 0040 03F10C00 		add	r0, r3, #12
 4057              		.loc 1 1194 0
 4058 0044 BDE87040 		pop	{r4, r5, r6, lr}
 4059              		.cfi_restore 4
 4060              		.cfi_restore 5
 4061              		.cfi_restore 6
 4062              		.cfi_restore 14
 4063              		.cfi_def_cfa_offset 0
 4064              	.LVL454:
 4065              		.loc 1 1193 0
 4066 0048 FFF7FEBF 		b	sys_sem_signal
 4067              	.LVL455:
 4068              		.cfi_endproc
 4069              	.LFE277:
 4070              		.size	do_recv, .-do_recv
 4071 004c AFF30080 		.section	.text.do_write,"ax",%progbits
 4072              		.align	2
 4073              		.p2align 4,,15
 4074              		.global	do_write
 4075              		.thumb
 4076              		.thumb_func
 4077              		.type	do_write, %function
 4078              	do_write:
 4079              	.LFB279:
 4080              		.loc 1 1344 0
 4081              		.cfi_startproc
 4082              		@ args = 0, pretend = 0, frame = 0
 4083              		@ frame_needed = 0, uses_anonymous_args = 0
 4084              	.LVL456:
 4085              		.loc 1 1345 0
 4086 0000 0368     		ldr	r3, [r0]
 4087 0002 1A7A     		ldrb	r2, [r3, #8]	@ zero_extendqisi2
ARM GAS  C:\Users\jo\AppData\Local\Temp\ccLDsGlj.s 			page 73


 4088 0004 51B2     		sxtb	r1, r2
 4089 0006 0931     		adds	r1, r1, #9
 4090 0008 03DB     		blt	.L541
 4091              		.loc 1 1348 0
 4092 000a 1A78     		ldrb	r2, [r3]	@ zero_extendqisi2
 4093 000c 102A     		cmp	r2, #16
 4094 000e 05D0     		beq	.L542
 4095              		.loc 1 1384 0
 4096 0010 FA22     		movs	r2, #250
 4097              	.L541:
 4098 0012 0271     		strb	r2, [r0, #4]
 4099              	.L530:
 4100              		.loc 1 1388 0
 4101 0014 03F10C00 		add	r0, r3, #12
 4102              	.LVL457:
 4103 0018 FFF7FEBF 		b	sys_sem_signal
 4104              	.LVL458:
 4105              	.L542:
 4106              		.loc 1 1350 0
 4107 001c 5A78     		ldrb	r2, [r3, #1]	@ zero_extendqisi2
 4108 001e 12B1     		cbz	r2, .L532
 4109              		.loc 1 1352 0
 4110 0020 FB22     		movs	r2, #251
 4111 0022 0271     		strb	r2, [r0, #4]
 4112 0024 F6E7     		b	.L530
 4113              	.L532:
 4114              		.loc 1 1353 0
 4115 0026 5A68     		ldr	r2, [r3, #4]
 4116 0028 002A     		cmp	r2, #0
 4117 002a 2ED0     		beq	.L533
 4118              		.loc 1 1344 0
 4119 002c 10B5     		push	{r4, lr}
 4120              		.cfi_def_cfa_offset 8
 4121              		.cfi_offset 4, -8
 4122              		.cfi_offset 14, -4
 4123              		.loc 1 1356 0
 4124 002e 5A6A     		ldr	r2, [r3, #36]
 4125              		.loc 1 1354 0
 4126 0030 0121     		movs	r1, #1
 4127              		.loc 1 1344 0
 4128 0032 82B0     		sub	sp, sp, #8
 4129              		.cfi_def_cfa_offset 16
 4130 0034 0446     		mov	r4, r0
 4131              		.loc 1 1354 0
 4132 0036 5970     		strb	r1, [r3, #1]
 4133              		.loc 1 1356 0
 4134 0038 1AB3     		cbz	r2, .L543
 4135              	.L534:
 4136              		.loc 1 1356 0 is_stmt 0 discriminator 3
 4137 003a 154B     		ldr	r3, .L545
 4138 003c 0093     		str	r3, [sp]
 4139 003e 1548     		ldr	r0, .L545+4
 4140              	.LVL459:
 4141 0040 1549     		ldr	r1, .L545+8
 4142 0042 164A     		ldr	r2, .L545+12
 4143 0044 40F24D53 		movw	r3, #1357
 4144 0048 FFF7FEFF 		bl	chprintf.constprop.1
ARM GAS  C:\Users\jo\AppData\Local\Temp\ccLDsGlj.s 			page 74


 4145              	.LVL460:
 4146              	.LBB181:
 4147              	.LBB182:
 4148              		.loc 3 414 0 is_stmt 1 discriminator 3
 4149 004c 1348     		ldr	r0, .L545+12
 4150 004e FFF7FEFF 		bl	chSysHalt
 4151              	.LVL461:
 4152              	.L535:
 4153              	.LBE182:
 4154              	.LBE181:
 4155              		.loc 1 1358 0
 4156 0052 E368     		ldr	r3, [r4, #12]
 4157 0054 43B1     		cbz	r3, .L544
 4158              	.L536:
 4159              		.loc 1 1359 0
 4160 0056 2068     		ldr	r0, [r4]
 4161              		.loc 1 1360 0
 4162 0058 0023     		movs	r3, #0
 4163              		.loc 1 1359 0
 4164 005a 4462     		str	r4, [r0, #36]
 4165              		.loc 1 1360 0
 4166 005c 0362     		str	r3, [r0, #32]
 4167              		.loc 1 1389 0
 4168 005e 02B0     		add	sp, sp, #8
 4169              		.cfi_remember_state
 4170              		.cfi_def_cfa_offset 8
 4171              		@ sp needed
 4172 0060 BDE81040 		pop	{r4, lr}
 4173              		.cfi_restore 14
 4174              		.cfi_restore 4
 4175              		.cfi_def_cfa_offset 0
 4176              	.LVL462:
 4177              		.loc 1 1371 0
 4178 0064 FFF7FEBF 		b	do_writemore
 4179              	.LVL463:
 4180              	.L544:
 4181              		.cfi_restore_state
 4182              		.loc 1 1358 0 discriminator 1
 4183 0068 094B     		ldr	r3, .L545
 4184 006a 0093     		str	r3, [sp]
 4185 006c 0A49     		ldr	r1, .L545+8
 4186 006e 0C4A     		ldr	r2, .L545+16
 4187 0070 0848     		ldr	r0, .L545+4
 4188 0072 40F24E53 		movw	r3, #1358
 4189 0076 FFF7FEFF 		bl	chprintf.constprop.1
 4190              	.LVL464:
 4191              	.LBB183:
 4192              	.LBB184:
 4193              		.loc 3 414 0 discriminator 1
 4194 007a 0948     		ldr	r0, .L545+16
 4195 007c FFF7FEFF 		bl	chSysHalt
 4196              	.LVL465:
 4197 0080 E9E7     		b	.L536
 4198              	.LVL466:
 4199              	.L543:
 4200              	.LBE184:
 4201              	.LBE183:
ARM GAS  C:\Users\jo\AppData\Local\Temp\ccLDsGlj.s 			page 75


 4202              		.loc 1 1356 0 discriminator 2
 4203 0082 1B6A     		ldr	r3, [r3, #32]
 4204 0084 002B     		cmp	r3, #0
 4205 0086 E4D0     		beq	.L535
 4206 0088 D7E7     		b	.L534
 4207              	.L533:
 4208              		.cfi_def_cfa_offset 0
 4209              		.cfi_restore 4
 4210              		.cfi_restore 14
 4211              		.loc 1 1377 0
 4212 008a F322     		movs	r2, #243
 4213 008c 0271     		strb	r2, [r0, #4]
 4214 008e C1E7     		b	.L530
 4215              	.L546:
 4216              		.align	2
 4217              	.L545:
 4218 0090 4C000000 		.word	.LC2
 4219 0094 00000000 		.word	itm_port
 4220 0098 00000000 		.word	.LC0
 4221 009c 20040000 		.word	.LC29
 4222 00a0 54040000 		.word	.LC31
 4223              		.cfi_endproc
 4224              	.LFE279:
 4225              		.size	do_write, .-do_write
 4226 00a4 AFF30080 		.section	.text.do_getaddr,"ax",%progbits
 4226      AFF30080 
 4226      AFF30080 
 4227              		.align	2
 4228              		.p2align 4,,15
 4229              		.global	do_getaddr
 4230              		.thumb
 4231              		.thumb_func
 4232              		.type	do_getaddr, %function
 4233              	do_getaddr:
 4234              	.LFB280:
 4235              		.loc 1 1399 0
 4236              		.cfi_startproc
 4237              		@ args = 0, pretend = 0, frame = 0
 4238              		@ frame_needed = 0, uses_anonymous_args = 0
 4239              	.LVL467:
 4240 0000 10B5     		push	{r4, lr}
 4241              		.cfi_def_cfa_offset 8
 4242              		.cfi_offset 4, -8
 4243              		.cfi_offset 14, -4
 4244              		.loc 1 1400 0
 4245 0002 0468     		ldr	r4, [r0]
 4246 0004 6368     		ldr	r3, [r4, #4]
 4247              		.loc 1 1399 0
 4248 0006 82B0     		sub	sp, sp, #8
 4249              		.cfi_def_cfa_offset 16
 4250              		.loc 1 1400 0
 4251 0008 4BB3     		cbz	r3, .L548
 4252              		.loc 1 1401 0
 4253 000a 017C     		ldrb	r1, [r0, #16]	@ zero_extendqisi2
 4254 000c 8268     		ldr	r2, [r0, #8]
 4255 000e 09BB     		cbnz	r1, .L564
 4256              		.loc 1 1401 0 is_stmt 0 discriminator 2
ARM GAS  C:\Users\jo\AppData\Local\Temp\ccLDsGlj.s 			page 76


 4257 0010 5B68     		ldr	r3, [r3, #4]
 4258 0012 1360     		str	r3, [r2]
 4259              	.L550:
 4260              		.loc 1 1404 0 is_stmt 1
 4261 0014 0023     		movs	r3, #0
 4262 0016 0371     		strb	r3, [r0, #4]
 4263              		.loc 1 1405 0
 4264 0018 2378     		ldrb	r3, [r4]	@ zero_extendqisi2
 4265 001a 03F0F003 		and	r3, r3, #240
 4266 001e 202B     		cmp	r3, #32
 4267 0020 33D0     		beq	.L552
 4268 0022 402B     		cmp	r3, #64
 4269 0024 19D0     		beq	.L553
 4270 0026 102B     		cmp	r3, #16
 4271 0028 22D0     		beq	.L565
 4272              		.loc 1 1435 0 discriminator 1
 4273 002a 264B     		ldr	r3, .L569
 4274 002c 0093     		str	r3, [sp]
 4275 002e 0446     		mov	r4, r0
 4276 0030 2549     		ldr	r1, .L569+4
 4277 0032 264A     		ldr	r2, .L569+8
 4278 0034 2648     		ldr	r0, .L569+12
 4279              	.LVL468:
 4280 0036 40F29B53 		movw	r3, #1435
 4281 003a FFF7FEFF 		bl	chprintf.constprop.1
 4282              	.LVL469:
 4283              	.LBB185:
 4284              	.LBB186:
 4285              		.loc 3 414 0 discriminator 1
 4286 003e 2348     		ldr	r0, .L569+8
 4287 0040 FFF7FEFF 		bl	chSysHalt
 4288              	.LVL470:
 4289 0044 2468     		ldr	r4, [r4]
 4290              	.LVL471:
 4291              	.L556:
 4292              	.LBE186:
 4293              	.LBE185:
 4294              		.loc 1 1441 0
 4295 0046 04F10C00 		add	r0, r4, #12
 4296              		.loc 1 1442 0
 4297 004a 02B0     		add	sp, sp, #8
 4298              		.cfi_remember_state
 4299              		.cfi_def_cfa_offset 8
 4300              		@ sp needed
 4301 004c BDE81040 		pop	{r4, lr}
 4302              		.cfi_restore 14
 4303              		.cfi_restore 4
 4304              		.cfi_def_cfa_offset 0
 4305              		.loc 1 1441 0
 4306 0050 FFF7FEBF 		b	sys_sem_signal
 4307              	.LVL472:
 4308              	.L564:
 4309              		.cfi_restore_state
 4310              		.loc 1 1401 0 discriminator 1
 4311 0054 1B68     		ldr	r3, [r3]
 4312 0056 1360     		str	r3, [r2]
 4313 0058 DCE7     		b	.L550
ARM GAS  C:\Users\jo\AppData\Local\Temp\ccLDsGlj.s 			page 77


 4314              	.L553:
 4315              		.loc 1 1408 0
 4316 005a 037C     		ldrb	r3, [r0, #16]	@ zero_extendqisi2
 4317 005c FBB9     		cbnz	r3, .L566
 4318              	.L548:
 4319              		.loc 1 1439 0
 4320 005e F323     		movs	r3, #243
 4321 0060 0371     		strb	r3, [r0, #4]
 4322              		.loc 1 1441 0
 4323 0062 04F10C00 		add	r0, r4, #12
 4324              	.LVL473:
 4325              		.loc 1 1442 0
 4326 0066 02B0     		add	sp, sp, #8
 4327              		.cfi_remember_state
 4328              		.cfi_def_cfa_offset 8
 4329              		@ sp needed
 4330 0068 BDE81040 		pop	{r4, lr}
 4331              		.cfi_restore 4
 4332              		.cfi_restore 14
 4333              		.cfi_def_cfa_offset 0
 4334              		.loc 1 1441 0
 4335 006c FFF7FEBF 		b	sys_sem_signal
 4336              	.LVL474:
 4337              	.L565:
 4338              		.cfi_restore_state
 4339              		.loc 1 1431 0
 4340 0070 027C     		ldrb	r2, [r0, #16]	@ zero_extendqisi2
 4341 0072 C368     		ldr	r3, [r0, #12]
 4342 0074 F2B9     		cbnz	r2, .L567
 4343              		.loc 1 1431 0 is_stmt 0 discriminator 2
 4344 0076 6268     		ldr	r2, [r4, #4]
 4345 0078 928B     		ldrh	r2, [r2, #28]
 4346              	.L560:
 4347              		.loc 1 1431 0 discriminator 4
 4348 007a 1A80     		strh	r2, [r3]	@ movhi
 4349              		.loc 1 1441 0 is_stmt 1 discriminator 4
 4350 007c 04F10C00 		add	r0, r4, #12
 4351              	.LVL475:
 4352              		.loc 1 1442 0 discriminator 4
 4353 0080 02B0     		add	sp, sp, #8
 4354              		.cfi_remember_state
 4355              		.cfi_def_cfa_offset 8
 4356              		@ sp needed
 4357 0082 BDE81040 		pop	{r4, lr}
 4358              		.cfi_restore 4
 4359              		.cfi_restore 14
 4360              		.cfi_def_cfa_offset 0
 4361              		.loc 1 1441 0 discriminator 4
 4362 0086 FFF7FEBF 		b	sys_sem_signal
 4363              	.LVL476:
 4364              	.L552:
 4365              		.cfi_restore_state
 4366              		.loc 1 1418 0
 4367 008a 037C     		ldrb	r3, [r0, #16]	@ zero_extendqisi2
 4368 008c ABB9     		cbnz	r3, .L568
 4369              		.loc 1 1421 0
 4370 008e 6368     		ldr	r3, [r4, #4]
ARM GAS  C:\Users\jo\AppData\Local\Temp\ccLDsGlj.s 			page 78


 4371 0090 1A7C     		ldrb	r2, [r3, #16]	@ zero_extendqisi2
 4372 0092 5207     		lsls	r2, r2, #29
 4373 0094 E3D5     		bpl	.L548
 4374              		.loc 1 1424 0
 4375 0096 C268     		ldr	r2, [r0, #12]
 4376 0098 9B8A     		ldrh	r3, [r3, #20]
 4377 009a 1380     		strh	r3, [r2]	@ movhi
 4378 009c D3E7     		b	.L556
 4379              	.L566:
 4380              		.loc 1 1409 0
 4381 009e 6268     		ldr	r2, [r4, #4]
 4382 00a0 C368     		ldr	r3, [r0, #12]
 4383 00a2 127C     		ldrb	r2, [r2, #16]	@ zero_extendqisi2
 4384 00a4 1A80     		strh	r2, [r3]	@ movhi
 4385              		.loc 1 1441 0
 4386 00a6 04F10C00 		add	r0, r4, #12
 4387              	.LVL477:
 4388              		.loc 1 1442 0
 4389 00aa 02B0     		add	sp, sp, #8
 4390              		.cfi_remember_state
 4391              		.cfi_def_cfa_offset 8
 4392              		@ sp needed
 4393 00ac BDE81040 		pop	{r4, lr}
 4394              		.cfi_restore 4
 4395              		.cfi_restore 14
 4396              		.cfi_def_cfa_offset 0
 4397              		.loc 1 1441 0
 4398 00b0 FFF7FEBF 		b	sys_sem_signal
 4399              	.LVL478:
 4400              	.L567:
 4401              		.cfi_restore_state
 4402              		.loc 1 1431 0 discriminator 1
 4403 00b4 6268     		ldr	r2, [r4, #4]
 4404 00b6 528B     		ldrh	r2, [r2, #26]
 4405 00b8 DFE7     		b	.L560
 4406              	.L568:
 4407              		.loc 1 1419 0
 4408 00ba 6268     		ldr	r2, [r4, #4]
 4409 00bc C368     		ldr	r3, [r0, #12]
 4410 00be 528A     		ldrh	r2, [r2, #18]
 4411 00c0 1A80     		strh	r2, [r3]	@ movhi
 4412 00c2 C0E7     		b	.L556
 4413              	.L570:
 4414              		.align	2
 4415              	.L569:
 4416 00c4 4C000000 		.word	.LC2
 4417 00c8 00000000 		.word	.LC0
 4418 00cc 68040000 		.word	.LC32
 4419 00d0 00000000 		.word	itm_port
 4420              		.cfi_endproc
 4421              	.LFE280:
 4422              		.size	do_getaddr, .-do_getaddr
 4423 00d4 AFF30080 		.section	.text.do_close,"ax",%progbits
 4423      AFF30080 
 4423      AFF30080 
 4424              		.align	2
 4425              		.p2align 4,,15
ARM GAS  C:\Users\jo\AppData\Local\Temp\ccLDsGlj.s 			page 79


 4426              		.global	do_close
 4427              		.thumb
 4428              		.thumb_func
 4429              		.type	do_close, %function
 4430              	do_close:
 4431              	.LFB281:
 4432              		.loc 1 1452 0
 4433              		.cfi_startproc
 4434              		@ args = 0, pretend = 0, frame = 0
 4435              		@ frame_needed = 0, uses_anonymous_args = 0
 4436              	.LVL479:
 4437 0000 10B5     		push	{r4, lr}
 4438              		.cfi_def_cfa_offset 8
 4439              		.cfi_offset 4, -8
 4440              		.cfi_offset 14, -4
 4441 0002 0446     		mov	r4, r0
 4442              		.loc 1 1455 0
 4443 0004 0068     		ldr	r0, [r0]
 4444              	.LVL480:
 4445 0006 4378     		ldrb	r3, [r0, #1]	@ zero_extendqisi2
 4446 0008 13F0FD0F 		tst	r3, #253
 4447              		.loc 1 1452 0
 4448 000c 82B0     		sub	sp, sp, #8
 4449              		.cfi_def_cfa_offset 16
 4450              		.loc 1 1455 0
 4451 000e 17D0     		beq	.L572
 4452              		.loc 1 1457 0
 4453 0010 0378     		ldrb	r3, [r0]	@ zero_extendqisi2
 4454 0012 102B     		cmp	r3, #16
 4455 0014 0CD0     		beq	.L573
 4456              		.loc 1 1457 0 is_stmt 0 discriminator 1
 4457 0016 254B     		ldr	r3, .L600
 4458 0018 0093     		str	r3, [sp]
 4459 001a 2549     		ldr	r1, .L600+4
 4460 001c 254A     		ldr	r2, .L600+8
 4461 001e 2648     		ldr	r0, .L600+12
 4462 0020 40F2B153 		movw	r3, #1457
 4463 0024 FFF7FEFF 		bl	chprintf.constprop.1
 4464              	.LVL481:
 4465              	.LBB187:
 4466              	.LBB188:
 4467              		.loc 3 414 0 is_stmt 1 discriminator 1
 4468 0028 2248     		ldr	r0, .L600+8
 4469 002a FFF7FEFF 		bl	chSysHalt
 4470              	.LVL482:
 4471 002e 2068     		ldr	r0, [r4]
 4472              	.LVL483:
 4473              	.L573:
 4474              	.LBE188:
 4475              	.LBE187:
 4476              		.loc 1 1458 0
 4477 0030 FB23     		movs	r3, #251
 4478              		.loc 1 1481 0
 4479 0032 0C30     		adds	r0, r0, #12
 4480              		.loc 1 1458 0
 4481 0034 2371     		strb	r3, [r4, #4]
 4482              		.loc 1 1482 0
ARM GAS  C:\Users\jo\AppData\Local\Temp\ccLDsGlj.s 			page 80


 4483 0036 02B0     		add	sp, sp, #8
 4484              		.cfi_remember_state
 4485              		.cfi_def_cfa_offset 8
 4486              		@ sp needed
 4487 0038 BDE81040 		pop	{r4, lr}
 4488              		.cfi_restore 4
 4489              		.cfi_restore 14
 4490              		.cfi_def_cfa_offset 0
 4491              	.LVL484:
 4492              		.loc 1 1481 0
 4493 003c FFF7FEBF 		b	sys_sem_signal
 4494              	.LVL485:
 4495              	.L572:
 4496              		.cfi_restore_state
 4497              		.loc 1 1459 0
 4498 0040 4268     		ldr	r2, [r0, #4]
 4499 0042 12B1     		cbz	r2, .L575
 4500              		.loc 1 1459 0 is_stmt 0 discriminator 1
 4501 0044 0278     		ldrb	r2, [r0]	@ zero_extendqisi2
 4502 0046 102A     		cmp	r2, #16
 4503 0048 07D0     		beq	.L597
 4504              	.L575:
 4505              		.loc 1 1479 0 is_stmt 1
 4506 004a FA23     		movs	r3, #250
 4507 004c 2371     		strb	r3, [r4, #4]
 4508              	.L574:
 4509              		.loc 1 1481 0
 4510 004e 0C30     		adds	r0, r0, #12
 4511              		.loc 1 1482 0
 4512 0050 02B0     		add	sp, sp, #8
 4513              		.cfi_remember_state
 4514              		.cfi_def_cfa_offset 8
 4515              		@ sp needed
 4516 0052 BDE81040 		pop	{r4, lr}
 4517              		.cfi_restore 14
 4518              		.cfi_restore 4
 4519              		.cfi_def_cfa_offset 0
 4520              	.LVL486:
 4521              		.loc 1 1481 0
 4522 0056 FFF7FEBF 		b	sys_sem_signal
 4523              	.LVL487:
 4524              	.L597:
 4525              		.cfi_restore_state
 4526              		.loc 1 1460 0
 4527 005a 227A     		ldrb	r2, [r4, #8]	@ zero_extendqisi2
 4528 005c 032A     		cmp	r2, #3
 4529 005e 1ED0     		beq	.L576
 4530              		.loc 1 1460 0 is_stmt 0 discriminator 1
 4531 0060 022B     		cmp	r3, #2
 4532 0062 20D0     		beq	.L598
 4533              		.loc 1 1464 0 is_stmt 1
 4534 0064 D307     		lsls	r3, r2, #31
 4535 0066 1AD4     		bmi	.L576
 4536              	.L578:
 4537              		.loc 1 1468 0
 4538 0068 436A     		ldr	r3, [r0, #36]
 4539 006a A3B1     		cbz	r3, .L599
ARM GAS  C:\Users\jo\AppData\Local\Temp\ccLDsGlj.s 			page 81


 4540              	.L579:
 4541              		.loc 1 1468 0 is_stmt 0 discriminator 3
 4542 006c 0F4B     		ldr	r3, .L600
 4543 006e 0093     		str	r3, [sp]
 4544 0070 0F49     		ldr	r1, .L600+4
 4545 0072 124A     		ldr	r2, .L600+16
 4546 0074 1048     		ldr	r0, .L600+12
 4547 0076 40F2BD53 		movw	r3, #1469
 4548 007a FFF7FEFF 		bl	chprintf.constprop.1
 4549              	.LVL488:
 4550              	.LBB189:
 4551              	.LBB190:
 4552              		.loc 3 414 0 is_stmt 1 discriminator 3
 4553 007e 0F48     		ldr	r0, .L600+16
 4554 0080 FFF7FEFF 		bl	chSysHalt
 4555              	.LVL489:
 4556 0084 2068     		ldr	r0, [r4]
 4557              	.LVL490:
 4558              	.L580:
 4559              	.LBE190:
 4560              	.LBE189:
 4561              		.loc 1 1471 0
 4562 0086 4462     		str	r4, [r0, #36]
 4563              		.loc 1 1470 0
 4564 0088 0423     		movs	r3, #4
 4565 008a 4370     		strb	r3, [r0, #1]
 4566              		.loc 1 1482 0
 4567 008c 02B0     		add	sp, sp, #8
 4568              		.cfi_remember_state
 4569              		.cfi_def_cfa_offset 8
 4570              		@ sp needed
 4571 008e BDE81040 		pop	{r4, lr}
 4572              		.cfi_restore 14
 4573              		.cfi_restore 4
 4574              		.cfi_def_cfa_offset 0
 4575              	.LVL491:
 4576              		.loc 1 1472 0
 4577 0092 FFF7FEBF 		b	do_close_internal
 4578              	.LVL492:
 4579              	.L599:
 4580              		.cfi_restore_state
 4581              		.loc 1 1468 0 discriminator 2
 4582 0096 036A     		ldr	r3, [r0, #32]
 4583 0098 002B     		cmp	r3, #0
 4584 009a E7D1     		bne	.L579
 4585 009c F3E7     		b	.L580
 4586              	.L576:
 4587              		.loc 1 1466 0
 4588 009e FFF7FEFF 		bl	netconn_drain
 4589              	.LVL493:
 4590 00a2 2068     		ldr	r0, [r4]
 4591 00a4 E0E7     		b	.L578
 4592              	.L598:
 4593              		.loc 1 1462 0
 4594 00a6 F323     		movs	r3, #243
 4595 00a8 2371     		strb	r3, [r4, #4]
 4596              		.loc 1 1460 0
ARM GAS  C:\Users\jo\AppData\Local\Temp\ccLDsGlj.s 			page 82


 4597 00aa D0E7     		b	.L574
 4598              	.L601:
 4599              		.align	2
 4600              	.L600:
 4601 00ac 4C000000 		.word	.LC2
 4602 00b0 00000000 		.word	.LC0
 4603 00b4 E0030000 		.word	.LC27
 4604 00b8 00000000 		.word	itm_port
 4605 00bc 20040000 		.word	.LC29
 4606              		.cfi_endproc
 4607              	.LFE281:
 4608              		.size	do_close, .-do_close
 4609              		.section	.rodata.str1.4,"aMS",%progbits,1
 4610              		.align	2
 4611              	.LC0:
 4612 0000 41737365 		.ascii	"Assertion \"%s\" failed at line %d in %s\012\000"
 4612      7274696F 
 4612      6E202225 
 4612      73222066 
 4612      61696C65 
 4613              	.LC1:
 4614 0028 72656376 		.ascii	"recv_tcp must have a pcb argument\000"
 4614      5F746370 
 4614      206D7573 
 4614      74206861 
 4614      76652061 
 4615 004a 0000     		.space	2
 4616              	.LC2:
 4617 004c 2E2E2F2E 		.ascii	"../../../os/ext/lwip-1.4.1/src/api/api_msg.c\000"
 4617      2E2F2E2E 
 4617      2F6F732F 
 4617      6578742F 
 4617      6C776970 
 4618 0079 000000   		.space	3
 4619              	.LC3:
 4620 007c 72656376 		.ascii	"recv_tcp must have an argument\000"
 4620      5F746370 
 4620      206D7573 
 4620      74206861 
 4620      76652061 
 4621 009b 00       		.space	1
 4622              	.LC4:
 4623 009c 72656376 		.ascii	"recv_tcp: recv for wrong pcb!\000"
 4623      5F746370 
 4623      3A207265 
 4623      63762066 
 4623      6F722077 
 4624 00ba 0000     		.space	2
 4625              	.LC5:
 4626 00bc 696E7661 		.ascii	"invalid conn\000"
 4626      6C696420 
 4626      636F6E6E 
 4626      00
 4627 00c9 000000   		.space	3
 4628              	.LC6:
 4629 00cc 74686973 		.ascii	"this is for tcp netconns only\000"
 4629      20697320 
ARM GAS  C:\Users\jo\AppData\Local\Temp\ccLDsGlj.s 			page 83


 4629      666F7220 
 4629      74637020 
 4629      6E657463 
 4630 00ea 0000     		.space	2
 4631              	.LC7:
 4632 00ec 636F6E6E 		.ascii	"conn must be in state NETCONN_CLOSE\000"
 4632      206D7573 
 4632      74206265 
 4632      20696E20 
 4632      73746174 
 4633              	.LC8:
 4634 0110 70636220 		.ascii	"pcb already closed\000"
 4634      616C7265 
 4634      61647920 
 4634      636C6F73 
 4634      656400
 4635 0123 00       		.space	1
 4636              	.LC9:
 4637 0124 636F6E6E 		.ascii	"conn->current_msg != NULL\000"
 4637      2D3E6375 
 4637      7272656E 
 4637      745F6D73 
 4637      6720213D 
 4638 013e 0000     		.space	2
 4639              	.LC10:
 4640 0140 436C6F73 		.ascii	"Closing a listen pcb may not fail!\000"
 4640      696E6720 
 4640      61206C69 
 4640      7374656E 
 4640      20706362 
 4641 0163 00       		.space	1
 4642              	.LC11:
 4643 0164 636F6E6E 		.ascii	"conn->state == NETCONN_WRITE\000"
 4643      2D3E7374 
 4643      61746520 
 4643      3D3D204E 
 4643      4554434F 
 4644 0181 000000   		.space	3
 4645              	.LC12:
 4646 0184 636F6E6E 		.ascii	"conn->pcb.tcp != NULL\000"
 4646      2D3E7063 
 4646      622E7463 
 4646      7020213D 
 4646      204E554C 
 4647 019a 0000     		.space	2
 4648              	.LC13:
 4649 019c 636F6E6E 		.ascii	"conn->write_offset < conn->current_msg->msg.w.len\000"
 4649      2D3E7772 
 4649      6974655F 
 4649      6F666673 
 4649      6574203C 
 4650 01ce 0000     		.space	2
 4651              	.LC14:
 4652 01d0 646F5F77 		.ascii	"do_writemore: invalid length!\000"
 4652      72697465 
 4652      6D6F7265 
 4652      3A20696E 
ARM GAS  C:\Users\jo\AppData\Local\Temp\ccLDsGlj.s 			page 84


 4652      76616C69 
 4653 01ee 0000     		.space	2
 4654              	.LC15:
 4655 01f0 636F6E6E 		.ascii	"conn != NULL\000"
 4655      20213D20 
 4655      4E554C4C 
 4655      00
 4656 01fd 000000   		.space	3
 4657              	.LC16:
 4658 0200 636F6E6E 		.ascii	"conn->state == NETCONN_CONNECT\000"
 4658      2D3E7374 
 4658      61746520 
 4658      3D3D204E 
 4658      4554434F 
 4659 021f 00       		.space	1
 4660              	.LC17:
 4661 0220 28636F6E 		.ascii	"(conn->current_msg != NULL) || conn->in_non_blockin"
 4661      6E2D3E63 
 4661      75727265 
 4661      6E745F6D 
 4661      73672021 
 4662 0253 675F636F 		.ascii	"g_connect\000"
 4662      6E6E6563 
 4662      7400
 4663 025d 000000   		.space	3
 4664              	.LC18:
 4665 0260 636F6E6E 		.ascii	"conn->current_msg == NULL\000"
 4665      2D3E6375 
 4665      7272656E 
 4665      745F6D73 
 4665      67203D3D 
 4666 027a 0000     		.space	2
 4667              	.LC19:
 4668 027c 72656376 		.ascii	"recv_udp must have a pcb argument\000"
 4668      5F756470 
 4668      206D7573 
 4668      74206861 
 4668      76652061 
 4669 029e 0000     		.space	2
 4670              	.LC20:
 4671 02a0 72656376 		.ascii	"recv_udp must have an argument\000"
 4671      5F756470 
 4671      206D7573 
 4671      74206861 
 4671      76652061 
 4672 02bf 00       		.space	1
 4673              	.LC21:
 4674 02c0 72656376 		.ascii	"recv_udp: recv for wrong pcb!\000"
 4674      5F756470 
 4674      3A207265 
 4674      63762066 
 4674      6F722077 
 4675 02de 0000     		.space	2
 4676              	.LC22:
 4677 02e0 6E657463 		.ascii	"netconn_alloc: undefined netconn_type\000"
 4677      6F6E6E5F 
 4677      616C6C6F 
ARM GAS  C:\Users\jo\AppData\Local\Temp\ccLDsGlj.s 			page 85


 4677      633A2075 
 4677      6E646566 
 4678 0306 0000     		.space	2
 4679              	.LC23:
 4680 0308 50434220 		.ascii	"PCB must be deallocated outside this function\000"
 4680      6D757374 
 4680      20626520 
 4680      6465616C 
 4680      6C6F6361 
 4681 0336 0000     		.space	2
 4682              	.LC24:
 4683 0338 72656376 		.ascii	"recvmbox must be deallocated before calling this fu"
 4683      6D626F78 
 4683      206D7573 
 4683      74206265 
 4683      20646561 
 4684 036b 6E637469 		.ascii	"nction\000"
 4684      6F6E00
 4685 0372 0000     		.space	2
 4686              	.LC25:
 4687 0374 61636365 		.ascii	"acceptmbox must be deallocated before calling this "
 4687      70746D62 
 4687      6F78206D 
 4687      75737420 
 4687      62652064 
 4688 03a7 66756E63 		.ascii	"function\000"
 4688      74696F6E 
 4688      00
 4689              	.LC26:
 4690 03b0 7063622D 		.ascii	"pcb->state == LISTEN (called for wrong pcb?)\000"
 4690      3E737461 
 4690      7465203D 
 4690      3D204C49 
 4690      5354454E 
 4691 03dd 000000   		.space	3
 4692              	.LC27:
 4693 03e0 6D73672D 		.ascii	"msg->conn->type == NETCONN_TCP\000"
 4693      3E636F6E 
 4693      6E2D3E74 
 4693      79706520 
 4693      3D3D204E 
 4694 03ff 00       		.space	1
 4695              	.LC28:
 4696 0400 626C6F63 		.ascii	"blocking connect in progress\000"
 4696      6B696E67 
 4696      20636F6E 
 4696      6E656374 
 4696      20696E20 
 4697 041d 000000   		.space	3
 4698              	.LC29:
 4699 0420 616C7265 		.ascii	"already writing or closing\000"
 4699      61647920 
 4699      77726974 
 4699      696E6720 
 4699      6F722063 
 4700 043b 00       		.space	1
 4701              	.LC30:
ARM GAS  C:\Users\jo\AppData\Local\Temp\ccLDsGlj.s 			page 86


 4702 043c 496E7661 		.ascii	"Invalid netconn type\000"
 4702      6C696420 
 4702      6E657463 
 4702      6F6E6E20 
 4702      74797065 
 4703 0451 000000   		.space	3
 4704              	.LC31:
 4705 0454 6D73672D 		.ascii	"msg->msg.w.len != 0\000"
 4705      3E6D7367 
 4705      2E772E6C 
 4705      656E2021 
 4705      3D203000 
 4706              	.LC32:
 4707 0468 696E7661 		.ascii	"invalid netconn_type\000"
 4707      6C696420 
 4707      6E657463 
 4707      6F6E6E5F 
 4707      74797065 
 4708 047d 000000   		.text
 4709              	.Letext0:
 4710              		.file 4 "c:\\program files\\gnu tools arm embedded\\4.9 2014q4\\lib\\gcc\\arm-none-eabi\\4.9.3\\in
 4711              		.file 5 "c:\\program files\\gnu tools arm embedded\\4.9 2014q4\\arm-none-eabi\\include\\machine\\_
 4712              		.file 6 "c:\\program files\\gnu tools arm embedded\\4.9 2014q4\\arm-none-eabi\\include\\stdint.h"
 4713              		.file 7 "../../../os/rt/ports/ARMCMx/compilers/GCC/chtypes.h"
 4714              		.file 8 "../../../os/rt/include/chsystypes.h"
 4715              		.file 9 "../../../os/rt/include/chschd.h"
 4716              		.file 10 "../../../os/rt/ports/ARMCMx/chcore.h"
 4717              		.file 11 "../../../os/rt/ports/ARMCMx/chcore_v7m.h"
 4718              		.file 12 "c:\\program files\\gnu tools arm embedded\\4.9 2014q4\\lib\\gcc\\arm-none-eabi\\4.9.3\\i
 4719              		.file 13 "<built-in>"
 4720              		.file 14 "../../../os/rt/include/chtm.h"
 4721              		.file 15 "../../../os/rt/include/chmtx.h"
 4722              		.file 16 "../../../os/rt/include/chsem.h"
 4723              		.file 17 "../../../os/rt/include/chmboxes.h"
 4724              		.file 18 "../../../os/rt/include/chstreams.h"
 4725              		.file 19 "./ITM_trace.h"
 4726              		.file 20 "../../../os/various/lwip_bindings/arch/cc.h"
 4727              		.file 21 "../../../os/ext/lwip-1.4.1/src/include/ipv4/lwip/ip_addr.h"
 4728              		.file 22 "../../../os/ext/lwip-1.4.1/src/include/lwip/err.h"
 4729              		.file 23 "../../../os/various/lwip_bindings/arch/sys_arch.h"
 4730              		.file 24 "../../../os/ext/lwip-1.4.1/src/include/lwip/pbuf.h"
 4731              		.file 25 "../../../os/ext/lwip-1.4.1/src/include/lwip/netbuf.h"
 4732              		.file 26 "../../../os/ext/lwip-1.4.1/src/include/lwip/api.h"
 4733              		.file 27 "../../../os/ext/lwip-1.4.1/src/include/ipv4/lwip/ip.h"
 4734              		.file 28 "../../../os/ext/lwip-1.4.1/src/include/lwip/tcp.h"
 4735              		.file 29 "../../../os/ext/lwip-1.4.1/src/include/lwip/udp.h"
 4736              		.file 30 "../../../os/ext/lwip-1.4.1/src/include/lwip/raw.h"
 4737              		.file 31 "../../../os/ext/lwip-1.4.1/src/include/lwip/api_msg.h"
 4738              		.file 32 "../../../os/ext/lwip-1.4.1/src/include/lwip/memp.h"
 4739              		.file 33 "../../../os/ext/CMSIS/include/core_cm4.h"
 4740              		.file 34 "../../../os/ext/lwip-1.4.1/src/include/lwip/sys.h"
 4741              		.file 35 "../../../os/rt/include/chsys.h"
 4742              		.section	.debug_info,"",%progbits
 4743              	.Ldebug_info0:
 4744 0000 AD3B0000 		.4byte	0x3bad
 4745 0004 0400     		.2byte	0x4
 4746 0006 00000000 		.4byte	.Ldebug_abbrev0
ARM GAS  C:\Users\jo\AppData\Local\Temp\ccLDsGlj.s 			page 87


 4747 000a 04       		.byte	0x4
 4748 000b 01       		.uleb128 0x1
 4749 000c 550C0000 		.4byte	.LASF379
 4750 0010 01       		.byte	0x1
 4751 0011 86070000 		.4byte	.LASF380
 4752 0015 45010000 		.4byte	.LASF381
 4753 0019 68000000 		.4byte	.Ldebug_ranges0+0x68
 4754 001d 00000000 		.4byte	0
 4755 0021 00000000 		.4byte	.Ldebug_line0
 4756 0025 02       		.uleb128 0x2
 4757 0026 04       		.byte	0x4
 4758 0027 05       		.byte	0x5
 4759 0028 696E7400 		.ascii	"int\000"
 4760 002c 03       		.uleb128 0x3
 4761 002d 65050000 		.4byte	.LASF1
 4762 0031 04       		.byte	0x4
 4763 0032 D4       		.byte	0xd4
 4764 0033 37000000 		.4byte	0x37
 4765 0037 04       		.uleb128 0x4
 4766 0038 04       		.byte	0x4
 4767 0039 07       		.byte	0x7
 4768 003a 8D010000 		.4byte	.LASF0
 4769 003e 03       		.uleb128 0x3
 4770 003f 3F100000 		.4byte	.LASF2
 4771 0043 05       		.byte	0x5
 4772 0044 1B       		.byte	0x1b
 4773 0045 49000000 		.4byte	0x49
 4774 0049 04       		.uleb128 0x4
 4775 004a 01       		.byte	0x1
 4776 004b 06       		.byte	0x6
 4777 004c FA0F0000 		.4byte	.LASF3
 4778 0050 03       		.uleb128 0x3
 4779 0051 EC0B0000 		.4byte	.LASF4
 4780 0055 05       		.byte	0x5
 4781 0056 1D       		.byte	0x1d
 4782 0057 5B000000 		.4byte	0x5b
 4783 005b 04       		.uleb128 0x4
 4784 005c 01       		.byte	0x1
 4785 005d 08       		.byte	0x8
 4786 005e 6F0E0000 		.4byte	.LASF5
 4787 0062 03       		.uleb128 0x3
 4788 0063 12090000 		.4byte	.LASF6
 4789 0067 05       		.byte	0x5
 4790 0068 29       		.byte	0x29
 4791 0069 6D000000 		.4byte	0x6d
 4792 006d 04       		.uleb128 0x4
 4793 006e 02       		.byte	0x2
 4794 006f 05       		.byte	0x5
 4795 0070 C70A0000 		.4byte	.LASF7
 4796 0074 03       		.uleb128 0x3
 4797 0075 40040000 		.4byte	.LASF8
 4798 0079 05       		.byte	0x5
 4799 007a 2B       		.byte	0x2b
 4800 007b 7F000000 		.4byte	0x7f
 4801 007f 04       		.uleb128 0x4
 4802 0080 02       		.byte	0x2
 4803 0081 07       		.byte	0x7
ARM GAS  C:\Users\jo\AppData\Local\Temp\ccLDsGlj.s 			page 88


 4804 0082 0E100000 		.4byte	.LASF9
 4805 0086 03       		.uleb128 0x3
 4806 0087 29020000 		.4byte	.LASF10
 4807 008b 05       		.byte	0x5
 4808 008c 3F       		.byte	0x3f
 4809 008d 91000000 		.4byte	0x91
 4810 0091 04       		.uleb128 0x4
 4811 0092 04       		.byte	0x4
 4812 0093 05       		.byte	0x5
 4813 0094 FF0A0000 		.4byte	.LASF11
 4814 0098 03       		.uleb128 0x3
 4815 0099 7B070000 		.4byte	.LASF12
 4816 009d 05       		.byte	0x5
 4817 009e 41       		.byte	0x41
 4818 009f A3000000 		.4byte	0xa3
 4819 00a3 04       		.uleb128 0x4
 4820 00a4 04       		.byte	0x4
 4821 00a5 07       		.byte	0x7
 4822 00a6 A80D0000 		.4byte	.LASF13
 4823 00aa 04       		.uleb128 0x4
 4824 00ab 08       		.byte	0x8
 4825 00ac 05       		.byte	0x5
 4826 00ad 4D070000 		.4byte	.LASF14
 4827 00b1 03       		.uleb128 0x3
 4828 00b2 EE050000 		.4byte	.LASF15
 4829 00b6 05       		.byte	0x5
 4830 00b7 5B       		.byte	0x5b
 4831 00b8 BC000000 		.4byte	0xbc
 4832 00bc 04       		.uleb128 0x4
 4833 00bd 08       		.byte	0x8
 4834 00be 07       		.byte	0x7
 4835 00bf F1030000 		.4byte	.LASF16
 4836 00c3 03       		.uleb128 0x3
 4837 00c4 62060000 		.4byte	.LASF17
 4838 00c8 06       		.byte	0x6
 4839 00c9 14       		.byte	0x14
 4840 00ca 3E000000 		.4byte	0x3e
 4841 00ce 03       		.uleb128 0x3
 4842 00cf B8070000 		.4byte	.LASF18
 4843 00d3 06       		.byte	0x6
 4844 00d4 15       		.byte	0x15
 4845 00d5 50000000 		.4byte	0x50
 4846 00d9 03       		.uleb128 0x3
 4847 00da BD030000 		.4byte	.LASF19
 4848 00de 06       		.byte	0x6
 4849 00df 20       		.byte	0x20
 4850 00e0 62000000 		.4byte	0x62
 4851 00e4 03       		.uleb128 0x3
 4852 00e5 410A0000 		.4byte	.LASF20
 4853 00e9 06       		.byte	0x6
 4854 00ea 21       		.byte	0x21
 4855 00eb 74000000 		.4byte	0x74
 4856 00ef 03       		.uleb128 0x3
 4857 00f0 E80D0000 		.4byte	.LASF21
 4858 00f4 06       		.byte	0x6
 4859 00f5 2C       		.byte	0x2c
 4860 00f6 86000000 		.4byte	0x86
ARM GAS  C:\Users\jo\AppData\Local\Temp\ccLDsGlj.s 			page 89


 4861 00fa 03       		.uleb128 0x3
 4862 00fb 40030000 		.4byte	.LASF22
 4863 00ff 06       		.byte	0x6
 4864 0100 2D       		.byte	0x2d
 4865 0101 98000000 		.4byte	0x98
 4866 0105 03       		.uleb128 0x3
 4867 0106 A30B0000 		.4byte	.LASF23
 4868 010a 06       		.byte	0x6
 4869 010b 39       		.byte	0x39
 4870 010c B1000000 		.4byte	0xb1
 4871 0110 05       		.uleb128 0x5
 4872 0111 EF000000 		.4byte	0xef
 4873 0115 03       		.uleb128 0x3
 4874 0116 820A0000 		.4byte	.LASF24
 4875 011a 07       		.byte	0x7
 4876 011b 45       		.byte	0x45
 4877 011c FA000000 		.4byte	0xfa
 4878 0120 03       		.uleb128 0x3
 4879 0121 110A0000 		.4byte	.LASF25
 4880 0125 07       		.byte	0x7
 4881 0126 48       		.byte	0x48
 4882 0127 CE000000 		.4byte	0xce
 4883 012b 03       		.uleb128 0x3
 4884 012c 3A070000 		.4byte	.LASF26
 4885 0130 07       		.byte	0x7
 4886 0131 49       		.byte	0x49
 4887 0132 CE000000 		.4byte	0xce
 4888 0136 03       		.uleb128 0x3
 4889 0137 A00D0000 		.4byte	.LASF27
 4890 013b 07       		.byte	0x7
 4891 013c 4A       		.byte	0x4a
 4892 013d CE000000 		.4byte	0xce
 4893 0141 03       		.uleb128 0x3
 4894 0142 99030000 		.4byte	.LASF28
 4895 0146 07       		.byte	0x7
 4896 0147 4C       		.byte	0x4c
 4897 0148 FA000000 		.4byte	0xfa
 4898 014c 03       		.uleb128 0x3
 4899 014d C6080000 		.4byte	.LASF29
 4900 0151 07       		.byte	0x7
 4901 0152 4D       		.byte	0x4d
 4902 0153 EF000000 		.4byte	0xef
 4903 0157 03       		.uleb128 0x3
 4904 0158 5B030000 		.4byte	.LASF30
 4905 015c 07       		.byte	0x7
 4906 015d 4F       		.byte	0x4f
 4907 015e FA000000 		.4byte	0xfa
 4908 0162 03       		.uleb128 0x3
 4909 0163 C0080000 		.4byte	.LASF31
 4910 0167 07       		.byte	0x7
 4911 0168 51       		.byte	0x51
 4912 0169 EF000000 		.4byte	0xef
 4913 016d 03       		.uleb128 0x3
 4914 016e E5000000 		.4byte	.LASF32
 4915 0172 08       		.byte	0x8
 4916 0173 33       		.byte	0x33
 4917 0174 FA000000 		.4byte	0xfa
ARM GAS  C:\Users\jo\AppData\Local\Temp\ccLDsGlj.s 			page 90


 4918 0178 03       		.uleb128 0x3
 4919 0179 13050000 		.4byte	.LASF33
 4920 017d 08       		.byte	0x8
 4921 017e 3F       		.byte	0x3f
 4922 017f 83010000 		.4byte	0x183
 4923 0183 06       		.uleb128 0x6
 4924 0184 03080000 		.4byte	.LASF52
 4925 0188 44       		.byte	0x44
 4926 0189 09       		.byte	0x9
 4927 018a BE       		.byte	0xbe
 4928 018b 70020000 		.4byte	0x270
 4929 018f 07       		.uleb128 0x7
 4930 0190 28050000 		.4byte	.LASF34
 4931 0194 09       		.byte	0x9
 4932 0195 BF       		.byte	0xbf
 4933 0196 4E060000 		.4byte	0x64e
 4934 019a 00       		.byte	0
 4935 019b 07       		.uleb128 0x7
 4936 019c 830D0000 		.4byte	.LASF35
 4937 01a0 09       		.byte	0x9
 4938 01a1 C1       		.byte	0xc1
 4939 01a2 4E060000 		.4byte	0x64e
 4940 01a6 04       		.byte	0x4
 4941 01a7 07       		.uleb128 0x7
 4942 01a8 94000000 		.4byte	.LASF36
 4943 01ac 09       		.byte	0x9
 4944 01ad C3       		.byte	0xc3
 4945 01ae 41010000 		.4byte	0x141
 4946 01b2 08       		.byte	0x8
 4947 01b3 07       		.uleb128 0x7
 4948 01b4 AC0B0000 		.4byte	.LASF37
 4949 01b8 09       		.byte	0x9
 4950 01b9 C4       		.byte	0xc4
 4951 01ba 9A040000 		.4byte	0x49a
 4952 01be 0C       		.byte	0xc
 4953 01bf 07       		.uleb128 0x7
 4954 01c0 9B040000 		.4byte	.LASF38
 4955 01c4 09       		.byte	0x9
 4956 01c5 C6       		.byte	0xc6
 4957 01c6 4E060000 		.4byte	0x64e
 4958 01ca 10       		.byte	0x10
 4959 01cb 07       		.uleb128 0x7
 4960 01cc 69070000 		.4byte	.LASF39
 4961 01d0 09       		.byte	0x9
 4962 01d1 C7       		.byte	0xc7
 4963 01d2 4E060000 		.4byte	0x64e
 4964 01d6 14       		.byte	0x14
 4965 01d7 07       		.uleb128 0x7
 4966 01d8 7E060000 		.4byte	.LASF40
 4967 01dc 09       		.byte	0x9
 4968 01dd CE       		.byte	0xce
 4969 01de 23060000 		.4byte	0x623
 4970 01e2 18       		.byte	0x18
 4971 01e3 07       		.uleb128 0x7
 4972 01e4 9A090000 		.4byte	.LASF41
 4973 01e8 09       		.byte	0x9
 4974 01e9 D9       		.byte	0xd9
ARM GAS  C:\Users\jo\AppData\Local\Temp\ccLDsGlj.s 			page 91


 4975 01ea 2B010000 		.4byte	0x12b
 4976 01ee 1C       		.byte	0x1c
 4977 01ef 07       		.uleb128 0x7
 4978 01f0 0A090000 		.4byte	.LASF42
 4979 01f4 09       		.byte	0x9
 4980 01f5 DD       		.byte	0xdd
 4981 01f6 20010000 		.4byte	0x120
 4982 01fa 1D       		.byte	0x1d
 4983 01fb 07       		.uleb128 0x7
 4984 01fc C70E0000 		.4byte	.LASF43
 4985 0200 09       		.byte	0x9
 4986 0201 E2       		.byte	0xe2
 4987 0202 36010000 		.4byte	0x136
 4988 0206 1E       		.byte	0x1e
 4989 0207 08       		.uleb128 0x8
 4990 0208 705F7500 		.ascii	"p_u\000"
 4991 020c 09       		.byte	0x9
 4992 020d 1401     		.2byte	0x114
 4993 020f 54060000 		.4byte	0x654
 4994 0213 20       		.byte	0x20
 4995 0214 09       		.uleb128 0x9
 4996 0215 16020000 		.4byte	.LASF44
 4997 0219 09       		.byte	0x9
 4998 021a 1901     		.2byte	0x119
 4999 021c 70020000 		.4byte	0x270
 5000 0220 24       		.byte	0x24
 5001 0221 09       		.uleb128 0x9
 5002 0222 55100000 		.4byte	.LASF45
 5003 0226 09       		.byte	0x9
 5004 0227 1F01     		.2byte	0x11f
 5005 0229 94020000 		.4byte	0x294
 5006 022d 28       		.byte	0x28
 5007 022e 09       		.uleb128 0x9
 5008 022f F2090000 		.4byte	.LASF46
 5009 0233 09       		.byte	0x9
 5010 0234 2301     		.2byte	0x123
 5011 0236 4C010000 		.4byte	0x14c
 5012 023a 30       		.byte	0x30
 5013 023b 09       		.uleb128 0x9
 5014 023c E40A0000 		.4byte	.LASF47
 5015 0240 09       		.byte	0x9
 5016 0241 2901     		.2byte	0x129
 5017 0243 57010000 		.4byte	0x157
 5018 0247 34       		.byte	0x34
 5019 0248 09       		.uleb128 0x9
 5020 0249 E3070000 		.4byte	.LASF48
 5021 024d 09       		.byte	0x9
 5022 024e 3001     		.2byte	0x130
 5023 0250 BD060000 		.4byte	0x6bd
 5024 0254 38       		.byte	0x38
 5025 0255 09       		.uleb128 0x9
 5026 0256 A00A0000 		.4byte	.LASF49
 5027 025a 09       		.byte	0x9
 5028 025b 3401     		.2byte	0x134
 5029 025d 41010000 		.4byte	0x141
 5030 0261 3C       		.byte	0x3c
 5031 0262 09       		.uleb128 0x9
ARM GAS  C:\Users\jo\AppData\Local\Temp\ccLDsGlj.s 			page 92


 5032 0263 DB070000 		.4byte	.LASF50
 5033 0267 09       		.byte	0x9
 5034 0268 3A01     		.2byte	0x13a
 5035 026a 47030000 		.4byte	0x347
 5036 026e 40       		.byte	0x40
 5037 026f 00       		.byte	0
 5038 0270 03       		.uleb128 0x3
 5039 0271 E3010000 		.4byte	.LASF51
 5040 0275 08       		.byte	0x8
 5041 0276 44       		.byte	0x44
 5042 0277 7B020000 		.4byte	0x27b
 5043 027b 06       		.uleb128 0x6
 5044 027c 00000000 		.4byte	.LASF53
 5045 0280 04       		.byte	0x4
 5046 0281 09       		.byte	0x9
 5047 0282 AC       		.byte	0xac
 5048 0283 94020000 		.4byte	0x294
 5049 0287 07       		.uleb128 0x7
 5050 0288 28050000 		.4byte	.LASF34
 5051 028c 09       		.byte	0x9
 5052 028d AD       		.byte	0xad
 5053 028e 4E060000 		.4byte	0x64e
 5054 0292 00       		.byte	0
 5055 0293 00       		.byte	0
 5056 0294 03       		.uleb128 0x3
 5057 0295 10000000 		.4byte	.LASF54
 5058 0299 08       		.byte	0x8
 5059 029a 4B       		.byte	0x4b
 5060 029b 9F020000 		.4byte	0x29f
 5061 029f 06       		.uleb128 0x6
 5062 02a0 7E080000 		.4byte	.LASF55
 5063 02a4 08       		.byte	0x8
 5064 02a5 09       		.byte	0x9
 5065 02a6 B3       		.byte	0xb3
 5066 02a7 C4020000 		.4byte	0x2c4
 5067 02ab 07       		.uleb128 0x7
 5068 02ac 28050000 		.4byte	.LASF34
 5069 02b0 09       		.byte	0x9
 5070 02b1 B4       		.byte	0xb4
 5071 02b2 4E060000 		.4byte	0x64e
 5072 02b6 00       		.byte	0
 5073 02b7 07       		.uleb128 0x7
 5074 02b8 830D0000 		.4byte	.LASF35
 5075 02bc 09       		.byte	0x9
 5076 02bd B5       		.byte	0xb5
 5077 02be 4E060000 		.4byte	0x64e
 5078 02c2 04       		.byte	0x4
 5079 02c3 00       		.byte	0
 5080 02c4 03       		.uleb128 0x3
 5081 02c5 BA0D0000 		.4byte	.LASF56
 5082 02c9 08       		.byte	0x8
 5083 02ca 52       		.byte	0x52
 5084 02cb CF020000 		.4byte	0x2cf
 5085 02cf 0A       		.uleb128 0xa
 5086 02d0 92020000 		.4byte	.LASF57
 5087 02d4 1C       		.byte	0x1c
 5088 02d5 09       		.byte	0x9
ARM GAS  C:\Users\jo\AppData\Local\Temp\ccLDsGlj.s 			page 93


 5089 02d6 7201     		.2byte	0x172
 5090 02d8 2B030000 		.4byte	0x32b
 5091 02dc 09       		.uleb128 0x9
 5092 02dd B1080000 		.4byte	.LASF58
 5093 02e1 09       		.byte	0x9
 5094 02e2 7301     		.2byte	0x173
 5095 02e4 94020000 		.4byte	0x294
 5096 02e8 00       		.byte	0
 5097 02e9 09       		.uleb128 0x9
 5098 02ea 67030000 		.4byte	.LASF59
 5099 02ee 09       		.byte	0x9
 5100 02ef 7401     		.2byte	0x174
 5101 02f1 41010000 		.4byte	0x141
 5102 02f5 08       		.byte	0x8
 5103 02f6 09       		.uleb128 0x9
 5104 02f7 21100000 		.4byte	.LASF60
 5105 02fb 09       		.byte	0x9
 5106 02fc 7601     		.2byte	0x176
 5107 02fe 9A040000 		.4byte	0x49a
 5108 0302 0C       		.byte	0xc
 5109 0303 09       		.uleb128 0x9
 5110 0304 05070000 		.4byte	.LASF61
 5111 0308 09       		.byte	0x9
 5112 0309 7901     		.2byte	0x179
 5113 030b 4E060000 		.4byte	0x64e
 5114 030f 10       		.byte	0x10
 5115 0310 09       		.uleb128 0x9
 5116 0311 BD090000 		.4byte	.LASF62
 5117 0315 09       		.byte	0x9
 5118 0316 7A01     		.2byte	0x17a
 5119 0318 4E060000 		.4byte	0x64e
 5120 031c 14       		.byte	0x14
 5121 031d 09       		.uleb128 0x9
 5122 031e DA0A0000 		.4byte	.LASF63
 5123 0322 09       		.byte	0x9
 5124 0323 7D01     		.2byte	0x17d
 5125 0325 4E060000 		.4byte	0x64e
 5126 0329 18       		.byte	0x18
 5127 032a 00       		.byte	0
 5128 032b 03       		.uleb128 0x3
 5129 032c 02030000 		.4byte	.LASF64
 5130 0330 08       		.byte	0x8
 5131 0331 57       		.byte	0x57
 5132 0332 36030000 		.4byte	0x336
 5133 0336 0B       		.uleb128 0xb
 5134 0337 04       		.byte	0x4
 5135 0338 3C030000 		.4byte	0x33c
 5136 033c 0C       		.uleb128 0xc
 5137 033d 47030000 		.4byte	0x347
 5138 0341 0D       		.uleb128 0xd
 5139 0342 47030000 		.4byte	0x347
 5140 0346 00       		.byte	0
 5141 0347 0E       		.uleb128 0xe
 5142 0348 04       		.byte	0x4
 5143 0349 03       		.uleb128 0x3
 5144 034a 21090000 		.4byte	.LASF65
 5145 034e 08       		.byte	0x8
ARM GAS  C:\Users\jo\AppData\Local\Temp\ccLDsGlj.s 			page 94


 5146 034f 5C       		.byte	0x5c
 5147 0350 54030000 		.4byte	0x354
 5148 0354 0A       		.uleb128 0xa
 5149 0355 AC030000 		.4byte	.LASF66
 5150 0359 14       		.byte	0x14
 5151 035a 09       		.byte	0x9
 5152 035b 4D01     		.2byte	0x14d
 5153 035d A3030000 		.4byte	0x3a3
 5154 0361 09       		.uleb128 0x9
 5155 0362 8A0F0000 		.4byte	.LASF67
 5156 0366 09       		.byte	0x9
 5157 0367 4E01     		.2byte	0x14e
 5158 0369 C3060000 		.4byte	0x6c3
 5159 036d 00       		.byte	0
 5160 036e 09       		.uleb128 0x9
 5161 036f A8100000 		.4byte	.LASF68
 5162 0373 09       		.byte	0x9
 5163 0374 4F01     		.2byte	0x14f
 5164 0376 C3060000 		.4byte	0x6c3
 5165 037a 04       		.byte	0x4
 5166 037b 09       		.uleb128 0x9
 5167 037c D8060000 		.4byte	.LASF69
 5168 0380 09       		.byte	0x9
 5169 0381 5001     		.2byte	0x150
 5170 0383 6D010000 		.4byte	0x16d
 5171 0387 08       		.byte	0x8
 5172 0388 09       		.uleb128 0x9
 5173 0389 86100000 		.4byte	.LASF70
 5174 038d 09       		.byte	0x9
 5175 038e 5101     		.2byte	0x151
 5176 0390 2B030000 		.4byte	0x32b
 5177 0394 0C       		.byte	0xc
 5178 0395 09       		.uleb128 0x9
 5179 0396 630E0000 		.4byte	.LASF71
 5180 039a 09       		.byte	0x9
 5181 039b 5301     		.2byte	0x153
 5182 039d 47030000 		.4byte	0x347
 5183 03a1 10       		.byte	0x10
 5184 03a2 00       		.byte	0
 5185 03a3 03       		.uleb128 0x3
 5186 03a4 B10E0000 		.4byte	.LASF72
 5187 03a8 08       		.byte	0x8
 5188 03a9 61       		.byte	0x61
 5189 03aa AE030000 		.4byte	0x3ae
 5190 03ae 0A       		.uleb128 0xa
 5191 03af A3040000 		.4byte	.LASF73
 5192 03b3 10       		.byte	0x10
 5193 03b4 09       		.byte	0x9
 5194 03b5 5D01     		.2byte	0x15d
 5195 03b7 F0030000 		.4byte	0x3f0
 5196 03bb 09       		.uleb128 0x9
 5197 03bc 8A0F0000 		.4byte	.LASF67
 5198 03c0 09       		.byte	0x9
 5199 03c1 5E01     		.2byte	0x15e
 5200 03c3 C3060000 		.4byte	0x6c3
 5201 03c7 00       		.byte	0
 5202 03c8 09       		.uleb128 0x9
ARM GAS  C:\Users\jo\AppData\Local\Temp\ccLDsGlj.s 			page 95


 5203 03c9 A8100000 		.4byte	.LASF68
 5204 03cd 09       		.byte	0x9
 5205 03ce 6001     		.2byte	0x160
 5206 03d0 C3060000 		.4byte	0x6c3
 5207 03d4 04       		.byte	0x4
 5208 03d5 09       		.uleb128 0x9
 5209 03d6 D8060000 		.4byte	.LASF69
 5210 03da 09       		.byte	0x9
 5211 03db 6201     		.2byte	0x162
 5212 03dd 6D010000 		.4byte	0x16d
 5213 03e1 08       		.byte	0x8
 5214 03e2 09       		.uleb128 0x9
 5215 03e3 0D070000 		.4byte	.LASF74
 5216 03e7 09       		.byte	0x9
 5217 03e8 6A01     		.2byte	0x16a
 5218 03ea 6D010000 		.4byte	0x16d
 5219 03ee 0C       		.byte	0xc
 5220 03ef 00       		.byte	0
 5221 03f0 03       		.uleb128 0x3
 5222 03f1 2B070000 		.4byte	.LASF75
 5223 03f5 08       		.byte	0x8
 5224 03f6 66       		.byte	0x66
 5225 03f7 FB030000 		.4byte	0x3fb
 5226 03fb 0A       		.uleb128 0xa
 5227 03fc 12030000 		.4byte	.LASF76
 5228 0400 04       		.byte	0x4
 5229 0401 09       		.byte	0x9
 5230 0402 8401     		.2byte	0x184
 5231 0404 16040000 		.4byte	0x416
 5232 0408 09       		.uleb128 0x9
 5233 0409 00110000 		.4byte	.LASF77
 5234 040d 09       		.byte	0x9
 5235 040e 8C01     		.2byte	0x18c
 5236 0410 C9060000 		.4byte	0x6c9
 5237 0414 00       		.byte	0
 5238 0415 00       		.byte	0
 5239 0416 03       		.uleb128 0x3
 5240 0417 A00F0000 		.4byte	.LASF78
 5241 041b 08       		.byte	0x8
 5242 041c 6B       		.byte	0x6b
 5243 041d 21040000 		.4byte	0x421
 5244 0421 0F       		.uleb128 0xf
 5245 0422 4D0B0000 		.4byte	.LASF79
 5246 0426 D801     		.2byte	0x1d8
 5247 0428 09       		.byte	0x9
 5248 0429 A401     		.2byte	0x1a4
 5249 042b 7D040000 		.4byte	0x47d
 5250 042f 09       		.uleb128 0x9
 5251 0430 B20B0000 		.4byte	.LASF80
 5252 0434 09       		.byte	0x9
 5253 0435 A801     		.2byte	0x1a8
 5254 0437 C4020000 		.4byte	0x2c4
 5255 043b 00       		.byte	0
 5256 043c 09       		.uleb128 0x9
 5257 043d 78020000 		.4byte	.LASF81
 5258 0441 09       		.byte	0x9
 5259 0442 AC01     		.2byte	0x1ac
ARM GAS  C:\Users\jo\AppData\Local\Temp\ccLDsGlj.s 			page 96


 5260 0444 A3030000 		.4byte	0x3a3
 5261 0448 1C       		.byte	0x1c
 5262 0449 08       		.uleb128 0x8
 5263 044a 64626700 		.ascii	"dbg\000"
 5264 044e 09       		.byte	0x9
 5265 044f B001     		.2byte	0x1b0
 5266 0451 F0030000 		.4byte	0x3f0
 5267 0455 2C       		.byte	0x2c
 5268 0456 09       		.uleb128 0x9
 5269 0457 190A0000 		.4byte	.LASF82
 5270 045b 09       		.byte	0x9
 5271 045c B401     		.2byte	0x1b4
 5272 045e 78010000 		.4byte	0x178
 5273 0462 30       		.byte	0x30
 5274 0463 08       		.uleb128 0x8
 5275 0464 746D00   		.ascii	"tm\000"
 5276 0467 09       		.byte	0x9
 5277 0468 B901     		.2byte	0x1b9
 5278 046a 43060000 		.4byte	0x643
 5279 046e 74       		.byte	0x74
 5280 046f 09       		.uleb128 0x9
 5281 0470 0D080000 		.4byte	.LASF83
 5282 0474 09       		.byte	0x9
 5283 0475 C501     		.2byte	0x1c5
 5284 0477 CE060000 		.4byte	0x6ce
 5285 047b 78       		.byte	0x78
 5286 047c 00       		.byte	0
 5287 047d 04       		.uleb128 0x4
 5288 047e 04       		.byte	0x4
 5289 047f 07       		.byte	0x7
 5290 0480 EA060000 		.4byte	.LASF84
 5291 0484 03       		.uleb128 0x3
 5292 0485 8B000000 		.4byte	.LASF85
 5293 0489 0A       		.byte	0xa
 5294 048a 85       		.byte	0x85
 5295 048b 47030000 		.4byte	0x347
 5296 048f 03       		.uleb128 0x3
 5297 0490 34100000 		.4byte	.LASF86
 5298 0494 0A       		.byte	0xa
 5299 0495 8D       		.byte	0x8d
 5300 0496 05010000 		.4byte	0x105
 5301 049a 06       		.uleb128 0x6
 5302 049b 140B0000 		.4byte	.LASF87
 5303 049f 04       		.byte	0x4
 5304 04a0 0A       		.byte	0xa
 5305 04a1 A9       		.byte	0xa9
 5306 04a2 B3040000 		.4byte	0x4b3
 5307 04a6 10       		.uleb128 0x10
 5308 04a7 72313300 		.ascii	"r13\000"
 5309 04ab 0A       		.byte	0xa
 5310 04ac AA       		.byte	0xaa
 5311 04ad F4050000 		.4byte	0x5f4
 5312 04b1 00       		.byte	0
 5313 04b2 00       		.byte	0
 5314 04b3 06       		.uleb128 0x6
 5315 04b4 080B0000 		.4byte	.LASF88
 5316 04b8 64       		.byte	0x64
ARM GAS  C:\Users\jo\AppData\Local\Temp\ccLDsGlj.s 			page 97


 5317 04b9 0B       		.byte	0xb
 5318 04ba F4       		.byte	0xf4
 5319 04bb F4050000 		.4byte	0x5f4
 5320 04bf 10       		.uleb128 0x10
 5321 04c0 73313600 		.ascii	"s16\000"
 5322 04c4 0B       		.byte	0xb
 5323 04c5 F6       		.byte	0xf6
 5324 04c6 84040000 		.4byte	0x484
 5325 04ca 00       		.byte	0
 5326 04cb 10       		.uleb128 0x10
 5327 04cc 73313700 		.ascii	"s17\000"
 5328 04d0 0B       		.byte	0xb
 5329 04d1 F7       		.byte	0xf7
 5330 04d2 84040000 		.4byte	0x484
 5331 04d6 04       		.byte	0x4
 5332 04d7 10       		.uleb128 0x10
 5333 04d8 73313800 		.ascii	"s18\000"
 5334 04dc 0B       		.byte	0xb
 5335 04dd F8       		.byte	0xf8
 5336 04de 84040000 		.4byte	0x484
 5337 04e2 08       		.byte	0x8
 5338 04e3 10       		.uleb128 0x10
 5339 04e4 73313900 		.ascii	"s19\000"
 5340 04e8 0B       		.byte	0xb
 5341 04e9 F9       		.byte	0xf9
 5342 04ea 84040000 		.4byte	0x484
 5343 04ee 0C       		.byte	0xc
 5344 04ef 10       		.uleb128 0x10
 5345 04f0 73323000 		.ascii	"s20\000"
 5346 04f4 0B       		.byte	0xb
 5347 04f5 FA       		.byte	0xfa
 5348 04f6 84040000 		.4byte	0x484
 5349 04fa 10       		.byte	0x10
 5350 04fb 10       		.uleb128 0x10
 5351 04fc 73323100 		.ascii	"s21\000"
 5352 0500 0B       		.byte	0xb
 5353 0501 FB       		.byte	0xfb
 5354 0502 84040000 		.4byte	0x484
 5355 0506 14       		.byte	0x14
 5356 0507 10       		.uleb128 0x10
 5357 0508 73323200 		.ascii	"s22\000"
 5358 050c 0B       		.byte	0xb
 5359 050d FC       		.byte	0xfc
 5360 050e 84040000 		.4byte	0x484
 5361 0512 18       		.byte	0x18
 5362 0513 10       		.uleb128 0x10
 5363 0514 73323300 		.ascii	"s23\000"
 5364 0518 0B       		.byte	0xb
 5365 0519 FD       		.byte	0xfd
 5366 051a 84040000 		.4byte	0x484
 5367 051e 1C       		.byte	0x1c
 5368 051f 10       		.uleb128 0x10
 5369 0520 73323400 		.ascii	"s24\000"
 5370 0524 0B       		.byte	0xb
 5371 0525 FE       		.byte	0xfe
 5372 0526 84040000 		.4byte	0x484
 5373 052a 20       		.byte	0x20
ARM GAS  C:\Users\jo\AppData\Local\Temp\ccLDsGlj.s 			page 98


 5374 052b 10       		.uleb128 0x10
 5375 052c 73323500 		.ascii	"s25\000"
 5376 0530 0B       		.byte	0xb
 5377 0531 FF       		.byte	0xff
 5378 0532 84040000 		.4byte	0x484
 5379 0536 24       		.byte	0x24
 5380 0537 08       		.uleb128 0x8
 5381 0538 73323600 		.ascii	"s26\000"
 5382 053c 0B       		.byte	0xb
 5383 053d 0001     		.2byte	0x100
 5384 053f 84040000 		.4byte	0x484
 5385 0543 28       		.byte	0x28
 5386 0544 08       		.uleb128 0x8
 5387 0545 73323700 		.ascii	"s27\000"
 5388 0549 0B       		.byte	0xb
 5389 054a 0101     		.2byte	0x101
 5390 054c 84040000 		.4byte	0x484
 5391 0550 2C       		.byte	0x2c
 5392 0551 08       		.uleb128 0x8
 5393 0552 73323800 		.ascii	"s28\000"
 5394 0556 0B       		.byte	0xb
 5395 0557 0201     		.2byte	0x102
 5396 0559 84040000 		.4byte	0x484
 5397 055d 30       		.byte	0x30
 5398 055e 08       		.uleb128 0x8
 5399 055f 73323900 		.ascii	"s29\000"
 5400 0563 0B       		.byte	0xb
 5401 0564 0301     		.2byte	0x103
 5402 0566 84040000 		.4byte	0x484
 5403 056a 34       		.byte	0x34
 5404 056b 08       		.uleb128 0x8
 5405 056c 73333000 		.ascii	"s30\000"
 5406 0570 0B       		.byte	0xb
 5407 0571 0401     		.2byte	0x104
 5408 0573 84040000 		.4byte	0x484
 5409 0577 38       		.byte	0x38
 5410 0578 08       		.uleb128 0x8
 5411 0579 73333100 		.ascii	"s31\000"
 5412 057d 0B       		.byte	0xb
 5413 057e 0501     		.2byte	0x105
 5414 0580 84040000 		.4byte	0x484
 5415 0584 3C       		.byte	0x3c
 5416 0585 08       		.uleb128 0x8
 5417 0586 723400   		.ascii	"r4\000"
 5418 0589 0B       		.byte	0xb
 5419 058a 0701     		.2byte	0x107
 5420 058c 84040000 		.4byte	0x484
 5421 0590 40       		.byte	0x40
 5422 0591 08       		.uleb128 0x8
 5423 0592 723500   		.ascii	"r5\000"
 5424 0595 0B       		.byte	0xb
 5425 0596 0801     		.2byte	0x108
 5426 0598 84040000 		.4byte	0x484
 5427 059c 44       		.byte	0x44
 5428 059d 08       		.uleb128 0x8
 5429 059e 723600   		.ascii	"r6\000"
 5430 05a1 0B       		.byte	0xb
ARM GAS  C:\Users\jo\AppData\Local\Temp\ccLDsGlj.s 			page 99


 5431 05a2 0901     		.2byte	0x109
 5432 05a4 84040000 		.4byte	0x484
 5433 05a8 48       		.byte	0x48
 5434 05a9 08       		.uleb128 0x8
 5435 05aa 723700   		.ascii	"r7\000"
 5436 05ad 0B       		.byte	0xb
 5437 05ae 0A01     		.2byte	0x10a
 5438 05b0 84040000 		.4byte	0x484
 5439 05b4 4C       		.byte	0x4c
 5440 05b5 08       		.uleb128 0x8
 5441 05b6 723800   		.ascii	"r8\000"
 5442 05b9 0B       		.byte	0xb
 5443 05ba 0B01     		.2byte	0x10b
 5444 05bc 84040000 		.4byte	0x484
 5445 05c0 50       		.byte	0x50
 5446 05c1 08       		.uleb128 0x8
 5447 05c2 723900   		.ascii	"r9\000"
 5448 05c5 0B       		.byte	0xb
 5449 05c6 0C01     		.2byte	0x10c
 5450 05c8 84040000 		.4byte	0x484
 5451 05cc 54       		.byte	0x54
 5452 05cd 08       		.uleb128 0x8
 5453 05ce 72313000 		.ascii	"r10\000"
 5454 05d2 0B       		.byte	0xb
 5455 05d3 0D01     		.2byte	0x10d
 5456 05d5 84040000 		.4byte	0x484
 5457 05d9 58       		.byte	0x58
 5458 05da 08       		.uleb128 0x8
 5459 05db 72313100 		.ascii	"r11\000"
 5460 05df 0B       		.byte	0xb
 5461 05e0 0E01     		.2byte	0x10e
 5462 05e2 84040000 		.4byte	0x484
 5463 05e6 5C       		.byte	0x5c
 5464 05e7 08       		.uleb128 0x8
 5465 05e8 6C7200   		.ascii	"lr\000"
 5466 05eb 0B       		.byte	0xb
 5467 05ec 0F01     		.2byte	0x10f
 5468 05ee 84040000 		.4byte	0x484
 5469 05f2 60       		.byte	0x60
 5470 05f3 00       		.byte	0
 5471 05f4 0B       		.uleb128 0xb
 5472 05f5 04       		.byte	0x4
 5473 05f6 B3040000 		.4byte	0x4b3
 5474 05fa 03       		.uleb128 0x3
 5475 05fb 3E050000 		.4byte	.LASF89
 5476 05ff 0C       		.byte	0xc
 5477 0600 28       		.byte	0x28
 5478 0601 05060000 		.4byte	0x605
 5479 0605 06       		.uleb128 0x6
 5480 0606 4D000000 		.4byte	.LASF90
 5481 060a 04       		.byte	0x4
 5482 060b 0D       		.byte	0xd
 5483 060c 00       		.byte	0
 5484 060d 1C060000 		.4byte	0x61c
 5485 0611 11       		.uleb128 0x11
 5486 0612 1C090000 		.4byte	.LASF94
 5487 0616 47030000 		.4byte	0x347
ARM GAS  C:\Users\jo\AppData\Local\Temp\ccLDsGlj.s 			page 100


 5488 061a 00       		.byte	0
 5489 061b 00       		.byte	0
 5490 061c 04       		.uleb128 0x4
 5491 061d 01       		.byte	0x1
 5492 061e 08       		.byte	0x8
 5493 061f BE0F0000 		.4byte	.LASF91
 5494 0623 0B       		.uleb128 0xb
 5495 0624 04       		.byte	0x4
 5496 0625 29060000 		.4byte	0x629
 5497 0629 12       		.uleb128 0x12
 5498 062a 1C060000 		.4byte	0x61c
 5499 062e 13       		.uleb128 0x13
 5500 062f 04       		.byte	0x4
 5501 0630 0E       		.byte	0xe
 5502 0631 38       		.byte	0x38
 5503 0632 43060000 		.4byte	0x643
 5504 0636 07       		.uleb128 0x7
 5505 0637 08040000 		.4byte	.LASF92
 5506 063b 0E       		.byte	0xe
 5507 063c 3C       		.byte	0x3c
 5508 063d 15010000 		.4byte	0x115
 5509 0641 00       		.byte	0
 5510 0642 00       		.byte	0
 5511 0643 03       		.uleb128 0x3
 5512 0644 F8090000 		.4byte	.LASF93
 5513 0648 0E       		.byte	0xe
 5514 0649 3D       		.byte	0x3d
 5515 064a 2E060000 		.4byte	0x62e
 5516 064e 0B       		.uleb128 0xb
 5517 064f 04       		.byte	0x4
 5518 0650 78010000 		.4byte	0x178
 5519 0654 14       		.uleb128 0x14
 5520 0655 04       		.byte	0x4
 5521 0656 09       		.byte	0x9
 5522 0657 F6       		.byte	0xf6
 5523 0658 8C060000 		.4byte	0x68c
 5524 065c 15       		.uleb128 0x15
 5525 065d 6C050000 		.4byte	.LASF95
 5526 0661 09       		.byte	0x9
 5527 0662 FD       		.byte	0xfd
 5528 0663 4C010000 		.4byte	0x14c
 5529 0667 16       		.uleb128 0x16
 5530 0668 1C110000 		.4byte	.LASF96
 5531 066c 09       		.byte	0x9
 5532 066d 0401     		.2byte	0x104
 5533 066f 4C010000 		.4byte	0x14c
 5534 0673 16       		.uleb128 0x16
 5535 0674 0B030000 		.4byte	.LASF97
 5536 0678 09       		.byte	0x9
 5537 0679 0B01     		.2byte	0x10b
 5538 067b 47030000 		.4byte	0x347
 5539 067f 16       		.uleb128 0x16
 5540 0680 B2020000 		.4byte	.LASF98
 5541 0684 09       		.byte	0x9
 5542 0685 1201     		.2byte	0x112
 5543 0687 57010000 		.4byte	0x157
 5544 068b 00       		.byte	0
ARM GAS  C:\Users\jo\AppData\Local\Temp\ccLDsGlj.s 			page 101


 5545 068c 06       		.uleb128 0x6
 5546 068d 93030000 		.4byte	.LASF99
 5547 0691 10       		.byte	0x10
 5548 0692 0F       		.byte	0xf
 5549 0693 39       		.byte	0x39
 5550 0694 BD060000 		.4byte	0x6bd
 5551 0698 07       		.uleb128 0x7
 5552 0699 EF0A0000 		.4byte	.LASF100
 5553 069d 0F       		.byte	0xf
 5554 069e 3A       		.byte	0x3a
 5555 069f 94020000 		.4byte	0x294
 5556 06a3 00       		.byte	0
 5557 06a4 07       		.uleb128 0x7
 5558 06a5 0D010000 		.4byte	.LASF101
 5559 06a9 0F       		.byte	0xf
 5560 06aa 3C       		.byte	0x3c
 5561 06ab 4E060000 		.4byte	0x64e
 5562 06af 08       		.byte	0x8
 5563 06b0 07       		.uleb128 0x7
 5564 06b1 EB0F0000 		.4byte	.LASF102
 5565 06b5 0F       		.byte	0xf
 5566 06b6 3E       		.byte	0x3e
 5567 06b7 2E070000 		.4byte	0x72e
 5568 06bb 0C       		.byte	0xc
 5569 06bc 00       		.byte	0
 5570 06bd 0B       		.uleb128 0xb
 5571 06be 04       		.byte	0x4
 5572 06bf 8C060000 		.4byte	0x68c
 5573 06c3 0B       		.uleb128 0xb
 5574 06c4 04       		.byte	0x4
 5575 06c5 49030000 		.4byte	0x349
 5576 06c9 05       		.uleb128 0x5
 5577 06ca 23060000 		.4byte	0x623
 5578 06ce 17       		.uleb128 0x17
 5579 06cf 8F040000 		.4byte	0x48f
 5580 06d3 DE060000 		.4byte	0x6de
 5581 06d7 18       		.uleb128 0x18
 5582 06d8 7D040000 		.4byte	0x47d
 5583 06dc 2B       		.byte	0x2b
 5584 06dd 00       		.byte	0
 5585 06de 0B       		.uleb128 0xb
 5586 06df 04       		.byte	0x4
 5587 06e0 E4060000 		.4byte	0x6e4
 5588 06e4 19       		.uleb128 0x19
 5589 06e5 4C010000 		.4byte	0x14c
 5590 06e9 F3060000 		.4byte	0x6f3
 5591 06ed 0D       		.uleb128 0xd
 5592 06ee 47030000 		.4byte	0x347
 5593 06f2 00       		.byte	0
 5594 06f3 06       		.uleb128 0x6
 5595 06f4 130C0000 		.4byte	.LASF103
 5596 06f8 0C       		.byte	0xc
 5597 06f9 10       		.byte	0x10
 5598 06fa 34       		.byte	0x34
 5599 06fb 18070000 		.4byte	0x718
 5600 06ff 07       		.uleb128 0x7
 5601 0700 15010000 		.4byte	.LASF104
ARM GAS  C:\Users\jo\AppData\Local\Temp\ccLDsGlj.s 			page 102


 5602 0704 10       		.byte	0x10
 5603 0705 35       		.byte	0x35
 5604 0706 94020000 		.4byte	0x294
 5605 070a 00       		.byte	0
 5606 070b 07       		.uleb128 0x7
 5607 070c 2B030000 		.4byte	.LASF105
 5608 0710 10       		.byte	0x10
 5609 0711 37       		.byte	0x37
 5610 0712 62010000 		.4byte	0x162
 5611 0716 08       		.byte	0x8
 5612 0717 00       		.byte	0
 5613 0718 03       		.uleb128 0x3
 5614 0719 8F040000 		.4byte	.LASF106
 5615 071d 10       		.byte	0x10
 5616 071e 38       		.byte	0x38
 5617 071f F3060000 		.4byte	0x6f3
 5618 0723 03       		.uleb128 0x3
 5619 0724 4E0E0000 		.4byte	.LASF107
 5620 0728 0F       		.byte	0xf
 5621 0729 34       		.byte	0x34
 5622 072a 8C060000 		.4byte	0x68c
 5623 072e 0B       		.uleb128 0xb
 5624 072f 04       		.byte	0x4
 5625 0730 23070000 		.4byte	0x723
 5626 0734 13       		.uleb128 0x13
 5627 0735 28       		.byte	0x28
 5628 0736 11       		.byte	0x11
 5629 0737 38       		.byte	0x38
 5630 0738 85070000 		.4byte	0x785
 5631 073c 07       		.uleb128 0x7
 5632 073d 71070000 		.4byte	.LASF108
 5633 0741 11       		.byte	0x11
 5634 0742 39       		.byte	0x39
 5635 0743 85070000 		.4byte	0x785
 5636 0747 00       		.byte	0
 5637 0748 07       		.uleb128 0x7
 5638 0749 A2090000 		.4byte	.LASF109
 5639 074d 11       		.byte	0x11
 5640 074e 3B       		.byte	0x3b
 5641 074f 85070000 		.4byte	0x785
 5642 0753 04       		.byte	0x4
 5643 0754 07       		.uleb128 0x7
 5644 0755 D10A0000 		.4byte	.LASF110
 5645 0759 11       		.byte	0x11
 5646 075a 3D       		.byte	0x3d
 5647 075b 85070000 		.4byte	0x785
 5648 075f 08       		.byte	0x8
 5649 0760 07       		.uleb128 0x7
 5650 0761 9C050000 		.4byte	.LASF111
 5651 0765 11       		.byte	0x11
 5652 0766 3E       		.byte	0x3e
 5653 0767 85070000 		.4byte	0x785
 5654 076b 0C       		.byte	0xc
 5655 076c 07       		.uleb128 0x7
 5656 076d C0070000 		.4byte	.LASF112
 5657 0771 11       		.byte	0x11
 5658 0772 3F       		.byte	0x3f
ARM GAS  C:\Users\jo\AppData\Local\Temp\ccLDsGlj.s 			page 103


 5659 0773 18070000 		.4byte	0x718
 5660 0777 10       		.byte	0x10
 5661 0778 07       		.uleb128 0x7
 5662 0779 22060000 		.4byte	.LASF113
 5663 077d 11       		.byte	0x11
 5664 077e 41       		.byte	0x41
 5665 077f 18070000 		.4byte	0x718
 5666 0783 1C       		.byte	0x1c
 5667 0784 00       		.byte	0
 5668 0785 0B       		.uleb128 0xb
 5669 0786 04       		.byte	0x4
 5670 0787 4C010000 		.4byte	0x14c
 5671 078b 03       		.uleb128 0x3
 5672 078c C3050000 		.4byte	.LASF114
 5673 0790 11       		.byte	0x11
 5674 0791 43       		.byte	0x43
 5675 0792 34070000 		.4byte	0x734
 5676 0796 0B       		.uleb128 0xb
 5677 0797 04       		.byte	0x4
 5678 0798 CE000000 		.4byte	0xce
 5679 079c 06       		.uleb128 0x6
 5680 079d 33020000 		.4byte	.LASF115
 5681 07a1 10       		.byte	0x10
 5682 07a2 12       		.byte	0x12
 5683 07a3 40       		.byte	0x40
 5684 07a4 D9070000 		.4byte	0x7d9
 5685 07a8 07       		.uleb128 0x7
 5686 07a9 48100000 		.4byte	.LASF116
 5687 07ad 12       		.byte	0x12
 5688 07ae 41       		.byte	0x41
 5689 07af FD070000 		.4byte	0x7fd
 5690 07b3 00       		.byte	0
 5691 07b4 07       		.uleb128 0x7
 5692 07b5 0E0C0000 		.4byte	.LASF117
 5693 07b9 12       		.byte	0x12
 5694 07ba 41       		.byte	0x41
 5695 07bb 1C080000 		.4byte	0x81c
 5696 07bf 04       		.byte	0x4
 5697 07c0 10       		.uleb128 0x10
 5698 07c1 70757400 		.ascii	"put\000"
 5699 07c5 12       		.byte	0x12
 5700 07c6 41       		.byte	0x41
 5701 07c7 36080000 		.4byte	0x836
 5702 07cb 08       		.byte	0x8
 5703 07cc 10       		.uleb128 0x10
 5704 07cd 67657400 		.ascii	"get\000"
 5705 07d1 12       		.byte	0x12
 5706 07d2 41       		.byte	0x41
 5707 07d3 DE060000 		.4byte	0x6de
 5708 07d7 0C       		.byte	0xc
 5709 07d8 00       		.byte	0
 5710 07d9 19       		.uleb128 0x19
 5711 07da 2C000000 		.4byte	0x2c
 5712 07de F2070000 		.4byte	0x7f2
 5713 07e2 0D       		.uleb128 0xd
 5714 07e3 47030000 		.4byte	0x347
 5715 07e7 0D       		.uleb128 0xd
ARM GAS  C:\Users\jo\AppData\Local\Temp\ccLDsGlj.s 			page 104


 5716 07e8 F2070000 		.4byte	0x7f2
 5717 07ec 0D       		.uleb128 0xd
 5718 07ed 2C000000 		.4byte	0x2c
 5719 07f1 00       		.byte	0
 5720 07f2 0B       		.uleb128 0xb
 5721 07f3 04       		.byte	0x4
 5722 07f4 F8070000 		.4byte	0x7f8
 5723 07f8 12       		.uleb128 0x12
 5724 07f9 CE000000 		.4byte	0xce
 5725 07fd 0B       		.uleb128 0xb
 5726 07fe 04       		.byte	0x4
 5727 07ff D9070000 		.4byte	0x7d9
 5728 0803 19       		.uleb128 0x19
 5729 0804 2C000000 		.4byte	0x2c
 5730 0808 1C080000 		.4byte	0x81c
 5731 080c 0D       		.uleb128 0xd
 5732 080d 47030000 		.4byte	0x347
 5733 0811 0D       		.uleb128 0xd
 5734 0812 96070000 		.4byte	0x796
 5735 0816 0D       		.uleb128 0xd
 5736 0817 2C000000 		.4byte	0x2c
 5737 081b 00       		.byte	0
 5738 081c 0B       		.uleb128 0xb
 5739 081d 04       		.byte	0x4
 5740 081e 03080000 		.4byte	0x803
 5741 0822 19       		.uleb128 0x19
 5742 0823 4C010000 		.4byte	0x14c
 5743 0827 36080000 		.4byte	0x836
 5744 082b 0D       		.uleb128 0xd
 5745 082c 47030000 		.4byte	0x347
 5746 0830 0D       		.uleb128 0xd
 5747 0831 CE000000 		.4byte	0xce
 5748 0835 00       		.byte	0
 5749 0836 0B       		.uleb128 0xb
 5750 0837 04       		.byte	0x4
 5751 0838 22080000 		.4byte	0x822
 5752 083c 13       		.uleb128 0x13
 5753 083d 04       		.byte	0x4
 5754 083e 12       		.byte	0x12
 5755 083f 49       		.byte	0x49
 5756 0840 51080000 		.4byte	0x851
 5757 0844 10       		.uleb128 0x10
 5758 0845 766D7400 		.ascii	"vmt\000"
 5759 0849 12       		.byte	0x12
 5760 084a 4B       		.byte	0x4b
 5761 084b 51080000 		.4byte	0x851
 5762 084f 00       		.byte	0
 5763 0850 00       		.byte	0
 5764 0851 0B       		.uleb128 0xb
 5765 0852 04       		.byte	0x4
 5766 0853 57080000 		.4byte	0x857
 5767 0857 12       		.uleb128 0x12
 5768 0858 9C070000 		.4byte	0x79c
 5769 085c 03       		.uleb128 0x3
 5770 085d 85060000 		.4byte	.LASF118
 5771 0861 12       		.byte	0x12
 5772 0862 4D       		.byte	0x4d
ARM GAS  C:\Users\jo\AppData\Local\Temp\ccLDsGlj.s 			page 105


 5773 0863 3C080000 		.4byte	0x83c
 5774 0867 04       		.uleb128 0x4
 5775 0868 01       		.byte	0x1
 5776 0869 02       		.byte	0x2
 5777 086a 96050000 		.4byte	.LASF119
 5778 086e 06       		.uleb128 0x6
 5779 086f 31090000 		.4byte	.LASF120
 5780 0873 10       		.byte	0x10
 5781 0874 13       		.byte	0x13
 5782 0875 2E       		.byte	0x2e
 5783 0876 AB080000 		.4byte	0x8ab
 5784 087a 07       		.uleb128 0x7
 5785 087b 48100000 		.4byte	.LASF116
 5786 087f 13       		.byte	0x13
 5787 0880 2F       		.byte	0x2f
 5788 0881 FD070000 		.4byte	0x7fd
 5789 0885 00       		.byte	0
 5790 0886 07       		.uleb128 0x7
 5791 0887 0E0C0000 		.4byte	.LASF117
 5792 088b 13       		.byte	0x13
 5793 088c 2F       		.byte	0x2f
 5794 088d 1C080000 		.4byte	0x81c
 5795 0891 04       		.byte	0x4
 5796 0892 10       		.uleb128 0x10
 5797 0893 70757400 		.ascii	"put\000"
 5798 0897 13       		.byte	0x13
 5799 0898 2F       		.byte	0x2f
 5800 0899 36080000 		.4byte	0x836
 5801 089d 08       		.byte	0x8
 5802 089e 10       		.uleb128 0x10
 5803 089f 67657400 		.ascii	"get\000"
 5804 08a3 13       		.byte	0x13
 5805 08a4 2F       		.byte	0x2f
 5806 08a5 DE060000 		.4byte	0x6de
 5807 08a9 0C       		.byte	0xc
 5808 08aa 00       		.byte	0
 5809 08ab 13       		.uleb128 0x13
 5810 08ac 04       		.byte	0x4
 5811 08ad 13       		.byte	0x13
 5812 08ae 39       		.byte	0x39
 5813 08af C0080000 		.4byte	0x8c0
 5814 08b3 10       		.uleb128 0x10
 5815 08b4 766D7400 		.ascii	"vmt\000"
 5816 08b8 13       		.byte	0x13
 5817 08b9 3B       		.byte	0x3b
 5818 08ba C0080000 		.4byte	0x8c0
 5819 08be 00       		.byte	0
 5820 08bf 00       		.byte	0
 5821 08c0 0B       		.uleb128 0xb
 5822 08c1 04       		.byte	0x4
 5823 08c2 C6080000 		.4byte	0x8c6
 5824 08c6 12       		.uleb128 0x12
 5825 08c7 6E080000 		.4byte	0x86e
 5826 08cb 03       		.uleb128 0x3
 5827 08cc E0090000 		.4byte	.LASF121
 5828 08d0 13       		.byte	0x13
 5829 08d1 3D       		.byte	0x3d
ARM GAS  C:\Users\jo\AppData\Local\Temp\ccLDsGlj.s 			page 106


 5830 08d2 AB080000 		.4byte	0x8ab
 5831 08d6 03       		.uleb128 0x3
 5832 08d7 3E080000 		.4byte	.LASF122
 5833 08db 0C       		.byte	0xc
 5834 08dc 62       		.byte	0x62
 5835 08dd FA050000 		.4byte	0x5fa
 5836 08e1 03       		.uleb128 0x3
 5837 08e2 EB080000 		.4byte	.LASF123
 5838 08e6 14       		.byte	0x14
 5839 08e7 3D       		.byte	0x3d
 5840 08e8 CE000000 		.4byte	0xce
 5841 08ec 03       		.uleb128 0x3
 5842 08ed 0B060000 		.4byte	.LASF124
 5843 08f1 14       		.byte	0x14
 5844 08f2 3E       		.byte	0x3e
 5845 08f3 C3000000 		.4byte	0xc3
 5846 08f7 03       		.uleb128 0x3
 5847 08f8 53020000 		.4byte	.LASF125
 5848 08fc 14       		.byte	0x14
 5849 08fd 3F       		.byte	0x3f
 5850 08fe E4000000 		.4byte	0xe4
 5851 0902 03       		.uleb128 0x3
 5852 0903 E20D0000 		.4byte	.LASF126
 5853 0907 14       		.byte	0x14
 5854 0908 40       		.byte	0x40
 5855 0909 D9000000 		.4byte	0xd9
 5856 090d 03       		.uleb128 0x3
 5857 090e C30F0000 		.4byte	.LASF127
 5858 0912 14       		.byte	0x14
 5859 0913 41       		.byte	0x41
 5860 0914 FA000000 		.4byte	0xfa
 5861 0918 06       		.uleb128 0x6
 5862 0919 2E110000 		.4byte	.LASF128
 5863 091d 04       		.byte	0x4
 5864 091e 15       		.byte	0x15
 5865 091f 2C       		.byte	0x2c
 5866 0920 31090000 		.4byte	0x931
 5867 0924 07       		.uleb128 0x7
 5868 0925 4C0F0000 		.4byte	.LASF129
 5869 0929 15       		.byte	0x15
 5870 092a 2D       		.byte	0x2d
 5871 092b 0D090000 		.4byte	0x90d
 5872 092f 00       		.byte	0
 5873 0930 00       		.byte	0
 5874 0931 03       		.uleb128 0x3
 5875 0932 C0100000 		.4byte	.LASF130
 5876 0936 15       		.byte	0x15
 5877 0937 40       		.byte	0x40
 5878 0938 18090000 		.4byte	0x918
 5879 093c 03       		.uleb128 0x3
 5880 093d F2010000 		.4byte	.LASF131
 5881 0941 16       		.byte	0x16
 5882 0942 2F       		.byte	0x2f
 5883 0943 EC080000 		.4byte	0x8ec
 5884 0947 03       		.uleb128 0x3
 5885 0948 59020000 		.4byte	.LASF132
 5886 094c 17       		.byte	0x17
ARM GAS  C:\Users\jo\AppData\Local\Temp\ccLDsGlj.s 			page 107


 5887 094d 38       		.byte	0x38
 5888 094e 52090000 		.4byte	0x952
 5889 0952 0B       		.uleb128 0xb
 5890 0953 04       		.byte	0x4
 5891 0954 18070000 		.4byte	0x718
 5892 0958 03       		.uleb128 0x3
 5893 0959 950D0000 		.4byte	.LASF133
 5894 095d 17       		.byte	0x17
 5895 095e 39       		.byte	0x39
 5896 095f 63090000 		.4byte	0x963
 5897 0963 0B       		.uleb128 0xb
 5898 0964 04       		.byte	0x4
 5899 0965 8B070000 		.4byte	0x78b
 5900 0969 1A       		.uleb128 0x1a
 5901 096a 01       		.byte	0x1
 5902 096b 18       		.byte	0x18
 5903 096c 32       		.byte	0x32
 5904 096d 8A090000 		.4byte	0x98a
 5905 0971 1B       		.uleb128 0x1b
 5906 0972 31030000 		.4byte	.LASF134
 5907 0976 00       		.sleb128 0
 5908 0977 1B       		.uleb128 0x1b
 5909 0978 7B050000 		.4byte	.LASF135
 5910 097c 01       		.sleb128 1
 5911 097d 1B       		.uleb128 0x1b
 5912 097e 2E000000 		.4byte	.LASF136
 5913 0982 02       		.sleb128 2
 5914 0983 1B       		.uleb128 0x1b
 5915 0984 5C0A0000 		.4byte	.LASF137
 5916 0988 03       		.sleb128 3
 5917 0989 00       		.byte	0
 5918 098a 03       		.uleb128 0x3
 5919 098b 000E0000 		.4byte	.LASF138
 5920 098f 18       		.byte	0x18
 5921 0990 37       		.byte	0x37
 5922 0991 69090000 		.4byte	0x969
 5923 0995 1A       		.uleb128 0x1a
 5924 0996 01       		.byte	0x1
 5925 0997 18       		.byte	0x18
 5926 0998 39       		.byte	0x39
 5927 0999 B6090000 		.4byte	0x9b6
 5928 099d 1B       		.uleb128 0x1b
 5929 099e B3000000 		.4byte	.LASF139
 5930 09a2 00       		.sleb128 0
 5931 09a3 1B       		.uleb128 0x1b
 5932 09a4 EF100000 		.4byte	.LASF140
 5933 09a8 01       		.sleb128 1
 5934 09a9 1B       		.uleb128 0x1b
 5935 09aa A0020000 		.4byte	.LASF141
 5936 09ae 02       		.sleb128 2
 5937 09af 1B       		.uleb128 0x1b
 5938 09b0 CD050000 		.4byte	.LASF142
 5939 09b4 03       		.sleb128 3
 5940 09b5 00       		.byte	0
 5941 09b6 03       		.uleb128 0x3
 5942 09b7 DB000000 		.4byte	.LASF143
 5943 09bb 18       		.byte	0x18
ARM GAS  C:\Users\jo\AppData\Local\Temp\ccLDsGlj.s 			page 108


 5944 09bc 3E       		.byte	0x3e
 5945 09bd 95090000 		.4byte	0x995
 5946 09c1 06       		.uleb128 0x6
 5947 09c2 F70E0000 		.4byte	.LASF144
 5948 09c6 10       		.byte	0x10
 5949 09c7 18       		.byte	0x18
 5950 09c8 4F       		.byte	0x4f
 5951 09c9 220A0000 		.4byte	0xa22
 5952 09cd 07       		.uleb128 0x7
 5953 09ce AB010000 		.4byte	.LASF145
 5954 09d2 18       		.byte	0x18
 5955 09d3 51       		.byte	0x51
 5956 09d4 220A0000 		.4byte	0xa22
 5957 09d8 00       		.byte	0
 5958 09d9 07       		.uleb128 0x7
 5959 09da 73050000 		.4byte	.LASF146
 5960 09de 18       		.byte	0x18
 5961 09df 54       		.byte	0x54
 5962 09e0 47030000 		.4byte	0x347
 5963 09e4 04       		.byte	0x4
 5964 09e5 07       		.uleb128 0x7
 5965 09e6 56050000 		.4byte	.LASF147
 5966 09ea 18       		.byte	0x18
 5967 09eb 5D       		.byte	0x5d
 5968 09ec F7080000 		.4byte	0x8f7
 5969 09f0 08       		.byte	0x8
 5970 09f1 10       		.uleb128 0x10
 5971 09f2 6C656E00 		.ascii	"len\000"
 5972 09f6 18       		.byte	0x18
 5973 09f7 60       		.byte	0x60
 5974 09f8 F7080000 		.4byte	0x8f7
 5975 09fc 0A       		.byte	0xa
 5976 09fd 07       		.uleb128 0x7
 5977 09fe 6A0E0000 		.4byte	.LASF148
 5978 0a02 18       		.byte	0x18
 5979 0a03 63       		.byte	0x63
 5980 0a04 E1080000 		.4byte	0x8e1
 5981 0a08 0C       		.byte	0xc
 5982 0a09 07       		.uleb128 0x7
 5983 0a0a DF050000 		.4byte	.LASF149
 5984 0a0e 18       		.byte	0x18
 5985 0a0f 66       		.byte	0x66
 5986 0a10 E1080000 		.4byte	0x8e1
 5987 0a14 0D       		.byte	0xd
 5988 0a15 10       		.uleb128 0x10
 5989 0a16 72656600 		.ascii	"ref\000"
 5990 0a1a 18       		.byte	0x18
 5991 0a1b 6D       		.byte	0x6d
 5992 0a1c F7080000 		.4byte	0x8f7
 5993 0a20 0E       		.byte	0xe
 5994 0a21 00       		.byte	0
 5995 0a22 0B       		.uleb128 0xb
 5996 0a23 04       		.byte	0x4
 5997 0a24 C1090000 		.4byte	0x9c1
 5998 0a28 0B       		.uleb128 0xb
 5999 0a29 04       		.byte	0x4
 6000 0a2a 31090000 		.4byte	0x931
ARM GAS  C:\Users\jo\AppData\Local\Temp\ccLDsGlj.s 			page 109


 6001 0a2e 06       		.uleb128 0x6
 6002 0a2f D1060000 		.4byte	.LASF150
 6003 0a33 10       		.byte	0x10
 6004 0a34 19       		.byte	0x19
 6005 0a35 30       		.byte	0x30
 6006 0a36 690A0000 		.4byte	0xa69
 6007 0a3a 10       		.uleb128 0x10
 6008 0a3b 7000     		.ascii	"p\000"
 6009 0a3d 19       		.byte	0x19
 6010 0a3e 31       		.byte	0x31
 6011 0a3f 220A0000 		.4byte	0xa22
 6012 0a43 00       		.byte	0
 6013 0a44 10       		.uleb128 0x10
 6014 0a45 70747200 		.ascii	"ptr\000"
 6015 0a49 19       		.byte	0x19
 6016 0a4a 31       		.byte	0x31
 6017 0a4b 220A0000 		.4byte	0xa22
 6018 0a4f 04       		.byte	0x4
 6019 0a50 07       		.uleb128 0x7
 6020 0a51 4C0F0000 		.4byte	.LASF129
 6021 0a55 19       		.byte	0x19
 6022 0a56 32       		.byte	0x32
 6023 0a57 31090000 		.4byte	0x931
 6024 0a5b 08       		.byte	0x8
 6025 0a5c 07       		.uleb128 0x7
 6026 0a5d A2060000 		.4byte	.LASF151
 6027 0a61 19       		.byte	0x19
 6028 0a62 33       		.byte	0x33
 6029 0a63 F7080000 		.4byte	0x8f7
 6030 0a67 0C       		.byte	0xc
 6031 0a68 00       		.byte	0
 6032 0a69 1C       		.uleb128 0x1c
 6033 0a6a A6000000 		.4byte	.LASF158
 6034 0a6e 01       		.byte	0x1
 6035 0a6f 1A       		.byte	0x1a
 6036 0a70 53       		.byte	0x53
 6037 0a71 9B0A0000 		.4byte	0xa9b
 6038 0a75 1B       		.uleb128 0x1b
 6039 0a76 18040000 		.4byte	.LASF152
 6040 0a7a 00       		.sleb128 0
 6041 0a7b 1B       		.uleb128 0x1b
 6042 0a7c E20E0000 		.4byte	.LASF153
 6043 0a80 10       		.sleb128 16
 6044 0a81 1B       		.uleb128 0x1b
 6045 0a82 1C050000 		.4byte	.LASF154
 6046 0a86 20       		.sleb128 32
 6047 0a87 1B       		.uleb128 0x1b
 6048 0a88 60100000 		.4byte	.LASF155
 6049 0a8c 21       		.sleb128 33
 6050 0a8d 1B       		.uleb128 0x1b
 6051 0a8e CF010000 		.4byte	.LASF156
 6052 0a92 22       		.sleb128 34
 6053 0a93 1B       		.uleb128 0x1b
 6054 0a94 870E0000 		.4byte	.LASF157
 6055 0a98 C000     		.sleb128 64
 6056 0a9a 00       		.byte	0
 6057 0a9b 1C       		.uleb128 0x1c
ARM GAS  C:\Users\jo\AppData\Local\Temp\ccLDsGlj.s 			page 110


 6058 0a9c F4020000 		.4byte	.LASF159
 6059 0aa0 01       		.byte	0x1
 6060 0aa1 1A       		.byte	0x1a
 6061 0aa2 61       		.byte	0x61
 6062 0aa3 C60A0000 		.4byte	0xac6
 6063 0aa7 1B       		.uleb128 0x1b
 6064 0aa8 4A0A0000 		.4byte	.LASF160
 6065 0aac 00       		.sleb128 0
 6066 0aad 1B       		.uleb128 0x1b
 6067 0aae DA100000 		.4byte	.LASF161
 6068 0ab2 01       		.sleb128 1
 6069 0ab3 1B       		.uleb128 0x1b
 6070 0ab4 0B0F0000 		.4byte	.LASF162
 6071 0ab8 02       		.sleb128 2
 6072 0ab9 1B       		.uleb128 0x1b
 6073 0aba 8A0A0000 		.4byte	.LASF163
 6074 0abe 03       		.sleb128 3
 6075 0abf 1B       		.uleb128 0x1b
 6076 0ac0 5B070000 		.4byte	.LASF164
 6077 0ac4 04       		.sleb128 4
 6078 0ac5 00       		.byte	0
 6079 0ac6 1C       		.uleb128 0x1c
 6080 0ac7 210E0000 		.4byte	.LASF165
 6081 0acb 01       		.byte	0x1
 6082 0acc 1A       		.byte	0x1a
 6083 0acd 6A       		.byte	0x6a
 6084 0ace F10A0000 		.4byte	0xaf1
 6085 0ad2 1B       		.uleb128 0x1b
 6086 0ad3 FF040000 		.4byte	.LASF166
 6087 0ad7 00       		.sleb128 0
 6088 0ad8 1B       		.uleb128 0x1b
 6089 0ad9 69060000 		.4byte	.LASF167
 6090 0add 01       		.sleb128 1
 6091 0ade 1B       		.uleb128 0x1b
 6092 0adf 2E060000 		.4byte	.LASF168
 6093 0ae3 02       		.sleb128 2
 6094 0ae4 1B       		.uleb128 0x1b
 6095 0ae5 4B040000 		.4byte	.LASF169
 6096 0ae9 03       		.sleb128 3
 6097 0aea 1B       		.uleb128 0x1b
 6098 0aeb B0010000 		.4byte	.LASF170
 6099 0aef 04       		.sleb128 4
 6100 0af0 00       		.byte	0
 6101 0af1 03       		.uleb128 0x3
 6102 0af2 360E0000 		.4byte	.LASF171
 6103 0af6 1A       		.byte	0x1a
 6104 0af7 83       		.byte	0x83
 6105 0af8 FC0A0000 		.4byte	0xafc
 6106 0afc 0B       		.uleb128 0xb
 6107 0afd 04       		.byte	0x4
 6108 0afe 020B0000 		.4byte	0xb02
 6109 0b02 0C       		.uleb128 0xc
 6110 0b03 170B0000 		.4byte	0xb17
 6111 0b07 0D       		.uleb128 0xd
 6112 0b08 170B0000 		.4byte	0xb17
 6113 0b0c 0D       		.uleb128 0xd
 6114 0b0d C60A0000 		.4byte	0xac6
ARM GAS  C:\Users\jo\AppData\Local\Temp\ccLDsGlj.s 			page 111


 6115 0b11 0D       		.uleb128 0xd
 6116 0b12 F7080000 		.4byte	0x8f7
 6117 0b16 00       		.byte	0
 6118 0b17 0B       		.uleb128 0xb
 6119 0b18 04       		.byte	0x4
 6120 0b19 1D0B0000 		.4byte	0xb1d
 6121 0b1d 06       		.uleb128 0x6
 6122 0b1e D2100000 		.4byte	.LASF172
 6123 0b22 2C       		.byte	0x2c
 6124 0b23 1A       		.byte	0x1a
 6125 0b24 86       		.byte	0x86
 6126 0b25 BA0B0000 		.4byte	0xbba
 6127 0b29 07       		.uleb128 0x7
 6128 0b2a 6A0E0000 		.4byte	.LASF148
 6129 0b2e 1A       		.byte	0x1a
 6130 0b2f 88       		.byte	0x88
 6131 0b30 690A0000 		.4byte	0xa69
 6132 0b34 00       		.byte	0
 6133 0b35 07       		.uleb128 0x7
 6134 0b36 5D0F0000 		.4byte	.LASF173
 6135 0b3a 1A       		.byte	0x1a
 6136 0b3b 8A       		.byte	0x8a
 6137 0b3c 9B0A0000 		.4byte	0xa9b
 6138 0b40 01       		.byte	0x1
 6139 0b41 10       		.uleb128 0x10
 6140 0b42 70636200 		.ascii	"pcb\000"
 6141 0b46 1A       		.byte	0x1a
 6142 0b47 91       		.byte	0x91
 6143 0b48 BA0B0000 		.4byte	0xbba
 6144 0b4c 04       		.byte	0x4
 6145 0b4d 07       		.uleb128 0x7
 6146 0b4e E5050000 		.4byte	.LASF174
 6147 0b52 1A       		.byte	0x1a
 6148 0b53 93       		.byte	0x93
 6149 0b54 3C090000 		.4byte	0x93c
 6150 0b58 08       		.byte	0x8
 6151 0b59 07       		.uleb128 0x7
 6152 0b5a 9B100000 		.4byte	.LASF175
 6153 0b5e 1A       		.byte	0x1a
 6154 0b5f 95       		.byte	0x95
 6155 0b60 47090000 		.4byte	0x947
 6156 0b64 0C       		.byte	0xc
 6157 0b65 07       		.uleb128 0x7
 6158 0b66 2A010000 		.4byte	.LASF176
 6159 0b6a 1A       		.byte	0x1a
 6160 0b6b 98       		.byte	0x98
 6161 0b6c 58090000 		.4byte	0x958
 6162 0b70 10       		.byte	0x10
 6163 0b71 07       		.uleb128 0x7
 6164 0b72 F8070000 		.4byte	.LASF177
 6165 0b76 1A       		.byte	0x1a
 6166 0b77 9C       		.byte	0x9c
 6167 0b78 58090000 		.4byte	0x958
 6168 0b7c 14       		.byte	0x14
 6169 0b7d 07       		.uleb128 0x7
 6170 0b7e DD0B0000 		.4byte	.LASF178
 6171 0b82 1A       		.byte	0x1a
ARM GAS  C:\Users\jo\AppData\Local\Temp\ccLDsGlj.s 			page 112


 6172 0b83 A0       		.byte	0xa0
 6173 0b84 25000000 		.4byte	0x25
 6174 0b88 18       		.byte	0x18
 6175 0b89 07       		.uleb128 0x7
 6176 0b8a DF050000 		.4byte	.LASF149
 6177 0b8e 1A       		.byte	0x1a
 6178 0b8f B6       		.byte	0xb6
 6179 0b90 E1080000 		.4byte	0x8e1
 6180 0b94 1C       		.byte	0x1c
 6181 0b95 07       		.uleb128 0x7
 6182 0b96 3F0F0000 		.4byte	.LASF179
 6183 0b9a 1A       		.byte	0x1a
 6184 0b9b BA       		.byte	0xba
 6185 0b9c 2C000000 		.4byte	0x2c
 6186 0ba0 20       		.byte	0x20
 6187 0ba1 07       		.uleb128 0x7
 6188 0ba2 570B0000 		.4byte	.LASF180
 6189 0ba6 1A       		.byte	0x1a
 6190 0ba7 BE       		.byte	0xbe
 6191 0ba8 3C100000 		.4byte	0x103c
 6192 0bac 24       		.byte	0x24
 6193 0bad 07       		.uleb128 0x7
 6194 0bae 810F0000 		.4byte	.LASF181
 6195 0bb2 1A       		.byte	0x1a
 6196 0bb3 C1       		.byte	0xc1
 6197 0bb4 F10A0000 		.4byte	0xaf1
 6198 0bb8 28       		.byte	0x28
 6199 0bb9 00       		.byte	0
 6200 0bba 14       		.uleb128 0x14
 6201 0bbb 04       		.byte	0x4
 6202 0bbc 1A       		.byte	0x1a
 6203 0bbd 8C       		.byte	0x8c
 6204 0bbe EE0B0000 		.4byte	0xbee
 6205 0bc2 1D       		.uleb128 0x1d
 6206 0bc3 697000   		.ascii	"ip\000"
 6207 0bc6 1A       		.byte	0x1a
 6208 0bc7 8D       		.byte	0x8d
 6209 0bc8 370C0000 		.4byte	0xc37
 6210 0bcc 1D       		.uleb128 0x1d
 6211 0bcd 74637000 		.ascii	"tcp\000"
 6212 0bd1 1A       		.byte	0x1a
 6213 0bd2 8E       		.byte	0x8e
 6214 0bd3 EF0E0000 		.4byte	0xeef
 6215 0bd7 1D       		.uleb128 0x1d
 6216 0bd8 75647000 		.ascii	"udp\000"
 6217 0bdc 1A       		.byte	0x1a
 6218 0bdd 8F       		.byte	0x8f
 6219 0bde 860F0000 		.4byte	0xf86
 6220 0be2 1D       		.uleb128 0x1d
 6221 0be3 72617700 		.ascii	"raw\000"
 6222 0be7 1A       		.byte	0x1a
 6223 0be8 90       		.byte	0x90
 6224 0be9 05100000 		.4byte	0x1005
 6225 0bed 00       		.byte	0
 6226 0bee 06       		.uleb128 0x6
 6227 0bef DB0E0000 		.4byte	.LASF182
 6228 0bf3 0C       		.byte	0xc
ARM GAS  C:\Users\jo\AppData\Local\Temp\ccLDsGlj.s 			page 113


 6229 0bf4 1B       		.byte	0x1b
 6230 0bf5 59       		.byte	0x59
 6231 0bf6 370C0000 		.4byte	0xc37
 6232 0bfa 07       		.uleb128 0x7
 6233 0bfb 9A0B0000 		.4byte	.LASF183
 6234 0bff 1B       		.byte	0x1b
 6235 0c00 5B       		.byte	0x5b
 6236 0c01 31090000 		.4byte	0x931
 6237 0c05 00       		.byte	0
 6238 0c06 07       		.uleb128 0x7
 6239 0c07 7C100000 		.4byte	.LASF184
 6240 0c0b 1B       		.byte	0x1b
 6241 0c0c 5B       		.byte	0x5b
 6242 0c0d 31090000 		.4byte	0x931
 6243 0c11 04       		.byte	0x4
 6244 0c12 07       		.uleb128 0x7
 6245 0c13 6B000000 		.4byte	.LASF185
 6246 0c17 1B       		.byte	0x1b
 6247 0c18 5B       		.byte	0x5b
 6248 0c19 E1080000 		.4byte	0x8e1
 6249 0c1d 08       		.byte	0x8
 6250 0c1e 10       		.uleb128 0x10
 6251 0c1f 746F7300 		.ascii	"tos\000"
 6252 0c23 1B       		.byte	0x1b
 6253 0c24 5B       		.byte	0x5b
 6254 0c25 E1080000 		.4byte	0x8e1
 6255 0c29 09       		.byte	0x9
 6256 0c2a 10       		.uleb128 0x10
 6257 0c2b 74746C00 		.ascii	"ttl\000"
 6258 0c2f 1B       		.byte	0x1b
 6259 0c30 5B       		.byte	0x5b
 6260 0c31 E1080000 		.4byte	0x8e1
 6261 0c35 0A       		.byte	0xa
 6262 0c36 00       		.byte	0
 6263 0c37 0B       		.uleb128 0xb
 6264 0c38 04       		.byte	0x4
 6265 0c39 EE0B0000 		.4byte	0xbee
 6266 0c3d 06       		.uleb128 0x6
 6267 0c3e 06100000 		.4byte	.LASF186
 6268 0c42 98       		.byte	0x98
 6269 0c43 1C       		.byte	0x1c
 6270 0c44 A8       		.byte	0xa8
 6271 0c45 EF0E0000 		.4byte	0xeef
 6272 0c49 07       		.uleb128 0x7
 6273 0c4a 9A0B0000 		.4byte	.LASF183
 6274 0c4e 1C       		.byte	0x1c
 6275 0c4f AA       		.byte	0xaa
 6276 0c50 31090000 		.4byte	0x931
 6277 0c54 00       		.byte	0
 6278 0c55 07       		.uleb128 0x7
 6279 0c56 7C100000 		.4byte	.LASF184
 6280 0c5a 1C       		.byte	0x1c
 6281 0c5b AA       		.byte	0xaa
 6282 0c5c 31090000 		.4byte	0x931
 6283 0c60 04       		.byte	0x4
 6284 0c61 07       		.uleb128 0x7
 6285 0c62 6B000000 		.4byte	.LASF185
ARM GAS  C:\Users\jo\AppData\Local\Temp\ccLDsGlj.s 			page 114


 6286 0c66 1C       		.byte	0x1c
 6287 0c67 AA       		.byte	0xaa
 6288 0c68 E1080000 		.4byte	0x8e1
 6289 0c6c 08       		.byte	0x8
 6290 0c6d 10       		.uleb128 0x10
 6291 0c6e 746F7300 		.ascii	"tos\000"
 6292 0c72 1C       		.byte	0x1c
 6293 0c73 AA       		.byte	0xaa
 6294 0c74 E1080000 		.4byte	0x8e1
 6295 0c78 09       		.byte	0x9
 6296 0c79 10       		.uleb128 0x10
 6297 0c7a 74746C00 		.ascii	"ttl\000"
 6298 0c7e 1C       		.byte	0x1c
 6299 0c7f AA       		.byte	0xaa
 6300 0c80 E1080000 		.4byte	0x8e1
 6301 0c84 0A       		.byte	0xa
 6302 0c85 07       		.uleb128 0x7
 6303 0c86 AB010000 		.4byte	.LASF145
 6304 0c8a 1C       		.byte	0x1c
 6305 0c8b AC       		.byte	0xac
 6306 0c8c EF0E0000 		.4byte	0xeef
 6307 0c90 0C       		.byte	0xc
 6308 0c91 07       		.uleb128 0x7
 6309 0c92 27100000 		.4byte	.LASF187
 6310 0c96 1C       		.byte	0x1c
 6311 0c97 AC       		.byte	0xac
 6312 0c98 47030000 		.4byte	0x347
 6313 0c9c 10       		.byte	0x10
 6314 0c9d 07       		.uleb128 0x7
 6315 0c9e 6E030000 		.4byte	.LASF188
 6316 0ca2 1C       		.byte	0x1c
 6317 0ca3 AC       		.byte	0xac
 6318 0ca4 8A110000 		.4byte	0x118a
 6319 0ca8 14       		.byte	0x14
 6320 0ca9 07       		.uleb128 0x7
 6321 0caa 5D0F0000 		.4byte	.LASF173
 6322 0cae 1C       		.byte	0x1c
 6323 0caf AC       		.byte	0xac
 6324 0cb0 5E120000 		.4byte	0x125e
 6325 0cb4 18       		.byte	0x18
 6326 0cb5 07       		.uleb128 0x7
 6327 0cb6 A7060000 		.4byte	.LASF189
 6328 0cba 1C       		.byte	0x1c
 6329 0cbb AC       		.byte	0xac
 6330 0cbc E1080000 		.4byte	0x8e1
 6331 0cc0 19       		.byte	0x19
 6332 0cc1 07       		.uleb128 0x7
 6333 0cc2 88030000 		.4byte	.LASF190
 6334 0cc6 1C       		.byte	0x1c
 6335 0cc7 AC       		.byte	0xac
 6336 0cc8 F7080000 		.4byte	0x8f7
 6337 0ccc 1A       		.byte	0x1a
 6338 0ccd 07       		.uleb128 0x7
 6339 0cce 7F090000 		.4byte	.LASF191
 6340 0cd2 1C       		.byte	0x1c
 6341 0cd3 AF       		.byte	0xaf
 6342 0cd4 F7080000 		.4byte	0x8f7
ARM GAS  C:\Users\jo\AppData\Local\Temp\ccLDsGlj.s 			page 115


 6343 0cd8 1C       		.byte	0x1c
 6344 0cd9 07       		.uleb128 0x7
 6345 0cda DF050000 		.4byte	.LASF149
 6346 0cde 1C       		.byte	0x1c
 6347 0cdf B1       		.byte	0xb1
 6348 0ce0 E1080000 		.4byte	0x8e1
 6349 0ce4 1E       		.byte	0x1e
 6350 0ce5 07       		.uleb128 0x7
 6351 0ce6 BC000000 		.4byte	.LASF192
 6352 0cea 1C       		.byte	0x1c
 6353 0ceb BF       		.byte	0xbf
 6354 0cec E1080000 		.4byte	0x8e1
 6355 0cf0 1F       		.byte	0x1f
 6356 0cf1 07       		.uleb128 0x7
 6357 0cf2 AC060000 		.4byte	.LASF193
 6358 0cf6 1C       		.byte	0x1c
 6359 0cf7 BF       		.byte	0xbf
 6360 0cf8 E1080000 		.4byte	0x8e1
 6361 0cfc 20       		.byte	0x20
 6362 0cfd 07       		.uleb128 0x7
 6363 0cfe 820B0000 		.4byte	.LASF194
 6364 0d02 1C       		.byte	0x1c
 6365 0d03 C0       		.byte	0xc0
 6366 0d04 E1080000 		.4byte	0x8e1
 6367 0d08 21       		.byte	0x21
 6368 0d09 10       		.uleb128 0x10
 6369 0d0a 746D7200 		.ascii	"tmr\000"
 6370 0d0e 1C       		.byte	0x1c
 6371 0d0f C1       		.byte	0xc1
 6372 0d10 0D090000 		.4byte	0x90d
 6373 0d14 24       		.byte	0x24
 6374 0d15 07       		.uleb128 0x7
 6375 0d16 BA040000 		.4byte	.LASF195
 6376 0d1a 1C       		.byte	0x1c
 6377 0d1b C4       		.byte	0xc4
 6378 0d1c 0D090000 		.4byte	0x90d
 6379 0d20 28       		.byte	0x28
 6380 0d21 07       		.uleb128 0x7
 6381 0d22 2D0B0000 		.4byte	.LASF196
 6382 0d26 1C       		.byte	0x1c
 6383 0d27 C5       		.byte	0xc5
 6384 0d28 F7080000 		.4byte	0x8f7
 6385 0d2c 2C       		.byte	0x2c
 6386 0d2d 07       		.uleb128 0x7
 6387 0d2e B1090000 		.4byte	.LASF197
 6388 0d32 1C       		.byte	0x1c
 6389 0d33 C6       		.byte	0xc6
 6390 0d34 F7080000 		.4byte	0x8f7
 6391 0d38 2E       		.byte	0x2e
 6392 0d39 07       		.uleb128 0x7
 6393 0d3a 7F020000 		.4byte	.LASF198
 6394 0d3e 1C       		.byte	0x1c
 6395 0d3f C7       		.byte	0xc7
 6396 0d40 0D090000 		.4byte	0x90d
 6397 0d44 30       		.byte	0x30
 6398 0d45 07       		.uleb128 0x7
 6399 0d46 89040000 		.4byte	.LASF199
ARM GAS  C:\Users\jo\AppData\Local\Temp\ccLDsGlj.s 			page 116


 6400 0d4a 1C       		.byte	0x1c
 6401 0d4b CA       		.byte	0xca
 6402 0d4c 02090000 		.4byte	0x902
 6403 0d50 34       		.byte	0x34
 6404 0d51 10       		.uleb128 0x10
 6405 0d52 6D737300 		.ascii	"mss\000"
 6406 0d56 1C       		.byte	0x1c
 6407 0d57 CC       		.byte	0xcc
 6408 0d58 F7080000 		.4byte	0x8f7
 6409 0d5c 36       		.byte	0x36
 6410 0d5d 07       		.uleb128 0x7
 6411 0d5e 350B0000 		.4byte	.LASF200
 6412 0d62 1C       		.byte	0x1c
 6413 0d63 CF       		.byte	0xcf
 6414 0d64 0D090000 		.4byte	0x90d
 6415 0d68 38       		.byte	0x38
 6416 0d69 07       		.uleb128 0x7
 6417 0d6a 28040000 		.4byte	.LASF201
 6418 0d6e 1C       		.byte	0x1c
 6419 0d6f D0       		.byte	0xd0
 6420 0d70 0D090000 		.4byte	0x90d
 6421 0d74 3C       		.byte	0x3c
 6422 0d75 10       		.uleb128 0x10
 6423 0d76 736100   		.ascii	"sa\000"
 6424 0d79 1C       		.byte	0x1c
 6425 0d7a D1       		.byte	0xd1
 6426 0d7b 02090000 		.4byte	0x902
 6427 0d7f 40       		.byte	0x40
 6428 0d80 10       		.uleb128 0x10
 6429 0d81 737600   		.ascii	"sv\000"
 6430 0d84 1C       		.byte	0x1c
 6431 0d85 D1       		.byte	0xd1
 6432 0d86 02090000 		.4byte	0x902
 6433 0d8a 42       		.byte	0x42
 6434 0d8b 10       		.uleb128 0x10
 6435 0d8c 72746F00 		.ascii	"rto\000"
 6436 0d90 1C       		.byte	0x1c
 6437 0d91 D3       		.byte	0xd3
 6438 0d92 02090000 		.4byte	0x902
 6439 0d96 44       		.byte	0x44
 6440 0d97 07       		.uleb128 0x7
 6441 0d98 0A110000 		.4byte	.LASF202
 6442 0d9c 1C       		.byte	0x1c
 6443 0d9d D4       		.byte	0xd4
 6444 0d9e E1080000 		.4byte	0x8e1
 6445 0da2 46       		.byte	0x46
 6446 0da3 07       		.uleb128 0x7
 6447 0da4 9A060000 		.4byte	.LASF203
 6448 0da8 1C       		.byte	0x1c
 6449 0da9 D7       		.byte	0xd7
 6450 0daa E1080000 		.4byte	0x8e1
 6451 0dae 47       		.byte	0x47
 6452 0daf 07       		.uleb128 0x7
 6453 0db0 A9090000 		.4byte	.LASF204
 6454 0db4 1C       		.byte	0x1c
 6455 0db5 D8       		.byte	0xd8
 6456 0db6 0D090000 		.4byte	0x90d
ARM GAS  C:\Users\jo\AppData\Local\Temp\ccLDsGlj.s 			page 117


 6457 0dba 48       		.byte	0x48
 6458 0dbb 07       		.uleb128 0x7
 6459 0dbc 56030000 		.4byte	.LASF205
 6460 0dc0 1C       		.byte	0x1c
 6461 0dc1 DB       		.byte	0xdb
 6462 0dc2 F7080000 		.4byte	0x8f7
 6463 0dc6 4C       		.byte	0x4c
 6464 0dc7 07       		.uleb128 0x7
 6465 0dc8 370C0000 		.4byte	.LASF206
 6466 0dcc 1C       		.byte	0x1c
 6467 0dcd DC       		.byte	0xdc
 6468 0dce F7080000 		.4byte	0x8f7
 6469 0dd2 4E       		.byte	0x4e
 6470 0dd3 07       		.uleb128 0x7
 6471 0dd4 E40B0000 		.4byte	.LASF207
 6472 0dd8 1C       		.byte	0x1c
 6473 0dd9 DF       		.byte	0xdf
 6474 0dda 0D090000 		.4byte	0x90d
 6475 0dde 50       		.byte	0x50
 6476 0ddf 07       		.uleb128 0x7
 6477 0de0 CB070000 		.4byte	.LASF208
 6478 0de4 1C       		.byte	0x1c
 6479 0de5 E0       		.byte	0xe0
 6480 0de6 0D090000 		.4byte	0x90d
 6481 0dea 54       		.byte	0x54
 6482 0deb 07       		.uleb128 0x7
 6483 0dec D3070000 		.4byte	.LASF209
 6484 0df0 1C       		.byte	0x1c
 6485 0df1 E0       		.byte	0xe0
 6486 0df2 0D090000 		.4byte	0x90d
 6487 0df6 58       		.byte	0x58
 6488 0df7 07       		.uleb128 0x7
 6489 0df8 5A060000 		.4byte	.LASF210
 6490 0dfc 1C       		.byte	0x1c
 6491 0dfd E2       		.byte	0xe2
 6492 0dfe 0D090000 		.4byte	0x90d
 6493 0e02 5C       		.byte	0x5c
 6494 0e03 07       		.uleb128 0x7
 6495 0e04 650A0000 		.4byte	.LASF211
 6496 0e08 1C       		.byte	0x1c
 6497 0e09 E3       		.byte	0xe3
 6498 0e0a F7080000 		.4byte	0x8f7
 6499 0e0e 60       		.byte	0x60
 6500 0e0f 07       		.uleb128 0x7
 6501 0e10 020C0000 		.4byte	.LASF212
 6502 0e14 1C       		.byte	0x1c
 6503 0e15 E4       		.byte	0xe4
 6504 0e16 F7080000 		.4byte	0x8f7
 6505 0e1a 62       		.byte	0x62
 6506 0e1b 07       		.uleb128 0x7
 6507 0e1c 19070000 		.4byte	.LASF213
 6508 0e20 1C       		.byte	0x1c
 6509 0e21 E6       		.byte	0xe6
 6510 0e22 F7080000 		.4byte	0x8f7
 6511 0e26 64       		.byte	0x64
 6512 0e27 07       		.uleb128 0x7
 6513 0e28 400C0000 		.4byte	.LASF214
ARM GAS  C:\Users\jo\AppData\Local\Temp\ccLDsGlj.s 			page 118


 6514 0e2c 1C       		.byte	0x1c
 6515 0e2d E8       		.byte	0xe8
 6516 0e2e F7080000 		.4byte	0x8f7
 6517 0e32 66       		.byte	0x66
 6518 0e33 07       		.uleb128 0x7
 6519 0e34 0F110000 		.4byte	.LASF215
 6520 0e38 1C       		.byte	0x1c
 6521 0e39 EA       		.byte	0xea
 6522 0e3a F7080000 		.4byte	0x8f7
 6523 0e3e 68       		.byte	0x68
 6524 0e3f 07       		.uleb128 0x7
 6525 0e40 B80B0000 		.4byte	.LASF216
 6526 0e44 1C       		.byte	0x1c
 6527 0e45 EE       		.byte	0xee
 6528 0e46 F7080000 		.4byte	0x8f7
 6529 0e4a 6A       		.byte	0x6a
 6530 0e4b 07       		.uleb128 0x7
 6531 0e4c 260B0000 		.4byte	.LASF217
 6532 0e50 1C       		.byte	0x1c
 6533 0e51 F2       		.byte	0xf2
 6534 0e52 B2120000 		.4byte	0x12b2
 6535 0e56 6C       		.byte	0x6c
 6536 0e57 07       		.uleb128 0x7
 6537 0e58 A90E0000 		.4byte	.LASF218
 6538 0e5c 1C       		.byte	0x1c
 6539 0e5d F3       		.byte	0xf3
 6540 0e5e B2120000 		.4byte	0x12b2
 6541 0e62 70       		.byte	0x70
 6542 0e63 07       		.uleb128 0x7
 6543 0e64 9A0A0000 		.4byte	.LASF219
 6544 0e68 1C       		.byte	0x1c
 6545 0e69 F5       		.byte	0xf5
 6546 0e6a B2120000 		.4byte	0x12b2
 6547 0e6e 74       		.byte	0x74
 6548 0e6f 07       		.uleb128 0x7
 6549 0e70 140E0000 		.4byte	.LASF220
 6550 0e74 1C       		.byte	0x1c
 6551 0e75 F8       		.byte	0xf8
 6552 0e76 220A0000 		.4byte	0xa22
 6553 0e7a 78       		.byte	0x78
 6554 0e7b 07       		.uleb128 0x7
 6555 0e7c B3070000 		.4byte	.LASF221
 6556 0e80 1C       		.byte	0x1c
 6557 0e81 FC       		.byte	0xfc
 6558 0e82 E3110000 		.4byte	0x11e3
 6559 0e86 7C       		.byte	0x7c
 6560 0e87 07       		.uleb128 0x7
 6561 0e88 E60F0000 		.4byte	.LASF222
 6562 0e8c 1C       		.byte	0x1c
 6563 0e8d FE       		.byte	0xfe
 6564 0e8e B4110000 		.4byte	0x11b4
 6565 0e92 80       		.byte	0x80
 6566 0e93 09       		.uleb128 0x9
 6567 0e94 83050000 		.4byte	.LASF223
 6568 0e98 1C       		.byte	0x1c
 6569 0e99 0001     		.2byte	0x100
 6570 0e9b 53120000 		.4byte	0x1253
ARM GAS  C:\Users\jo\AppData\Local\Temp\ccLDsGlj.s 			page 119


 6571 0e9f 84       		.byte	0x84
 6572 0ea0 09       		.uleb128 0x9
 6573 0ea1 C3060000 		.4byte	.LASF224
 6574 0ea5 1C       		.byte	0x1c
 6575 0ea6 0201     		.2byte	0x102
 6576 0ea8 0D120000 		.4byte	0x120d
 6577 0eac 88       		.byte	0x88
 6578 0ead 09       		.uleb128 0x9
 6579 0eae 570A0000 		.4byte	.LASF225
 6580 0eb2 1C       		.byte	0x1c
 6581 0eb3 0401     		.2byte	0x104
 6582 0eb5 32120000 		.4byte	0x1232
 6583 0eb9 8C       		.byte	0x8c
 6584 0eba 09       		.uleb128 0x9
 6585 0ebb 010F0000 		.4byte	.LASF226
 6586 0ebf 1C       		.byte	0x1c
 6587 0ec0 0D01     		.2byte	0x10d
 6588 0ec2 0D090000 		.4byte	0x90d
 6589 0ec6 90       		.byte	0x90
 6590 0ec7 09       		.uleb128 0x9
 6591 0ec8 70100000 		.4byte	.LASF227
 6592 0ecc 1C       		.byte	0x1c
 6593 0ecd 1401     		.2byte	0x114
 6594 0ecf E1080000 		.4byte	0x8e1
 6595 0ed3 94       		.byte	0x94
 6596 0ed4 09       		.uleb128 0x9
 6597 0ed5 F00D0000 		.4byte	.LASF228
 6598 0ed9 1C       		.byte	0x1c
 6599 0eda 1601     		.2byte	0x116
 6600 0edc E1080000 		.4byte	0x8e1
 6601 0ee0 95       		.byte	0x95
 6602 0ee1 09       		.uleb128 0x9
 6603 0ee2 C2020000 		.4byte	.LASF229
 6604 0ee6 1C       		.byte	0x1c
 6605 0ee7 1901     		.2byte	0x119
 6606 0ee9 E1080000 		.4byte	0x8e1
 6607 0eed 96       		.byte	0x96
 6608 0eee 00       		.byte	0
 6609 0eef 0B       		.uleb128 0xb
 6610 0ef0 04       		.byte	0x4
 6611 0ef1 3D0C0000 		.4byte	0xc3d
 6612 0ef5 06       		.uleb128 0x6
 6613 0ef6 CA100000 		.4byte	.LASF230
 6614 0efa 20       		.byte	0x20
 6615 0efb 1D       		.byte	0x1d
 6616 0efc 5B       		.byte	0x5b
 6617 0efd 860F0000 		.4byte	0xf86
 6618 0f01 07       		.uleb128 0x7
 6619 0f02 9A0B0000 		.4byte	.LASF183
 6620 0f06 1D       		.byte	0x1d
 6621 0f07 5D       		.byte	0x5d
 6622 0f08 31090000 		.4byte	0x931
 6623 0f0c 00       		.byte	0
 6624 0f0d 07       		.uleb128 0x7
 6625 0f0e 7C100000 		.4byte	.LASF184
 6626 0f12 1D       		.byte	0x1d
 6627 0f13 5D       		.byte	0x5d
ARM GAS  C:\Users\jo\AppData\Local\Temp\ccLDsGlj.s 			page 120


 6628 0f14 31090000 		.4byte	0x931
 6629 0f18 04       		.byte	0x4
 6630 0f19 07       		.uleb128 0x7
 6631 0f1a 6B000000 		.4byte	.LASF185
 6632 0f1e 1D       		.byte	0x1d
 6633 0f1f 5D       		.byte	0x5d
 6634 0f20 E1080000 		.4byte	0x8e1
 6635 0f24 08       		.byte	0x8
 6636 0f25 10       		.uleb128 0x10
 6637 0f26 746F7300 		.ascii	"tos\000"
 6638 0f2a 1D       		.byte	0x1d
 6639 0f2b 5D       		.byte	0x5d
 6640 0f2c E1080000 		.4byte	0x8e1
 6641 0f30 09       		.byte	0x9
 6642 0f31 10       		.uleb128 0x10
 6643 0f32 74746C00 		.ascii	"ttl\000"
 6644 0f36 1D       		.byte	0x1d
 6645 0f37 5D       		.byte	0x5d
 6646 0f38 E1080000 		.4byte	0x8e1
 6647 0f3c 0A       		.byte	0xa
 6648 0f3d 07       		.uleb128 0x7
 6649 0f3e AB010000 		.4byte	.LASF145
 6650 0f42 1D       		.byte	0x1d
 6651 0f43 61       		.byte	0x61
 6652 0f44 860F0000 		.4byte	0xf86
 6653 0f48 0C       		.byte	0xc
 6654 0f49 07       		.uleb128 0x7
 6655 0f4a DF050000 		.4byte	.LASF149
 6656 0f4e 1D       		.byte	0x1d
 6657 0f4f 63       		.byte	0x63
 6658 0f50 E1080000 		.4byte	0x8e1
 6659 0f54 10       		.byte	0x10
 6660 0f55 07       		.uleb128 0x7
 6661 0f56 88030000 		.4byte	.LASF190
 6662 0f5a 1D       		.byte	0x1d
 6663 0f5b 65       		.byte	0x65
 6664 0f5c F7080000 		.4byte	0x8f7
 6665 0f60 12       		.byte	0x12
 6666 0f61 07       		.uleb128 0x7
 6667 0f62 7F090000 		.4byte	.LASF191
 6668 0f66 1D       		.byte	0x1d
 6669 0f67 65       		.byte	0x65
 6670 0f68 F7080000 		.4byte	0x8f7
 6671 0f6c 14       		.byte	0x14
 6672 0f6d 07       		.uleb128 0x7
 6673 0f6e E60F0000 		.4byte	.LASF222
 6674 0f72 1D       		.byte	0x1d
 6675 0f73 72       		.byte	0x72
 6676 0f74 5A110000 		.4byte	0x115a
 6677 0f78 18       		.byte	0x18
 6678 0f79 07       		.uleb128 0x7
 6679 0f7a DF020000 		.4byte	.LASF231
 6680 0f7e 1D       		.byte	0x1d
 6681 0f7f 74       		.byte	0x74
 6682 0f80 47030000 		.4byte	0x347
 6683 0f84 1C       		.byte	0x1c
 6684 0f85 00       		.byte	0
ARM GAS  C:\Users\jo\AppData\Local\Temp\ccLDsGlj.s 			page 121


 6685 0f86 0B       		.uleb128 0xb
 6686 0f87 04       		.byte	0x4
 6687 0f88 F50E0000 		.4byte	0xef5
 6688 0f8c 06       		.uleb128 0x6
 6689 0f8d 33010000 		.4byte	.LASF232
 6690 0f91 1C       		.byte	0x1c
 6691 0f92 1E       		.byte	0x1e
 6692 0f93 3F       		.byte	0x3f
 6693 0f94 05100000 		.4byte	0x1005
 6694 0f98 07       		.uleb128 0x7
 6695 0f99 9A0B0000 		.4byte	.LASF183
 6696 0f9d 1E       		.byte	0x1e
 6697 0f9e 41       		.byte	0x41
 6698 0f9f 31090000 		.4byte	0x931
 6699 0fa3 00       		.byte	0
 6700 0fa4 07       		.uleb128 0x7
 6701 0fa5 7C100000 		.4byte	.LASF184
 6702 0fa9 1E       		.byte	0x1e
 6703 0faa 41       		.byte	0x41
 6704 0fab 31090000 		.4byte	0x931
 6705 0faf 04       		.byte	0x4
 6706 0fb0 07       		.uleb128 0x7
 6707 0fb1 6B000000 		.4byte	.LASF185
 6708 0fb5 1E       		.byte	0x1e
 6709 0fb6 41       		.byte	0x41
 6710 0fb7 E1080000 		.4byte	0x8e1
 6711 0fbb 08       		.byte	0x8
 6712 0fbc 10       		.uleb128 0x10
 6713 0fbd 746F7300 		.ascii	"tos\000"
 6714 0fc1 1E       		.byte	0x1e
 6715 0fc2 41       		.byte	0x41
 6716 0fc3 E1080000 		.4byte	0x8e1
 6717 0fc7 09       		.byte	0x9
 6718 0fc8 10       		.uleb128 0x10
 6719 0fc9 74746C00 		.ascii	"ttl\000"
 6720 0fcd 1E       		.byte	0x1e
 6721 0fce 41       		.byte	0x41
 6722 0fcf E1080000 		.4byte	0x8e1
 6723 0fd3 0A       		.byte	0xa
 6724 0fd4 07       		.uleb128 0x7
 6725 0fd5 AB010000 		.4byte	.LASF145
 6726 0fd9 1E       		.byte	0x1e
 6727 0fda 43       		.byte	0x43
 6728 0fdb 05100000 		.4byte	0x1005
 6729 0fdf 0C       		.byte	0xc
 6730 0fe0 07       		.uleb128 0x7
 6731 0fe1 A9020000 		.4byte	.LASF233
 6732 0fe5 1E       		.byte	0x1e
 6733 0fe6 45       		.byte	0x45
 6734 0fe7 E1080000 		.4byte	0x8e1
 6735 0feb 10       		.byte	0x10
 6736 0fec 07       		.uleb128 0x7
 6737 0fed E60F0000 		.4byte	.LASF222
 6738 0ff1 1E       		.byte	0x1e
 6739 0ff2 48       		.byte	0x48
 6740 0ff3 B8120000 		.4byte	0x12b8
 6741 0ff7 14       		.byte	0x14
ARM GAS  C:\Users\jo\AppData\Local\Temp\ccLDsGlj.s 			page 122


 6742 0ff8 07       		.uleb128 0x7
 6743 0ff9 DF020000 		.4byte	.LASF231
 6744 0ffd 1E       		.byte	0x1e
 6745 0ffe 4A       		.byte	0x4a
 6746 0fff 47030000 		.4byte	0x347
 6747 1003 18       		.byte	0x18
 6748 1004 00       		.byte	0
 6749 1005 0B       		.uleb128 0xb
 6750 1006 04       		.byte	0x4
 6751 1007 8C0F0000 		.4byte	0xf8c
 6752 100b 06       		.uleb128 0x6
 6753 100c 4E060000 		.4byte	.LASF234
 6754 1010 14       		.byte	0x14
 6755 1011 1F       		.byte	0x1f
 6756 1012 3E       		.byte	0x3e
 6757 1013 3C100000 		.4byte	0x103c
 6758 1017 07       		.uleb128 0x7
 6759 1018 B1050000 		.4byte	.LASF235
 6760 101c 1F       		.byte	0x1f
 6761 101d 41       		.byte	0x41
 6762 101e 170B0000 		.4byte	0xb17
 6763 1022 00       		.byte	0
 6764 1023 10       		.uleb128 0x10
 6765 1024 65727200 		.ascii	"err\000"
 6766 1028 1F       		.byte	0x1f
 6767 1029 43       		.byte	0x43
 6768 102a 3C090000 		.4byte	0x93c
 6769 102e 04       		.byte	0x4
 6770 102f 10       		.uleb128 0x10
 6771 1030 6D736700 		.ascii	"msg\000"
 6772 1034 1F       		.byte	0x1f
 6773 1035 75       		.byte	0x75
 6774 1036 09110000 		.4byte	0x1109
 6775 103a 08       		.byte	0x8
 6776 103b 00       		.byte	0
 6777 103c 0B       		.uleb128 0xb
 6778 103d 04       		.byte	0x4
 6779 103e 0B100000 		.4byte	0x100b
 6780 1042 13       		.uleb128 0x13
 6781 1043 01       		.byte	0x1
 6782 1044 1F       		.byte	0x1f
 6783 1045 49       		.byte	0x49
 6784 1046 57100000 		.4byte	0x1057
 6785 104a 07       		.uleb128 0x7
 6786 104b 25070000 		.4byte	.LASF236
 6787 104f 1F       		.byte	0x1f
 6788 1050 4A       		.byte	0x4a
 6789 1051 E1080000 		.4byte	0x8e1
 6790 1055 00       		.byte	0
 6791 1056 00       		.byte	0
 6792 1057 13       		.uleb128 0x13
 6793 1058 08       		.byte	0x8
 6794 1059 1F       		.byte	0x1f
 6795 105a 4D       		.byte	0x4d
 6796 105b 78100000 		.4byte	0x1078
 6797 105f 07       		.uleb128 0x7
 6798 1060 5E050000 		.4byte	.LASF237
ARM GAS  C:\Users\jo\AppData\Local\Temp\ccLDsGlj.s 			page 123


 6799 1064 1F       		.byte	0x1f
 6800 1065 4E       		.byte	0x4e
 6801 1066 280A0000 		.4byte	0xa28
 6802 106a 00       		.byte	0
 6803 106b 07       		.uleb128 0x7
 6804 106c A2060000 		.4byte	.LASF151
 6805 1070 1F       		.byte	0x1f
 6806 1071 4F       		.byte	0x4f
 6807 1072 F7080000 		.4byte	0x8f7
 6808 1076 04       		.byte	0x4
 6809 1077 00       		.byte	0
 6810 1078 13       		.uleb128 0x13
 6811 1079 0C       		.byte	0xc
 6812 107a 1F       		.byte	0x1f
 6813 107b 52       		.byte	0x52
 6814 107c A5100000 		.4byte	0x10a5
 6815 1080 07       		.uleb128 0x7
 6816 1081 5E050000 		.4byte	.LASF237
 6817 1085 1F       		.byte	0x1f
 6818 1086 53       		.byte	0x53
 6819 1087 280A0000 		.4byte	0xa28
 6820 108b 00       		.byte	0
 6821 108c 07       		.uleb128 0x7
 6822 108d A2060000 		.4byte	.LASF151
 6823 1091 1F       		.byte	0x1f
 6824 1092 54       		.byte	0x54
 6825 1093 A5100000 		.4byte	0x10a5
 6826 1097 04       		.byte	0x4
 6827 1098 07       		.uleb128 0x7
 6828 1099 F8010000 		.4byte	.LASF238
 6829 109d 1F       		.byte	0x1f
 6830 109e 55       		.byte	0x55
 6831 109f E1080000 		.4byte	0x8e1
 6832 10a3 08       		.byte	0x8
 6833 10a4 00       		.byte	0
 6834 10a5 0B       		.uleb128 0xb
 6835 10a6 04       		.byte	0x4
 6836 10a7 F7080000 		.4byte	0x8f7
 6837 10ab 13       		.uleb128 0x13
 6838 10ac 0C       		.byte	0xc
 6839 10ad 1F       		.byte	0x1f
 6840 10ae 58       		.byte	0x58
 6841 10af D8100000 		.4byte	0x10d8
 6842 10b3 07       		.uleb128 0x7
 6843 10b4 090A0000 		.4byte	.LASF239
 6844 10b8 1F       		.byte	0x1f
 6845 10b9 59       		.byte	0x59
 6846 10ba D8100000 		.4byte	0x10d8
 6847 10be 00       		.byte	0
 6848 10bf 10       		.uleb128 0x10
 6849 10c0 6C656E00 		.ascii	"len\000"
 6850 10c4 1F       		.byte	0x1f
 6851 10c5 5A       		.byte	0x5a
 6852 10c6 2C000000 		.4byte	0x2c
 6853 10ca 04       		.byte	0x4
 6854 10cb 07       		.uleb128 0x7
 6855 10cc 0B0E0000 		.4byte	.LASF240
ARM GAS  C:\Users\jo\AppData\Local\Temp\ccLDsGlj.s 			page 124


 6856 10d0 1F       		.byte	0x1f
 6857 10d1 5B       		.byte	0x5b
 6858 10d2 E1080000 		.4byte	0x8e1
 6859 10d6 08       		.byte	0x8
 6860 10d7 00       		.byte	0
 6861 10d8 0B       		.uleb128 0xb
 6862 10d9 04       		.byte	0x4
 6863 10da DE100000 		.4byte	0x10de
 6864 10de 1E       		.uleb128 0x1e
 6865 10df 13       		.uleb128 0x13
 6866 10e0 04       		.byte	0x4
 6867 10e1 1F       		.byte	0x1f
 6868 10e2 61       		.byte	0x61
 6869 10e3 F4100000 		.4byte	0x10f4
 6870 10e7 10       		.uleb128 0x10
 6871 10e8 6C656E00 		.ascii	"len\000"
 6872 10ec 1F       		.byte	0x1f
 6873 10ed 62       		.byte	0x62
 6874 10ee 0D090000 		.4byte	0x90d
 6875 10f2 00       		.byte	0
 6876 10f3 00       		.byte	0
 6877 10f4 13       		.uleb128 0x13
 6878 10f5 01       		.byte	0x1
 6879 10f6 1F       		.byte	0x1f
 6880 10f7 65       		.byte	0x65
 6881 10f8 09110000 		.4byte	0x1109
 6882 10fc 07       		.uleb128 0x7
 6883 10fd FC0E0000 		.4byte	.LASF241
 6884 1101 1F       		.byte	0x1f
 6885 1102 66       		.byte	0x66
 6886 1103 E1080000 		.4byte	0x8e1
 6887 1107 00       		.byte	0
 6888 1108 00       		.byte	0
 6889 1109 14       		.uleb128 0x14
 6890 110a 0C       		.byte	0xc
 6891 110b 1F       		.byte	0x1f
 6892 110c 45       		.byte	0x45
 6893 110d 54110000 		.4byte	0x1154
 6894 1111 1D       		.uleb128 0x1d
 6895 1112 6200     		.ascii	"b\000"
 6896 1114 1F       		.byte	0x1f
 6897 1115 47       		.byte	0x47
 6898 1116 54110000 		.4byte	0x1154
 6899 111a 1D       		.uleb128 0x1d
 6900 111b 6E00     		.ascii	"n\000"
 6901 111d 1F       		.byte	0x1f
 6902 111e 4B       		.byte	0x4b
 6903 111f 42100000 		.4byte	0x1042
 6904 1123 1D       		.uleb128 0x1d
 6905 1124 626300   		.ascii	"bc\000"
 6906 1127 1F       		.byte	0x1f
 6907 1128 50       		.byte	0x50
 6908 1129 57100000 		.4byte	0x1057
 6909 112d 1D       		.uleb128 0x1d
 6910 112e 616400   		.ascii	"ad\000"
 6911 1131 1F       		.byte	0x1f
 6912 1132 56       		.byte	0x56
ARM GAS  C:\Users\jo\AppData\Local\Temp\ccLDsGlj.s 			page 125


 6913 1133 78100000 		.4byte	0x1078
 6914 1137 1D       		.uleb128 0x1d
 6915 1138 7700     		.ascii	"w\000"
 6916 113a 1F       		.byte	0x1f
 6917 113b 5F       		.byte	0x5f
 6918 113c AB100000 		.4byte	0x10ab
 6919 1140 1D       		.uleb128 0x1d
 6920 1141 7200     		.ascii	"r\000"
 6921 1143 1F       		.byte	0x1f
 6922 1144 63       		.byte	0x63
 6923 1145 DF100000 		.4byte	0x10df
 6924 1149 1D       		.uleb128 0x1d
 6925 114a 736400   		.ascii	"sd\000"
 6926 114d 1F       		.byte	0x1f
 6927 114e 67       		.byte	0x67
 6928 114f F4100000 		.4byte	0x10f4
 6929 1153 00       		.byte	0
 6930 1154 0B       		.uleb128 0xb
 6931 1155 04       		.byte	0x4
 6932 1156 2E0A0000 		.4byte	0xa2e
 6933 115a 03       		.uleb128 0x3
 6934 115b B20A0000 		.4byte	.LASF242
 6935 115f 1D       		.byte	0x1d
 6936 1160 57       		.byte	0x57
 6937 1161 65110000 		.4byte	0x1165
 6938 1165 0B       		.uleb128 0xb
 6939 1166 04       		.byte	0x4
 6940 1167 6B110000 		.4byte	0x116b
 6941 116b 0C       		.uleb128 0xc
 6942 116c 8A110000 		.4byte	0x118a
 6943 1170 0D       		.uleb128 0xd
 6944 1171 47030000 		.4byte	0x347
 6945 1175 0D       		.uleb128 0xd
 6946 1176 860F0000 		.4byte	0xf86
 6947 117a 0D       		.uleb128 0xd
 6948 117b 220A0000 		.4byte	0xa22
 6949 117f 0D       		.uleb128 0xd
 6950 1180 280A0000 		.4byte	0xa28
 6951 1184 0D       		.uleb128 0xd
 6952 1185 F7080000 		.4byte	0x8f7
 6953 1189 00       		.byte	0
 6954 118a 03       		.uleb128 0x3
 6955 118b CD000000 		.4byte	.LASF243
 6956 118f 1C       		.byte	0x1c
 6957 1190 3C       		.byte	0x3c
 6958 1191 95110000 		.4byte	0x1195
 6959 1195 0B       		.uleb128 0xb
 6960 1196 04       		.byte	0x4
 6961 1197 9B110000 		.4byte	0x119b
 6962 119b 19       		.uleb128 0x19
 6963 119c 3C090000 		.4byte	0x93c
 6964 11a0 B4110000 		.4byte	0x11b4
 6965 11a4 0D       		.uleb128 0xd
 6966 11a5 47030000 		.4byte	0x347
 6967 11a9 0D       		.uleb128 0xd
 6968 11aa EF0E0000 		.4byte	0xeef
 6969 11ae 0D       		.uleb128 0xd
ARM GAS  C:\Users\jo\AppData\Local\Temp\ccLDsGlj.s 			page 126


 6970 11af 3C090000 		.4byte	0x93c
 6971 11b3 00       		.byte	0
 6972 11b4 03       		.uleb128 0x3
 6973 11b5 D4090000 		.4byte	.LASF244
 6974 11b9 1C       		.byte	0x1c
 6975 11ba 48       		.byte	0x48
 6976 11bb BF110000 		.4byte	0x11bf
 6977 11bf 0B       		.uleb128 0xb
 6978 11c0 04       		.byte	0x4
 6979 11c1 C5110000 		.4byte	0x11c5
 6980 11c5 19       		.uleb128 0x19
 6981 11c6 3C090000 		.4byte	0x93c
 6982 11ca E3110000 		.4byte	0x11e3
 6983 11ce 0D       		.uleb128 0xd
 6984 11cf 47030000 		.4byte	0x347
 6985 11d3 0D       		.uleb128 0xd
 6986 11d4 EF0E0000 		.4byte	0xeef
 6987 11d8 0D       		.uleb128 0xd
 6988 11d9 220A0000 		.4byte	0xa22
 6989 11dd 0D       		.uleb128 0xd
 6990 11de 3C090000 		.4byte	0x93c
 6991 11e2 00       		.byte	0
 6992 11e3 03       		.uleb128 0x3
 6993 11e4 E8020000 		.4byte	.LASF245
 6994 11e8 1C       		.byte	0x1c
 6995 11e9 56       		.byte	0x56
 6996 11ea EE110000 		.4byte	0x11ee
 6997 11ee 0B       		.uleb128 0xb
 6998 11ef 04       		.byte	0x4
 6999 11f0 F4110000 		.4byte	0x11f4
 7000 11f4 19       		.uleb128 0x19
 7001 11f5 3C090000 		.4byte	0x93c
 7002 11f9 0D120000 		.4byte	0x120d
 7003 11fd 0D       		.uleb128 0xd
 7004 11fe 47030000 		.4byte	0x347
 7005 1202 0D       		.uleb128 0xd
 7006 1203 EF0E0000 		.4byte	0xeef
 7007 1207 0D       		.uleb128 0xd
 7008 1208 F7080000 		.4byte	0x8f7
 7009 120c 00       		.byte	0
 7010 120d 03       		.uleb128 0x3
 7011 120e 240A0000 		.4byte	.LASF246
 7012 1212 1C       		.byte	0x1c
 7013 1213 62       		.byte	0x62
 7014 1214 18120000 		.4byte	0x1218
 7015 1218 0B       		.uleb128 0xb
 7016 1219 04       		.byte	0x4
 7017 121a 1E120000 		.4byte	0x121e
 7018 121e 19       		.uleb128 0x19
 7019 121f 3C090000 		.4byte	0x93c
 7020 1223 32120000 		.4byte	0x1232
 7021 1227 0D       		.uleb128 0xd
 7022 1228 47030000 		.4byte	0x347
 7023 122c 0D       		.uleb128 0xd
 7024 122d EF0E0000 		.4byte	0xeef
 7025 1231 00       		.byte	0
 7026 1232 03       		.uleb128 0x3
ARM GAS  C:\Users\jo\AppData\Local\Temp\ccLDsGlj.s 			page 127


 7027 1233 ED070000 		.4byte	.LASF247
 7028 1237 1C       		.byte	0x1c
 7029 1238 6E       		.byte	0x6e
 7030 1239 3D120000 		.4byte	0x123d
 7031 123d 0B       		.uleb128 0xb
 7032 123e 04       		.byte	0x4
 7033 123f 43120000 		.4byte	0x1243
 7034 1243 0C       		.uleb128 0xc
 7035 1244 53120000 		.4byte	0x1253
 7036 1248 0D       		.uleb128 0xd
 7037 1249 47030000 		.4byte	0x347
 7038 124d 0D       		.uleb128 0xd
 7039 124e 3C090000 		.4byte	0x93c
 7040 1252 00       		.byte	0
 7041 1253 03       		.uleb128 0x3
 7042 1254 9A010000 		.4byte	.LASF248
 7043 1258 1C       		.byte	0x1c
 7044 1259 7C       		.byte	0x7c
 7045 125a 95110000 		.4byte	0x1195
 7046 125e 1C       		.uleb128 0x1c
 7047 125f 780A0000 		.4byte	.LASF249
 7048 1263 01       		.byte	0x1
 7049 1264 1C       		.byte	0x1c
 7050 1265 7E       		.byte	0x7e
 7051 1266 AD120000 		.4byte	0x12ad
 7052 126a 1B       		.uleb128 0x1b
 7053 126b AB0A0000 		.4byte	.LASF250
 7054 126f 00       		.sleb128 0
 7055 1270 1B       		.uleb128 0x1b
 7056 1271 280F0000 		.4byte	.LASF251
 7057 1275 01       		.sleb128 1
 7058 1276 1B       		.uleb128 0x1b
 7059 1277 EE0E0000 		.4byte	.LASF252
 7060 127b 02       		.sleb128 2
 7061 127c 1B       		.uleb128 0x1b
 7062 127d 25110000 		.4byte	.LASF253
 7063 1281 03       		.sleb128 3
 7064 1282 1B       		.uleb128 0x1b
 7065 1283 F60B0000 		.4byte	.LASF254
 7066 1287 04       		.sleb128 4
 7067 1288 1B       		.uleb128 0x1b
 7068 1289 930E0000 		.4byte	.LASF255
 7069 128d 05       		.sleb128 5
 7070 128e 1B       		.uleb128 0x1b
 7071 128f 9E0E0000 		.4byte	.LASF256
 7072 1293 06       		.sleb128 6
 7073 1294 1B       		.uleb128 0x1b
 7074 1295 8A0D0000 		.4byte	.LASF257
 7075 1299 07       		.sleb128 7
 7076 129a 1B       		.uleb128 0x1b
 7077 129b D7050000 		.4byte	.LASF258
 7078 129f 08       		.sleb128 8
 7079 12a0 1B       		.uleb128 0x1b
 7080 12a1 4D050000 		.4byte	.LASF259
 7081 12a5 09       		.sleb128 9
 7082 12a6 1B       		.uleb128 0x1b
 7083 12a7 3B010000 		.4byte	.LASF260
ARM GAS  C:\Users\jo\AppData\Local\Temp\ccLDsGlj.s 			page 128


 7084 12ab 0A       		.sleb128 10
 7085 12ac 00       		.byte	0
 7086 12ad 1F       		.uleb128 0x1f
 7087 12ae EA090000 		.4byte	.LASF382
 7088 12b2 0B       		.uleb128 0xb
 7089 12b3 04       		.byte	0x4
 7090 12b4 AD120000 		.4byte	0x12ad
 7091 12b8 03       		.uleb128 0x3
 7092 12b9 FE080000 		.4byte	.LASF261
 7093 12bd 1E       		.byte	0x1e
 7094 12be 3C       		.byte	0x3c
 7095 12bf C3120000 		.4byte	0x12c3
 7096 12c3 0B       		.uleb128 0xb
 7097 12c4 04       		.byte	0x4
 7098 12c5 C9120000 		.4byte	0x12c9
 7099 12c9 19       		.uleb128 0x19
 7100 12ca E1080000 		.4byte	0x8e1
 7101 12ce E7120000 		.4byte	0x12e7
 7102 12d2 0D       		.uleb128 0xd
 7103 12d3 47030000 		.4byte	0x347
 7104 12d7 0D       		.uleb128 0xd
 7105 12d8 05100000 		.4byte	0x1005
 7106 12dc 0D       		.uleb128 0xd
 7107 12dd 220A0000 		.4byte	0xa22
 7108 12e1 0D       		.uleb128 0xd
 7109 12e2 280A0000 		.4byte	0xa28
 7110 12e6 00       		.byte	0
 7111 12e7 1A       		.uleb128 0x1a
 7112 12e8 01       		.byte	0x1
 7113 12e9 20       		.byte	0x20
 7114 12ea 2B       		.byte	0x2b
 7115 12eb 4A130000 		.4byte	0x134a
 7116 12ef 1B       		.uleb128 0x1b
 7117 12f0 6E0D0000 		.4byte	.LASF262
 7118 12f4 00       		.sleb128 0
 7119 12f5 1B       		.uleb128 0x1b
 7120 12f6 8D0B0000 		.4byte	.LASF263
 7121 12fa 01       		.sleb128 1
 7122 12fb 1B       		.uleb128 0x1b
 7123 12fc DE080000 		.4byte	.LASF264
 7124 1300 02       		.sleb128 2
 7125 1301 1B       		.uleb128 0x1b
 7126 1302 57000000 		.4byte	.LASF265
 7127 1306 03       		.sleb128 3
 7128 1307 1B       		.uleb128 0x1b
 7129 1308 CE0E0000 		.4byte	.LASF266
 7130 130c 04       		.sleb128 4
 7131 130d 1B       		.uleb128 0x1b
 7132 130e C5090000 		.4byte	.LASF267
 7133 1312 05       		.sleb128 5
 7134 1313 1B       		.uleb128 0x1b
 7135 1314 1D0C0000 		.4byte	.LASF268
 7136 1318 06       		.sleb128 6
 7137 1319 1B       		.uleb128 0x1b
 7138 131a 72080000 		.4byte	.LASF269
 7139 131e 07       		.sleb128 7
 7140 131f 1B       		.uleb128 0x1b
ARM GAS  C:\Users\jo\AppData\Local\Temp\ccLDsGlj.s 			page 129


 7141 1320 49030000 		.4byte	.LASF270
 7142 1324 08       		.sleb128 8
 7143 1325 1B       		.uleb128 0x1b
 7144 1326 75030000 		.4byte	.LASF271
 7145 132a 09       		.sleb128 9
 7146 132b 1B       		.uleb128 0x1b
 7147 132c D1040000 		.4byte	.LASF272
 7148 1330 0A       		.sleb128 10
 7149 1331 1B       		.uleb128 0x1b
 7150 1332 710B0000 		.4byte	.LASF273
 7151 1336 0B       		.sleb128 11
 7152 1337 1B       		.uleb128 0x1b
 7153 1338 B9060000 		.4byte	.LASF274
 7154 133c 0C       		.sleb128 12
 7155 133d 1B       		.uleb128 0x1b
 7156 133e D0020000 		.4byte	.LASF275
 7157 1342 0D       		.sleb128 13
 7158 1343 1B       		.uleb128 0x1b
 7159 1344 02060000 		.4byte	.LASF276
 7160 1348 0E       		.sleb128 14
 7161 1349 00       		.byte	0
 7162 134a 03       		.uleb128 0x3
 7163 134b E8100000 		.4byte	.LASF277
 7164 134f 20       		.byte	0x20
 7165 1350 2F       		.byte	0x2f
 7166 1351 E7120000 		.4byte	0x12e7
 7167 1355 0B       		.uleb128 0xb
 7168 1356 04       		.byte	0x4
 7169 1357 47090000 		.4byte	0x947
 7170 135b 20       		.uleb128 0x20
 7171 135c 3C0B0000 		.4byte	.LASF301
 7172 1360 03       		.byte	0x3
 7173 1361 9C01     		.2byte	0x19c
 7174 1363 03       		.byte	0x3
 7175 1364 75130000 		.4byte	0x1375
 7176 1368 21       		.uleb128 0x21
 7177 1369 470E0000 		.4byte	.LASF278
 7178 136d 03       		.byte	0x3
 7179 136e 9C01     		.2byte	0x19c
 7180 1370 23060000 		.4byte	0x623
 7181 1374 00       		.byte	0
 7182 1375 22       		.uleb128 0x22
 7183 1376 6F020000 		.4byte	.LASF279
 7184 137a 01       		.byte	0x1
 7185 137b 3901     		.2byte	0x139
 7186 137d 3C090000 		.4byte	0x93c
 7187 1381 01       		.byte	0x1
 7188 1382 B7130000 		.4byte	0x13b7
 7189 1386 23       		.uleb128 0x23
 7190 1387 61726700 		.ascii	"arg\000"
 7191 138b 01       		.byte	0x1
 7192 138c 3901     		.2byte	0x139
 7193 138e 47030000 		.4byte	0x347
 7194 1392 23       		.uleb128 0x23
 7195 1393 70636200 		.ascii	"pcb\000"
 7196 1397 01       		.byte	0x1
 7197 1398 3901     		.2byte	0x139
ARM GAS  C:\Users\jo\AppData\Local\Temp\ccLDsGlj.s 			page 130


 7198 139a EF0E0000 		.4byte	0xeef
 7199 139e 23       		.uleb128 0x23
 7200 139f 6C656E00 		.ascii	"len\000"
 7201 13a3 01       		.byte	0x1
 7202 13a4 3901     		.2byte	0x139
 7203 13a6 F7080000 		.4byte	0x8f7
 7204 13aa 24       		.uleb128 0x24
 7205 13ab B1050000 		.4byte	.LASF235
 7206 13af 01       		.byte	0x1
 7207 13b0 3B01     		.2byte	0x13b
 7208 13b2 170B0000 		.4byte	0xb17
 7209 13b6 00       		.byte	0
 7210 13b7 25       		.uleb128 0x25
 7211 13b8 C8060000 		.4byte	.LASF280
 7212 13bc 02       		.byte	0x2
 7213 13bd 45       		.byte	0x45
 7214 13be 25000000 		.4byte	0x25
 7215 13c2 03       		.byte	0x3
 7216 13c3 F4130000 		.4byte	0x13f4
 7217 13c7 26       		.uleb128 0x26
 7218 13c8 63687000 		.ascii	"chp\000"
 7219 13cc 02       		.byte	0x2
 7220 13cd 45       		.byte	0x45
 7221 13ce F4130000 		.4byte	0x13f4
 7222 13d2 26       		.uleb128 0x26
 7223 13d3 666D7400 		.ascii	"fmt\000"
 7224 13d7 02       		.byte	0x2
 7225 13d8 45       		.byte	0x45
 7226 13d9 23060000 		.4byte	0x623
 7227 13dd 27       		.uleb128 0x27
 7228 13de 28       		.uleb128 0x28
 7229 13df 617000   		.ascii	"ap\000"
 7230 13e2 02       		.byte	0x2
 7231 13e3 46       		.byte	0x46
 7232 13e4 D6080000 		.4byte	0x8d6
 7233 13e8 29       		.uleb128 0x29
 7234 13e9 B0100000 		.4byte	.LASF281
 7235 13ed 02       		.byte	0x2
 7236 13ee 47       		.byte	0x47
 7237 13ef 25000000 		.4byte	0x25
 7238 13f3 00       		.byte	0
 7239 13f4 0B       		.uleb128 0xb
 7240 13f5 04       		.byte	0x4
 7241 13f6 5C080000 		.4byte	0x85c
 7242 13fa 2A       		.uleb128 0x2a
 7243 13fb F3060000 		.4byte	.LASF282
 7244 13ff 01       		.byte	0x1
 7245 1400 4E       		.byte	0x4e
 7246 1401 E1080000 		.4byte	0x8e1
 7247 1405 00000000 		.4byte	.LFB256
 7248 1409 90000000 		.4byte	.LFE256-.LFB256
 7249 140d 01       		.uleb128 0x1
 7250 140e 9C       		.byte	0x9c
 7251 140f 3B150000 		.4byte	0x153b
 7252 1413 2B       		.uleb128 0x2b
 7253 1414 61726700 		.ascii	"arg\000"
 7254 1418 01       		.byte	0x1
ARM GAS  C:\Users\jo\AppData\Local\Temp\ccLDsGlj.s 			page 131


 7255 1419 4E       		.byte	0x4e
 7256 141a 47030000 		.4byte	0x347
 7257 141e 00000000 		.4byte	.LLST0
 7258 1422 2B       		.uleb128 0x2b
 7259 1423 70636200 		.ascii	"pcb\000"
 7260 1427 01       		.byte	0x1
 7261 1428 4E       		.byte	0x4e
 7262 1429 05100000 		.4byte	0x1005
 7263 142d 42000000 		.4byte	.LLST1
 7264 1431 2B       		.uleb128 0x2b
 7265 1432 7000     		.ascii	"p\000"
 7266 1434 01       		.byte	0x1
 7267 1435 4E       		.byte	0x4e
 7268 1436 220A0000 		.4byte	0xa22
 7269 143a AB000000 		.4byte	.LLST2
 7270 143e 2C       		.uleb128 0x2c
 7271 143f 4C0F0000 		.4byte	.LASF129
 7272 1443 01       		.byte	0x1
 7273 1444 4F       		.byte	0x4f
 7274 1445 280A0000 		.4byte	0xa28
 7275 1449 09010000 		.4byte	.LLST3
 7276 144d 2D       		.uleb128 0x2d
 7277 144e 7100     		.ascii	"q\000"
 7278 1450 01       		.byte	0x1
 7279 1451 51       		.byte	0x51
 7280 1452 220A0000 		.4byte	0xa22
 7281 1456 43010000 		.4byte	.LLST4
 7282 145a 2D       		.uleb128 0x2d
 7283 145b 62756600 		.ascii	"buf\000"
 7284 145f 01       		.byte	0x1
 7285 1460 52       		.byte	0x52
 7286 1461 54110000 		.4byte	0x1154
 7287 1465 6C010000 		.4byte	.LLST5
 7288 1469 2E       		.uleb128 0x2e
 7289 146a B1050000 		.4byte	.LASF235
 7290 146e 01       		.byte	0x1
 7291 146f 53       		.byte	0x53
 7292 1470 170B0000 		.4byte	0xb17
 7293 1474 00000000 		.4byte	.LLST0
 7294 1478 2F       		.uleb128 0x2f
 7295 1479 00000000 		.4byte	.Ldebug_ranges0+0
 7296 147d F8140000 		.4byte	0x14f8
 7297 1481 2D       		.uleb128 0x2d
 7298 1482 6C656E00 		.ascii	"len\000"
 7299 1486 01       		.byte	0x1
 7300 1487 6A       		.byte	0x6a
 7301 1488 F7080000 		.4byte	0x8f7
 7302 148c A0010000 		.4byte	.LLST7
 7303 1490 30       		.uleb128 0x30
 7304 1491 3E000000 		.4byte	.LVL7
 7305 1495 00370000 		.4byte	0x3700
 7306 1499 A3140000 		.4byte	0x14a3
 7307 149d 31       		.uleb128 0x31
 7308 149e 01       		.uleb128 0x1
 7309 149f 50       		.byte	0x50
 7310 14a0 01       		.uleb128 0x1
 7311 14a1 37       		.byte	0x37
ARM GAS  C:\Users\jo\AppData\Local\Temp\ccLDsGlj.s 			page 132


 7312 14a2 00       		.byte	0
 7313 14a3 30       		.uleb128 0x30
 7314 14a4 60000000 		.4byte	.LVL11
 7315 14a8 15370000 		.4byte	0x3715
 7316 14ac BD140000 		.4byte	0x14bd
 7317 14b0 31       		.uleb128 0x31
 7318 14b1 01       		.uleb128 0x1
 7319 14b2 51       		.byte	0x51
 7320 14b3 02       		.uleb128 0x2
 7321 14b4 74       		.byte	0x74
 7322 14b5 00       		.sleb128 0
 7323 14b6 31       		.uleb128 0x31
 7324 14b7 01       		.uleb128 0x1
 7325 14b8 50       		.byte	0x50
 7326 14b9 02       		.uleb128 0x2
 7327 14ba 77       		.byte	0x77
 7328 14bb 00       		.sleb128 0
 7329 14bc 00       		.byte	0
 7330 14bd 32       		.uleb128 0x32
 7331 14be 70000000 		.4byte	.LVL12
 7332 14c2 D3140000 		.4byte	0x14d3
 7333 14c6 31       		.uleb128 0x31
 7334 14c7 01       		.uleb128 0x1
 7335 14c8 52       		.byte	0x52
 7336 14c9 02       		.uleb128 0x2
 7337 14ca 76       		.byte	0x76
 7338 14cb 00       		.sleb128 0
 7339 14cc 31       		.uleb128 0x31
 7340 14cd 01       		.uleb128 0x1
 7341 14ce 50       		.byte	0x50
 7342 14cf 02       		.uleb128 0x2
 7343 14d0 75       		.byte	0x75
 7344 14d1 00       		.sleb128 0
 7345 14d2 00       		.byte	0
 7346 14d3 30       		.uleb128 0x30
 7347 14d4 80000000 		.4byte	.LVL16
 7348 14d8 35370000 		.4byte	0x3735
 7349 14dc E7140000 		.4byte	0x14e7
 7350 14e0 31       		.uleb128 0x31
 7351 14e1 01       		.uleb128 0x1
 7352 14e2 50       		.byte	0x50
 7353 14e3 02       		.uleb128 0x2
 7354 14e4 78       		.byte	0x78
 7355 14e5 00       		.sleb128 0
 7356 14e6 00       		.byte	0
 7357 14e7 33       		.uleb128 0x33
 7358 14e8 88000000 		.4byte	.LVL18
 7359 14ec 4A370000 		.4byte	0x374a
 7360 14f0 31       		.uleb128 0x31
 7361 14f1 01       		.uleb128 0x1
 7362 14f2 50       		.byte	0x50
 7363 14f3 02       		.uleb128 0x2
 7364 14f4 74       		.byte	0x74
 7365 14f5 00       		.sleb128 0
 7366 14f6 00       		.byte	0
 7367 14f7 00       		.byte	0
 7368 14f8 30       		.uleb128 0x30
ARM GAS  C:\Users\jo\AppData\Local\Temp\ccLDsGlj.s 			page 133


 7369 14f9 18000000 		.4byte	.LVL2
 7370 14fd 5B370000 		.4byte	0x375b
 7371 1501 0C150000 		.4byte	0x150c
 7372 1505 31       		.uleb128 0x31
 7373 1506 01       		.uleb128 0x1
 7374 1507 50       		.byte	0x50
 7375 1508 02       		.uleb128 0x2
 7376 1509 77       		.byte	0x77
 7377 150a 00       		.sleb128 0
 7378 150b 00       		.byte	0
 7379 150c 30       		.uleb128 0x30
 7380 150d 2A000000 		.4byte	.LVL5
 7381 1511 70370000 		.4byte	0x3770
 7382 1515 24150000 		.4byte	0x1524
 7383 1519 31       		.uleb128 0x31
 7384 151a 01       		.uleb128 0x1
 7385 151b 52       		.byte	0x52
 7386 151c 01       		.uleb128 0x1
 7387 151d 30       		.byte	0x30
 7388 151e 31       		.uleb128 0x31
 7389 151f 01       		.uleb128 0x1
 7390 1520 50       		.byte	0x50
 7391 1521 01       		.uleb128 0x1
 7392 1522 33       		.byte	0x33
 7393 1523 00       		.byte	0
 7394 1524 33       		.uleb128 0x33
 7395 1525 36000000 		.4byte	.LVL6
 7396 1529 8F370000 		.4byte	0x378f
 7397 152d 31       		.uleb128 0x31
 7398 152e 01       		.uleb128 0x1
 7399 152f 51       		.byte	0x51
 7400 1530 02       		.uleb128 0x2
 7401 1531 74       		.byte	0x74
 7402 1532 00       		.sleb128 0
 7403 1533 31       		.uleb128 0x31
 7404 1534 01       		.uleb128 0x1
 7405 1535 50       		.byte	0x50
 7406 1536 02       		.uleb128 0x2
 7407 1537 78       		.byte	0x78
 7408 1538 00       		.sleb128 0
 7409 1539 00       		.byte	0
 7410 153a 00       		.byte	0
 7411 153b 34       		.uleb128 0x34
 7412 153c 75090000 		.4byte	.LASF284
 7413 1540 01       		.byte	0x1
 7414 1541 9D01     		.2byte	0x19d
 7415 1543 00000000 		.4byte	.LFB262
 7416 1547 44000000 		.4byte	.LFE262-.LFB262
 7417 154b 01       		.uleb128 0x1
 7418 154c 9C       		.byte	0x9c
 7419 154d FC150000 		.4byte	0x15fc
 7420 1551 35       		.uleb128 0x35
 7421 1552 B1050000 		.4byte	.LASF235
 7422 1556 01       		.byte	0x1
 7423 1557 9D01     		.2byte	0x19d
 7424 1559 170B0000 		.4byte	0xb17
 7425 155d BE010000 		.4byte	.LLST8
ARM GAS  C:\Users\jo\AppData\Local\Temp\ccLDsGlj.s 			page 134


 7426 1561 36       		.uleb128 0x36
 7427 1562 70636200 		.ascii	"pcb\000"
 7428 1566 01       		.byte	0x1
 7429 1567 9F01     		.2byte	0x19f
 7430 1569 EF0E0000 		.4byte	0xeef
 7431 156d EA010000 		.4byte	.LLST9
 7432 1571 30       		.uleb128 0x30
 7433 1572 0C000000 		.4byte	.LVL22
 7434 1576 A9370000 		.4byte	0x37a9
 7435 157a 8C150000 		.4byte	0x158c
 7436 157e 31       		.uleb128 0x31
 7437 157f 01       		.uleb128 0x1
 7438 1580 51       		.byte	0x51
 7439 1581 03       		.uleb128 0x3
 7440 1582 F3       		.byte	0xf3
 7441 1583 01       		.uleb128 0x1
 7442 1584 50       		.byte	0x50
 7443 1585 31       		.uleb128 0x31
 7444 1586 01       		.uleb128 0x1
 7445 1587 50       		.byte	0x50
 7446 1588 02       		.uleb128 0x2
 7447 1589 74       		.byte	0x74
 7448 158a 00       		.sleb128 0
 7449 158b 00       		.byte	0
 7450 158c 30       		.uleb128 0x30
 7451 158d 14000000 		.4byte	.LVL23
 7452 1591 C0370000 		.4byte	0x37c0
 7453 1595 A9150000 		.4byte	0x15a9
 7454 1599 31       		.uleb128 0x31
 7455 159a 01       		.uleb128 0x1
 7456 159b 51       		.byte	0x51
 7457 159c 05       		.uleb128 0x5
 7458 159d 03       		.byte	0x3
 7459 159e 00000000 		.4byte	recv_tcp
 7460 15a2 31       		.uleb128 0x31
 7461 15a3 01       		.uleb128 0x1
 7462 15a4 50       		.byte	0x50
 7463 15a5 02       		.uleb128 0x2
 7464 15a6 74       		.byte	0x74
 7465 15a7 00       		.sleb128 0
 7466 15a8 00       		.byte	0
 7467 15a9 30       		.uleb128 0x30
 7468 15aa 1C000000 		.4byte	.LVL24
 7469 15ae D7370000 		.4byte	0x37d7
 7470 15b2 C6150000 		.4byte	0x15c6
 7471 15b6 31       		.uleb128 0x31
 7472 15b7 01       		.uleb128 0x1
 7473 15b8 51       		.byte	0x51
 7474 15b9 05       		.uleb128 0x5
 7475 15ba 03       		.byte	0x3
 7476 15bb 00000000 		.4byte	sent_tcp
 7477 15bf 31       		.uleb128 0x31
 7478 15c0 01       		.uleb128 0x1
 7479 15c1 50       		.byte	0x50
 7480 15c2 02       		.uleb128 0x2
 7481 15c3 74       		.byte	0x74
 7482 15c4 00       		.sleb128 0
ARM GAS  C:\Users\jo\AppData\Local\Temp\ccLDsGlj.s 			page 135


 7483 15c5 00       		.byte	0
 7484 15c6 30       		.uleb128 0x30
 7485 15c7 26000000 		.4byte	.LVL25
 7486 15cb EE370000 		.4byte	0x37ee
 7487 15cf E8150000 		.4byte	0x15e8
 7488 15d3 31       		.uleb128 0x31
 7489 15d4 01       		.uleb128 0x1
 7490 15d5 52       		.byte	0x52
 7491 15d6 01       		.uleb128 0x1
 7492 15d7 34       		.byte	0x34
 7493 15d8 31       		.uleb128 0x31
 7494 15d9 01       		.uleb128 0x1
 7495 15da 51       		.byte	0x51
 7496 15db 05       		.uleb128 0x5
 7497 15dc 03       		.byte	0x3
 7498 15dd 00000000 		.4byte	poll_tcp
 7499 15e1 31       		.uleb128 0x31
 7500 15e2 01       		.uleb128 0x1
 7501 15e3 50       		.byte	0x50
 7502 15e4 02       		.uleb128 0x2
 7503 15e5 74       		.byte	0x74
 7504 15e6 00       		.sleb128 0
 7505 15e7 00       		.byte	0
 7506 15e8 37       		.uleb128 0x37
 7507 15e9 32000000 		.4byte	.LVL27
 7508 15ed 0A380000 		.4byte	0x380a
 7509 15f1 31       		.uleb128 0x31
 7510 15f2 01       		.uleb128 0x1
 7511 15f3 51       		.byte	0x51
 7512 15f4 05       		.uleb128 0x5
 7513 15f5 03       		.byte	0x3
 7514 15f6 00000000 		.4byte	err_tcp
 7515 15fa 00       		.byte	0
 7516 15fb 00       		.byte	0
 7517 15fc 38       		.uleb128 0x38
 7518 15fd B7130000 		.4byte	0x13b7
 7519 1601 00000000 		.4byte	.LFB283
 7520 1605 28000000 		.4byte	.LFE283-.LFB283
 7521 1609 01       		.uleb128 0x1
 7522 160a 9C       		.byte	0x9c
 7523 160b 5B160000 		.4byte	0x165b
 7524 160f 39       		.uleb128 0x39
 7525 1610 C7130000 		.4byte	0x13c7
 7526 1614 08020000 		.4byte	.LLST10
 7527 1618 3A       		.uleb128 0x3a
 7528 1619 D2130000 		.4byte	0x13d2
 7529 161d 02       		.uleb128 0x2
 7530 161e 91       		.byte	0x91
 7531 161f 74       		.sleb128 -12
 7532 1620 27       		.uleb128 0x27
 7533 1621 3B       		.uleb128 0x3b
 7534 1622 DE130000 		.4byte	0x13de
 7535 1626 02       		.uleb128 0x2
 7536 1627 91       		.byte	0x91
 7537 1628 6C       		.sleb128 -20
 7538 1629 3B       		.uleb128 0x3b
 7539 162a E8130000 		.4byte	0x13e8
ARM GAS  C:\Users\jo\AppData\Local\Temp\ccLDsGlj.s 			page 136


 7540 162e 01       		.uleb128 0x1
 7541 162f 50       		.byte	0x50
 7542 1630 3A       		.uleb128 0x3a
 7543 1631 D2130000 		.4byte	0x13d2
 7544 1635 06       		.uleb128 0x6
 7545 1636 03       		.byte	0x3
 7546 1637 00000000 		.4byte	.LC0
 7547 163b 9F       		.byte	0x9f
 7548 163c 3C       		.uleb128 0x3c
 7549 163d C7130000 		.4byte	0x13c7
 7550 1641 33       		.uleb128 0x33
 7551 1642 14000000 		.4byte	.LVL30
 7552 1646 21380000 		.4byte	0x3821
 7553 164a 31       		.uleb128 0x31
 7554 164b 01       		.uleb128 0x1
 7555 164c 52       		.byte	0x52
 7556 164d 02       		.uleb128 0x2
 7557 164e 91       		.byte	0x91
 7558 164f 60       		.sleb128 -32
 7559 1650 31       		.uleb128 0x31
 7560 1651 01       		.uleb128 0x1
 7561 1652 51       		.byte	0x51
 7562 1653 05       		.uleb128 0x5
 7563 1654 03       		.byte	0x3
 7564 1655 00000000 		.4byte	.LC0
 7565 1659 00       		.byte	0
 7566 165a 00       		.byte	0
 7567 165b 2A       		.uleb128 0x2a
 7568 165c 8D050000 		.4byte	.LASF283
 7569 1660 01       		.byte	0x1
 7570 1661 D8       		.byte	0xd8
 7571 1662 3C090000 		.4byte	0x93c
 7572 1666 00000000 		.4byte	.LFB258
 7573 166a E4000000 		.4byte	.LFE258-.LFB258
 7574 166e 01       		.uleb128 0x1
 7575 166f 9C       		.byte	0x9c
 7576 1670 5B180000 		.4byte	0x185b
 7577 1674 2B       		.uleb128 0x2b
 7578 1675 61726700 		.ascii	"arg\000"
 7579 1679 01       		.byte	0x1
 7580 167a D8       		.byte	0xd8
 7581 167b 47030000 		.4byte	0x347
 7582 167f 29020000 		.4byte	.LLST11
 7583 1683 2B       		.uleb128 0x2b
 7584 1684 70636200 		.ascii	"pcb\000"
 7585 1688 01       		.byte	0x1
 7586 1689 D8       		.byte	0xd8
 7587 168a EF0E0000 		.4byte	0xeef
 7588 168e 5D020000 		.4byte	.LLST12
 7589 1692 2B       		.uleb128 0x2b
 7590 1693 7000     		.ascii	"p\000"
 7591 1695 01       		.byte	0x1
 7592 1696 D8       		.byte	0xd8
 7593 1697 220A0000 		.4byte	0xa22
 7594 169b DF020000 		.4byte	.LLST13
 7595 169f 2B       		.uleb128 0x2b
 7596 16a0 65727200 		.ascii	"err\000"
ARM GAS  C:\Users\jo\AppData\Local\Temp\ccLDsGlj.s 			page 137


 7597 16a4 01       		.byte	0x1
 7598 16a5 D8       		.byte	0xd8
 7599 16a6 3C090000 		.4byte	0x93c
 7600 16aa 13030000 		.4byte	.LLST14
 7601 16ae 2E       		.uleb128 0x2e
 7602 16af B1050000 		.4byte	.LASF235
 7603 16b3 01       		.byte	0x1
 7604 16b4 DA       		.byte	0xda
 7605 16b5 170B0000 		.4byte	0xb17
 7606 16b9 4D030000 		.4byte	.LLST15
 7607 16bd 2D       		.uleb128 0x2d
 7608 16be 6C656E00 		.ascii	"len\000"
 7609 16c2 01       		.byte	0x1
 7610 16c3 DB       		.byte	0xdb
 7611 16c4 F7080000 		.4byte	0x8f7
 7612 16c8 76030000 		.4byte	.LLST16
 7613 16cc 3D       		.uleb128 0x3d
 7614 16cd 5B130000 		.4byte	0x135b
 7615 16d1 2C000000 		.4byte	.LBB89
 7616 16d5 06000000 		.4byte	.LBE89-.LBB89
 7617 16d9 01       		.byte	0x1
 7618 16da E1       		.byte	0xe1
 7619 16db FC160000 		.4byte	0x16fc
 7620 16df 39       		.uleb128 0x39
 7621 16e0 68130000 		.4byte	0x1368
 7622 16e4 94030000 		.4byte	.LLST17
 7623 16e8 33       		.uleb128 0x33
 7624 16e9 32000000 		.4byte	.LVL35
 7625 16ed 40380000 		.4byte	0x3840
 7626 16f1 31       		.uleb128 0x31
 7627 16f2 01       		.uleb128 0x1
 7628 16f3 50       		.byte	0x50
 7629 16f4 05       		.uleb128 0x5
 7630 16f5 03       		.byte	0x3
 7631 16f6 9C000000 		.4byte	.LC4
 7632 16fa 00       		.byte	0
 7633 16fb 00       		.byte	0
 7634 16fc 3D       		.uleb128 0x3d
 7635 16fd 5B130000 		.4byte	0x135b
 7636 1701 A4000000 		.4byte	.LBB91
 7637 1705 08000000 		.4byte	.LBE91-.LBB91
 7638 1709 01       		.byte	0x1
 7639 170a DE       		.byte	0xde
 7640 170b 2C170000 		.4byte	0x172c
 7641 170f 39       		.uleb128 0x39
 7642 1710 68130000 		.4byte	0x1368
 7643 1714 AC030000 		.4byte	.LLST18
 7644 1718 33       		.uleb128 0x33
 7645 1719 AA000000 		.4byte	.LVL50
 7646 171d 40380000 		.4byte	0x3840
 7647 1721 31       		.uleb128 0x31
 7648 1722 01       		.uleb128 0x1
 7649 1723 50       		.byte	0x50
 7650 1724 05       		.uleb128 0x5
 7651 1725 03       		.byte	0x3
 7652 1726 28000000 		.4byte	.LC1
 7653 172a 00       		.byte	0
ARM GAS  C:\Users\jo\AppData\Local\Temp\ccLDsGlj.s 			page 138


 7654 172b 00       		.byte	0
 7655 172c 3D       		.uleb128 0x3d
 7656 172d 5B130000 		.4byte	0x135b
 7657 1731 C0000000 		.4byte	.LBB93
 7658 1735 08000000 		.4byte	.LBE93-.LBB93
 7659 1739 01       		.byte	0x1
 7660 173a DF       		.byte	0xdf
 7661 173b 5C170000 		.4byte	0x175c
 7662 173f 39       		.uleb128 0x39
 7663 1740 68130000 		.4byte	0x1368
 7664 1744 C4030000 		.4byte	.LLST19
 7665 1748 33       		.uleb128 0x33
 7666 1749 C6000000 		.4byte	.LVL55
 7667 174d 40380000 		.4byte	0x3840
 7668 1751 31       		.uleb128 0x31
 7669 1752 01       		.uleb128 0x1
 7670 1753 50       		.byte	0x50
 7671 1754 05       		.uleb128 0x5
 7672 1755 03       		.byte	0x3
 7673 1756 7C000000 		.4byte	.LC3
 7674 175a 00       		.byte	0
 7675 175b 00       		.byte	0
 7676 175c 30       		.uleb128 0x30
 7677 175d 2C000000 		.4byte	.LVL34
 7678 1761 FC150000 		.4byte	0x15fc
 7679 1765 8C170000 		.4byte	0x178c
 7680 1769 31       		.uleb128 0x31
 7681 176a 01       		.uleb128 0x1
 7682 176b 53       		.byte	0x53
 7683 176c 02       		.uleb128 0x2
 7684 176d 08       		.byte	0x8
 7685 176e E1       		.byte	0xe1
 7686 176f 31       		.uleb128 0x31
 7687 1770 01       		.uleb128 0x1
 7688 1771 52       		.byte	0x52
 7689 1772 05       		.uleb128 0x5
 7690 1773 03       		.byte	0x3
 7691 1774 9C000000 		.4byte	.LC4
 7692 1778 31       		.uleb128 0x31
 7693 1779 01       		.uleb128 0x1
 7694 177a 51       		.byte	0x51
 7695 177b 05       		.uleb128 0x5
 7696 177c 03       		.byte	0x3
 7697 177d 00000000 		.4byte	.LC0
 7698 1781 31       		.uleb128 0x31
 7699 1782 02       		.uleb128 0x2
 7700 1783 7D       		.byte	0x7d
 7701 1784 00       		.sleb128 0
 7702 1785 05       		.uleb128 0x5
 7703 1786 03       		.byte	0x3
 7704 1787 4C000000 		.4byte	.LC2
 7705 178b 00       		.byte	0
 7706 178c 30       		.uleb128 0x30
 7707 178d 3C000000 		.4byte	.LVL36
 7708 1791 5B370000 		.4byte	0x375b
 7709 1795 A0170000 		.4byte	0x17a0
 7710 1799 31       		.uleb128 0x31
ARM GAS  C:\Users\jo\AppData\Local\Temp\ccLDsGlj.s 			page 139


 7711 179a 01       		.uleb128 0x1
 7712 179b 50       		.byte	0x50
 7713 179c 02       		.uleb128 0x2
 7714 179d 78       		.byte	0x78
 7715 179e 00       		.sleb128 0
 7716 179f 00       		.byte	0
 7717 17a0 30       		.uleb128 0x30
 7718 17a1 4A000000 		.4byte	.LVL37
 7719 17a5 51380000 		.4byte	0x3851
 7720 17a9 B4170000 		.4byte	0x17b4
 7721 17ad 31       		.uleb128 0x31
 7722 17ae 01       		.uleb128 0x1
 7723 17af 50       		.byte	0x50
 7724 17b0 02       		.uleb128 0x2
 7725 17b1 77       		.byte	0x77
 7726 17b2 00       		.sleb128 0
 7727 17b3 00       		.byte	0
 7728 17b4 30       		.uleb128 0x30
 7729 17b5 50000000 		.4byte	.LVL38
 7730 17b9 35370000 		.4byte	0x3735
 7731 17bd C8170000 		.4byte	0x17c8
 7732 17c1 31       		.uleb128 0x31
 7733 17c2 01       		.uleb128 0x1
 7734 17c3 50       		.byte	0x50
 7735 17c4 02       		.uleb128 0x2
 7736 17c5 76       		.byte	0x76
 7737 17c6 00       		.sleb128 0
 7738 17c7 00       		.byte	0
 7739 17c8 30       		.uleb128 0x30
 7740 17c9 7A000000 		.4byte	.LVL42
 7741 17cd 15370000 		.4byte	0x3715
 7742 17d1 E2170000 		.4byte	0x17e2
 7743 17d5 31       		.uleb128 0x31
 7744 17d6 01       		.uleb128 0x1
 7745 17d7 51       		.byte	0x51
 7746 17d8 02       		.uleb128 0x2
 7747 17d9 76       		.byte	0x76
 7748 17da 00       		.sleb128 0
 7749 17db 31       		.uleb128 0x31
 7750 17dc 01       		.uleb128 0x1
 7751 17dd 50       		.byte	0x50
 7752 17de 02       		.uleb128 0x2
 7753 17df 78       		.byte	0x78
 7754 17e0 00       		.sleb128 0
 7755 17e1 00       		.byte	0
 7756 17e2 32       		.uleb128 0x32
 7757 17e3 8C000000 		.4byte	.LVL43
 7758 17e7 FE170000 		.4byte	0x17fe
 7759 17eb 31       		.uleb128 0x31
 7760 17ec 01       		.uleb128 0x1
 7761 17ed 52       		.byte	0x52
 7762 17ee 02       		.uleb128 0x2
 7763 17ef 77       		.byte	0x77
 7764 17f0 00       		.sleb128 0
 7765 17f1 31       		.uleb128 0x31
 7766 17f2 01       		.uleb128 0x1
 7767 17f3 51       		.byte	0x51
ARM GAS  C:\Users\jo\AppData\Local\Temp\ccLDsGlj.s 			page 140


 7768 17f4 02       		.uleb128 0x2
 7769 17f5 75       		.byte	0x75
 7770 17f6 00       		.sleb128 0
 7771 17f7 31       		.uleb128 0x31
 7772 17f8 01       		.uleb128 0x1
 7773 17f9 50       		.byte	0x50
 7774 17fa 02       		.uleb128 0x2
 7775 17fb 74       		.byte	0x74
 7776 17fc 00       		.sleb128 0
 7777 17fd 00       		.byte	0
 7778 17fe 30       		.uleb128 0x30
 7779 17ff A4000000 		.4byte	.LVL49
 7780 1803 FC150000 		.4byte	0x15fc
 7781 1807 2E180000 		.4byte	0x182e
 7782 180b 31       		.uleb128 0x31
 7783 180c 01       		.uleb128 0x1
 7784 180d 53       		.byte	0x53
 7785 180e 02       		.uleb128 0x2
 7786 180f 08       		.byte	0x8
 7787 1810 DE       		.byte	0xde
 7788 1811 31       		.uleb128 0x31
 7789 1812 01       		.uleb128 0x1
 7790 1813 52       		.byte	0x52
 7791 1814 05       		.uleb128 0x5
 7792 1815 03       		.byte	0x3
 7793 1816 28000000 		.4byte	.LC1
 7794 181a 31       		.uleb128 0x31
 7795 181b 01       		.uleb128 0x1
 7796 181c 51       		.byte	0x51
 7797 181d 05       		.uleb128 0x5
 7798 181e 03       		.byte	0x3
 7799 181f 00000000 		.4byte	.LC0
 7800 1823 31       		.uleb128 0x31
 7801 1824 02       		.uleb128 0x2
 7802 1825 7D       		.byte	0x7d
 7803 1826 00       		.sleb128 0
 7804 1827 05       		.uleb128 0x5
 7805 1828 03       		.byte	0x3
 7806 1829 4C000000 		.4byte	.LC2
 7807 182d 00       		.byte	0
 7808 182e 33       		.uleb128 0x33
 7809 182f C0000000 		.4byte	.LVL54
 7810 1833 FC150000 		.4byte	0x15fc
 7811 1837 31       		.uleb128 0x31
 7812 1838 01       		.uleb128 0x1
 7813 1839 53       		.byte	0x53
 7814 183a 02       		.uleb128 0x2
 7815 183b 08       		.byte	0x8
 7816 183c DF       		.byte	0xdf
 7817 183d 31       		.uleb128 0x31
 7818 183e 01       		.uleb128 0x1
 7819 183f 52       		.byte	0x52
 7820 1840 05       		.uleb128 0x5
 7821 1841 03       		.byte	0x3
 7822 1842 7C000000 		.4byte	.LC3
 7823 1846 31       		.uleb128 0x31
 7824 1847 01       		.uleb128 0x1
ARM GAS  C:\Users\jo\AppData\Local\Temp\ccLDsGlj.s 			page 141


 7825 1848 51       		.byte	0x51
 7826 1849 05       		.uleb128 0x5
 7827 184a 03       		.byte	0x3
 7828 184b 00000000 		.4byte	.LC0
 7829 184f 31       		.uleb128 0x31
 7830 1850 02       		.uleb128 0x2
 7831 1851 7D       		.byte	0x7d
 7832 1852 00       		.sleb128 0
 7833 1853 05       		.uleb128 0x5
 7834 1854 03       		.byte	0x3
 7835 1855 4C000000 		.4byte	.LC2
 7836 1859 00       		.byte	0
 7837 185a 00       		.byte	0
 7838 185b 34       		.uleb128 0x34
 7839 185c C70D0000 		.4byte	.LASF285
 7840 1860 01       		.byte	0x1
 7841 1861 EB02     		.2byte	0x2eb
 7842 1863 00000000 		.4byte	.LFB269
 7843 1867 04020000 		.4byte	.LFE269-.LFB269
 7844 186b 01       		.uleb128 0x1
 7845 186c 9C       		.byte	0x9c
 7846 186d 9A1C0000 		.4byte	0x1c9a
 7847 1871 35       		.uleb128 0x35
 7848 1872 B1050000 		.4byte	.LASF235
 7849 1876 01       		.byte	0x1
 7850 1877 EB02     		.2byte	0x2eb
 7851 1879 170B0000 		.4byte	0xb17
 7852 187d DC030000 		.4byte	.LLST20
 7853 1881 36       		.uleb128 0x36
 7854 1882 65727200 		.ascii	"err\000"
 7855 1886 01       		.byte	0x1
 7856 1887 ED02     		.2byte	0x2ed
 7857 1889 3C090000 		.4byte	0x93c
 7858 188d 5A040000 		.4byte	.LLST21
 7859 1891 3E       		.uleb128 0x3e
 7860 1892 FC0E0000 		.4byte	.LASF241
 7861 1896 01       		.byte	0x1
 7862 1897 EE02     		.2byte	0x2ee
 7863 1899 E1080000 		.4byte	0x8e1
 7864 189d 8F040000 		.4byte	.LLST22
 7865 18a1 3E       		.uleb128 0x3e
 7866 18a2 F8100000 		.4byte	.LASF286
 7867 18a6 01       		.byte	0x1
 7868 18a7 EE02     		.2byte	0x2ee
 7869 18a9 E1080000 		.4byte	0x8e1
 7870 18ad C4040000 		.4byte	.LLST23
 7871 18b1 3E       		.uleb128 0x3e
 7872 18b2 4B020000 		.4byte	.LASF287
 7873 18b6 01       		.byte	0x1
 7874 18b7 EE02     		.2byte	0x2ee
 7875 18b9 E1080000 		.4byte	0x8e1
 7876 18bd F8040000 		.4byte	.LLST24
 7877 18c1 3E       		.uleb128 0x3e
 7878 18c2 1F070000 		.4byte	.LASF288
 7879 18c6 01       		.byte	0x1
 7880 18c7 EE02     		.2byte	0x2ee
 7881 18c9 E1080000 		.4byte	0x8e1
ARM GAS  C:\Users\jo\AppData\Local\Temp\ccLDsGlj.s 			page 142


 7882 18cd 2C050000 		.4byte	.LLST25
 7883 18d1 3F       		.uleb128 0x3f
 7884 18d2 5B130000 		.4byte	0x135b
 7885 18d6 24000000 		.4byte	.LBB95
 7886 18da 06000000 		.4byte	.LBE95-.LBB95
 7887 18de 01       		.byte	0x1
 7888 18df F102     		.2byte	0x2f1
 7889 18e1 02190000 		.4byte	0x1902
 7890 18e5 39       		.uleb128 0x39
 7891 18e6 68130000 		.4byte	0x1368
 7892 18ea 60050000 		.4byte	.LLST26
 7893 18ee 33       		.uleb128 0x33
 7894 18ef 2A000000 		.4byte	.LVL60
 7895 18f3 40380000 		.4byte	0x3840
 7896 18f7 31       		.uleb128 0x31
 7897 18f8 01       		.uleb128 0x1
 7898 18f9 50       		.byte	0x50
 7899 18fa 05       		.uleb128 0x5
 7900 18fb 03       		.byte	0x3
 7901 18fc CC000000 		.4byte	.LC6
 7902 1900 00       		.byte	0
 7903 1901 00       		.byte	0
 7904 1902 3F       		.uleb128 0x3f
 7905 1903 5B130000 		.4byte	0x135b
 7906 1907 42000000 		.4byte	.LBB97
 7907 190b 06000000 		.4byte	.LBE97-.LBB97
 7908 190f 01       		.byte	0x1
 7909 1910 F202     		.2byte	0x2f2
 7910 1912 33190000 		.4byte	0x1933
 7911 1916 39       		.uleb128 0x39
 7912 1917 68130000 		.4byte	0x1368
 7913 191b 78050000 		.4byte	.LLST27
 7914 191f 33       		.uleb128 0x33
 7915 1920 48000000 		.4byte	.LVL62
 7916 1924 40380000 		.4byte	0x3840
 7917 1928 31       		.uleb128 0x31
 7918 1929 01       		.uleb128 0x1
 7919 192a 50       		.byte	0x50
 7920 192b 05       		.uleb128 0x5
 7921 192c 03       		.byte	0x3
 7922 192d EC000000 		.4byte	.LC7
 7923 1931 00       		.byte	0
 7924 1932 00       		.byte	0
 7925 1933 3F       		.uleb128 0x3f
 7926 1934 5B130000 		.4byte	0x135b
 7927 1938 70010000 		.4byte	.LBB99
 7928 193c 0A000000 		.4byte	.LBE99-.LBB99
 7929 1940 01       		.byte	0x1
 7930 1941 2D03     		.2byte	0x32d
 7931 1943 64190000 		.4byte	0x1964
 7932 1947 39       		.uleb128 0x39
 7933 1948 68130000 		.4byte	0x1368
 7934 194c 90050000 		.4byte	.LLST28
 7935 1950 33       		.uleb128 0x33
 7936 1951 76010000 		.4byte	.LVL91
 7937 1955 40380000 		.4byte	0x3840
 7938 1959 31       		.uleb128 0x31
ARM GAS  C:\Users\jo\AppData\Local\Temp\ccLDsGlj.s 			page 143


 7939 195a 01       		.uleb128 0x1
 7940 195b 50       		.byte	0x50
 7941 195c 05       		.uleb128 0x5
 7942 195d 03       		.byte	0x3
 7943 195e 40010000 		.4byte	.LC10
 7944 1962 00       		.byte	0
 7945 1963 00       		.byte	0
 7946 1964 3F       		.uleb128 0x3f
 7947 1965 5B130000 		.4byte	0x135b
 7948 1969 8C010000 		.4byte	.LBB101
 7949 196d 08000000 		.4byte	.LBE101-.LBB101
 7950 1971 01       		.byte	0x1
 7951 1972 F302     		.2byte	0x2f3
 7952 1974 95190000 		.4byte	0x1995
 7953 1978 39       		.uleb128 0x39
 7954 1979 68130000 		.4byte	0x1368
 7955 197d A8050000 		.4byte	.LLST29
 7956 1981 33       		.uleb128 0x33
 7957 1982 92010000 		.4byte	.LVL94
 7958 1986 40380000 		.4byte	0x3840
 7959 198a 31       		.uleb128 0x31
 7960 198b 01       		.uleb128 0x1
 7961 198c 50       		.byte	0x50
 7962 198d 05       		.uleb128 0x5
 7963 198e 03       		.byte	0x3
 7964 198f 10010000 		.4byte	.LC8
 7965 1993 00       		.byte	0
 7966 1994 00       		.byte	0
 7967 1995 3F       		.uleb128 0x3f
 7968 1996 5B130000 		.4byte	0x135b
 7969 199a A6010000 		.4byte	.LBB103
 7970 199e 0A000000 		.4byte	.LBE103-.LBB103
 7971 19a2 01       		.byte	0x1
 7972 19a3 F402     		.2byte	0x2f4
 7973 19a5 C6190000 		.4byte	0x19c6
 7974 19a9 39       		.uleb128 0x39
 7975 19aa 68130000 		.4byte	0x1368
 7976 19ae C0050000 		.4byte	.LLST30
 7977 19b2 33       		.uleb128 0x33
 7978 19b3 AC010000 		.4byte	.LVL97
 7979 19b7 40380000 		.4byte	0x3840
 7980 19bb 31       		.uleb128 0x31
 7981 19bc 01       		.uleb128 0x1
 7982 19bd 50       		.byte	0x50
 7983 19be 05       		.uleb128 0x5
 7984 19bf 03       		.byte	0x3
 7985 19c0 24010000 		.4byte	.LC9
 7986 19c4 00       		.byte	0
 7987 19c5 00       		.byte	0
 7988 19c6 3F       		.uleb128 0x3f
 7989 19c7 5B130000 		.4byte	0x135b
 7990 19cb C2010000 		.4byte	.LBB105
 7991 19cf 08000000 		.4byte	.LBE105-.LBB105
 7992 19d3 01       		.byte	0x1
 7993 19d4 F002     		.2byte	0x2f0
 7994 19d6 F7190000 		.4byte	0x19f7
 7995 19da 39       		.uleb128 0x39
ARM GAS  C:\Users\jo\AppData\Local\Temp\ccLDsGlj.s 			page 144


 7996 19db 68130000 		.4byte	0x1368
 7997 19df D8050000 		.4byte	.LLST31
 7998 19e3 33       		.uleb128 0x33
 7999 19e4 C8010000 		.4byte	.LVL101
 8000 19e8 40380000 		.4byte	0x3840
 8001 19ec 31       		.uleb128 0x31
 8002 19ed 01       		.uleb128 0x1
 8003 19ee 50       		.byte	0x50
 8004 19ef 05       		.uleb128 0x5
 8005 19f0 03       		.byte	0x3
 8006 19f1 BC000000 		.4byte	.LC5
 8007 19f5 00       		.byte	0
 8008 19f6 00       		.byte	0
 8009 19f7 30       		.uleb128 0x30
 8010 19f8 24000000 		.4byte	.LVL59
 8011 19fc FC150000 		.4byte	0x15fc
 8012 1a00 281A0000 		.4byte	0x1a28
 8013 1a04 31       		.uleb128 0x31
 8014 1a05 01       		.uleb128 0x1
 8015 1a06 53       		.byte	0x53
 8016 1a07 03       		.uleb128 0x3
 8017 1a08 0A       		.byte	0xa
 8018 1a09 F102     		.2byte	0x2f1
 8019 1a0b 31       		.uleb128 0x31
 8020 1a0c 01       		.uleb128 0x1
 8021 1a0d 52       		.byte	0x52
 8022 1a0e 05       		.uleb128 0x5
 8023 1a0f 03       		.byte	0x3
 8024 1a10 CC000000 		.4byte	.LC6
 8025 1a14 31       		.uleb128 0x31
 8026 1a15 01       		.uleb128 0x1
 8027 1a16 51       		.byte	0x51
 8028 1a17 05       		.uleb128 0x5
 8029 1a18 03       		.byte	0x3
 8030 1a19 00000000 		.4byte	.LC0
 8031 1a1d 31       		.uleb128 0x31
 8032 1a1e 02       		.uleb128 0x2
 8033 1a1f 7D       		.byte	0x7d
 8034 1a20 00       		.sleb128 0
 8035 1a21 05       		.uleb128 0x5
 8036 1a22 03       		.byte	0x3
 8037 1a23 4C000000 		.4byte	.LC2
 8038 1a27 00       		.byte	0
 8039 1a28 30       		.uleb128 0x30
 8040 1a29 42000000 		.4byte	.LVL61
 8041 1a2d FC150000 		.4byte	0x15fc
 8042 1a31 591A0000 		.4byte	0x1a59
 8043 1a35 31       		.uleb128 0x31
 8044 1a36 01       		.uleb128 0x1
 8045 1a37 53       		.byte	0x53
 8046 1a38 03       		.uleb128 0x3
 8047 1a39 0A       		.byte	0xa
 8048 1a3a F202     		.2byte	0x2f2
 8049 1a3c 31       		.uleb128 0x31
 8050 1a3d 01       		.uleb128 0x1
 8051 1a3e 52       		.byte	0x52
 8052 1a3f 05       		.uleb128 0x5
ARM GAS  C:\Users\jo\AppData\Local\Temp\ccLDsGlj.s 			page 145


 8053 1a40 03       		.byte	0x3
 8054 1a41 EC000000 		.4byte	.LC7
 8055 1a45 31       		.uleb128 0x31
 8056 1a46 01       		.uleb128 0x1
 8057 1a47 51       		.byte	0x51
 8058 1a48 05       		.uleb128 0x5
 8059 1a49 03       		.byte	0x3
 8060 1a4a 00000000 		.4byte	.LC0
 8061 1a4e 31       		.uleb128 0x31
 8062 1a4f 02       		.uleb128 0x2
 8063 1a50 7D       		.byte	0x7d
 8064 1a51 00       		.sleb128 0
 8065 1a52 05       		.uleb128 0x5
 8066 1a53 03       		.byte	0x3
 8067 1a54 4C000000 		.4byte	.LC2
 8068 1a58 00       		.byte	0
 8069 1a59 30       		.uleb128 0x30
 8070 1a5a 90000000 		.4byte	.LVL66
 8071 1a5e 68380000 		.4byte	0x3868
 8072 1a62 731A0000 		.4byte	0x1a73
 8073 1a66 31       		.uleb128 0x31
 8074 1a67 01       		.uleb128 0x1
 8075 1a68 52       		.byte	0x52
 8076 1a69 02       		.uleb128 0x2
 8077 1a6a 76       		.byte	0x76
 8078 1a6b 00       		.sleb128 0
 8079 1a6c 31       		.uleb128 0x31
 8080 1a6d 01       		.uleb128 0x1
 8081 1a6e 51       		.byte	0x51
 8082 1a6f 02       		.uleb128 0x2
 8083 1a70 75       		.byte	0x75
 8084 1a71 00       		.sleb128 0
 8085 1a72 00       		.byte	0
 8086 1a73 32       		.uleb128 0x32
 8087 1a74 A8000000 		.4byte	.LVL68
 8088 1a78 8D1A0000 		.4byte	0x1a8d
 8089 1a7c 31       		.uleb128 0x31
 8090 1a7d 01       		.uleb128 0x1
 8091 1a7e 52       		.byte	0x52
 8092 1a7f 01       		.uleb128 0x1
 8093 1a80 30       		.byte	0x30
 8094 1a81 31       		.uleb128 0x31
 8095 1a82 01       		.uleb128 0x1
 8096 1a83 51       		.byte	0x51
 8097 1a84 01       		.uleb128 0x1
 8098 1a85 30       		.byte	0x30
 8099 1a86 31       		.uleb128 0x31
 8100 1a87 01       		.uleb128 0x1
 8101 1a88 50       		.byte	0x50
 8102 1a89 02       		.uleb128 0x2
 8103 1a8a 74       		.byte	0x74
 8104 1a8b 00       		.sleb128 0
 8105 1a8c 00       		.byte	0
 8106 1a8d 32       		.uleb128 0x32
 8107 1a8e B6000000 		.4byte	.LVL69
 8108 1a92 A71A0000 		.4byte	0x1aa7
 8109 1a96 31       		.uleb128 0x31
ARM GAS  C:\Users\jo\AppData\Local\Temp\ccLDsGlj.s 			page 146


 8110 1a97 01       		.uleb128 0x1
 8111 1a98 52       		.byte	0x52
 8112 1a99 01       		.uleb128 0x1
 8113 1a9a 30       		.byte	0x30
 8114 1a9b 31       		.uleb128 0x31
 8115 1a9c 01       		.uleb128 0x1
 8116 1a9d 51       		.byte	0x51
 8117 1a9e 01       		.uleb128 0x1
 8118 1a9f 32       		.byte	0x32
 8119 1aa0 31       		.uleb128 0x31
 8120 1aa1 01       		.uleb128 0x1
 8121 1aa2 50       		.byte	0x50
 8122 1aa3 02       		.uleb128 0x2
 8123 1aa4 74       		.byte	0x74
 8124 1aa5 00       		.sleb128 0
 8125 1aa6 00       		.byte	0
 8126 1aa7 40       		.uleb128 0x40
 8127 1aa8 C4000000 		.4byte	.LVL71
 8128 1aac 88380000 		.4byte	0x3888
 8129 1ab0 BE1A0000 		.4byte	0x1abe
 8130 1ab4 31       		.uleb128 0x31
 8131 1ab5 01       		.uleb128 0x1
 8132 1ab6 50       		.byte	0x50
 8133 1ab7 05       		.uleb128 0x5
 8134 1ab8 F3       		.byte	0xf3
 8135 1ab9 01       		.uleb128 0x1
 8136 1aba 50       		.byte	0x50
 8137 1abb 23       		.byte	0x23
 8138 1abc 0C       		.uleb128 0xc
 8139 1abd 00       		.byte	0
 8140 1abe 30       		.uleb128 0x30
 8141 1abf D2000000 		.4byte	.LVL73
 8142 1ac3 D7370000 		.4byte	0x37d7
 8143 1ac7 D51A0000 		.4byte	0x1ad5
 8144 1acb 31       		.uleb128 0x31
 8145 1acc 01       		.uleb128 0x1
 8146 1acd 51       		.byte	0x51
 8147 1ace 05       		.uleb128 0x5
 8148 1acf 03       		.byte	0x3
 8149 1ad0 00000000 		.4byte	sent_tcp
 8150 1ad4 00       		.byte	0
 8151 1ad5 30       		.uleb128 0x30
 8152 1ad6 DC000000 		.4byte	.LVL74
 8153 1ada EE370000 		.4byte	0x37ee
 8154 1ade F11A0000 		.4byte	0x1af1
 8155 1ae2 31       		.uleb128 0x31
 8156 1ae3 01       		.uleb128 0x1
 8157 1ae4 52       		.byte	0x52
 8158 1ae5 01       		.uleb128 0x1
 8159 1ae6 34       		.byte	0x34
 8160 1ae7 31       		.uleb128 0x31
 8161 1ae8 01       		.uleb128 0x1
 8162 1ae9 51       		.byte	0x51
 8163 1aea 05       		.uleb128 0x5
 8164 1aeb 03       		.byte	0x3
 8165 1aec 00000000 		.4byte	poll_tcp
 8166 1af0 00       		.byte	0
ARM GAS  C:\Users\jo\AppData\Local\Temp\ccLDsGlj.s 			page 147


 8167 1af1 30       		.uleb128 0x30
 8168 1af2 E4000000 		.4byte	.LVL75
 8169 1af6 0A380000 		.4byte	0x380a
 8170 1afa 081B0000 		.4byte	0x1b08
 8171 1afe 31       		.uleb128 0x31
 8172 1aff 01       		.uleb128 0x1
 8173 1b00 51       		.byte	0x51
 8174 1b01 05       		.uleb128 0x5
 8175 1b02 03       		.byte	0x3
 8176 1b03 00000000 		.4byte	err_tcp
 8177 1b07 00       		.byte	0
 8178 1b08 40       		.uleb128 0x40
 8179 1b09 F2000000 		.4byte	.LVL77
 8180 1b0d A9370000 		.4byte	0x37a9
 8181 1b11 1D1B0000 		.4byte	0x1b1d
 8182 1b15 31       		.uleb128 0x31
 8183 1b16 01       		.uleb128 0x1
 8184 1b17 51       		.byte	0x51
 8185 1b18 03       		.uleb128 0x3
 8186 1b19 F3       		.byte	0xf3
 8187 1b1a 01       		.uleb128 0x1
 8188 1b1b 50       		.byte	0x50
 8189 1b1c 00       		.byte	0
 8190 1b1d 30       		.uleb128 0x30
 8191 1b1e F8000000 		.4byte	.LVL78
 8192 1b22 D7370000 		.4byte	0x37d7
 8193 1b26 301B0000 		.4byte	0x1b30
 8194 1b2a 31       		.uleb128 0x31
 8195 1b2b 01       		.uleb128 0x1
 8196 1b2c 51       		.byte	0x51
 8197 1b2d 01       		.uleb128 0x1
 8198 1b2e 30       		.byte	0x30
 8199 1b2f 00       		.byte	0
 8200 1b30 30       		.uleb128 0x30
 8201 1b31 06010000 		.4byte	.LVL79
 8202 1b35 EE370000 		.4byte	0x37ee
 8203 1b39 481B0000 		.4byte	0x1b48
 8204 1b3d 31       		.uleb128 0x31
 8205 1b3e 01       		.uleb128 0x1
 8206 1b3f 52       		.byte	0x52
 8207 1b40 01       		.uleb128 0x1
 8208 1b41 34       		.byte	0x34
 8209 1b42 31       		.uleb128 0x31
 8210 1b43 01       		.uleb128 0x1
 8211 1b44 51       		.byte	0x51
 8212 1b45 01       		.uleb128 0x1
 8213 1b46 30       		.byte	0x30
 8214 1b47 00       		.byte	0
 8215 1b48 30       		.uleb128 0x30
 8216 1b49 0E010000 		.4byte	.LVL80
 8217 1b4d 0A380000 		.4byte	0x380a
 8218 1b51 5B1B0000 		.4byte	0x1b5b
 8219 1b55 31       		.uleb128 0x31
 8220 1b56 01       		.uleb128 0x1
 8221 1b57 51       		.byte	0x51
 8222 1b58 01       		.uleb128 0x1
 8223 1b59 30       		.byte	0x30
ARM GAS  C:\Users\jo\AppData\Local\Temp\ccLDsGlj.s 			page 148


 8224 1b5a 00       		.byte	0
 8225 1b5b 41       		.uleb128 0x41
 8226 1b5c 14010000 		.4byte	.LVL81
 8227 1b60 99380000 		.4byte	0x3899
 8228 1b64 32       		.uleb128 0x32
 8229 1b65 30010000 		.4byte	.LVL83
 8230 1b69 791B0000 		.4byte	0x1b79
 8231 1b6d 31       		.uleb128 0x31
 8232 1b6e 01       		.uleb128 0x1
 8233 1b6f 51       		.byte	0x51
 8234 1b70 01       		.uleb128 0x1
 8235 1b71 34       		.byte	0x34
 8236 1b72 31       		.uleb128 0x31
 8237 1b73 01       		.uleb128 0x1
 8238 1b74 50       		.byte	0x50
 8239 1b75 02       		.uleb128 0x2
 8240 1b76 74       		.byte	0x74
 8241 1b77 00       		.sleb128 0
 8242 1b78 00       		.byte	0
 8243 1b79 30       		.uleb128 0x30
 8244 1b7a 38010000 		.4byte	.LVL84
 8245 1b7e C0370000 		.4byte	0x37c0
 8246 1b82 8C1B0000 		.4byte	0x1b8c
 8247 1b86 31       		.uleb128 0x31
 8248 1b87 01       		.uleb128 0x1
 8249 1b88 51       		.byte	0x51
 8250 1b89 01       		.uleb128 0x1
 8251 1b8a 30       		.byte	0x30
 8252 1b8b 00       		.byte	0
 8253 1b8c 30       		.uleb128 0x30
 8254 1b8d 40010000 		.4byte	.LVL85
 8255 1b91 AF380000 		.4byte	0x38af
 8256 1b95 9F1B0000 		.4byte	0x1b9f
 8257 1b99 31       		.uleb128 0x31
 8258 1b9a 01       		.uleb128 0x1
 8259 1b9b 51       		.byte	0x51
 8260 1b9c 01       		.uleb128 0x1
 8261 1b9d 30       		.byte	0x30
 8262 1b9e 00       		.byte	0
 8263 1b9f 30       		.uleb128 0x30
 8264 1ba0 4E010000 		.4byte	.LVL88
 8265 1ba4 A9370000 		.4byte	0x37a9
 8266 1ba8 B21B0000 		.4byte	0x1bb2
 8267 1bac 31       		.uleb128 0x31
 8268 1bad 01       		.uleb128 0x1
 8269 1bae 51       		.byte	0x51
 8270 1baf 01       		.uleb128 0x1
 8271 1bb0 30       		.byte	0x30
 8272 1bb1 00       		.byte	0
 8273 1bb2 30       		.uleb128 0x30
 8274 1bb3 5C010000 		.4byte	.LVL89
 8275 1bb7 AF380000 		.4byte	0x38af
 8276 1bbb C51B0000 		.4byte	0x1bc5
 8277 1bbf 31       		.uleb128 0x31
 8278 1bc0 01       		.uleb128 0x1
 8279 1bc1 51       		.byte	0x51
 8280 1bc2 01       		.uleb128 0x1
ARM GAS  C:\Users\jo\AppData\Local\Temp\ccLDsGlj.s 			page 149


 8281 1bc3 30       		.byte	0x30
 8282 1bc4 00       		.byte	0
 8283 1bc5 30       		.uleb128 0x30
 8284 1bc6 70010000 		.4byte	.LVL90
 8285 1bca FC150000 		.4byte	0x15fc
 8286 1bce F61B0000 		.4byte	0x1bf6
 8287 1bd2 31       		.uleb128 0x31
 8288 1bd3 01       		.uleb128 0x1
 8289 1bd4 53       		.byte	0x53
 8290 1bd5 03       		.uleb128 0x3
 8291 1bd6 0A       		.byte	0xa
 8292 1bd7 2D03     		.2byte	0x32d
 8293 1bd9 31       		.uleb128 0x31
 8294 1bda 01       		.uleb128 0x1
 8295 1bdb 52       		.byte	0x52
 8296 1bdc 05       		.uleb128 0x5
 8297 1bdd 03       		.byte	0x3
 8298 1bde 40010000 		.4byte	.LC10
 8299 1be2 31       		.uleb128 0x31
 8300 1be3 01       		.uleb128 0x1
 8301 1be4 51       		.byte	0x51
 8302 1be5 05       		.uleb128 0x5
 8303 1be6 03       		.byte	0x3
 8304 1be7 00000000 		.4byte	.LC0
 8305 1beb 31       		.uleb128 0x31
 8306 1bec 02       		.uleb128 0x2
 8307 1bed 7D       		.byte	0x7d
 8308 1bee 00       		.sleb128 0
 8309 1bef 05       		.uleb128 0x5
 8310 1bf0 03       		.byte	0x3
 8311 1bf1 4C000000 		.4byte	.LC2
 8312 1bf5 00       		.byte	0
 8313 1bf6 30       		.uleb128 0x30
 8314 1bf7 8C010000 		.4byte	.LVL93
 8315 1bfb FC150000 		.4byte	0x15fc
 8316 1bff 271C0000 		.4byte	0x1c27
 8317 1c03 31       		.uleb128 0x31
 8318 1c04 01       		.uleb128 0x1
 8319 1c05 53       		.byte	0x53
 8320 1c06 03       		.uleb128 0x3
 8321 1c07 0A       		.byte	0xa
 8322 1c08 F302     		.2byte	0x2f3
 8323 1c0a 31       		.uleb128 0x31
 8324 1c0b 01       		.uleb128 0x1
 8325 1c0c 52       		.byte	0x52
 8326 1c0d 05       		.uleb128 0x5
 8327 1c0e 03       		.byte	0x3
 8328 1c0f 10010000 		.4byte	.LC8
 8329 1c13 31       		.uleb128 0x31
 8330 1c14 01       		.uleb128 0x1
 8331 1c15 51       		.byte	0x51
 8332 1c16 05       		.uleb128 0x5
 8333 1c17 03       		.byte	0x3
 8334 1c18 00000000 		.4byte	.LC0
 8335 1c1c 31       		.uleb128 0x31
 8336 1c1d 02       		.uleb128 0x2
 8337 1c1e 7D       		.byte	0x7d
ARM GAS  C:\Users\jo\AppData\Local\Temp\ccLDsGlj.s 			page 150


 8338 1c1f 00       		.sleb128 0
 8339 1c20 05       		.uleb128 0x5
 8340 1c21 03       		.byte	0x3
 8341 1c22 4C000000 		.4byte	.LC2
 8342 1c26 00       		.byte	0
 8343 1c27 30       		.uleb128 0x30
 8344 1c28 A6010000 		.4byte	.LVL96
 8345 1c2c FC150000 		.4byte	0x15fc
 8346 1c30 581C0000 		.4byte	0x1c58
 8347 1c34 31       		.uleb128 0x31
 8348 1c35 01       		.uleb128 0x1
 8349 1c36 53       		.byte	0x53
 8350 1c37 03       		.uleb128 0x3
 8351 1c38 0A       		.byte	0xa
 8352 1c39 F402     		.2byte	0x2f4
 8353 1c3b 31       		.uleb128 0x31
 8354 1c3c 01       		.uleb128 0x1
 8355 1c3d 52       		.byte	0x52
 8356 1c3e 05       		.uleb128 0x5
 8357 1c3f 03       		.byte	0x3
 8358 1c40 24010000 		.4byte	.LC9
 8359 1c44 31       		.uleb128 0x31
 8360 1c45 01       		.uleb128 0x1
 8361 1c46 51       		.byte	0x51
 8362 1c47 05       		.uleb128 0x5
 8363 1c48 03       		.byte	0x3
 8364 1c49 00000000 		.4byte	.LC0
 8365 1c4d 31       		.uleb128 0x31
 8366 1c4e 02       		.uleb128 0x2
 8367 1c4f 7D       		.byte	0x7d
 8368 1c50 00       		.sleb128 0
 8369 1c51 05       		.uleb128 0x5
 8370 1c52 03       		.byte	0x3
 8371 1c53 4C000000 		.4byte	.LC2
 8372 1c57 00       		.byte	0
 8373 1c58 30       		.uleb128 0x30
 8374 1c59 C2010000 		.4byte	.LVL100
 8375 1c5d FC150000 		.4byte	0x15fc
 8376 1c61 891C0000 		.4byte	0x1c89
 8377 1c65 31       		.uleb128 0x31
 8378 1c66 01       		.uleb128 0x1
 8379 1c67 53       		.byte	0x53
 8380 1c68 03       		.uleb128 0x3
 8381 1c69 0A       		.byte	0xa
 8382 1c6a F002     		.2byte	0x2f0
 8383 1c6c 31       		.uleb128 0x31
 8384 1c6d 01       		.uleb128 0x1
 8385 1c6e 52       		.byte	0x52
 8386 1c6f 05       		.uleb128 0x5
 8387 1c70 03       		.byte	0x3
 8388 1c71 BC000000 		.4byte	.LC5
 8389 1c75 31       		.uleb128 0x31
 8390 1c76 01       		.uleb128 0x1
 8391 1c77 51       		.byte	0x51
 8392 1c78 05       		.uleb128 0x5
 8393 1c79 03       		.byte	0x3
 8394 1c7a 00000000 		.4byte	.LC0
ARM GAS  C:\Users\jo\AppData\Local\Temp\ccLDsGlj.s 			page 151


 8395 1c7e 31       		.uleb128 0x31
 8396 1c7f 02       		.uleb128 0x2
 8397 1c80 7D       		.byte	0x7d
 8398 1c81 00       		.sleb128 0
 8399 1c82 05       		.uleb128 0x5
 8400 1c83 03       		.byte	0x3
 8401 1c84 4C000000 		.4byte	.LC2
 8402 1c88 00       		.byte	0
 8403 1c89 33       		.uleb128 0x33
 8404 1c8a D0010000 		.4byte	.LVL104
 8405 1c8e AF380000 		.4byte	0x38af
 8406 1c92 31       		.uleb128 0x31
 8407 1c93 01       		.uleb128 0x1
 8408 1c94 51       		.byte	0x51
 8409 1c95 02       		.uleb128 0x2
 8410 1c96 77       		.byte	0x77
 8411 1c97 00       		.sleb128 0
 8412 1c98 00       		.byte	0
 8413 1c99 00       		.byte	0
 8414 1c9a 42       		.uleb128 0x42
 8415 1c9b B6050000 		.4byte	.LASF289
 8416 1c9f 01       		.byte	0x1
 8417 1ca0 B804     		.2byte	0x4b8
 8418 1ca2 3C090000 		.4byte	0x93c
 8419 1ca6 00000000 		.4byte	.LFB278
 8420 1caa 00020000 		.4byte	.LFE278-.LFB278
 8421 1cae 01       		.uleb128 0x1
 8422 1caf 9C       		.byte	0x9c
 8423 1cb0 C41F0000 		.4byte	0x1fc4
 8424 1cb4 35       		.uleb128 0x35
 8425 1cb5 B1050000 		.4byte	.LASF235
 8426 1cb9 01       		.byte	0x1
 8427 1cba B804     		.2byte	0x4b8
 8428 1cbc 170B0000 		.4byte	0xb17
 8429 1cc0 F0050000 		.4byte	.LLST32
 8430 1cc4 36       		.uleb128 0x36
 8431 1cc5 65727200 		.ascii	"err\000"
 8432 1cc9 01       		.byte	0x1
 8433 1cca BA04     		.2byte	0x4ba
 8434 1ccc 3C090000 		.4byte	0x93c
 8435 1cd0 0E060000 		.4byte	.LLST33
 8436 1cd4 3E       		.uleb128 0x3e
 8437 1cd5 090A0000 		.4byte	.LASF239
 8438 1cd9 01       		.byte	0x1
 8439 1cda BB04     		.2byte	0x4bb
 8440 1cdc 47030000 		.4byte	0x347
 8441 1ce0 5C060000 		.4byte	.LLST34
 8442 1ce4 36       		.uleb128 0x36
 8443 1ce5 6C656E00 		.ascii	"len\000"
 8444 1ce9 01       		.byte	0x1
 8445 1cea BC04     		.2byte	0x4bc
 8446 1cec F7080000 		.4byte	0x8f7
 8447 1cf0 90060000 		.4byte	.LLST35
 8448 1cf4 3E       		.uleb128 0x3e
 8449 1cf5 1C0B0000 		.4byte	.LASF290
 8450 1cf9 01       		.byte	0x1
 8451 1cfa BC04     		.2byte	0x4bc
ARM GAS  C:\Users\jo\AppData\Local\Temp\ccLDsGlj.s 			page 152


 8452 1cfc F7080000 		.4byte	0x8f7
 8453 1d00 08070000 		.4byte	.LLST36
 8454 1d04 3E       		.uleb128 0x3e
 8455 1d05 2F080000 		.4byte	.LASF291
 8456 1d09 01       		.byte	0x1
 8457 1d0a BD04     		.2byte	0x4bd
 8458 1d0c E1080000 		.4byte	0x8e1
 8459 1d10 52070000 		.4byte	.LLST37
 8460 1d14 43       		.uleb128 0x43
 8461 1d15 480B0000 		.4byte	.LASF292
 8462 1d19 01       		.byte	0x1
 8463 1d1a BE04     		.2byte	0x4be
 8464 1d1c 2C000000 		.4byte	0x2c
 8465 1d20 01       		.uleb128 0x1
 8466 1d21 55       		.byte	0x55
 8467 1d22 43       		.uleb128 0x43
 8468 1d23 10060000 		.4byte	.LASF293
 8469 1d27 01       		.byte	0x1
 8470 1d28 BF04     		.2byte	0x4bf
 8471 1d2a E1080000 		.4byte	0x8e1
 8472 1d2e 01       		.uleb128 0x1
 8473 1d2f 58       		.byte	0x58
 8474 1d30 3E       		.uleb128 0x3e
 8475 1d31 0B0E0000 		.4byte	.LASF240
 8476 1d35 01       		.byte	0x1
 8477 1d36 C104     		.2byte	0x4c1
 8478 1d38 E1080000 		.4byte	0x8e1
 8479 1d3c 96070000 		.4byte	.LLST38
 8480 1d40 44       		.uleb128 0x44
 8481 1d41 370F0000 		.4byte	.LASF304
 8482 1d45 01       		.byte	0x1
 8483 1d46 F904     		.2byte	0x4f9
 8484 1d48 3E010000 		.4byte	.L129
 8485 1d4c 3F       		.uleb128 0x3f
 8486 1d4d 5B130000 		.4byte	0x135b
 8487 1d51 38000000 		.4byte	.LBB107
 8488 1d55 06000000 		.4byte	.LBE107-.LBB107
 8489 1d59 01       		.byte	0x1
 8490 1d5a C404     		.2byte	0x4c4
 8491 1d5c 7D1D0000 		.4byte	0x1d7d
 8492 1d60 39       		.uleb128 0x39
 8493 1d61 68130000 		.4byte	0x1368
 8494 1d65 E0070000 		.4byte	.LLST39
 8495 1d69 33       		.uleb128 0x33
 8496 1d6a 3E000000 		.4byte	.LVL109
 8497 1d6e 40380000 		.4byte	0x3840
 8498 1d72 31       		.uleb128 0x31
 8499 1d73 01       		.uleb128 0x1
 8500 1d74 50       		.byte	0x50
 8501 1d75 05       		.uleb128 0x5
 8502 1d76 03       		.byte	0x3
 8503 1d77 64010000 		.4byte	.LC11
 8504 1d7b 00       		.byte	0
 8505 1d7c 00       		.byte	0
 8506 1d7d 3F       		.uleb128 0x3f
 8507 1d7e 5B130000 		.4byte	0x135b
 8508 1d82 14010000 		.4byte	.LBB109
ARM GAS  C:\Users\jo\AppData\Local\Temp\ccLDsGlj.s 			page 153


 8509 1d86 0E000000 		.4byte	.LBE109-.LBB109
 8510 1d8a 01       		.byte	0x1
 8511 1d8b C704     		.2byte	0x4c7
 8512 1d8d AE1D0000 		.4byte	0x1dae
 8513 1d91 39       		.uleb128 0x39
 8514 1d92 68130000 		.4byte	0x1368
 8515 1d96 08080000 		.4byte	.LLST40
 8516 1d9a 33       		.uleb128 0x33
 8517 1d9b 1A010000 		.4byte	.LVL129
 8518 1d9f 40380000 		.4byte	0x3840
 8519 1da3 31       		.uleb128 0x31
 8520 1da4 01       		.uleb128 0x1
 8521 1da5 50       		.byte	0x50
 8522 1da6 05       		.uleb128 0x5
 8523 1da7 03       		.byte	0x3
 8524 1da8 9C010000 		.4byte	.LC13
 8525 1dac 00       		.byte	0
 8526 1dad 00       		.byte	0
 8527 1dae 3F       		.uleb128 0x3f
 8528 1daf 5B130000 		.4byte	0x135b
 8529 1db3 34010000 		.4byte	.LBB111
 8530 1db7 0A000000 		.4byte	.LBE111-.LBB111
 8531 1dbb 01       		.byte	0x1
 8532 1dbc F504     		.2byte	0x4f5
 8533 1dbe DF1D0000 		.4byte	0x1ddf
 8534 1dc2 39       		.uleb128 0x39
 8535 1dc3 68130000 		.4byte	0x1368
 8536 1dc7 20080000 		.4byte	.LLST41
 8537 1dcb 33       		.uleb128 0x33
 8538 1dcc 3A010000 		.4byte	.LVL132
 8539 1dd0 40380000 		.4byte	0x3840
 8540 1dd4 31       		.uleb128 0x31
 8541 1dd5 01       		.uleb128 0x1
 8542 1dd6 50       		.byte	0x50
 8543 1dd7 05       		.uleb128 0x5
 8544 1dd8 03       		.byte	0x3
 8545 1dd9 D0010000 		.4byte	.LC14
 8546 1ddd 00       		.byte	0
 8547 1dde 00       		.byte	0
 8548 1ddf 3F       		.uleb128 0x3f
 8549 1de0 5B130000 		.4byte	0x135b
 8550 1de4 96010000 		.4byte	.LBB113
 8551 1de8 0A000000 		.4byte	.LBE113-.LBB113
 8552 1dec 01       		.byte	0x1
 8553 1ded C504     		.2byte	0x4c5
 8554 1def 101E0000 		.4byte	0x1e10
 8555 1df3 39       		.uleb128 0x39
 8556 1df4 68130000 		.4byte	0x1368
 8557 1df8 38080000 		.4byte	.LLST42
 8558 1dfc 33       		.uleb128 0x33
 8559 1dfd 9C010000 		.4byte	.LVL140
 8560 1e01 40380000 		.4byte	0x3840
 8561 1e05 31       		.uleb128 0x31
 8562 1e06 01       		.uleb128 0x1
 8563 1e07 50       		.byte	0x50
 8564 1e08 05       		.uleb128 0x5
 8565 1e09 03       		.byte	0x3
ARM GAS  C:\Users\jo\AppData\Local\Temp\ccLDsGlj.s 			page 154


 8566 1e0a 24010000 		.4byte	.LC9
 8567 1e0e 00       		.byte	0
 8568 1e0f 00       		.byte	0
 8569 1e10 3F       		.uleb128 0x3f
 8570 1e11 5B130000 		.4byte	0x135b
 8571 1e15 BC010000 		.4byte	.LBB115
 8572 1e19 08000000 		.4byte	.LBE115-.LBB115
 8573 1e1d 01       		.byte	0x1
 8574 1e1e C604     		.2byte	0x4c6
 8575 1e20 411E0000 		.4byte	0x1e41
 8576 1e24 39       		.uleb128 0x39
 8577 1e25 68130000 		.4byte	0x1368
 8578 1e29 50080000 		.4byte	.LLST43
 8579 1e2d 33       		.uleb128 0x33
 8580 1e2e C2010000 		.4byte	.LVL145
 8581 1e32 40380000 		.4byte	0x3840
 8582 1e36 31       		.uleb128 0x31
 8583 1e37 01       		.uleb128 0x1
 8584 1e38 50       		.byte	0x50
 8585 1e39 05       		.uleb128 0x5
 8586 1e3a 03       		.byte	0x3
 8587 1e3b 84010000 		.4byte	.LC12
 8588 1e3f 00       		.byte	0
 8589 1e40 00       		.byte	0
 8590 1e41 30       		.uleb128 0x30
 8591 1e42 38000000 		.4byte	.LVL108
 8592 1e46 FC150000 		.4byte	0x15fc
 8593 1e4a 6F1E0000 		.4byte	0x1e6f
 8594 1e4e 31       		.uleb128 0x31
 8595 1e4f 01       		.uleb128 0x1
 8596 1e50 53       		.byte	0x53
 8597 1e51 03       		.uleb128 0x3
 8598 1e52 0A       		.byte	0xa
 8599 1e53 C404     		.2byte	0x4c4
 8600 1e55 31       		.uleb128 0x31
 8601 1e56 01       		.uleb128 0x1
 8602 1e57 52       		.byte	0x52
 8603 1e58 05       		.uleb128 0x5
 8604 1e59 03       		.byte	0x3
 8605 1e5a 64010000 		.4byte	.LC11
 8606 1e5e 31       		.uleb128 0x31
 8607 1e5f 01       		.uleb128 0x1
 8608 1e60 51       		.byte	0x51
 8609 1e61 05       		.uleb128 0x5
 8610 1e62 03       		.byte	0x3
 8611 1e63 00000000 		.4byte	.LC0
 8612 1e67 31       		.uleb128 0x31
 8613 1e68 02       		.uleb128 0x2
 8614 1e69 7D       		.byte	0x7d
 8615 1e6a 00       		.sleb128 0
 8616 1e6b 02       		.uleb128 0x2
 8617 1e6c 75       		.byte	0x75
 8618 1e6d 00       		.sleb128 0
 8619 1e6e 00       		.byte	0
 8620 1e6f 32       		.uleb128 0x32
 8621 1e70 9C000000 		.4byte	.LVL116
 8622 1e74 8A1E0000 		.4byte	0x1e8a
ARM GAS  C:\Users\jo\AppData\Local\Temp\ccLDsGlj.s 			page 155


 8623 1e78 31       		.uleb128 0x31
 8624 1e79 01       		.uleb128 0x1
 8625 1e7a 52       		.byte	0x52
 8626 1e7b 02       		.uleb128 0x2
 8627 1e7c 75       		.byte	0x75
 8628 1e7d 00       		.sleb128 0
 8629 1e7e 31       		.uleb128 0x31
 8630 1e7f 01       		.uleb128 0x1
 8631 1e80 51       		.byte	0x51
 8632 1e81 01       		.uleb128 0x1
 8633 1e82 33       		.byte	0x33
 8634 1e83 31       		.uleb128 0x31
 8635 1e84 01       		.uleb128 0x1
 8636 1e85 50       		.byte	0x50
 8637 1e86 02       		.uleb128 0x2
 8638 1e87 74       		.byte	0x74
 8639 1e88 00       		.sleb128 0
 8640 1e89 00       		.byte	0
 8641 1e8a 41       		.uleb128 0x41
 8642 1e8b C0000000 		.4byte	.LVL119
 8643 1e8f C6380000 		.4byte	0x38c6
 8644 1e93 30       		.uleb128 0x30
 8645 1e94 D2000000 		.4byte	.LVL120
 8646 1e98 88380000 		.4byte	0x3888
 8647 1e9c A71E0000 		.4byte	0x1ea7
 8648 1ea0 31       		.uleb128 0x31
 8649 1ea1 01       		.uleb128 0x1
 8650 1ea2 50       		.byte	0x50
 8651 1ea3 02       		.uleb128 0x2
 8652 1ea4 74       		.byte	0x74
 8653 1ea5 0C       		.sleb128 12
 8654 1ea6 00       		.byte	0
 8655 1ea7 30       		.uleb128 0x30
 8656 1ea8 F0000000 		.4byte	.LVL124
 8657 1eac DC380000 		.4byte	0x38dc
 8658 1eb0 C71E0000 		.4byte	0x1ec7
 8659 1eb4 31       		.uleb128 0x31
 8660 1eb5 01       		.uleb128 0x1
 8661 1eb6 53       		.byte	0x53
 8662 1eb7 02       		.uleb128 0x2
 8663 1eb8 76       		.byte	0x76
 8664 1eb9 00       		.sleb128 0
 8665 1eba 31       		.uleb128 0x31
 8666 1ebb 01       		.uleb128 0x1
 8667 1ebc 52       		.byte	0x52
 8668 1ebd 02       		.uleb128 0x2
 8669 1ebe 75       		.byte	0x75
 8670 1ebf 00       		.sleb128 0
 8671 1ec0 31       		.uleb128 0x31
 8672 1ec1 01       		.uleb128 0x1
 8673 1ec2 51       		.byte	0x51
 8674 1ec3 02       		.uleb128 0x2
 8675 1ec4 77       		.byte	0x77
 8676 1ec5 00       		.sleb128 0
 8677 1ec6 00       		.byte	0
 8678 1ec7 30       		.uleb128 0x30
 8679 1ec8 14010000 		.4byte	.LVL128
ARM GAS  C:\Users\jo\AppData\Local\Temp\ccLDsGlj.s 			page 156


 8680 1ecc FC150000 		.4byte	0x15fc
 8681 1ed0 F81E0000 		.4byte	0x1ef8
 8682 1ed4 31       		.uleb128 0x31
 8683 1ed5 01       		.uleb128 0x1
 8684 1ed6 53       		.byte	0x53
 8685 1ed7 03       		.uleb128 0x3
 8686 1ed8 0A       		.byte	0xa
 8687 1ed9 C804     		.2byte	0x4c8
 8688 1edb 31       		.uleb128 0x31
 8689 1edc 01       		.uleb128 0x1
 8690 1edd 52       		.byte	0x52
 8691 1ede 05       		.uleb128 0x5
 8692 1edf 03       		.byte	0x3
 8693 1ee0 9C010000 		.4byte	.LC13
 8694 1ee4 31       		.uleb128 0x31
 8695 1ee5 01       		.uleb128 0x1
 8696 1ee6 51       		.byte	0x51
 8697 1ee7 05       		.uleb128 0x5
 8698 1ee8 03       		.byte	0x3
 8699 1ee9 00000000 		.4byte	.LC0
 8700 1eed 31       		.uleb128 0x31
 8701 1eee 02       		.uleb128 0x2
 8702 1eef 7D       		.byte	0x7d
 8703 1ef0 00       		.sleb128 0
 8704 1ef1 05       		.uleb128 0x5
 8705 1ef2 03       		.byte	0x3
 8706 1ef3 4C000000 		.4byte	.LC2
 8707 1ef7 00       		.byte	0
 8708 1ef8 30       		.uleb128 0x30
 8709 1ef9 34010000 		.4byte	.LVL131
 8710 1efd FC150000 		.4byte	0x15fc
 8711 1f01 291F0000 		.4byte	0x1f29
 8712 1f05 31       		.uleb128 0x31
 8713 1f06 01       		.uleb128 0x1
 8714 1f07 53       		.byte	0x53
 8715 1f08 03       		.uleb128 0x3
 8716 1f09 0A       		.byte	0xa
 8717 1f0a F504     		.2byte	0x4f5
 8718 1f0c 31       		.uleb128 0x31
 8719 1f0d 01       		.uleb128 0x1
 8720 1f0e 52       		.byte	0x52
 8721 1f0f 05       		.uleb128 0x5
 8722 1f10 03       		.byte	0x3
 8723 1f11 D0010000 		.4byte	.LC14
 8724 1f15 31       		.uleb128 0x31
 8725 1f16 01       		.uleb128 0x1
 8726 1f17 51       		.byte	0x51
 8727 1f18 05       		.uleb128 0x5
 8728 1f19 03       		.byte	0x3
 8729 1f1a 00000000 		.4byte	.LC0
 8730 1f1e 31       		.uleb128 0x31
 8731 1f1f 02       		.uleb128 0x2
 8732 1f20 7D       		.byte	0x7d
 8733 1f21 00       		.sleb128 0
 8734 1f22 05       		.uleb128 0x5
 8735 1f23 03       		.byte	0x3
 8736 1f24 4C000000 		.4byte	.LC2
ARM GAS  C:\Users\jo\AppData\Local\Temp\ccLDsGlj.s 			page 157


 8737 1f28 00       		.byte	0
 8738 1f29 32       		.uleb128 0x32
 8739 1f2a 60010000 		.4byte	.LVL134
 8740 1f2e 441F0000 		.4byte	0x1f44
 8741 1f32 31       		.uleb128 0x31
 8742 1f33 01       		.uleb128 0x1
 8743 1f34 52       		.byte	0x52
 8744 1f35 02       		.uleb128 0x2
 8745 1f36 75       		.byte	0x75
 8746 1f37 00       		.sleb128 0
 8747 1f38 31       		.uleb128 0x31
 8748 1f39 01       		.uleb128 0x1
 8749 1f3a 51       		.byte	0x51
 8750 1f3b 01       		.uleb128 0x1
 8751 1f3c 33       		.byte	0x33
 8752 1f3d 31       		.uleb128 0x31
 8753 1f3e 01       		.uleb128 0x1
 8754 1f3f 50       		.byte	0x50
 8755 1f40 02       		.uleb128 0x2
 8756 1f41 74       		.byte	0x74
 8757 1f42 00       		.sleb128 0
 8758 1f43 00       		.byte	0
 8759 1f44 41       		.uleb128 0x41
 8760 1f45 74010000 		.4byte	.LVL136
 8761 1f49 C6380000 		.4byte	0x38c6
 8762 1f4d 30       		.uleb128 0x30
 8763 1f4e 96010000 		.4byte	.LVL139
 8764 1f52 FC150000 		.4byte	0x15fc
 8765 1f56 7B1F0000 		.4byte	0x1f7b
 8766 1f5a 31       		.uleb128 0x31
 8767 1f5b 01       		.uleb128 0x1
 8768 1f5c 53       		.byte	0x53
 8769 1f5d 03       		.uleb128 0x3
 8770 1f5e 0A       		.byte	0xa
 8771 1f5f C504     		.2byte	0x4c5
 8772 1f61 31       		.uleb128 0x31
 8773 1f62 01       		.uleb128 0x1
 8774 1f63 52       		.byte	0x52
 8775 1f64 05       		.uleb128 0x5
 8776 1f65 03       		.byte	0x3
 8777 1f66 24010000 		.4byte	.LC9
 8778 1f6a 31       		.uleb128 0x31
 8779 1f6b 01       		.uleb128 0x1
 8780 1f6c 51       		.byte	0x51
 8781 1f6d 05       		.uleb128 0x5
 8782 1f6e 03       		.byte	0x3
 8783 1f6f 00000000 		.4byte	.LC0
 8784 1f73 31       		.uleb128 0x31
 8785 1f74 02       		.uleb128 0x2
 8786 1f75 7D       		.byte	0x7d
 8787 1f76 00       		.sleb128 0
 8788 1f77 02       		.uleb128 0x2
 8789 1f78 75       		.byte	0x75
 8790 1f79 00       		.sleb128 0
 8791 1f7a 00       		.byte	0
 8792 1f7b 30       		.uleb128 0x30
 8793 1f7c BC010000 		.4byte	.LVL144
ARM GAS  C:\Users\jo\AppData\Local\Temp\ccLDsGlj.s 			page 158


 8794 1f80 FC150000 		.4byte	0x15fc
 8795 1f84 AC1F0000 		.4byte	0x1fac
 8796 1f88 31       		.uleb128 0x31
 8797 1f89 01       		.uleb128 0x1
 8798 1f8a 53       		.byte	0x53
 8799 1f8b 03       		.uleb128 0x3
 8800 1f8c 0A       		.byte	0xa
 8801 1f8d C604     		.2byte	0x4c6
 8802 1f8f 31       		.uleb128 0x31
 8803 1f90 01       		.uleb128 0x1
 8804 1f91 52       		.byte	0x52
 8805 1f92 05       		.uleb128 0x5
 8806 1f93 03       		.byte	0x3
 8807 1f94 84010000 		.4byte	.LC12
 8808 1f98 31       		.uleb128 0x31
 8809 1f99 01       		.uleb128 0x1
 8810 1f9a 51       		.byte	0x51
 8811 1f9b 05       		.uleb128 0x5
 8812 1f9c 03       		.byte	0x3
 8813 1f9d 00000000 		.4byte	.LC0
 8814 1fa1 31       		.uleb128 0x31
 8815 1fa2 02       		.uleb128 0x2
 8816 1fa3 7D       		.byte	0x7d
 8817 1fa4 00       		.sleb128 0
 8818 1fa5 05       		.uleb128 0x5
 8819 1fa6 03       		.byte	0x3
 8820 1fa7 4C000000 		.4byte	.LC2
 8821 1fab 00       		.byte	0
 8822 1fac 45       		.uleb128 0x45
 8823 1fad D2010000 		.4byte	.LVL148
 8824 1fb1 31       		.uleb128 0x31
 8825 1fb2 01       		.uleb128 0x1
 8826 1fb3 52       		.byte	0x52
 8827 1fb4 02       		.uleb128 0x2
 8828 1fb5 79       		.byte	0x79
 8829 1fb6 00       		.sleb128 0
 8830 1fb7 31       		.uleb128 0x31
 8831 1fb8 01       		.uleb128 0x1
 8832 1fb9 51       		.byte	0x51
 8833 1fba 01       		.uleb128 0x1
 8834 1fbb 33       		.byte	0x33
 8835 1fbc 31       		.uleb128 0x31
 8836 1fbd 01       		.uleb128 0x1
 8837 1fbe 50       		.byte	0x50
 8838 1fbf 02       		.uleb128 0x2
 8839 1fc0 74       		.byte	0x74
 8840 1fc1 00       		.sleb128 0
 8841 1fc2 00       		.byte	0
 8842 1fc3 00       		.byte	0
 8843 1fc4 42       		.uleb128 0x42
 8844 1fc5 B9020000 		.4byte	.LASF294
 8845 1fc9 01       		.byte	0x1
 8846 1fca 1501     		.2byte	0x115
 8847 1fcc 3C090000 		.4byte	0x93c
 8848 1fd0 00000000 		.4byte	.LFB259
 8849 1fd4 84000000 		.4byte	.LFE259-.LFB259
 8850 1fd8 01       		.uleb128 0x1
ARM GAS  C:\Users\jo\AppData\Local\Temp\ccLDsGlj.s 			page 159


 8851 1fd9 9C       		.byte	0x9c
 8852 1fda B5200000 		.4byte	0x20b5
 8853 1fde 46       		.uleb128 0x46
 8854 1fdf 61726700 		.ascii	"arg\000"
 8855 1fe3 01       		.byte	0x1
 8856 1fe4 1501     		.2byte	0x115
 8857 1fe6 47030000 		.4byte	0x347
 8858 1fea 68080000 		.4byte	.LLST44
 8859 1fee 46       		.uleb128 0x46
 8860 1fef 70636200 		.ascii	"pcb\000"
 8861 1ff3 01       		.byte	0x1
 8862 1ff4 1501     		.2byte	0x115
 8863 1ff6 EF0E0000 		.4byte	0xeef
 8864 1ffa 9C080000 		.4byte	.LLST45
 8865 1ffe 3E       		.uleb128 0x3e
 8866 1fff B1050000 		.4byte	.LASF235
 8867 2003 01       		.byte	0x1
 8868 2004 1701     		.2byte	0x117
 8869 2006 170B0000 		.4byte	0xb17
 8870 200a 68080000 		.4byte	.LLST44
 8871 200e 3F       		.uleb128 0x3f
 8872 200f 5B130000 		.4byte	0x135b
 8873 2013 6A000000 		.4byte	.LBB117
 8874 2017 1A000000 		.4byte	.LBE117-.LBB117
 8875 201b 01       		.byte	0x1
 8876 201c 1A01     		.2byte	0x11a
 8877 201e 42200000 		.4byte	0x2042
 8878 2022 3A       		.uleb128 0x3a
 8879 2023 68130000 		.4byte	0x1368
 8880 2027 06       		.uleb128 0x6
 8881 2028 03       		.byte	0x3
 8882 2029 F0010000 		.4byte	.LC15
 8883 202d 9F       		.byte	0x9f
 8884 202e 33       		.uleb128 0x33
 8885 202f 70000000 		.4byte	.LVL159
 8886 2033 40380000 		.4byte	0x3840
 8887 2037 31       		.uleb128 0x31
 8888 2038 01       		.uleb128 0x1
 8889 2039 50       		.byte	0x50
 8890 203a 05       		.uleb128 0x5
 8891 203b 03       		.byte	0x3
 8892 203c F0010000 		.4byte	.LC15
 8893 2040 00       		.byte	0
 8894 2041 00       		.byte	0
 8895 2042 47       		.uleb128 0x47
 8896 2043 42000000 		.4byte	.LVL151
 8897 2047 02       		.uleb128 0x2
 8898 2048 75       		.byte	0x75
 8899 2049 00       		.sleb128 0
 8900 204a 5F200000 		.4byte	0x205f
 8901 204e 31       		.uleb128 0x31
 8902 204f 01       		.uleb128 0x1
 8903 2050 52       		.byte	0x52
 8904 2051 01       		.uleb128 0x1
 8905 2052 30       		.byte	0x30
 8906 2053 31       		.uleb128 0x31
 8907 2054 01       		.uleb128 0x1
ARM GAS  C:\Users\jo\AppData\Local\Temp\ccLDsGlj.s 			page 160


 8908 2055 51       		.byte	0x51
 8909 2056 01       		.uleb128 0x1
 8910 2057 32       		.byte	0x32
 8911 2058 31       		.uleb128 0x31
 8912 2059 01       		.uleb128 0x1
 8913 205a 50       		.byte	0x50
 8914 205b 02       		.uleb128 0x2
 8915 205c 74       		.byte	0x74
 8916 205d 00       		.sleb128 0
 8917 205e 00       		.byte	0
 8918 205f 30       		.uleb128 0x30
 8919 2060 4E000000 		.4byte	.LVL153
 8920 2064 9A1C0000 		.4byte	0x1c9a
 8921 2068 73200000 		.4byte	0x2073
 8922 206c 31       		.uleb128 0x31
 8923 206d 01       		.uleb128 0x1
 8924 206e 50       		.byte	0x50
 8925 206f 02       		.uleb128 0x2
 8926 2070 74       		.byte	0x74
 8927 2071 00       		.sleb128 0
 8928 2072 00       		.byte	0
 8929 2073 30       		.uleb128 0x30
 8930 2074 56000000 		.4byte	.LVL154
 8931 2078 5B180000 		.4byte	0x185b
 8932 207c 87200000 		.4byte	0x2087
 8933 2080 31       		.uleb128 0x31
 8934 2081 01       		.uleb128 0x1
 8935 2082 50       		.byte	0x50
 8936 2083 02       		.uleb128 0x2
 8937 2084 74       		.byte	0x74
 8938 2085 00       		.sleb128 0
 8939 2086 00       		.byte	0
 8940 2087 33       		.uleb128 0x33
 8941 2088 6A000000 		.4byte	.LVL158
 8942 208c FC150000 		.4byte	0x15fc
 8943 2090 31       		.uleb128 0x31
 8944 2091 01       		.uleb128 0x1
 8945 2092 53       		.byte	0x53
 8946 2093 03       		.uleb128 0x3
 8947 2094 0A       		.byte	0xa
 8948 2095 1A01     		.2byte	0x11a
 8949 2097 31       		.uleb128 0x31
 8950 2098 01       		.uleb128 0x1
 8951 2099 52       		.byte	0x52
 8952 209a 05       		.uleb128 0x5
 8953 209b 03       		.byte	0x3
 8954 209c F0010000 		.4byte	.LC15
 8955 20a0 31       		.uleb128 0x31
 8956 20a1 01       		.uleb128 0x1
 8957 20a2 51       		.byte	0x51
 8958 20a3 05       		.uleb128 0x5
 8959 20a4 03       		.byte	0x3
 8960 20a5 00000000 		.4byte	.LC0
 8961 20a9 31       		.uleb128 0x31
 8962 20aa 02       		.uleb128 0x2
 8963 20ab 7D       		.byte	0x7d
 8964 20ac 00       		.sleb128 0
ARM GAS  C:\Users\jo\AppData\Local\Temp\ccLDsGlj.s 			page 161


 8965 20ad 05       		.uleb128 0x5
 8966 20ae 03       		.byte	0x3
 8967 20af 4C000000 		.4byte	.LC2
 8968 20b3 00       		.byte	0
 8969 20b4 00       		.byte	0
 8970 20b5 38       		.uleb128 0x38
 8971 20b6 75130000 		.4byte	0x1375
 8972 20ba 00000000 		.4byte	.LFB260
 8973 20be 80000000 		.4byte	.LFE260-.LFB260
 8974 20c2 01       		.uleb128 0x1
 8975 20c3 9C       		.byte	0x9c
 8976 20c4 C8210000 		.4byte	0x21c8
 8977 20c8 39       		.uleb128 0x39
 8978 20c9 86130000 		.4byte	0x1386
 8979 20cd D6080000 		.4byte	.LLST47
 8980 20d1 39       		.uleb128 0x39
 8981 20d2 92130000 		.4byte	0x1392
 8982 20d6 0A090000 		.4byte	.LLST48
 8983 20da 39       		.uleb128 0x39
 8984 20db 9E130000 		.4byte	0x139e
 8985 20df 44090000 		.4byte	.LLST49
 8986 20e3 48       		.uleb128 0x48
 8987 20e4 AA130000 		.4byte	0x13aa
 8988 20e8 D6080000 		.4byte	.LLST47
 8989 20ec 49       		.uleb128 0x49
 8990 20ed 2C000000 		.4byte	.LBB125
 8991 20f1 14000000 		.4byte	.LBE125-.LBB125
 8992 20f5 3E210000 		.4byte	0x213e
 8993 20f9 39       		.uleb128 0x39
 8994 20fa 92130000 		.4byte	0x1392
 8995 20fe 7E090000 		.4byte	.LLST51
 8996 2102 39       		.uleb128 0x39
 8997 2103 9E130000 		.4byte	0x139e
 8998 2107 94090000 		.4byte	.LLST52
 8999 210b 39       		.uleb128 0x39
 9000 210c 86130000 		.4byte	0x1386
 9001 2110 A7090000 		.4byte	.LLST53
 9002 2114 4A       		.uleb128 0x4a
 9003 2115 2C000000 		.4byte	.LBB126
 9004 2119 14000000 		.4byte	.LBE126-.LBB126
 9005 211d 4B       		.uleb128 0x4b
 9006 211e AA130000 		.4byte	0x13aa
 9007 2122 4C       		.uleb128 0x4c
 9008 2123 40000000 		.4byte	.LVL163
 9009 2127 02       		.uleb128 0x2
 9010 2128 76       		.byte	0x76
 9011 2129 00       		.sleb128 0
 9012 212a 31       		.uleb128 0x31
 9013 212b 01       		.uleb128 0x1
 9014 212c 52       		.byte	0x52
 9015 212d 02       		.uleb128 0x2
 9016 212e 75       		.byte	0x75
 9017 212f 00       		.sleb128 0
 9018 2130 31       		.uleb128 0x31
 9019 2131 01       		.uleb128 0x1
 9020 2132 51       		.byte	0x51
 9021 2133 01       		.uleb128 0x1
ARM GAS  C:\Users\jo\AppData\Local\Temp\ccLDsGlj.s 			page 162


 9022 2134 32       		.byte	0x32
 9023 2135 31       		.uleb128 0x31
 9024 2136 01       		.uleb128 0x1
 9025 2137 50       		.byte	0x50
 9026 2138 02       		.uleb128 0x2
 9027 2139 74       		.byte	0x74
 9028 213a 00       		.sleb128 0
 9029 213b 00       		.byte	0
 9030 213c 00       		.byte	0
 9031 213d 00       		.byte	0
 9032 213e 3F       		.uleb128 0x3f
 9033 213f 5B130000 		.4byte	0x135b
 9034 2143 68000000 		.4byte	.LBB127
 9035 2147 18000000 		.4byte	.LBE127-.LBB127
 9036 214b 01       		.byte	0x1
 9037 214c 3E01     		.2byte	0x13e
 9038 214e 72210000 		.4byte	0x2172
 9039 2152 3A       		.uleb128 0x3a
 9040 2153 68130000 		.4byte	0x1368
 9041 2157 06       		.uleb128 0x6
 9042 2158 03       		.byte	0x3
 9043 2159 F0010000 		.4byte	.LC15
 9044 215d 9F       		.byte	0x9f
 9045 215e 33       		.uleb128 0x33
 9046 215f 6E000000 		.4byte	.LVL172
 9047 2163 40380000 		.4byte	0x3840
 9048 2167 31       		.uleb128 0x31
 9049 2168 01       		.uleb128 0x1
 9050 2169 50       		.byte	0x50
 9051 216a 05       		.uleb128 0x5
 9052 216b 03       		.byte	0x3
 9053 216c F0010000 		.4byte	.LC15
 9054 2170 00       		.byte	0
 9055 2171 00       		.byte	0
 9056 2172 30       		.uleb128 0x30
 9057 2173 4C000000 		.4byte	.LVL165
 9058 2177 9A1C0000 		.4byte	0x1c9a
 9059 217b 86210000 		.4byte	0x2186
 9060 217f 31       		.uleb128 0x31
 9061 2180 01       		.uleb128 0x1
 9062 2181 50       		.byte	0x50
 9063 2182 02       		.uleb128 0x2
 9064 2183 74       		.byte	0x74
 9065 2184 00       		.sleb128 0
 9066 2185 00       		.byte	0
 9067 2186 30       		.uleb128 0x30
 9068 2187 54000000 		.4byte	.LVL166
 9069 218b 5B180000 		.4byte	0x185b
 9070 218f 9A210000 		.4byte	0x219a
 9071 2193 31       		.uleb128 0x31
 9072 2194 01       		.uleb128 0x1
 9073 2195 50       		.byte	0x50
 9074 2196 02       		.uleb128 0x2
 9075 2197 74       		.byte	0x74
 9076 2198 00       		.sleb128 0
 9077 2199 00       		.byte	0
 9078 219a 33       		.uleb128 0x33
ARM GAS  C:\Users\jo\AppData\Local\Temp\ccLDsGlj.s 			page 163


 9079 219b 68000000 		.4byte	.LVL171
 9080 219f FC150000 		.4byte	0x15fc
 9081 21a3 31       		.uleb128 0x31
 9082 21a4 01       		.uleb128 0x1
 9083 21a5 53       		.byte	0x53
 9084 21a6 03       		.uleb128 0x3
 9085 21a7 0A       		.byte	0xa
 9086 21a8 3E01     		.2byte	0x13e
 9087 21aa 31       		.uleb128 0x31
 9088 21ab 01       		.uleb128 0x1
 9089 21ac 52       		.byte	0x52
 9090 21ad 05       		.uleb128 0x5
 9091 21ae 03       		.byte	0x3
 9092 21af F0010000 		.4byte	.LC15
 9093 21b3 31       		.uleb128 0x31
 9094 21b4 01       		.uleb128 0x1
 9095 21b5 51       		.byte	0x51
 9096 21b6 05       		.uleb128 0x5
 9097 21b7 03       		.byte	0x3
 9098 21b8 00000000 		.4byte	.LC0
 9099 21bc 31       		.uleb128 0x31
 9100 21bd 02       		.uleb128 0x2
 9101 21be 7D       		.byte	0x7d
 9102 21bf 00       		.sleb128 0
 9103 21c0 05       		.uleb128 0x5
 9104 21c1 03       		.byte	0x3
 9105 21c2 4C000000 		.4byte	.LC2
 9106 21c6 00       		.byte	0
 9107 21c7 00       		.byte	0
 9108 21c8 42       		.uleb128 0x42
 9109 21c9 560E0000 		.4byte	.LASF295
 9110 21cd 01       		.byte	0x1
 9111 21ce A903     		.2byte	0x3a9
 9112 21d0 3C090000 		.4byte	0x93c
 9113 21d4 00000000 		.4byte	.LFB272
 9114 21d8 CC000000 		.4byte	.LFE272-.LFB272
 9115 21dc 01       		.uleb128 0x1
 9116 21dd 9C       		.byte	0x9c
 9117 21de 4A230000 		.4byte	0x234a
 9118 21e2 46       		.uleb128 0x46
 9119 21e3 61726700 		.ascii	"arg\000"
 9120 21e7 01       		.byte	0x1
 9121 21e8 A903     		.2byte	0x3a9
 9122 21ea 47030000 		.4byte	0x347
 9123 21ee BA090000 		.4byte	.LLST54
 9124 21f2 46       		.uleb128 0x46
 9125 21f3 70636200 		.ascii	"pcb\000"
 9126 21f7 01       		.byte	0x1
 9127 21f8 A903     		.2byte	0x3a9
 9128 21fa EF0E0000 		.4byte	0xeef
 9129 21fe EE090000 		.4byte	.LLST55
 9130 2202 46       		.uleb128 0x46
 9131 2203 65727200 		.ascii	"err\000"
 9132 2207 01       		.byte	0x1
 9133 2208 A903     		.2byte	0x3a9
 9134 220a 3C090000 		.4byte	0x93c
 9135 220e 1A0A0000 		.4byte	.LLST56
ARM GAS  C:\Users\jo\AppData\Local\Temp\ccLDsGlj.s 			page 164


 9136 2212 3E       		.uleb128 0x3e
 9137 2213 B1050000 		.4byte	.LASF235
 9138 2217 01       		.byte	0x1
 9139 2218 AB03     		.2byte	0x3ab
 9140 221a 170B0000 		.4byte	0xb17
 9141 221e BA090000 		.4byte	.LLST54
 9142 2222 3E       		.uleb128 0x3e
 9143 2223 B10F0000 		.4byte	.LASF296
 9144 2227 01       		.byte	0x1
 9145 2228 AC03     		.2byte	0x3ac
 9146 222a 25000000 		.4byte	0x25
 9147 222e 460A0000 		.4byte	.LLST58
 9148 2232 3F       		.uleb128 0x3f
 9149 2233 5B130000 		.4byte	0x135b
 9150 2237 24000000 		.4byte	.LBB129
 9151 223b 06000000 		.4byte	.LBE129-.LBB129
 9152 223f 01       		.byte	0x1
 9153 2240 B603     		.2byte	0x3b6
 9154 2242 63220000 		.4byte	0x2263
 9155 2246 39       		.uleb128 0x39
 9156 2247 68130000 		.4byte	0x1368
 9157 224b 7C0A0000 		.4byte	.LLST59
 9158 224f 33       		.uleb128 0x33
 9159 2250 2A000000 		.4byte	.LVL178
 9160 2254 40380000 		.4byte	0x3840
 9161 2258 31       		.uleb128 0x31
 9162 2259 01       		.uleb128 0x1
 9163 225a 50       		.byte	0x50
 9164 225b 05       		.uleb128 0x5
 9165 225c 03       		.byte	0x3
 9166 225d 00020000 		.4byte	.LC16
 9167 2261 00       		.byte	0
 9168 2262 00       		.byte	0
 9169 2263 3F       		.uleb128 0x3f
 9170 2264 5B130000 		.4byte	0x135b
 9171 2268 A6000000 		.4byte	.LBB131
 9172 226c 06000000 		.4byte	.LBE131-.LBB131
 9173 2270 01       		.byte	0x1
 9174 2271 B703     		.2byte	0x3b7
 9175 2273 94220000 		.4byte	0x2294
 9176 2277 39       		.uleb128 0x39
 9177 2278 68130000 		.4byte	0x1368
 9178 227c 940A0000 		.4byte	.LLST60
 9179 2280 33       		.uleb128 0x33
 9180 2281 AC000000 		.4byte	.LVL188
 9181 2285 40380000 		.4byte	0x3840
 9182 2289 31       		.uleb128 0x31
 9183 228a 01       		.uleb128 0x1
 9184 228b 50       		.byte	0x50
 9185 228c 05       		.uleb128 0x5
 9186 228d 03       		.byte	0x3
 9187 228e 20020000 		.4byte	.LC17
 9188 2292 00       		.byte	0
 9189 2293 00       		.byte	0
 9190 2294 30       		.uleb128 0x30
 9191 2295 24000000 		.4byte	.LVL177
 9192 2299 FC150000 		.4byte	0x15fc
ARM GAS  C:\Users\jo\AppData\Local\Temp\ccLDsGlj.s 			page 165


 9193 229d C5220000 		.4byte	0x22c5
 9194 22a1 31       		.uleb128 0x31
 9195 22a2 01       		.uleb128 0x1
 9196 22a3 53       		.byte	0x53
 9197 22a4 03       		.uleb128 0x3
 9198 22a5 0A       		.byte	0xa
 9199 22a6 B603     		.2byte	0x3b6
 9200 22a8 31       		.uleb128 0x31
 9201 22a9 01       		.uleb128 0x1
 9202 22aa 52       		.byte	0x52
 9203 22ab 05       		.uleb128 0x5
 9204 22ac 03       		.byte	0x3
 9205 22ad 00020000 		.4byte	.LC16
 9206 22b1 31       		.uleb128 0x31
 9207 22b2 01       		.uleb128 0x1
 9208 22b3 51       		.byte	0x51
 9209 22b4 05       		.uleb128 0x5
 9210 22b5 03       		.byte	0x3
 9211 22b6 00000000 		.4byte	.LC0
 9212 22ba 31       		.uleb128 0x31
 9213 22bb 02       		.uleb128 0x2
 9214 22bc 7D       		.byte	0x7d
 9215 22bd 00       		.sleb128 0
 9216 22be 05       		.uleb128 0x5
 9217 22bf 03       		.byte	0x3
 9218 22c0 4C000000 		.4byte	.LC2
 9219 22c4 00       		.byte	0
 9220 22c5 32       		.uleb128 0x32
 9221 22c6 58000000 		.4byte	.LVL182
 9222 22ca DA220000 		.4byte	0x22da
 9223 22ce 31       		.uleb128 0x31
 9224 22cf 01       		.uleb128 0x1
 9225 22d0 51       		.byte	0x51
 9226 22d1 01       		.uleb128 0x1
 9227 22d2 32       		.byte	0x32
 9228 22d3 31       		.uleb128 0x31
 9229 22d4 01       		.uleb128 0x1
 9230 22d5 50       		.byte	0x50
 9231 22d6 02       		.uleb128 0x2
 9232 22d7 74       		.byte	0x74
 9233 22d8 00       		.sleb128 0
 9234 22d9 00       		.byte	0
 9235 22da 30       		.uleb128 0x30
 9236 22db 60000000 		.4byte	.LVL183
 9237 22df 88380000 		.4byte	0x3888
 9238 22e3 EE220000 		.4byte	0x22ee
 9239 22e7 31       		.uleb128 0x31
 9240 22e8 01       		.uleb128 0x1
 9241 22e9 50       		.byte	0x50
 9242 22ea 02       		.uleb128 0x2
 9243 22eb 74       		.byte	0x74
 9244 22ec 0C       		.sleb128 12
 9245 22ed 00       		.byte	0
 9246 22ee 32       		.uleb128 0x32
 9247 22ef 80000000 		.4byte	.LVL185
 9248 22f3 08230000 		.4byte	0x2308
 9249 22f7 31       		.uleb128 0x31
ARM GAS  C:\Users\jo\AppData\Local\Temp\ccLDsGlj.s 			page 166


 9250 22f8 01       		.uleb128 0x1
 9251 22f9 52       		.byte	0x52
 9252 22fa 01       		.uleb128 0x1
 9253 22fb 30       		.byte	0x30
 9254 22fc 31       		.uleb128 0x31
 9255 22fd 01       		.uleb128 0x1
 9256 22fe 51       		.byte	0x51
 9257 22ff 01       		.uleb128 0x1
 9258 2300 32       		.byte	0x32
 9259 2301 31       		.uleb128 0x31
 9260 2302 01       		.uleb128 0x1
 9261 2303 50       		.byte	0x50
 9262 2304 02       		.uleb128 0x2
 9263 2305 74       		.byte	0x74
 9264 2306 00       		.sleb128 0
 9265 2307 00       		.byte	0
 9266 2308 30       		.uleb128 0x30
 9267 2309 8C000000 		.4byte	.LVL186
 9268 230d 3B150000 		.4byte	0x153b
 9269 2311 1C230000 		.4byte	0x231c
 9270 2315 31       		.uleb128 0x31
 9271 2316 01       		.uleb128 0x1
 9272 2317 50       		.byte	0x50
 9273 2318 02       		.uleb128 0x2
 9274 2319 74       		.byte	0x74
 9275 231a 00       		.sleb128 0
 9276 231b 00       		.byte	0
 9277 231c 33       		.uleb128 0x33
 9278 231d A6000000 		.4byte	.LVL187
 9279 2321 FC150000 		.4byte	0x15fc
 9280 2325 31       		.uleb128 0x31
 9281 2326 01       		.uleb128 0x1
 9282 2327 53       		.byte	0x53
 9283 2328 03       		.uleb128 0x3
 9284 2329 0A       		.byte	0xa
 9285 232a B803     		.2byte	0x3b8
 9286 232c 31       		.uleb128 0x31
 9287 232d 01       		.uleb128 0x1
 9288 232e 52       		.byte	0x52
 9289 232f 05       		.uleb128 0x5
 9290 2330 03       		.byte	0x3
 9291 2331 20020000 		.4byte	.LC17
 9292 2335 31       		.uleb128 0x31
 9293 2336 01       		.uleb128 0x1
 9294 2337 51       		.byte	0x51
 9295 2338 05       		.uleb128 0x5
 9296 2339 03       		.byte	0x3
 9297 233a 00000000 		.4byte	.LC0
 9298 233e 31       		.uleb128 0x31
 9299 233f 02       		.uleb128 0x2
 9300 2340 7D       		.byte	0x7d
 9301 2341 00       		.sleb128 0
 9302 2342 05       		.uleb128 0x5
 9303 2343 03       		.byte	0x3
 9304 2344 4C000000 		.4byte	.LC2
 9305 2348 00       		.byte	0
 9306 2349 00       		.byte	0
ARM GAS  C:\Users\jo\AppData\Local\Temp\ccLDsGlj.s 			page 167


 9307 234a 34       		.uleb128 0x34
 9308 234b CC080000 		.4byte	.LASF297
 9309 234f 01       		.byte	0x1
 9310 2350 5B01     		.2byte	0x15b
 9311 2352 00000000 		.4byte	.LFB261
 9312 2356 0C010000 		.4byte	.LFE261-.LFB261
 9313 235a 01       		.uleb128 0x1
 9314 235b 9C       		.byte	0x9c
 9315 235c 9F250000 		.4byte	0x259f
 9316 2360 46       		.uleb128 0x46
 9317 2361 61726700 		.ascii	"arg\000"
 9318 2365 01       		.byte	0x1
 9319 2366 5B01     		.2byte	0x15b
 9320 2368 47030000 		.4byte	0x347
 9321 236c AC0A0000 		.4byte	.LLST61
 9322 2370 46       		.uleb128 0x46
 9323 2371 65727200 		.ascii	"err\000"
 9324 2375 01       		.byte	0x1
 9325 2376 5B01     		.2byte	0x15b
 9326 2378 3C090000 		.4byte	0x93c
 9327 237c 1F0B0000 		.4byte	.LLST62
 9328 2380 3E       		.uleb128 0x3e
 9329 2381 B1050000 		.4byte	.LASF235
 9330 2385 01       		.byte	0x1
 9331 2386 5D01     		.2byte	0x15d
 9332 2388 170B0000 		.4byte	0xb17
 9333 238c AC0A0000 		.4byte	.LLST61
 9334 2390 3E       		.uleb128 0x3e
 9335 2391 43070000 		.4byte	.LASF298
 9336 2395 01       		.byte	0x1
 9337 2396 5E01     		.2byte	0x15e
 9338 2398 9B0A0000 		.4byte	0xa9b
 9339 239c 590B0000 		.4byte	.LLST64
 9340 23a0 4D       		.uleb128 0x4d
 9341 23a1 5B130000 		.4byte	0x135b
 9342 23a5 74000000 		.4byte	.LBB133
 9343 23a9 18000000 		.4byte	.Ldebug_ranges0+0x18
 9344 23ad 01       		.byte	0x1
 9345 23ae 9201     		.2byte	0x192
 9346 23b0 D1230000 		.4byte	0x23d1
 9347 23b4 39       		.uleb128 0x39
 9348 23b5 68130000 		.4byte	0x1368
 9349 23b9 840B0000 		.4byte	.LLST65
 9350 23bd 37       		.uleb128 0x37
 9351 23be 80000000 		.4byte	.LVL202
 9352 23c2 40380000 		.4byte	0x3840
 9353 23c6 31       		.uleb128 0x31
 9354 23c7 01       		.uleb128 0x1
 9355 23c8 50       		.byte	0x50
 9356 23c9 05       		.uleb128 0x5
 9357 23ca 03       		.byte	0x3
 9358 23cb 60020000 		.4byte	.LC18
 9359 23cf 00       		.byte	0
 9360 23d0 00       		.byte	0
 9361 23d1 2F       		.uleb128 0x2f
 9362 23d2 30000000 		.4byte	.Ldebug_ranges0+0x30
 9363 23d6 63240000 		.4byte	0x2463
ARM GAS  C:\Users\jo\AppData\Local\Temp\ccLDsGlj.s 			page 168


 9364 23da 3E       		.uleb128 0x3e
 9365 23db FE010000 		.4byte	.LASF299
 9366 23df 01       		.byte	0x1
 9367 23e0 8601     		.2byte	0x186
 9368 23e2 25000000 		.4byte	0x25
 9369 23e6 9C0B0000 		.4byte	.LLST66
 9370 23ea 3F       		.uleb128 0x3f
 9371 23eb 5B130000 		.4byte	0x135b
 9372 23ef E8000000 		.4byte	.LBB138
 9373 23f3 24000000 		.4byte	.LBE138-.LBB138
 9374 23f7 01       		.byte	0x1
 9375 23f8 8B01     		.2byte	0x18b
 9376 23fa 1E240000 		.4byte	0x241e
 9377 23fe 3A       		.uleb128 0x3a
 9378 23ff 68130000 		.4byte	0x1368
 9379 2403 06       		.uleb128 0x6
 9380 2404 03       		.byte	0x3
 9381 2405 24010000 		.4byte	.LC9
 9382 2409 9F       		.byte	0x9f
 9383 240a 33       		.uleb128 0x33
 9384 240b EE000000 		.4byte	.LVL218
 9385 240f 40380000 		.4byte	0x3840
 9386 2413 31       		.uleb128 0x31
 9387 2414 01       		.uleb128 0x1
 9388 2415 50       		.byte	0x50
 9389 2416 05       		.uleb128 0x5
 9390 2417 03       		.byte	0x3
 9391 2418 24010000 		.4byte	.LC9
 9392 241c 00       		.byte	0
 9393 241d 00       		.byte	0
 9394 241e 40       		.uleb128 0x40
 9395 241f A4000000 		.4byte	.LVL207
 9396 2423 88380000 		.4byte	0x3888
 9397 2427 35240000 		.4byte	0x2435
 9398 242b 31       		.uleb128 0x31
 9399 242c 01       		.uleb128 0x1
 9400 242d 50       		.byte	0x50
 9401 242e 05       		.uleb128 0x5
 9402 242f F3       		.byte	0xf3
 9403 2430 01       		.uleb128 0x1
 9404 2431 50       		.byte	0x50
 9405 2432 23       		.byte	0x23
 9406 2433 0C       		.uleb128 0xc
 9407 2434 00       		.byte	0
 9408 2435 33       		.uleb128 0x33
 9409 2436 E8000000 		.4byte	.LVL217
 9410 243a FC150000 		.4byte	0x15fc
 9411 243e 31       		.uleb128 0x31
 9412 243f 01       		.uleb128 0x1
 9413 2440 53       		.byte	0x53
 9414 2441 03       		.uleb128 0x3
 9415 2442 0A       		.byte	0xa
 9416 2443 8B01     		.2byte	0x18b
 9417 2445 31       		.uleb128 0x31
 9418 2446 01       		.uleb128 0x1
 9419 2447 52       		.byte	0x52
 9420 2448 05       		.uleb128 0x5
ARM GAS  C:\Users\jo\AppData\Local\Temp\ccLDsGlj.s 			page 169


 9421 2449 03       		.byte	0x3
 9422 244a 24010000 		.4byte	.LC9
 9423 244e 31       		.uleb128 0x31
 9424 244f 01       		.uleb128 0x1
 9425 2450 51       		.byte	0x51
 9426 2451 05       		.uleb128 0x5
 9427 2452 03       		.byte	0x3
 9428 2453 00000000 		.4byte	.LC0
 9429 2457 31       		.uleb128 0x31
 9430 2458 02       		.uleb128 0x2
 9431 2459 7D       		.byte	0x7d
 9432 245a 00       		.sleb128 0
 9433 245b 05       		.uleb128 0x5
 9434 245c 03       		.byte	0x3
 9435 245d 4C000000 		.4byte	.LC2
 9436 2461 00       		.byte	0
 9437 2462 00       		.byte	0
 9438 2463 3F       		.uleb128 0x3f
 9439 2464 5B130000 		.4byte	0x135b
 9440 2468 CE000000 		.4byte	.LBB141
 9441 246c 08000000 		.4byte	.LBE141-.LBB141
 9442 2470 01       		.byte	0x1
 9443 2471 6201     		.2byte	0x162
 9444 2473 94240000 		.4byte	0x2494
 9445 2477 39       		.uleb128 0x39
 9446 2478 68130000 		.4byte	0x1368
 9447 247c D20B0000 		.4byte	.LLST67
 9448 2480 33       		.uleb128 0x33
 9449 2481 D4000000 		.4byte	.LVL215
 9450 2485 40380000 		.4byte	0x3840
 9451 2489 31       		.uleb128 0x31
 9452 248a 01       		.uleb128 0x1
 9453 248b 50       		.byte	0x50
 9454 248c 05       		.uleb128 0x5
 9455 248d 03       		.byte	0x3
 9456 248e F0010000 		.4byte	.LC15
 9457 2492 00       		.byte	0
 9458 2493 00       		.byte	0
 9459 2494 32       		.uleb128 0x32
 9460 2495 22000000 		.4byte	.LVL194
 9461 2499 AF240000 		.4byte	0x24af
 9462 249d 31       		.uleb128 0x31
 9463 249e 01       		.uleb128 0x1
 9464 249f 52       		.byte	0x52
 9465 24a0 02       		.uleb128 0x2
 9466 24a1 75       		.byte	0x75
 9467 24a2 00       		.sleb128 0
 9468 24a3 31       		.uleb128 0x31
 9469 24a4 01       		.uleb128 0x1
 9470 24a5 51       		.byte	0x51
 9471 24a6 01       		.uleb128 0x1
 9472 24a7 34       		.byte	0x34
 9473 24a8 31       		.uleb128 0x31
 9474 24a9 01       		.uleb128 0x1
 9475 24aa 50       		.byte	0x50
 9476 24ab 02       		.uleb128 0x2
 9477 24ac 74       		.byte	0x74
ARM GAS  C:\Users\jo\AppData\Local\Temp\ccLDsGlj.s 			page 170


 9478 24ad 00       		.sleb128 0
 9479 24ae 00       		.byte	0
 9480 24af 32       		.uleb128 0x32
 9481 24b0 2E000000 		.4byte	.LVL195
 9482 24b4 CB240000 		.4byte	0x24cb
 9483 24b8 31       		.uleb128 0x31
 9484 24b9 01       		.uleb128 0x1
 9485 24ba 52       		.byte	0x52
 9486 24bb 02       		.uleb128 0x2
 9487 24bc 75       		.byte	0x75
 9488 24bd 00       		.sleb128 0
 9489 24be 31       		.uleb128 0x31
 9490 24bf 01       		.uleb128 0x1
 9491 24c0 51       		.byte	0x51
 9492 24c1 02       		.uleb128 0x2
 9493 24c2 75       		.byte	0x75
 9494 24c3 00       		.sleb128 0
 9495 24c4 31       		.uleb128 0x31
 9496 24c5 01       		.uleb128 0x1
 9497 24c6 50       		.byte	0x50
 9498 24c7 02       		.uleb128 0x2
 9499 24c8 74       		.byte	0x74
 9500 24c9 00       		.sleb128 0
 9501 24ca 00       		.byte	0
 9502 24cb 32       		.uleb128 0x32
 9503 24cc 3A000000 		.4byte	.LVL196
 9504 24d0 E6240000 		.4byte	0x24e6
 9505 24d4 31       		.uleb128 0x31
 9506 24d5 01       		.uleb128 0x1
 9507 24d6 52       		.byte	0x52
 9508 24d7 02       		.uleb128 0x2
 9509 24d8 75       		.byte	0x75
 9510 24d9 00       		.sleb128 0
 9511 24da 31       		.uleb128 0x31
 9512 24db 01       		.uleb128 0x1
 9513 24dc 51       		.byte	0x51
 9514 24dd 01       		.uleb128 0x1
 9515 24de 32       		.byte	0x32
 9516 24df 31       		.uleb128 0x31
 9517 24e0 01       		.uleb128 0x1
 9518 24e1 50       		.byte	0x50
 9519 24e2 02       		.uleb128 0x2
 9520 24e3 74       		.byte	0x74
 9521 24e4 00       		.sleb128 0
 9522 24e5 00       		.byte	0
 9523 24e6 30       		.uleb128 0x30
 9524 24e7 44000000 		.4byte	.LVL197
 9525 24eb 5B370000 		.4byte	0x375b
 9526 24ef FA240000 		.4byte	0x24fa
 9527 24f3 31       		.uleb128 0x31
 9528 24f4 01       		.uleb128 0x1
 9529 24f5 50       		.byte	0x50
 9530 24f6 02       		.uleb128 0x2
 9531 24f7 75       		.byte	0x75
 9532 24f8 00       		.sleb128 0
 9533 24f9 00       		.byte	0
 9534 24fa 30       		.uleb128 0x30
ARM GAS  C:\Users\jo\AppData\Local\Temp\ccLDsGlj.s 			page 171


 9535 24fb 52000000 		.4byte	.LVL198
 9536 24ff 5B370000 		.4byte	0x375b
 9537 2503 0E250000 		.4byte	0x250e
 9538 2507 31       		.uleb128 0x31
 9539 2508 01       		.uleb128 0x1
 9540 2509 50       		.byte	0x50
 9541 250a 02       		.uleb128 0x2
 9542 250b 75       		.byte	0x75
 9543 250c 00       		.sleb128 0
 9544 250d 00       		.byte	0
 9545 250e 30       		.uleb128 0x30
 9546 250f 74000000 		.4byte	.LVL200
 9547 2513 FC150000 		.4byte	0x15fc
 9548 2517 3F250000 		.4byte	0x253f
 9549 251b 31       		.uleb128 0x31
 9550 251c 01       		.uleb128 0x1
 9551 251d 53       		.byte	0x53
 9552 251e 03       		.uleb128 0x3
 9553 251f 0A       		.byte	0xa
 9554 2520 9201     		.2byte	0x192
 9555 2522 31       		.uleb128 0x31
 9556 2523 01       		.uleb128 0x1
 9557 2524 52       		.byte	0x52
 9558 2525 05       		.uleb128 0x5
 9559 2526 03       		.byte	0x3
 9560 2527 60020000 		.4byte	.LC18
 9561 252b 31       		.uleb128 0x31
 9562 252c 01       		.uleb128 0x1
 9563 252d 51       		.byte	0x51
 9564 252e 05       		.uleb128 0x5
 9565 252f 03       		.byte	0x3
 9566 2530 00000000 		.4byte	.LC0
 9567 2534 31       		.uleb128 0x31
 9568 2535 02       		.uleb128 0x2
 9569 2536 7D       		.byte	0x7d
 9570 2537 00       		.sleb128 0
 9571 2538 05       		.uleb128 0x5
 9572 2539 03       		.byte	0x3
 9573 253a 4C000000 		.4byte	.LC2
 9574 253e 00       		.byte	0
 9575 253f 30       		.uleb128 0x30
 9576 2540 B0000000 		.4byte	.LVL209
 9577 2544 15370000 		.4byte	0x3715
 9578 2548 58250000 		.4byte	0x2558
 9579 254c 31       		.uleb128 0x31
 9580 254d 01       		.uleb128 0x1
 9581 254e 51       		.byte	0x51
 9582 254f 01       		.uleb128 0x1
 9583 2550 30       		.byte	0x30
 9584 2551 31       		.uleb128 0x31
 9585 2552 01       		.uleb128 0x1
 9586 2553 50       		.byte	0x50
 9587 2554 02       		.uleb128 0x2
 9588 2555 75       		.byte	0x75
 9589 2556 00       		.sleb128 0
 9590 2557 00       		.byte	0
 9591 2558 30       		.uleb128 0x30
ARM GAS  C:\Users\jo\AppData\Local\Temp\ccLDsGlj.s 			page 172


 9592 2559 BA000000 		.4byte	.LVL210
 9593 255d 15370000 		.4byte	0x3715
 9594 2561 71250000 		.4byte	0x2571
 9595 2565 31       		.uleb128 0x31
 9596 2566 01       		.uleb128 0x1
 9597 2567 51       		.byte	0x51
 9598 2568 01       		.uleb128 0x1
 9599 2569 30       		.byte	0x30
 9600 256a 31       		.uleb128 0x31
 9601 256b 01       		.uleb128 0x1
 9602 256c 50       		.byte	0x50
 9603 256d 02       		.uleb128 0x2
 9604 256e 75       		.byte	0x75
 9605 256f 00       		.sleb128 0
 9606 2570 00       		.byte	0
 9607 2571 33       		.uleb128 0x33
 9608 2572 CE000000 		.4byte	.LVL214
 9609 2576 FC150000 		.4byte	0x15fc
 9610 257a 31       		.uleb128 0x31
 9611 257b 01       		.uleb128 0x1
 9612 257c 53       		.byte	0x53
 9613 257d 03       		.uleb128 0x3
 9614 257e 0A       		.byte	0xa
 9615 257f 6201     		.2byte	0x162
 9616 2581 31       		.uleb128 0x31
 9617 2582 01       		.uleb128 0x1
 9618 2583 52       		.byte	0x52
 9619 2584 05       		.uleb128 0x5
 9620 2585 03       		.byte	0x3
 9621 2586 F0010000 		.4byte	.LC15
 9622 258a 31       		.uleb128 0x31
 9623 258b 01       		.uleb128 0x1
 9624 258c 51       		.byte	0x51
 9625 258d 05       		.uleb128 0x5
 9626 258e 03       		.byte	0x3
 9627 258f 00000000 		.4byte	.LC0
 9628 2593 31       		.uleb128 0x31
 9629 2594 02       		.uleb128 0x2
 9630 2595 7D       		.byte	0x7d
 9631 2596 00       		.sleb128 0
 9632 2597 05       		.uleb128 0x5
 9633 2598 03       		.byte	0x3
 9634 2599 4C000000 		.4byte	.LC2
 9635 259d 00       		.byte	0
 9636 259e 00       		.byte	0
 9637 259f 4E       		.uleb128 0x4e
 9638 25a0 D90D0000 		.4byte	.LASF300
 9639 25a4 01       		.byte	0x1
 9640 25a5 90       		.byte	0x90
 9641 25a6 00000000 		.4byte	.LFB257
 9642 25aa E0000000 		.4byte	.LFE257-.LFB257
 9643 25ae 01       		.uleb128 0x1
 9644 25af 9C       		.byte	0x9c
 9645 25b0 B7270000 		.4byte	0x27b7
 9646 25b4 2B       		.uleb128 0x2b
 9647 25b5 61726700 		.ascii	"arg\000"
 9648 25b9 01       		.byte	0x1
ARM GAS  C:\Users\jo\AppData\Local\Temp\ccLDsGlj.s 			page 173


 9649 25ba 90       		.byte	0x90
 9650 25bb 47030000 		.4byte	0x347
 9651 25bf EA0B0000 		.4byte	.LLST68
 9652 25c3 2B       		.uleb128 0x2b
 9653 25c4 70636200 		.ascii	"pcb\000"
 9654 25c8 01       		.byte	0x1
 9655 25c9 90       		.byte	0x90
 9656 25ca 860F0000 		.4byte	0xf86
 9657 25ce 770C0000 		.4byte	.LLST69
 9658 25d2 2B       		.uleb128 0x2b
 9659 25d3 7000     		.ascii	"p\000"
 9660 25d5 01       		.byte	0x1
 9661 25d6 90       		.byte	0x90
 9662 25d7 220A0000 		.4byte	0xa22
 9663 25db F90C0000 		.4byte	.LLST70
 9664 25df 2C       		.uleb128 0x2c
 9665 25e0 4C0F0000 		.4byte	.LASF129
 9666 25e4 01       		.byte	0x1
 9667 25e5 91       		.byte	0x91
 9668 25e6 280A0000 		.4byte	0xa28
 9669 25ea 920D0000 		.4byte	.LLST71
 9670 25ee 2C       		.uleb128 0x2c
 9671 25ef A2060000 		.4byte	.LASF151
 9672 25f3 01       		.byte	0x1
 9673 25f4 91       		.byte	0x91
 9674 25f5 F7080000 		.4byte	0x8f7
 9675 25f9 140E0000 		.4byte	.LLST72
 9676 25fd 2D       		.uleb128 0x2d
 9677 25fe 62756600 		.ascii	"buf\000"
 9678 2602 01       		.byte	0x1
 9679 2603 93       		.byte	0x93
 9680 2604 54110000 		.4byte	0x1154
 9681 2608 7C0E0000 		.4byte	.LLST73
 9682 260c 2E       		.uleb128 0x2e
 9683 260d B1050000 		.4byte	.LASF235
 9684 2611 01       		.byte	0x1
 9685 2612 94       		.byte	0x94
 9686 2613 170B0000 		.4byte	0xb17
 9687 2617 BB0E0000 		.4byte	.LLST74
 9688 261b 2D       		.uleb128 0x2d
 9689 261c 6C656E00 		.ascii	"len\000"
 9690 2620 01       		.byte	0x1
 9691 2621 95       		.byte	0x95
 9692 2622 F7080000 		.4byte	0x8f7
 9693 2626 320F0000 		.4byte	.LLST75
 9694 262a 3D       		.uleb128 0x3d
 9695 262b 5B130000 		.4byte	0x135b
 9696 262f 30000000 		.4byte	.LBB144
 9697 2633 06000000 		.4byte	.LBE144-.LBB144
 9698 2637 01       		.byte	0x1
 9699 2638 9E       		.byte	0x9e
 9700 2639 5A260000 		.4byte	0x265a
 9701 263d 39       		.uleb128 0x39
 9702 263e 68130000 		.4byte	0x1368
 9703 2642 660F0000 		.4byte	.LLST76
 9704 2646 33       		.uleb128 0x33
 9705 2647 36000000 		.4byte	.LVL223
ARM GAS  C:\Users\jo\AppData\Local\Temp\ccLDsGlj.s 			page 174


 9706 264b 40380000 		.4byte	0x3840
 9707 264f 31       		.uleb128 0x31
 9708 2650 01       		.uleb128 0x1
 9709 2651 50       		.byte	0x50
 9710 2652 05       		.uleb128 0x5
 9711 2653 03       		.byte	0x3
 9712 2654 C0020000 		.4byte	.LC21
 9713 2658 00       		.byte	0
 9714 2659 00       		.byte	0
 9715 265a 3D       		.uleb128 0x3d
 9716 265b 5B130000 		.4byte	0x135b
 9717 265f 96000000 		.4byte	.LBB146
 9718 2663 08000000 		.4byte	.LBE146-.LBB146
 9719 2667 01       		.byte	0x1
 9720 2668 9B       		.byte	0x9b
 9721 2669 8A260000 		.4byte	0x268a
 9722 266d 39       		.uleb128 0x39
 9723 266e 68130000 		.4byte	0x1368
 9724 2672 7E0F0000 		.4byte	.LLST77
 9725 2676 33       		.uleb128 0x33
 9726 2677 9C000000 		.4byte	.LVL241
 9727 267b 40380000 		.4byte	0x3840
 9728 267f 31       		.uleb128 0x31
 9729 2680 01       		.uleb128 0x1
 9730 2681 50       		.byte	0x50
 9731 2682 05       		.uleb128 0x5
 9732 2683 03       		.byte	0x3
 9733 2684 7C020000 		.4byte	.LC19
 9734 2688 00       		.byte	0
 9735 2689 00       		.byte	0
 9736 268a 3D       		.uleb128 0x3d
 9737 268b 5B130000 		.4byte	0x135b
 9738 268f BA000000 		.4byte	.LBB148
 9739 2693 08000000 		.4byte	.LBE148-.LBB148
 9740 2697 01       		.byte	0x1
 9741 2698 9C       		.byte	0x9c
 9742 2699 BA260000 		.4byte	0x26ba
 9743 269d 39       		.uleb128 0x39
 9744 269e 68130000 		.4byte	0x1368
 9745 26a2 960F0000 		.4byte	.LLST78
 9746 26a6 33       		.uleb128 0x33
 9747 26a7 C0000000 		.4byte	.LVL246
 9748 26ab 40380000 		.4byte	0x3840
 9749 26af 31       		.uleb128 0x31
 9750 26b0 01       		.uleb128 0x1
 9751 26b1 50       		.byte	0x50
 9752 26b2 05       		.uleb128 0x5
 9753 26b3 03       		.byte	0x3
 9754 26b4 A0020000 		.4byte	.LC20
 9755 26b8 00       		.byte	0
 9756 26b9 00       		.byte	0
 9757 26ba 30       		.uleb128 0x30
 9758 26bb 30000000 		.4byte	.LVL222
 9759 26bf FC150000 		.4byte	0x15fc
 9760 26c3 EA260000 		.4byte	0x26ea
 9761 26c7 31       		.uleb128 0x31
 9762 26c8 01       		.uleb128 0x1
ARM GAS  C:\Users\jo\AppData\Local\Temp\ccLDsGlj.s 			page 175


 9763 26c9 53       		.byte	0x53
 9764 26ca 02       		.uleb128 0x2
 9765 26cb 08       		.byte	0x8
 9766 26cc 9E       		.byte	0x9e
 9767 26cd 31       		.uleb128 0x31
 9768 26ce 01       		.uleb128 0x1
 9769 26cf 52       		.byte	0x52
 9770 26d0 05       		.uleb128 0x5
 9771 26d1 03       		.byte	0x3
 9772 26d2 C0020000 		.4byte	.LC21
 9773 26d6 31       		.uleb128 0x31
 9774 26d7 01       		.uleb128 0x1
 9775 26d8 51       		.byte	0x51
 9776 26d9 05       		.uleb128 0x5
 9777 26da 03       		.byte	0x3
 9778 26db 00000000 		.4byte	.LC0
 9779 26df 31       		.uleb128 0x31
 9780 26e0 02       		.uleb128 0x2
 9781 26e1 7D       		.byte	0x7d
 9782 26e2 00       		.sleb128 0
 9783 26e3 05       		.uleb128 0x5
 9784 26e4 03       		.byte	0x3
 9785 26e5 4C000000 		.4byte	.LC2
 9786 26e9 00       		.byte	0
 9787 26ea 30       		.uleb128 0x30
 9788 26eb 40000000 		.4byte	.LVL224
 9789 26ef 5B370000 		.4byte	0x375b
 9790 26f3 FE260000 		.4byte	0x26fe
 9791 26f7 31       		.uleb128 0x31
 9792 26f8 01       		.uleb128 0x1
 9793 26f9 50       		.byte	0x50
 9794 26fa 02       		.uleb128 0x2
 9795 26fb 78       		.byte	0x78
 9796 26fc 00       		.sleb128 0
 9797 26fd 00       		.byte	0
 9798 26fe 40       		.uleb128 0x40
 9799 26ff 4E000000 		.4byte	.LVL227
 9800 2703 35370000 		.4byte	0x3735
 9801 2707 13270000 		.4byte	0x2713
 9802 270b 31       		.uleb128 0x31
 9803 270c 01       		.uleb128 0x1
 9804 270d 50       		.byte	0x50
 9805 270e 03       		.uleb128 0x3
 9806 270f F3       		.byte	0xf3
 9807 2710 01       		.uleb128 0x1
 9808 2711 52       		.byte	0x52
 9809 2712 00       		.byte	0
 9810 2713 30       		.uleb128 0x30
 9811 2714 54000000 		.4byte	.LVL228
 9812 2718 00370000 		.4byte	0x3700
 9813 271c 26270000 		.4byte	0x2726
 9814 2720 31       		.uleb128 0x31
 9815 2721 01       		.uleb128 0x1
 9816 2722 50       		.byte	0x50
 9817 2723 01       		.uleb128 0x1
 9818 2724 37       		.byte	0x37
 9819 2725 00       		.byte	0
ARM GAS  C:\Users\jo\AppData\Local\Temp\ccLDsGlj.s 			page 176


 9820 2726 30       		.uleb128 0x30
 9821 2727 72000000 		.4byte	.LVL233
 9822 272b 15370000 		.4byte	0x3715
 9823 272f 40270000 		.4byte	0x2740
 9824 2733 31       		.uleb128 0x31
 9825 2734 01       		.uleb128 0x1
 9826 2735 51       		.byte	0x51
 9827 2736 02       		.uleb128 0x2
 9828 2737 75       		.byte	0x75
 9829 2738 00       		.sleb128 0
 9830 2739 31       		.uleb128 0x31
 9831 273a 01       		.uleb128 0x1
 9832 273b 50       		.byte	0x50
 9833 273c 02       		.uleb128 0x2
 9834 273d 78       		.byte	0x78
 9835 273e 00       		.sleb128 0
 9836 273f 00       		.byte	0
 9837 2740 4F       		.uleb128 0x4f
 9838 2741 86000000 		.4byte	.LVL235
 9839 2745 51270000 		.4byte	0x2751
 9840 2749 31       		.uleb128 0x31
 9841 274a 01       		.uleb128 0x1
 9842 274b 50       		.byte	0x50
 9843 274c 03       		.uleb128 0x3
 9844 274d F3       		.byte	0xf3
 9845 274e 01       		.uleb128 0x1
 9846 274f 50       		.byte	0x50
 9847 2750 00       		.byte	0
 9848 2751 30       		.uleb128 0x30
 9849 2752 96000000 		.4byte	.LVL240
 9850 2756 FC150000 		.4byte	0x15fc
 9851 275a 81270000 		.4byte	0x2781
 9852 275e 31       		.uleb128 0x31
 9853 275f 01       		.uleb128 0x1
 9854 2760 53       		.byte	0x53
 9855 2761 02       		.uleb128 0x2
 9856 2762 08       		.byte	0x8
 9857 2763 9B       		.byte	0x9b
 9858 2764 31       		.uleb128 0x31
 9859 2765 01       		.uleb128 0x1
 9860 2766 52       		.byte	0x52
 9861 2767 05       		.uleb128 0x5
 9862 2768 03       		.byte	0x3
 9863 2769 7C020000 		.4byte	.LC19
 9864 276d 31       		.uleb128 0x31
 9865 276e 01       		.uleb128 0x1
 9866 276f 51       		.byte	0x51
 9867 2770 05       		.uleb128 0x5
 9868 2771 03       		.byte	0x3
 9869 2772 00000000 		.4byte	.LC0
 9870 2776 31       		.uleb128 0x31
 9871 2777 02       		.uleb128 0x2
 9872 2778 7D       		.byte	0x7d
 9873 2779 00       		.sleb128 0
 9874 277a 05       		.uleb128 0x5
 9875 277b 03       		.byte	0x3
 9876 277c 4C000000 		.4byte	.LC2
ARM GAS  C:\Users\jo\AppData\Local\Temp\ccLDsGlj.s 			page 177


 9877 2780 00       		.byte	0
 9878 2781 50       		.uleb128 0x50
 9879 2782 AA000000 		.4byte	.LVL244
 9880 2786 4A370000 		.4byte	0x374a
 9881 278a 33       		.uleb128 0x33
 9882 278b BA000000 		.4byte	.LVL245
 9883 278f FC150000 		.4byte	0x15fc
 9884 2793 31       		.uleb128 0x31
 9885 2794 01       		.uleb128 0x1
 9886 2795 53       		.byte	0x53
 9887 2796 02       		.uleb128 0x2
 9888 2797 08       		.byte	0x8
 9889 2798 9C       		.byte	0x9c
 9890 2799 31       		.uleb128 0x31
 9891 279a 01       		.uleb128 0x1
 9892 279b 52       		.byte	0x52
 9893 279c 05       		.uleb128 0x5
 9894 279d 03       		.byte	0x3
 9895 279e A0020000 		.4byte	.LC20
 9896 27a2 31       		.uleb128 0x31
 9897 27a3 01       		.uleb128 0x1
 9898 27a4 51       		.byte	0x51
 9899 27a5 05       		.uleb128 0x5
 9900 27a6 03       		.byte	0x3
 9901 27a7 00000000 		.4byte	.LC0
 9902 27ab 31       		.uleb128 0x31
 9903 27ac 02       		.uleb128 0x2
 9904 27ad 7D       		.byte	0x7d
 9905 27ae 00       		.sleb128 0
 9906 27af 05       		.uleb128 0x5
 9907 27b0 03       		.byte	0x3
 9908 27b1 4C000000 		.4byte	.LC2
 9909 27b5 00       		.byte	0
 9910 27b6 00       		.byte	0
 9911 27b7 20       		.uleb128 0x20
 9912 27b8 D40F0000 		.4byte	.LASF302
 9913 27bc 01       		.byte	0x1
 9914 27bd EA01     		.2byte	0x1ea
 9915 27bf 01       		.byte	0x1
 9916 27c0 D1270000 		.4byte	0x27d1
 9917 27c4 23       		.uleb128 0x23
 9918 27c5 6D736700 		.ascii	"msg\000"
 9919 27c9 01       		.byte	0x1
 9920 27ca EA01     		.2byte	0x1ea
 9921 27cc 3C100000 		.4byte	0x103c
 9922 27d0 00       		.byte	0
 9923 27d1 51       		.uleb128 0x51
 9924 27d2 D20B0000 		.4byte	.LASF306
 9925 27d6 01       		.byte	0x1
 9926 27d7 2402     		.2byte	0x224
 9927 27d9 00000000 		.4byte	.LFB265
 9928 27dd 98000000 		.4byte	.LFE265-.LFB265
 9929 27e1 01       		.uleb128 0x1
 9930 27e2 9C       		.byte	0x9c
 9931 27e3 84280000 		.4byte	0x2884
 9932 27e7 46       		.uleb128 0x46
 9933 27e8 6D736700 		.ascii	"msg\000"
ARM GAS  C:\Users\jo\AppData\Local\Temp\ccLDsGlj.s 			page 178


 9934 27ec 01       		.byte	0x1
 9935 27ed 2402     		.2byte	0x224
 9936 27ef 3C100000 		.4byte	0x103c
 9937 27f3 AE0F0000 		.4byte	.LLST79
 9938 27f7 3F       		.uleb128 0x3f
 9939 27f8 B7270000 		.4byte	0x27b7
 9940 27fc 18000000 		.4byte	.LBB154
 9941 2800 80000000 		.4byte	.LBE154-.LBB154
 9942 2804 01       		.byte	0x1
 9943 2805 2802     		.2byte	0x228
 9944 2807 7A280000 		.4byte	0x287a
 9945 280b 39       		.uleb128 0x39
 9946 280c C4270000 		.4byte	0x27c4
 9947 2810 11100000 		.4byte	.LLST80
 9948 2814 41       		.uleb128 0x41
 9949 2815 36000000 		.4byte	.LVL252
 9950 2819 01390000 		.4byte	0x3901
 9951 281d 30       		.uleb128 0x30
 9952 281e 44000000 		.4byte	.LVL253
 9953 2822 3B150000 		.4byte	0x153b
 9954 2826 31280000 		.4byte	0x2831
 9955 282a 31       		.uleb128 0x31
 9956 282b 01       		.uleb128 0x1
 9957 282c 50       		.byte	0x50
 9958 282d 02       		.uleb128 0x2
 9959 282e 74       		.byte	0x74
 9960 282f 00       		.sleb128 0
 9961 2830 00       		.byte	0
 9962 2831 41       		.uleb128 0x41
 9963 2832 4E000000 		.4byte	.LVL256
 9964 2836 0D390000 		.4byte	0x390d
 9965 283a 30       		.uleb128 0x30
 9966 283b 5E000000 		.4byte	.LVL257
 9967 283f 22390000 		.4byte	0x3922
 9968 2843 57280000 		.4byte	0x2857
 9969 2847 31       		.uleb128 0x31
 9970 2848 01       		.uleb128 0x1
 9971 2849 52       		.byte	0x52
 9972 284a 02       		.uleb128 0x2
 9973 284b 74       		.byte	0x74
 9974 284c 00       		.sleb128 0
 9975 284d 31       		.uleb128 0x31
 9976 284e 01       		.uleb128 0x1
 9977 284f 51       		.byte	0x51
 9978 2850 05       		.uleb128 0x5
 9979 2851 03       		.byte	0x3
 9980 2852 00000000 		.4byte	recv_raw
 9981 2856 00       		.byte	0
 9982 2857 41       		.uleb128 0x41
 9983 2858 66000000 		.4byte	.LVL259
 9984 285c 3D390000 		.4byte	0x393d
 9985 2860 33       		.uleb128 0x33
 9986 2861 84000000 		.4byte	.LVL260
 9987 2865 48390000 		.4byte	0x3948
 9988 2869 31       		.uleb128 0x31
 9989 286a 01       		.uleb128 0x1
 9990 286b 52       		.byte	0x52
ARM GAS  C:\Users\jo\AppData\Local\Temp\ccLDsGlj.s 			page 179


 9991 286c 02       		.uleb128 0x2
 9992 286d 74       		.byte	0x74
 9993 286e 00       		.sleb128 0
 9994 286f 31       		.uleb128 0x31
 9995 2870 01       		.uleb128 0x1
 9996 2871 51       		.byte	0x51
 9997 2872 05       		.uleb128 0x5
 9998 2873 03       		.byte	0x3
 9999 2874 00000000 		.4byte	recv_udp
 10000 2878 00       		.byte	0
 10001 2879 00       		.byte	0
 10002 287a 50       		.uleb128 0x50
 10003 287b 18000000 		.4byte	.LVL251
 10004 287f 88380000 		.4byte	0x3888
 10005 2883 00       		.byte	0
 10006 2884 52       		.uleb128 0x52
 10007 2885 1A0F0000 		.4byte	.LASF383
 10008 2889 01       		.byte	0x1
 10009 288a 3C02     		.2byte	0x23c
 10010 288c 170B0000 		.4byte	0xb17
 10011 2890 00000000 		.4byte	.LFB266
 10012 2894 AC000000 		.4byte	.LFE266-.LFB266
 10013 2898 01       		.uleb128 0x1
 10014 2899 9C       		.byte	0x9c
 10015 289a CE290000 		.4byte	0x29ce
 10016 289e 46       		.uleb128 0x46
 10017 289f 7400     		.ascii	"t\000"
 10018 28a1 01       		.byte	0x1
 10019 28a2 3C02     		.2byte	0x23c
 10020 28a4 690A0000 		.4byte	0xa69
 10021 28a8 5B100000 		.4byte	.LLST81
 10022 28ac 35       		.uleb128 0x35
 10023 28ad 810F0000 		.4byte	.LASF181
 10024 28b1 01       		.byte	0x1
 10025 28b2 3C02     		.2byte	0x23c
 10026 28b4 F10A0000 		.4byte	0xaf1
 10027 28b8 7C100000 		.4byte	.LLST82
 10028 28bc 3E       		.uleb128 0x3e
 10029 28bd B1050000 		.4byte	.LASF235
 10030 28c1 01       		.byte	0x1
 10031 28c2 3E02     		.2byte	0x23e
 10032 28c4 170B0000 		.4byte	0xb17
 10033 28c8 9A100000 		.4byte	.LLST83
 10034 28cc 3E       		.uleb128 0x3e
 10035 28cd 95090000 		.4byte	.LASF303
 10036 28d1 01       		.byte	0x1
 10037 28d2 3F02     		.2byte	0x23f
 10038 28d4 25000000 		.4byte	0x25
 10039 28d8 E4100000 		.4byte	.LLST84
 10040 28dc 44       		.uleb128 0x44
 10041 28dd 62080000 		.4byte	.LASF305
 10042 28e1 01       		.byte	0x1
 10043 28e2 8502     		.2byte	0x285
 10044 28e4 42000000 		.4byte	.L318
 10045 28e8 3F       		.uleb128 0x3f
 10046 28e9 5B130000 		.4byte	0x135b
 10047 28ed 3C000000 		.4byte	.LBB156
ARM GAS  C:\Users\jo\AppData\Local\Temp\ccLDsGlj.s 			page 180


 10048 28f1 06000000 		.4byte	.LBE156-.LBB156
 10049 28f5 01       		.byte	0x1
 10050 28f6 5F02     		.2byte	0x25f
 10051 28f8 19290000 		.4byte	0x2919
 10052 28fc 39       		.uleb128 0x39
 10053 28fd 68130000 		.4byte	0x1368
 10054 2901 F7100000 		.4byte	.LLST85
 10055 2905 33       		.uleb128 0x33
 10056 2906 42000000 		.4byte	.LVL266
 10057 290a 40380000 		.4byte	0x3840
 10058 290e 31       		.uleb128 0x31
 10059 290f 01       		.uleb128 0x1
 10060 2910 50       		.byte	0x50
 10061 2911 05       		.uleb128 0x5
 10062 2912 03       		.byte	0x3
 10063 2913 E0020000 		.4byte	.LC22
 10064 2917 00       		.byte	0
 10065 2918 00       		.byte	0
 10066 2919 30       		.uleb128 0x30
 10067 291a 0E000000 		.4byte	.LVL263
 10068 291e 00370000 		.4byte	0x3700
 10069 2922 2C290000 		.4byte	0x292c
 10070 2926 31       		.uleb128 0x31
 10071 2927 01       		.uleb128 0x1
 10072 2928 50       		.byte	0x50
 10073 2929 01       		.uleb128 0x1
 10074 292a 38       		.byte	0x38
 10075 292b 00       		.byte	0
 10076 292c 30       		.uleb128 0x30
 10077 292d 3C000000 		.4byte	.LVL265
 10078 2931 FC150000 		.4byte	0x15fc
 10079 2935 5D290000 		.4byte	0x295d
 10080 2939 31       		.uleb128 0x31
 10081 293a 01       		.uleb128 0x1
 10082 293b 53       		.byte	0x53
 10083 293c 03       		.uleb128 0x3
 10084 293d 0A       		.byte	0xa
 10085 293e 5F02     		.2byte	0x25f
 10086 2940 31       		.uleb128 0x31
 10087 2941 01       		.uleb128 0x1
 10088 2942 52       		.byte	0x52
 10089 2943 05       		.uleb128 0x5
 10090 2944 03       		.byte	0x3
 10091 2945 E0020000 		.4byte	.LC22
 10092 2949 31       		.uleb128 0x31
 10093 294a 01       		.uleb128 0x1
 10094 294b 51       		.byte	0x51
 10095 294c 05       		.uleb128 0x5
 10096 294d 03       		.byte	0x3
 10097 294e 00000000 		.4byte	.LC0
 10098 2952 31       		.uleb128 0x31
 10099 2953 02       		.uleb128 0x2
 10100 2954 7D       		.byte	0x7d
 10101 2955 00       		.sleb128 0
 10102 2956 05       		.uleb128 0x5
 10103 2957 03       		.byte	0x3
 10104 2958 4C000000 		.4byte	.LC2
ARM GAS  C:\Users\jo\AppData\Local\Temp\ccLDsGlj.s 			page 181


 10105 295c 00       		.byte	0
 10106 295d 30       		.uleb128 0x30
 10107 295e 4A000000 		.4byte	.LVL267
 10108 2962 63390000 		.4byte	0x3963
 10109 2966 76290000 		.4byte	0x2976
 10110 296a 31       		.uleb128 0x31
 10111 296b 01       		.uleb128 0x1
 10112 296c 51       		.byte	0x51
 10113 296d 02       		.uleb128 0x2
 10114 296e 74       		.byte	0x74
 10115 296f 00       		.sleb128 0
 10116 2970 31       		.uleb128 0x31
 10117 2971 01       		.uleb128 0x1
 10118 2972 50       		.byte	0x50
 10119 2973 01       		.uleb128 0x1
 10120 2974 38       		.byte	0x38
 10121 2975 00       		.byte	0
 10122 2976 30       		.uleb128 0x30
 10123 2977 5E000000 		.4byte	.LVL271
 10124 297b 79390000 		.4byte	0x3979
 10125 297f 8F290000 		.4byte	0x298f
 10126 2983 31       		.uleb128 0x31
 10127 2984 01       		.uleb128 0x1
 10128 2985 51       		.byte	0x51
 10129 2986 01       		.uleb128 0x1
 10130 2987 30       		.byte	0x30
 10131 2988 31       		.uleb128 0x31
 10132 2989 01       		.uleb128 0x1
 10133 298a 50       		.byte	0x50
 10134 298b 02       		.uleb128 0x2
 10135 298c 77       		.byte	0x77
 10136 298d 00       		.sleb128 0
 10137 298e 00       		.byte	0
 10138 298f 30       		.uleb128 0x30
 10139 2990 6C000000 		.4byte	.LVL272
 10140 2994 93390000 		.4byte	0x3993
 10141 2998 A9290000 		.4byte	0x29a9
 10142 299c 31       		.uleb128 0x31
 10143 299d 01       		.uleb128 0x1
 10144 299e 51       		.byte	0x51
 10145 299f 02       		.uleb128 0x2
 10146 29a0 75       		.byte	0x75
 10147 29a1 00       		.sleb128 0
 10148 29a2 31       		.uleb128 0x31
 10149 29a3 01       		.uleb128 0x1
 10150 29a4 50       		.byte	0x50
 10151 29a5 02       		.uleb128 0x2
 10152 29a6 74       		.byte	0x74
 10153 29a7 10       		.sleb128 16
 10154 29a8 00       		.byte	0
 10155 29a9 30       		.uleb128 0x30
 10156 29aa 78000000 		.4byte	.LVL274
 10157 29ae AD390000 		.4byte	0x39ad
 10158 29b2 BD290000 		.4byte	0x29bd
 10159 29b6 31       		.uleb128 0x31
 10160 29b7 01       		.uleb128 0x1
 10161 29b8 50       		.byte	0x50
ARM GAS  C:\Users\jo\AppData\Local\Temp\ccLDsGlj.s 			page 182


 10162 29b9 02       		.uleb128 0x2
 10163 29ba 74       		.byte	0x74
 10164 29bb 14       		.sleb128 20
 10165 29bc 00       		.byte	0
 10166 29bd 33       		.uleb128 0x33
 10167 29be 98000000 		.4byte	.LVL277
 10168 29c2 BE390000 		.4byte	0x39be
 10169 29c6 31       		.uleb128 0x31
 10170 29c7 01       		.uleb128 0x1
 10171 29c8 50       		.byte	0x50
 10172 29c9 02       		.uleb128 0x2
 10173 29ca 77       		.byte	0x77
 10174 29cb 00       		.sleb128 0
 10175 29cc 00       		.byte	0
 10176 29cd 00       		.byte	0
 10177 29ce 51       		.uleb128 0x51
 10178 29cf 1D010000 		.4byte	.LASF307
 10179 29d3 01       		.byte	0x1
 10180 29d4 9102     		.2byte	0x291
 10181 29d6 00000000 		.4byte	.LFB267
 10182 29da A0000000 		.4byte	.LFE267-.LFB267
 10183 29de 01       		.uleb128 0x1
 10184 29df 9C       		.byte	0x9c
 10185 29e0 842B0000 		.4byte	0x2b84
 10186 29e4 35       		.uleb128 0x35
 10187 29e5 B1050000 		.4byte	.LASF235
 10188 29e9 01       		.byte	0x1
 10189 29ea 9102     		.2byte	0x291
 10190 29ec 170B0000 		.4byte	0xb17
 10191 29f0 0F110000 		.4byte	.LLST86
 10192 29f4 3F       		.uleb128 0x3f
 10193 29f5 5B130000 		.4byte	0x135b
 10194 29f9 1C000000 		.4byte	.LBB158
 10195 29fd 06000000 		.4byte	.LBE158-.LBB158
 10196 2a01 01       		.byte	0x1
 10197 2a02 9302     		.2byte	0x293
 10198 2a04 252A0000 		.4byte	0x2a25
 10199 2a08 39       		.uleb128 0x39
 10200 2a09 68130000 		.4byte	0x1368
 10201 2a0d 51110000 		.4byte	.LLST87
 10202 2a11 33       		.uleb128 0x33
 10203 2a12 22000000 		.4byte	.LVL281
 10204 2a16 40380000 		.4byte	0x3840
 10205 2a1a 31       		.uleb128 0x31
 10206 2a1b 01       		.uleb128 0x1
 10207 2a1c 50       		.byte	0x50
 10208 2a1d 05       		.uleb128 0x5
 10209 2a1e 03       		.byte	0x3
 10210 2a1f 08030000 		.4byte	.LC23
 10211 2a23 00       		.byte	0
 10212 2a24 00       		.byte	0
 10213 2a25 3F       		.uleb128 0x3f
 10214 2a26 5B130000 		.4byte	0x135b
 10215 2a2a 48000000 		.4byte	.LBB160
 10216 2a2e 06000000 		.4byte	.LBE160-.LBB160
 10217 2a32 01       		.byte	0x1
 10218 2a33 9702     		.2byte	0x297
ARM GAS  C:\Users\jo\AppData\Local\Temp\ccLDsGlj.s 			page 183


 10219 2a35 562A0000 		.4byte	0x2a56
 10220 2a39 39       		.uleb128 0x39
 10221 2a3a 68130000 		.4byte	0x1368
 10222 2a3e 69110000 		.4byte	.LLST88
 10223 2a42 33       		.uleb128 0x33
 10224 2a43 4E000000 		.4byte	.LVL285
 10225 2a47 40380000 		.4byte	0x3840
 10226 2a4b 31       		.uleb128 0x31
 10227 2a4c 01       		.uleb128 0x1
 10228 2a4d 50       		.byte	0x50
 10229 2a4e 05       		.uleb128 0x5
 10230 2a4f 03       		.byte	0x3
 10231 2a50 74030000 		.4byte	.LC25
 10232 2a54 00       		.byte	0
 10233 2a55 00       		.byte	0
 10234 2a56 3F       		.uleb128 0x3f
 10235 2a57 5B130000 		.4byte	0x135b
 10236 2a5b 7E000000 		.4byte	.LBB162
 10237 2a5f 22000000 		.4byte	.LBE162-.LBB162
 10238 2a63 01       		.byte	0x1
 10239 2a64 9402     		.2byte	0x294
 10240 2a66 8A2A0000 		.4byte	0x2a8a
 10241 2a6a 3A       		.uleb128 0x3a
 10242 2a6b 68130000 		.4byte	0x1368
 10243 2a6f 06       		.uleb128 0x6
 10244 2a70 03       		.byte	0x3
 10245 2a71 38030000 		.4byte	.LC24
 10246 2a75 9F       		.byte	0x9f
 10247 2a76 33       		.uleb128 0x33
 10248 2a77 84000000 		.4byte	.LVL291
 10249 2a7b 40380000 		.4byte	0x3840
 10250 2a7f 31       		.uleb128 0x31
 10251 2a80 01       		.uleb128 0x1
 10252 2a81 50       		.byte	0x50
 10253 2a82 05       		.uleb128 0x5
 10254 2a83 03       		.byte	0x3
 10255 2a84 38030000 		.4byte	.LC24
 10256 2a88 00       		.byte	0
 10257 2a89 00       		.byte	0
 10258 2a8a 30       		.uleb128 0x30
 10259 2a8b 1C000000 		.4byte	.LVL280
 10260 2a8f FC150000 		.4byte	0x15fc
 10261 2a93 BB2A0000 		.4byte	0x2abb
 10262 2a97 31       		.uleb128 0x31
 10263 2a98 01       		.uleb128 0x1
 10264 2a99 53       		.byte	0x53
 10265 2a9a 03       		.uleb128 0x3
 10266 2a9b 0A       		.byte	0xa
 10267 2a9c 9302     		.2byte	0x293
 10268 2a9e 31       		.uleb128 0x31
 10269 2a9f 01       		.uleb128 0x1
 10270 2aa0 52       		.byte	0x52
 10271 2aa1 05       		.uleb128 0x5
 10272 2aa2 03       		.byte	0x3
 10273 2aa3 08030000 		.4byte	.LC23
 10274 2aa7 31       		.uleb128 0x31
 10275 2aa8 01       		.uleb128 0x1
ARM GAS  C:\Users\jo\AppData\Local\Temp\ccLDsGlj.s 			page 184


 10276 2aa9 51       		.byte	0x51
 10277 2aaa 05       		.uleb128 0x5
 10278 2aab 03       		.byte	0x3
 10279 2aac 00000000 		.4byte	.LC0
 10280 2ab0 31       		.uleb128 0x31
 10281 2ab1 02       		.uleb128 0x2
 10282 2ab2 7D       		.byte	0x7d
 10283 2ab3 00       		.sleb128 0
 10284 2ab4 05       		.uleb128 0x5
 10285 2ab5 03       		.byte	0x3
 10286 2ab6 4C000000 		.4byte	.LC2
 10287 2aba 00       		.byte	0
 10288 2abb 30       		.uleb128 0x30
 10289 2abc 2A000000 		.4byte	.LVL282
 10290 2ac0 5B370000 		.4byte	0x375b
 10291 2ac4 CF2A0000 		.4byte	0x2acf
 10292 2ac8 31       		.uleb128 0x31
 10293 2ac9 01       		.uleb128 0x1
 10294 2aca 50       		.byte	0x50
 10295 2acb 02       		.uleb128 0x2
 10296 2acc 74       		.byte	0x74
 10297 2acd 10       		.sleb128 16
 10298 2ace 00       		.byte	0
 10299 2acf 30       		.uleb128 0x30
 10300 2ad0 34000000 		.4byte	.LVL283
 10301 2ad4 5B370000 		.4byte	0x375b
 10302 2ad8 E32A0000 		.4byte	0x2ae3
 10303 2adc 31       		.uleb128 0x31
 10304 2add 01       		.uleb128 0x1
 10305 2ade 50       		.byte	0x50
 10306 2adf 02       		.uleb128 0x2
 10307 2ae0 74       		.byte	0x74
 10308 2ae1 14       		.sleb128 20
 10309 2ae2 00       		.byte	0
 10310 2ae3 30       		.uleb128 0x30
 10311 2ae4 48000000 		.4byte	.LVL284
 10312 2ae8 FC150000 		.4byte	0x15fc
 10313 2aec 142B0000 		.4byte	0x2b14
 10314 2af0 31       		.uleb128 0x31
 10315 2af1 01       		.uleb128 0x1
 10316 2af2 53       		.byte	0x53
 10317 2af3 03       		.uleb128 0x3
 10318 2af4 0A       		.byte	0xa
 10319 2af5 9802     		.2byte	0x298
 10320 2af7 31       		.uleb128 0x31
 10321 2af8 01       		.uleb128 0x1
 10322 2af9 52       		.byte	0x52
 10323 2afa 05       		.uleb128 0x5
 10324 2afb 03       		.byte	0x3
 10325 2afc 74030000 		.4byte	.LC25
 10326 2b00 31       		.uleb128 0x31
 10327 2b01 01       		.uleb128 0x1
 10328 2b02 51       		.byte	0x51
 10329 2b03 05       		.uleb128 0x5
 10330 2b04 03       		.byte	0x3
 10331 2b05 00000000 		.4byte	.LC0
 10332 2b09 31       		.uleb128 0x31
ARM GAS  C:\Users\jo\AppData\Local\Temp\ccLDsGlj.s 			page 185


 10333 2b0a 02       		.uleb128 0x2
 10334 2b0b 7D       		.byte	0x7d
 10335 2b0c 00       		.sleb128 0
 10336 2b0d 05       		.uleb128 0x5
 10337 2b0e 03       		.byte	0x3
 10338 2b0f 4C000000 		.4byte	.LC2
 10339 2b13 00       		.byte	0
 10340 2b14 30       		.uleb128 0x30
 10341 2b15 58000000 		.4byte	.LVL286
 10342 2b19 BE390000 		.4byte	0x39be
 10343 2b1d 282B0000 		.4byte	0x2b28
 10344 2b21 31       		.uleb128 0x31
 10345 2b22 01       		.uleb128 0x1
 10346 2b23 50       		.byte	0x50
 10347 2b24 02       		.uleb128 0x2
 10348 2b25 75       		.byte	0x75
 10349 2b26 00       		.sleb128 0
 10350 2b27 00       		.byte	0
 10351 2b28 30       		.uleb128 0x30
 10352 2b29 5E000000 		.4byte	.LVL287
 10353 2b2d CF390000 		.4byte	0x39cf
 10354 2b31 3C2B0000 		.4byte	0x2b3c
 10355 2b35 31       		.uleb128 0x31
 10356 2b36 01       		.uleb128 0x1
 10357 2b37 50       		.byte	0x50
 10358 2b38 02       		.uleb128 0x2
 10359 2b39 75       		.byte	0x75
 10360 2b3a 00       		.sleb128 0
 10361 2b3b 00       		.byte	0
 10362 2b3c 40       		.uleb128 0x40
 10363 2b3d 6C000000 		.4byte	.LVL289
 10364 2b41 63390000 		.4byte	0x3963
 10365 2b45 562B0000 		.4byte	0x2b56
 10366 2b49 31       		.uleb128 0x31
 10367 2b4a 01       		.uleb128 0x1
 10368 2b4b 51       		.byte	0x51
 10369 2b4c 03       		.uleb128 0x3
 10370 2b4d F3       		.byte	0xf3
 10371 2b4e 01       		.uleb128 0x1
 10372 2b4f 50       		.byte	0x50
 10373 2b50 31       		.uleb128 0x31
 10374 2b51 01       		.uleb128 0x1
 10375 2b52 50       		.byte	0x50
 10376 2b53 01       		.uleb128 0x1
 10377 2b54 38       		.byte	0x38
 10378 2b55 00       		.byte	0
 10379 2b56 33       		.uleb128 0x33
 10380 2b57 7E000000 		.4byte	.LVL290
 10381 2b5b FC150000 		.4byte	0x15fc
 10382 2b5f 31       		.uleb128 0x31
 10383 2b60 01       		.uleb128 0x1
 10384 2b61 53       		.byte	0x53
 10385 2b62 03       		.uleb128 0x3
 10386 2b63 0A       		.byte	0xa
 10387 2b64 9502     		.2byte	0x295
 10388 2b66 31       		.uleb128 0x31
 10389 2b67 01       		.uleb128 0x1
ARM GAS  C:\Users\jo\AppData\Local\Temp\ccLDsGlj.s 			page 186


 10390 2b68 52       		.byte	0x52
 10391 2b69 05       		.uleb128 0x5
 10392 2b6a 03       		.byte	0x3
 10393 2b6b 38030000 		.4byte	.LC24
 10394 2b6f 31       		.uleb128 0x31
 10395 2b70 01       		.uleb128 0x1
 10396 2b71 51       		.byte	0x51
 10397 2b72 05       		.uleb128 0x5
 10398 2b73 03       		.byte	0x3
 10399 2b74 00000000 		.4byte	.LC0
 10400 2b78 31       		.uleb128 0x31
 10401 2b79 02       		.uleb128 0x2
 10402 2b7a 7D       		.byte	0x7d
 10403 2b7b 00       		.sleb128 0
 10404 2b7c 05       		.uleb128 0x5
 10405 2b7d 03       		.byte	0x3
 10406 2b7e 4C000000 		.4byte	.LC2
 10407 2b82 00       		.byte	0
 10408 2b83 00       		.byte	0
 10409 2b84 34       		.uleb128 0x34
 10410 2b85 F0080000 		.4byte	.LASF308
 10411 2b89 01       		.byte	0x1
 10412 2b8a AA02     		.2byte	0x2aa
 10413 2b8c 00000000 		.4byte	.LFB268
 10414 2b90 E0000000 		.4byte	.LFE268-.LFB268
 10415 2b94 01       		.uleb128 0x1
 10416 2b95 9C       		.byte	0x9c
 10417 2b96 5E2D0000 		.4byte	0x2d5e
 10418 2b9a 35       		.uleb128 0x35
 10419 2b9b B1050000 		.4byte	.LASF235
 10420 2b9f 01       		.byte	0x1
 10421 2ba0 AA02     		.2byte	0x2aa
 10422 2ba2 170B0000 		.4byte	0xb17
 10423 2ba6 81110000 		.4byte	.LLST89
 10424 2baa 53       		.uleb128 0x53
 10425 2bab 6D656D00 		.ascii	"mem\000"
 10426 2baf 01       		.byte	0x1
 10427 2bb0 AC02     		.2byte	0x2ac
 10428 2bb2 47030000 		.4byte	0x347
 10429 2bb6 02       		.uleb128 0x2
 10430 2bb7 91       		.byte	0x91
 10431 2bb8 5C       		.sleb128 -36
 10432 2bb9 36       		.uleb128 0x36
 10433 2bba 7000     		.ascii	"p\000"
 10434 2bbc 01       		.byte	0x1
 10435 2bbd AE02     		.2byte	0x2ae
 10436 2bbf 220A0000 		.4byte	0xa22
 10437 2bc3 9F110000 		.4byte	.LLST90
 10438 2bc7 49       		.uleb128 0x49
 10439 2bc8 66000000 		.4byte	.LBB164
 10440 2bcc 42000000 		.4byte	.LBE164-.LBB164
 10441 2bd0 712C0000 		.4byte	0x2c71
 10442 2bd4 3E       		.uleb128 0x3e
 10443 2bd5 F20F0000 		.4byte	.LASF309
 10444 2bd9 01       		.byte	0x1
 10445 2bda CE02     		.2byte	0x2ce
 10446 2bdc 170B0000 		.4byte	0xb17
ARM GAS  C:\Users\jo\AppData\Local\Temp\ccLDsGlj.s 			page 187


 10447 2be0 B2110000 		.4byte	.LLST91
 10448 2be4 3F       		.uleb128 0x3f
 10449 2be5 5B130000 		.4byte	0x135b
 10450 2be9 8A000000 		.4byte	.LBB165
 10451 2bed 06000000 		.4byte	.LBE165-.LBB165
 10452 2bf1 01       		.byte	0x1
 10453 2bf2 D202     		.2byte	0x2d2
 10454 2bf4 152C0000 		.4byte	0x2c15
 10455 2bf8 39       		.uleb128 0x39
 10456 2bf9 68130000 		.4byte	0x1368
 10457 2bfd C5110000 		.4byte	.LLST92
 10458 2c01 33       		.uleb128 0x33
 10459 2c02 90000000 		.4byte	.LVL306
 10460 2c06 40380000 		.4byte	0x3840
 10461 2c0a 31       		.uleb128 0x31
 10462 2c0b 01       		.uleb128 0x1
 10463 2c0c 50       		.byte	0x50
 10464 2c0d 05       		.uleb128 0x5
 10465 2c0e 03       		.byte	0x3
 10466 2c0f B0030000 		.4byte	.LC26
 10467 2c13 00       		.byte	0
 10468 2c14 00       		.byte	0
 10469 2c15 30       		.uleb128 0x30
 10470 2c16 8A000000 		.4byte	.LVL305
 10471 2c1a FC150000 		.4byte	0x15fc
 10472 2c1e 432C0000 		.4byte	0x2c43
 10473 2c22 31       		.uleb128 0x31
 10474 2c23 01       		.uleb128 0x1
 10475 2c24 53       		.byte	0x53
 10476 2c25 03       		.uleb128 0x3
 10477 2c26 0A       		.byte	0xa
 10478 2c27 D202     		.2byte	0x2d2
 10479 2c29 31       		.uleb128 0x31
 10480 2c2a 01       		.uleb128 0x1
 10481 2c2b 52       		.byte	0x52
 10482 2c2c 05       		.uleb128 0x5
 10483 2c2d 03       		.byte	0x3
 10484 2c2e B0030000 		.4byte	.LC26
 10485 2c32 31       		.uleb128 0x31
 10486 2c33 01       		.uleb128 0x1
 10487 2c34 51       		.byte	0x51
 10488 2c35 05       		.uleb128 0x5
 10489 2c36 03       		.byte	0x3
 10490 2c37 00000000 		.4byte	.LC0
 10491 2c3b 31       		.uleb128 0x31
 10492 2c3c 02       		.uleb128 0x2
 10493 2c3d 7D       		.byte	0x7d
 10494 2c3e 00       		.sleb128 0
 10495 2c3f 02       		.uleb128 0x2
 10496 2c40 79       		.byte	0x79
 10497 2c41 00       		.sleb128 0
 10498 2c42 00       		.byte	0
 10499 2c43 30       		.uleb128 0x30
 10500 2c44 96000000 		.4byte	.LVL307
 10501 2c48 842B0000 		.4byte	0x2b84
 10502 2c4c 572C0000 		.4byte	0x2c57
 10503 2c50 31       		.uleb128 0x31
ARM GAS  C:\Users\jo\AppData\Local\Temp\ccLDsGlj.s 			page 188


 10504 2c51 01       		.uleb128 0x1
 10505 2c52 50       		.byte	0x50
 10506 2c53 02       		.uleb128 0x2
 10507 2c54 74       		.byte	0x74
 10508 2c55 00       		.sleb128 0
 10509 2c56 00       		.byte	0
 10510 2c57 41       		.uleb128 0x41
 10511 2c58 9E000000 		.4byte	.LVL308
 10512 2c5c E0390000 		.4byte	0x39e0
 10513 2c60 33       		.uleb128 0x33
 10514 2c61 A8000000 		.4byte	.LVL309
 10515 2c65 CE290000 		.4byte	0x29ce
 10516 2c69 31       		.uleb128 0x31
 10517 2c6a 01       		.uleb128 0x1
 10518 2c6b 50       		.byte	0x50
 10519 2c6c 02       		.uleb128 0x2
 10520 2c6d 74       		.byte	0x74
 10521 2c6e 00       		.sleb128 0
 10522 2c6f 00       		.byte	0
 10523 2c70 00       		.byte	0
 10524 2c71 30       		.uleb128 0x30
 10525 2c72 12000000 		.4byte	.LVL294
 10526 2c76 5B370000 		.4byte	0x375b
 10527 2c7a 852C0000 		.4byte	0x2c85
 10528 2c7e 31       		.uleb128 0x31
 10529 2c7f 01       		.uleb128 0x1
 10530 2c80 50       		.byte	0x50
 10531 2c81 02       		.uleb128 0x2
 10532 2c82 74       		.byte	0x74
 10533 2c83 00       		.sleb128 0
 10534 2c84 00       		.byte	0
 10535 2c85 30       		.uleb128 0x30
 10536 2c86 1E000000 		.4byte	.LVL295
 10537 2c8a F2390000 		.4byte	0x39f2
 10538 2c8e 9F2C0000 		.4byte	0x2c9f
 10539 2c92 31       		.uleb128 0x31
 10540 2c93 01       		.uleb128 0x1
 10541 2c94 51       		.byte	0x51
 10542 2c95 02       		.uleb128 0x2
 10543 2c96 77       		.byte	0x77
 10544 2c97 00       		.sleb128 0
 10545 2c98 31       		.uleb128 0x31
 10546 2c99 01       		.uleb128 0x1
 10547 2c9a 50       		.byte	0x50
 10548 2c9b 02       		.uleb128 0x2
 10549 2c9c 74       		.byte	0x74
 10550 2c9d 00       		.sleb128 0
 10551 2c9e 00       		.byte	0
 10552 2c9f 41       		.uleb128 0x41
 10553 2ca0 3A000000 		.4byte	.LVL297
 10554 2ca4 51380000 		.4byte	0x3851
 10555 2ca8 30       		.uleb128 0x30
 10556 2ca9 40000000 		.4byte	.LVL298
 10557 2cad 35370000 		.4byte	0x3735
 10558 2cb1 BC2C0000 		.4byte	0x2cbc
 10559 2cb5 31       		.uleb128 0x31
 10560 2cb6 01       		.uleb128 0x1
ARM GAS  C:\Users\jo\AppData\Local\Temp\ccLDsGlj.s 			page 189


 10561 2cb7 50       		.byte	0x50
 10562 2cb8 02       		.uleb128 0x2
 10563 2cb9 75       		.byte	0x75
 10564 2cba 00       		.sleb128 0
 10565 2cbb 00       		.byte	0
 10566 2cbc 30       		.uleb128 0x30
 10567 2cbd 48000000 		.4byte	.LVL299
 10568 2cc1 F2390000 		.4byte	0x39f2
 10569 2cc5 D62C0000 		.4byte	0x2cd6
 10570 2cc9 31       		.uleb128 0x31
 10571 2cca 01       		.uleb128 0x1
 10572 2ccb 51       		.byte	0x51
 10573 2ccc 02       		.uleb128 0x2
 10574 2ccd 77       		.byte	0x77
 10575 2cce 00       		.sleb128 0
 10576 2ccf 31       		.uleb128 0x31
 10577 2cd0 01       		.uleb128 0x1
 10578 2cd1 50       		.byte	0x50
 10579 2cd2 02       		.uleb128 0x2
 10580 2cd3 74       		.byte	0x74
 10581 2cd4 00       		.sleb128 0
 10582 2cd5 00       		.byte	0
 10583 2cd6 30       		.uleb128 0x30
 10584 2cd7 52000000 		.4byte	.LVL301
 10585 2cdb 123A0000 		.4byte	0x3a12
 10586 2cdf EA2C0000 		.4byte	0x2cea
 10587 2ce3 31       		.uleb128 0x31
 10588 2ce4 01       		.uleb128 0x1
 10589 2ce5 50       		.byte	0x50
 10590 2ce6 02       		.uleb128 0x2
 10591 2ce7 74       		.byte	0x74
 10592 2ce8 00       		.sleb128 0
 10593 2ce9 00       		.byte	0
 10594 2cea 30       		.uleb128 0x30
 10595 2ceb 58000000 		.4byte	.LVL302
 10596 2cef AD390000 		.4byte	0x39ad
 10597 2cf3 FE2C0000 		.4byte	0x2cfe
 10598 2cf7 31       		.uleb128 0x31
 10599 2cf8 01       		.uleb128 0x1
 10600 2cf9 50       		.byte	0x50
 10601 2cfa 02       		.uleb128 0x2
 10602 2cfb 74       		.byte	0x74
 10603 2cfc 00       		.sleb128 0
 10604 2cfd 00       		.byte	0
 10605 2cfe 30       		.uleb128 0x30
 10606 2cff 62000000 		.4byte	.LVL303
 10607 2d03 5B370000 		.4byte	0x375b
 10608 2d07 122D0000 		.4byte	0x2d12
 10609 2d0b 31       		.uleb128 0x31
 10610 2d0c 01       		.uleb128 0x1
 10611 2d0d 50       		.byte	0x50
 10612 2d0e 02       		.uleb128 0x2
 10613 2d0f 78       		.byte	0x78
 10614 2d10 00       		.sleb128 0
 10615 2d11 00       		.byte	0
 10616 2d12 30       		.uleb128 0x30
 10617 2d13 B0000000 		.4byte	.LVL310
ARM GAS  C:\Users\jo\AppData\Local\Temp\ccLDsGlj.s 			page 190


 10618 2d17 F2390000 		.4byte	0x39f2
 10619 2d1b 2C2D0000 		.4byte	0x2d2c
 10620 2d1f 31       		.uleb128 0x31
 10621 2d20 01       		.uleb128 0x1
 10622 2d21 51       		.byte	0x51
 10623 2d22 02       		.uleb128 0x2
 10624 2d23 77       		.byte	0x77
 10625 2d24 00       		.sleb128 0
 10626 2d25 31       		.uleb128 0x31
 10627 2d26 01       		.uleb128 0x1
 10628 2d27 50       		.byte	0x50
 10629 2d28 02       		.uleb128 0x2
 10630 2d29 78       		.byte	0x78
 10631 2d2a 00       		.sleb128 0
 10632 2d2b 00       		.byte	0
 10633 2d2c 30       		.uleb128 0x30
 10634 2d2d BA000000 		.4byte	.LVL311
 10635 2d31 123A0000 		.4byte	0x3a12
 10636 2d35 402D0000 		.4byte	0x2d40
 10637 2d39 31       		.uleb128 0x31
 10638 2d3a 01       		.uleb128 0x1
 10639 2d3b 50       		.byte	0x50
 10640 2d3c 02       		.uleb128 0x2
 10641 2d3d 78       		.byte	0x78
 10642 2d3e 00       		.sleb128 0
 10643 2d3f 00       		.byte	0
 10644 2d40 30       		.uleb128 0x30
 10645 2d41 C0000000 		.4byte	.LVL312
 10646 2d45 AD390000 		.4byte	0x39ad
 10647 2d49 542D0000 		.4byte	0x2d54
 10648 2d4d 31       		.uleb128 0x31
 10649 2d4e 01       		.uleb128 0x1
 10650 2d4f 50       		.byte	0x50
 10651 2d50 02       		.uleb128 0x2
 10652 2d51 78       		.byte	0x78
 10653 2d52 00       		.sleb128 0
 10654 2d53 00       		.byte	0
 10655 2d54 41       		.uleb128 0x41
 10656 2d55 CC000000 		.4byte	.LVL314
 10657 2d59 4A370000 		.4byte	0x374a
 10658 2d5d 00       		.byte	0
 10659 2d5e 42       		.uleb128 0x42
 10660 2d5f 46080000 		.4byte	.LASF310
 10661 2d63 01       		.byte	0x1
 10662 2d64 B001     		.2byte	0x1b0
 10663 2d66 3C090000 		.4byte	0x93c
 10664 2d6a 00000000 		.4byte	.LFB263
 10665 2d6e 9C000000 		.4byte	.LFE263-.LFB263
 10666 2d72 01       		.uleb128 0x1
 10667 2d73 9C       		.byte	0x9c
 10668 2d74 042F0000 		.4byte	0x2f04
 10669 2d78 46       		.uleb128 0x46
 10670 2d79 61726700 		.ascii	"arg\000"
 10671 2d7d 01       		.byte	0x1
 10672 2d7e B001     		.2byte	0x1b0
 10673 2d80 47030000 		.4byte	0x347
 10674 2d84 DD110000 		.4byte	.LLST93
ARM GAS  C:\Users\jo\AppData\Local\Temp\ccLDsGlj.s 			page 191


 10675 2d88 35       		.uleb128 0x35
 10676 2d89 B9080000 		.4byte	.LASF311
 10677 2d8d 01       		.byte	0x1
 10678 2d8e B001     		.2byte	0x1b0
 10679 2d90 EF0E0000 		.4byte	0xeef
 10680 2d94 22120000 		.4byte	.LLST94
 10681 2d98 46       		.uleb128 0x46
 10682 2d99 65727200 		.ascii	"err\000"
 10683 2d9d 01       		.byte	0x1
 10684 2d9e B001     		.2byte	0x1b0
 10685 2da0 3C090000 		.4byte	0x93c
 10686 2da4 40120000 		.4byte	.LLST95
 10687 2da8 3E       		.uleb128 0x3e
 10688 2da9 F20F0000 		.4byte	.LASF309
 10689 2dad 01       		.byte	0x1
 10690 2dae B201     		.2byte	0x1b2
 10691 2db0 170B0000 		.4byte	0xb17
 10692 2db4 61120000 		.4byte	.LLST96
 10693 2db8 3E       		.uleb128 0x3e
 10694 2db9 B1050000 		.4byte	.LASF235
 10695 2dbd 01       		.byte	0x1
 10696 2dbe B301     		.2byte	0x1b3
 10697 2dc0 170B0000 		.4byte	0xb17
 10698 2dc4 95120000 		.4byte	.LLST97
 10699 2dc8 49       		.uleb128 0x49
 10700 2dc9 52000000 		.4byte	.LBB167
 10701 2dcd 4A000000 		.4byte	.LBE167-.LBB167
 10702 2dd1 A02E0000 		.4byte	0x2ea0
 10703 2dd5 36       		.uleb128 0x36
 10704 2dd6 70636200 		.ascii	"pcb\000"
 10705 2dda 01       		.byte	0x1
 10706 2ddb CC01     		.2byte	0x1cc
 10707 2ddd EF0E0000 		.4byte	0xeef
 10708 2de1 DA120000 		.4byte	.LLST98
 10709 2de5 30       		.uleb128 0x30
 10710 2de6 5C000000 		.4byte	.LVL327
 10711 2dea A9370000 		.4byte	0x37a9
 10712 2dee FE2D0000 		.4byte	0x2dfe
 10713 2df2 31       		.uleb128 0x31
 10714 2df3 01       		.uleb128 0x1
 10715 2df4 51       		.byte	0x51
 10716 2df5 01       		.uleb128 0x1
 10717 2df6 30       		.byte	0x30
 10718 2df7 31       		.uleb128 0x31
 10719 2df8 01       		.uleb128 0x1
 10720 2df9 50       		.byte	0x50
 10721 2dfa 02       		.uleb128 0x2
 10722 2dfb 74       		.byte	0x74
 10723 2dfc 00       		.sleb128 0
 10724 2dfd 00       		.byte	0
 10725 2dfe 30       		.uleb128 0x30
 10726 2dff 64000000 		.4byte	.LVL328
 10727 2e03 C0370000 		.4byte	0x37c0
 10728 2e07 172E0000 		.4byte	0x2e17
 10729 2e0b 31       		.uleb128 0x31
 10730 2e0c 01       		.uleb128 0x1
 10731 2e0d 51       		.byte	0x51
ARM GAS  C:\Users\jo\AppData\Local\Temp\ccLDsGlj.s 			page 192


 10732 2e0e 01       		.uleb128 0x1
 10733 2e0f 30       		.byte	0x30
 10734 2e10 31       		.uleb128 0x31
 10735 2e11 01       		.uleb128 0x1
 10736 2e12 50       		.byte	0x50
 10737 2e13 02       		.uleb128 0x2
 10738 2e14 74       		.byte	0x74
 10739 2e15 00       		.sleb128 0
 10740 2e16 00       		.byte	0
 10741 2e17 30       		.uleb128 0x30
 10742 2e18 6C000000 		.4byte	.LVL329
 10743 2e1c D7370000 		.4byte	0x37d7
 10744 2e20 302E0000 		.4byte	0x2e30
 10745 2e24 31       		.uleb128 0x31
 10746 2e25 01       		.uleb128 0x1
 10747 2e26 51       		.byte	0x51
 10748 2e27 01       		.uleb128 0x1
 10749 2e28 30       		.byte	0x30
 10750 2e29 31       		.uleb128 0x31
 10751 2e2a 01       		.uleb128 0x1
 10752 2e2b 50       		.byte	0x50
 10753 2e2c 02       		.uleb128 0x2
 10754 2e2d 74       		.byte	0x74
 10755 2e2e 00       		.sleb128 0
 10756 2e2f 00       		.byte	0
 10757 2e30 30       		.uleb128 0x30
 10758 2e31 76000000 		.4byte	.LVL330
 10759 2e35 EE370000 		.4byte	0x37ee
 10760 2e39 4E2E0000 		.4byte	0x2e4e
 10761 2e3d 31       		.uleb128 0x31
 10762 2e3e 01       		.uleb128 0x1
 10763 2e3f 52       		.byte	0x52
 10764 2e40 01       		.uleb128 0x1
 10765 2e41 34       		.byte	0x34
 10766 2e42 31       		.uleb128 0x31
 10767 2e43 01       		.uleb128 0x1
 10768 2e44 51       		.byte	0x51
 10769 2e45 01       		.uleb128 0x1
 10770 2e46 30       		.byte	0x30
 10771 2e47 31       		.uleb128 0x31
 10772 2e48 01       		.uleb128 0x1
 10773 2e49 50       		.byte	0x50
 10774 2e4a 02       		.uleb128 0x2
 10775 2e4b 74       		.byte	0x74
 10776 2e4c 00       		.sleb128 0
 10777 2e4d 00       		.byte	0
 10778 2e4e 30       		.uleb128 0x30
 10779 2e4f 7E000000 		.4byte	.LVL331
 10780 2e53 0A380000 		.4byte	0x380a
 10781 2e57 672E0000 		.4byte	0x2e67
 10782 2e5b 31       		.uleb128 0x31
 10783 2e5c 01       		.uleb128 0x1
 10784 2e5d 51       		.byte	0x51
 10785 2e5e 01       		.uleb128 0x1
 10786 2e5f 30       		.byte	0x30
 10787 2e60 31       		.uleb128 0x31
 10788 2e61 01       		.uleb128 0x1
ARM GAS  C:\Users\jo\AppData\Local\Temp\ccLDsGlj.s 			page 193


 10789 2e62 50       		.byte	0x50
 10790 2e63 02       		.uleb128 0x2
 10791 2e64 74       		.byte	0x74
 10792 2e65 00       		.sleb128 0
 10793 2e66 00       		.byte	0
 10794 2e67 30       		.uleb128 0x30
 10795 2e68 8C000000 		.4byte	.LVL333
 10796 2e6c 123A0000 		.4byte	0x3a12
 10797 2e70 7B2E0000 		.4byte	0x2e7b
 10798 2e74 31       		.uleb128 0x31
 10799 2e75 01       		.uleb128 0x1
 10800 2e76 50       		.byte	0x50
 10801 2e77 02       		.uleb128 0x2
 10802 2e78 74       		.byte	0x74
 10803 2e79 00       		.sleb128 0
 10804 2e7a 00       		.byte	0
 10805 2e7b 30       		.uleb128 0x30
 10806 2e7c 92000000 		.4byte	.LVL334
 10807 2e80 AD390000 		.4byte	0x39ad
 10808 2e84 8F2E0000 		.4byte	0x2e8f
 10809 2e88 31       		.uleb128 0x31
 10810 2e89 01       		.uleb128 0x1
 10811 2e8a 50       		.byte	0x50
 10812 2e8b 02       		.uleb128 0x2
 10813 2e8c 74       		.byte	0x74
 10814 2e8d 00       		.sleb128 0
 10815 2e8e 00       		.byte	0
 10816 2e8f 33       		.uleb128 0x33
 10817 2e90 98000000 		.4byte	.LVL335
 10818 2e94 CE290000 		.4byte	0x29ce
 10819 2e98 31       		.uleb128 0x31
 10820 2e99 01       		.uleb128 0x1
 10821 2e9a 50       		.byte	0x50
 10822 2e9b 02       		.uleb128 0x2
 10823 2e9c 76       		.byte	0x76
 10824 2e9d 00       		.sleb128 0
 10825 2e9e 00       		.byte	0
 10826 2e9f 00       		.byte	0
 10827 2ea0 30       		.uleb128 0x30
 10828 2ea1 14000000 		.4byte	.LVL318
 10829 2ea5 5B370000 		.4byte	0x375b
 10830 2ea9 B42E0000 		.4byte	0x2eb4
 10831 2ead 31       		.uleb128 0x31
 10832 2eae 01       		.uleb128 0x1
 10833 2eaf 50       		.byte	0x50
 10834 2eb0 02       		.uleb128 0x2
 10835 2eb1 75       		.byte	0x75
 10836 2eb2 00       		.sleb128 0
 10837 2eb3 00       		.byte	0
 10838 2eb4 41       		.uleb128 0x41
 10839 2eb5 1E000000 		.4byte	.LVL319
 10840 2eb9 84280000 		.4byte	0x2884
 10841 2ebd 30       		.uleb128 0x30
 10842 2ebe 2A000000 		.4byte	.LVL320
 10843 2ec2 3B150000 		.4byte	0x153b
 10844 2ec6 D12E0000 		.4byte	0x2ed1
 10845 2eca 31       		.uleb128 0x31
ARM GAS  C:\Users\jo\AppData\Local\Temp\ccLDsGlj.s 			page 194


 10846 2ecb 01       		.uleb128 0x1
 10847 2ecc 50       		.byte	0x50
 10848 2ecd 02       		.uleb128 0x2
 10849 2ece 76       		.byte	0x76
 10850 2ecf 00       		.sleb128 0
 10851 2ed0 00       		.byte	0
 10852 2ed1 30       		.uleb128 0x30
 10853 2ed2 34000000 		.4byte	.LVL321
 10854 2ed6 15370000 		.4byte	0x3715
 10855 2eda EB2E0000 		.4byte	0x2eeb
 10856 2ede 31       		.uleb128 0x31
 10857 2edf 01       		.uleb128 0x1
 10858 2ee0 51       		.byte	0x51
 10859 2ee1 02       		.uleb128 0x2
 10860 2ee2 76       		.byte	0x76
 10861 2ee3 00       		.sleb128 0
 10862 2ee4 31       		.uleb128 0x31
 10863 2ee5 01       		.uleb128 0x1
 10864 2ee6 50       		.byte	0x50
 10865 2ee7 02       		.uleb128 0x2
 10866 2ee8 75       		.byte	0x75
 10867 2ee9 00       		.sleb128 0
 10868 2eea 00       		.byte	0
 10869 2eeb 45       		.uleb128 0x45
 10870 2eec 44000000 		.4byte	.LVL322
 10871 2ef0 31       		.uleb128 0x31
 10872 2ef1 01       		.uleb128 0x1
 10873 2ef2 52       		.byte	0x52
 10874 2ef3 02       		.uleb128 0x2
 10875 2ef4 75       		.byte	0x75
 10876 2ef5 00       		.sleb128 0
 10877 2ef6 31       		.uleb128 0x31
 10878 2ef7 01       		.uleb128 0x1
 10879 2ef8 51       		.byte	0x51
 10880 2ef9 02       		.uleb128 0x2
 10881 2efa 75       		.byte	0x75
 10882 2efb 00       		.sleb128 0
 10883 2efc 31       		.uleb128 0x31
 10884 2efd 01       		.uleb128 0x1
 10885 2efe 50       		.byte	0x50
 10886 2eff 02       		.uleb128 0x2
 10887 2f00 74       		.byte	0x74
 10888 2f01 00       		.sleb128 0
 10889 2f02 00       		.byte	0
 10890 2f03 00       		.byte	0
 10891 2f04 51       		.uleb128 0x51
 10892 2f05 76000000 		.4byte	.LASF312
 10893 2f09 01       		.byte	0x1
 10894 2f0a 4003     		.2byte	0x340
 10895 2f0c 00000000 		.4byte	.LFB270
 10896 2f10 30010000 		.4byte	.LFE270-.LFB270
 10897 2f14 01       		.uleb128 0x1
 10898 2f15 9C       		.byte	0x9c
 10899 2f16 BE300000 		.4byte	0x30be
 10900 2f1a 46       		.uleb128 0x46
 10901 2f1b 6D736700 		.ascii	"msg\000"
 10902 2f1f 01       		.byte	0x1
ARM GAS  C:\Users\jo\AppData\Local\Temp\ccLDsGlj.s 			page 195


 10903 2f20 4003     		.2byte	0x340
 10904 2f22 3C100000 		.4byte	0x103c
 10905 2f26 ED120000 		.4byte	.LLST99
 10906 2f2a 3F       		.uleb128 0x3f
 10907 2f2b 5B130000 		.4byte	0x135b
 10908 2f2f 2C000000 		.4byte	.LBB168
 10909 2f33 08000000 		.4byte	.LBE168-.LBB168
 10910 2f37 01       		.byte	0x1
 10911 2f38 4703     		.2byte	0x347
 10912 2f3a 5B2F0000 		.4byte	0x2f5b
 10913 2f3e 39       		.uleb128 0x39
 10914 2f3f 68130000 		.4byte	0x1368
 10915 2f43 5F130000 		.4byte	.LLST100
 10916 2f47 33       		.uleb128 0x33
 10917 2f48 32000000 		.4byte	.LVL339
 10918 2f4c 40380000 		.4byte	0x3840
 10919 2f50 31       		.uleb128 0x31
 10920 2f51 01       		.uleb128 0x1
 10921 2f52 50       		.byte	0x50
 10922 2f53 05       		.uleb128 0x5
 10923 2f54 03       		.byte	0x3
 10924 2f55 E0030000 		.4byte	.LC27
 10925 2f59 00       		.byte	0
 10926 2f5a 00       		.byte	0
 10927 2f5b 3F       		.uleb128 0x3f
 10928 2f5c 5B130000 		.4byte	0x135b
 10929 2f60 60000000 		.4byte	.LBB170
 10930 2f64 08000000 		.4byte	.LBE170-.LBB170
 10931 2f68 01       		.byte	0x1
 10932 2f69 4A03     		.2byte	0x34a
 10933 2f6b 8C2F0000 		.4byte	0x2f8c
 10934 2f6f 39       		.uleb128 0x39
 10935 2f70 68130000 		.4byte	0x1368
 10936 2f74 77130000 		.4byte	.LLST101
 10937 2f78 33       		.uleb128 0x33
 10938 2f79 66000000 		.4byte	.LVL345
 10939 2f7d 40380000 		.4byte	0x3840
 10940 2f81 31       		.uleb128 0x31
 10941 2f82 01       		.uleb128 0x1
 10942 2f83 50       		.byte	0x50
 10943 2f84 05       		.uleb128 0x5
 10944 2f85 03       		.byte	0x3
 10945 2f86 00040000 		.4byte	.LC28
 10946 2f8a 00       		.byte	0
 10947 2f8b 00       		.byte	0
 10948 2f8c 3F       		.uleb128 0x3f
 10949 2f8d 5B130000 		.4byte	0x135b
 10950 2f91 EA000000 		.4byte	.LBB172
 10951 2f95 08000000 		.4byte	.LBE172-.LBB172
 10952 2f99 01       		.byte	0x1
 10953 2f9a 5F03     		.2byte	0x35f
 10954 2f9c BD2F0000 		.4byte	0x2fbd
 10955 2fa0 39       		.uleb128 0x39
 10956 2fa1 68130000 		.4byte	0x1368
 10957 2fa5 8F130000 		.4byte	.LLST102
 10958 2fa9 33       		.uleb128 0x33
 10959 2faa F0000000 		.4byte	.LVL355
ARM GAS  C:\Users\jo\AppData\Local\Temp\ccLDsGlj.s 			page 196


 10960 2fae 40380000 		.4byte	0x3840
 10961 2fb2 31       		.uleb128 0x31
 10962 2fb3 01       		.uleb128 0x1
 10963 2fb4 50       		.byte	0x50
 10964 2fb5 05       		.uleb128 0x5
 10965 2fb6 03       		.byte	0x3
 10966 2fb7 20040000 		.4byte	.LC29
 10967 2fbb 00       		.byte	0
 10968 2fbc 00       		.byte	0
 10969 2fbd 30       		.uleb128 0x30
 10970 2fbe 2C000000 		.4byte	.LVL338
 10971 2fc2 FC150000 		.4byte	0x15fc
 10972 2fc6 EE2F0000 		.4byte	0x2fee
 10973 2fca 31       		.uleb128 0x31
 10974 2fcb 01       		.uleb128 0x1
 10975 2fcc 53       		.byte	0x53
 10976 2fcd 03       		.uleb128 0x3
 10977 2fce 0A       		.byte	0xa
 10978 2fcf 4703     		.2byte	0x347
 10979 2fd1 31       		.uleb128 0x31
 10980 2fd2 01       		.uleb128 0x1
 10981 2fd3 52       		.byte	0x52
 10982 2fd4 05       		.uleb128 0x5
 10983 2fd5 03       		.byte	0x3
 10984 2fd6 E0030000 		.4byte	.LC27
 10985 2fda 31       		.uleb128 0x31
 10986 2fdb 01       		.uleb128 0x1
 10987 2fdc 51       		.byte	0x51
 10988 2fdd 05       		.uleb128 0x5
 10989 2fde 03       		.byte	0x3
 10990 2fdf 00000000 		.4byte	.LC0
 10991 2fe3 31       		.uleb128 0x31
 10992 2fe4 02       		.uleb128 0x2
 10993 2fe5 7D       		.byte	0x7d
 10994 2fe6 00       		.sleb128 0
 10995 2fe7 05       		.uleb128 0x5
 10996 2fe8 03       		.byte	0x3
 10997 2fe9 4C000000 		.4byte	.LC2
 10998 2fed 00       		.byte	0
 10999 2fee 41       		.uleb128 0x41
 11000 2fef 40000000 		.4byte	.LVL341
 11001 2ff3 233A0000 		.4byte	0x3a23
 11002 2ff7 30       		.uleb128 0x30
 11003 2ff8 60000000 		.4byte	.LVL344
 11004 2ffc FC150000 		.4byte	0x15fc
 11005 3000 28300000 		.4byte	0x3028
 11006 3004 31       		.uleb128 0x31
 11007 3005 01       		.uleb128 0x1
 11008 3006 53       		.byte	0x53
 11009 3007 03       		.uleb128 0x3
 11010 3008 0A       		.byte	0xa
 11011 3009 4B03     		.2byte	0x34b
 11012 300b 31       		.uleb128 0x31
 11013 300c 01       		.uleb128 0x1
 11014 300d 52       		.byte	0x52
 11015 300e 05       		.uleb128 0x5
 11016 300f 03       		.byte	0x3
ARM GAS  C:\Users\jo\AppData\Local\Temp\ccLDsGlj.s 			page 197


 11017 3010 00040000 		.4byte	.LC28
 11018 3014 31       		.uleb128 0x31
 11019 3015 01       		.uleb128 0x1
 11020 3016 51       		.byte	0x51
 11021 3017 05       		.uleb128 0x5
 11022 3018 03       		.byte	0x3
 11023 3019 00000000 		.4byte	.LC0
 11024 301d 31       		.uleb128 0x31
 11025 301e 02       		.uleb128 0x2
 11026 301f 7D       		.byte	0x7d
 11027 3020 00       		.sleb128 0
 11028 3021 05       		.uleb128 0x5
 11029 3022 03       		.byte	0x3
 11030 3023 4C000000 		.4byte	.LC2
 11031 3027 00       		.byte	0
 11032 3028 41       		.uleb128 0x41
 11033 3029 6E000000 		.4byte	.LVL347
 11034 302d 842B0000 		.4byte	0x2b84
 11035 3031 47       		.uleb128 0x47
 11036 3032 9A000000 		.4byte	.LVL348
 11037 3036 02       		.uleb128 0x2
 11038 3037 75       		.byte	0x75
 11039 3038 00       		.sleb128 0
 11040 3039 48300000 		.4byte	0x3048
 11041 303d 31       		.uleb128 0x31
 11042 303e 01       		.uleb128 0x1
 11043 303f 52       		.byte	0x52
 11044 3040 01       		.uleb128 0x1
 11045 3041 30       		.byte	0x30
 11046 3042 31       		.uleb128 0x31
 11047 3043 01       		.uleb128 0x1
 11048 3044 51       		.byte	0x51
 11049 3045 01       		.uleb128 0x1
 11050 3046 30       		.byte	0x30
 11051 3047 00       		.byte	0
 11052 3048 47       		.uleb128 0x47
 11053 3049 AA000000 		.4byte	.LVL349
 11054 304d 02       		.uleb128 0x2
 11055 304e 75       		.byte	0x75
 11056 304f 00       		.sleb128 0
 11057 3050 5F300000 		.4byte	0x305f
 11058 3054 31       		.uleb128 0x31
 11059 3055 01       		.uleb128 0x1
 11060 3056 52       		.byte	0x52
 11061 3057 01       		.uleb128 0x1
 11062 3058 30       		.byte	0x30
 11063 3059 31       		.uleb128 0x31
 11064 305a 01       		.uleb128 0x1
 11065 305b 51       		.byte	0x51
 11066 305c 01       		.uleb128 0x1
 11067 305d 32       		.byte	0x32
 11068 305e 00       		.byte	0
 11069 305f 41       		.uleb128 0x41
 11070 3060 B4000000 		.4byte	.LVL350
 11071 3064 233A0000 		.4byte	0x3a23
 11072 3068 50       		.uleb128 0x50
 11073 3069 C6000000 		.4byte	.LVL352
ARM GAS  C:\Users\jo\AppData\Local\Temp\ccLDsGlj.s 			page 198


 11074 306d 88380000 		.4byte	0x3888
 11075 3071 41       		.uleb128 0x41
 11076 3072 D0000000 		.4byte	.LVL353
 11077 3076 383A0000 		.4byte	0x3a38
 11078 307a 30       		.uleb128 0x30
 11079 307b EA000000 		.4byte	.LVL354
 11080 307f FC150000 		.4byte	0x15fc
 11081 3083 AB300000 		.4byte	0x30ab
 11082 3087 31       		.uleb128 0x31
 11083 3088 01       		.uleb128 0x1
 11084 3089 53       		.byte	0x53
 11085 308a 03       		.uleb128 0x3
 11086 308b 0A       		.byte	0xa
 11087 308c 6003     		.2byte	0x360
 11088 308e 31       		.uleb128 0x31
 11089 308f 01       		.uleb128 0x1
 11090 3090 52       		.byte	0x52
 11091 3091 05       		.uleb128 0x5
 11092 3092 03       		.byte	0x3
 11093 3093 20040000 		.4byte	.LC29
 11094 3097 31       		.uleb128 0x31
 11095 3098 01       		.uleb128 0x1
 11096 3099 51       		.byte	0x51
 11097 309a 05       		.uleb128 0x5
 11098 309b 03       		.byte	0x3
 11099 309c 00000000 		.4byte	.LC0
 11100 30a0 31       		.uleb128 0x31
 11101 30a1 02       		.uleb128 0x2
 11102 30a2 7D       		.byte	0x7d
 11103 30a3 00       		.sleb128 0
 11104 30a4 05       		.uleb128 0x5
 11105 30a5 03       		.byte	0x3
 11106 30a6 4C000000 		.4byte	.LC2
 11107 30aa 00       		.byte	0
 11108 30ab 50       		.uleb128 0x50
 11109 30ac 08010000 		.4byte	.LVL358
 11110 30b0 5B180000 		.4byte	0x185b
 11111 30b4 41       		.uleb128 0x41
 11112 30b5 0C010000 		.4byte	.LVL359
 11113 30b9 493A0000 		.4byte	0x3a49
 11114 30bd 00       		.byte	0
 11115 30be 51       		.uleb128 0x51
 11116 30bf 61040000 		.4byte	.LASF313
 11117 30c3 01       		.byte	0x1
 11118 30c4 8203     		.2byte	0x382
 11119 30c6 00000000 		.4byte	.LFB271
 11120 30ca 8A000000 		.4byte	.LFE271-.LFB271
 11121 30ce 01       		.uleb128 0x1
 11122 30cf 9C       		.byte	0x9c
 11123 30d0 2D310000 		.4byte	0x312d
 11124 30d4 46       		.uleb128 0x46
 11125 30d5 6D736700 		.ascii	"msg\000"
 11126 30d9 01       		.byte	0x1
 11127 30da 8203     		.2byte	0x382
 11128 30dc 3C100000 		.4byte	0x103c
 11129 30e0 A7130000 		.4byte	.LLST103
 11130 30e4 50       		.uleb128 0x50
ARM GAS  C:\Users\jo\AppData\Local\Temp\ccLDsGlj.s 			page 199


 11131 30e5 34000000 		.4byte	.LVL363
 11132 30e9 88380000 		.4byte	0x3888
 11133 30ed 50       		.uleb128 0x50
 11134 30ee 3E000000 		.4byte	.LVL365
 11135 30f2 88380000 		.4byte	0x3888
 11136 30f6 41       		.uleb128 0x41
 11137 30f7 48000000 		.4byte	.LVL367
 11138 30fb 5A3A0000 		.4byte	0x3a5a
 11139 30ff 50       		.uleb128 0x50
 11140 3100 58000000 		.4byte	.LVL369
 11141 3104 88380000 		.4byte	0x3888
 11142 3108 41       		.uleb128 0x41
 11143 3109 62000000 		.4byte	.LVL371
 11144 310d 793A0000 		.4byte	0x3a79
 11145 3111 50       		.uleb128 0x50
 11146 3112 72000000 		.4byte	.LVL373
 11147 3116 88380000 		.4byte	0x3888
 11148 311a 41       		.uleb128 0x41
 11149 311b 7A000000 		.4byte	.LVL375
 11150 311f 993A0000 		.4byte	0x3a99
 11151 3123 50       		.uleb128 0x50
 11152 3124 8A000000 		.4byte	.LVL377
 11153 3128 88380000 		.4byte	0x3888
 11154 312c 00       		.byte	0
 11155 312d 51       		.uleb128 0x51
 11156 312e A6080000 		.4byte	.LASF314
 11157 3132 01       		.byte	0x1
 11158 3133 D803     		.2byte	0x3d8
 11159 3135 00000000 		.4byte	.LFB273
 11160 3139 FC000000 		.4byte	.LFE273-.LFB273
 11161 313d 01       		.uleb128 0x1
 11162 313e 9C       		.byte	0x9c
 11163 313f 2F320000 		.4byte	0x322f
 11164 3143 46       		.uleb128 0x46
 11165 3144 6D736700 		.ascii	"msg\000"
 11166 3148 01       		.byte	0x1
 11167 3149 D803     		.2byte	0x3d8
 11168 314b 3C100000 		.4byte	0x103c
 11169 314f 58140000 		.4byte	.LLST104
 11170 3153 3F       		.uleb128 0x3f
 11171 3154 5B130000 		.4byte	0x135b
 11172 3158 32000000 		.4byte	.LBB174
 11173 315c 06000000 		.4byte	.LBE174-.LBB174
 11174 3160 01       		.byte	0x1
 11175 3161 0304     		.2byte	0x403
 11176 3163 84310000 		.4byte	0x3184
 11177 3167 39       		.uleb128 0x39
 11178 3168 68130000 		.4byte	0x1368
 11179 316c 36150000 		.4byte	.LLST105
 11180 3170 33       		.uleb128 0x33
 11181 3171 38000000 		.4byte	.LVL381
 11182 3175 40380000 		.4byte	0x3840
 11183 3179 31       		.uleb128 0x31
 11184 317a 01       		.uleb128 0x1
 11185 317b 50       		.byte	0x50
 11186 317c 05       		.uleb128 0x5
 11187 317d 03       		.byte	0x3
ARM GAS  C:\Users\jo\AppData\Local\Temp\ccLDsGlj.s 			page 200


 11188 317e 3C040000 		.4byte	.LC30
 11189 3182 00       		.byte	0
 11190 3183 00       		.byte	0
 11191 3184 2F       		.uleb128 0x2f
 11192 3185 50000000 		.4byte	.Ldebug_ranges0+0x50
 11193 3189 9E310000 		.4byte	0x319e
 11194 318d 3E       		.uleb128 0x3e
 11195 318e C2010000 		.4byte	.LASF315
 11196 3192 01       		.byte	0x1
 11197 3193 F303     		.2byte	0x3f3
 11198 3195 E1080000 		.4byte	0x8e1
 11199 3199 4E150000 		.4byte	.LLST106
 11200 319d 00       		.byte	0
 11201 319e 30       		.uleb128 0x30
 11202 319f 32000000 		.4byte	.LVL380
 11203 31a3 FC150000 		.4byte	0x15fc
 11204 31a7 CF310000 		.4byte	0x31cf
 11205 31ab 31       		.uleb128 0x31
 11206 31ac 01       		.uleb128 0x1
 11207 31ad 53       		.byte	0x53
 11208 31ae 03       		.uleb128 0x3
 11209 31af 0A       		.byte	0xa
 11210 31b0 0304     		.2byte	0x403
 11211 31b2 31       		.uleb128 0x31
 11212 31b3 01       		.uleb128 0x1
 11213 31b4 52       		.byte	0x52
 11214 31b5 05       		.uleb128 0x5
 11215 31b6 03       		.byte	0x3
 11216 31b7 3C040000 		.4byte	.LC30
 11217 31bb 31       		.uleb128 0x31
 11218 31bc 01       		.uleb128 0x1
 11219 31bd 51       		.byte	0x51
 11220 31be 05       		.uleb128 0x5
 11221 31bf 03       		.byte	0x3
 11222 31c0 00000000 		.4byte	.LC0
 11223 31c4 31       		.uleb128 0x31
 11224 31c5 02       		.uleb128 0x2
 11225 31c6 7D       		.byte	0x7d
 11226 31c7 00       		.sleb128 0
 11227 31c8 05       		.uleb128 0x5
 11228 31c9 03       		.byte	0x3
 11229 31ca 4C000000 		.4byte	.LC2
 11230 31ce 00       		.byte	0
 11231 31cf 50       		.uleb128 0x50
 11232 31d0 4C000000 		.4byte	.LVL384
 11233 31d4 88380000 		.4byte	0x3888
 11234 31d8 41       		.uleb128 0x41
 11235 31d9 54000000 		.4byte	.LVL386
 11236 31dd B33A0000 		.4byte	0x3ab3
 11237 31e1 50       		.uleb128 0x50
 11238 31e2 66000000 		.4byte	.LVL388
 11239 31e6 88380000 		.4byte	0x3888
 11240 31ea 50       		.uleb128 0x50
 11241 31eb 7C000000 		.4byte	.LVL391
 11242 31ef 88380000 		.4byte	0x3888
 11243 31f3 41       		.uleb128 0x41
 11244 31f4 86000000 		.4byte	.LVL393
ARM GAS  C:\Users\jo\AppData\Local\Temp\ccLDsGlj.s 			page 201


 11245 31f8 CD3A0000 		.4byte	0x3acd
 11246 31fc 50       		.uleb128 0x50
 11247 31fd 98000000 		.4byte	.LVL395
 11248 3201 88380000 		.4byte	0x3888
 11249 3205 41       		.uleb128 0x41
 11250 3206 9E000000 		.4byte	.LVL397
 11251 320a 3B150000 		.4byte	0x153b
 11252 320e 30       		.uleb128 0x30
 11253 320f AC000000 		.4byte	.LVL398
 11254 3213 EC3A0000 		.4byte	0x3aec
 11255 3217 25320000 		.4byte	0x3225
 11256 321b 31       		.uleb128 0x31
 11257 321c 01       		.uleb128 0x1
 11258 321d 53       		.byte	0x53
 11259 321e 05       		.uleb128 0x5
 11260 321f 03       		.byte	0x3
 11261 3220 00000000 		.4byte	do_connected
 11262 3224 00       		.byte	0
 11263 3225 50       		.uleb128 0x50
 11264 3226 D6000000 		.4byte	.LVL404
 11265 322a 88380000 		.4byte	0x3888
 11266 322e 00       		.byte	0
 11267 322f 51       		.uleb128 0x51
 11268 3230 20000000 		.4byte	.LASF316
 11269 3234 01       		.byte	0x1
 11270 3235 1204     		.2byte	0x412
 11271 3237 00000000 		.4byte	.LFB274
 11272 323b 34000000 		.4byte	.LFE274-.LFB274
 11273 323f 01       		.uleb128 0x1
 11274 3240 9C       		.byte	0x9c
 11275 3241 71320000 		.4byte	0x3271
 11276 3245 46       		.uleb128 0x46
 11277 3246 6D736700 		.ascii	"msg\000"
 11278 324a 01       		.byte	0x1
 11279 324b 1204     		.2byte	0x412
 11280 324d 3C100000 		.4byte	0x103c
 11281 3251 A6150000 		.4byte	.LLST107
 11282 3255 50       		.uleb128 0x50
 11283 3256 18000000 		.4byte	.LVL411
 11284 325a 88380000 		.4byte	0x3888
 11285 325e 41       		.uleb128 0x41
 11286 325f 22000000 		.4byte	.LVL413
 11287 3263 113B0000 		.4byte	0x3b11
 11288 3267 50       		.uleb128 0x50
 11289 3268 34000000 		.4byte	.LVL415
 11290 326c 88380000 		.4byte	0x3888
 11291 3270 00       		.byte	0
 11292 3271 51       		.uleb128 0x51
 11293 3272 7D0E0000 		.4byte	.LASF317
 11294 3276 01       		.byte	0x1
 11295 3277 2804     		.2byte	0x428
 11296 3279 00000000 		.4byte	.LFB275
 11297 327d B4000000 		.4byte	.LFE275-.LFB275
 11298 3281 01       		.uleb128 0x1
 11299 3282 9C       		.byte	0x9c
 11300 3283 3E330000 		.4byte	0x333e
 11301 3287 46       		.uleb128 0x46
ARM GAS  C:\Users\jo\AppData\Local\Temp\ccLDsGlj.s 			page 202


 11302 3288 6D736700 		.ascii	"msg\000"
 11303 328c 01       		.byte	0x1
 11304 328d 2804     		.2byte	0x428
 11305 328f 3C100000 		.4byte	0x103c
 11306 3293 EB150000 		.4byte	.LLST108
 11307 3297 49       		.uleb128 0x49
 11308 3298 32000000 		.4byte	.LBB178
 11309 329c 82000000 		.4byte	.LBE178-.LBB178
 11310 32a0 34330000 		.4byte	0x3334
 11311 32a4 3E       		.uleb128 0x3e
 11312 32a5 AC0F0000 		.4byte	.LASF318
 11313 32a9 01       		.byte	0x1
 11314 32aa 3404     		.2byte	0x434
 11315 32ac EF0E0000 		.4byte	0xeef
 11316 32b0 22160000 		.4byte	.LLST109
 11317 32b4 30       		.uleb128 0x30
 11318 32b5 3A000000 		.4byte	.LVL420
 11319 32b9 223B0000 		.4byte	0x3b22
 11320 32bd C8320000 		.4byte	0x32c8
 11321 32c1 31       		.uleb128 0x31
 11322 32c2 01       		.uleb128 0x1
 11323 32c3 51       		.byte	0x51
 11324 32c4 02       		.uleb128 0x2
 11325 32c5 09       		.byte	0x9
 11326 32c6 FF       		.byte	0xff
 11327 32c7 00       		.byte	0
 11328 32c8 41       		.uleb128 0x41
 11329 32c9 46000000 		.4byte	.LVL422
 11330 32cd 5B370000 		.4byte	0x375b
 11331 32d1 41       		.uleb128 0x41
 11332 32d2 54000000 		.4byte	.LVL423
 11333 32d6 5B370000 		.4byte	0x375b
 11334 32da 41       		.uleb128 0x41
 11335 32db 6A000000 		.4byte	.LVL424
 11336 32df A9370000 		.4byte	0x37a9
 11337 32e3 30       		.uleb128 0x30
 11338 32e4 74000000 		.4byte	.LVL425
 11339 32e8 AF380000 		.4byte	0x38af
 11340 32ec FA320000 		.4byte	0x32fa
 11341 32f0 31       		.uleb128 0x31
 11342 32f1 01       		.uleb128 0x1
 11343 32f2 51       		.byte	0x51
 11344 32f3 05       		.uleb128 0x5
 11345 32f4 03       		.byte	0x3
 11346 32f5 00000000 		.4byte	accept_function
 11347 32f9 00       		.byte	0
 11348 32fa 30       		.uleb128 0x30
 11349 32fb 86000000 		.4byte	.LVL428
 11350 32ff 99380000 		.4byte	0x3899
 11351 3303 0E330000 		.4byte	0x330e
 11352 3307 31       		.uleb128 0x31
 11353 3308 01       		.uleb128 0x1
 11354 3309 50       		.byte	0x50
 11355 330a 02       		.uleb128 0x2
 11356 330b 75       		.byte	0x75
 11357 330c 00       		.sleb128 0
 11358 330d 00       		.byte	0
ARM GAS  C:\Users\jo\AppData\Local\Temp\ccLDsGlj.s 			page 203


 11359 330e 30       		.uleb128 0x30
 11360 330f 9A000000 		.4byte	.LVL429
 11361 3313 93390000 		.4byte	0x3993
 11362 3317 21330000 		.4byte	0x3321
 11363 331b 31       		.uleb128 0x31
 11364 331c 01       		.uleb128 0x1
 11365 331d 51       		.byte	0x51
 11366 331e 01       		.uleb128 0x1
 11367 331f 34       		.byte	0x34
 11368 3320 00       		.byte	0
 11369 3321 41       		.uleb128 0x41
 11370 3322 A6000000 		.4byte	.LVL430
 11371 3326 123A0000 		.4byte	0x3a12
 11372 332a 41       		.uleb128 0x41
 11373 332b AE000000 		.4byte	.LVL431
 11374 332f AD390000 		.4byte	0x39ad
 11375 3333 00       		.byte	0
 11376 3334 50       		.uleb128 0x50
 11377 3335 2A000000 		.4byte	.LVL418
 11378 3339 88380000 		.4byte	0x3888
 11379 333d 00       		.byte	0
 11380 333e 51       		.uleb128 0x51
 11381 333f F70A0000 		.4byte	.LASF319
 11382 3343 01       		.byte	0x1
 11383 3344 6004     		.2byte	0x460
 11384 3346 00000000 		.4byte	.LFB276
 11385 334a 94000000 		.4byte	.LFE276-.LFB276
 11386 334e 01       		.uleb128 0x1
 11387 334f 9C       		.byte	0x9c
 11388 3350 A4330000 		.4byte	0x33a4
 11389 3354 46       		.uleb128 0x46
 11390 3355 6D736700 		.ascii	"msg\000"
 11391 3359 01       		.byte	0x1
 11392 335a 6004     		.2byte	0x460
 11393 335c 3C100000 		.4byte	0x103c
 11394 3360 56160000 		.4byte	.LLST110
 11395 3364 41       		.uleb128 0x41
 11396 3365 38000000 		.4byte	.LVL434
 11397 3369 3D3B0000 		.4byte	0x3b3d
 11398 336d 50       		.uleb128 0x50
 11399 336e 48000000 		.4byte	.LVL436
 11400 3372 88380000 		.4byte	0x3888
 11401 3376 50       		.uleb128 0x50
 11402 3377 52000000 		.4byte	.LVL438
 11403 337b 88380000 		.4byte	0x3888
 11404 337f 41       		.uleb128 0x41
 11405 3380 66000000 		.4byte	.LVL440
 11406 3384 573B0000 		.4byte	0x3b57
 11407 3388 50       		.uleb128 0x50
 11408 3389 76000000 		.4byte	.LVL442
 11409 338d 88380000 		.4byte	0x3888
 11410 3391 41       		.uleb128 0x41
 11411 3392 80000000 		.4byte	.LVL443
 11412 3396 713B0000 		.4byte	0x3b71
 11413 339a 41       		.uleb128 0x41
 11414 339b 8E000000 		.4byte	.LVL444
 11415 339f 953B0000 		.4byte	0x3b95
ARM GAS  C:\Users\jo\AppData\Local\Temp\ccLDsGlj.s 			page 204


 11416 33a3 00       		.byte	0
 11417 33a4 51       		.uleb128 0x51
 11418 33a5 7B0D0000 		.4byte	.LASF320
 11419 33a9 01       		.byte	0x1
 11420 33aa 9504     		.2byte	0x495
 11421 33ac 00000000 		.4byte	.LFB277
 11422 33b0 4C000000 		.4byte	.LFE277-.LFB277
 11423 33b4 01       		.uleb128 0x1
 11424 33b5 9C       		.byte	0x9c
 11425 33b6 1E340000 		.4byte	0x341e
 11426 33ba 46       		.uleb128 0x46
 11427 33bb 6D736700 		.ascii	"msg\000"
 11428 33bf 01       		.byte	0x1
 11429 33c0 9504     		.2byte	0x495
 11430 33c2 3C100000 		.4byte	0x103c
 11431 33c6 CA160000 		.4byte	.LLST111
 11432 33ca 49       		.uleb128 0x49
 11433 33cb 20000000 		.4byte	.LBB179
 11434 33cf 20000000 		.4byte	.LBE179-.LBB179
 11435 33d3 0B340000 		.4byte	0x340b
 11436 33d7 3E       		.uleb128 0x3e
 11437 33d8 C80B0000 		.4byte	.LASF321
 11438 33dc 01       		.byte	0x1
 11439 33dd A004     		.2byte	0x4a0
 11440 33df 0D090000 		.4byte	0x90d
 11441 33e3 0F170000 		.4byte	.LLST112
 11442 33e7 4A       		.uleb128 0x4a
 11443 33e8 26000000 		.4byte	.LBB180
 11444 33ec 14000000 		.4byte	.LBE180-.LBB180
 11445 33f0 3E       		.uleb128 0x3e
 11446 33f1 4E100000 		.4byte	.LASF322
 11447 33f5 01       		.byte	0x1
 11448 33f6 A204     		.2byte	0x4a2
 11449 33f8 F7080000 		.4byte	0x8f7
 11450 33fc 3D170000 		.4byte	.LLST113
 11451 3400 41       		.uleb128 0x41
 11452 3401 3A000000 		.4byte	.LVL452
 11453 3405 51380000 		.4byte	0x3851
 11454 3409 00       		.byte	0
 11455 340a 00       		.byte	0
 11456 340b 50       		.uleb128 0x50
 11457 340c 20000000 		.4byte	.LVL448
 11458 3410 88380000 		.4byte	0x3888
 11459 3414 50       		.uleb128 0x50
 11460 3415 4C000000 		.4byte	.LVL455
 11461 3419 88380000 		.4byte	0x3888
 11462 341d 00       		.byte	0
 11463 341e 51       		.uleb128 0x51
 11464 341f E1060000 		.4byte	.LASF323
 11465 3423 01       		.byte	0x1
 11466 3424 3F05     		.2byte	0x53f
 11467 3426 00000000 		.4byte	.LFB279
 11468 342a A4000000 		.4byte	.LFE279-.LFB279
 11469 342e 01       		.uleb128 0x1
 11470 342f 9C       		.byte	0x9c
 11471 3430 17350000 		.4byte	0x3517
 11472 3434 46       		.uleb128 0x46
ARM GAS  C:\Users\jo\AppData\Local\Temp\ccLDsGlj.s 			page 205


 11473 3435 6D736700 		.ascii	"msg\000"
 11474 3439 01       		.byte	0x1
 11475 343a 3F05     		.2byte	0x53f
 11476 343c 3C100000 		.4byte	0x103c
 11477 3440 50170000 		.4byte	.LLST114
 11478 3444 3F       		.uleb128 0x3f
 11479 3445 5B130000 		.4byte	0x135b
 11480 3449 4C000000 		.4byte	.LBB181
 11481 344d 06000000 		.4byte	.LBE181-.LBB181
 11482 3451 01       		.byte	0x1
 11483 3452 4C05     		.2byte	0x54c
 11484 3454 75340000 		.4byte	0x3475
 11485 3458 39       		.uleb128 0x39
 11486 3459 68130000 		.4byte	0x1368
 11487 345d B7170000 		.4byte	.LLST115
 11488 3461 33       		.uleb128 0x33
 11489 3462 52000000 		.4byte	.LVL461
 11490 3466 40380000 		.4byte	0x3840
 11491 346a 31       		.uleb128 0x31
 11492 346b 01       		.uleb128 0x1
 11493 346c 50       		.byte	0x50
 11494 346d 05       		.uleb128 0x5
 11495 346e 03       		.byte	0x3
 11496 346f 20040000 		.4byte	.LC29
 11497 3473 00       		.byte	0
 11498 3474 00       		.byte	0
 11499 3475 3F       		.uleb128 0x3f
 11500 3476 5B130000 		.4byte	0x135b
 11501 347a 7A000000 		.4byte	.LBB183
 11502 347e 08000000 		.4byte	.LBE183-.LBB183
 11503 3482 01       		.byte	0x1
 11504 3483 4E05     		.2byte	0x54e
 11505 3485 A6340000 		.4byte	0x34a6
 11506 3489 39       		.uleb128 0x39
 11507 348a 68130000 		.4byte	0x1368
 11508 348e CF170000 		.4byte	.LLST116
 11509 3492 33       		.uleb128 0x33
 11510 3493 80000000 		.4byte	.LVL465
 11511 3497 40380000 		.4byte	0x3840
 11512 349b 31       		.uleb128 0x31
 11513 349c 01       		.uleb128 0x1
 11514 349d 50       		.byte	0x50
 11515 349e 05       		.uleb128 0x5
 11516 349f 03       		.byte	0x3
 11517 34a0 54040000 		.4byte	.LC31
 11518 34a4 00       		.byte	0
 11519 34a5 00       		.byte	0
 11520 34a6 50       		.uleb128 0x50
 11521 34a7 1C000000 		.4byte	.LVL458
 11522 34ab 88380000 		.4byte	0x3888
 11523 34af 30       		.uleb128 0x30
 11524 34b0 4C000000 		.4byte	.LVL460
 11525 34b4 FC150000 		.4byte	0x15fc
 11526 34b8 E0340000 		.4byte	0x34e0
 11527 34bc 31       		.uleb128 0x31
 11528 34bd 01       		.uleb128 0x1
 11529 34be 53       		.byte	0x53
ARM GAS  C:\Users\jo\AppData\Local\Temp\ccLDsGlj.s 			page 206


 11530 34bf 03       		.uleb128 0x3
 11531 34c0 0A       		.byte	0xa
 11532 34c1 4D05     		.2byte	0x54d
 11533 34c3 31       		.uleb128 0x31
 11534 34c4 01       		.uleb128 0x1
 11535 34c5 52       		.byte	0x52
 11536 34c6 05       		.uleb128 0x5
 11537 34c7 03       		.byte	0x3
 11538 34c8 20040000 		.4byte	.LC29
 11539 34cc 31       		.uleb128 0x31
 11540 34cd 01       		.uleb128 0x1
 11541 34ce 51       		.byte	0x51
 11542 34cf 05       		.uleb128 0x5
 11543 34d0 03       		.byte	0x3
 11544 34d1 00000000 		.4byte	.LC0
 11545 34d5 31       		.uleb128 0x31
 11546 34d6 02       		.uleb128 0x2
 11547 34d7 7D       		.byte	0x7d
 11548 34d8 00       		.sleb128 0
 11549 34d9 05       		.uleb128 0x5
 11550 34da 03       		.byte	0x3
 11551 34db 4C000000 		.4byte	.LC2
 11552 34df 00       		.byte	0
 11553 34e0 50       		.uleb128 0x50
 11554 34e1 68000000 		.4byte	.LVL463
 11555 34e5 9A1C0000 		.4byte	0x1c9a
 11556 34e9 33       		.uleb128 0x33
 11557 34ea 7A000000 		.4byte	.LVL464
 11558 34ee FC150000 		.4byte	0x15fc
 11559 34f2 31       		.uleb128 0x31
 11560 34f3 01       		.uleb128 0x1
 11561 34f4 53       		.byte	0x53
 11562 34f5 03       		.uleb128 0x3
 11563 34f6 0A       		.byte	0xa
 11564 34f7 4E05     		.2byte	0x54e
 11565 34f9 31       		.uleb128 0x31
 11566 34fa 01       		.uleb128 0x1
 11567 34fb 52       		.byte	0x52
 11568 34fc 05       		.uleb128 0x5
 11569 34fd 03       		.byte	0x3
 11570 34fe 54040000 		.4byte	.LC31
 11571 3502 31       		.uleb128 0x31
 11572 3503 01       		.uleb128 0x1
 11573 3504 51       		.byte	0x51
 11574 3505 05       		.uleb128 0x5
 11575 3506 03       		.byte	0x3
 11576 3507 00000000 		.4byte	.LC0
 11577 350b 31       		.uleb128 0x31
 11578 350c 02       		.uleb128 0x2
 11579 350d 7D       		.byte	0x7d
 11580 350e 00       		.sleb128 0
 11581 350f 05       		.uleb128 0x5
 11582 3510 03       		.byte	0x3
 11583 3511 4C000000 		.4byte	.LC2
 11584 3515 00       		.byte	0
 11585 3516 00       		.byte	0
 11586 3517 51       		.uleb128 0x51
ARM GAS  C:\Users\jo\AppData\Local\Temp\ccLDsGlj.s 			page 207


 11587 3518 2C0C0000 		.4byte	.LASF324
 11588 351c 01       		.byte	0x1
 11589 351d 7605     		.2byte	0x576
 11590 351f 00000000 		.4byte	.LFB280
 11591 3523 D4000000 		.4byte	.LFE280-.LFB280
 11592 3527 01       		.uleb128 0x1
 11593 3528 9C       		.byte	0x9c
 11594 3529 C4350000 		.4byte	0x35c4
 11595 352d 46       		.uleb128 0x46
 11596 352e 6D736700 		.ascii	"msg\000"
 11597 3532 01       		.byte	0x1
 11598 3533 7605     		.2byte	0x576
 11599 3535 3C100000 		.4byte	0x103c
 11600 3539 E7170000 		.4byte	.LLST117
 11601 353d 3F       		.uleb128 0x3f
 11602 353e 5B130000 		.4byte	0x135b
 11603 3542 3E000000 		.4byte	.LBB185
 11604 3546 08000000 		.4byte	.LBE185-.LBB185
 11605 354a 01       		.byte	0x1
 11606 354b 9B05     		.2byte	0x59b
 11607 354d 6E350000 		.4byte	0x356e
 11608 3551 39       		.uleb128 0x39
 11609 3552 68130000 		.4byte	0x1368
 11610 3556 69180000 		.4byte	.LLST118
 11611 355a 33       		.uleb128 0x33
 11612 355b 44000000 		.4byte	.LVL470
 11613 355f 40380000 		.4byte	0x3840
 11614 3563 31       		.uleb128 0x31
 11615 3564 01       		.uleb128 0x1
 11616 3565 50       		.byte	0x50
 11617 3566 05       		.uleb128 0x5
 11618 3567 03       		.byte	0x3
 11619 3568 68040000 		.4byte	.LC32
 11620 356c 00       		.byte	0
 11621 356d 00       		.byte	0
 11622 356e 30       		.uleb128 0x30
 11623 356f 3E000000 		.4byte	.LVL469
 11624 3573 FC150000 		.4byte	0x15fc
 11625 3577 9F350000 		.4byte	0x359f
 11626 357b 31       		.uleb128 0x31
 11627 357c 01       		.uleb128 0x1
 11628 357d 53       		.byte	0x53
 11629 357e 03       		.uleb128 0x3
 11630 357f 0A       		.byte	0xa
 11631 3580 9B05     		.2byte	0x59b
 11632 3582 31       		.uleb128 0x31
 11633 3583 01       		.uleb128 0x1
 11634 3584 52       		.byte	0x52
 11635 3585 05       		.uleb128 0x5
 11636 3586 03       		.byte	0x3
 11637 3587 68040000 		.4byte	.LC32
 11638 358b 31       		.uleb128 0x31
 11639 358c 01       		.uleb128 0x1
 11640 358d 51       		.byte	0x51
 11641 358e 05       		.uleb128 0x5
 11642 358f 03       		.byte	0x3
 11643 3590 00000000 		.4byte	.LC0
ARM GAS  C:\Users\jo\AppData\Local\Temp\ccLDsGlj.s 			page 208


 11644 3594 31       		.uleb128 0x31
 11645 3595 02       		.uleb128 0x2
 11646 3596 7D       		.byte	0x7d
 11647 3597 00       		.sleb128 0
 11648 3598 05       		.uleb128 0x5
 11649 3599 03       		.byte	0x3
 11650 359a 4C000000 		.4byte	.LC2
 11651 359e 00       		.byte	0
 11652 359f 50       		.uleb128 0x50
 11653 35a0 54000000 		.4byte	.LVL472
 11654 35a4 88380000 		.4byte	0x3888
 11655 35a8 50       		.uleb128 0x50
 11656 35a9 70000000 		.4byte	.LVL474
 11657 35ad 88380000 		.4byte	0x3888
 11658 35b1 50       		.uleb128 0x50
 11659 35b2 8A000000 		.4byte	.LVL476
 11660 35b6 88380000 		.4byte	0x3888
 11661 35ba 50       		.uleb128 0x50
 11662 35bb B4000000 		.4byte	.LVL478
 11663 35bf 88380000 		.4byte	0x3888
 11664 35c3 00       		.byte	0
 11665 35c4 51       		.uleb128 0x51
 11666 35c5 BE0A0000 		.4byte	.LASF325
 11667 35c9 01       		.byte	0x1
 11668 35ca AB05     		.2byte	0x5ab
 11669 35cc 00000000 		.4byte	.LFB281
 11670 35d0 C0000000 		.4byte	.LFE281-.LFB281
 11671 35d4 01       		.uleb128 0x1
 11672 35d5 9C       		.byte	0x9c
 11673 35d6 D3360000 		.4byte	0x36d3
 11674 35da 46       		.uleb128 0x46
 11675 35db 6D736700 		.ascii	"msg\000"
 11676 35df 01       		.byte	0x1
 11677 35e0 AB05     		.2byte	0x5ab
 11678 35e2 3C100000 		.4byte	0x103c
 11679 35e6 81180000 		.4byte	.LLST119
 11680 35ea 3F       		.uleb128 0x3f
 11681 35eb 5B130000 		.4byte	0x135b
 11682 35ef 28000000 		.4byte	.LBB187
 11683 35f3 08000000 		.4byte	.LBE187-.LBB187
 11684 35f7 01       		.byte	0x1
 11685 35f8 B105     		.2byte	0x5b1
 11686 35fa 1B360000 		.4byte	0x361b
 11687 35fe 39       		.uleb128 0x39
 11688 35ff 68130000 		.4byte	0x1368
 11689 3603 F6180000 		.4byte	.LLST120
 11690 3607 33       		.uleb128 0x33
 11691 3608 2E000000 		.4byte	.LVL482
 11692 360c 40380000 		.4byte	0x3840
 11693 3610 31       		.uleb128 0x31
 11694 3611 01       		.uleb128 0x1
 11695 3612 50       		.byte	0x50
 11696 3613 05       		.uleb128 0x5
 11697 3614 03       		.byte	0x3
 11698 3615 E0030000 		.4byte	.LC27
 11699 3619 00       		.byte	0
 11700 361a 00       		.byte	0
ARM GAS  C:\Users\jo\AppData\Local\Temp\ccLDsGlj.s 			page 209


 11701 361b 3F       		.uleb128 0x3f
 11702 361c 5B130000 		.4byte	0x135b
 11703 3620 7E000000 		.4byte	.LBB189
 11704 3624 08000000 		.4byte	.LBE189-.LBB189
 11705 3628 01       		.byte	0x1
 11706 3629 BC05     		.2byte	0x5bc
 11707 362b 4C360000 		.4byte	0x364c
 11708 362f 39       		.uleb128 0x39
 11709 3630 68130000 		.4byte	0x1368
 11710 3634 0E190000 		.4byte	.LLST121
 11711 3638 33       		.uleb128 0x33
 11712 3639 84000000 		.4byte	.LVL489
 11713 363d 40380000 		.4byte	0x3840
 11714 3641 31       		.uleb128 0x31
 11715 3642 01       		.uleb128 0x1
 11716 3643 50       		.byte	0x50
 11717 3644 05       		.uleb128 0x5
 11718 3645 03       		.byte	0x3
 11719 3646 20040000 		.4byte	.LC29
 11720 364a 00       		.byte	0
 11721 364b 00       		.byte	0
 11722 364c 30       		.uleb128 0x30
 11723 364d 28000000 		.4byte	.LVL481
 11724 3651 FC150000 		.4byte	0x15fc
 11725 3655 7D360000 		.4byte	0x367d
 11726 3659 31       		.uleb128 0x31
 11727 365a 01       		.uleb128 0x1
 11728 365b 53       		.byte	0x53
 11729 365c 03       		.uleb128 0x3
 11730 365d 0A       		.byte	0xa
 11731 365e B105     		.2byte	0x5b1
 11732 3660 31       		.uleb128 0x31
 11733 3661 01       		.uleb128 0x1
 11734 3662 52       		.byte	0x52
 11735 3663 05       		.uleb128 0x5
 11736 3664 03       		.byte	0x3
 11737 3665 E0030000 		.4byte	.LC27
 11738 3669 31       		.uleb128 0x31
 11739 366a 01       		.uleb128 0x1
 11740 366b 51       		.byte	0x51
 11741 366c 05       		.uleb128 0x5
 11742 366d 03       		.byte	0x3
 11743 366e 00000000 		.4byte	.LC0
 11744 3672 31       		.uleb128 0x31
 11745 3673 02       		.uleb128 0x2
 11746 3674 7D       		.byte	0x7d
 11747 3675 00       		.sleb128 0
 11748 3676 05       		.uleb128 0x5
 11749 3677 03       		.byte	0x3
 11750 3678 4C000000 		.4byte	.LC2
 11751 367c 00       		.byte	0
 11752 367d 50       		.uleb128 0x50
 11753 367e 40000000 		.4byte	.LVL485
 11754 3682 88380000 		.4byte	0x3888
 11755 3686 50       		.uleb128 0x50
 11756 3687 5A000000 		.4byte	.LVL487
 11757 368b 88380000 		.4byte	0x3888
ARM GAS  C:\Users\jo\AppData\Local\Temp\ccLDsGlj.s 			page 210


 11758 368f 30       		.uleb128 0x30
 11759 3690 7E000000 		.4byte	.LVL488
 11760 3694 FC150000 		.4byte	0x15fc
 11761 3698 C0360000 		.4byte	0x36c0
 11762 369c 31       		.uleb128 0x31
 11763 369d 01       		.uleb128 0x1
 11764 369e 53       		.byte	0x53
 11765 369f 03       		.uleb128 0x3
 11766 36a0 0A       		.byte	0xa
 11767 36a1 BD05     		.2byte	0x5bd
 11768 36a3 31       		.uleb128 0x31
 11769 36a4 01       		.uleb128 0x1
 11770 36a5 52       		.byte	0x52
 11771 36a6 05       		.uleb128 0x5
 11772 36a7 03       		.byte	0x3
 11773 36a8 20040000 		.4byte	.LC29
 11774 36ac 31       		.uleb128 0x31
 11775 36ad 01       		.uleb128 0x1
 11776 36ae 51       		.byte	0x51
 11777 36af 05       		.uleb128 0x5
 11778 36b0 03       		.byte	0x3
 11779 36b1 00000000 		.4byte	.LC0
 11780 36b5 31       		.uleb128 0x31
 11781 36b6 02       		.uleb128 0x2
 11782 36b7 7D       		.byte	0x7d
 11783 36b8 00       		.sleb128 0
 11784 36b9 05       		.uleb128 0x5
 11785 36ba 03       		.byte	0x3
 11786 36bb 4C000000 		.4byte	.LC2
 11787 36bf 00       		.byte	0
 11788 36c0 50       		.uleb128 0x50
 11789 36c1 96000000 		.4byte	.LVL492
 11790 36c5 5B180000 		.4byte	0x185b
 11791 36c9 41       		.uleb128 0x41
 11792 36ca A2000000 		.4byte	.LVL493
 11793 36ce 842B0000 		.4byte	0x2b84
 11794 36d2 00       		.byte	0
 11795 36d3 54       		.uleb128 0x54
 11796 36d4 38000000 		.4byte	.LASF326
 11797 36d8 21       		.byte	0x21
 11798 36d9 A706     		.2byte	0x6a7
 11799 36db 10010000 		.4byte	0x110
 11800 36df 55       		.uleb128 0x55
 11801 36e0 636800   		.ascii	"ch\000"
 11802 36e3 09       		.byte	0x9
 11803 36e4 EB01     		.2byte	0x1eb
 11804 36e6 16040000 		.4byte	0x416
 11805 36ea 56       		.uleb128 0x56
 11806 36eb 36110000 		.4byte	.LASF327
 11807 36ef 14       		.byte	0x14
 11808 36f0 3B       		.byte	0x3b
 11809 36f1 CB080000 		.4byte	0x8cb
 11810 36f5 56       		.uleb128 0x56
 11811 36f6 2E040000 		.4byte	.LASF328
 11812 36fa 1B       		.byte	0x1b
 11813 36fb AA       		.byte	0xaa
 11814 36fc 31090000 		.4byte	0x931
ARM GAS  C:\Users\jo\AppData\Local\Temp\ccLDsGlj.s 			page 211


 11815 3700 57       		.uleb128 0x57
 11816 3701 56080000 		.4byte	.LASF329
 11817 3705 20       		.byte	0x20
 11818 3706 6A       		.byte	0x6a
 11819 3707 47030000 		.4byte	0x347
 11820 370b 15370000 		.4byte	0x3715
 11821 370f 0D       		.uleb128 0xd
 11822 3710 4A130000 		.4byte	0x134a
 11823 3714 00       		.byte	0
 11824 3715 57       		.uleb128 0x57
 11825 3716 300A0000 		.4byte	.LASF330
 11826 371a 22       		.byte	0x22
 11827 371b B7       		.byte	0xb7
 11828 371c 3C090000 		.4byte	0x93c
 11829 3720 2F370000 		.4byte	0x372f
 11830 3724 0D       		.uleb128 0xd
 11831 3725 2F370000 		.4byte	0x372f
 11832 3729 0D       		.uleb128 0xd
 11833 372a 47030000 		.4byte	0x347
 11834 372e 00       		.byte	0
 11835 372f 0B       		.uleb128 0xb
 11836 3730 04       		.byte	0x4
 11837 3731 58090000 		.4byte	0x958
 11838 3735 57       		.uleb128 0x57
 11839 3736 25080000 		.4byte	.LASF331
 11840 373a 18       		.byte	0x18
 11841 373b 9B       		.byte	0x9b
 11842 373c E1080000 		.4byte	0x8e1
 11843 3740 4A370000 		.4byte	0x374a
 11844 3744 0D       		.uleb128 0xd
 11845 3745 220A0000 		.4byte	0xa22
 11846 3749 00       		.byte	0
 11847 374a 58       		.uleb128 0x58
 11848 374b C5030000 		.4byte	.LASF335
 11849 374f 19       		.byte	0x19
 11850 3750 41       		.byte	0x41
 11851 3751 5B370000 		.4byte	0x375b
 11852 3755 0D       		.uleb128 0xd
 11853 3756 54110000 		.4byte	0x1154
 11854 375a 00       		.byte	0
 11855 375b 57       		.uleb128 0x57
 11856 375c 2F050000 		.4byte	.LASF332
 11857 3760 22       		.byte	0x22
 11858 3761 D2       		.byte	0xd2
 11859 3762 25000000 		.4byte	0x25
 11860 3766 70370000 		.4byte	0x3770
 11861 376a 0D       		.uleb128 0xd
 11862 376b 2F370000 		.4byte	0x372f
 11863 376f 00       		.byte	0
 11864 3770 57       		.uleb128 0x57
 11865 3771 A1030000 		.4byte	.LASF333
 11866 3775 18       		.byte	0x18
 11867 3776 92       		.byte	0x92
 11868 3777 220A0000 		.4byte	0xa22
 11869 377b 8F370000 		.4byte	0x378f
 11870 377f 0D       		.uleb128 0xd
 11871 3780 8A090000 		.4byte	0x98a
ARM GAS  C:\Users\jo\AppData\Local\Temp\ccLDsGlj.s 			page 212


 11872 3784 0D       		.uleb128 0xd
 11873 3785 F7080000 		.4byte	0x8f7
 11874 3789 0D       		.uleb128 0xd
 11875 378a B6090000 		.4byte	0x9b6
 11876 378e 00       		.byte	0
 11877 378f 57       		.uleb128 0x57
 11878 3790 F5040000 		.4byte	.LASF334
 11879 3794 18       		.byte	0x18
 11880 3795 A0       		.byte	0xa0
 11881 3796 3C090000 		.4byte	0x93c
 11882 379a A9370000 		.4byte	0x37a9
 11883 379e 0D       		.uleb128 0xd
 11884 379f 220A0000 		.4byte	0xa22
 11885 37a3 0D       		.uleb128 0xd
 11886 37a4 220A0000 		.4byte	0xa22
 11887 37a8 00       		.byte	0
 11888 37a9 59       		.uleb128 0x59
 11889 37aa 2F0F0000 		.4byte	.LASF336
 11890 37ae 1C       		.byte	0x1c
 11891 37af 3E01     		.2byte	0x13e
 11892 37b1 C0370000 		.4byte	0x37c0
 11893 37b5 0D       		.uleb128 0xd
 11894 37b6 EF0E0000 		.4byte	0xeef
 11895 37ba 0D       		.uleb128 0xd
 11896 37bb 47030000 		.4byte	0x347
 11897 37bf 00       		.byte	0
 11898 37c0 59       		.uleb128 0x59
 11899 37c1 630F0000 		.4byte	.LASF337
 11900 37c5 1C       		.byte	0x1c
 11901 37c6 4001     		.2byte	0x140
 11902 37c8 D7370000 		.4byte	0x37d7
 11903 37cc 0D       		.uleb128 0xd
 11904 37cd EF0E0000 		.4byte	0xeef
 11905 37d1 0D       		.uleb128 0xd
 11906 37d2 B4110000 		.4byte	0x11b4
 11907 37d6 00       		.byte	0
 11908 37d7 59       		.uleb128 0x59
 11909 37d8 22030000 		.4byte	.LASF338
 11910 37dc 1C       		.byte	0x1c
 11911 37dd 4101     		.2byte	0x141
 11912 37df EE370000 		.4byte	0x37ee
 11913 37e3 0D       		.uleb128 0xd
 11914 37e4 EF0E0000 		.4byte	0xeef
 11915 37e8 0D       		.uleb128 0xd
 11916 37e9 E3110000 		.4byte	0x11e3
 11917 37ed 00       		.byte	0
 11918 37ee 59       		.uleb128 0x59
 11919 37ef 1C080000 		.4byte	.LASF339
 11920 37f3 1C       		.byte	0x1c
 11921 37f4 4201     		.2byte	0x142
 11922 37f6 0A380000 		.4byte	0x380a
 11923 37fa 0D       		.uleb128 0xd
 11924 37fb EF0E0000 		.4byte	0xeef
 11925 37ff 0D       		.uleb128 0xd
 11926 3800 0D120000 		.4byte	0x120d
 11927 3804 0D       		.uleb128 0xd
 11928 3805 E1080000 		.4byte	0x8e1
ARM GAS  C:\Users\jo\AppData\Local\Temp\ccLDsGlj.s 			page 213


 11929 3809 00       		.byte	0
 11930 380a 59       		.uleb128 0x59
 11931 380b 6D090000 		.4byte	.LASF340
 11932 380f 1C       		.byte	0x1c
 11933 3810 4301     		.2byte	0x143
 11934 3812 21380000 		.4byte	0x3821
 11935 3816 0D       		.uleb128 0xd
 11936 3817 EF0E0000 		.4byte	0xeef
 11937 381b 0D       		.uleb128 0xd
 11938 381c 32120000 		.4byte	0x1232
 11939 3820 00       		.byte	0
 11940 3821 57       		.uleb128 0x57
 11941 3822 81000000 		.4byte	.LASF341
 11942 3826 02       		.byte	0x2
 11943 3827 28       		.byte	0x28
 11944 3828 25000000 		.4byte	0x25
 11945 382c 40380000 		.4byte	0x3840
 11946 3830 0D       		.uleb128 0xd
 11947 3831 F4130000 		.4byte	0x13f4
 11948 3835 0D       		.uleb128 0xd
 11949 3836 23060000 		.4byte	0x623
 11950 383a 0D       		.uleb128 0xd
 11951 383b D6080000 		.4byte	0x8d6
 11952 383f 00       		.byte	0
 11953 3840 58       		.uleb128 0x58
 11954 3841 6C0F0000 		.4byte	.LASF342
 11955 3845 23       		.byte	0x23
 11956 3846 E6       		.byte	0xe6
 11957 3847 51380000 		.4byte	0x3851
 11958 384b 0D       		.uleb128 0xd
 11959 384c 23060000 		.4byte	0x623
 11960 3850 00       		.byte	0
 11961 3851 59       		.uleb128 0x59
 11962 3852 7E040000 		.4byte	.LASF343
 11963 3856 1C       		.byte	0x1c
 11964 3857 5501     		.2byte	0x155
 11965 3859 68380000 		.4byte	0x3868
 11966 385d 0D       		.uleb128 0xd
 11967 385e EF0E0000 		.4byte	0xeef
 11968 3862 0D       		.uleb128 0xd
 11969 3863 F7080000 		.4byte	0x8f7
 11970 3867 00       		.byte	0
 11971 3868 5A       		.uleb128 0x5a
 11972 3869 69040000 		.4byte	.LASF344
 11973 386d 1C       		.byte	0x1c
 11974 386e 6001     		.2byte	0x160
 11975 3870 3C090000 		.4byte	0x93c
 11976 3874 88380000 		.4byte	0x3888
 11977 3878 0D       		.uleb128 0xd
 11978 3879 EF0E0000 		.4byte	0xeef
 11979 387d 0D       		.uleb128 0xd
 11980 387e 25000000 		.4byte	0x25
 11981 3882 0D       		.uleb128 0xd
 11982 3883 25000000 		.4byte	0x25
 11983 3887 00       		.byte	0
 11984 3888 58       		.uleb128 0x58
 11985 3889 C2040000 		.4byte	.LASF345
ARM GAS  C:\Users\jo\AppData\Local\Temp\ccLDsGlj.s 			page 214


 11986 388d 22       		.byte	0x22
 11987 388e 8E       		.byte	0x8e
 11988 388f 99380000 		.4byte	0x3899
 11989 3893 0D       		.uleb128 0xd
 11990 3894 55130000 		.4byte	0x1355
 11991 3898 00       		.byte	0
 11992 3899 5A       		.uleb128 0x5a
 11993 389a 8B090000 		.4byte	.LASF346
 11994 389e 1C       		.byte	0x1c
 11995 389f 5F01     		.2byte	0x15f
 11996 38a1 3C090000 		.4byte	0x93c
 11997 38a5 AF380000 		.4byte	0x38af
 11998 38a9 0D       		.uleb128 0xd
 11999 38aa EF0E0000 		.4byte	0xeef
 12000 38ae 00       		.byte	0
 12001 38af 59       		.uleb128 0x59
 12002 38b0 6D0A0000 		.4byte	.LASF347
 12003 38b4 1C       		.byte	0x1c
 12004 38b5 3F01     		.2byte	0x13f
 12005 38b7 C6380000 		.4byte	0x38c6
 12006 38bb 0D       		.uleb128 0xd
 12007 38bc EF0E0000 		.4byte	0xeef
 12008 38c0 0D       		.uleb128 0xd
 12009 38c1 8A110000 		.4byte	0x118a
 12010 38c5 00       		.byte	0
 12011 38c6 5A       		.uleb128 0x5a
 12012 38c7 43060000 		.4byte	.LASF348
 12013 38cb 1C       		.byte	0x1c
 12014 38cc 6F01     		.2byte	0x16f
 12015 38ce 3C090000 		.4byte	0x93c
 12016 38d2 DC380000 		.4byte	0x38dc
 12017 38d6 0D       		.uleb128 0xd
 12018 38d7 EF0E0000 		.4byte	0xeef
 12019 38db 00       		.byte	0
 12020 38dc 5A       		.uleb128 0x5a
 12021 38dd E7030000 		.4byte	.LASF349
 12022 38e1 1C       		.byte	0x1c
 12023 38e2 6601     		.2byte	0x166
 12024 38e4 3C090000 		.4byte	0x93c
 12025 38e8 01390000 		.4byte	0x3901
 12026 38ec 0D       		.uleb128 0xd
 12027 38ed EF0E0000 		.4byte	0xeef
 12028 38f1 0D       		.uleb128 0xd
 12029 38f2 D8100000 		.4byte	0x10d8
 12030 38f6 0D       		.uleb128 0xd
 12031 38f7 F7080000 		.4byte	0x8f7
 12032 38fb 0D       		.uleb128 0xd
 12033 38fc E1080000 		.4byte	0x8e1
 12034 3900 00       		.byte	0
 12035 3901 5B       		.uleb128 0x5b
 12036 3902 76040000 		.4byte	.LASF352
 12037 3906 1C       		.byte	0x1c
 12038 3907 3C01     		.2byte	0x13c
 12039 3909 EF0E0000 		.4byte	0xeef
 12040 390d 57       		.uleb128 0x57
 12041 390e 45000000 		.4byte	.LASF350
 12042 3912 1E       		.byte	0x1e
ARM GAS  C:\Users\jo\AppData\Local\Temp\ccLDsGlj.s 			page 215


 12043 3913 4F       		.byte	0x4f
 12044 3914 05100000 		.4byte	0x1005
 12045 3918 22390000 		.4byte	0x3922
 12046 391c 0D       		.uleb128 0xd
 12047 391d E1080000 		.4byte	0x8e1
 12048 3921 00       		.byte	0
 12049 3922 58       		.uleb128 0x58
 12050 3923 F9050000 		.4byte	.LASF351
 12051 3927 1E       		.byte	0x1e
 12052 3928 54       		.byte	0x54
 12053 3929 3D390000 		.4byte	0x393d
 12054 392d 0D       		.uleb128 0xd
 12055 392e 05100000 		.4byte	0x1005
 12056 3932 0D       		.uleb128 0xd
 12057 3933 B8120000 		.4byte	0x12b8
 12058 3937 0D       		.uleb128 0xd
 12059 3938 47030000 		.4byte	0x347
 12060 393c 00       		.byte	0
 12061 393d 5C       		.uleb128 0x5c
 12062 393e 1A060000 		.4byte	.LASF353
 12063 3942 1D       		.byte	0x1d
 12064 3943 7B       		.byte	0x7b
 12065 3944 860F0000 		.4byte	0xf86
 12066 3948 58       		.uleb128 0x58
 12067 3949 2D0E0000 		.4byte	.LASF354
 12068 394d 1D       		.byte	0x1d
 12069 394e 82       		.byte	0x82
 12070 394f 63390000 		.4byte	0x3963
 12071 3953 0D       		.uleb128 0xd
 12072 3954 860F0000 		.4byte	0xf86
 12073 3958 0D       		.uleb128 0xd
 12074 3959 5A110000 		.4byte	0x115a
 12075 395d 0D       		.uleb128 0xd
 12076 395e 47030000 		.4byte	0x347
 12077 3962 00       		.byte	0
 12078 3963 58       		.uleb128 0x58
 12079 3964 DC0F0000 		.4byte	.LASF355
 12080 3968 20       		.byte	0x20
 12081 3969 6C       		.byte	0x6c
 12082 396a 79390000 		.4byte	0x3979
 12083 396e 0D       		.uleb128 0xd
 12084 396f 4A130000 		.4byte	0x134a
 12085 3973 0D       		.uleb128 0xd
 12086 3974 47030000 		.4byte	0x347
 12087 3978 00       		.byte	0
 12088 3979 57       		.uleb128 0x57
 12089 397a 8F080000 		.4byte	.LASF356
 12090 397e 22       		.byte	0x22
 12091 397f 8B       		.byte	0x8b
 12092 3980 3C090000 		.4byte	0x93c
 12093 3984 93390000 		.4byte	0x3993
 12094 3988 0D       		.uleb128 0xd
 12095 3989 55130000 		.4byte	0x1355
 12096 398d 0D       		.uleb128 0xd
 12097 398e E1080000 		.4byte	0x8e1
 12098 3992 00       		.byte	0
 12099 3993 57       		.uleb128 0x57
ARM GAS  C:\Users\jo\AppData\Local\Temp\ccLDsGlj.s 			page 216


 12100 3994 8E100000 		.4byte	.LASF357
 12101 3998 22       		.byte	0x22
 12102 3999 AE       		.byte	0xae
 12103 399a 3C090000 		.4byte	0x93c
 12104 399e AD390000 		.4byte	0x39ad
 12105 39a2 0D       		.uleb128 0xd
 12106 39a3 2F370000 		.4byte	0x372f
 12107 39a7 0D       		.uleb128 0xd
 12108 39a8 25000000 		.4byte	0x25
 12109 39ac 00       		.byte	0
 12110 39ad 58       		.uleb128 0x58
 12111 39ae F8000000 		.4byte	.LASF358
 12112 39b2 22       		.byte	0x22
 12113 39b3 D6       		.byte	0xd6
 12114 39b4 BE390000 		.4byte	0x39be
 12115 39b8 0D       		.uleb128 0xd
 12116 39b9 2F370000 		.4byte	0x372f
 12117 39bd 00       		.byte	0
 12118 39be 58       		.uleb128 0x58
 12119 39bf 480C0000 		.4byte	.LASF359
 12120 39c3 22       		.byte	0x22
 12121 39c4 97       		.byte	0x97
 12122 39c5 CF390000 		.4byte	0x39cf
 12123 39c9 0D       		.uleb128 0xd
 12124 39ca 55130000 		.4byte	0x1355
 12125 39ce 00       		.byte	0
 12126 39cf 58       		.uleb128 0x58
 12127 39d0 D3030000 		.4byte	.LASF360
 12128 39d4 22       		.byte	0x22
 12129 39d5 A0       		.byte	0xa0
 12130 39d6 E0390000 		.4byte	0x39e0
 12131 39da 0D       		.uleb128 0xd
 12132 39db 55130000 		.4byte	0x1355
 12133 39df 00       		.byte	0
 12134 39e0 59       		.uleb128 0x59
 12135 39e1 D4080000 		.4byte	.LASF361
 12136 39e5 1C       		.byte	0x1c
 12137 39e6 5E01     		.2byte	0x15e
 12138 39e8 F2390000 		.4byte	0x39f2
 12139 39ec 0D       		.uleb128 0xd
 12140 39ed EF0E0000 		.4byte	0xeef
 12141 39f1 00       		.byte	0
 12142 39f2 57       		.uleb128 0x57
 12143 39f3 3E090000 		.4byte	.LASF362
 12144 39f7 22       		.byte	0x22
 12145 39f8 C8       		.byte	0xc8
 12146 39f9 0D090000 		.4byte	0x90d
 12147 39fd 0C3A0000 		.4byte	0x3a0c
 12148 3a01 0D       		.uleb128 0xd
 12149 3a02 2F370000 		.4byte	0x372f
 12150 3a06 0D       		.uleb128 0xd
 12151 3a07 0C3A0000 		.4byte	0x3a0c
 12152 3a0b 00       		.byte	0
 12153 3a0c 0B       		.uleb128 0xb
 12154 3a0d 04       		.byte	0x4
 12155 3a0e 47030000 		.4byte	0x347
 12156 3a12 58       		.uleb128 0x58
ARM GAS  C:\Users\jo\AppData\Local\Temp\ccLDsGlj.s 			page 217


 12157 3a13 630B0000 		.4byte	.LASF363
 12158 3a17 22       		.byte	0x22
 12159 3a18 CE       		.byte	0xce
 12160 3a19 233A0000 		.4byte	0x3a23
 12161 3a1d 0D       		.uleb128 0xd
 12162 3a1e 2F370000 		.4byte	0x372f
 12163 3a22 00       		.byte	0
 12164 3a23 57       		.uleb128 0x57
 12165 3a24 920F0000 		.4byte	.LASF364
 12166 3a28 22       		.byte	0x22
 12167 3a29 9C       		.byte	0x9c
 12168 3a2a 25000000 		.4byte	0x25
 12169 3a2e 383A0000 		.4byte	0x3a38
 12170 3a32 0D       		.uleb128 0xd
 12171 3a33 55130000 		.4byte	0x1355
 12172 3a37 00       		.byte	0
 12173 3a38 58       		.uleb128 0x58
 12174 3a39 C90F0000 		.4byte	.LASF365
 12175 3a3d 1D       		.byte	0x1d
 12176 3a3e 7C       		.byte	0x7c
 12177 3a3f 493A0000 		.4byte	0x3a49
 12178 3a43 0D       		.uleb128 0xd
 12179 3a44 860F0000 		.4byte	0xf86
 12180 3a48 00       		.byte	0
 12181 3a49 58       		.uleb128 0x58
 12182 3a4a 760F0000 		.4byte	.LASF366
 12183 3a4e 1E       		.byte	0x1e
 12184 3a4f 50       		.byte	0x50
 12185 3a50 5A3A0000 		.4byte	0x3a5a
 12186 3a54 0D       		.uleb128 0xd
 12187 3a55 05100000 		.4byte	0x1005
 12188 3a59 00       		.byte	0
 12189 3a5a 57       		.uleb128 0x57
 12190 3a5b 0F040000 		.4byte	.LASF367
 12191 3a5f 1D       		.byte	0x1d
 12192 3a60 7D       		.byte	0x7d
 12193 3a61 3C090000 		.4byte	0x93c
 12194 3a65 793A0000 		.4byte	0x3a79
 12195 3a69 0D       		.uleb128 0xd
 12196 3a6a 860F0000 		.4byte	0xf86
 12197 3a6e 0D       		.uleb128 0xd
 12198 3a6f 280A0000 		.4byte	0xa28
 12199 3a73 0D       		.uleb128 0xd
 12200 3a74 F7080000 		.4byte	0x8f7
 12201 3a78 00       		.byte	0
 12202 3a79 5A       		.uleb128 0x5a
 12203 3a7a EF000000 		.4byte	.LASF368
 12204 3a7e 1C       		.byte	0x1c
 12205 3a7f 5601     		.2byte	0x156
 12206 3a81 3C090000 		.4byte	0x93c
 12207 3a85 993A0000 		.4byte	0x3a99
 12208 3a89 0D       		.uleb128 0xd
 12209 3a8a EF0E0000 		.4byte	0xeef
 12210 3a8e 0D       		.uleb128 0xd
 12211 3a8f 280A0000 		.4byte	0xa28
 12212 3a93 0D       		.uleb128 0xd
 12213 3a94 F7080000 		.4byte	0x8f7
ARM GAS  C:\Users\jo\AppData\Local\Temp\ccLDsGlj.s 			page 218


 12214 3a98 00       		.byte	0
 12215 3a99 57       		.uleb128 0x57
 12216 3a9a FC060000 		.4byte	.LASF369
 12217 3a9e 1E       		.byte	0x1e
 12218 3a9f 51       		.byte	0x51
 12219 3aa0 3C090000 		.4byte	0x93c
 12220 3aa4 B33A0000 		.4byte	0x3ab3
 12221 3aa8 0D       		.uleb128 0xd
 12222 3aa9 05100000 		.4byte	0x1005
 12223 3aad 0D       		.uleb128 0xd
 12224 3aae 280A0000 		.4byte	0xa28
 12225 3ab2 00       		.byte	0
 12226 3ab3 57       		.uleb128 0x57
 12227 3ab4 510F0000 		.4byte	.LASF370
 12228 3ab8 1E       		.byte	0x1e
 12229 3ab9 52       		.byte	0x52
 12230 3aba 3C090000 		.4byte	0x93c
 12231 3abe CD3A0000 		.4byte	0x3acd
 12232 3ac2 0D       		.uleb128 0xd
 12233 3ac3 05100000 		.4byte	0x1005
 12234 3ac7 0D       		.uleb128 0xd
 12235 3ac8 280A0000 		.4byte	0xa28
 12236 3acc 00       		.byte	0
 12237 3acd 57       		.uleb128 0x57
 12238 3ace 63020000 		.4byte	.LASF371
 12239 3ad2 1D       		.byte	0x1d
 12240 3ad3 7F       		.byte	0x7f
 12241 3ad4 3C090000 		.4byte	0x93c
 12242 3ad8 EC3A0000 		.4byte	0x3aec
 12243 3adc 0D       		.uleb128 0xd
 12244 3add 860F0000 		.4byte	0xf86
 12245 3ae1 0D       		.uleb128 0xd
 12246 3ae2 280A0000 		.4byte	0xa28
 12247 3ae6 0D       		.uleb128 0xd
 12248 3ae7 F7080000 		.4byte	0x8f7
 12249 3aeb 00       		.byte	0
 12250 3aec 5A       		.uleb128 0x5a
 12251 3aed A5050000 		.4byte	.LASF372
 12252 3af1 1C       		.byte	0x1c
 12253 3af2 5801     		.2byte	0x158
 12254 3af4 3C090000 		.4byte	0x93c
 12255 3af8 113B0000 		.4byte	0x3b11
 12256 3afc 0D       		.uleb128 0xd
 12257 3afd EF0E0000 		.4byte	0xeef
 12258 3b01 0D       		.uleb128 0xd
 12259 3b02 280A0000 		.4byte	0xa28
 12260 3b06 0D       		.uleb128 0xd
 12261 3b07 F7080000 		.4byte	0x8f7
 12262 3b0b 0D       		.uleb128 0xd
 12263 3b0c 53120000 		.4byte	0x1253
 12264 3b10 00       		.byte	0
 12265 3b11 58       		.uleb128 0x58
 12266 3b12 E6040000 		.4byte	.LASF373
 12267 3b16 1D       		.byte	0x1d
 12268 3b17 81       		.byte	0x81
 12269 3b18 223B0000 		.4byte	0x3b22
 12270 3b1c 0D       		.uleb128 0xd
ARM GAS  C:\Users\jo\AppData\Local\Temp\ccLDsGlj.s 			page 219


 12271 3b1d 860F0000 		.4byte	0xf86
 12272 3b21 00       		.byte	0
 12273 3b22 5A       		.uleb128 0x5a
 12274 3b23 55090000 		.4byte	.LASF374
 12275 3b27 1C       		.byte	0x1c
 12276 3b28 5B01     		.2byte	0x15b
 12277 3b2a EF0E0000 		.4byte	0xeef
 12278 3b2e 3D3B0000 		.4byte	0x3b3d
 12279 3b32 0D       		.uleb128 0xd
 12280 3b33 EF0E0000 		.4byte	0xeef
 12281 3b37 0D       		.uleb128 0xd
 12282 3b38 E1080000 		.4byte	0x8e1
 12283 3b3c 00       		.byte	0
 12284 3b3d 57       		.uleb128 0x57
 12285 3b3e C4000000 		.4byte	.LASF375
 12286 3b42 1E       		.byte	0x1e
 12287 3b43 56       		.byte	0x56
 12288 3b44 3C090000 		.4byte	0x93c
 12289 3b48 573B0000 		.4byte	0x3b57
 12290 3b4c 0D       		.uleb128 0xd
 12291 3b4d 05100000 		.4byte	0x1005
 12292 3b51 0D       		.uleb128 0xd
 12293 3b52 220A0000 		.4byte	0xa22
 12294 3b56 00       		.byte	0
 12295 3b57 57       		.uleb128 0x57
 12296 3b58 20020000 		.4byte	.LASF376
 12297 3b5c 1D       		.byte	0x1d
 12298 3b5d 89       		.byte	0x89
 12299 3b5e 3C090000 		.4byte	0x93c
 12300 3b62 713B0000 		.4byte	0x3b71
 12301 3b66 0D       		.uleb128 0xd
 12302 3b67 860F0000 		.4byte	0xf86
 12303 3b6b 0D       		.uleb128 0xd
 12304 3b6c 220A0000 		.4byte	0xa22
 12305 3b70 00       		.byte	0
 12306 3b71 57       		.uleb128 0x57
 12307 3b72 9B000000 		.4byte	.LASF377
 12308 3b76 1D       		.byte	0x1d
 12309 3b77 87       		.byte	0x87
 12310 3b78 3C090000 		.4byte	0x93c
 12311 3b7c 953B0000 		.4byte	0x3b95
 12312 3b80 0D       		.uleb128 0xd
 12313 3b81 860F0000 		.4byte	0xf86
 12314 3b85 0D       		.uleb128 0xd
 12315 3b86 220A0000 		.4byte	0xa22
 12316 3b8a 0D       		.uleb128 0xd
 12317 3b8b 280A0000 		.4byte	0xa28
 12318 3b8f 0D       		.uleb128 0xd
 12319 3b90 F7080000 		.4byte	0x8f7
 12320 3b94 00       		.byte	0
 12321 3b95 5D       		.uleb128 0x5d
 12322 3b96 9B080000 		.4byte	.LASF378
 12323 3b9a 1E       		.byte	0x1e
 12324 3b9b 55       		.byte	0x55
 12325 3b9c 3C090000 		.4byte	0x93c
 12326 3ba0 0D       		.uleb128 0xd
 12327 3ba1 05100000 		.4byte	0x1005
ARM GAS  C:\Users\jo\AppData\Local\Temp\ccLDsGlj.s 			page 220


 12328 3ba5 0D       		.uleb128 0xd
 12329 3ba6 220A0000 		.4byte	0xa22
 12330 3baa 0D       		.uleb128 0xd
 12331 3bab 280A0000 		.4byte	0xa28
 12332 3baf 00       		.byte	0
 12333 3bb0 00       		.byte	0
 12334              		.section	.debug_abbrev,"",%progbits
 12335              	.Ldebug_abbrev0:
 12336 0000 01       		.uleb128 0x1
 12337 0001 11       		.uleb128 0x11
 12338 0002 01       		.byte	0x1
 12339 0003 25       		.uleb128 0x25
 12340 0004 0E       		.uleb128 0xe
 12341 0005 13       		.uleb128 0x13
 12342 0006 0B       		.uleb128 0xb
 12343 0007 03       		.uleb128 0x3
 12344 0008 0E       		.uleb128 0xe
 12345 0009 1B       		.uleb128 0x1b
 12346 000a 0E       		.uleb128 0xe
 12347 000b 55       		.uleb128 0x55
 12348 000c 17       		.uleb128 0x17
 12349 000d 11       		.uleb128 0x11
 12350 000e 01       		.uleb128 0x1
 12351 000f 10       		.uleb128 0x10
 12352 0010 17       		.uleb128 0x17
 12353 0011 00       		.byte	0
 12354 0012 00       		.byte	0
 12355 0013 02       		.uleb128 0x2
 12356 0014 24       		.uleb128 0x24
 12357 0015 00       		.byte	0
 12358 0016 0B       		.uleb128 0xb
 12359 0017 0B       		.uleb128 0xb
 12360 0018 3E       		.uleb128 0x3e
 12361 0019 0B       		.uleb128 0xb
 12362 001a 03       		.uleb128 0x3
 12363 001b 08       		.uleb128 0x8
 12364 001c 00       		.byte	0
 12365 001d 00       		.byte	0
 12366 001e 03       		.uleb128 0x3
 12367 001f 16       		.uleb128 0x16
 12368 0020 00       		.byte	0
 12369 0021 03       		.uleb128 0x3
 12370 0022 0E       		.uleb128 0xe
 12371 0023 3A       		.uleb128 0x3a
 12372 0024 0B       		.uleb128 0xb
 12373 0025 3B       		.uleb128 0x3b
 12374 0026 0B       		.uleb128 0xb
 12375 0027 49       		.uleb128 0x49
 12376 0028 13       		.uleb128 0x13
 12377 0029 00       		.byte	0
 12378 002a 00       		.byte	0
 12379 002b 04       		.uleb128 0x4
 12380 002c 24       		.uleb128 0x24
 12381 002d 00       		.byte	0
 12382 002e 0B       		.uleb128 0xb
 12383 002f 0B       		.uleb128 0xb
 12384 0030 3E       		.uleb128 0x3e
ARM GAS  C:\Users\jo\AppData\Local\Temp\ccLDsGlj.s 			page 221


 12385 0031 0B       		.uleb128 0xb
 12386 0032 03       		.uleb128 0x3
 12387 0033 0E       		.uleb128 0xe
 12388 0034 00       		.byte	0
 12389 0035 00       		.byte	0
 12390 0036 05       		.uleb128 0x5
 12391 0037 35       		.uleb128 0x35
 12392 0038 00       		.byte	0
 12393 0039 49       		.uleb128 0x49
 12394 003a 13       		.uleb128 0x13
 12395 003b 00       		.byte	0
 12396 003c 00       		.byte	0
 12397 003d 06       		.uleb128 0x6
 12398 003e 13       		.uleb128 0x13
 12399 003f 01       		.byte	0x1
 12400 0040 03       		.uleb128 0x3
 12401 0041 0E       		.uleb128 0xe
 12402 0042 0B       		.uleb128 0xb
 12403 0043 0B       		.uleb128 0xb
 12404 0044 3A       		.uleb128 0x3a
 12405 0045 0B       		.uleb128 0xb
 12406 0046 3B       		.uleb128 0x3b
 12407 0047 0B       		.uleb128 0xb
 12408 0048 01       		.uleb128 0x1
 12409 0049 13       		.uleb128 0x13
 12410 004a 00       		.byte	0
 12411 004b 00       		.byte	0
 12412 004c 07       		.uleb128 0x7
 12413 004d 0D       		.uleb128 0xd
 12414 004e 00       		.byte	0
 12415 004f 03       		.uleb128 0x3
 12416 0050 0E       		.uleb128 0xe
 12417 0051 3A       		.uleb128 0x3a
 12418 0052 0B       		.uleb128 0xb
 12419 0053 3B       		.uleb128 0x3b
 12420 0054 0B       		.uleb128 0xb
 12421 0055 49       		.uleb128 0x49
 12422 0056 13       		.uleb128 0x13
 12423 0057 38       		.uleb128 0x38
 12424 0058 0B       		.uleb128 0xb
 12425 0059 00       		.byte	0
 12426 005a 00       		.byte	0
 12427 005b 08       		.uleb128 0x8
 12428 005c 0D       		.uleb128 0xd
 12429 005d 00       		.byte	0
 12430 005e 03       		.uleb128 0x3
 12431 005f 08       		.uleb128 0x8
 12432 0060 3A       		.uleb128 0x3a
 12433 0061 0B       		.uleb128 0xb
 12434 0062 3B       		.uleb128 0x3b
 12435 0063 05       		.uleb128 0x5
 12436 0064 49       		.uleb128 0x49
 12437 0065 13       		.uleb128 0x13
 12438 0066 38       		.uleb128 0x38
 12439 0067 0B       		.uleb128 0xb
 12440 0068 00       		.byte	0
 12441 0069 00       		.byte	0
ARM GAS  C:\Users\jo\AppData\Local\Temp\ccLDsGlj.s 			page 222


 12442 006a 09       		.uleb128 0x9
 12443 006b 0D       		.uleb128 0xd
 12444 006c 00       		.byte	0
 12445 006d 03       		.uleb128 0x3
 12446 006e 0E       		.uleb128 0xe
 12447 006f 3A       		.uleb128 0x3a
 12448 0070 0B       		.uleb128 0xb
 12449 0071 3B       		.uleb128 0x3b
 12450 0072 05       		.uleb128 0x5
 12451 0073 49       		.uleb128 0x49
 12452 0074 13       		.uleb128 0x13
 12453 0075 38       		.uleb128 0x38
 12454 0076 0B       		.uleb128 0xb
 12455 0077 00       		.byte	0
 12456 0078 00       		.byte	0
 12457 0079 0A       		.uleb128 0xa
 12458 007a 13       		.uleb128 0x13
 12459 007b 01       		.byte	0x1
 12460 007c 03       		.uleb128 0x3
 12461 007d 0E       		.uleb128 0xe
 12462 007e 0B       		.uleb128 0xb
 12463 007f 0B       		.uleb128 0xb
 12464 0080 3A       		.uleb128 0x3a
 12465 0081 0B       		.uleb128 0xb
 12466 0082 3B       		.uleb128 0x3b
 12467 0083 05       		.uleb128 0x5
 12468 0084 01       		.uleb128 0x1
 12469 0085 13       		.uleb128 0x13
 12470 0086 00       		.byte	0
 12471 0087 00       		.byte	0
 12472 0088 0B       		.uleb128 0xb
 12473 0089 0F       		.uleb128 0xf
 12474 008a 00       		.byte	0
 12475 008b 0B       		.uleb128 0xb
 12476 008c 0B       		.uleb128 0xb
 12477 008d 49       		.uleb128 0x49
 12478 008e 13       		.uleb128 0x13
 12479 008f 00       		.byte	0
 12480 0090 00       		.byte	0
 12481 0091 0C       		.uleb128 0xc
 12482 0092 15       		.uleb128 0x15
 12483 0093 01       		.byte	0x1
 12484 0094 27       		.uleb128 0x27
 12485 0095 19       		.uleb128 0x19
 12486 0096 01       		.uleb128 0x1
 12487 0097 13       		.uleb128 0x13
 12488 0098 00       		.byte	0
 12489 0099 00       		.byte	0
 12490 009a 0D       		.uleb128 0xd
 12491 009b 05       		.uleb128 0x5
 12492 009c 00       		.byte	0
 12493 009d 49       		.uleb128 0x49
 12494 009e 13       		.uleb128 0x13
 12495 009f 00       		.byte	0
 12496 00a0 00       		.byte	0
 12497 00a1 0E       		.uleb128 0xe
 12498 00a2 0F       		.uleb128 0xf
ARM GAS  C:\Users\jo\AppData\Local\Temp\ccLDsGlj.s 			page 223


 12499 00a3 00       		.byte	0
 12500 00a4 0B       		.uleb128 0xb
 12501 00a5 0B       		.uleb128 0xb
 12502 00a6 00       		.byte	0
 12503 00a7 00       		.byte	0
 12504 00a8 0F       		.uleb128 0xf
 12505 00a9 13       		.uleb128 0x13
 12506 00aa 01       		.byte	0x1
 12507 00ab 03       		.uleb128 0x3
 12508 00ac 0E       		.uleb128 0xe
 12509 00ad 0B       		.uleb128 0xb
 12510 00ae 05       		.uleb128 0x5
 12511 00af 3A       		.uleb128 0x3a
 12512 00b0 0B       		.uleb128 0xb
 12513 00b1 3B       		.uleb128 0x3b
 12514 00b2 05       		.uleb128 0x5
 12515 00b3 01       		.uleb128 0x1
 12516 00b4 13       		.uleb128 0x13
 12517 00b5 00       		.byte	0
 12518 00b6 00       		.byte	0
 12519 00b7 10       		.uleb128 0x10
 12520 00b8 0D       		.uleb128 0xd
 12521 00b9 00       		.byte	0
 12522 00ba 03       		.uleb128 0x3
 12523 00bb 08       		.uleb128 0x8
 12524 00bc 3A       		.uleb128 0x3a
 12525 00bd 0B       		.uleb128 0xb
 12526 00be 3B       		.uleb128 0x3b
 12527 00bf 0B       		.uleb128 0xb
 12528 00c0 49       		.uleb128 0x49
 12529 00c1 13       		.uleb128 0x13
 12530 00c2 38       		.uleb128 0x38
 12531 00c3 0B       		.uleb128 0xb
 12532 00c4 00       		.byte	0
 12533 00c5 00       		.byte	0
 12534 00c6 11       		.uleb128 0x11
 12535 00c7 0D       		.uleb128 0xd
 12536 00c8 00       		.byte	0
 12537 00c9 03       		.uleb128 0x3
 12538 00ca 0E       		.uleb128 0xe
 12539 00cb 49       		.uleb128 0x49
 12540 00cc 13       		.uleb128 0x13
 12541 00cd 38       		.uleb128 0x38
 12542 00ce 0B       		.uleb128 0xb
 12543 00cf 34       		.uleb128 0x34
 12544 00d0 19       		.uleb128 0x19
 12545 00d1 00       		.byte	0
 12546 00d2 00       		.byte	0
 12547 00d3 12       		.uleb128 0x12
 12548 00d4 26       		.uleb128 0x26
 12549 00d5 00       		.byte	0
 12550 00d6 49       		.uleb128 0x49
 12551 00d7 13       		.uleb128 0x13
 12552 00d8 00       		.byte	0
 12553 00d9 00       		.byte	0
 12554 00da 13       		.uleb128 0x13
 12555 00db 13       		.uleb128 0x13
ARM GAS  C:\Users\jo\AppData\Local\Temp\ccLDsGlj.s 			page 224


 12556 00dc 01       		.byte	0x1
 12557 00dd 0B       		.uleb128 0xb
 12558 00de 0B       		.uleb128 0xb
 12559 00df 3A       		.uleb128 0x3a
 12560 00e0 0B       		.uleb128 0xb
 12561 00e1 3B       		.uleb128 0x3b
 12562 00e2 0B       		.uleb128 0xb
 12563 00e3 01       		.uleb128 0x1
 12564 00e4 13       		.uleb128 0x13
 12565 00e5 00       		.byte	0
 12566 00e6 00       		.byte	0
 12567 00e7 14       		.uleb128 0x14
 12568 00e8 17       		.uleb128 0x17
 12569 00e9 01       		.byte	0x1
 12570 00ea 0B       		.uleb128 0xb
 12571 00eb 0B       		.uleb128 0xb
 12572 00ec 3A       		.uleb128 0x3a
 12573 00ed 0B       		.uleb128 0xb
 12574 00ee 3B       		.uleb128 0x3b
 12575 00ef 0B       		.uleb128 0xb
 12576 00f0 01       		.uleb128 0x1
 12577 00f1 13       		.uleb128 0x13
 12578 00f2 00       		.byte	0
 12579 00f3 00       		.byte	0
 12580 00f4 15       		.uleb128 0x15
 12581 00f5 0D       		.uleb128 0xd
 12582 00f6 00       		.byte	0
 12583 00f7 03       		.uleb128 0x3
 12584 00f8 0E       		.uleb128 0xe
 12585 00f9 3A       		.uleb128 0x3a
 12586 00fa 0B       		.uleb128 0xb
 12587 00fb 3B       		.uleb128 0x3b
 12588 00fc 0B       		.uleb128 0xb
 12589 00fd 49       		.uleb128 0x49
 12590 00fe 13       		.uleb128 0x13
 12591 00ff 00       		.byte	0
 12592 0100 00       		.byte	0
 12593 0101 16       		.uleb128 0x16
 12594 0102 0D       		.uleb128 0xd
 12595 0103 00       		.byte	0
 12596 0104 03       		.uleb128 0x3
 12597 0105 0E       		.uleb128 0xe
 12598 0106 3A       		.uleb128 0x3a
 12599 0107 0B       		.uleb128 0xb
 12600 0108 3B       		.uleb128 0x3b
 12601 0109 05       		.uleb128 0x5
 12602 010a 49       		.uleb128 0x49
 12603 010b 13       		.uleb128 0x13
 12604 010c 00       		.byte	0
 12605 010d 00       		.byte	0
 12606 010e 17       		.uleb128 0x17
 12607 010f 01       		.uleb128 0x1
 12608 0110 01       		.byte	0x1
 12609 0111 49       		.uleb128 0x49
 12610 0112 13       		.uleb128 0x13
 12611 0113 01       		.uleb128 0x1
 12612 0114 13       		.uleb128 0x13
ARM GAS  C:\Users\jo\AppData\Local\Temp\ccLDsGlj.s 			page 225


 12613 0115 00       		.byte	0
 12614 0116 00       		.byte	0
 12615 0117 18       		.uleb128 0x18
 12616 0118 21       		.uleb128 0x21
 12617 0119 00       		.byte	0
 12618 011a 49       		.uleb128 0x49
 12619 011b 13       		.uleb128 0x13
 12620 011c 2F       		.uleb128 0x2f
 12621 011d 0B       		.uleb128 0xb
 12622 011e 00       		.byte	0
 12623 011f 00       		.byte	0
 12624 0120 19       		.uleb128 0x19
 12625 0121 15       		.uleb128 0x15
 12626 0122 01       		.byte	0x1
 12627 0123 27       		.uleb128 0x27
 12628 0124 19       		.uleb128 0x19
 12629 0125 49       		.uleb128 0x49
 12630 0126 13       		.uleb128 0x13
 12631 0127 01       		.uleb128 0x1
 12632 0128 13       		.uleb128 0x13
 12633 0129 00       		.byte	0
 12634 012a 00       		.byte	0
 12635 012b 1A       		.uleb128 0x1a
 12636 012c 04       		.uleb128 0x4
 12637 012d 01       		.byte	0x1
 12638 012e 0B       		.uleb128 0xb
 12639 012f 0B       		.uleb128 0xb
 12640 0130 3A       		.uleb128 0x3a
 12641 0131 0B       		.uleb128 0xb
 12642 0132 3B       		.uleb128 0x3b
 12643 0133 0B       		.uleb128 0xb
 12644 0134 01       		.uleb128 0x1
 12645 0135 13       		.uleb128 0x13
 12646 0136 00       		.byte	0
 12647 0137 00       		.byte	0
 12648 0138 1B       		.uleb128 0x1b
 12649 0139 28       		.uleb128 0x28
 12650 013a 00       		.byte	0
 12651 013b 03       		.uleb128 0x3
 12652 013c 0E       		.uleb128 0xe
 12653 013d 1C       		.uleb128 0x1c
 12654 013e 0D       		.uleb128 0xd
 12655 013f 00       		.byte	0
 12656 0140 00       		.byte	0
 12657 0141 1C       		.uleb128 0x1c
 12658 0142 04       		.uleb128 0x4
 12659 0143 01       		.byte	0x1
 12660 0144 03       		.uleb128 0x3
 12661 0145 0E       		.uleb128 0xe
 12662 0146 0B       		.uleb128 0xb
 12663 0147 0B       		.uleb128 0xb
 12664 0148 3A       		.uleb128 0x3a
 12665 0149 0B       		.uleb128 0xb
 12666 014a 3B       		.uleb128 0x3b
 12667 014b 0B       		.uleb128 0xb
 12668 014c 01       		.uleb128 0x1
 12669 014d 13       		.uleb128 0x13
ARM GAS  C:\Users\jo\AppData\Local\Temp\ccLDsGlj.s 			page 226


 12670 014e 00       		.byte	0
 12671 014f 00       		.byte	0
 12672 0150 1D       		.uleb128 0x1d
 12673 0151 0D       		.uleb128 0xd
 12674 0152 00       		.byte	0
 12675 0153 03       		.uleb128 0x3
 12676 0154 08       		.uleb128 0x8
 12677 0155 3A       		.uleb128 0x3a
 12678 0156 0B       		.uleb128 0xb
 12679 0157 3B       		.uleb128 0x3b
 12680 0158 0B       		.uleb128 0xb
 12681 0159 49       		.uleb128 0x49
 12682 015a 13       		.uleb128 0x13
 12683 015b 00       		.byte	0
 12684 015c 00       		.byte	0
 12685 015d 1E       		.uleb128 0x1e
 12686 015e 26       		.uleb128 0x26
 12687 015f 00       		.byte	0
 12688 0160 00       		.byte	0
 12689 0161 00       		.byte	0
 12690 0162 1F       		.uleb128 0x1f
 12691 0163 13       		.uleb128 0x13
 12692 0164 00       		.byte	0
 12693 0165 03       		.uleb128 0x3
 12694 0166 0E       		.uleb128 0xe
 12695 0167 3C       		.uleb128 0x3c
 12696 0168 19       		.uleb128 0x19
 12697 0169 00       		.byte	0
 12698 016a 00       		.byte	0
 12699 016b 20       		.uleb128 0x20
 12700 016c 2E       		.uleb128 0x2e
 12701 016d 01       		.byte	0x1
 12702 016e 03       		.uleb128 0x3
 12703 016f 0E       		.uleb128 0xe
 12704 0170 3A       		.uleb128 0x3a
 12705 0171 0B       		.uleb128 0xb
 12706 0172 3B       		.uleb128 0x3b
 12707 0173 05       		.uleb128 0x5
 12708 0174 27       		.uleb128 0x27
 12709 0175 19       		.uleb128 0x19
 12710 0176 20       		.uleb128 0x20
 12711 0177 0B       		.uleb128 0xb
 12712 0178 01       		.uleb128 0x1
 12713 0179 13       		.uleb128 0x13
 12714 017a 00       		.byte	0
 12715 017b 00       		.byte	0
 12716 017c 21       		.uleb128 0x21
 12717 017d 05       		.uleb128 0x5
 12718 017e 00       		.byte	0
 12719 017f 03       		.uleb128 0x3
 12720 0180 0E       		.uleb128 0xe
 12721 0181 3A       		.uleb128 0x3a
 12722 0182 0B       		.uleb128 0xb
 12723 0183 3B       		.uleb128 0x3b
 12724 0184 05       		.uleb128 0x5
 12725 0185 49       		.uleb128 0x49
 12726 0186 13       		.uleb128 0x13
ARM GAS  C:\Users\jo\AppData\Local\Temp\ccLDsGlj.s 			page 227


 12727 0187 00       		.byte	0
 12728 0188 00       		.byte	0
 12729 0189 22       		.uleb128 0x22
 12730 018a 2E       		.uleb128 0x2e
 12731 018b 01       		.byte	0x1
 12732 018c 03       		.uleb128 0x3
 12733 018d 0E       		.uleb128 0xe
 12734 018e 3A       		.uleb128 0x3a
 12735 018f 0B       		.uleb128 0xb
 12736 0190 3B       		.uleb128 0x3b
 12737 0191 05       		.uleb128 0x5
 12738 0192 27       		.uleb128 0x27
 12739 0193 19       		.uleb128 0x19
 12740 0194 49       		.uleb128 0x49
 12741 0195 13       		.uleb128 0x13
 12742 0196 20       		.uleb128 0x20
 12743 0197 0B       		.uleb128 0xb
 12744 0198 01       		.uleb128 0x1
 12745 0199 13       		.uleb128 0x13
 12746 019a 00       		.byte	0
 12747 019b 00       		.byte	0
 12748 019c 23       		.uleb128 0x23
 12749 019d 05       		.uleb128 0x5
 12750 019e 00       		.byte	0
 12751 019f 03       		.uleb128 0x3
 12752 01a0 08       		.uleb128 0x8
 12753 01a1 3A       		.uleb128 0x3a
 12754 01a2 0B       		.uleb128 0xb
 12755 01a3 3B       		.uleb128 0x3b
 12756 01a4 05       		.uleb128 0x5
 12757 01a5 49       		.uleb128 0x49
 12758 01a6 13       		.uleb128 0x13
 12759 01a7 00       		.byte	0
 12760 01a8 00       		.byte	0
 12761 01a9 24       		.uleb128 0x24
 12762 01aa 34       		.uleb128 0x34
 12763 01ab 00       		.byte	0
 12764 01ac 03       		.uleb128 0x3
 12765 01ad 0E       		.uleb128 0xe
 12766 01ae 3A       		.uleb128 0x3a
 12767 01af 0B       		.uleb128 0xb
 12768 01b0 3B       		.uleb128 0x3b
 12769 01b1 05       		.uleb128 0x5
 12770 01b2 49       		.uleb128 0x49
 12771 01b3 13       		.uleb128 0x13
 12772 01b4 00       		.byte	0
 12773 01b5 00       		.byte	0
 12774 01b6 25       		.uleb128 0x25
 12775 01b7 2E       		.uleb128 0x2e
 12776 01b8 01       		.byte	0x1
 12777 01b9 03       		.uleb128 0x3
 12778 01ba 0E       		.uleb128 0xe
 12779 01bb 3A       		.uleb128 0x3a
 12780 01bc 0B       		.uleb128 0xb
 12781 01bd 3B       		.uleb128 0x3b
 12782 01be 0B       		.uleb128 0xb
 12783 01bf 27       		.uleb128 0x27
ARM GAS  C:\Users\jo\AppData\Local\Temp\ccLDsGlj.s 			page 228


 12784 01c0 19       		.uleb128 0x19
 12785 01c1 49       		.uleb128 0x49
 12786 01c2 13       		.uleb128 0x13
 12787 01c3 20       		.uleb128 0x20
 12788 01c4 0B       		.uleb128 0xb
 12789 01c5 01       		.uleb128 0x1
 12790 01c6 13       		.uleb128 0x13
 12791 01c7 00       		.byte	0
 12792 01c8 00       		.byte	0
 12793 01c9 26       		.uleb128 0x26
 12794 01ca 05       		.uleb128 0x5
 12795 01cb 00       		.byte	0
 12796 01cc 03       		.uleb128 0x3
 12797 01cd 08       		.uleb128 0x8
 12798 01ce 3A       		.uleb128 0x3a
 12799 01cf 0B       		.uleb128 0xb
 12800 01d0 3B       		.uleb128 0x3b
 12801 01d1 0B       		.uleb128 0xb
 12802 01d2 49       		.uleb128 0x49
 12803 01d3 13       		.uleb128 0x13
 12804 01d4 00       		.byte	0
 12805 01d5 00       		.byte	0
 12806 01d6 27       		.uleb128 0x27
 12807 01d7 18       		.uleb128 0x18
 12808 01d8 00       		.byte	0
 12809 01d9 00       		.byte	0
 12810 01da 00       		.byte	0
 12811 01db 28       		.uleb128 0x28
 12812 01dc 34       		.uleb128 0x34
 12813 01dd 00       		.byte	0
 12814 01de 03       		.uleb128 0x3
 12815 01df 08       		.uleb128 0x8
 12816 01e0 3A       		.uleb128 0x3a
 12817 01e1 0B       		.uleb128 0xb
 12818 01e2 3B       		.uleb128 0x3b
 12819 01e3 0B       		.uleb128 0xb
 12820 01e4 49       		.uleb128 0x49
 12821 01e5 13       		.uleb128 0x13
 12822 01e6 00       		.byte	0
 12823 01e7 00       		.byte	0
 12824 01e8 29       		.uleb128 0x29
 12825 01e9 34       		.uleb128 0x34
 12826 01ea 00       		.byte	0
 12827 01eb 03       		.uleb128 0x3
 12828 01ec 0E       		.uleb128 0xe
 12829 01ed 3A       		.uleb128 0x3a
 12830 01ee 0B       		.uleb128 0xb
 12831 01ef 3B       		.uleb128 0x3b
 12832 01f0 0B       		.uleb128 0xb
 12833 01f1 49       		.uleb128 0x49
 12834 01f2 13       		.uleb128 0x13
 12835 01f3 00       		.byte	0
 12836 01f4 00       		.byte	0
 12837 01f5 2A       		.uleb128 0x2a
 12838 01f6 2E       		.uleb128 0x2e
 12839 01f7 01       		.byte	0x1
 12840 01f8 03       		.uleb128 0x3
ARM GAS  C:\Users\jo\AppData\Local\Temp\ccLDsGlj.s 			page 229


 12841 01f9 0E       		.uleb128 0xe
 12842 01fa 3A       		.uleb128 0x3a
 12843 01fb 0B       		.uleb128 0xb
 12844 01fc 3B       		.uleb128 0x3b
 12845 01fd 0B       		.uleb128 0xb
 12846 01fe 27       		.uleb128 0x27
 12847 01ff 19       		.uleb128 0x19
 12848 0200 49       		.uleb128 0x49
 12849 0201 13       		.uleb128 0x13
 12850 0202 11       		.uleb128 0x11
 12851 0203 01       		.uleb128 0x1
 12852 0204 12       		.uleb128 0x12
 12853 0205 06       		.uleb128 0x6
 12854 0206 40       		.uleb128 0x40
 12855 0207 18       		.uleb128 0x18
 12856 0208 9742     		.uleb128 0x2117
 12857 020a 19       		.uleb128 0x19
 12858 020b 01       		.uleb128 0x1
 12859 020c 13       		.uleb128 0x13
 12860 020d 00       		.byte	0
 12861 020e 00       		.byte	0
 12862 020f 2B       		.uleb128 0x2b
 12863 0210 05       		.uleb128 0x5
 12864 0211 00       		.byte	0
 12865 0212 03       		.uleb128 0x3
 12866 0213 08       		.uleb128 0x8
 12867 0214 3A       		.uleb128 0x3a
 12868 0215 0B       		.uleb128 0xb
 12869 0216 3B       		.uleb128 0x3b
 12870 0217 0B       		.uleb128 0xb
 12871 0218 49       		.uleb128 0x49
 12872 0219 13       		.uleb128 0x13
 12873 021a 02       		.uleb128 0x2
 12874 021b 17       		.uleb128 0x17
 12875 021c 00       		.byte	0
 12876 021d 00       		.byte	0
 12877 021e 2C       		.uleb128 0x2c
 12878 021f 05       		.uleb128 0x5
 12879 0220 00       		.byte	0
 12880 0221 03       		.uleb128 0x3
 12881 0222 0E       		.uleb128 0xe
 12882 0223 3A       		.uleb128 0x3a
 12883 0224 0B       		.uleb128 0xb
 12884 0225 3B       		.uleb128 0x3b
 12885 0226 0B       		.uleb128 0xb
 12886 0227 49       		.uleb128 0x49
 12887 0228 13       		.uleb128 0x13
 12888 0229 02       		.uleb128 0x2
 12889 022a 17       		.uleb128 0x17
 12890 022b 00       		.byte	0
 12891 022c 00       		.byte	0
 12892 022d 2D       		.uleb128 0x2d
 12893 022e 34       		.uleb128 0x34
 12894 022f 00       		.byte	0
 12895 0230 03       		.uleb128 0x3
 12896 0231 08       		.uleb128 0x8
 12897 0232 3A       		.uleb128 0x3a
ARM GAS  C:\Users\jo\AppData\Local\Temp\ccLDsGlj.s 			page 230


 12898 0233 0B       		.uleb128 0xb
 12899 0234 3B       		.uleb128 0x3b
 12900 0235 0B       		.uleb128 0xb
 12901 0236 49       		.uleb128 0x49
 12902 0237 13       		.uleb128 0x13
 12903 0238 02       		.uleb128 0x2
 12904 0239 17       		.uleb128 0x17
 12905 023a 00       		.byte	0
 12906 023b 00       		.byte	0
 12907 023c 2E       		.uleb128 0x2e
 12908 023d 34       		.uleb128 0x34
 12909 023e 00       		.byte	0
 12910 023f 03       		.uleb128 0x3
 12911 0240 0E       		.uleb128 0xe
 12912 0241 3A       		.uleb128 0x3a
 12913 0242 0B       		.uleb128 0xb
 12914 0243 3B       		.uleb128 0x3b
 12915 0244 0B       		.uleb128 0xb
 12916 0245 49       		.uleb128 0x49
 12917 0246 13       		.uleb128 0x13
 12918 0247 02       		.uleb128 0x2
 12919 0248 17       		.uleb128 0x17
 12920 0249 00       		.byte	0
 12921 024a 00       		.byte	0
 12922 024b 2F       		.uleb128 0x2f
 12923 024c 0B       		.uleb128 0xb
 12924 024d 01       		.byte	0x1
 12925 024e 55       		.uleb128 0x55
 12926 024f 17       		.uleb128 0x17
 12927 0250 01       		.uleb128 0x1
 12928 0251 13       		.uleb128 0x13
 12929 0252 00       		.byte	0
 12930 0253 00       		.byte	0
 12931 0254 30       		.uleb128 0x30
 12932 0255 898201   		.uleb128 0x4109
 12933 0258 01       		.byte	0x1
 12934 0259 11       		.uleb128 0x11
 12935 025a 01       		.uleb128 0x1
 12936 025b 31       		.uleb128 0x31
 12937 025c 13       		.uleb128 0x13
 12938 025d 01       		.uleb128 0x1
 12939 025e 13       		.uleb128 0x13
 12940 025f 00       		.byte	0
 12941 0260 00       		.byte	0
 12942 0261 31       		.uleb128 0x31
 12943 0262 8A8201   		.uleb128 0x410a
 12944 0265 00       		.byte	0
 12945 0266 02       		.uleb128 0x2
 12946 0267 18       		.uleb128 0x18
 12947 0268 9142     		.uleb128 0x2111
 12948 026a 18       		.uleb128 0x18
 12949 026b 00       		.byte	0
 12950 026c 00       		.byte	0
 12951 026d 32       		.uleb128 0x32
 12952 026e 898201   		.uleb128 0x4109
 12953 0271 01       		.byte	0x1
 12954 0272 11       		.uleb128 0x11
ARM GAS  C:\Users\jo\AppData\Local\Temp\ccLDsGlj.s 			page 231


 12955 0273 01       		.uleb128 0x1
 12956 0274 01       		.uleb128 0x1
 12957 0275 13       		.uleb128 0x13
 12958 0276 00       		.byte	0
 12959 0277 00       		.byte	0
 12960 0278 33       		.uleb128 0x33
 12961 0279 898201   		.uleb128 0x4109
 12962 027c 01       		.byte	0x1
 12963 027d 11       		.uleb128 0x11
 12964 027e 01       		.uleb128 0x1
 12965 027f 31       		.uleb128 0x31
 12966 0280 13       		.uleb128 0x13
 12967 0281 00       		.byte	0
 12968 0282 00       		.byte	0
 12969 0283 34       		.uleb128 0x34
 12970 0284 2E       		.uleb128 0x2e
 12971 0285 01       		.byte	0x1
 12972 0286 03       		.uleb128 0x3
 12973 0287 0E       		.uleb128 0xe
 12974 0288 3A       		.uleb128 0x3a
 12975 0289 0B       		.uleb128 0xb
 12976 028a 3B       		.uleb128 0x3b
 12977 028b 05       		.uleb128 0x5
 12978 028c 27       		.uleb128 0x27
 12979 028d 19       		.uleb128 0x19
 12980 028e 11       		.uleb128 0x11
 12981 028f 01       		.uleb128 0x1
 12982 0290 12       		.uleb128 0x12
 12983 0291 06       		.uleb128 0x6
 12984 0292 40       		.uleb128 0x40
 12985 0293 18       		.uleb128 0x18
 12986 0294 9742     		.uleb128 0x2117
 12987 0296 19       		.uleb128 0x19
 12988 0297 01       		.uleb128 0x1
 12989 0298 13       		.uleb128 0x13
 12990 0299 00       		.byte	0
 12991 029a 00       		.byte	0
 12992 029b 35       		.uleb128 0x35
 12993 029c 05       		.uleb128 0x5
 12994 029d 00       		.byte	0
 12995 029e 03       		.uleb128 0x3
 12996 029f 0E       		.uleb128 0xe
 12997 02a0 3A       		.uleb128 0x3a
 12998 02a1 0B       		.uleb128 0xb
 12999 02a2 3B       		.uleb128 0x3b
 13000 02a3 05       		.uleb128 0x5
 13001 02a4 49       		.uleb128 0x49
 13002 02a5 13       		.uleb128 0x13
 13003 02a6 02       		.uleb128 0x2
 13004 02a7 17       		.uleb128 0x17
 13005 02a8 00       		.byte	0
 13006 02a9 00       		.byte	0
 13007 02aa 36       		.uleb128 0x36
 13008 02ab 34       		.uleb128 0x34
 13009 02ac 00       		.byte	0
 13010 02ad 03       		.uleb128 0x3
 13011 02ae 08       		.uleb128 0x8
ARM GAS  C:\Users\jo\AppData\Local\Temp\ccLDsGlj.s 			page 232


 13012 02af 3A       		.uleb128 0x3a
 13013 02b0 0B       		.uleb128 0xb
 13014 02b1 3B       		.uleb128 0x3b
 13015 02b2 05       		.uleb128 0x5
 13016 02b3 49       		.uleb128 0x49
 13017 02b4 13       		.uleb128 0x13
 13018 02b5 02       		.uleb128 0x2
 13019 02b6 17       		.uleb128 0x17
 13020 02b7 00       		.byte	0
 13021 02b8 00       		.byte	0
 13022 02b9 37       		.uleb128 0x37
 13023 02ba 898201   		.uleb128 0x4109
 13024 02bd 01       		.byte	0x1
 13025 02be 11       		.uleb128 0x11
 13026 02bf 01       		.uleb128 0x1
 13027 02c0 9542     		.uleb128 0x2115
 13028 02c2 19       		.uleb128 0x19
 13029 02c3 31       		.uleb128 0x31
 13030 02c4 13       		.uleb128 0x13
 13031 02c5 00       		.byte	0
 13032 02c6 00       		.byte	0
 13033 02c7 38       		.uleb128 0x38
 13034 02c8 2E       		.uleb128 0x2e
 13035 02c9 01       		.byte	0x1
 13036 02ca 31       		.uleb128 0x31
 13037 02cb 13       		.uleb128 0x13
 13038 02cc 11       		.uleb128 0x11
 13039 02cd 01       		.uleb128 0x1
 13040 02ce 12       		.uleb128 0x12
 13041 02cf 06       		.uleb128 0x6
 13042 02d0 40       		.uleb128 0x40
 13043 02d1 18       		.uleb128 0x18
 13044 02d2 9742     		.uleb128 0x2117
 13045 02d4 19       		.uleb128 0x19
 13046 02d5 01       		.uleb128 0x1
 13047 02d6 13       		.uleb128 0x13
 13048 02d7 00       		.byte	0
 13049 02d8 00       		.byte	0
 13050 02d9 39       		.uleb128 0x39
 13051 02da 05       		.uleb128 0x5
 13052 02db 00       		.byte	0
 13053 02dc 31       		.uleb128 0x31
 13054 02dd 13       		.uleb128 0x13
 13055 02de 02       		.uleb128 0x2
 13056 02df 17       		.uleb128 0x17
 13057 02e0 00       		.byte	0
 13058 02e1 00       		.byte	0
 13059 02e2 3A       		.uleb128 0x3a
 13060 02e3 05       		.uleb128 0x5
 13061 02e4 00       		.byte	0
 13062 02e5 31       		.uleb128 0x31
 13063 02e6 13       		.uleb128 0x13
 13064 02e7 02       		.uleb128 0x2
 13065 02e8 18       		.uleb128 0x18
 13066 02e9 00       		.byte	0
 13067 02ea 00       		.byte	0
 13068 02eb 3B       		.uleb128 0x3b
ARM GAS  C:\Users\jo\AppData\Local\Temp\ccLDsGlj.s 			page 233


 13069 02ec 34       		.uleb128 0x34
 13070 02ed 00       		.byte	0
 13071 02ee 31       		.uleb128 0x31
 13072 02ef 13       		.uleb128 0x13
 13073 02f0 02       		.uleb128 0x2
 13074 02f1 18       		.uleb128 0x18
 13075 02f2 00       		.byte	0
 13076 02f3 00       		.byte	0
 13077 02f4 3C       		.uleb128 0x3c
 13078 02f5 05       		.uleb128 0x5
 13079 02f6 00       		.byte	0
 13080 02f7 31       		.uleb128 0x31
 13081 02f8 13       		.uleb128 0x13
 13082 02f9 00       		.byte	0
 13083 02fa 00       		.byte	0
 13084 02fb 3D       		.uleb128 0x3d
 13085 02fc 1D       		.uleb128 0x1d
 13086 02fd 01       		.byte	0x1
 13087 02fe 31       		.uleb128 0x31
 13088 02ff 13       		.uleb128 0x13
 13089 0300 11       		.uleb128 0x11
 13090 0301 01       		.uleb128 0x1
 13091 0302 12       		.uleb128 0x12
 13092 0303 06       		.uleb128 0x6
 13093 0304 58       		.uleb128 0x58
 13094 0305 0B       		.uleb128 0xb
 13095 0306 59       		.uleb128 0x59
 13096 0307 0B       		.uleb128 0xb
 13097 0308 01       		.uleb128 0x1
 13098 0309 13       		.uleb128 0x13
 13099 030a 00       		.byte	0
 13100 030b 00       		.byte	0
 13101 030c 3E       		.uleb128 0x3e
 13102 030d 34       		.uleb128 0x34
 13103 030e 00       		.byte	0
 13104 030f 03       		.uleb128 0x3
 13105 0310 0E       		.uleb128 0xe
 13106 0311 3A       		.uleb128 0x3a
 13107 0312 0B       		.uleb128 0xb
 13108 0313 3B       		.uleb128 0x3b
 13109 0314 05       		.uleb128 0x5
 13110 0315 49       		.uleb128 0x49
 13111 0316 13       		.uleb128 0x13
 13112 0317 02       		.uleb128 0x2
 13113 0318 17       		.uleb128 0x17
 13114 0319 00       		.byte	0
 13115 031a 00       		.byte	0
 13116 031b 3F       		.uleb128 0x3f
 13117 031c 1D       		.uleb128 0x1d
 13118 031d 01       		.byte	0x1
 13119 031e 31       		.uleb128 0x31
 13120 031f 13       		.uleb128 0x13
 13121 0320 11       		.uleb128 0x11
 13122 0321 01       		.uleb128 0x1
 13123 0322 12       		.uleb128 0x12
 13124 0323 06       		.uleb128 0x6
 13125 0324 58       		.uleb128 0x58
ARM GAS  C:\Users\jo\AppData\Local\Temp\ccLDsGlj.s 			page 234


 13126 0325 0B       		.uleb128 0xb
 13127 0326 59       		.uleb128 0x59
 13128 0327 05       		.uleb128 0x5
 13129 0328 01       		.uleb128 0x1
 13130 0329 13       		.uleb128 0x13
 13131 032a 00       		.byte	0
 13132 032b 00       		.byte	0
 13133 032c 40       		.uleb128 0x40
 13134 032d 898201   		.uleb128 0x4109
 13135 0330 01       		.byte	0x1
 13136 0331 11       		.uleb128 0x11
 13137 0332 01       		.uleb128 0x1
 13138 0333 9542     		.uleb128 0x2115
 13139 0335 19       		.uleb128 0x19
 13140 0336 31       		.uleb128 0x31
 13141 0337 13       		.uleb128 0x13
 13142 0338 01       		.uleb128 0x1
 13143 0339 13       		.uleb128 0x13
 13144 033a 00       		.byte	0
 13145 033b 00       		.byte	0
 13146 033c 41       		.uleb128 0x41
 13147 033d 898201   		.uleb128 0x4109
 13148 0340 00       		.byte	0
 13149 0341 11       		.uleb128 0x11
 13150 0342 01       		.uleb128 0x1
 13151 0343 31       		.uleb128 0x31
 13152 0344 13       		.uleb128 0x13
 13153 0345 00       		.byte	0
 13154 0346 00       		.byte	0
 13155 0347 42       		.uleb128 0x42
 13156 0348 2E       		.uleb128 0x2e
 13157 0349 01       		.byte	0x1
 13158 034a 03       		.uleb128 0x3
 13159 034b 0E       		.uleb128 0xe
 13160 034c 3A       		.uleb128 0x3a
 13161 034d 0B       		.uleb128 0xb
 13162 034e 3B       		.uleb128 0x3b
 13163 034f 05       		.uleb128 0x5
 13164 0350 27       		.uleb128 0x27
 13165 0351 19       		.uleb128 0x19
 13166 0352 49       		.uleb128 0x49
 13167 0353 13       		.uleb128 0x13
 13168 0354 11       		.uleb128 0x11
 13169 0355 01       		.uleb128 0x1
 13170 0356 12       		.uleb128 0x12
 13171 0357 06       		.uleb128 0x6
 13172 0358 40       		.uleb128 0x40
 13173 0359 18       		.uleb128 0x18
 13174 035a 9742     		.uleb128 0x2117
 13175 035c 19       		.uleb128 0x19
 13176 035d 01       		.uleb128 0x1
 13177 035e 13       		.uleb128 0x13
 13178 035f 00       		.byte	0
 13179 0360 00       		.byte	0
 13180 0361 43       		.uleb128 0x43
 13181 0362 34       		.uleb128 0x34
 13182 0363 00       		.byte	0
ARM GAS  C:\Users\jo\AppData\Local\Temp\ccLDsGlj.s 			page 235


 13183 0364 03       		.uleb128 0x3
 13184 0365 0E       		.uleb128 0xe
 13185 0366 3A       		.uleb128 0x3a
 13186 0367 0B       		.uleb128 0xb
 13187 0368 3B       		.uleb128 0x3b
 13188 0369 05       		.uleb128 0x5
 13189 036a 49       		.uleb128 0x49
 13190 036b 13       		.uleb128 0x13
 13191 036c 02       		.uleb128 0x2
 13192 036d 18       		.uleb128 0x18
 13193 036e 00       		.byte	0
 13194 036f 00       		.byte	0
 13195 0370 44       		.uleb128 0x44
 13196 0371 0A       		.uleb128 0xa
 13197 0372 00       		.byte	0
 13198 0373 03       		.uleb128 0x3
 13199 0374 0E       		.uleb128 0xe
 13200 0375 3A       		.uleb128 0x3a
 13201 0376 0B       		.uleb128 0xb
 13202 0377 3B       		.uleb128 0x3b
 13203 0378 05       		.uleb128 0x5
 13204 0379 11       		.uleb128 0x11
 13205 037a 01       		.uleb128 0x1
 13206 037b 00       		.byte	0
 13207 037c 00       		.byte	0
 13208 037d 45       		.uleb128 0x45
 13209 037e 898201   		.uleb128 0x4109
 13210 0381 01       		.byte	0x1
 13211 0382 11       		.uleb128 0x11
 13212 0383 01       		.uleb128 0x1
 13213 0384 00       		.byte	0
 13214 0385 00       		.byte	0
 13215 0386 46       		.uleb128 0x46
 13216 0387 05       		.uleb128 0x5
 13217 0388 00       		.byte	0
 13218 0389 03       		.uleb128 0x3
 13219 038a 08       		.uleb128 0x8
 13220 038b 3A       		.uleb128 0x3a
 13221 038c 0B       		.uleb128 0xb
 13222 038d 3B       		.uleb128 0x3b
 13223 038e 05       		.uleb128 0x5
 13224 038f 49       		.uleb128 0x49
 13225 0390 13       		.uleb128 0x13
 13226 0391 02       		.uleb128 0x2
 13227 0392 17       		.uleb128 0x17
 13228 0393 00       		.byte	0
 13229 0394 00       		.byte	0
 13230 0395 47       		.uleb128 0x47
 13231 0396 898201   		.uleb128 0x4109
 13232 0399 01       		.byte	0x1
 13233 039a 11       		.uleb128 0x11
 13234 039b 01       		.uleb128 0x1
 13235 039c 9342     		.uleb128 0x2113
 13236 039e 18       		.uleb128 0x18
 13237 039f 01       		.uleb128 0x1
 13238 03a0 13       		.uleb128 0x13
 13239 03a1 00       		.byte	0
ARM GAS  C:\Users\jo\AppData\Local\Temp\ccLDsGlj.s 			page 236


 13240 03a2 00       		.byte	0
 13241 03a3 48       		.uleb128 0x48
 13242 03a4 34       		.uleb128 0x34
 13243 03a5 00       		.byte	0
 13244 03a6 31       		.uleb128 0x31
 13245 03a7 13       		.uleb128 0x13
 13246 03a8 02       		.uleb128 0x2
 13247 03a9 17       		.uleb128 0x17
 13248 03aa 00       		.byte	0
 13249 03ab 00       		.byte	0
 13250 03ac 49       		.uleb128 0x49
 13251 03ad 0B       		.uleb128 0xb
 13252 03ae 01       		.byte	0x1
 13253 03af 11       		.uleb128 0x11
 13254 03b0 01       		.uleb128 0x1
 13255 03b1 12       		.uleb128 0x12
 13256 03b2 06       		.uleb128 0x6
 13257 03b3 01       		.uleb128 0x1
 13258 03b4 13       		.uleb128 0x13
 13259 03b5 00       		.byte	0
 13260 03b6 00       		.byte	0
 13261 03b7 4A       		.uleb128 0x4a
 13262 03b8 0B       		.uleb128 0xb
 13263 03b9 01       		.byte	0x1
 13264 03ba 11       		.uleb128 0x11
 13265 03bb 01       		.uleb128 0x1
 13266 03bc 12       		.uleb128 0x12
 13267 03bd 06       		.uleb128 0x6
 13268 03be 00       		.byte	0
 13269 03bf 00       		.byte	0
 13270 03c0 4B       		.uleb128 0x4b
 13271 03c1 34       		.uleb128 0x34
 13272 03c2 00       		.byte	0
 13273 03c3 31       		.uleb128 0x31
 13274 03c4 13       		.uleb128 0x13
 13275 03c5 00       		.byte	0
 13276 03c6 00       		.byte	0
 13277 03c7 4C       		.uleb128 0x4c
 13278 03c8 898201   		.uleb128 0x4109
 13279 03cb 01       		.byte	0x1
 13280 03cc 11       		.uleb128 0x11
 13281 03cd 01       		.uleb128 0x1
 13282 03ce 9342     		.uleb128 0x2113
 13283 03d0 18       		.uleb128 0x18
 13284 03d1 00       		.byte	0
 13285 03d2 00       		.byte	0
 13286 03d3 4D       		.uleb128 0x4d
 13287 03d4 1D       		.uleb128 0x1d
 13288 03d5 01       		.byte	0x1
 13289 03d6 31       		.uleb128 0x31
 13290 03d7 13       		.uleb128 0x13
 13291 03d8 52       		.uleb128 0x52
 13292 03d9 01       		.uleb128 0x1
 13293 03da 55       		.uleb128 0x55
 13294 03db 17       		.uleb128 0x17
 13295 03dc 58       		.uleb128 0x58
 13296 03dd 0B       		.uleb128 0xb
ARM GAS  C:\Users\jo\AppData\Local\Temp\ccLDsGlj.s 			page 237


 13297 03de 59       		.uleb128 0x59
 13298 03df 05       		.uleb128 0x5
 13299 03e0 01       		.uleb128 0x1
 13300 03e1 13       		.uleb128 0x13
 13301 03e2 00       		.byte	0
 13302 03e3 00       		.byte	0
 13303 03e4 4E       		.uleb128 0x4e
 13304 03e5 2E       		.uleb128 0x2e
 13305 03e6 01       		.byte	0x1
 13306 03e7 03       		.uleb128 0x3
 13307 03e8 0E       		.uleb128 0xe
 13308 03e9 3A       		.uleb128 0x3a
 13309 03ea 0B       		.uleb128 0xb
 13310 03eb 3B       		.uleb128 0x3b
 13311 03ec 0B       		.uleb128 0xb
 13312 03ed 27       		.uleb128 0x27
 13313 03ee 19       		.uleb128 0x19
 13314 03ef 11       		.uleb128 0x11
 13315 03f0 01       		.uleb128 0x1
 13316 03f1 12       		.uleb128 0x12
 13317 03f2 06       		.uleb128 0x6
 13318 03f3 40       		.uleb128 0x40
 13319 03f4 18       		.uleb128 0x18
 13320 03f5 9742     		.uleb128 0x2117
 13321 03f7 19       		.uleb128 0x19
 13322 03f8 01       		.uleb128 0x1
 13323 03f9 13       		.uleb128 0x13
 13324 03fa 00       		.byte	0
 13325 03fb 00       		.byte	0
 13326 03fc 4F       		.uleb128 0x4f
 13327 03fd 898201   		.uleb128 0x4109
 13328 0400 01       		.byte	0x1
 13329 0401 11       		.uleb128 0x11
 13330 0402 01       		.uleb128 0x1
 13331 0403 9542     		.uleb128 0x2115
 13332 0405 19       		.uleb128 0x19
 13333 0406 01       		.uleb128 0x1
 13334 0407 13       		.uleb128 0x13
 13335 0408 00       		.byte	0
 13336 0409 00       		.byte	0
 13337 040a 50       		.uleb128 0x50
 13338 040b 898201   		.uleb128 0x4109
 13339 040e 00       		.byte	0
 13340 040f 11       		.uleb128 0x11
 13341 0410 01       		.uleb128 0x1
 13342 0411 9542     		.uleb128 0x2115
 13343 0413 19       		.uleb128 0x19
 13344 0414 31       		.uleb128 0x31
 13345 0415 13       		.uleb128 0x13
 13346 0416 00       		.byte	0
 13347 0417 00       		.byte	0
 13348 0418 51       		.uleb128 0x51
 13349 0419 2E       		.uleb128 0x2e
 13350 041a 01       		.byte	0x1
 13351 041b 3F       		.uleb128 0x3f
 13352 041c 19       		.uleb128 0x19
 13353 041d 03       		.uleb128 0x3
ARM GAS  C:\Users\jo\AppData\Local\Temp\ccLDsGlj.s 			page 238


 13354 041e 0E       		.uleb128 0xe
 13355 041f 3A       		.uleb128 0x3a
 13356 0420 0B       		.uleb128 0xb
 13357 0421 3B       		.uleb128 0x3b
 13358 0422 05       		.uleb128 0x5
 13359 0423 27       		.uleb128 0x27
 13360 0424 19       		.uleb128 0x19
 13361 0425 11       		.uleb128 0x11
 13362 0426 01       		.uleb128 0x1
 13363 0427 12       		.uleb128 0x12
 13364 0428 06       		.uleb128 0x6
 13365 0429 40       		.uleb128 0x40
 13366 042a 18       		.uleb128 0x18
 13367 042b 9742     		.uleb128 0x2117
 13368 042d 19       		.uleb128 0x19
 13369 042e 01       		.uleb128 0x1
 13370 042f 13       		.uleb128 0x13
 13371 0430 00       		.byte	0
 13372 0431 00       		.byte	0
 13373 0432 52       		.uleb128 0x52
 13374 0433 2E       		.uleb128 0x2e
 13375 0434 01       		.byte	0x1
 13376 0435 3F       		.uleb128 0x3f
 13377 0436 19       		.uleb128 0x19
 13378 0437 03       		.uleb128 0x3
 13379 0438 0E       		.uleb128 0xe
 13380 0439 3A       		.uleb128 0x3a
 13381 043a 0B       		.uleb128 0xb
 13382 043b 3B       		.uleb128 0x3b
 13383 043c 05       		.uleb128 0x5
 13384 043d 27       		.uleb128 0x27
 13385 043e 19       		.uleb128 0x19
 13386 043f 49       		.uleb128 0x49
 13387 0440 13       		.uleb128 0x13
 13388 0441 11       		.uleb128 0x11
 13389 0442 01       		.uleb128 0x1
 13390 0443 12       		.uleb128 0x12
 13391 0444 06       		.uleb128 0x6
 13392 0445 40       		.uleb128 0x40
 13393 0446 18       		.uleb128 0x18
 13394 0447 9742     		.uleb128 0x2117
 13395 0449 19       		.uleb128 0x19
 13396 044a 01       		.uleb128 0x1
 13397 044b 13       		.uleb128 0x13
 13398 044c 00       		.byte	0
 13399 044d 00       		.byte	0
 13400 044e 53       		.uleb128 0x53
 13401 044f 34       		.uleb128 0x34
 13402 0450 00       		.byte	0
 13403 0451 03       		.uleb128 0x3
 13404 0452 08       		.uleb128 0x8
 13405 0453 3A       		.uleb128 0x3a
 13406 0454 0B       		.uleb128 0xb
 13407 0455 3B       		.uleb128 0x3b
 13408 0456 05       		.uleb128 0x5
 13409 0457 49       		.uleb128 0x49
 13410 0458 13       		.uleb128 0x13
ARM GAS  C:\Users\jo\AppData\Local\Temp\ccLDsGlj.s 			page 239


 13411 0459 02       		.uleb128 0x2
 13412 045a 18       		.uleb128 0x18
 13413 045b 00       		.byte	0
 13414 045c 00       		.byte	0
 13415 045d 54       		.uleb128 0x54
 13416 045e 34       		.uleb128 0x34
 13417 045f 00       		.byte	0
 13418 0460 03       		.uleb128 0x3
 13419 0461 0E       		.uleb128 0xe
 13420 0462 3A       		.uleb128 0x3a
 13421 0463 0B       		.uleb128 0xb
 13422 0464 3B       		.uleb128 0x3b
 13423 0465 05       		.uleb128 0x5
 13424 0466 49       		.uleb128 0x49
 13425 0467 13       		.uleb128 0x13
 13426 0468 3F       		.uleb128 0x3f
 13427 0469 19       		.uleb128 0x19
 13428 046a 3C       		.uleb128 0x3c
 13429 046b 19       		.uleb128 0x19
 13430 046c 00       		.byte	0
 13431 046d 00       		.byte	0
 13432 046e 55       		.uleb128 0x55
 13433 046f 34       		.uleb128 0x34
 13434 0470 00       		.byte	0
 13435 0471 03       		.uleb128 0x3
 13436 0472 08       		.uleb128 0x8
 13437 0473 3A       		.uleb128 0x3a
 13438 0474 0B       		.uleb128 0xb
 13439 0475 3B       		.uleb128 0x3b
 13440 0476 05       		.uleb128 0x5
 13441 0477 49       		.uleb128 0x49
 13442 0478 13       		.uleb128 0x13
 13443 0479 3F       		.uleb128 0x3f
 13444 047a 19       		.uleb128 0x19
 13445 047b 3C       		.uleb128 0x3c
 13446 047c 19       		.uleb128 0x19
 13447 047d 00       		.byte	0
 13448 047e 00       		.byte	0
 13449 047f 56       		.uleb128 0x56
 13450 0480 34       		.uleb128 0x34
 13451 0481 00       		.byte	0
 13452 0482 03       		.uleb128 0x3
 13453 0483 0E       		.uleb128 0xe
 13454 0484 3A       		.uleb128 0x3a
 13455 0485 0B       		.uleb128 0xb
 13456 0486 3B       		.uleb128 0x3b
 13457 0487 0B       		.uleb128 0xb
 13458 0488 49       		.uleb128 0x49
 13459 0489 13       		.uleb128 0x13
 13460 048a 3F       		.uleb128 0x3f
 13461 048b 19       		.uleb128 0x19
 13462 048c 3C       		.uleb128 0x3c
 13463 048d 19       		.uleb128 0x19
 13464 048e 00       		.byte	0
 13465 048f 00       		.byte	0
 13466 0490 57       		.uleb128 0x57
 13467 0491 2E       		.uleb128 0x2e
ARM GAS  C:\Users\jo\AppData\Local\Temp\ccLDsGlj.s 			page 240


 13468 0492 01       		.byte	0x1
 13469 0493 3F       		.uleb128 0x3f
 13470 0494 19       		.uleb128 0x19
 13471 0495 03       		.uleb128 0x3
 13472 0496 0E       		.uleb128 0xe
 13473 0497 3A       		.uleb128 0x3a
 13474 0498 0B       		.uleb128 0xb
 13475 0499 3B       		.uleb128 0x3b
 13476 049a 0B       		.uleb128 0xb
 13477 049b 27       		.uleb128 0x27
 13478 049c 19       		.uleb128 0x19
 13479 049d 49       		.uleb128 0x49
 13480 049e 13       		.uleb128 0x13
 13481 049f 3C       		.uleb128 0x3c
 13482 04a0 19       		.uleb128 0x19
 13483 04a1 01       		.uleb128 0x1
 13484 04a2 13       		.uleb128 0x13
 13485 04a3 00       		.byte	0
 13486 04a4 00       		.byte	0
 13487 04a5 58       		.uleb128 0x58
 13488 04a6 2E       		.uleb128 0x2e
 13489 04a7 01       		.byte	0x1
 13490 04a8 3F       		.uleb128 0x3f
 13491 04a9 19       		.uleb128 0x19
 13492 04aa 03       		.uleb128 0x3
 13493 04ab 0E       		.uleb128 0xe
 13494 04ac 3A       		.uleb128 0x3a
 13495 04ad 0B       		.uleb128 0xb
 13496 04ae 3B       		.uleb128 0x3b
 13497 04af 0B       		.uleb128 0xb
 13498 04b0 27       		.uleb128 0x27
 13499 04b1 19       		.uleb128 0x19
 13500 04b2 3C       		.uleb128 0x3c
 13501 04b3 19       		.uleb128 0x19
 13502 04b4 01       		.uleb128 0x1
 13503 04b5 13       		.uleb128 0x13
 13504 04b6 00       		.byte	0
 13505 04b7 00       		.byte	0
 13506 04b8 59       		.uleb128 0x59
 13507 04b9 2E       		.uleb128 0x2e
 13508 04ba 01       		.byte	0x1
 13509 04bb 3F       		.uleb128 0x3f
 13510 04bc 19       		.uleb128 0x19
 13511 04bd 03       		.uleb128 0x3
 13512 04be 0E       		.uleb128 0xe
 13513 04bf 3A       		.uleb128 0x3a
 13514 04c0 0B       		.uleb128 0xb
 13515 04c1 3B       		.uleb128 0x3b
 13516 04c2 05       		.uleb128 0x5
 13517 04c3 27       		.uleb128 0x27
 13518 04c4 19       		.uleb128 0x19
 13519 04c5 3C       		.uleb128 0x3c
 13520 04c6 19       		.uleb128 0x19
 13521 04c7 01       		.uleb128 0x1
 13522 04c8 13       		.uleb128 0x13
 13523 04c9 00       		.byte	0
 13524 04ca 00       		.byte	0
ARM GAS  C:\Users\jo\AppData\Local\Temp\ccLDsGlj.s 			page 241


 13525 04cb 5A       		.uleb128 0x5a
 13526 04cc 2E       		.uleb128 0x2e
 13527 04cd 01       		.byte	0x1
 13528 04ce 3F       		.uleb128 0x3f
 13529 04cf 19       		.uleb128 0x19
 13530 04d0 03       		.uleb128 0x3
 13531 04d1 0E       		.uleb128 0xe
 13532 04d2 3A       		.uleb128 0x3a
 13533 04d3 0B       		.uleb128 0xb
 13534 04d4 3B       		.uleb128 0x3b
 13535 04d5 05       		.uleb128 0x5
 13536 04d6 27       		.uleb128 0x27
 13537 04d7 19       		.uleb128 0x19
 13538 04d8 49       		.uleb128 0x49
 13539 04d9 13       		.uleb128 0x13
 13540 04da 3C       		.uleb128 0x3c
 13541 04db 19       		.uleb128 0x19
 13542 04dc 01       		.uleb128 0x1
 13543 04dd 13       		.uleb128 0x13
 13544 04de 00       		.byte	0
 13545 04df 00       		.byte	0
 13546 04e0 5B       		.uleb128 0x5b
 13547 04e1 2E       		.uleb128 0x2e
 13548 04e2 00       		.byte	0
 13549 04e3 3F       		.uleb128 0x3f
 13550 04e4 19       		.uleb128 0x19
 13551 04e5 03       		.uleb128 0x3
 13552 04e6 0E       		.uleb128 0xe
 13553 04e7 3A       		.uleb128 0x3a
 13554 04e8 0B       		.uleb128 0xb
 13555 04e9 3B       		.uleb128 0x3b
 13556 04ea 05       		.uleb128 0x5
 13557 04eb 27       		.uleb128 0x27
 13558 04ec 19       		.uleb128 0x19
 13559 04ed 49       		.uleb128 0x49
 13560 04ee 13       		.uleb128 0x13
 13561 04ef 3C       		.uleb128 0x3c
 13562 04f0 19       		.uleb128 0x19
 13563 04f1 00       		.byte	0
 13564 04f2 00       		.byte	0
 13565 04f3 5C       		.uleb128 0x5c
 13566 04f4 2E       		.uleb128 0x2e
 13567 04f5 00       		.byte	0
 13568 04f6 3F       		.uleb128 0x3f
 13569 04f7 19       		.uleb128 0x19
 13570 04f8 03       		.uleb128 0x3
 13571 04f9 0E       		.uleb128 0xe
 13572 04fa 3A       		.uleb128 0x3a
 13573 04fb 0B       		.uleb128 0xb
 13574 04fc 3B       		.uleb128 0x3b
 13575 04fd 0B       		.uleb128 0xb
 13576 04fe 27       		.uleb128 0x27
 13577 04ff 19       		.uleb128 0x19
 13578 0500 49       		.uleb128 0x49
 13579 0501 13       		.uleb128 0x13
 13580 0502 3C       		.uleb128 0x3c
 13581 0503 19       		.uleb128 0x19
ARM GAS  C:\Users\jo\AppData\Local\Temp\ccLDsGlj.s 			page 242


 13582 0504 00       		.byte	0
 13583 0505 00       		.byte	0
 13584 0506 5D       		.uleb128 0x5d
 13585 0507 2E       		.uleb128 0x2e
 13586 0508 01       		.byte	0x1
 13587 0509 3F       		.uleb128 0x3f
 13588 050a 19       		.uleb128 0x19
 13589 050b 03       		.uleb128 0x3
 13590 050c 0E       		.uleb128 0xe
 13591 050d 3A       		.uleb128 0x3a
 13592 050e 0B       		.uleb128 0xb
 13593 050f 3B       		.uleb128 0x3b
 13594 0510 0B       		.uleb128 0xb
 13595 0511 27       		.uleb128 0x27
 13596 0512 19       		.uleb128 0x19
 13597 0513 49       		.uleb128 0x49
 13598 0514 13       		.uleb128 0x13
 13599 0515 3C       		.uleb128 0x3c
 13600 0516 19       		.uleb128 0x19
 13601 0517 00       		.byte	0
 13602 0518 00       		.byte	0
 13603 0519 00       		.byte	0
 13604              		.section	.debug_loc,"",%progbits
 13605              	.Ldebug_loc0:
 13606              	.LLST0:
 13607 0000 00000000 		.4byte	.LVL0
 13608 0004 10000000 		.4byte	.LVL1
 13609 0008 0100     		.2byte	0x1
 13610 000a 50       		.byte	0x50
 13611 000b 10000000 		.4byte	.LVL1
 13612 000f 76000000 		.4byte	.LVL13
 13613 0013 0100     		.2byte	0x1
 13614 0015 55       		.byte	0x55
 13615 0016 76000000 		.4byte	.LVL13
 13616 001a 78000000 		.4byte	.LVL14
 13617 001e 0100     		.2byte	0x1
 13618 0020 50       		.byte	0x50
 13619 0021 78000000 		.4byte	.LVL14
 13620 0025 7A000000 		.4byte	.LVL15
 13621 0029 0400     		.2byte	0x4
 13622 002b F3       		.byte	0xf3
 13623 002c 01       		.uleb128 0x1
 13624 002d 50       		.byte	0x50
 13625 002e 9F       		.byte	0x9f
 13626 002f 7A000000 		.4byte	.LVL15
 13627 0033 90000000 		.4byte	.LFE256
 13628 0037 0100     		.2byte	0x1
 13629 0039 55       		.byte	0x55
 13630 003a 00000000 		.4byte	0
 13631 003e 00000000 		.4byte	0
 13632              	.LLST1:
 13633 0042 00000000 		.4byte	.LVL0
 13634 0046 17000000 		.4byte	.LVL2-1
 13635 004a 0100     		.2byte	0x1
 13636 004c 51       		.byte	0x51
 13637 004d 17000000 		.4byte	.LVL2-1
 13638 0051 1A000000 		.4byte	.LVL3
ARM GAS  C:\Users\jo\AppData\Local\Temp\ccLDsGlj.s 			page 243


 13639 0055 0100     		.2byte	0x1
 13640 0057 56       		.byte	0x56
 13641 0058 1A000000 		.4byte	.LVL3
 13642 005c 20000000 		.4byte	.LVL4
 13643 0060 0400     		.2byte	0x4
 13644 0062 F3       		.byte	0xf3
 13645 0063 01       		.uleb128 0x1
 13646 0064 51       		.byte	0x51
 13647 0065 9F       		.byte	0x9f
 13648 0066 20000000 		.4byte	.LVL4
 13649 006a 5C000000 		.4byte	.LVL10
 13650 006e 0100     		.2byte	0x1
 13651 0070 56       		.byte	0x56
 13652 0071 5C000000 		.4byte	.LVL10
 13653 0075 76000000 		.4byte	.LVL13
 13654 0079 0400     		.2byte	0x4
 13655 007b F3       		.byte	0xf3
 13656 007c 01       		.uleb128 0x1
 13657 007d 51       		.byte	0x51
 13658 007e 9F       		.byte	0x9f
 13659 007f 76000000 		.4byte	.LVL13
 13660 0083 7A000000 		.4byte	.LVL15
 13661 0087 0100     		.2byte	0x1
 13662 0089 51       		.byte	0x51
 13663 008a 7A000000 		.4byte	.LVL15
 13664 008e 82000000 		.4byte	.LVL17
 13665 0092 0100     		.2byte	0x1
 13666 0094 56       		.byte	0x56
 13667 0095 82000000 		.4byte	.LVL17
 13668 0099 90000000 		.4byte	.LFE256
 13669 009d 0400     		.2byte	0x4
 13670 009f F3       		.byte	0xf3
 13671 00a0 01       		.uleb128 0x1
 13672 00a1 51       		.byte	0x51
 13673 00a2 9F       		.byte	0x9f
 13674 00a3 00000000 		.4byte	0
 13675 00a7 00000000 		.4byte	0
 13676              	.LLST2:
 13677 00ab 00000000 		.4byte	.LVL0
 13678 00af 17000000 		.4byte	.LVL2-1
 13679 00b3 0100     		.2byte	0x1
 13680 00b5 52       		.byte	0x52
 13681 00b6 17000000 		.4byte	.LVL2-1
 13682 00ba 1A000000 		.4byte	.LVL3
 13683 00be 0100     		.2byte	0x1
 13684 00c0 54       		.byte	0x54
 13685 00c1 1A000000 		.4byte	.LVL3
 13686 00c5 20000000 		.4byte	.LVL4
 13687 00c9 0400     		.2byte	0x4
 13688 00cb F3       		.byte	0xf3
 13689 00cc 01       		.uleb128 0x1
 13690 00cd 52       		.byte	0x52
 13691 00ce 9F       		.byte	0x9f
 13692 00cf 20000000 		.4byte	.LVL4
 13693 00d3 40000000 		.4byte	.LVL8
 13694 00d7 0100     		.2byte	0x1
 13695 00d9 54       		.byte	0x54
ARM GAS  C:\Users\jo\AppData\Local\Temp\ccLDsGlj.s 			page 244


 13696 00da 40000000 		.4byte	.LVL8
 13697 00de 76000000 		.4byte	.LVL13
 13698 00e2 0400     		.2byte	0x4
 13699 00e4 F3       		.byte	0xf3
 13700 00e5 01       		.uleb128 0x1
 13701 00e6 52       		.byte	0x52
 13702 00e7 9F       		.byte	0x9f
 13703 00e8 76000000 		.4byte	.LVL13
 13704 00ec 7A000000 		.4byte	.LVL15
 13705 00f0 0100     		.2byte	0x1
 13706 00f2 52       		.byte	0x52
 13707 00f3 7A000000 		.4byte	.LVL15
 13708 00f7 90000000 		.4byte	.LFE256
 13709 00fb 0400     		.2byte	0x4
 13710 00fd F3       		.byte	0xf3
 13711 00fe 01       		.uleb128 0x1
 13712 00ff 52       		.byte	0x52
 13713 0100 9F       		.byte	0x9f
 13714 0101 00000000 		.4byte	0
 13715 0105 00000000 		.4byte	0
 13716              	.LLST3:
 13717 0109 00000000 		.4byte	.LVL0
 13718 010d 17000000 		.4byte	.LVL2-1
 13719 0111 0100     		.2byte	0x1
 13720 0113 53       		.byte	0x53
 13721 0114 17000000 		.4byte	.LVL2-1
 13722 0118 76000000 		.4byte	.LVL13
 13723 011c 0400     		.2byte	0x4
 13724 011e F3       		.byte	0xf3
 13725 011f 01       		.uleb128 0x1
 13726 0120 53       		.byte	0x53
 13727 0121 9F       		.byte	0x9f
 13728 0122 76000000 		.4byte	.LVL13
 13729 0126 7A000000 		.4byte	.LVL15
 13730 012a 0100     		.2byte	0x1
 13731 012c 53       		.byte	0x53
 13732 012d 7A000000 		.4byte	.LVL15
 13733 0131 90000000 		.4byte	.LFE256
 13734 0135 0400     		.2byte	0x4
 13735 0137 F3       		.byte	0xf3
 13736 0138 01       		.uleb128 0x1
 13737 0139 53       		.byte	0x53
 13738 013a 9F       		.byte	0x9f
 13739 013b 00000000 		.4byte	0
 13740 013f 00000000 		.4byte	0
 13741              	.LLST4:
 13742 0143 2A000000 		.4byte	.LVL5
 13743 0147 35000000 		.4byte	.LVL6-1
 13744 014b 0100     		.2byte	0x1
 13745 014d 50       		.byte	0x50
 13746 014e 35000000 		.4byte	.LVL6-1
 13747 0152 76000000 		.4byte	.LVL13
 13748 0156 0100     		.2byte	0x1
 13749 0158 58       		.byte	0x58
 13750 0159 7A000000 		.4byte	.LVL15
 13751 015d 90000000 		.4byte	.LFE256
 13752 0161 0100     		.2byte	0x1
ARM GAS  C:\Users\jo\AppData\Local\Temp\ccLDsGlj.s 			page 245


 13753 0163 58       		.byte	0x58
 13754 0164 00000000 		.4byte	0
 13755 0168 00000000 		.4byte	0
 13756              	.LLST5:
 13757 016c 3E000000 		.4byte	.LVL7
 13758 0170 58000000 		.4byte	.LVL9
 13759 0174 0100     		.2byte	0x1
 13760 0176 50       		.byte	0x50
 13761 0177 58000000 		.4byte	.LVL9
 13762 017b 5F000000 		.4byte	.LVL11-1
 13763 017f 0100     		.2byte	0x1
 13764 0181 51       		.byte	0x51
 13765 0182 5F000000 		.4byte	.LVL11-1
 13766 0186 76000000 		.4byte	.LVL13
 13767 018a 0100     		.2byte	0x1
 13768 018c 54       		.byte	0x54
 13769 018d 82000000 		.4byte	.LVL17
 13770 0191 90000000 		.4byte	.LFE256
 13771 0195 0100     		.2byte	0x1
 13772 0197 54       		.byte	0x54
 13773 0198 00000000 		.4byte	0
 13774 019c 00000000 		.4byte	0
 13775              	.LLST7:
 13776 01a0 5C000000 		.4byte	.LVL10
 13777 01a4 76000000 		.4byte	.LVL13
 13778 01a8 0100     		.2byte	0x1
 13779 01aa 56       		.byte	0x56
 13780 01ab 82000000 		.4byte	.LVL17
 13781 01af 90000000 		.4byte	.LFE256
 13782 01b3 0100     		.2byte	0x1
 13783 01b5 56       		.byte	0x56
 13784 01b6 00000000 		.4byte	0
 13785 01ba 00000000 		.4byte	0
 13786              	.LLST8:
 13787 01be 00000000 		.4byte	.LVL19
 13788 01c2 08000000 		.4byte	.LVL21
 13789 01c6 0100     		.2byte	0x1
 13790 01c8 50       		.byte	0x50
 13791 01c9 08000000 		.4byte	.LVL21
 13792 01cd 0B000000 		.4byte	.LVL22-1
 13793 01d1 0100     		.2byte	0x1
 13794 01d3 51       		.byte	0x51
 13795 01d4 0B000000 		.4byte	.LVL22-1
 13796 01d8 44000000 		.4byte	.LFE262
 13797 01dc 0400     		.2byte	0x4
 13798 01de F3       		.byte	0xf3
 13799 01df 01       		.uleb128 0x1
 13800 01e0 50       		.byte	0x50
 13801 01e1 9F       		.byte	0x9f
 13802 01e2 00000000 		.4byte	0
 13803 01e6 00000000 		.4byte	0
 13804              	.LLST9:
 13805 01ea 04000000 		.4byte	.LVL20
 13806 01ee 2E000000 		.4byte	.LVL26
 13807 01f2 0100     		.2byte	0x1
 13808 01f4 54       		.byte	0x54
 13809 01f5 2E000000 		.4byte	.LVL26
ARM GAS  C:\Users\jo\AppData\Local\Temp\ccLDsGlj.s 			page 246


 13810 01f9 31000000 		.4byte	.LVL27-1
 13811 01fd 0100     		.2byte	0x1
 13812 01ff 50       		.byte	0x50
 13813 0200 00000000 		.4byte	0
 13814 0204 00000000 		.4byte	0
 13815              	.LLST10:
 13816 0208 00000000 		.4byte	.LVL28
 13817 020c 0E000000 		.4byte	.LVL29
 13818 0210 0100     		.2byte	0x1
 13819 0212 50       		.byte	0x50
 13820 0213 0E000000 		.4byte	.LVL29
 13821 0217 28000000 		.4byte	.LFE283
 13822 021b 0400     		.2byte	0x4
 13823 021d F3       		.byte	0xf3
 13824 021e 01       		.uleb128 0x1
 13825 021f 50       		.byte	0x50
 13826 0220 9F       		.byte	0x9f
 13827 0221 00000000 		.4byte	0
 13828 0225 00000000 		.4byte	0
 13829              	.LLST11:
 13830 0229 00000000 		.4byte	.LVL31
 13831 022d 12000000 		.4byte	.LVL32
 13832 0231 0100     		.2byte	0x1
 13833 0233 50       		.byte	0x50
 13834 0234 12000000 		.4byte	.LVL32
 13835 0238 94000000 		.4byte	.LVL44
 13836 023c 0100     		.2byte	0x1
 13837 023e 54       		.byte	0x54
 13838 023f 94000000 		.4byte	.LVL44
 13839 0243 9E000000 		.4byte	.LVL48
 13840 0247 0100     		.2byte	0x1
 13841 0249 50       		.byte	0x50
 13842 024a 9E000000 		.4byte	.LVL48
 13843 024e E4000000 		.4byte	.LFE258
 13844 0252 0100     		.2byte	0x1
 13845 0254 54       		.byte	0x54
 13846 0255 00000000 		.4byte	0
 13847 0259 00000000 		.4byte	0
 13848              	.LLST12:
 13849 025d 00000000 		.4byte	.LVL31
 13850 0261 12000000 		.4byte	.LVL32
 13851 0265 0100     		.2byte	0x1
 13852 0267 51       		.byte	0x51
 13853 0268 12000000 		.4byte	.LVL32
 13854 026c 50000000 		.4byte	.LVL38
 13855 0270 0100     		.2byte	0x1
 13856 0272 57       		.byte	0x57
 13857 0273 50000000 		.4byte	.LVL38
 13858 0277 62000000 		.4byte	.LVL40
 13859 027b 0400     		.2byte	0x4
 13860 027d F3       		.byte	0xf3
 13861 027e 01       		.uleb128 0x1
 13862 027f 51       		.byte	0x51
 13863 0280 9F       		.byte	0x9f
 13864 0281 62000000 		.4byte	.LVL40
 13865 0285 72000000 		.4byte	.LVL41
 13866 0289 0100     		.2byte	0x1
ARM GAS  C:\Users\jo\AppData\Local\Temp\ccLDsGlj.s 			page 247


 13867 028b 57       		.byte	0x57
 13868 028c 72000000 		.4byte	.LVL41
 13869 0290 94000000 		.4byte	.LVL44
 13870 0294 0400     		.2byte	0x4
 13871 0296 F3       		.byte	0xf3
 13872 0297 01       		.uleb128 0x1
 13873 0298 51       		.byte	0x51
 13874 0299 9F       		.byte	0x9f
 13875 029a 94000000 		.4byte	.LVL44
 13876 029e 9A000000 		.4byte	.LVL46
 13877 02a2 0100     		.2byte	0x1
 13878 02a4 51       		.byte	0x51
 13879 02a5 9A000000 		.4byte	.LVL46
 13880 02a9 AE000000 		.4byte	.LVL52
 13881 02ad 0100     		.2byte	0x1
 13882 02af 57       		.byte	0x57
 13883 02b0 AE000000 		.4byte	.LVL52
 13884 02b4 B0000000 		.4byte	.LVL53
 13885 02b8 0400     		.2byte	0x4
 13886 02ba F3       		.byte	0xf3
 13887 02bb 01       		.uleb128 0x1
 13888 02bc 51       		.byte	0x51
 13889 02bd 9F       		.byte	0x9f
 13890 02be B0000000 		.4byte	.LVL53
 13891 02c2 C8000000 		.4byte	.LVL56
 13892 02c6 0100     		.2byte	0x1
 13893 02c8 57       		.byte	0x57
 13894 02c9 C8000000 		.4byte	.LVL56
 13895 02cd E4000000 		.4byte	.LFE258
 13896 02d1 0400     		.2byte	0x4
 13897 02d3 F3       		.byte	0xf3
 13898 02d4 01       		.uleb128 0x1
 13899 02d5 51       		.byte	0x51
 13900 02d6 9F       		.byte	0x9f
 13901 02d7 00000000 		.4byte	0
 13902 02db 00000000 		.4byte	0
 13903              	.LLST13:
 13904 02df 00000000 		.4byte	.LVL31
 13905 02e3 12000000 		.4byte	.LVL32
 13906 02e7 0100     		.2byte	0x1
 13907 02e9 52       		.byte	0x52
 13908 02ea 12000000 		.4byte	.LVL32
 13909 02ee 94000000 		.4byte	.LVL44
 13910 02f2 0100     		.2byte	0x1
 13911 02f4 56       		.byte	0x56
 13912 02f5 94000000 		.4byte	.LVL44
 13913 02f9 9C000000 		.4byte	.LVL47
 13914 02fd 0100     		.2byte	0x1
 13915 02ff 52       		.byte	0x52
 13916 0300 9C000000 		.4byte	.LVL47
 13917 0304 E4000000 		.4byte	.LFE258
 13918 0308 0100     		.2byte	0x1
 13919 030a 56       		.byte	0x56
 13920 030b 00000000 		.4byte	0
 13921 030f 00000000 		.4byte	0
 13922              	.LLST14:
 13923 0313 00000000 		.4byte	.LVL31
ARM GAS  C:\Users\jo\AppData\Local\Temp\ccLDsGlj.s 			page 248


 13924 0317 12000000 		.4byte	.LVL32
 13925 031b 0100     		.2byte	0x1
 13926 031d 53       		.byte	0x53
 13927 031e 12000000 		.4byte	.LVL32
 13928 0322 94000000 		.4byte	.LVL44
 13929 0326 0400     		.2byte	0x4
 13930 0328 F3       		.byte	0xf3
 13931 0329 01       		.uleb128 0x1
 13932 032a 53       		.byte	0x53
 13933 032b 9F       		.byte	0x9f
 13934 032c 94000000 		.4byte	.LVL44
 13935 0330 96000000 		.4byte	.LVL45
 13936 0334 0100     		.2byte	0x1
 13937 0336 53       		.byte	0x53
 13938 0337 96000000 		.4byte	.LVL45
 13939 033b E4000000 		.4byte	.LFE258
 13940 033f 0400     		.2byte	0x4
 13941 0341 F3       		.byte	0xf3
 13942 0342 01       		.uleb128 0x1
 13943 0343 53       		.byte	0x53
 13944 0344 9F       		.byte	0x9f
 13945 0345 00000000 		.4byte	0
 13946 0349 00000000 		.4byte	0
 13947              	.LLST15:
 13948 034d 16000000 		.4byte	.LVL33
 13949 0351 94000000 		.4byte	.LVL44
 13950 0355 0100     		.2byte	0x1
 13951 0357 54       		.byte	0x54
 13952 0358 AC000000 		.4byte	.LVL51
 13953 035c B0000000 		.4byte	.LVL53
 13954 0360 0100     		.2byte	0x1
 13955 0362 54       		.byte	0x54
 13956 0363 C8000000 		.4byte	.LVL56
 13957 0367 E4000000 		.4byte	.LFE258
 13958 036b 0100     		.2byte	0x1
 13959 036d 54       		.byte	0x54
 13960 036e 00000000 		.4byte	0
 13961 0372 00000000 		.4byte	0
 13962              	.LLST16:
 13963 0376 72000000 		.4byte	.LVL41
 13964 037a 94000000 		.4byte	.LVL44
 13965 037e 0100     		.2byte	0x1
 13966 0380 57       		.byte	0x57
 13967 0381 C8000000 		.4byte	.LVL56
 13968 0385 E4000000 		.4byte	.LFE258
 13969 0389 0100     		.2byte	0x1
 13970 038b 57       		.byte	0x57
 13971 038c 00000000 		.4byte	0
 13972 0390 00000000 		.4byte	0
 13973              	.LLST17:
 13974 0394 2C000000 		.4byte	.LVL34
 13975 0398 32000000 		.4byte	.LVL35
 13976 039c 0600     		.2byte	0x6
 13977 039e 03       		.byte	0x3
 13978 039f 9C000000 		.4byte	.LC4
 13979 03a3 9F       		.byte	0x9f
 13980 03a4 00000000 		.4byte	0
ARM GAS  C:\Users\jo\AppData\Local\Temp\ccLDsGlj.s 			page 249


 13981 03a8 00000000 		.4byte	0
 13982              	.LLST18:
 13983 03ac A4000000 		.4byte	.LVL49
 13984 03b0 AC000000 		.4byte	.LVL51
 13985 03b4 0600     		.2byte	0x6
 13986 03b6 03       		.byte	0x3
 13987 03b7 28000000 		.4byte	.LC1
 13988 03bb 9F       		.byte	0x9f
 13989 03bc 00000000 		.4byte	0
 13990 03c0 00000000 		.4byte	0
 13991              	.LLST19:
 13992 03c4 C0000000 		.4byte	.LVL54
 13993 03c8 C8000000 		.4byte	.LVL56
 13994 03cc 0600     		.2byte	0x6
 13995 03ce 03       		.byte	0x3
 13996 03cf 7C000000 		.4byte	.LC3
 13997 03d3 9F       		.byte	0x9f
 13998 03d4 00000000 		.4byte	0
 13999 03d8 00000000 		.4byte	0
 14000              	.LLST20:
 14001 03dc 00000000 		.4byte	.LVL57
 14002 03e0 0C000000 		.4byte	.LVL58
 14003 03e4 0100     		.2byte	0x1
 14004 03e6 50       		.byte	0x50
 14005 03e7 0C000000 		.4byte	.LVL58
 14006 03eb C0000000 		.4byte	.LVL70
 14007 03ef 0100     		.2byte	0x1
 14008 03f1 54       		.byte	0x54
 14009 03f2 C0000000 		.4byte	.LVL70
 14010 03f6 C3000000 		.4byte	.LVL71-1
 14011 03fa 0300     		.2byte	0x3
 14012 03fc 70       		.byte	0x70
 14013 03fd 74       		.sleb128 -12
 14014 03fe 9F       		.byte	0x9f
 14015 03ff C3000000 		.4byte	.LVL71-1
 14016 0403 C4000000 		.4byte	.LVL71
 14017 0407 0400     		.2byte	0x4
 14018 0409 F3       		.byte	0xf3
 14019 040a 01       		.uleb128 0x1
 14020 040b 50       		.byte	0x50
 14021 040c 9F       		.byte	0x9f
 14022 040d C4000000 		.4byte	.LVL71
 14023 0411 EE000000 		.4byte	.LVL76
 14024 0415 0100     		.2byte	0x1
 14025 0417 54       		.byte	0x54
 14026 0418 EE000000 		.4byte	.LVL76
 14027 041c F1000000 		.4byte	.LVL77-1
 14028 0420 0100     		.2byte	0x1
 14029 0422 51       		.byte	0x51
 14030 0423 F1000000 		.4byte	.LVL77-1
 14031 0427 F2000000 		.4byte	.LVL77
 14032 042b 0400     		.2byte	0x4
 14033 042d F3       		.byte	0xf3
 14034 042e 01       		.uleb128 0x1
 14035 042f 50       		.byte	0x50
 14036 0430 9F       		.byte	0x9f
 14037 0431 F2000000 		.4byte	.LVL77
ARM GAS  C:\Users\jo\AppData\Local\Temp\ccLDsGlj.s 			page 250


 14038 0435 B0010000 		.4byte	.LVL98
 14039 0439 0100     		.2byte	0x1
 14040 043b 54       		.byte	0x54
 14041 043c B0010000 		.4byte	.LVL98
 14042 0440 BA010000 		.4byte	.LVL99
 14043 0444 0100     		.2byte	0x1
 14044 0446 50       		.byte	0x50
 14045 0447 BA010000 		.4byte	.LVL99
 14046 044b 04020000 		.4byte	.LFE269
 14047 044f 0100     		.2byte	0x1
 14048 0451 54       		.byte	0x54
 14049 0452 00000000 		.4byte	0
 14050 0456 00000000 		.4byte	0
 14051              	.LLST21:
 14052 045a 90000000 		.4byte	.LVL66
 14053 045e 9A000000 		.4byte	.LVL67
 14054 0462 0100     		.2byte	0x1
 14055 0464 50       		.byte	0x50
 14056 0465 C4000000 		.4byte	.LVL71
 14057 0469 C6000000 		.4byte	.LVL72
 14058 046d 0100     		.2byte	0x1
 14059 046f 50       		.byte	0x50
 14060 0470 14010000 		.4byte	.LVL81
 14061 0474 2E010000 		.4byte	.LVL82
 14062 0478 0100     		.2byte	0x1
 14063 047a 50       		.byte	0x50
 14064 047b 2E010000 		.4byte	.LVL82
 14065 047f 2F010000 		.4byte	.LVL83-1
 14066 0483 0200     		.2byte	0x2
 14067 0485 70       		.byte	0x70
 14068 0486 01       		.sleb128 1
 14069 0487 00000000 		.4byte	0
 14070 048b 00000000 		.4byte	0
 14071              	.LLST22:
 14072 048f 5A000000 		.4byte	.LVL63
 14073 0493 7C000000 		.4byte	.LVL65
 14074 0497 0100     		.2byte	0x1
 14075 0499 51       		.byte	0x51
 14076 049a 48010000 		.4byte	.LVL86
 14077 049e 4A010000 		.4byte	.LVL87
 14078 04a2 0100     		.2byte	0x1
 14079 04a4 51       		.byte	0x51
 14080 04a5 4A010000 		.4byte	.LVL87
 14081 04a9 4D010000 		.4byte	.LVL88-1
 14082 04ad 0200     		.2byte	0x2
 14083 04af 73       		.byte	0x73
 14084 04b0 08       		.sleb128 8
 14085 04b1 CA010000 		.4byte	.LVL102
 14086 04b5 CC010000 		.4byte	.LVL103
 14087 04b9 0100     		.2byte	0x1
 14088 04bb 51       		.byte	0x51
 14089 04bc 00000000 		.4byte	0
 14090 04c0 00000000 		.4byte	0
 14091              	.LLST23:
 14092 04c4 70000000 		.4byte	.LVL64
 14093 04c8 C0000000 		.4byte	.LVL70
 14094 04cc 0100     		.2byte	0x1
ARM GAS  C:\Users\jo\AppData\Local\Temp\ccLDsGlj.s 			page 251


 14095 04ce 55       		.byte	0x55
 14096 04cf C4000000 		.4byte	.LVL71
 14097 04d3 EE000000 		.4byte	.LVL76
 14098 04d7 0100     		.2byte	0x1
 14099 04d9 55       		.byte	0x55
 14100 04da F2000000 		.4byte	.LVL77
 14101 04de 7A010000 		.4byte	.LVL92
 14102 04e2 0100     		.2byte	0x1
 14103 04e4 55       		.byte	0x55
 14104 04e5 CA010000 		.4byte	.LVL102
 14105 04e9 04020000 		.4byte	.LFE269
 14106 04ed 0100     		.2byte	0x1
 14107 04ef 55       		.byte	0x55
 14108 04f0 00000000 		.4byte	0
 14109 04f4 00000000 		.4byte	0
 14110              	.LLST24:
 14111 04f8 70000000 		.4byte	.LVL64
 14112 04fc C0000000 		.4byte	.LVL70
 14113 0500 0100     		.2byte	0x1
 14114 0502 56       		.byte	0x56
 14115 0503 C4000000 		.4byte	.LVL71
 14116 0507 EE000000 		.4byte	.LVL76
 14117 050b 0100     		.2byte	0x1
 14118 050d 56       		.byte	0x56
 14119 050e F2000000 		.4byte	.LVL77
 14120 0512 7A010000 		.4byte	.LVL92
 14121 0516 0100     		.2byte	0x1
 14122 0518 56       		.byte	0x56
 14123 0519 CA010000 		.4byte	.LVL102
 14124 051d 04020000 		.4byte	.LFE269
 14125 0521 0100     		.2byte	0x1
 14126 0523 56       		.byte	0x56
 14127 0524 00000000 		.4byte	0
 14128 0528 00000000 		.4byte	0
 14129              	.LLST25:
 14130 052c 70000000 		.4byte	.LVL64
 14131 0530 C0000000 		.4byte	.LVL70
 14132 0534 0100     		.2byte	0x1
 14133 0536 57       		.byte	0x57
 14134 0537 C4000000 		.4byte	.LVL71
 14135 053b EE000000 		.4byte	.LVL76
 14136 053f 0100     		.2byte	0x1
 14137 0541 57       		.byte	0x57
 14138 0542 F2000000 		.4byte	.LVL77
 14139 0546 7A010000 		.4byte	.LVL92
 14140 054a 0100     		.2byte	0x1
 14141 054c 57       		.byte	0x57
 14142 054d CA010000 		.4byte	.LVL102
 14143 0551 04020000 		.4byte	.LFE269
 14144 0555 0100     		.2byte	0x1
 14145 0557 57       		.byte	0x57
 14146 0558 00000000 		.4byte	0
 14147 055c 00000000 		.4byte	0
 14148              	.LLST26:
 14149 0560 24000000 		.4byte	.LVL59
 14150 0564 2A000000 		.4byte	.LVL60
 14151 0568 0600     		.2byte	0x6
ARM GAS  C:\Users\jo\AppData\Local\Temp\ccLDsGlj.s 			page 252


 14152 056a 03       		.byte	0x3
 14153 056b CC000000 		.4byte	.LC6
 14154 056f 9F       		.byte	0x9f
 14155 0570 00000000 		.4byte	0
 14156 0574 00000000 		.4byte	0
 14157              	.LLST27:
 14158 0578 42000000 		.4byte	.LVL61
 14159 057c 48000000 		.4byte	.LVL62
 14160 0580 0600     		.2byte	0x6
 14161 0582 03       		.byte	0x3
 14162 0583 EC000000 		.4byte	.LC7
 14163 0587 9F       		.byte	0x9f
 14164 0588 00000000 		.4byte	0
 14165 058c 00000000 		.4byte	0
 14166              	.LLST28:
 14167 0590 70010000 		.4byte	.LVL90
 14168 0594 7A010000 		.4byte	.LVL92
 14169 0598 0600     		.2byte	0x6
 14170 059a 03       		.byte	0x3
 14171 059b 40010000 		.4byte	.LC10
 14172 059f 9F       		.byte	0x9f
 14173 05a0 00000000 		.4byte	0
 14174 05a4 00000000 		.4byte	0
 14175              	.LLST29:
 14176 05a8 8C010000 		.4byte	.LVL93
 14177 05ac 94010000 		.4byte	.LVL95
 14178 05b0 0600     		.2byte	0x6
 14179 05b2 03       		.byte	0x3
 14180 05b3 10010000 		.4byte	.LC8
 14181 05b7 9F       		.byte	0x9f
 14182 05b8 00000000 		.4byte	0
 14183 05bc 00000000 		.4byte	0
 14184              	.LLST30:
 14185 05c0 A6010000 		.4byte	.LVL96
 14186 05c4 B0010000 		.4byte	.LVL98
 14187 05c8 0600     		.2byte	0x6
 14188 05ca 03       		.byte	0x3
 14189 05cb 24010000 		.4byte	.LC9
 14190 05cf 9F       		.byte	0x9f
 14191 05d0 00000000 		.4byte	0
 14192 05d4 00000000 		.4byte	0
 14193              	.LLST31:
 14194 05d8 C2010000 		.4byte	.LVL100
 14195 05dc CA010000 		.4byte	.LVL102
 14196 05e0 0600     		.2byte	0x6
 14197 05e2 03       		.byte	0x3
 14198 05e3 BC000000 		.4byte	.LC5
 14199 05e7 9F       		.byte	0x9f
 14200 05e8 00000000 		.4byte	0
 14201 05ec 00000000 		.4byte	0
 14202              	.LLST32:
 14203 05f0 00000000 		.4byte	.LVL105
 14204 05f4 34000000 		.4byte	.LVL107
 14205 05f8 0100     		.2byte	0x1
 14206 05fa 50       		.byte	0x50
 14207 05fb 34000000 		.4byte	.LVL107
 14208 05ff 00020000 		.4byte	.LFE278
ARM GAS  C:\Users\jo\AppData\Local\Temp\ccLDsGlj.s 			page 253


 14209 0603 0100     		.2byte	0x1
 14210 0605 54       		.byte	0x54
 14211 0606 00000000 		.4byte	0
 14212 060a 00000000 		.4byte	0
 14213              	.LLST33:
 14214 060e 84000000 		.4byte	.LVL114
 14215 0612 9C000000 		.4byte	.LVL116
 14216 0616 0300     		.2byte	0x3
 14217 0618 09       		.byte	0x9
 14218 0619 F9       		.byte	0xf9
 14219 061a 9F       		.byte	0x9f
 14220 061b 9C000000 		.4byte	.LVL116
 14221 061f C0000000 		.4byte	.LVL119
 14222 0623 0100     		.2byte	0x1
 14223 0625 56       		.byte	0x56
 14224 0626 F8000000 		.4byte	.LVL125
 14225 062a FA000000 		.4byte	.LVL126
 14226 062e 0100     		.2byte	0x1
 14227 0630 50       		.byte	0x50
 14228 0631 3E010000 		.4byte	.LVL133
 14229 0635 86010000 		.4byte	.LVL138
 14230 0639 0100     		.2byte	0x1
 14231 063b 56       		.byte	0x56
 14232 063c 9E010000 		.4byte	.LVL141
 14233 0640 AA010000 		.4byte	.LVL143
 14234 0644 0100     		.2byte	0x1
 14235 0646 56       		.byte	0x56
 14236 0647 C4010000 		.4byte	.LVL146
 14237 064b C6010000 		.4byte	.LVL147
 14238 064f 0300     		.2byte	0x3
 14239 0651 09       		.byte	0x9
 14240 0652 F9       		.byte	0xf9
 14241 0653 9F       		.byte	0x9f
 14242 0654 00000000 		.4byte	0
 14243 0658 00000000 		.4byte	0
 14244              	.LLST34:
 14245 065c 76000000 		.4byte	.LVL112
 14246 0660 02010000 		.4byte	.LVL127
 14247 0664 0100     		.2byte	0x1
 14248 0666 57       		.byte	0x57
 14249 0667 22010000 		.4byte	.LVL130
 14250 066b 86010000 		.4byte	.LVL138
 14251 066f 0100     		.2byte	0x1
 14252 0671 57       		.byte	0x57
 14253 0672 9E010000 		.4byte	.LVL141
 14254 0676 AA010000 		.4byte	.LVL143
 14255 067a 0100     		.2byte	0x1
 14256 067c 57       		.byte	0x57
 14257 067d C4010000 		.4byte	.LVL146
 14258 0681 00020000 		.4byte	.LFE278
 14259 0685 0100     		.2byte	0x1
 14260 0687 57       		.byte	0x57
 14261 0688 00000000 		.4byte	0
 14262 068c 00000000 		.4byte	0
 14263              	.LLST35:
 14264 0690 76000000 		.4byte	.LVL112
 14265 0694 78000000 		.4byte	.LVL113
ARM GAS  C:\Users\jo\AppData\Local\Temp\ccLDsGlj.s 			page 254


 14266 0698 0100     		.2byte	0x1
 14267 069a 55       		.byte	0x55
 14268 069b 78000000 		.4byte	.LVL113
 14269 069f 84000000 		.4byte	.LVL114
 14270 06a3 0100     		.2byte	0x1
 14271 06a5 59       		.byte	0x59
 14272 06a6 84000000 		.4byte	.LVL114
 14273 06aa 9C000000 		.4byte	.LVL116
 14274 06ae 0200     		.2byte	0x2
 14275 06b0 30       		.byte	0x30
 14276 06b1 9F       		.byte	0x9f
 14277 06b2 9C000000 		.4byte	.LVL116
 14278 06b6 A6000000 		.4byte	.LVL117
 14279 06ba 0100     		.2byte	0x1
 14280 06bc 55       		.byte	0x55
 14281 06bd DA000000 		.4byte	.LVL121
 14282 06c1 E0000000 		.4byte	.LVL123
 14283 06c5 0100     		.2byte	0x1
 14284 06c7 59       		.byte	0x59
 14285 06c8 E0000000 		.4byte	.LVL123
 14286 06cc FA000000 		.4byte	.LVL126
 14287 06d0 0100     		.2byte	0x1
 14288 06d2 55       		.byte	0x55
 14289 06d3 22010000 		.4byte	.LVL130
 14290 06d7 62010000 		.4byte	.LVL135
 14291 06db 0100     		.2byte	0x1
 14292 06dd 55       		.byte	0x55
 14293 06de 7C010000 		.4byte	.LVL137
 14294 06e2 86010000 		.4byte	.LVL138
 14295 06e6 0100     		.2byte	0x1
 14296 06e8 55       		.byte	0x55
 14297 06e9 9E010000 		.4byte	.LVL141
 14298 06ed AA010000 		.4byte	.LVL143
 14299 06f1 0100     		.2byte	0x1
 14300 06f3 55       		.byte	0x55
 14301 06f4 C4010000 		.4byte	.LVL146
 14302 06f8 C6010000 		.4byte	.LVL147
 14303 06fc 0200     		.2byte	0x2
 14304 06fe 30       		.byte	0x30
 14305 06ff 9F       		.byte	0x9f
 14306 0700 00000000 		.4byte	0
 14307 0704 00000000 		.4byte	0
 14308              	.LLST36:
 14309 0708 76000000 		.4byte	.LVL112
 14310 070c 9C000000 		.4byte	.LVL116
 14311 0710 0100     		.2byte	0x1
 14312 0712 59       		.byte	0x59
 14313 0713 DA000000 		.4byte	.LVL121
 14314 0717 FA000000 		.4byte	.LVL126
 14315 071b 0100     		.2byte	0x1
 14316 071d 59       		.byte	0x59
 14317 071e 22010000 		.4byte	.LVL130
 14318 0722 62010000 		.4byte	.LVL135
 14319 0726 0100     		.2byte	0x1
 14320 0728 59       		.byte	0x59
 14321 0729 7C010000 		.4byte	.LVL137
 14322 072d 86010000 		.4byte	.LVL138
ARM GAS  C:\Users\jo\AppData\Local\Temp\ccLDsGlj.s 			page 255


 14323 0731 0100     		.2byte	0x1
 14324 0733 59       		.byte	0x59
 14325 0734 9E010000 		.4byte	.LVL141
 14326 0738 A8010000 		.4byte	.LVL142
 14327 073c 0100     		.2byte	0x1
 14328 073e 59       		.byte	0x59
 14329 073f C4010000 		.4byte	.LVL146
 14330 0743 C6010000 		.4byte	.LVL147
 14331 0747 0100     		.2byte	0x1
 14332 0749 59       		.byte	0x59
 14333 074a 00000000 		.4byte	0
 14334 074e 00000000 		.4byte	0
 14335              	.LLST37:
 14336 0752 00000000 		.4byte	.LVL105
 14337 0756 B6000000 		.4byte	.LVL118
 14338 075a 0200     		.2byte	0x2
 14339 075c 30       		.byte	0x30
 14340 075d 9F       		.byte	0x9f
 14341 075e B6000000 		.4byte	.LVL118
 14342 0762 C0000000 		.4byte	.LVL119
 14343 0766 0200     		.2byte	0x2
 14344 0768 31       		.byte	0x31
 14345 0769 9F       		.byte	0x9f
 14346 076a DA000000 		.4byte	.LVL121
 14347 076e FA000000 		.4byte	.LVL126
 14348 0772 0200     		.2byte	0x2
 14349 0774 30       		.byte	0x30
 14350 0775 9F       		.byte	0x9f
 14351 0776 FA000000 		.4byte	.LVL126
 14352 077a 02010000 		.4byte	.LVL127
 14353 077e 0200     		.2byte	0x2
 14354 0780 31       		.byte	0x31
 14355 0781 9F       		.byte	0x9f
 14356 0782 02010000 		.4byte	.LVL127
 14357 0786 00020000 		.4byte	.LFE278
 14358 078a 0200     		.2byte	0x2
 14359 078c 30       		.byte	0x30
 14360 078d 9F       		.byte	0x9f
 14361 078e 00000000 		.4byte	0
 14362 0792 00000000 		.4byte	0
 14363              	.LLST38:
 14364 0796 1E000000 		.4byte	.LVL106
 14365 079a 72000000 		.4byte	.LVL111
 14366 079e 0100     		.2byte	0x1
 14367 07a0 56       		.byte	0x56
 14368 07a1 76000000 		.4byte	.LVL112
 14369 07a5 8E000000 		.4byte	.LVL115
 14370 07a9 0100     		.2byte	0x1
 14371 07ab 56       		.byte	0x56
 14372 07ac DA000000 		.4byte	.LVL121
 14373 07b0 F8000000 		.4byte	.LVL125
 14374 07b4 0100     		.2byte	0x1
 14375 07b6 56       		.byte	0x56
 14376 07b7 02010000 		.4byte	.LVL127
 14377 07bb 3E010000 		.4byte	.LVL133
 14378 07bf 0100     		.2byte	0x1
 14379 07c1 56       		.byte	0x56
ARM GAS  C:\Users\jo\AppData\Local\Temp\ccLDsGlj.s 			page 256


 14380 07c2 86010000 		.4byte	.LVL138
 14381 07c6 9E010000 		.4byte	.LVL141
 14382 07ca 0100     		.2byte	0x1
 14383 07cc 56       		.byte	0x56
 14384 07cd AA010000 		.4byte	.LVL143
 14385 07d1 C6010000 		.4byte	.LVL147
 14386 07d5 0100     		.2byte	0x1
 14387 07d7 56       		.byte	0x56
 14388 07d8 00000000 		.4byte	0
 14389 07dc 00000000 		.4byte	0
 14390              	.LLST39:
 14391 07e0 38000000 		.4byte	.LVL108
 14392 07e4 46000000 		.4byte	.LVL110
 14393 07e8 0600     		.2byte	0x6
 14394 07ea 03       		.byte	0x3
 14395 07eb 64010000 		.4byte	.LC11
 14396 07ef 9F       		.byte	0x9f
 14397 07f0 86010000 		.4byte	.LVL138
 14398 07f4 9E010000 		.4byte	.LVL141
 14399 07f8 0600     		.2byte	0x6
 14400 07fa 03       		.byte	0x3
 14401 07fb 64010000 		.4byte	.LC11
 14402 07ff 9F       		.byte	0x9f
 14403 0800 00000000 		.4byte	0
 14404 0804 00000000 		.4byte	0
 14405              	.LLST40:
 14406 0808 14010000 		.4byte	.LVL128
 14407 080c 22010000 		.4byte	.LVL130
 14408 0810 0600     		.2byte	0x6
 14409 0812 03       		.byte	0x3
 14410 0813 9C010000 		.4byte	.LC13
 14411 0817 9F       		.byte	0x9f
 14412 0818 00000000 		.4byte	0
 14413 081c 00000000 		.4byte	0
 14414              	.LLST41:
 14415 0820 34010000 		.4byte	.LVL131
 14416 0824 3E010000 		.4byte	.LVL133
 14417 0828 0600     		.2byte	0x6
 14418 082a 03       		.byte	0x3
 14419 082b D0010000 		.4byte	.LC14
 14420 082f 9F       		.byte	0x9f
 14421 0830 00000000 		.4byte	0
 14422 0834 00000000 		.4byte	0
 14423              	.LLST42:
 14424 0838 96010000 		.4byte	.LVL139
 14425 083c 9E010000 		.4byte	.LVL141
 14426 0840 0600     		.2byte	0x6
 14427 0842 03       		.byte	0x3
 14428 0843 24010000 		.4byte	.LC9
 14429 0847 9F       		.byte	0x9f
 14430 0848 00000000 		.4byte	0
 14431 084c 00000000 		.4byte	0
 14432              	.LLST43:
 14433 0850 BC010000 		.4byte	.LVL144
 14434 0854 C4010000 		.4byte	.LVL146
 14435 0858 0600     		.2byte	0x6
 14436 085a 03       		.byte	0x3
ARM GAS  C:\Users\jo\AppData\Local\Temp\ccLDsGlj.s 			page 257


 14437 085b 84010000 		.4byte	.LC12
 14438 085f 9F       		.byte	0x9f
 14439 0860 00000000 		.4byte	0
 14440 0864 00000000 		.4byte	0
 14441              	.LLST44:
 14442 0868 00000000 		.4byte	.LVL149
 14443 086c 08000000 		.4byte	.LVL150
 14444 0870 0100     		.2byte	0x1
 14445 0872 50       		.byte	0x50
 14446 0873 08000000 		.4byte	.LVL150
 14447 0877 58000000 		.4byte	.LVL155
 14448 087b 0100     		.2byte	0x1
 14449 087d 54       		.byte	0x54
 14450 087e 58000000 		.4byte	.LVL155
 14451 0882 62000000 		.4byte	.LVL157
 14452 0886 0100     		.2byte	0x1
 14453 0888 50       		.byte	0x50
 14454 0889 62000000 		.4byte	.LVL157
 14455 088d 84000000 		.4byte	.LFE259
 14456 0891 0100     		.2byte	0x1
 14457 0893 54       		.byte	0x54
 14458 0894 00000000 		.4byte	0
 14459 0898 00000000 		.4byte	0
 14460              	.LLST45:
 14461 089c 00000000 		.4byte	.LVL149
 14462 08a0 08000000 		.4byte	.LVL150
 14463 08a4 0100     		.2byte	0x1
 14464 08a6 51       		.byte	0x51
 14465 08a7 08000000 		.4byte	.LVL150
 14466 08ab 58000000 		.4byte	.LVL155
 14467 08af 0400     		.2byte	0x4
 14468 08b1 F3       		.byte	0xf3
 14469 08b2 01       		.uleb128 0x1
 14470 08b3 51       		.byte	0x51
 14471 08b4 9F       		.byte	0x9f
 14472 08b5 58000000 		.4byte	.LVL155
 14473 08b9 5E000000 		.4byte	.LVL156
 14474 08bd 0100     		.2byte	0x1
 14475 08bf 51       		.byte	0x51
 14476 08c0 5E000000 		.4byte	.LVL156
 14477 08c4 84000000 		.4byte	.LFE259
 14478 08c8 0400     		.2byte	0x4
 14479 08ca F3       		.byte	0xf3
 14480 08cb 01       		.uleb128 0x1
 14481 08cc 51       		.byte	0x51
 14482 08cd 9F       		.byte	0x9f
 14483 08ce 00000000 		.4byte	0
 14484 08d2 00000000 		.4byte	0
 14485              	.LLST47:
 14486 08d6 00000000 		.4byte	.LVL160
 14487 08da 0A000000 		.4byte	.LVL161
 14488 08de 0100     		.2byte	0x1
 14489 08e0 50       		.byte	0x50
 14490 08e1 0A000000 		.4byte	.LVL161
 14491 08e5 56000000 		.4byte	.LVL167
 14492 08e9 0100     		.2byte	0x1
 14493 08eb 54       		.byte	0x54
ARM GAS  C:\Users\jo\AppData\Local\Temp\ccLDsGlj.s 			page 258


 14494 08ec 56000000 		.4byte	.LVL167
 14495 08f0 60000000 		.4byte	.LVL170
 14496 08f4 0100     		.2byte	0x1
 14497 08f6 50       		.byte	0x50
 14498 08f7 60000000 		.4byte	.LVL170
 14499 08fb 80000000 		.4byte	.LFE260
 14500 08ff 0100     		.2byte	0x1
 14501 0901 54       		.byte	0x54
 14502 0902 00000000 		.4byte	0
 14503 0906 00000000 		.4byte	0
 14504              	.LLST48:
 14505 090a 00000000 		.4byte	.LVL160
 14506 090e 0A000000 		.4byte	.LVL161
 14507 0912 0100     		.2byte	0x1
 14508 0914 51       		.byte	0x51
 14509 0915 0A000000 		.4byte	.LVL161
 14510 0919 56000000 		.4byte	.LVL167
 14511 091d 0400     		.2byte	0x4
 14512 091f F3       		.byte	0xf3
 14513 0920 01       		.uleb128 0x1
 14514 0921 51       		.byte	0x51
 14515 0922 9F       		.byte	0x9f
 14516 0923 56000000 		.4byte	.LVL167
 14517 0927 5C000000 		.4byte	.LVL168
 14518 092b 0100     		.2byte	0x1
 14519 092d 51       		.byte	0x51
 14520 092e 5C000000 		.4byte	.LVL168
 14521 0932 80000000 		.4byte	.LFE260
 14522 0936 0400     		.2byte	0x4
 14523 0938 F3       		.byte	0xf3
 14524 0939 01       		.uleb128 0x1
 14525 093a 51       		.byte	0x51
 14526 093b 9F       		.byte	0x9f
 14527 093c 00000000 		.4byte	0
 14528 0940 00000000 		.4byte	0
 14529              	.LLST49:
 14530 0944 00000000 		.4byte	.LVL160
 14531 0948 0A000000 		.4byte	.LVL161
 14532 094c 0100     		.2byte	0x1
 14533 094e 52       		.byte	0x52
 14534 094f 0A000000 		.4byte	.LVL161
 14535 0953 56000000 		.4byte	.LVL167
 14536 0957 0400     		.2byte	0x4
 14537 0959 F3       		.byte	0xf3
 14538 095a 01       		.uleb128 0x1
 14539 095b 52       		.byte	0x52
 14540 095c 9F       		.byte	0x9f
 14541 095d 56000000 		.4byte	.LVL167
 14542 0961 5E000000 		.4byte	.LVL169
 14543 0965 0100     		.2byte	0x1
 14544 0967 52       		.byte	0x52
 14545 0968 5E000000 		.4byte	.LVL169
 14546 096c 80000000 		.4byte	.LFE260
 14547 0970 0400     		.2byte	0x4
 14548 0972 F3       		.byte	0xf3
 14549 0973 01       		.uleb128 0x1
 14550 0974 52       		.byte	0x52
ARM GAS  C:\Users\jo\AppData\Local\Temp\ccLDsGlj.s 			page 259


 14551 0975 9F       		.byte	0x9f
 14552 0976 00000000 		.4byte	0
 14553 097a 00000000 		.4byte	0
 14554              	.LLST51:
 14555 097e 2C000000 		.4byte	.LVL162
 14556 0982 40000000 		.4byte	.LVL163
 14557 0986 0400     		.2byte	0x4
 14558 0988 F3       		.byte	0xf3
 14559 0989 01       		.uleb128 0x1
 14560 098a 51       		.byte	0x51
 14561 098b 9F       		.byte	0x9f
 14562 098c 00000000 		.4byte	0
 14563 0990 00000000 		.4byte	0
 14564              	.LLST52:
 14565 0994 2C000000 		.4byte	.LVL162
 14566 0998 40000000 		.4byte	.LVL163
 14567 099c 0100     		.2byte	0x1
 14568 099e 55       		.byte	0x55
 14569 099f 00000000 		.4byte	0
 14570 09a3 00000000 		.4byte	0
 14571              	.LLST53:
 14572 09a7 2C000000 		.4byte	.LVL162
 14573 09ab 40000000 		.4byte	.LVL163
 14574 09af 0100     		.2byte	0x1
 14575 09b1 54       		.byte	0x54
 14576 09b2 00000000 		.4byte	0
 14577 09b6 00000000 		.4byte	0
 14578              	.LLST54:
 14579 09ba 00000000 		.4byte	.LVL173
 14580 09be 18000000 		.4byte	.LVL174
 14581 09c2 0100     		.2byte	0x1
 14582 09c4 50       		.byte	0x50
 14583 09c5 18000000 		.4byte	.LVL174
 14584 09c9 B4000000 		.4byte	.LVL189
 14585 09cd 0100     		.2byte	0x1
 14586 09cf 54       		.byte	0x54
 14587 09d0 B4000000 		.4byte	.LVL189
 14588 09d4 B6000000 		.4byte	.LVL190
 14589 09d8 0100     		.2byte	0x1
 14590 09da 50       		.byte	0x50
 14591 09db B6000000 		.4byte	.LVL190
 14592 09df CC000000 		.4byte	.LFE272
 14593 09e3 0100     		.2byte	0x1
 14594 09e5 54       		.byte	0x54
 14595 09e6 00000000 		.4byte	0
 14596 09ea 00000000 		.4byte	0
 14597              	.LLST55:
 14598 09ee 00000000 		.4byte	.LVL173
 14599 09f2 1A000000 		.4byte	.LVL175
 14600 09f6 0100     		.2byte	0x1
 14601 09f8 51       		.byte	0x51
 14602 09f9 1A000000 		.4byte	.LVL175
 14603 09fd B4000000 		.4byte	.LVL189
 14604 0a01 0400     		.2byte	0x4
 14605 0a03 F3       		.byte	0xf3
 14606 0a04 01       		.uleb128 0x1
 14607 0a05 51       		.byte	0x51
ARM GAS  C:\Users\jo\AppData\Local\Temp\ccLDsGlj.s 			page 260


 14608 0a06 9F       		.byte	0x9f
 14609 0a07 B4000000 		.4byte	.LVL189
 14610 0a0b CC000000 		.4byte	.LFE272
 14611 0a0f 0100     		.2byte	0x1
 14612 0a11 51       		.byte	0x51
 14613 0a12 00000000 		.4byte	0
 14614 0a16 00000000 		.4byte	0
 14615              	.LLST56:
 14616 0a1a 00000000 		.4byte	.LVL173
 14617 0a1e 1C000000 		.4byte	.LVL176
 14618 0a22 0100     		.2byte	0x1
 14619 0a24 52       		.byte	0x52
 14620 0a25 1C000000 		.4byte	.LVL176
 14621 0a29 B4000000 		.4byte	.LVL189
 14622 0a2d 0400     		.2byte	0x4
 14623 0a2f F3       		.byte	0xf3
 14624 0a30 01       		.uleb128 0x1
 14625 0a31 52       		.byte	0x52
 14626 0a32 9F       		.byte	0x9f
 14627 0a33 B4000000 		.4byte	.LVL189
 14628 0a37 CC000000 		.4byte	.LFE272
 14629 0a3b 0100     		.2byte	0x1
 14630 0a3d 52       		.byte	0x52
 14631 0a3e 00000000 		.4byte	0
 14632 0a42 00000000 		.4byte	0
 14633              	.LLST58:
 14634 0a46 38000000 		.4byte	.LVL179
 14635 0a4a 42000000 		.4byte	.LVL180
 14636 0a4e 0C00     		.2byte	0xc
 14637 0a50 73       		.byte	0x73
 14638 0a51 00       		.sleb128 0
 14639 0a52 34       		.byte	0x34
 14640 0a53 1A       		.byte	0x1a
 14641 0a54 48       		.byte	0x48
 14642 0a55 24       		.byte	0x24
 14643 0a56 30       		.byte	0x30
 14644 0a57 29       		.byte	0x29
 14645 0a58 08       		.byte	0x8
 14646 0a59 FF       		.byte	0xff
 14647 0a5a 1A       		.byte	0x1a
 14648 0a5b 9F       		.byte	0x9f
 14649 0a5c 42000000 		.4byte	.LVL180
 14650 0a60 44000000 		.4byte	.LVL181
 14651 0a64 0E00     		.2byte	0xe
 14652 0a66 74       		.byte	0x74
 14653 0a67 1C       		.sleb128 28
 14654 0a68 94       		.byte	0x94
 14655 0a69 01       		.byte	0x1
 14656 0a6a 34       		.byte	0x34
 14657 0a6b 1A       		.byte	0x1a
 14658 0a6c 48       		.byte	0x48
 14659 0a6d 24       		.byte	0x24
 14660 0a6e 30       		.byte	0x30
 14661 0a6f 29       		.byte	0x29
 14662 0a70 08       		.byte	0x8
 14663 0a71 FF       		.byte	0xff
 14664 0a72 1A       		.byte	0x1a
ARM GAS  C:\Users\jo\AppData\Local\Temp\ccLDsGlj.s 			page 261


 14665 0a73 9F       		.byte	0x9f
 14666 0a74 00000000 		.4byte	0
 14667 0a78 00000000 		.4byte	0
 14668              	.LLST59:
 14669 0a7c 24000000 		.4byte	.LVL177
 14670 0a80 2A000000 		.4byte	.LVL178
 14671 0a84 0600     		.2byte	0x6
 14672 0a86 03       		.byte	0x3
 14673 0a87 00020000 		.4byte	.LC16
 14674 0a8b 9F       		.byte	0x9f
 14675 0a8c 00000000 		.4byte	0
 14676 0a90 00000000 		.4byte	0
 14677              	.LLST60:
 14678 0a94 A6000000 		.4byte	.LVL187
 14679 0a98 B4000000 		.4byte	.LVL189
 14680 0a9c 0600     		.2byte	0x6
 14681 0a9e 03       		.byte	0x3
 14682 0a9f 20020000 		.4byte	.LC17
 14683 0aa3 9F       		.byte	0x9f
 14684 0aa4 00000000 		.4byte	0
 14685 0aa8 00000000 		.4byte	0
 14686              	.LLST61:
 14687 0aac 00000000 		.4byte	.LVL191
 14688 0ab0 0C000000 		.4byte	.LVL192
 14689 0ab4 0100     		.2byte	0x1
 14690 0ab6 50       		.byte	0x50
 14691 0ab7 0C000000 		.4byte	.LVL192
 14692 0abb 7C000000 		.4byte	.LVL201
 14693 0abf 0100     		.2byte	0x1
 14694 0ac1 54       		.byte	0x54
 14695 0ac2 7C000000 		.4byte	.LVL201
 14696 0ac6 80000000 		.4byte	.LVL202
 14697 0aca 0400     		.2byte	0x4
 14698 0acc F3       		.byte	0xf3
 14699 0acd 01       		.uleb128 0x1
 14700 0ace 50       		.byte	0x50
 14701 0acf 9F       		.byte	0x9f
 14702 0ad0 80000000 		.4byte	.LVL202
 14703 0ad4 A0000000 		.4byte	.LVL206
 14704 0ad8 0100     		.2byte	0x1
 14705 0ada 54       		.byte	0x54
 14706 0adb A0000000 		.4byte	.LVL206
 14707 0adf A3000000 		.4byte	.LVL207-1
 14708 0ae3 0300     		.2byte	0x3
 14709 0ae5 70       		.byte	0x70
 14710 0ae6 74       		.sleb128 -12
 14711 0ae7 9F       		.byte	0x9f
 14712 0ae8 A3000000 		.4byte	.LVL207-1
 14713 0aec A4000000 		.4byte	.LVL207
 14714 0af0 0400     		.2byte	0x4
 14715 0af2 F3       		.byte	0xf3
 14716 0af3 01       		.uleb128 0x1
 14717 0af4 50       		.byte	0x50
 14718 0af5 9F       		.byte	0x9f
 14719 0af6 A4000000 		.4byte	.LVL207
 14720 0afa BC000000 		.4byte	.LVL211
 14721 0afe 0100     		.2byte	0x1
ARM GAS  C:\Users\jo\AppData\Local\Temp\ccLDsGlj.s 			page 262


 14722 0b00 54       		.byte	0x54
 14723 0b01 BC000000 		.4byte	.LVL211
 14724 0b05 C6000000 		.4byte	.LVL213
 14725 0b09 0100     		.2byte	0x1
 14726 0b0b 50       		.byte	0x50
 14727 0b0c C6000000 		.4byte	.LVL213
 14728 0b10 0C010000 		.4byte	.LFE261
 14729 0b14 0100     		.2byte	0x1
 14730 0b16 54       		.byte	0x54
 14731 0b17 00000000 		.4byte	0
 14732 0b1b 00000000 		.4byte	0
 14733              	.LLST62:
 14734 0b1f 00000000 		.4byte	.LVL191
 14735 0b23 0C000000 		.4byte	.LVL192
 14736 0b27 0100     		.2byte	0x1
 14737 0b29 51       		.byte	0x51
 14738 0b2a 0C000000 		.4byte	.LVL192
 14739 0b2e BC000000 		.4byte	.LVL211
 14740 0b32 0400     		.2byte	0x4
 14741 0b34 F3       		.byte	0xf3
 14742 0b35 01       		.uleb128 0x1
 14743 0b36 51       		.byte	0x51
 14744 0b37 9F       		.byte	0x9f
 14745 0b38 BC000000 		.4byte	.LVL211
 14746 0b3c C2000000 		.4byte	.LVL212
 14747 0b40 0100     		.2byte	0x1
 14748 0b42 51       		.byte	0x51
 14749 0b43 C2000000 		.4byte	.LVL212
 14750 0b47 0C010000 		.4byte	.LFE261
 14751 0b4b 0400     		.2byte	0x4
 14752 0b4d F3       		.byte	0xf3
 14753 0b4e 01       		.uleb128 0x1
 14754 0b4f 51       		.byte	0x51
 14755 0b50 9F       		.byte	0x9f
 14756 0b51 00000000 		.4byte	0
 14757 0b55 00000000 		.4byte	0
 14758              	.LLST64:
 14759 0b59 10000000 		.4byte	.LVL193
 14760 0b5d 5A000000 		.4byte	.LVL199
 14761 0b61 0100     		.2byte	0x1
 14762 0b63 56       		.byte	0x56
 14763 0b64 5A000000 		.4byte	.LVL199
 14764 0b68 7C000000 		.4byte	.LVL201
 14765 0b6c 0300     		.2byte	0x3
 14766 0b6e 76       		.byte	0x76
 14767 0b6f 03       		.sleb128 3
 14768 0b70 9F       		.byte	0x9f
 14769 0b71 A8000000 		.4byte	.LVL208
 14770 0b75 BC000000 		.4byte	.LVL211
 14771 0b79 0100     		.2byte	0x1
 14772 0b7b 56       		.byte	0x56
 14773 0b7c 00000000 		.4byte	0
 14774 0b80 00000000 		.4byte	0
 14775              	.LLST65:
 14776 0b84 74000000 		.4byte	.LVL200
 14777 0b88 80000000 		.4byte	.LVL202
 14778 0b8c 0600     		.2byte	0x6
ARM GAS  C:\Users\jo\AppData\Local\Temp\ccLDsGlj.s 			page 263


 14779 0b8e 03       		.byte	0x3
 14780 0b8f 60020000 		.4byte	.LC18
 14781 0b93 9F       		.byte	0x9f
 14782 0b94 00000000 		.4byte	0
 14783 0b98 00000000 		.4byte	0
 14784              	.LLST66:
 14785 0b9c 82000000 		.4byte	.LVL203
 14786 0ba0 88000000 		.4byte	.LVL204
 14787 0ba4 0C00     		.2byte	0xc
 14788 0ba6 73       		.byte	0x73
 14789 0ba7 00       		.sleb128 0
 14790 0ba8 34       		.byte	0x34
 14791 0ba9 1A       		.byte	0x1a
 14792 0baa 48       		.byte	0x48
 14793 0bab 24       		.byte	0x24
 14794 0bac 30       		.byte	0x30
 14795 0bad 2E       		.byte	0x2e
 14796 0bae 08       		.byte	0x8
 14797 0baf FF       		.byte	0xff
 14798 0bb0 1A       		.byte	0x1a
 14799 0bb1 9F       		.byte	0x9f
 14800 0bb2 88000000 		.4byte	.LVL204
 14801 0bb6 8A000000 		.4byte	.LVL205
 14802 0bba 0E00     		.2byte	0xe
 14803 0bbc 74       		.byte	0x74
 14804 0bbd 1C       		.sleb128 28
 14805 0bbe 94       		.byte	0x94
 14806 0bbf 01       		.byte	0x1
 14807 0bc0 34       		.byte	0x34
 14808 0bc1 1A       		.byte	0x1a
 14809 0bc2 48       		.byte	0x48
 14810 0bc3 24       		.byte	0x24
 14811 0bc4 30       		.byte	0x30
 14812 0bc5 2E       		.byte	0x2e
 14813 0bc6 08       		.byte	0x8
 14814 0bc7 FF       		.byte	0xff
 14815 0bc8 1A       		.byte	0x1a
 14816 0bc9 9F       		.byte	0x9f
 14817 0bca 00000000 		.4byte	0
 14818 0bce 00000000 		.4byte	0
 14819              	.LLST67:
 14820 0bd2 CE000000 		.4byte	.LVL214
 14821 0bd6 D6000000 		.4byte	.LVL216
 14822 0bda 0600     		.2byte	0x6
 14823 0bdc 03       		.byte	0x3
 14824 0bdd F0010000 		.4byte	.LC15
 14825 0be1 9F       		.byte	0x9f
 14826 0be2 00000000 		.4byte	0
 14827 0be6 00000000 		.4byte	0
 14828              	.LLST68:
 14829 0bea 00000000 		.4byte	.LVL219
 14830 0bee 16000000 		.4byte	.LVL220
 14831 0bf2 0100     		.2byte	0x1
 14832 0bf4 50       		.byte	0x50
 14833 0bf5 16000000 		.4byte	.LVL220
 14834 0bf9 4A000000 		.4byte	.LVL226
 14835 0bfd 0100     		.2byte	0x1
ARM GAS  C:\Users\jo\AppData\Local\Temp\ccLDsGlj.s 			page 264


 14836 0bff 54       		.byte	0x54
 14837 0c00 4A000000 		.4byte	.LVL226
 14838 0c04 4E000000 		.4byte	.LVL227
 14839 0c08 0400     		.2byte	0x4
 14840 0c0a F3       		.byte	0xf3
 14841 0c0b 01       		.uleb128 0x1
 14842 0c0c 50       		.byte	0x50
 14843 0c0d 9F       		.byte	0x9f
 14844 0c0e 4E000000 		.4byte	.LVL227
 14845 0c12 84000000 		.4byte	.LVL234
 14846 0c16 0100     		.2byte	0x1
 14847 0c18 54       		.byte	0x54
 14848 0c19 84000000 		.4byte	.LVL234
 14849 0c1d 85000000 		.4byte	.LVL235-1
 14850 0c21 0100     		.2byte	0x1
 14851 0c23 50       		.byte	0x50
 14852 0c24 85000000 		.4byte	.LVL235-1
 14853 0c28 86000000 		.4byte	.LVL235
 14854 0c2c 0400     		.2byte	0x4
 14855 0c2e F3       		.byte	0xf3
 14856 0c2f 01       		.uleb128 0x1
 14857 0c30 50       		.byte	0x50
 14858 0c31 9F       		.byte	0x9f
 14859 0c32 86000000 		.4byte	.LVL235
 14860 0c36 90000000 		.4byte	.LVL239
 14861 0c3a 0100     		.2byte	0x1
 14862 0c3c 50       		.byte	0x50
 14863 0c3d 90000000 		.4byte	.LVL239
 14864 0c41 A6000000 		.4byte	.LVL243
 14865 0c45 0100     		.2byte	0x1
 14866 0c47 54       		.byte	0x54
 14867 0c48 A6000000 		.4byte	.LVL243
 14868 0c4c AA000000 		.4byte	.LVL244
 14869 0c50 0400     		.2byte	0x4
 14870 0c52 F3       		.byte	0xf3
 14871 0c53 01       		.uleb128 0x1
 14872 0c54 50       		.byte	0x50
 14873 0c55 9F       		.byte	0x9f
 14874 0c56 AA000000 		.4byte	.LVL244
 14875 0c5a C8000000 		.4byte	.LVL248
 14876 0c5e 0100     		.2byte	0x1
 14877 0c60 54       		.byte	0x54
 14878 0c61 C8000000 		.4byte	.LVL248
 14879 0c65 E0000000 		.4byte	.LFE257
 14880 0c69 0400     		.2byte	0x4
 14881 0c6b F3       		.byte	0xf3
 14882 0c6c 01       		.uleb128 0x1
 14883 0c6d 50       		.byte	0x50
 14884 0c6e 9F       		.byte	0x9f
 14885 0c6f 00000000 		.4byte	0
 14886 0c73 00000000 		.4byte	0
 14887              	.LLST69:
 14888 0c77 00000000 		.4byte	.LVL219
 14889 0c7b 16000000 		.4byte	.LVL220
 14890 0c7f 0100     		.2byte	0x1
 14891 0c81 51       		.byte	0x51
 14892 0c82 16000000 		.4byte	.LVL220
ARM GAS  C:\Users\jo\AppData\Local\Temp\ccLDsGlj.s 			page 265


 14893 0c86 42000000 		.4byte	.LVL225
 14894 0c8a 0100     		.2byte	0x1
 14895 0c8c 55       		.byte	0x55
 14896 0c8d 42000000 		.4byte	.LVL225
 14897 0c91 4E000000 		.4byte	.LVL227
 14898 0c95 0400     		.2byte	0x4
 14899 0c97 F3       		.byte	0xf3
 14900 0c98 01       		.uleb128 0x1
 14901 0c99 51       		.byte	0x51
 14902 0c9a 9F       		.byte	0x9f
 14903 0c9b 4E000000 		.4byte	.LVL227
 14904 0c9f 56000000 		.4byte	.LVL229
 14905 0ca3 0100     		.2byte	0x1
 14906 0ca5 55       		.byte	0x55
 14907 0ca6 56000000 		.4byte	.LVL229
 14908 0caa 86000000 		.4byte	.LVL235
 14909 0cae 0400     		.2byte	0x4
 14910 0cb0 F3       		.byte	0xf3
 14911 0cb1 01       		.uleb128 0x1
 14912 0cb2 51       		.byte	0x51
 14913 0cb3 9F       		.byte	0x9f
 14914 0cb4 86000000 		.4byte	.LVL235
 14915 0cb8 8C000000 		.4byte	.LVL237
 14916 0cbc 0100     		.2byte	0x1
 14917 0cbe 51       		.byte	0x51
 14918 0cbf 8C000000 		.4byte	.LVL237
 14919 0cc3 9E000000 		.4byte	.LVL242
 14920 0cc7 0100     		.2byte	0x1
 14921 0cc9 55       		.byte	0x55
 14922 0cca 9E000000 		.4byte	.LVL242
 14923 0cce AA000000 		.4byte	.LVL244
 14924 0cd2 0400     		.2byte	0x4
 14925 0cd4 F3       		.byte	0xf3
 14926 0cd5 01       		.uleb128 0x1
 14927 0cd6 51       		.byte	0x51
 14928 0cd7 9F       		.byte	0x9f
 14929 0cd8 AA000000 		.4byte	.LVL244
 14930 0cdc C2000000 		.4byte	.LVL247
 14931 0ce0 0100     		.2byte	0x1
 14932 0ce2 55       		.byte	0x55
 14933 0ce3 C2000000 		.4byte	.LVL247
 14934 0ce7 E0000000 		.4byte	.LFE257
 14935 0ceb 0400     		.2byte	0x4
 14936 0ced F3       		.byte	0xf3
 14937 0cee 01       		.uleb128 0x1
 14938 0cef 51       		.byte	0x51
 14939 0cf0 9F       		.byte	0x9f
 14940 0cf1 00000000 		.4byte	0
 14941 0cf5 00000000 		.4byte	0
 14942              	.LLST70:
 14943 0cf9 00000000 		.4byte	.LVL219
 14944 0cfd 16000000 		.4byte	.LVL220
 14945 0d01 0100     		.2byte	0x1
 14946 0d03 52       		.byte	0x52
 14947 0d04 16000000 		.4byte	.LVL220
 14948 0d08 4A000000 		.4byte	.LVL226
 14949 0d0c 0100     		.2byte	0x1
ARM GAS  C:\Users\jo\AppData\Local\Temp\ccLDsGlj.s 			page 266


 14950 0d0e 56       		.byte	0x56
 14951 0d0f 4A000000 		.4byte	.LVL226
 14952 0d13 4D000000 		.4byte	.LVL227-1
 14953 0d17 0100     		.2byte	0x1
 14954 0d19 50       		.byte	0x50
 14955 0d1a 4D000000 		.4byte	.LVL227-1
 14956 0d1e 4E000000 		.4byte	.LVL227
 14957 0d22 0400     		.2byte	0x4
 14958 0d24 F3       		.byte	0xf3
 14959 0d25 01       		.uleb128 0x1
 14960 0d26 52       		.byte	0x52
 14961 0d27 9F       		.byte	0x9f
 14962 0d28 4E000000 		.4byte	.LVL227
 14963 0d2c 6E000000 		.4byte	.LVL232
 14964 0d30 0100     		.2byte	0x1
 14965 0d32 56       		.byte	0x56
 14966 0d33 6E000000 		.4byte	.LVL232
 14967 0d37 71000000 		.4byte	.LVL233-1
 14968 0d3b 0200     		.2byte	0x2
 14969 0d3d 75       		.byte	0x75
 14970 0d3e 00       		.sleb128 0
 14971 0d3f 71000000 		.4byte	.LVL233-1
 14972 0d43 86000000 		.4byte	.LVL235
 14973 0d47 0400     		.2byte	0x4
 14974 0d49 F3       		.byte	0xf3
 14975 0d4a 01       		.uleb128 0x1
 14976 0d4b 52       		.byte	0x52
 14977 0d4c 9F       		.byte	0x9f
 14978 0d4d 86000000 		.4byte	.LVL235
 14979 0d51 8E000000 		.4byte	.LVL238
 14980 0d55 0100     		.2byte	0x1
 14981 0d57 52       		.byte	0x52
 14982 0d58 8E000000 		.4byte	.LVL238
 14983 0d5c 9E000000 		.4byte	.LVL242
 14984 0d60 0100     		.2byte	0x1
 14985 0d62 56       		.byte	0x56
 14986 0d63 9E000000 		.4byte	.LVL242
 14987 0d67 AA000000 		.4byte	.LVL244
 14988 0d6b 0400     		.2byte	0x4
 14989 0d6d F3       		.byte	0xf3
 14990 0d6e 01       		.uleb128 0x1
 14991 0d6f 52       		.byte	0x52
 14992 0d70 9F       		.byte	0x9f
 14993 0d71 AA000000 		.4byte	.LVL244
 14994 0d75 C2000000 		.4byte	.LVL247
 14995 0d79 0100     		.2byte	0x1
 14996 0d7b 56       		.byte	0x56
 14997 0d7c C2000000 		.4byte	.LVL247
 14998 0d80 E0000000 		.4byte	.LFE257
 14999 0d84 0400     		.2byte	0x4
 15000 0d86 F3       		.byte	0xf3
 15001 0d87 01       		.uleb128 0x1
 15002 0d88 52       		.byte	0x52
 15003 0d89 9F       		.byte	0x9f
 15004 0d8a 00000000 		.4byte	0
 15005 0d8e 00000000 		.4byte	0
 15006              	.LLST71:
ARM GAS  C:\Users\jo\AppData\Local\Temp\ccLDsGlj.s 			page 267


 15007 0d92 00000000 		.4byte	.LVL219
 15008 0d96 16000000 		.4byte	.LVL220
 15009 0d9a 0100     		.2byte	0x1
 15010 0d9c 53       		.byte	0x53
 15011 0d9d 16000000 		.4byte	.LVL220
 15012 0da1 4A000000 		.4byte	.LVL226
 15013 0da5 0100     		.2byte	0x1
 15014 0da7 57       		.byte	0x57
 15015 0da8 4A000000 		.4byte	.LVL226
 15016 0dac 4E000000 		.4byte	.LVL227
 15017 0db0 0400     		.2byte	0x4
 15018 0db2 F3       		.byte	0xf3
 15019 0db3 01       		.uleb128 0x1
 15020 0db4 53       		.byte	0x53
 15021 0db5 9F       		.byte	0x9f
 15022 0db6 4E000000 		.4byte	.LVL227
 15023 0dba 62000000 		.4byte	.LVL230
 15024 0dbe 0100     		.2byte	0x1
 15025 0dc0 57       		.byte	0x57
 15026 0dc1 62000000 		.4byte	.LVL230
 15027 0dc5 86000000 		.4byte	.LVL235
 15028 0dc9 0400     		.2byte	0x4
 15029 0dcb F3       		.byte	0xf3
 15030 0dcc 01       		.uleb128 0x1
 15031 0dcd 53       		.byte	0x53
 15032 0dce 9F       		.byte	0x9f
 15033 0dcf 86000000 		.4byte	.LVL235
 15034 0dd3 88000000 		.4byte	.LVL236
 15035 0dd7 0100     		.2byte	0x1
 15036 0dd9 53       		.byte	0x53
 15037 0dda 88000000 		.4byte	.LVL236
 15038 0dde 9E000000 		.4byte	.LVL242
 15039 0de2 0100     		.2byte	0x1
 15040 0de4 57       		.byte	0x57
 15041 0de5 9E000000 		.4byte	.LVL242
 15042 0de9 AA000000 		.4byte	.LVL244
 15043 0ded 0400     		.2byte	0x4
 15044 0def F3       		.byte	0xf3
 15045 0df0 01       		.uleb128 0x1
 15046 0df1 53       		.byte	0x53
 15047 0df2 9F       		.byte	0x9f
 15048 0df3 AA000000 		.4byte	.LVL244
 15049 0df7 C2000000 		.4byte	.LVL247
 15050 0dfb 0100     		.2byte	0x1
 15051 0dfd 57       		.byte	0x57
 15052 0dfe C2000000 		.4byte	.LVL247
 15053 0e02 E0000000 		.4byte	.LFE257
 15054 0e06 0400     		.2byte	0x4
 15055 0e08 F3       		.byte	0xf3
 15056 0e09 01       		.uleb128 0x1
 15057 0e0a 53       		.byte	0x53
 15058 0e0b 9F       		.byte	0x9f
 15059 0e0c 00000000 		.4byte	0
 15060 0e10 00000000 		.4byte	0
 15061              	.LLST72:
 15062 0e14 00000000 		.4byte	.LVL219
 15063 0e18 4A000000 		.4byte	.LVL226
ARM GAS  C:\Users\jo\AppData\Local\Temp\ccLDsGlj.s 			page 268


 15064 0e1c 0200     		.2byte	0x2
 15065 0e1e 91       		.byte	0x91
 15066 0e1f 00       		.sleb128 0
 15067 0e20 4A000000 		.4byte	.LVL226
 15068 0e24 4E000000 		.4byte	.LVL227
 15069 0e28 0200     		.2byte	0x2
 15070 0e2a 7D       		.byte	0x7d
 15071 0e2b 00       		.sleb128 0
 15072 0e2c 4E000000 		.4byte	.LVL227
 15073 0e30 84000000 		.4byte	.LVL234
 15074 0e34 0200     		.2byte	0x2
 15075 0e36 91       		.byte	0x91
 15076 0e37 00       		.sleb128 0
 15077 0e38 84000000 		.4byte	.LVL234
 15078 0e3c 86000000 		.4byte	.LVL235
 15079 0e40 0200     		.2byte	0x2
 15080 0e42 7D       		.byte	0x7d
 15081 0e43 00       		.sleb128 0
 15082 0e44 86000000 		.4byte	.LVL235
 15083 0e48 A6000000 		.4byte	.LVL243
 15084 0e4c 0200     		.2byte	0x2
 15085 0e4e 91       		.byte	0x91
 15086 0e4f 00       		.sleb128 0
 15087 0e50 A6000000 		.4byte	.LVL243
 15088 0e54 AA000000 		.4byte	.LVL244
 15089 0e58 0200     		.2byte	0x2
 15090 0e5a 7D       		.byte	0x7d
 15091 0e5b 00       		.sleb128 0
 15092 0e5c AA000000 		.4byte	.LVL244
 15093 0e60 C8000000 		.4byte	.LVL248
 15094 0e64 0200     		.2byte	0x2
 15095 0e66 91       		.byte	0x91
 15096 0e67 00       		.sleb128 0
 15097 0e68 C8000000 		.4byte	.LVL248
 15098 0e6c E0000000 		.4byte	.LFE257
 15099 0e70 0200     		.2byte	0x2
 15100 0e72 7D       		.byte	0x7d
 15101 0e73 00       		.sleb128 0
 15102 0e74 00000000 		.4byte	0
 15103 0e78 00000000 		.4byte	0
 15104              	.LLST73:
 15105 0e7c 54000000 		.4byte	.LVL228
 15106 0e80 6C000000 		.4byte	.LVL231
 15107 0e84 0100     		.2byte	0x1
 15108 0e86 50       		.byte	0x50
 15109 0e87 6C000000 		.4byte	.LVL231
 15110 0e8b 84000000 		.4byte	.LVL234
 15111 0e8f 0100     		.2byte	0x1
 15112 0e91 55       		.byte	0x55
 15113 0e92 9E000000 		.4byte	.LVL242
 15114 0e96 A6000000 		.4byte	.LVL243
 15115 0e9a 0100     		.2byte	0x1
 15116 0e9c 55       		.byte	0x55
 15117 0e9d A6000000 		.4byte	.LVL243
 15118 0ea1 A9000000 		.4byte	.LVL244-1
 15119 0ea5 0100     		.2byte	0x1
 15120 0ea7 50       		.byte	0x50
ARM GAS  C:\Users\jo\AppData\Local\Temp\ccLDsGlj.s 			page 269


 15121 0ea8 C2000000 		.4byte	.LVL247
 15122 0eac C8000000 		.4byte	.LVL248
 15123 0eb0 0100     		.2byte	0x1
 15124 0eb2 55       		.byte	0x55
 15125 0eb3 00000000 		.4byte	0
 15126 0eb7 00000000 		.4byte	0
 15127              	.LLST74:
 15128 0ebb 1A000000 		.4byte	.LVL221
 15129 0ebf 4A000000 		.4byte	.LVL226
 15130 0ec3 0100     		.2byte	0x1
 15131 0ec5 54       		.byte	0x54
 15132 0ec6 4A000000 		.4byte	.LVL226
 15133 0eca 4E000000 		.4byte	.LVL227
 15134 0ece 0400     		.2byte	0x4
 15135 0ed0 F3       		.byte	0xf3
 15136 0ed1 01       		.uleb128 0x1
 15137 0ed2 50       		.byte	0x50
 15138 0ed3 9F       		.byte	0x9f
 15139 0ed4 4E000000 		.4byte	.LVL227
 15140 0ed8 84000000 		.4byte	.LVL234
 15141 0edc 0100     		.2byte	0x1
 15142 0ede 54       		.byte	0x54
 15143 0edf 84000000 		.4byte	.LVL234
 15144 0ee3 85000000 		.4byte	.LVL235-1
 15145 0ee7 0100     		.2byte	0x1
 15146 0ee9 50       		.byte	0x50
 15147 0eea 85000000 		.4byte	.LVL235-1
 15148 0eee 86000000 		.4byte	.LVL235
 15149 0ef2 0400     		.2byte	0x4
 15150 0ef4 F3       		.byte	0xf3
 15151 0ef5 01       		.uleb128 0x1
 15152 0ef6 50       		.byte	0x50
 15153 0ef7 9F       		.byte	0x9f
 15154 0ef8 9E000000 		.4byte	.LVL242
 15155 0efc A6000000 		.4byte	.LVL243
 15156 0f00 0100     		.2byte	0x1
 15157 0f02 54       		.byte	0x54
 15158 0f03 A6000000 		.4byte	.LVL243
 15159 0f07 AA000000 		.4byte	.LVL244
 15160 0f0b 0400     		.2byte	0x4
 15161 0f0d F3       		.byte	0xf3
 15162 0f0e 01       		.uleb128 0x1
 15163 0f0f 50       		.byte	0x50
 15164 0f10 9F       		.byte	0x9f
 15165 0f11 C2000000 		.4byte	.LVL247
 15166 0f15 C8000000 		.4byte	.LVL248
 15167 0f19 0100     		.2byte	0x1
 15168 0f1b 54       		.byte	0x54
 15169 0f1c C8000000 		.4byte	.LVL248
 15170 0f20 E0000000 		.4byte	.LFE257
 15171 0f24 0400     		.2byte	0x4
 15172 0f26 F3       		.byte	0xf3
 15173 0f27 01       		.uleb128 0x1
 15174 0f28 50       		.byte	0x50
 15175 0f29 9F       		.byte	0x9f
 15176 0f2a 00000000 		.4byte	0
 15177 0f2e 00000000 		.4byte	0
ARM GAS  C:\Users\jo\AppData\Local\Temp\ccLDsGlj.s 			page 270


 15178              	.LLST75:
 15179 0f32 6E000000 		.4byte	.LVL232
 15180 0f36 84000000 		.4byte	.LVL234
 15181 0f3a 0100     		.2byte	0x1
 15182 0f3c 56       		.byte	0x56
 15183 0f3d 84000000 		.4byte	.LVL234
 15184 0f41 85000000 		.4byte	.LVL235-1
 15185 0f45 0100     		.2byte	0x1
 15186 0f47 52       		.byte	0x52
 15187 0f48 9E000000 		.4byte	.LVL242
 15188 0f4c A6000000 		.4byte	.LVL243
 15189 0f50 0100     		.2byte	0x1
 15190 0f52 56       		.byte	0x56
 15191 0f53 C2000000 		.4byte	.LVL247
 15192 0f57 C8000000 		.4byte	.LVL248
 15193 0f5b 0100     		.2byte	0x1
 15194 0f5d 56       		.byte	0x56
 15195 0f5e 00000000 		.4byte	0
 15196 0f62 00000000 		.4byte	0
 15197              	.LLST76:
 15198 0f66 30000000 		.4byte	.LVL222
 15199 0f6a 36000000 		.4byte	.LVL223
 15200 0f6e 0600     		.2byte	0x6
 15201 0f70 03       		.byte	0x3
 15202 0f71 C0020000 		.4byte	.LC21
 15203 0f75 9F       		.byte	0x9f
 15204 0f76 00000000 		.4byte	0
 15205 0f7a 00000000 		.4byte	0
 15206              	.LLST77:
 15207 0f7e 96000000 		.4byte	.LVL240
 15208 0f82 9E000000 		.4byte	.LVL242
 15209 0f86 0600     		.2byte	0x6
 15210 0f88 03       		.byte	0x3
 15211 0f89 7C020000 		.4byte	.LC19
 15212 0f8d 9F       		.byte	0x9f
 15213 0f8e 00000000 		.4byte	0
 15214 0f92 00000000 		.4byte	0
 15215              	.LLST78:
 15216 0f96 BA000000 		.4byte	.LVL245
 15217 0f9a C2000000 		.4byte	.LVL247
 15218 0f9e 0600     		.2byte	0x6
 15219 0fa0 03       		.byte	0x3
 15220 0fa1 A0020000 		.4byte	.LC20
 15221 0fa5 9F       		.byte	0x9f
 15222 0fa6 00000000 		.4byte	0
 15223 0faa 00000000 		.4byte	0
 15224              	.LLST79:
 15225 0fae 00000000 		.4byte	.LVL249
 15226 0fb2 0C000000 		.4byte	.LVL250
 15227 0fb6 0100     		.2byte	0x1
 15228 0fb8 50       		.byte	0x50
 15229 0fb9 0C000000 		.4byte	.LVL250
 15230 0fbd 18000000 		.4byte	.LVL251
 15231 0fc1 0400     		.2byte	0x4
 15232 0fc3 F3       		.byte	0xf3
 15233 0fc4 01       		.uleb128 0x1
 15234 0fc5 50       		.byte	0x50
ARM GAS  C:\Users\jo\AppData\Local\Temp\ccLDsGlj.s 			page 271


 15235 0fc6 9F       		.byte	0x9f
 15236 0fc7 18000000 		.4byte	.LVL251
 15237 0fcb 35000000 		.4byte	.LVL252-1
 15238 0fcf 0100     		.2byte	0x1
 15239 0fd1 50       		.byte	0x50
 15240 0fd2 35000000 		.4byte	.LVL252-1
 15241 0fd6 48000000 		.4byte	.LVL254
 15242 0fda 0100     		.2byte	0x1
 15243 0fdc 55       		.byte	0x55
 15244 0fdd 48000000 		.4byte	.LVL254
 15245 0fe1 4A000000 		.4byte	.LVL255
 15246 0fe5 0100     		.2byte	0x1
 15247 0fe7 50       		.byte	0x50
 15248 0fe8 4A000000 		.4byte	.LVL255
 15249 0fec 62000000 		.4byte	.LVL258
 15250 0ff0 0100     		.2byte	0x1
 15251 0ff2 55       		.byte	0x55
 15252 0ff3 62000000 		.4byte	.LVL258
 15253 0ff7 65000000 		.4byte	.LVL259-1
 15254 0ffb 0100     		.2byte	0x1
 15255 0ffd 50       		.byte	0x50
 15256 0ffe 65000000 		.4byte	.LVL259-1
 15257 1002 98000000 		.4byte	.LFE265
 15258 1006 0100     		.2byte	0x1
 15259 1008 55       		.byte	0x55
 15260 1009 00000000 		.4byte	0
 15261 100d 00000000 		.4byte	0
 15262              	.LLST80:
 15263 1011 18000000 		.4byte	.LVL251
 15264 1015 35000000 		.4byte	.LVL252-1
 15265 1019 0100     		.2byte	0x1
 15266 101b 50       		.byte	0x50
 15267 101c 35000000 		.4byte	.LVL252-1
 15268 1020 48000000 		.4byte	.LVL254
 15269 1024 0100     		.2byte	0x1
 15270 1026 55       		.byte	0x55
 15271 1027 48000000 		.4byte	.LVL254
 15272 102b 4A000000 		.4byte	.LVL255
 15273 102f 0100     		.2byte	0x1
 15274 1031 50       		.byte	0x50
 15275 1032 4A000000 		.4byte	.LVL255
 15276 1036 62000000 		.4byte	.LVL258
 15277 103a 0100     		.2byte	0x1
 15278 103c 55       		.byte	0x55
 15279 103d 62000000 		.4byte	.LVL258
 15280 1041 65000000 		.4byte	.LVL259-1
 15281 1045 0100     		.2byte	0x1
 15282 1047 50       		.byte	0x50
 15283 1048 65000000 		.4byte	.LVL259-1
 15284 104c 98000000 		.4byte	.LFE265
 15285 1050 0100     		.2byte	0x1
 15286 1052 55       		.byte	0x55
 15287 1053 00000000 		.4byte	0
 15288 1057 00000000 		.4byte	0
 15289              	.LLST81:
 15290 105b 00000000 		.4byte	.LVL261
 15291 105f 08000000 		.4byte	.LVL262
ARM GAS  C:\Users\jo\AppData\Local\Temp\ccLDsGlj.s 			page 272


 15292 1063 0100     		.2byte	0x1
 15293 1065 50       		.byte	0x50
 15294 1066 08000000 		.4byte	.LVL262
 15295 106a AC000000 		.4byte	.LFE266
 15296 106e 0400     		.2byte	0x4
 15297 1070 F3       		.byte	0xf3
 15298 1071 01       		.uleb128 0x1
 15299 1072 50       		.byte	0x50
 15300 1073 9F       		.byte	0x9f
 15301 1074 00000000 		.4byte	0
 15302 1078 00000000 		.4byte	0
 15303              	.LLST82:
 15304 107c 00000000 		.4byte	.LVL261
 15305 1080 0D000000 		.4byte	.LVL263-1
 15306 1084 0100     		.2byte	0x1
 15307 1086 51       		.byte	0x51
 15308 1087 0D000000 		.4byte	.LVL263-1
 15309 108b AC000000 		.4byte	.LFE266
 15310 108f 0100     		.2byte	0x1
 15311 1091 56       		.byte	0x56
 15312 1092 00000000 		.4byte	0
 15313 1096 00000000 		.4byte	0
 15314              	.LLST83:
 15315 109a 0E000000 		.4byte	.LVL263
 15316 109e 30000000 		.4byte	.LVL264
 15317 10a2 0100     		.2byte	0x1
 15318 10a4 50       		.byte	0x50
 15319 10a5 30000000 		.4byte	.LVL264
 15320 10a9 50000000 		.4byte	.LVL268
 15321 10ad 0100     		.2byte	0x1
 15322 10af 54       		.byte	0x54
 15323 10b0 50000000 		.4byte	.LVL268
 15324 10b4 58000000 		.4byte	.LVL270
 15325 10b8 0100     		.2byte	0x1
 15326 10ba 50       		.byte	0x50
 15327 10bb 58000000 		.4byte	.LVL270
 15328 10bf 8E000000 		.4byte	.LVL275
 15329 10c3 0100     		.2byte	0x1
 15330 10c5 54       		.byte	0x54
 15331 10c6 8E000000 		.4byte	.LVL275
 15332 10ca 92000000 		.4byte	.LVL276
 15333 10ce 0100     		.2byte	0x1
 15334 10d0 50       		.byte	0x50
 15335 10d1 92000000 		.4byte	.LVL276
 15336 10d5 AC000000 		.4byte	.LFE266
 15337 10d9 0100     		.2byte	0x1
 15338 10db 54       		.byte	0x54
 15339 10dc 00000000 		.4byte	0
 15340 10e0 00000000 		.4byte	0
 15341              	.LLST84:
 15342 10e4 52000000 		.4byte	.LVL269
 15343 10e8 6E000000 		.4byte	.LVL273
 15344 10ec 0100     		.2byte	0x1
 15345 10ee 55       		.byte	0x55
 15346 10ef 00000000 		.4byte	0
 15347 10f3 00000000 		.4byte	0
 15348              	.LLST85:
ARM GAS  C:\Users\jo\AppData\Local\Temp\ccLDsGlj.s 			page 273


 15349 10f7 3C000000 		.4byte	.LVL265
 15350 10fb 42000000 		.4byte	.LVL266
 15351 10ff 0600     		.2byte	0x6
 15352 1101 03       		.byte	0x3
 15353 1102 E0020000 		.4byte	.LC22
 15354 1106 9F       		.byte	0x9f
 15355 1107 00000000 		.4byte	0
 15356 110b 00000000 		.4byte	0
 15357              	.LLST86:
 15358 110f 00000000 		.4byte	.LVL278
 15359 1113 10000000 		.4byte	.LVL279
 15360 1117 0100     		.2byte	0x1
 15361 1119 50       		.byte	0x50
 15362 111a 10000000 		.4byte	.LVL279
 15363 111e 68000000 		.4byte	.LVL288
 15364 1122 0100     		.2byte	0x1
 15365 1124 54       		.byte	0x54
 15366 1125 68000000 		.4byte	.LVL288
 15367 1129 6B000000 		.4byte	.LVL289-1
 15368 112d 0100     		.2byte	0x1
 15369 112f 51       		.byte	0x51
 15370 1130 6B000000 		.4byte	.LVL289-1
 15371 1134 6C000000 		.4byte	.LVL289
 15372 1138 0400     		.2byte	0x4
 15373 113a F3       		.byte	0xf3
 15374 113b 01       		.uleb128 0x1
 15375 113c 50       		.byte	0x50
 15376 113d 9F       		.byte	0x9f
 15377 113e 6C000000 		.4byte	.LVL289
 15378 1142 A0000000 		.4byte	.LFE267
 15379 1146 0100     		.2byte	0x1
 15380 1148 54       		.byte	0x54
 15381 1149 00000000 		.4byte	0
 15382 114d 00000000 		.4byte	0
 15383              	.LLST87:
 15384 1151 1C000000 		.4byte	.LVL280
 15385 1155 22000000 		.4byte	.LVL281
 15386 1159 0600     		.2byte	0x6
 15387 115b 03       		.byte	0x3
 15388 115c 08030000 		.4byte	.LC23
 15389 1160 9F       		.byte	0x9f
 15390 1161 00000000 		.4byte	0
 15391 1165 00000000 		.4byte	0
 15392              	.LLST88:
 15393 1169 48000000 		.4byte	.LVL284
 15394 116d 4E000000 		.4byte	.LVL285
 15395 1171 0600     		.2byte	0x6
 15396 1173 03       		.byte	0x3
 15397 1174 74030000 		.4byte	.LC25
 15398 1178 9F       		.byte	0x9f
 15399 1179 00000000 		.4byte	0
 15400 117d 00000000 		.4byte	0
 15401              	.LLST89:
 15402 1181 00000000 		.4byte	.LVL292
 15403 1185 0E000000 		.4byte	.LVL293
 15404 1189 0100     		.2byte	0x1
 15405 118b 50       		.byte	0x50
ARM GAS  C:\Users\jo\AppData\Local\Temp\ccLDsGlj.s 			page 274


 15406 118c 0E000000 		.4byte	.LVL293
 15407 1190 E0000000 		.4byte	.LFE268
 15408 1194 0100     		.2byte	0x1
 15409 1196 56       		.byte	0x56
 15410 1197 00000000 		.4byte	0
 15411 119b 00000000 		.4byte	0
 15412              	.LLST90:
 15413 119f 2A000000 		.4byte	.LVL296
 15414 11a3 4C000000 		.4byte	.LVL300
 15415 11a7 0100     		.2byte	0x1
 15416 11a9 55       		.byte	0x55
 15417 11aa 00000000 		.4byte	0
 15418 11ae 00000000 		.4byte	0
 15419              	.LLST91:
 15420 11b2 76000000 		.4byte	.LVL304
 15421 11b6 A8000000 		.4byte	.LVL309
 15422 11ba 0100     		.2byte	0x1
 15423 11bc 54       		.byte	0x54
 15424 11bd 00000000 		.4byte	0
 15425 11c1 00000000 		.4byte	0
 15426              	.LLST92:
 15427 11c5 8A000000 		.4byte	.LVL305
 15428 11c9 90000000 		.4byte	.LVL306
 15429 11cd 0600     		.2byte	0x6
 15430 11cf 03       		.byte	0x3
 15431 11d0 B0030000 		.4byte	.LC26
 15432 11d4 9F       		.byte	0x9f
 15433 11d5 00000000 		.4byte	0
 15434 11d9 00000000 		.4byte	0
 15435              	.LLST93:
 15436 11dd 00000000 		.4byte	.LVL315
 15437 11e1 0C000000 		.4byte	.LVL317
 15438 11e5 0100     		.2byte	0x1
 15439 11e7 50       		.byte	0x50
 15440 11e8 0C000000 		.4byte	.LVL317
 15441 11ec 44000000 		.4byte	.LVL322
 15442 11f0 0100     		.2byte	0x1
 15443 11f2 54       		.byte	0x54
 15444 11f3 44000000 		.4byte	.LVL322
 15445 11f7 4A000000 		.4byte	.LVL323
 15446 11fb 0400     		.2byte	0x4
 15447 11fd F3       		.byte	0xf3
 15448 11fe 01       		.uleb128 0x1
 15449 11ff 50       		.byte	0x50
 15450 1200 9F       		.byte	0x9f
 15451 1201 4A000000 		.4byte	.LVL323
 15452 1205 54000000 		.4byte	.LVL326
 15453 1209 0100     		.2byte	0x1
 15454 120b 54       		.byte	0x54
 15455 120c 54000000 		.4byte	.LVL326
 15456 1210 9C000000 		.4byte	.LFE263
 15457 1214 0400     		.2byte	0x4
 15458 1216 F3       		.byte	0xf3
 15459 1217 01       		.uleb128 0x1
 15460 1218 50       		.byte	0x50
 15461 1219 9F       		.byte	0x9f
 15462 121a 00000000 		.4byte	0
ARM GAS  C:\Users\jo\AppData\Local\Temp\ccLDsGlj.s 			page 275


 15463 121e 00000000 		.4byte	0
 15464              	.LLST94:
 15465 1222 00000000 		.4byte	.LVL315
 15466 1226 13000000 		.4byte	.LVL318-1
 15467 122a 0100     		.2byte	0x1
 15468 122c 51       		.byte	0x51
 15469 122d 13000000 		.4byte	.LVL318-1
 15470 1231 9C000000 		.4byte	.LFE263
 15471 1235 0100     		.2byte	0x1
 15472 1237 58       		.byte	0x58
 15473 1238 00000000 		.4byte	0
 15474 123c 00000000 		.4byte	0
 15475              	.LLST95:
 15476 1240 00000000 		.4byte	.LVL315
 15477 1244 13000000 		.4byte	.LVL318-1
 15478 1248 0100     		.2byte	0x1
 15479 124a 52       		.byte	0x52
 15480 124b 13000000 		.4byte	.LVL318-1
 15481 124f 9C000000 		.4byte	.LFE263
 15482 1253 0400     		.2byte	0x4
 15483 1255 F3       		.byte	0xf3
 15484 1256 01       		.uleb128 0x1
 15485 1257 52       		.byte	0x52
 15486 1258 9F       		.byte	0x9f
 15487 1259 00000000 		.4byte	0
 15488 125d 00000000 		.4byte	0
 15489              	.LLST96:
 15490 1261 1E000000 		.4byte	.LVL319
 15491 1265 29000000 		.4byte	.LVL320-1
 15492 1269 0100     		.2byte	0x1
 15493 126b 50       		.byte	0x50
 15494 126c 29000000 		.4byte	.LVL320-1
 15495 1270 44000000 		.4byte	.LVL322
 15496 1274 0100     		.2byte	0x1
 15497 1276 56       		.byte	0x56
 15498 1277 4E000000 		.4byte	.LVL324
 15499 127b 52000000 		.4byte	.LVL325
 15500 127f 0100     		.2byte	0x1
 15501 1281 50       		.byte	0x50
 15502 1282 52000000 		.4byte	.LVL325
 15503 1286 9C000000 		.4byte	.LFE263
 15504 128a 0100     		.2byte	0x1
 15505 128c 56       		.byte	0x56
 15506 128d 00000000 		.4byte	0
 15507 1291 00000000 		.4byte	0
 15508              	.LLST97:
 15509 1295 0A000000 		.4byte	.LVL316
 15510 1299 0C000000 		.4byte	.LVL317
 15511 129d 0100     		.2byte	0x1
 15512 129f 50       		.byte	0x50
 15513 12a0 0C000000 		.4byte	.LVL317
 15514 12a4 44000000 		.4byte	.LVL322
 15515 12a8 0100     		.2byte	0x1
 15516 12aa 54       		.byte	0x54
 15517 12ab 44000000 		.4byte	.LVL322
 15518 12af 4A000000 		.4byte	.LVL323
 15519 12b3 0400     		.2byte	0x4
ARM GAS  C:\Users\jo\AppData\Local\Temp\ccLDsGlj.s 			page 276


 15520 12b5 F3       		.byte	0xf3
 15521 12b6 01       		.uleb128 0x1
 15522 12b7 50       		.byte	0x50
 15523 12b8 9F       		.byte	0x9f
 15524 12b9 4A000000 		.4byte	.LVL323
 15525 12bd 54000000 		.4byte	.LVL326
 15526 12c1 0100     		.2byte	0x1
 15527 12c3 54       		.byte	0x54
 15528 12c4 54000000 		.4byte	.LVL326
 15529 12c8 9C000000 		.4byte	.LFE263
 15530 12cc 0400     		.2byte	0x4
 15531 12ce F3       		.byte	0xf3
 15532 12cf 01       		.uleb128 0x1
 15533 12d0 50       		.byte	0x50
 15534 12d1 9F       		.byte	0x9f
 15535 12d2 00000000 		.4byte	0
 15536 12d6 00000000 		.4byte	0
 15537              	.LLST98:
 15538 12da 54000000 		.4byte	.LVL326
 15539 12de 82000000 		.4byte	.LVL332
 15540 12e2 0100     		.2byte	0x1
 15541 12e4 54       		.byte	0x54
 15542 12e5 00000000 		.4byte	0
 15543 12e9 00000000 		.4byte	0
 15544              	.LLST99:
 15545 12ed 00000000 		.4byte	.LVL336
 15546 12f1 24000000 		.4byte	.LVL337
 15547 12f5 0100     		.2byte	0x1
 15548 12f7 50       		.byte	0x50
 15549 12f8 24000000 		.4byte	.LVL337
 15550 12fc 48000000 		.4byte	.LVL342
 15551 1300 0100     		.2byte	0x1
 15552 1302 54       		.byte	0x54
 15553 1303 48000000 		.4byte	.LVL342
 15554 1307 58000000 		.4byte	.LVL343
 15555 130b 0100     		.2byte	0x1
 15556 130d 50       		.byte	0x50
 15557 130e 58000000 		.4byte	.LVL343
 15558 1312 C2000000 		.4byte	.LVL351
 15559 1316 0100     		.2byte	0x1
 15560 1318 54       		.byte	0x54
 15561 1319 C2000000 		.4byte	.LVL351
 15562 131d C6000000 		.4byte	.LVL352
 15563 1321 0400     		.2byte	0x4
 15564 1323 F3       		.byte	0xf3
 15565 1324 01       		.uleb128 0x1
 15566 1325 50       		.byte	0x50
 15567 1326 9F       		.byte	0x9f
 15568 1327 C6000000 		.4byte	.LVL352
 15569 132b 04010000 		.4byte	.LVL357
 15570 132f 0100     		.2byte	0x1
 15571 1331 54       		.byte	0x54
 15572 1332 04010000 		.4byte	.LVL357
 15573 1336 07010000 		.4byte	.LVL358-1
 15574 133a 0200     		.2byte	0x2
 15575 133c 70       		.byte	0x70
 15576 133d 24       		.sleb128 36
ARM GAS  C:\Users\jo\AppData\Local\Temp\ccLDsGlj.s 			page 277


 15577 133e 07010000 		.4byte	.LVL358-1
 15578 1342 08010000 		.4byte	.LVL358
 15579 1346 0400     		.2byte	0x4
 15580 1348 F3       		.byte	0xf3
 15581 1349 01       		.uleb128 0x1
 15582 134a 50       		.byte	0x50
 15583 134b 9F       		.byte	0x9f
 15584 134c 08010000 		.4byte	.LVL358
 15585 1350 30010000 		.4byte	.LFE270
 15586 1354 0100     		.2byte	0x1
 15587 1356 54       		.byte	0x54
 15588 1357 00000000 		.4byte	0
 15589 135b 00000000 		.4byte	0
 15590              	.LLST100:
 15591 135f 2C000000 		.4byte	.LVL338
 15592 1363 34000000 		.4byte	.LVL340
 15593 1367 0600     		.2byte	0x6
 15594 1369 03       		.byte	0x3
 15595 136a E0030000 		.4byte	.LC27
 15596 136e 9F       		.byte	0x9f
 15597 136f 00000000 		.4byte	0
 15598 1373 00000000 		.4byte	0
 15599              	.LLST101:
 15600 1377 60000000 		.4byte	.LVL344
 15601 137b 68000000 		.4byte	.LVL346
 15602 137f 0600     		.2byte	0x6
 15603 1381 03       		.byte	0x3
 15604 1382 00040000 		.4byte	.LC28
 15605 1386 9F       		.byte	0x9f
 15606 1387 00000000 		.4byte	0
 15607 138b 00000000 		.4byte	0
 15608              	.LLST102:
 15609 138f EA000000 		.4byte	.LVL354
 15610 1393 F2000000 		.4byte	.LVL356
 15611 1397 0600     		.2byte	0x6
 15612 1399 03       		.byte	0x3
 15613 139a 20040000 		.4byte	.LC29
 15614 139e 9F       		.byte	0x9f
 15615 139f 00000000 		.4byte	0
 15616 13a3 00000000 		.4byte	0
 15617              	.LLST103:
 15618 13a7 00000000 		.4byte	.LVL360
 15619 13ab 2C000000 		.4byte	.LVL361
 15620 13af 0100     		.2byte	0x1
 15621 13b1 50       		.byte	0x50
 15622 13b2 2C000000 		.4byte	.LVL361
 15623 13b6 30000000 		.4byte	.LVL362
 15624 13ba 0100     		.2byte	0x1
 15625 13bc 54       		.byte	0x54
 15626 13bd 30000000 		.4byte	.LVL362
 15627 13c1 34000000 		.4byte	.LVL363
 15628 13c5 0400     		.2byte	0x4
 15629 13c7 F3       		.byte	0xf3
 15630 13c8 01       		.uleb128 0x1
 15631 13c9 50       		.byte	0x50
 15632 13ca 9F       		.byte	0x9f
 15633 13cb 34000000 		.4byte	.LVL363
ARM GAS  C:\Users\jo\AppData\Local\Temp\ccLDsGlj.s 			page 278


 15634 13cf 3A000000 		.4byte	.LVL364
 15635 13d3 0100     		.2byte	0x1
 15636 13d5 50       		.byte	0x50
 15637 13d6 3A000000 		.4byte	.LVL364
 15638 13da 3E000000 		.4byte	.LVL365
 15639 13de 0400     		.2byte	0x4
 15640 13e0 F3       		.byte	0xf3
 15641 13e1 01       		.uleb128 0x1
 15642 13e2 50       		.byte	0x50
 15643 13e3 9F       		.byte	0x9f
 15644 13e4 3E000000 		.4byte	.LVL365
 15645 13e8 40000000 		.4byte	.LVL366
 15646 13ec 0100     		.2byte	0x1
 15647 13ee 50       		.byte	0x50
 15648 13ef 40000000 		.4byte	.LVL366
 15649 13f3 50000000 		.4byte	.LVL368
 15650 13f7 0100     		.2byte	0x1
 15651 13f9 54       		.byte	0x54
 15652 13fa 50000000 		.4byte	.LVL368
 15653 13fe 58000000 		.4byte	.LVL369
 15654 1402 0400     		.2byte	0x4
 15655 1404 F3       		.byte	0xf3
 15656 1405 01       		.uleb128 0x1
 15657 1406 50       		.byte	0x50
 15658 1407 9F       		.byte	0x9f
 15659 1408 58000000 		.4byte	.LVL369
 15660 140c 5A000000 		.4byte	.LVL370
 15661 1410 0100     		.2byte	0x1
 15662 1412 50       		.byte	0x50
 15663 1413 5A000000 		.4byte	.LVL370
 15664 1417 6A000000 		.4byte	.LVL372
 15665 141b 0100     		.2byte	0x1
 15666 141d 54       		.byte	0x54
 15667 141e 6A000000 		.4byte	.LVL372
 15668 1422 72000000 		.4byte	.LVL373
 15669 1426 0400     		.2byte	0x4
 15670 1428 F3       		.byte	0xf3
 15671 1429 01       		.uleb128 0x1
 15672 142a 50       		.byte	0x50
 15673 142b 9F       		.byte	0x9f
 15674 142c 72000000 		.4byte	.LVL373
 15675 1430 74000000 		.4byte	.LVL374
 15676 1434 0100     		.2byte	0x1
 15677 1436 50       		.byte	0x50
 15678 1437 74000000 		.4byte	.LVL374
 15679 143b 82000000 		.4byte	.LVL376
 15680 143f 0100     		.2byte	0x1
 15681 1441 54       		.byte	0x54
 15682 1442 82000000 		.4byte	.LVL376
 15683 1446 8A000000 		.4byte	.LFE271
 15684 144a 0400     		.2byte	0x4
 15685 144c F3       		.byte	0xf3
 15686 144d 01       		.uleb128 0x1
 15687 144e 50       		.byte	0x50
 15688 144f 9F       		.byte	0x9f
 15689 1450 00000000 		.4byte	0
 15690 1454 00000000 		.4byte	0
ARM GAS  C:\Users\jo\AppData\Local\Temp\ccLDsGlj.s 			page 279


 15691              	.LLST104:
 15692 1458 00000000 		.4byte	.LVL378
 15693 145c 2A000000 		.4byte	.LVL379
 15694 1460 0100     		.2byte	0x1
 15695 1462 50       		.byte	0x50
 15696 1463 2A000000 		.4byte	.LVL379
 15697 1467 48000000 		.4byte	.LVL383
 15698 146b 0100     		.2byte	0x1
 15699 146d 54       		.byte	0x54
 15700 146e 48000000 		.4byte	.LVL383
 15701 1472 4C000000 		.4byte	.LVL384
 15702 1476 0400     		.2byte	0x4
 15703 1478 F3       		.byte	0xf3
 15704 1479 01       		.uleb128 0x1
 15705 147a 50       		.byte	0x50
 15706 147b 9F       		.byte	0x9f
 15707 147c 4C000000 		.4byte	.LVL384
 15708 1480 4E000000 		.4byte	.LVL385
 15709 1484 0100     		.2byte	0x1
 15710 1486 50       		.byte	0x50
 15711 1487 4E000000 		.4byte	.LVL385
 15712 148b 62000000 		.4byte	.LVL387
 15713 148f 0100     		.2byte	0x1
 15714 1491 54       		.byte	0x54
 15715 1492 62000000 		.4byte	.LVL387
 15716 1496 66000000 		.4byte	.LVL388
 15717 149a 0400     		.2byte	0x4
 15718 149c F3       		.byte	0xf3
 15719 149d 01       		.uleb128 0x1
 15720 149e 50       		.byte	0x50
 15721 149f 9F       		.byte	0x9f
 15722 14a0 66000000 		.4byte	.LVL388
 15723 14a4 72000000 		.4byte	.LVL389
 15724 14a8 0100     		.2byte	0x1
 15725 14aa 50       		.byte	0x50
 15726 14ab 72000000 		.4byte	.LVL389
 15727 14af 78000000 		.4byte	.LVL390
 15728 14b3 0100     		.2byte	0x1
 15729 14b5 54       		.byte	0x54
 15730 14b6 78000000 		.4byte	.LVL390
 15731 14ba 7C000000 		.4byte	.LVL391
 15732 14be 0400     		.2byte	0x4
 15733 14c0 F3       		.byte	0xf3
 15734 14c1 01       		.uleb128 0x1
 15735 14c2 50       		.byte	0x50
 15736 14c3 9F       		.byte	0x9f
 15737 14c4 7C000000 		.4byte	.LVL391
 15738 14c8 7E000000 		.4byte	.LVL392
 15739 14cc 0100     		.2byte	0x1
 15740 14ce 50       		.byte	0x50
 15741 14cf 7E000000 		.4byte	.LVL392
 15742 14d3 94000000 		.4byte	.LVL394
 15743 14d7 0100     		.2byte	0x1
 15744 14d9 54       		.byte	0x54
 15745 14da 94000000 		.4byte	.LVL394
 15746 14de 98000000 		.4byte	.LVL395
 15747 14e2 0400     		.2byte	0x4
ARM GAS  C:\Users\jo\AppData\Local\Temp\ccLDsGlj.s 			page 280


 15748 14e4 F3       		.byte	0xf3
 15749 14e5 01       		.uleb128 0x1
 15750 14e6 50       		.byte	0x50
 15751 14e7 9F       		.byte	0x9f
 15752 14e8 98000000 		.4byte	.LVL395
 15753 14ec 9A000000 		.4byte	.LVL396
 15754 14f0 0100     		.2byte	0x1
 15755 14f2 50       		.byte	0x50
 15756 14f3 9A000000 		.4byte	.LVL396
 15757 14f7 CA000000 		.4byte	.LVL402
 15758 14fb 0100     		.2byte	0x1
 15759 14fd 54       		.byte	0x54
 15760 14fe CA000000 		.4byte	.LVL402
 15761 1502 D2000000 		.4byte	.LVL403
 15762 1506 0100     		.2byte	0x1
 15763 1508 50       		.byte	0x50
 15764 1509 D2000000 		.4byte	.LVL403
 15765 150d D6000000 		.4byte	.LVL404
 15766 1511 0400     		.2byte	0x4
 15767 1513 F3       		.byte	0xf3
 15768 1514 01       		.uleb128 0x1
 15769 1515 50       		.byte	0x50
 15770 1516 9F       		.byte	0x9f
 15771 1517 D6000000 		.4byte	.LVL404
 15772 151b E8000000 		.4byte	.LVL408
 15773 151f 0100     		.2byte	0x1
 15774 1521 54       		.byte	0x54
 15775 1522 E8000000 		.4byte	.LVL408
 15776 1526 FC000000 		.4byte	.LFE273
 15777 152a 0200     		.2byte	0x2
 15778 152c 73       		.byte	0x73
 15779 152d 24       		.sleb128 36
 15780 152e 00000000 		.4byte	0
 15781 1532 00000000 		.4byte	0
 15782              	.LLST105:
 15783 1536 32000000 		.4byte	.LVL380
 15784 153a 3E000000 		.4byte	.LVL382
 15785 153e 0600     		.2byte	0x6
 15786 1540 03       		.byte	0x3
 15787 1541 3C040000 		.4byte	.LC30
 15788 1545 9F       		.byte	0x9f
 15789 1546 00000000 		.4byte	0
 15790 154a 00000000 		.4byte	0
 15791              	.LLST106:
 15792 154e B4000000 		.4byte	.LVL399
 15793 1552 C0000000 		.4byte	.LVL400
 15794 1556 0900     		.2byte	0x9
 15795 1558 73       		.byte	0x73
 15796 1559 00       		.sleb128 0
 15797 155a 32       		.byte	0x32
 15798 155b 1A       		.byte	0x1a
 15799 155c 48       		.byte	0x48
 15800 155d 24       		.byte	0x24
 15801 155e 30       		.byte	0x30
 15802 155f 2E       		.byte	0x2e
 15803 1560 9F       		.byte	0x9f
 15804 1561 C0000000 		.4byte	.LVL400
ARM GAS  C:\Users\jo\AppData\Local\Temp\ccLDsGlj.s 			page 281


 15805 1565 C2000000 		.4byte	.LVL401
 15806 1569 0B00     		.2byte	0xb
 15807 156b 72       		.byte	0x72
 15808 156c 1C       		.sleb128 28
 15809 156d 94       		.byte	0x94
 15810 156e 01       		.byte	0x1
 15811 156f 32       		.byte	0x32
 15812 1570 1A       		.byte	0x1a
 15813 1571 48       		.byte	0x48
 15814 1572 24       		.byte	0x24
 15815 1573 30       		.byte	0x30
 15816 1574 2E       		.byte	0x2e
 15817 1575 9F       		.byte	0x9f
 15818 1576 DA000000 		.4byte	.LVL405
 15819 157a DE000000 		.4byte	.LVL406
 15820 157e 0900     		.2byte	0x9
 15821 1580 73       		.byte	0x73
 15822 1581 00       		.sleb128 0
 15823 1582 32       		.byte	0x32
 15824 1583 1A       		.byte	0x1a
 15825 1584 48       		.byte	0x48
 15826 1585 24       		.byte	0x24
 15827 1586 30       		.byte	0x30
 15828 1587 2E       		.byte	0x2e
 15829 1588 9F       		.byte	0x9f
 15830 1589 DE000000 		.4byte	.LVL406
 15831 158d E0000000 		.4byte	.LVL407
 15832 1591 0B00     		.2byte	0xb
 15833 1593 72       		.byte	0x72
 15834 1594 1C       		.sleb128 28
 15835 1595 94       		.byte	0x94
 15836 1596 01       		.byte	0x1
 15837 1597 32       		.byte	0x32
 15838 1598 1A       		.byte	0x1a
 15839 1599 48       		.byte	0x48
 15840 159a 24       		.byte	0x24
 15841 159b 30       		.byte	0x30
 15842 159c 2E       		.byte	0x2e
 15843 159d 9F       		.byte	0x9f
 15844 159e 00000000 		.4byte	0
 15845 15a2 00000000 		.4byte	0
 15846              	.LLST107:
 15847 15a6 00000000 		.4byte	.LVL409
 15848 15aa 14000000 		.4byte	.LVL410
 15849 15ae 0100     		.2byte	0x1
 15850 15b0 50       		.byte	0x50
 15851 15b1 14000000 		.4byte	.LVL410
 15852 15b5 18000000 		.4byte	.LVL411
 15853 15b9 0400     		.2byte	0x4
 15854 15bb F3       		.byte	0xf3
 15855 15bc 01       		.uleb128 0x1
 15856 15bd 50       		.byte	0x50
 15857 15be 9F       		.byte	0x9f
 15858 15bf 18000000 		.4byte	.LVL411
 15859 15c3 1E000000 		.4byte	.LVL412
 15860 15c7 0100     		.2byte	0x1
 15861 15c9 50       		.byte	0x50
ARM GAS  C:\Users\jo\AppData\Local\Temp\ccLDsGlj.s 			page 282


 15862 15ca 1E000000 		.4byte	.LVL412
 15863 15ce 30000000 		.4byte	.LVL414
 15864 15d2 0100     		.2byte	0x1
 15865 15d4 54       		.byte	0x54
 15866 15d5 30000000 		.4byte	.LVL414
 15867 15d9 34000000 		.4byte	.LFE274
 15868 15dd 0400     		.2byte	0x4
 15869 15df F3       		.byte	0xf3
 15870 15e0 01       		.uleb128 0x1
 15871 15e1 50       		.byte	0x50
 15872 15e2 9F       		.byte	0x9f
 15873 15e3 00000000 		.4byte	0
 15874 15e7 00000000 		.4byte	0
 15875              	.LLST108:
 15876 15eb 00000000 		.4byte	.LVL416
 15877 15ef 1E000000 		.4byte	.LVL417
 15878 15f3 0100     		.2byte	0x1
 15879 15f5 50       		.byte	0x50
 15880 15f6 1E000000 		.4byte	.LVL417
 15881 15fa 2A000000 		.4byte	.LVL418
 15882 15fe 0400     		.2byte	0x4
 15883 1600 F3       		.byte	0xf3
 15884 1601 01       		.uleb128 0x1
 15885 1602 50       		.byte	0x50
 15886 1603 9F       		.byte	0x9f
 15887 1604 2A000000 		.4byte	.LVL418
 15888 1608 36000000 		.4byte	.LVL419
 15889 160c 0100     		.2byte	0x1
 15890 160e 50       		.byte	0x50
 15891 160f 36000000 		.4byte	.LVL419
 15892 1613 B4000000 		.4byte	.LFE275
 15893 1617 0100     		.2byte	0x1
 15894 1619 54       		.byte	0x54
 15895 161a 00000000 		.4byte	0
 15896 161e 00000000 		.4byte	0
 15897              	.LLST109:
 15898 1622 3A000000 		.4byte	.LVL420
 15899 1626 40000000 		.4byte	.LVL421
 15900 162a 0100     		.2byte	0x1
 15901 162c 50       		.byte	0x50
 15902 162d 40000000 		.4byte	.LVL421
 15903 1631 78000000 		.4byte	.LVL426
 15904 1635 0100     		.2byte	0x1
 15905 1637 55       		.byte	0x55
 15906 1638 78000000 		.4byte	.LVL426
 15907 163c 80000000 		.4byte	.LVL427
 15908 1640 0100     		.2byte	0x1
 15909 1642 50       		.byte	0x50
 15910 1643 80000000 		.4byte	.LVL427
 15911 1647 B4000000 		.4byte	.LFE275
 15912 164b 0100     		.2byte	0x1
 15913 164d 55       		.byte	0x55
 15914 164e 00000000 		.4byte	0
 15915 1652 00000000 		.4byte	0
 15916              	.LLST110:
 15917 1656 00000000 		.4byte	.LVL432
 15918 165a 2E000000 		.4byte	.LVL433
ARM GAS  C:\Users\jo\AppData\Local\Temp\ccLDsGlj.s 			page 283


 15919 165e 0100     		.2byte	0x1
 15920 1660 50       		.byte	0x50
 15921 1661 2E000000 		.4byte	.LVL433
 15922 1665 44000000 		.4byte	.LVL435
 15923 1669 0100     		.2byte	0x1
 15924 166b 54       		.byte	0x54
 15925 166c 44000000 		.4byte	.LVL435
 15926 1670 48000000 		.4byte	.LVL436
 15927 1674 0400     		.2byte	0x4
 15928 1676 F3       		.byte	0xf3
 15929 1677 01       		.uleb128 0x1
 15930 1678 50       		.byte	0x50
 15931 1679 9F       		.byte	0x9f
 15932 167a 48000000 		.4byte	.LVL436
 15933 167e 4E000000 		.4byte	.LVL437
 15934 1682 0100     		.2byte	0x1
 15935 1684 50       		.byte	0x50
 15936 1685 4E000000 		.4byte	.LVL437
 15937 1689 52000000 		.4byte	.LVL438
 15938 168d 0400     		.2byte	0x4
 15939 168f F3       		.byte	0xf3
 15940 1690 01       		.uleb128 0x1
 15941 1691 50       		.byte	0x50
 15942 1692 9F       		.byte	0x9f
 15943 1693 52000000 		.4byte	.LVL438
 15944 1697 5C000000 		.4byte	.LVL439
 15945 169b 0100     		.2byte	0x1
 15946 169d 50       		.byte	0x50
 15947 169e 5C000000 		.4byte	.LVL439
 15948 16a2 6E000000 		.4byte	.LVL441
 15949 16a6 0100     		.2byte	0x1
 15950 16a8 54       		.byte	0x54
 15951 16a9 6E000000 		.4byte	.LVL441
 15952 16ad 76000000 		.4byte	.LVL442
 15953 16b1 0400     		.2byte	0x4
 15954 16b3 F3       		.byte	0xf3
 15955 16b4 01       		.uleb128 0x1
 15956 16b5 50       		.byte	0x50
 15957 16b6 9F       		.byte	0x9f
 15958 16b7 76000000 		.4byte	.LVL442
 15959 16bb 94000000 		.4byte	.LFE276
 15960 16bf 0100     		.2byte	0x1
 15961 16c1 54       		.byte	0x54
 15962 16c2 00000000 		.4byte	0
 15963 16c6 00000000 		.4byte	0
 15964              	.LLST111:
 15965 16ca 00000000 		.4byte	.LVL445
 15966 16ce 0C000000 		.4byte	.LVL446
 15967 16d2 0100     		.2byte	0x1
 15968 16d4 50       		.byte	0x50
 15969 16d5 0C000000 		.4byte	.LVL446
 15970 16d9 1C000000 		.4byte	.LVL447
 15971 16dd 0100     		.2byte	0x1
 15972 16df 56       		.byte	0x56
 15973 16e0 1C000000 		.4byte	.LVL447
 15974 16e4 20000000 		.4byte	.LVL448
 15975 16e8 0400     		.2byte	0x4
ARM GAS  C:\Users\jo\AppData\Local\Temp\ccLDsGlj.s 			page 284


 15976 16ea F3       		.byte	0xf3
 15977 16eb 01       		.uleb128 0x1
 15978 16ec 50       		.byte	0x50
 15979 16ed 9F       		.byte	0x9f
 15980 16ee 20000000 		.4byte	.LVL448
 15981 16f2 48000000 		.4byte	.LVL454
 15982 16f6 0100     		.2byte	0x1
 15983 16f8 56       		.byte	0x56
 15984 16f9 48000000 		.4byte	.LVL454
 15985 16fd 4C000000 		.4byte	.LFE277
 15986 1701 0400     		.2byte	0x4
 15987 1703 F3       		.byte	0xf3
 15988 1704 01       		.uleb128 0x1
 15989 1705 50       		.byte	0x50
 15990 1706 9F       		.byte	0x9f
 15991 1707 00000000 		.4byte	0
 15992 170b 00000000 		.4byte	0
 15993              	.LLST112:
 15994 170f 22000000 		.4byte	.LVL449
 15995 1713 3A000000 		.4byte	.LVL452
 15996 1717 0100     		.2byte	0x1
 15997 1719 54       		.byte	0x54
 15998 171a 3A000000 		.4byte	.LVL452
 15999 171e 3C000000 		.4byte	.LVL453
 16000 1722 0600     		.2byte	0x6
 16001 1724 74       		.byte	0x74
 16002 1725 00       		.sleb128 0
 16003 1726 75       		.byte	0x75
 16004 1727 00       		.sleb128 0
 16005 1728 1C       		.byte	0x1c
 16006 1729 9F       		.byte	0x9f
 16007 172a 3C000000 		.4byte	.LVL453
 16008 172e 48000000 		.4byte	.LVL454
 16009 1732 0100     		.2byte	0x1
 16010 1734 54       		.byte	0x54
 16011 1735 00000000 		.4byte	0
 16012 1739 00000000 		.4byte	0
 16013              	.LLST113:
 16014 173d 36000000 		.4byte	.LVL451
 16015 1741 39000000 		.4byte	.LVL452-1
 16016 1745 0100     		.2byte	0x1
 16017 1747 51       		.byte	0x51
 16018 1748 00000000 		.4byte	0
 16019 174c 00000000 		.4byte	0
 16020              	.LLST114:
 16021 1750 00000000 		.4byte	.LVL456
 16022 1754 18000000 		.4byte	.LVL457
 16023 1758 0100     		.2byte	0x1
 16024 175a 50       		.byte	0x50
 16025 175b 18000000 		.4byte	.LVL457
 16026 175f 1C000000 		.4byte	.LVL458
 16027 1763 0400     		.2byte	0x4
 16028 1765 F3       		.byte	0xf3
 16029 1766 01       		.uleb128 0x1
 16030 1767 50       		.byte	0x50
 16031 1768 9F       		.byte	0x9f
 16032 1769 1C000000 		.4byte	.LVL458
ARM GAS  C:\Users\jo\AppData\Local\Temp\ccLDsGlj.s 			page 285


 16033 176d 40000000 		.4byte	.LVL459
 16034 1771 0100     		.2byte	0x1
 16035 1773 50       		.byte	0x50
 16036 1774 40000000 		.4byte	.LVL459
 16037 1778 64000000 		.4byte	.LVL462
 16038 177c 0100     		.2byte	0x1
 16039 177e 54       		.byte	0x54
 16040 177f 64000000 		.4byte	.LVL462
 16041 1783 67000000 		.4byte	.LVL463-1
 16042 1787 0200     		.2byte	0x2
 16043 1789 70       		.byte	0x70
 16044 178a 24       		.sleb128 36
 16045 178b 67000000 		.4byte	.LVL463-1
 16046 178f 68000000 		.4byte	.LVL463
 16047 1793 0400     		.2byte	0x4
 16048 1795 F3       		.byte	0xf3
 16049 1796 01       		.uleb128 0x1
 16050 1797 50       		.byte	0x50
 16051 1798 9F       		.byte	0x9f
 16052 1799 68000000 		.4byte	.LVL463
 16053 179d 82000000 		.4byte	.LVL466
 16054 17a1 0100     		.2byte	0x1
 16055 17a3 54       		.byte	0x54
 16056 17a4 82000000 		.4byte	.LVL466
 16057 17a8 A4000000 		.4byte	.LFE279
 16058 17ac 0100     		.2byte	0x1
 16059 17ae 50       		.byte	0x50
 16060 17af 00000000 		.4byte	0
 16061 17b3 00000000 		.4byte	0
 16062              	.LLST115:
 16063 17b7 4C000000 		.4byte	.LVL460
 16064 17bb 52000000 		.4byte	.LVL461
 16065 17bf 0600     		.2byte	0x6
 16066 17c1 03       		.byte	0x3
 16067 17c2 20040000 		.4byte	.LC29
 16068 17c6 9F       		.byte	0x9f
 16069 17c7 00000000 		.4byte	0
 16070 17cb 00000000 		.4byte	0
 16071              	.LLST116:
 16072 17cf 7A000000 		.4byte	.LVL464
 16073 17d3 82000000 		.4byte	.LVL466
 16074 17d7 0600     		.2byte	0x6
 16075 17d9 03       		.byte	0x3
 16076 17da 54040000 		.4byte	.LC31
 16077 17de 9F       		.byte	0x9f
 16078 17df 00000000 		.4byte	0
 16079 17e3 00000000 		.4byte	0
 16080              	.LLST117:
 16081 17e7 00000000 		.4byte	.LVL467
 16082 17eb 36000000 		.4byte	.LVL468
 16083 17ef 0100     		.2byte	0x1
 16084 17f1 50       		.byte	0x50
 16085 17f2 36000000 		.4byte	.LVL468
 16086 17f6 46000000 		.4byte	.LVL471
 16087 17fa 0100     		.2byte	0x1
 16088 17fc 54       		.byte	0x54
 16089 17fd 46000000 		.4byte	.LVL471
ARM GAS  C:\Users\jo\AppData\Local\Temp\ccLDsGlj.s 			page 286


 16090 1801 54000000 		.4byte	.LVL472
 16091 1805 0400     		.2byte	0x4
 16092 1807 F3       		.byte	0xf3
 16093 1808 01       		.uleb128 0x1
 16094 1809 50       		.byte	0x50
 16095 180a 9F       		.byte	0x9f
 16096 180b 54000000 		.4byte	.LVL472
 16097 180f 66000000 		.4byte	.LVL473
 16098 1813 0100     		.2byte	0x1
 16099 1815 50       		.byte	0x50
 16100 1816 66000000 		.4byte	.LVL473
 16101 181a 70000000 		.4byte	.LVL474
 16102 181e 0400     		.2byte	0x4
 16103 1820 F3       		.byte	0xf3
 16104 1821 01       		.uleb128 0x1
 16105 1822 50       		.byte	0x50
 16106 1823 9F       		.byte	0x9f
 16107 1824 70000000 		.4byte	.LVL474
 16108 1828 80000000 		.4byte	.LVL475
 16109 182c 0100     		.2byte	0x1
 16110 182e 50       		.byte	0x50
 16111 182f 80000000 		.4byte	.LVL475
 16112 1833 8A000000 		.4byte	.LVL476
 16113 1837 0400     		.2byte	0x4
 16114 1839 F3       		.byte	0xf3
 16115 183a 01       		.uleb128 0x1
 16116 183b 50       		.byte	0x50
 16117 183c 9F       		.byte	0x9f
 16118 183d 8A000000 		.4byte	.LVL476
 16119 1841 AA000000 		.4byte	.LVL477
 16120 1845 0100     		.2byte	0x1
 16121 1847 50       		.byte	0x50
 16122 1848 AA000000 		.4byte	.LVL477
 16123 184c B4000000 		.4byte	.LVL478
 16124 1850 0400     		.2byte	0x4
 16125 1852 F3       		.byte	0xf3
 16126 1853 01       		.uleb128 0x1
 16127 1854 50       		.byte	0x50
 16128 1855 9F       		.byte	0x9f
 16129 1856 B4000000 		.4byte	.LVL478
 16130 185a D4000000 		.4byte	.LFE280
 16131 185e 0100     		.2byte	0x1
 16132 1860 50       		.byte	0x50
 16133 1861 00000000 		.4byte	0
 16134 1865 00000000 		.4byte	0
 16135              	.LLST118:
 16136 1869 3E000000 		.4byte	.LVL469
 16137 186d 46000000 		.4byte	.LVL471
 16138 1871 0600     		.2byte	0x6
 16139 1873 03       		.byte	0x3
 16140 1874 68040000 		.4byte	.LC32
 16141 1878 9F       		.byte	0x9f
 16142 1879 00000000 		.4byte	0
 16143 187d 00000000 		.4byte	0
 16144              	.LLST119:
 16145 1881 00000000 		.4byte	.LVL479
 16146 1885 06000000 		.4byte	.LVL480
ARM GAS  C:\Users\jo\AppData\Local\Temp\ccLDsGlj.s 			page 287


 16147 1889 0100     		.2byte	0x1
 16148 188b 50       		.byte	0x50
 16149 188c 06000000 		.4byte	.LVL480
 16150 1890 3C000000 		.4byte	.LVL484
 16151 1894 0100     		.2byte	0x1
 16152 1896 54       		.byte	0x54
 16153 1897 3C000000 		.4byte	.LVL484
 16154 189b 40000000 		.4byte	.LVL485
 16155 189f 0400     		.2byte	0x4
 16156 18a1 F3       		.byte	0xf3
 16157 18a2 01       		.uleb128 0x1
 16158 18a3 50       		.byte	0x50
 16159 18a4 9F       		.byte	0x9f
 16160 18a5 40000000 		.4byte	.LVL485
 16161 18a9 56000000 		.4byte	.LVL486
 16162 18ad 0100     		.2byte	0x1
 16163 18af 54       		.byte	0x54
 16164 18b0 56000000 		.4byte	.LVL486
 16165 18b4 5A000000 		.4byte	.LVL487
 16166 18b8 0400     		.2byte	0x4
 16167 18ba F3       		.byte	0xf3
 16168 18bb 01       		.uleb128 0x1
 16169 18bc 50       		.byte	0x50
 16170 18bd 9F       		.byte	0x9f
 16171 18be 5A000000 		.4byte	.LVL487
 16172 18c2 92000000 		.4byte	.LVL491
 16173 18c6 0100     		.2byte	0x1
 16174 18c8 54       		.byte	0x54
 16175 18c9 92000000 		.4byte	.LVL491
 16176 18cd 95000000 		.4byte	.LVL492-1
 16177 18d1 0200     		.2byte	0x2
 16178 18d3 70       		.byte	0x70
 16179 18d4 24       		.sleb128 36
 16180 18d5 95000000 		.4byte	.LVL492-1
 16181 18d9 96000000 		.4byte	.LVL492
 16182 18dd 0400     		.2byte	0x4
 16183 18df F3       		.byte	0xf3
 16184 18e0 01       		.uleb128 0x1
 16185 18e1 50       		.byte	0x50
 16186 18e2 9F       		.byte	0x9f
 16187 18e3 96000000 		.4byte	.LVL492
 16188 18e7 C0000000 		.4byte	.LFE281
 16189 18eb 0100     		.2byte	0x1
 16190 18ed 54       		.byte	0x54
 16191 18ee 00000000 		.4byte	0
 16192 18f2 00000000 		.4byte	0
 16193              	.LLST120:
 16194 18f6 28000000 		.4byte	.LVL481
 16195 18fa 30000000 		.4byte	.LVL483
 16196 18fe 0600     		.2byte	0x6
 16197 1900 03       		.byte	0x3
 16198 1901 E0030000 		.4byte	.LC27
 16199 1905 9F       		.byte	0x9f
 16200 1906 00000000 		.4byte	0
 16201 190a 00000000 		.4byte	0
 16202              	.LLST121:
 16203 190e 7E000000 		.4byte	.LVL488
ARM GAS  C:\Users\jo\AppData\Local\Temp\ccLDsGlj.s 			page 288


 16204 1912 86000000 		.4byte	.LVL490
 16205 1916 0600     		.2byte	0x6
 16206 1918 03       		.byte	0x3
 16207 1919 20040000 		.4byte	.LC29
 16208 191d 9F       		.byte	0x9f
 16209 191e 00000000 		.4byte	0
 16210 1922 00000000 		.4byte	0
 16211              		.section	.debug_aranges,"",%progbits
 16212 0000 E4000000 		.4byte	0xe4
 16213 0004 0200     		.2byte	0x2
 16214 0006 00000000 		.4byte	.Ldebug_info0
 16215 000a 04       		.byte	0x4
 16216 000b 00       		.byte	0
 16217 000c 0000     		.2byte	0
 16218 000e 0000     		.2byte	0
 16219 0010 00000000 		.4byte	.LFB256
 16220 0014 90000000 		.4byte	.LFE256-.LFB256
 16221 0018 00000000 		.4byte	.LFB262
 16222 001c 44000000 		.4byte	.LFE262-.LFB262
 16223 0020 00000000 		.4byte	.LFB283
 16224 0024 28000000 		.4byte	.LFE283-.LFB283
 16225 0028 00000000 		.4byte	.LFB258
 16226 002c E4000000 		.4byte	.LFE258-.LFB258
 16227 0030 00000000 		.4byte	.LFB269
 16228 0034 04020000 		.4byte	.LFE269-.LFB269
 16229 0038 00000000 		.4byte	.LFB278
 16230 003c 00020000 		.4byte	.LFE278-.LFB278
 16231 0040 00000000 		.4byte	.LFB259
 16232 0044 84000000 		.4byte	.LFE259-.LFB259
 16233 0048 00000000 		.4byte	.LFB260
 16234 004c 80000000 		.4byte	.LFE260-.LFB260
 16235 0050 00000000 		.4byte	.LFB272
 16236 0054 CC000000 		.4byte	.LFE272-.LFB272
 16237 0058 00000000 		.4byte	.LFB261
 16238 005c 0C010000 		.4byte	.LFE261-.LFB261
 16239 0060 00000000 		.4byte	.LFB257
 16240 0064 E0000000 		.4byte	.LFE257-.LFB257
 16241 0068 00000000 		.4byte	.LFB265
 16242 006c 98000000 		.4byte	.LFE265-.LFB265
 16243 0070 00000000 		.4byte	.LFB266
 16244 0074 AC000000 		.4byte	.LFE266-.LFB266
 16245 0078 00000000 		.4byte	.LFB267
 16246 007c A0000000 		.4byte	.LFE267-.LFB267
 16247 0080 00000000 		.4byte	.LFB268
 16248 0084 E0000000 		.4byte	.LFE268-.LFB268
 16249 0088 00000000 		.4byte	.LFB263
 16250 008c 9C000000 		.4byte	.LFE263-.LFB263
 16251 0090 00000000 		.4byte	.LFB270
 16252 0094 30010000 		.4byte	.LFE270-.LFB270
 16253 0098 00000000 		.4byte	.LFB271
 16254 009c 8A000000 		.4byte	.LFE271-.LFB271
 16255 00a0 00000000 		.4byte	.LFB273
 16256 00a4 FC000000 		.4byte	.LFE273-.LFB273
 16257 00a8 00000000 		.4byte	.LFB274
 16258 00ac 34000000 		.4byte	.LFE274-.LFB274
 16259 00b0 00000000 		.4byte	.LFB275
 16260 00b4 B4000000 		.4byte	.LFE275-.LFB275
ARM GAS  C:\Users\jo\AppData\Local\Temp\ccLDsGlj.s 			page 289


 16261 00b8 00000000 		.4byte	.LFB276
 16262 00bc 94000000 		.4byte	.LFE276-.LFB276
 16263 00c0 00000000 		.4byte	.LFB277
 16264 00c4 4C000000 		.4byte	.LFE277-.LFB277
 16265 00c8 00000000 		.4byte	.LFB279
 16266 00cc A4000000 		.4byte	.LFE279-.LFB279
 16267 00d0 00000000 		.4byte	.LFB280
 16268 00d4 D4000000 		.4byte	.LFE280-.LFB280
 16269 00d8 00000000 		.4byte	.LFB281
 16270 00dc C0000000 		.4byte	.LFE281-.LFB281
 16271 00e0 00000000 		.4byte	0
 16272 00e4 00000000 		.4byte	0
 16273              		.section	.debug_ranges,"",%progbits
 16274              	.Ldebug_ranges0:
 16275 0000 38000000 		.4byte	.LBB87
 16276 0004 70000000 		.4byte	.LBE87
 16277 0008 7A000000 		.4byte	.LBB88
 16278 000c 90000000 		.4byte	.LBE88
 16279 0010 00000000 		.4byte	0
 16280 0014 00000000 		.4byte	0
 16281 0018 74000000 		.4byte	.LBB133
 16282 001c 76000000 		.4byte	.LBE133
 16283 0020 7C000000 		.4byte	.LBB136
 16284 0024 80000000 		.4byte	.LBE136
 16285 0028 00000000 		.4byte	0
 16286 002c 00000000 		.4byte	0
 16287 0030 80000000 		.4byte	.LBB137
 16288 0034 9A000000 		.4byte	.LBE137
 16289 0038 A0000000 		.4byte	.LBB140
 16290 003c A4000000 		.4byte	.LBE140
 16291 0040 D6000000 		.4byte	.LBB143
 16292 0044 0C010000 		.4byte	.LBE143
 16293 0048 00000000 		.4byte	0
 16294 004c 00000000 		.4byte	0
 16295 0050 B0000000 		.4byte	.LBB176
 16296 0054 CA000000 		.4byte	.LBE176
 16297 0058 DA000000 		.4byte	.LBB177
 16298 005c E4000000 		.4byte	.LBE177
 16299 0060 00000000 		.4byte	0
 16300 0064 00000000 		.4byte	0
 16301 0068 00000000 		.4byte	.LFB256
 16302 006c 90000000 		.4byte	.LFE256
 16303 0070 00000000 		.4byte	.LFB262
 16304 0074 44000000 		.4byte	.LFE262
 16305 0078 00000000 		.4byte	.LFB283
 16306 007c 28000000 		.4byte	.LFE283
 16307 0080 00000000 		.4byte	.LFB258
 16308 0084 E4000000 		.4byte	.LFE258
 16309 0088 00000000 		.4byte	.LFB269
 16310 008c 04020000 		.4byte	.LFE269
 16311 0090 00000000 		.4byte	.LFB278
 16312 0094 00020000 		.4byte	.LFE278
 16313 0098 00000000 		.4byte	.LFB259
 16314 009c 84000000 		.4byte	.LFE259
 16315 00a0 00000000 		.4byte	.LFB260
 16316 00a4 80000000 		.4byte	.LFE260
 16317 00a8 00000000 		.4byte	.LFB272
ARM GAS  C:\Users\jo\AppData\Local\Temp\ccLDsGlj.s 			page 290


 16318 00ac CC000000 		.4byte	.LFE272
 16319 00b0 00000000 		.4byte	.LFB261
 16320 00b4 0C010000 		.4byte	.LFE261
 16321 00b8 00000000 		.4byte	.LFB257
 16322 00bc E0000000 		.4byte	.LFE257
 16323 00c0 00000000 		.4byte	.LFB265
 16324 00c4 98000000 		.4byte	.LFE265
 16325 00c8 00000000 		.4byte	.LFB266
 16326 00cc AC000000 		.4byte	.LFE266
 16327 00d0 00000000 		.4byte	.LFB267
 16328 00d4 A0000000 		.4byte	.LFE267
 16329 00d8 00000000 		.4byte	.LFB268
 16330 00dc E0000000 		.4byte	.LFE268
 16331 00e0 00000000 		.4byte	.LFB263
 16332 00e4 9C000000 		.4byte	.LFE263
 16333 00e8 00000000 		.4byte	.LFB270
 16334 00ec 30010000 		.4byte	.LFE270
 16335 00f0 00000000 		.4byte	.LFB271
 16336 00f4 8A000000 		.4byte	.LFE271
 16337 00f8 00000000 		.4byte	.LFB273
 16338 00fc FC000000 		.4byte	.LFE273
 16339 0100 00000000 		.4byte	.LFB274
 16340 0104 34000000 		.4byte	.LFE274
 16341 0108 00000000 		.4byte	.LFB275
 16342 010c B4000000 		.4byte	.LFE275
 16343 0110 00000000 		.4byte	.LFB276
 16344 0114 94000000 		.4byte	.LFE276
 16345 0118 00000000 		.4byte	.LFB277
 16346 011c 4C000000 		.4byte	.LFE277
 16347 0120 00000000 		.4byte	.LFB279
 16348 0124 A4000000 		.4byte	.LFE279
 16349 0128 00000000 		.4byte	.LFB280
 16350 012c D4000000 		.4byte	.LFE280
 16351 0130 00000000 		.4byte	.LFB281
 16352 0134 C0000000 		.4byte	.LFE281
 16353 0138 00000000 		.4byte	0
 16354 013c 00000000 		.4byte	0
 16355              		.section	.debug_line,"",%progbits
 16356              	.Ldebug_line0:
 16357 0000 E30D0000 		.section	.debug_str,"MS",%progbits,1
 16357      0200FF03 
 16357      00000201 
 16357      FB0E0D00 
 16357      01010101 
 16358              	.LASF53:
 16359 0000 63685F74 		.ascii	"ch_threads_list\000"
 16359      68726561 
 16359      64735F6C 
 16359      69737400 
 16360              	.LASF54:
 16361 0010 74687265 		.ascii	"threads_queue_t\000"
 16361      6164735F 
 16361      71756575 
 16361      655F7400 
 16362              	.LASF316:
 16363 0020 646F5F64 		.ascii	"do_disconnect\000"
 16363      6973636F 
ARM GAS  C:\Users\jo\AppData\Local\Temp\ccLDsGlj.s 			page 291


 16363      6E6E6563 
 16363      7400
 16364              	.LASF136:
 16365 002e 50425546 		.ascii	"PBUF_LINK\000"
 16365      5F4C494E 
 16365      4B00
 16366              	.LASF326:
 16367 0038 49544D5F 		.ascii	"ITM_RxBuffer\000"
 16367      52784275 
 16367      66666572 
 16367      00
 16368              	.LASF350:
 16369 0045 7261775F 		.ascii	"raw_new\000"
 16369      6E657700 
 16370              	.LASF90:
 16371 004d 5F5F7661 		.ascii	"__va_list\000"
 16371      5F6C6973 
 16371      7400
 16372              	.LASF265:
 16373 0057 4D454D50 		.ascii	"MEMP_TCP_PCB_LISTEN\000"
 16373      5F544350 
 16373      5F504342 
 16373      5F4C4953 
 16373      54454E00 
 16374              	.LASF185:
 16375 006b 736F5F6F 		.ascii	"so_options\000"
 16375      7074696F 
 16375      6E7300
 16376              	.LASF312:
 16377 0076 646F5F64 		.ascii	"do_delconn\000"
 16377      656C636F 
 16377      6E6E00
 16378              	.LASF341:
 16379 0081 63687670 		.ascii	"chvprintf\000"
 16379      72696E74 
 16379      6600
 16380              	.LASF85:
 16381 008b 72656761 		.ascii	"regarm_t\000"
 16381      726D5F74 
 16381      00
 16382              	.LASF36:
 16383 0094 705F7072 		.ascii	"p_prio\000"
 16383      696F00
 16384              	.LASF377:
 16385 009b 7564705F 		.ascii	"udp_sendto\000"
 16385      73656E64 
 16385      746F00
 16386              	.LASF158:
 16387 00a6 6E657463 		.ascii	"netconn_type\000"
 16387      6F6E6E5F 
 16387      74797065 
 16387      00
 16388              	.LASF139:
 16389 00b3 50425546 		.ascii	"PBUF_RAM\000"
 16389      5F52414D 
 16389      00
 16390              	.LASF192:
ARM GAS  C:\Users\jo\AppData\Local\Temp\ccLDsGlj.s 			page 292


 16391 00bc 706F6C6C 		.ascii	"polltmr\000"
 16391      746D7200 
 16392              	.LASF375:
 16393 00c4 7261775F 		.ascii	"raw_send\000"
 16393      73656E64 
 16393      00
 16394              	.LASF243:
 16395 00cd 7463705F 		.ascii	"tcp_accept_fn\000"
 16395      61636365 
 16395      70745F66 
 16395      6E00
 16396              	.LASF143:
 16397 00db 70627566 		.ascii	"pbuf_type\000"
 16397      5F747970 
 16397      6500
 16398              	.LASF32:
 16399 00e5 73797374 		.ascii	"systime_t\000"
 16399      696D655F 
 16399      7400
 16400              	.LASF368:
 16401 00ef 7463705F 		.ascii	"tcp_bind\000"
 16401      62696E64 
 16401      00
 16402              	.LASF358:
 16403 00f8 7379735F 		.ascii	"sys_mbox_set_invalid\000"
 16403      6D626F78 
 16403      5F736574 
 16403      5F696E76 
 16403      616C6964 
 16404              	.LASF101:
 16405 010d 6D5F6F77 		.ascii	"m_owner\000"
 16405      6E657200 
 16406              	.LASF104:
 16407 0115 735F7175 		.ascii	"s_queue\000"
 16407      65756500 
 16408              	.LASF307:
 16409 011d 6E657463 		.ascii	"netconn_free\000"
 16409      6F6E6E5F 
 16409      66726565 
 16409      00
 16410              	.LASF176:
 16411 012a 72656376 		.ascii	"recvmbox\000"
 16411      6D626F78 
 16411      00
 16412              	.LASF232:
 16413 0133 7261775F 		.ascii	"raw_pcb\000"
 16413      70636200 
 16414              	.LASF260:
 16415 013b 54494D45 		.ascii	"TIME_WAIT\000"
 16415      5F574149 
 16415      5400
 16416              	.LASF381:
 16417 0145 433A5C55 		.ascii	"C:\\Users\\jo\\Documents\\GitHub\\ChibiOS\\demos\\S"
 16417      73657273 
 16417      5C6A6F5C 
 16417      446F6375 
 16417      6D656E74 
ARM GAS  C:\Users\jo\AppData\Local\Temp\ccLDsGlj.s 			page 293


 16418 0171 544D3332 		.ascii	"TM32\\RT-STM32F407-DISCOVERY\000"
 16418      5C52542D 
 16418      53544D33 
 16418      32463430 
 16418      372D4449 
 16419              	.LASF0:
 16420 018d 756E7369 		.ascii	"unsigned int\000"
 16420      676E6564 
 16420      20696E74 
 16420      00
 16421              	.LASF248:
 16422 019a 7463705F 		.ascii	"tcp_connected_fn\000"
 16422      636F6E6E 
 16422      65637465 
 16422      645F666E 
 16422      00
 16423              	.LASF145:
 16424 01ab 6E657874 		.ascii	"next\000"
 16424      00
 16425              	.LASF170:
 16426 01b0 4E455443 		.ascii	"NETCONN_EVT_ERROR\000"
 16426      4F4E4E5F 
 16426      4556545F 
 16426      4552524F 
 16426      5200
 16427              	.LASF315:
 16428 01c2 6E6F6E5F 		.ascii	"non_blocking\000"
 16428      626C6F63 
 16428      6B696E67 
 16428      00
 16429              	.LASF156:
 16430 01cf 4E455443 		.ascii	"NETCONN_UDPNOCHKSUM\000"
 16430      4F4E4E5F 
 16430      5544504E 
 16430      4F43484B 
 16430      53554D00 
 16431              	.LASF51:
 16432 01e3 74687265 		.ascii	"threads_list_t\000"
 16432      6164735F 
 16432      6C697374 
 16432      5F7400
 16433              	.LASF131:
 16434 01f2 6572725F 		.ascii	"err_t\000"
 16434      7400
 16435              	.LASF238:
 16436 01f8 6C6F6361 		.ascii	"local\000"
 16436      6C00
 16437              	.LASF299:
 16438 01fe 7761735F 		.ascii	"was_nonblocking_connect\000"
 16438      6E6F6E62 
 16438      6C6F636B 
 16438      696E675F 
 16438      636F6E6E 
 16439              	.LASF44:
 16440 0216 705F7761 		.ascii	"p_waiting\000"
 16440      6974696E 
 16440      6700
ARM GAS  C:\Users\jo\AppData\Local\Temp\ccLDsGlj.s 			page 294


 16441              	.LASF376:
 16442 0220 7564705F 		.ascii	"udp_send\000"
 16442      73656E64 
 16442      00
 16443              	.LASF10:
 16444 0229 5F5F696E 		.ascii	"__int32_t\000"
 16444      7433325F 
 16444      7400
 16445              	.LASF115:
 16446 0233 42617365 		.ascii	"BaseSequentialStreamVMT\000"
 16446      53657175 
 16446      656E7469 
 16446      616C5374 
 16446      7265616D 
 16447              	.LASF287:
 16448 024b 73687574 		.ascii	"shut_tx\000"
 16448      5F747800 
 16449              	.LASF125:
 16450 0253 7531365F 		.ascii	"u16_t\000"
 16450      7400
 16451              	.LASF132:
 16452 0259 7379735F 		.ascii	"sys_sem_t\000"
 16452      73656D5F 
 16452      7400
 16453              	.LASF371:
 16454 0263 7564705F 		.ascii	"udp_connect\000"
 16454      636F6E6E 
 16454      65637400 
 16455              	.LASF279:
 16456 026f 73656E74 		.ascii	"sent_tcp\000"
 16456      5F746370 
 16456      00
 16457              	.LASF81:
 16458 0278 76746C69 		.ascii	"vtlist\000"
 16458      737400
 16459              	.LASF198:
 16460 027f 7263765F 		.ascii	"rcv_ann_right_edge\000"
 16460      616E6E5F 
 16460      72696768 
 16460      745F6564 
 16460      676500
 16461              	.LASF57:
 16462 0292 63685F72 		.ascii	"ch_ready_list\000"
 16462      65616479 
 16462      5F6C6973 
 16462      7400
 16463              	.LASF141:
 16464 02a0 50425546 		.ascii	"PBUF_REF\000"
 16464      5F524546 
 16464      00
 16465              	.LASF233:
 16466 02a9 70726F74 		.ascii	"protocol\000"
 16466      6F636F6C 
 16466      00
 16467              	.LASF98:
 16468 02b2 65776D61 		.ascii	"ewmask\000"
 16468      736B00
ARM GAS  C:\Users\jo\AppData\Local\Temp\ccLDsGlj.s 			page 295


 16469              	.LASF294:
 16470 02b9 706F6C6C 		.ascii	"poll_tcp\000"
 16470      5F746370 
 16470      00
 16471              	.LASF229:
 16472 02c2 6B656570 		.ascii	"keep_cnt_sent\000"
 16472      5F636E74 
 16472      5F73656E 
 16472      7400
 16473              	.LASF275:
 16474 02d0 4D454D50 		.ascii	"MEMP_PBUF_POOL\000"
 16474      5F504255 
 16474      465F504F 
 16474      4F4C00
 16475              	.LASF231:
 16476 02df 72656376 		.ascii	"recv_arg\000"
 16476      5F617267 
 16476      00
 16477              	.LASF245:
 16478 02e8 7463705F 		.ascii	"tcp_sent_fn\000"
 16478      73656E74 
 16478      5F666E00 
 16479              	.LASF159:
 16480 02f4 6E657463 		.ascii	"netconn_state\000"
 16480      6F6E6E5F 
 16480      73746174 
 16480      6500
 16481              	.LASF64:
 16482 0302 76746675 		.ascii	"vtfunc_t\000"
 16482      6E635F74 
 16482      00
 16483              	.LASF97:
 16484 030b 77746F62 		.ascii	"wtobjp\000"
 16484      6A7000
 16485              	.LASF76:
 16486 0312 63685F73 		.ascii	"ch_system_debug\000"
 16486      79737465 
 16486      6D5F6465 
 16486      62756700 
 16487              	.LASF338:
 16488 0322 7463705F 		.ascii	"tcp_sent\000"
 16488      73656E74 
 16488      00
 16489              	.LASF105:
 16490 032b 735F636E 		.ascii	"s_cnt\000"
 16490      7400
 16491              	.LASF134:
 16492 0331 50425546 		.ascii	"PBUF_TRANSPORT\000"
 16492      5F545241 
 16492      4E53504F 
 16492      525400
 16493              	.LASF22:
 16494 0340 75696E74 		.ascii	"uint32_t\000"
 16494      33325F74 
 16494      00
 16495              	.LASF270:
 16496 0349 4D454D50 		.ascii	"MEMP_NETCONN\000"
ARM GAS  C:\Users\jo\AppData\Local\Temp\ccLDsGlj.s 			page 296


 16496      5F4E4554 
 16496      434F4E4E 
 16496      00
 16497              	.LASF205:
 16498 0356 63776E64 		.ascii	"cwnd\000"
 16498      00
 16499              	.LASF30:
 16500 035b 6576656E 		.ascii	"eventmask_t\000"
 16500      746D6173 
 16500      6B5F7400 
 16501              	.LASF59:
 16502 0367 725F7072 		.ascii	"r_prio\000"
 16502      696F00
 16503              	.LASF188:
 16504 036e 61636365 		.ascii	"accept\000"
 16504      707400
 16505              	.LASF271:
 16506 0375 4D454D50 		.ascii	"MEMP_TCPIP_MSG_API\000"
 16506      5F544350 
 16506      49505F4D 
 16506      53475F41 
 16506      504900
 16507              	.LASF190:
 16508 0388 6C6F6361 		.ascii	"local_port\000"
 16508      6C5F706F 
 16508      727400
 16509              	.LASF99:
 16510 0393 6D757465 		.ascii	"mutex\000"
 16510      7800
 16511              	.LASF28:
 16512 0399 74707269 		.ascii	"tprio_t\000"
 16512      6F5F7400 
 16513              	.LASF333:
 16514 03a1 70627566 		.ascii	"pbuf_alloc\000"
 16514      5F616C6C 
 16514      6F6300
 16515              	.LASF66:
 16516 03ac 63685F76 		.ascii	"ch_virtual_timer\000"
 16516      69727475 
 16516      616C5F74 
 16516      696D6572 
 16516      00
 16517              	.LASF19:
 16518 03bd 696E7431 		.ascii	"int16_t\000"
 16518      365F7400 
 16519              	.LASF335:
 16520 03c5 6E657462 		.ascii	"netbuf_delete\000"
 16520      75665F64 
 16520      656C6574 
 16520      6500
 16521              	.LASF360:
 16522 03d3 7379735F 		.ascii	"sys_sem_set_invalid\000"
 16522      73656D5F 
 16522      7365745F 
 16522      696E7661 
 16522      6C696400 
 16523              	.LASF349:
ARM GAS  C:\Users\jo\AppData\Local\Temp\ccLDsGlj.s 			page 297


 16524 03e7 7463705F 		.ascii	"tcp_write\000"
 16524      77726974 
 16524      6500
 16525              	.LASF16:
 16526 03f1 6C6F6E67 		.ascii	"long long unsigned int\000"
 16526      206C6F6E 
 16526      6720756E 
 16526      7369676E 
 16526      65642069 
 16527              	.LASF92:
 16528 0408 6F666673 		.ascii	"offset\000"
 16528      657400
 16529              	.LASF367:
 16530 040f 7564705F 		.ascii	"udp_bind\000"
 16530      62696E64 
 16530      00
 16531              	.LASF152:
 16532 0418 4E455443 		.ascii	"NETCONN_INVALID\000"
 16532      4F4E4E5F 
 16532      494E5641 
 16532      4C494400 
 16533              	.LASF201:
 16534 0428 72747365 		.ascii	"rtseq\000"
 16534      7100
 16535              	.LASF328:
 16536 042e 63757272 		.ascii	"current_iphdr_src\000"
 16536      656E745F 
 16536      69706864 
 16536      725F7372 
 16536      6300
 16537              	.LASF8:
 16538 0440 5F5F7569 		.ascii	"__uint16_t\000"
 16538      6E743136 
 16538      5F7400
 16539              	.LASF169:
 16540 044b 4E455443 		.ascii	"NETCONN_EVT_SENDMINUS\000"
 16540      4F4E4E5F 
 16540      4556545F 
 16540      53454E44 
 16540      4D494E55 
 16541              	.LASF313:
 16542 0461 646F5F62 		.ascii	"do_bind\000"
 16542      696E6400 
 16543              	.LASF344:
 16544 0469 7463705F 		.ascii	"tcp_shutdown\000"
 16544      73687574 
 16544      646F776E 
 16544      00
 16545              	.LASF352:
 16546 0476 7463705F 		.ascii	"tcp_new\000"
 16546      6E657700 
 16547              	.LASF343:
 16548 047e 7463705F 		.ascii	"tcp_recved\000"
 16548      72656376 
 16548      656400
 16549              	.LASF199:
 16550 0489 7274696D 		.ascii	"rtime\000"
ARM GAS  C:\Users\jo\AppData\Local\Temp\ccLDsGlj.s 			page 298


 16550      6500
 16551              	.LASF106:
 16552 048f 73656D61 		.ascii	"semaphore_t\000"
 16552      70686F72 
 16552      655F7400 
 16553              	.LASF38:
 16554 049b 705F6E65 		.ascii	"p_newer\000"
 16554      77657200 
 16555              	.LASF73:
 16556 04a3 63685F76 		.ascii	"ch_virtual_timers_list\000"
 16556      69727475 
 16556      616C5F74 
 16556      696D6572 
 16556      735F6C69 
 16557              	.LASF195:
 16558 04ba 7263765F 		.ascii	"rcv_nxt\000"
 16558      6E787400 
 16559              	.LASF345:
 16560 04c2 7379735F 		.ascii	"sys_sem_signal\000"
 16560      73656D5F 
 16560      7369676E 
 16560      616C00
 16561              	.LASF272:
 16562 04d1 4D454D50 		.ascii	"MEMP_TCPIP_MSG_INPKT\000"
 16562      5F544350 
 16562      49505F4D 
 16562      53475F49 
 16562      4E504B54 
 16563              	.LASF373:
 16564 04e6 7564705F 		.ascii	"udp_disconnect\000"
 16564      64697363 
 16564      6F6E6E65 
 16564      637400
 16565              	.LASF334:
 16566 04f5 70627566 		.ascii	"pbuf_copy\000"
 16566      5F636F70 
 16566      7900
 16567              	.LASF166:
 16568 04ff 4E455443 		.ascii	"NETCONN_EVT_RCVPLUS\000"
 16568      4F4E4E5F 
 16568      4556545F 
 16568      52435650 
 16568      4C555300 
 16569              	.LASF33:
 16570 0513 74687265 		.ascii	"thread_t\000"
 16570      61645F74 
 16570      00
 16571              	.LASF154:
 16572 051c 4E455443 		.ascii	"NETCONN_UDP\000"
 16572      4F4E4E5F 
 16572      55445000 
 16573              	.LASF34:
 16574 0528 705F6E65 		.ascii	"p_next\000"
 16574      787400
 16575              	.LASF332:
 16576 052f 7379735F 		.ascii	"sys_mbox_valid\000"
 16576      6D626F78 
ARM GAS  C:\Users\jo\AppData\Local\Temp\ccLDsGlj.s 			page 299


 16576      5F76616C 
 16576      696400
 16577              	.LASF89:
 16578 053e 5F5F676E 		.ascii	"__gnuc_va_list\000"
 16578      75635F76 
 16578      615F6C69 
 16578      737400
 16579              	.LASF259:
 16580 054d 4C415354 		.ascii	"LAST_ACK\000"
 16580      5F41434B 
 16580      00
 16581              	.LASF147:
 16582 0556 746F745F 		.ascii	"tot_len\000"
 16582      6C656E00 
 16583              	.LASF237:
 16584 055e 69706164 		.ascii	"ipaddr\000"
 16584      647200
 16585              	.LASF1:
 16586 0565 73697A65 		.ascii	"size_t\000"
 16586      5F7400
 16587              	.LASF95:
 16588 056c 7264796D 		.ascii	"rdymsg\000"
 16588      736700
 16589              	.LASF146:
 16590 0573 7061796C 		.ascii	"payload\000"
 16590      6F616400 
 16591              	.LASF135:
 16592 057b 50425546 		.ascii	"PBUF_IP\000"
 16592      5F495000 
 16593              	.LASF223:
 16594 0583 636F6E6E 		.ascii	"connected\000"
 16594      65637465 
 16594      6400
 16595              	.LASF283:
 16596 058d 72656376 		.ascii	"recv_tcp\000"
 16596      5F746370 
 16596      00
 16597              	.LASF119:
 16598 0596 5F426F6F 		.ascii	"_Bool\000"
 16598      6C00
 16599              	.LASF111:
 16600 059c 6D625F72 		.ascii	"mb_rdptr\000"
 16600      64707472 
 16600      00
 16601              	.LASF372:
 16602 05a5 7463705F 		.ascii	"tcp_connect\000"
 16602      636F6E6E 
 16602      65637400 
 16603              	.LASF235:
 16604 05b1 636F6E6E 		.ascii	"conn\000"
 16604      00
 16605              	.LASF289:
 16606 05b6 646F5F77 		.ascii	"do_writemore\000"
 16606      72697465 
 16606      6D6F7265 
 16606      00
 16607              	.LASF114:
ARM GAS  C:\Users\jo\AppData\Local\Temp\ccLDsGlj.s 			page 300


 16608 05c3 6D61696C 		.ascii	"mailbox_t\000"
 16608      626F785F 
 16608      7400
 16609              	.LASF142:
 16610 05cd 50425546 		.ascii	"PBUF_POOL\000"
 16610      5F504F4F 
 16610      4C00
 16611              	.LASF258:
 16612 05d7 434C4F53 		.ascii	"CLOSING\000"
 16612      494E4700 
 16613              	.LASF149:
 16614 05df 666C6167 		.ascii	"flags\000"
 16614      7300
 16615              	.LASF174:
 16616 05e5 6C617374 		.ascii	"last_err\000"
 16616      5F657272 
 16616      00
 16617              	.LASF15:
 16618 05ee 5F5F7569 		.ascii	"__uint64_t\000"
 16618      6E743634 
 16618      5F7400
 16619              	.LASF351:
 16620 05f9 7261775F 		.ascii	"raw_recv\000"
 16620      72656376 
 16620      00
 16621              	.LASF276:
 16622 0602 4D454D50 		.ascii	"MEMP_MAX\000"
 16622      5F4D4158 
 16622      00
 16623              	.LASF124:
 16624 060b 73385F74 		.ascii	"s8_t\000"
 16624      00
 16625              	.LASF293:
 16626 0610 646F6E74 		.ascii	"dontblock\000"
 16626      626C6F63 
 16626      6B00
 16627              	.LASF353:
 16628 061a 7564705F 		.ascii	"udp_new\000"
 16628      6E657700 
 16629              	.LASF113:
 16630 0622 6D625F65 		.ascii	"mb_emptysem\000"
 16630      6D707479 
 16630      73656D00 
 16631              	.LASF168:
 16632 062e 4E455443 		.ascii	"NETCONN_EVT_SENDPLUS\000"
 16632      4F4E4E5F 
 16632      4556545F 
 16632      53454E44 
 16632      504C5553 
 16633              	.LASF348:
 16634 0643 7463705F 		.ascii	"tcp_output\000"
 16634      6F757470 
 16634      757400
 16635              	.LASF234:
 16636 064e 6170695F 		.ascii	"api_msg_msg\000"
 16636      6D73675F 
 16636      6D736700 
ARM GAS  C:\Users\jo\AppData\Local\Temp\ccLDsGlj.s 			page 301


 16637              	.LASF210:
 16638 065a 736E645F 		.ascii	"snd_lbb\000"
 16638      6C626200 
 16639              	.LASF17:
 16640 0662 696E7438 		.ascii	"int8_t\000"
 16640      5F7400
 16641              	.LASF167:
 16642 0669 4E455443 		.ascii	"NETCONN_EVT_RCVMINUS\000"
 16642      4F4E4E5F 
 16642      4556545F 
 16642      5243564D 
 16642      494E5553 
 16643              	.LASF40:
 16644 067e 705F6E61 		.ascii	"p_name\000"
 16644      6D6500
 16645              	.LASF118:
 16646 0685 42617365 		.ascii	"BaseSequentialStream\000"
 16646      53657175 
 16646      656E7469 
 16646      616C5374 
 16646      7265616D 
 16647              	.LASF203:
 16648 069a 64757061 		.ascii	"dupacks\000"
 16648      636B7300 
 16649              	.LASF151:
 16650 06a2 706F7274 		.ascii	"port\000"
 16650      00
 16651              	.LASF189:
 16652 06a7 7072696F 		.ascii	"prio\000"
 16652      00
 16653              	.LASF193:
 16654 06ac 706F6C6C 		.ascii	"pollinterval\000"
 16654      696E7465 
 16654      7276616C 
 16654      00
 16655              	.LASF274:
 16656 06b9 4D454D50 		.ascii	"MEMP_PBUF\000"
 16656      5F504255 
 16656      4600
 16657              	.LASF224:
 16658 06c3 706F6C6C 		.ascii	"poll\000"
 16658      00
 16659              	.LASF280:
 16660 06c8 63687072 		.ascii	"chprintf\000"
 16660      696E7466 
 16660      00
 16661              	.LASF150:
 16662 06d1 6E657462 		.ascii	"netbuf\000"
 16662      756600
 16663              	.LASF69:
 16664 06d8 76745F64 		.ascii	"vt_delta\000"
 16664      656C7461 
 16664      00
 16665              	.LASF323:
 16666 06e1 646F5F77 		.ascii	"do_write\000"
 16666      72697465 
 16666      00
ARM GAS  C:\Users\jo\AppData\Local\Temp\ccLDsGlj.s 			page 302


 16667              	.LASF84:
 16668 06ea 73697A65 		.ascii	"sizetype\000"
 16668      74797065 
 16668      00
 16669              	.LASF282:
 16670 06f3 72656376 		.ascii	"recv_raw\000"
 16670      5F726177 
 16670      00
 16671              	.LASF369:
 16672 06fc 7261775F 		.ascii	"raw_bind\000"
 16672      62696E64 
 16672      00
 16673              	.LASF61:
 16674 0705 725F6E65 		.ascii	"r_newer\000"
 16674      77657200 
 16675              	.LASF74:
 16676 070d 76745F6C 		.ascii	"vt_lasttime\000"
 16676      61737474 
 16676      696D6500 
 16677              	.LASF213:
 16678 0719 61636B65 		.ascii	"acked\000"
 16678      6400
 16679              	.LASF288:
 16680 071f 636C6F73 		.ascii	"close\000"
 16680      6500
 16681              	.LASF236:
 16682 0725 70726F74 		.ascii	"proto\000"
 16682      6F00
 16683              	.LASF75:
 16684 072b 73797374 		.ascii	"system_debug_t\000"
 16684      656D5F64 
 16684      65627567 
 16684      5F7400
 16685              	.LASF26:
 16686 073a 74737461 		.ascii	"tstate_t\000"
 16686      74655F74 
 16686      00
 16687              	.LASF298:
 16688 0743 6F6C645F 		.ascii	"old_state\000"
 16688      73746174 
 16688      6500
 16689              	.LASF14:
 16690 074d 6C6F6E67 		.ascii	"long long int\000"
 16690      206C6F6E 
 16690      6720696E 
 16690      7400
 16691              	.LASF164:
 16692 075b 4E455443 		.ascii	"NETCONN_CLOSE\000"
 16692      4F4E4E5F 
 16692      434C4F53 
 16692      4500
 16693              	.LASF39:
 16694 0769 705F6F6C 		.ascii	"p_older\000"
 16694      64657200 
 16695              	.LASF108:
 16696 0771 6D625F62 		.ascii	"mb_buffer\000"
 16696      75666665 
ARM GAS  C:\Users\jo\AppData\Local\Temp\ccLDsGlj.s 			page 303


 16696      7200
 16697              	.LASF12:
 16698 077b 5F5F7569 		.ascii	"__uint32_t\000"
 16698      6E743332 
 16698      5F7400
 16699              	.LASF380:
 16700 0786 2E2E2F2E 		.ascii	"../../../os/ext/lwip-1.4.1/src/api/api_msg.c\000"
 16700      2E2F2E2E 
 16700      2F6F732F 
 16700      6578742F 
 16700      6C776970 
 16701              	.LASF221:
 16702 07b3 73656E74 		.ascii	"sent\000"
 16702      00
 16703              	.LASF18:
 16704 07b8 75696E74 		.ascii	"uint8_t\000"
 16704      385F7400 
 16705              	.LASF112:
 16706 07c0 6D625F66 		.ascii	"mb_fullsem\000"
 16706      756C6C73 
 16706      656D00
 16707              	.LASF208:
 16708 07cb 736E645F 		.ascii	"snd_wl1\000"
 16708      776C3100 
 16709              	.LASF209:
 16710 07d3 736E645F 		.ascii	"snd_wl2\000"
 16710      776C3200 
 16711              	.LASF50:
 16712 07db 705F6D70 		.ascii	"p_mpool\000"
 16712      6F6F6C00 
 16713              	.LASF48:
 16714 07e3 705F6D74 		.ascii	"p_mtxlist\000"
 16714      786C6973 
 16714      7400
 16715              	.LASF247:
 16716 07ed 7463705F 		.ascii	"tcp_err_fn\000"
 16716      6572725F 
 16716      666E00
 16717              	.LASF177:
 16718 07f8 61636365 		.ascii	"acceptmbox\000"
 16718      70746D62 
 16718      6F7800
 16719              	.LASF52:
 16720 0803 63685F74 		.ascii	"ch_thread\000"
 16720      68726561 
 16720      6400
 16721              	.LASF83:
 16722 080d 69646C65 		.ascii	"idle_thread_wa\000"
 16722      5F746872 
 16722      6561645F 
 16722      776100
 16723              	.LASF339:
 16724 081c 7463705F 		.ascii	"tcp_poll\000"
 16724      706F6C6C 
 16724      00
 16725              	.LASF331:
 16726 0825 70627566 		.ascii	"pbuf_free\000"
ARM GAS  C:\Users\jo\AppData\Local\Temp\ccLDsGlj.s 			page 304


 16726      5F667265 
 16726      6500
 16727              	.LASF291:
 16728 082f 77726974 		.ascii	"write_finished\000"
 16728      655F6669 
 16728      6E697368 
 16728      656400
 16729              	.LASF122:
 16730 083e 76615F6C 		.ascii	"va_list\000"
 16730      69737400 
 16731              	.LASF310:
 16732 0846 61636365 		.ascii	"accept_function\000"
 16732      70745F66 
 16732      756E6374 
 16732      696F6E00 
 16733              	.LASF329:
 16734 0856 6D656D70 		.ascii	"memp_malloc\000"
 16734      5F6D616C 
 16734      6C6F6300 
 16735              	.LASF305:
 16736 0862 66726565 		.ascii	"free_and_return\000"
 16736      5F616E64 
 16736      5F726574 
 16736      75726E00 
 16737              	.LASF269:
 16738 0872 4D454D50 		.ascii	"MEMP_NETBUF\000"
 16738      5F4E4554 
 16738      42554600 
 16739              	.LASF55:
 16740 087e 63685F74 		.ascii	"ch_threads_queue\000"
 16740      68726561 
 16740      64735F71 
 16740      75657565 
 16740      00
 16741              	.LASF356:
 16742 088f 7379735F 		.ascii	"sys_sem_new\000"
 16742      73656D5F 
 16742      6E657700 
 16743              	.LASF378:
 16744 089b 7261775F 		.ascii	"raw_sendto\000"
 16744      73656E64 
 16744      746F00
 16745              	.LASF314:
 16746 08a6 646F5F63 		.ascii	"do_connect\000"
 16746      6F6E6E65 
 16746      637400
 16747              	.LASF58:
 16748 08b1 725F7175 		.ascii	"r_queue\000"
 16748      65756500 
 16749              	.LASF311:
 16750 08b9 6E657770 		.ascii	"newpcb\000"
 16750      636200
 16751              	.LASF31:
 16752 08c0 636E745F 		.ascii	"cnt_t\000"
 16752      7400
 16753              	.LASF29:
 16754 08c6 6D73675F 		.ascii	"msg_t\000"
ARM GAS  C:\Users\jo\AppData\Local\Temp\ccLDsGlj.s 			page 305


 16754      7400
 16755              	.LASF297:
 16756 08cc 6572725F 		.ascii	"err_tcp\000"
 16756      74637000 
 16757              	.LASF361:
 16758 08d4 7463705F 		.ascii	"tcp_abort\000"
 16758      61626F72 
 16758      7400
 16759              	.LASF264:
 16760 08de 4D454D50 		.ascii	"MEMP_TCP_PCB\000"
 16760      5F544350 
 16760      5F504342 
 16760      00
 16761              	.LASF123:
 16762 08eb 75385F74 		.ascii	"u8_t\000"
 16762      00
 16763              	.LASF308:
 16764 08f0 6E657463 		.ascii	"netconn_drain\000"
 16764      6F6E6E5F 
 16764      64726169 
 16764      6E00
 16765              	.LASF261:
 16766 08fe 7261775F 		.ascii	"raw_recv_fn\000"
 16766      72656376 
 16766      5F666E00 
 16767              	.LASF42:
 16768 090a 705F666C 		.ascii	"p_flags\000"
 16768      61677300 
 16769              	.LASF6:
 16770 0912 5F5F696E 		.ascii	"__int16_t\000"
 16770      7431365F 
 16770      7400
 16771              	.LASF94:
 16772 091c 5F5F6170 		.ascii	"__ap\000"
 16772      00
 16773              	.LASF65:
 16774 0921 76697274 		.ascii	"virtual_timer_t\000"
 16774      75616C5F 
 16774      74696D65 
 16774      725F7400 
 16775              	.LASF120:
 16776 0931 49544D53 		.ascii	"ITMStreamVMT\000"
 16776      74726561 
 16776      6D564D54 
 16776      00
 16777              	.LASF362:
 16778 093e 7379735F 		.ascii	"sys_arch_mbox_tryfetch\000"
 16778      61726368 
 16778      5F6D626F 
 16778      785F7472 
 16778      79666574 
 16779              	.LASF374:
 16780 0955 7463705F 		.ascii	"tcp_listen_with_backlog\000"
 16780      6C697374 
 16780      656E5F77 
 16780      6974685F 
 16780      6261636B 
ARM GAS  C:\Users\jo\AppData\Local\Temp\ccLDsGlj.s 			page 306


 16781              	.LASF340:
 16782 096d 7463705F 		.ascii	"tcp_err\000"
 16782      65727200 
 16783              	.LASF284:
 16784 0975 73657475 		.ascii	"setup_tcp\000"
 16784      705F7463 
 16784      7000
 16785              	.LASF191:
 16786 097f 72656D6F 		.ascii	"remote_port\000"
 16786      74655F70 
 16786      6F727400 
 16787              	.LASF346:
 16788 098b 7463705F 		.ascii	"tcp_close\000"
 16788      636C6F73 
 16788      6500
 16789              	.LASF303:
 16790 0995 73697A65 		.ascii	"size\000"
 16790      00
 16791              	.LASF41:
 16792 099a 705F7374 		.ascii	"p_state\000"
 16792      61746500 
 16793              	.LASF109:
 16794 09a2 6D625F74 		.ascii	"mb_top\000"
 16794      6F7000
 16795              	.LASF204:
 16796 09a9 6C617374 		.ascii	"lastack\000"
 16796      61636B00 
 16797              	.LASF197:
 16798 09b1 7263765F 		.ascii	"rcv_ann_wnd\000"
 16798      616E6E5F 
 16798      776E6400 
 16799              	.LASF62:
 16800 09bd 725F6F6C 		.ascii	"r_older\000"
 16800      64657200 
 16801              	.LASF267:
 16802 09c5 4D454D50 		.ascii	"MEMP_REASSDATA\000"
 16802      5F524541 
 16802      53534441 
 16802      544100
 16803              	.LASF244:
 16804 09d4 7463705F 		.ascii	"tcp_recv_fn\000"
 16804      72656376 
 16804      5F666E00 
 16805              	.LASF121:
 16806 09e0 49544D53 		.ascii	"ITMStream\000"
 16806      74726561 
 16806      6D00
 16807              	.LASF382:
 16808 09ea 7463705F 		.ascii	"tcp_seg\000"
 16808      73656700 
 16809              	.LASF46:
 16810 09f2 705F6D73 		.ascii	"p_msg\000"
 16810      6700
 16811              	.LASF93:
 16812 09f8 746D5F63 		.ascii	"tm_calibration_t\000"
 16812      616C6962 
 16812      72617469 
ARM GAS  C:\Users\jo\AppData\Local\Temp\ccLDsGlj.s 			page 307


 16812      6F6E5F74 
 16812      00
 16813              	.LASF239:
 16814 0a09 64617461 		.ascii	"dataptr\000"
 16814      70747200 
 16815              	.LASF25:
 16816 0a11 746D6F64 		.ascii	"tmode_t\000"
 16816      655F7400 
 16817              	.LASF82:
 16818 0a19 6D61696E 		.ascii	"mainthread\000"
 16818      74687265 
 16818      616400
 16819              	.LASF246:
 16820 0a24 7463705F 		.ascii	"tcp_poll_fn\000"
 16820      706F6C6C 
 16820      5F666E00 
 16821              	.LASF330:
 16822 0a30 7379735F 		.ascii	"sys_mbox_trypost\000"
 16822      6D626F78 
 16822      5F747279 
 16822      706F7374 
 16822      00
 16823              	.LASF20:
 16824 0a41 75696E74 		.ascii	"uint16_t\000"
 16824      31365F74 
 16824      00
 16825              	.LASF160:
 16826 0a4a 4E455443 		.ascii	"NETCONN_NONE\000"
 16826      4F4E4E5F 
 16826      4E4F4E45 
 16826      00
 16827              	.LASF225:
 16828 0a57 65727266 		.ascii	"errf\000"
 16828      00
 16829              	.LASF137:
 16830 0a5c 50425546 		.ascii	"PBUF_RAW\000"
 16830      5F524157 
 16830      00
 16831              	.LASF211:
 16832 0a65 736E645F 		.ascii	"snd_wnd\000"
 16832      776E6400 
 16833              	.LASF347:
 16834 0a6d 7463705F 		.ascii	"tcp_accept\000"
 16834      61636365 
 16834      707400
 16835              	.LASF249:
 16836 0a78 7463705F 		.ascii	"tcp_state\000"
 16836      73746174 
 16836      6500
 16837              	.LASF24:
 16838 0a82 7274636E 		.ascii	"rtcnt_t\000"
 16838      745F7400 
 16839              	.LASF163:
 16840 0a8a 4E455443 		.ascii	"NETCONN_CONNECT\000"
 16840      4F4E4E5F 
 16840      434F4E4E 
 16840      45435400 
ARM GAS  C:\Users\jo\AppData\Local\Temp\ccLDsGlj.s 			page 308


 16841              	.LASF219:
 16842 0a9a 6F6F7365 		.ascii	"ooseq\000"
 16842      7100
 16843              	.LASF49:
 16844 0aa0 705F7265 		.ascii	"p_realprio\000"
 16844      616C7072 
 16844      696F00
 16845              	.LASF250:
 16846 0aab 434C4F53 		.ascii	"CLOSED\000"
 16846      454400
 16847              	.LASF242:
 16848 0ab2 7564705F 		.ascii	"udp_recv_fn\000"
 16848      72656376 
 16848      5F666E00 
 16849              	.LASF325:
 16850 0abe 646F5F63 		.ascii	"do_close\000"
 16850      6C6F7365 
 16850      00
 16851              	.LASF7:
 16852 0ac7 73686F72 		.ascii	"short int\000"
 16852      7420696E 
 16852      7400
 16853              	.LASF110:
 16854 0ad1 6D625F77 		.ascii	"mb_wrptr\000"
 16854      72707472 
 16854      00
 16855              	.LASF63:
 16856 0ada 725F6375 		.ascii	"r_current\000"
 16856      7272656E 
 16856      7400
 16857              	.LASF47:
 16858 0ae4 705F6570 		.ascii	"p_epending\000"
 16858      656E6469 
 16858      6E6700
 16859              	.LASF100:
 16860 0aef 6D5F7175 		.ascii	"m_queue\000"
 16860      65756500 
 16861              	.LASF319:
 16862 0af7 646F5F73 		.ascii	"do_send\000"
 16862      656E6400 
 16863              	.LASF11:
 16864 0aff 6C6F6E67 		.ascii	"long int\000"
 16864      20696E74 
 16864      00
 16865              	.LASF88:
 16866 0b08 706F7274 		.ascii	"port_intctx\000"
 16866      5F696E74 
 16866      63747800 
 16867              	.LASF87:
 16868 0b14 636F6E74 		.ascii	"context\000"
 16868      65787400 
 16869              	.LASF290:
 16870 0b1c 61766169 		.ascii	"available\000"
 16870      6C61626C 
 16870      6500
 16871              	.LASF217:
 16872 0b26 756E7365 		.ascii	"unsent\000"
ARM GAS  C:\Users\jo\AppData\Local\Temp\ccLDsGlj.s 			page 309


 16872      6E7400
 16873              	.LASF196:
 16874 0b2d 7263765F 		.ascii	"rcv_wnd\000"
 16874      776E6400 
 16875              	.LASF200:
 16876 0b35 72747465 		.ascii	"rttest\000"
 16876      737400
 16877              	.LASF301:
 16878 0b3c 6F73616C 		.ascii	"osalSysHalt\000"
 16878      53797348 
 16878      616C7400 
 16879              	.LASF292:
 16880 0b48 64696666 		.ascii	"diff\000"
 16880      00
 16881              	.LASF79:
 16882 0b4d 63685F73 		.ascii	"ch_system\000"
 16882      79737465 
 16882      6D00
 16883              	.LASF180:
 16884 0b57 63757272 		.ascii	"current_msg\000"
 16884      656E745F 
 16884      6D736700 
 16885              	.LASF363:
 16886 0b63 7379735F 		.ascii	"sys_mbox_free\000"
 16886      6D626F78 
 16886      5F667265 
 16886      6500
 16887              	.LASF273:
 16888 0b71 4D454D50 		.ascii	"MEMP_SYS_TIMEOUT\000"
 16888      5F535953 
 16888      5F54494D 
 16888      454F5554 
 16888      00
 16889              	.LASF194:
 16890 0b82 6C617374 		.ascii	"last_timer\000"
 16890      5F74696D 
 16890      657200
 16891              	.LASF263:
 16892 0b8d 4D454D50 		.ascii	"MEMP_UDP_PCB\000"
 16892      5F554450 
 16892      5F504342 
 16892      00
 16893              	.LASF183:
 16894 0b9a 6C6F6361 		.ascii	"local_ip\000"
 16894      6C5F6970 
 16894      00
 16895              	.LASF23:
 16896 0ba3 75696E74 		.ascii	"uint64_t\000"
 16896      36345F74 
 16896      00
 16897              	.LASF37:
 16898 0bac 705F6374 		.ascii	"p_ctx\000"
 16898      7800
 16899              	.LASF80:
 16900 0bb2 726C6973 		.ascii	"rlist\000"
 16900      7400
 16901              	.LASF216:
ARM GAS  C:\Users\jo\AppData\Local\Temp\ccLDsGlj.s 			page 310


 16902 0bb8 756E7365 		.ascii	"unsent_oversize\000"
 16902      6E745F6F 
 16902      76657273 
 16902      697A6500 
 16903              	.LASF321:
 16904 0bc8 72656D61 		.ascii	"remaining\000"
 16904      696E696E 
 16904      6700
 16905              	.LASF306:
 16906 0bd2 646F5F6E 		.ascii	"do_newconn\000"
 16906      6577636F 
 16906      6E6E00
 16907              	.LASF178:
 16908 0bdd 736F636B 		.ascii	"socket\000"
 16908      657400
 16909              	.LASF207:
 16910 0be4 736E645F 		.ascii	"snd_nxt\000"
 16910      6E787400 
 16911              	.LASF4:
 16912 0bec 5F5F7569 		.ascii	"__uint8_t\000"
 16912      6E74385F 
 16912      7400
 16913              	.LASF254:
 16914 0bf6 45535441 		.ascii	"ESTABLISHED\000"
 16914      424C4953 
 16914      48454400 
 16915              	.LASF212:
 16916 0c02 736E645F 		.ascii	"snd_wnd_max\000"
 16916      776E645F 
 16916      6D617800 
 16917              	.LASF117:
 16918 0c0e 72656164 		.ascii	"read\000"
 16918      00
 16919              	.LASF103:
 16920 0c13 73656D61 		.ascii	"semaphore\000"
 16920      70686F72 
 16920      6500
 16921              	.LASF268:
 16922 0c1d 4D454D50 		.ascii	"MEMP_FRAG_PBUF\000"
 16922      5F465241 
 16922      475F5042 
 16922      554600
 16923              	.LASF324:
 16924 0c2c 646F5F67 		.ascii	"do_getaddr\000"
 16924      65746164 
 16924      647200
 16925              	.LASF206:
 16926 0c37 73737468 		.ascii	"ssthresh\000"
 16926      72657368 
 16926      00
 16927              	.LASF214:
 16928 0c40 736E645F 		.ascii	"snd_buf\000"
 16928      62756600 
 16929              	.LASF359:
 16930 0c48 7379735F 		.ascii	"sys_sem_free\000"
 16930      73656D5F 
 16930      66726565 
ARM GAS  C:\Users\jo\AppData\Local\Temp\ccLDsGlj.s 			page 311


 16930      00
 16931              	.LASF379:
 16932 0c55 474E5520 		.ascii	"GNU C 4.9.3 20141119 (release) [ARM/embedded-4_9-br"
 16932      4320342E 
 16932      392E3320 
 16932      32303134 
 16932      31313139 
 16933 0c88 616E6368 		.ascii	"anch revision 218278] -mcpu=cortex-m4 -mfloat-abi=h"
 16933      20726576 
 16933      6973696F 
 16933      6E203231 
 16933      38323738 
 16934 0cbb 61726420 		.ascii	"ard -mfpu=fpv4-sp-d16 -mno-thumb-interwork -mthumb "
 16934      2D6D6670 
 16934      753D6670 
 16934      76342D73 
 16934      702D6431 
 16935 0cee 2D676764 		.ascii	"-ggdb -O2 -fomit-frame-pointer -falign-functions=16"
 16935      62202D4F 
 16935      32202D66 
 16935      6F6D6974 
 16935      2D667261 
 16936 0d21 202D6666 		.ascii	" -ffunction-sections -fdata-sections -fno-common -f"
 16936      756E6374 
 16936      696F6E2D 
 16936      73656374 
 16936      696F6E73 
 16937 0d54 73696E67 		.ascii	"single-precision-constant\000"
 16937      6C652D70 
 16937      72656369 
 16937      73696F6E 
 16937      2D636F6E 
 16938              	.LASF262:
 16939 0d6e 4D454D50 		.ascii	"MEMP_RAW_PCB\000"
 16939      5F524157 
 16939      5F504342 
 16939      00
 16940              	.LASF320:
 16941 0d7b 646F5F72 		.ascii	"do_recv\000"
 16941      65637600 
 16942              	.LASF35:
 16943 0d83 705F7072 		.ascii	"p_prev\000"
 16943      657600
 16944              	.LASF257:
 16945 0d8a 434C4F53 		.ascii	"CLOSE_WAIT\000"
 16945      455F5741 
 16945      495400
 16946              	.LASF133:
 16947 0d95 7379735F 		.ascii	"sys_mbox_t\000"
 16947      6D626F78 
 16947      5F7400
 16948              	.LASF27:
 16949 0da0 74726566 		.ascii	"trefs_t\000"
 16949      735F7400 
 16950              	.LASF13:
 16951 0da8 6C6F6E67 		.ascii	"long unsigned int\000"
 16951      20756E73 
ARM GAS  C:\Users\jo\AppData\Local\Temp\ccLDsGlj.s 			page 312


 16951      69676E65 
 16951      6420696E 
 16951      7400
 16952              	.LASF56:
 16953 0dba 72656164 		.ascii	"ready_list_t\000"
 16953      795F6C69 
 16953      73745F74 
 16953      00
 16954              	.LASF285:
 16955 0dc7 646F5F63 		.ascii	"do_close_internal\000"
 16955      6C6F7365 
 16955      5F696E74 
 16955      65726E61 
 16955      6C00
 16956              	.LASF300:
 16957 0dd9 72656376 		.ascii	"recv_udp\000"
 16957      5F756470 
 16957      00
 16958              	.LASF126:
 16959 0de2 7331365F 		.ascii	"s16_t\000"
 16959      7400
 16960              	.LASF21:
 16961 0de8 696E7433 		.ascii	"int32_t\000"
 16961      325F7400 
 16962              	.LASF228:
 16963 0df0 70657273 		.ascii	"persist_backoff\000"
 16963      6973745F 
 16963      6261636B 
 16963      6F666600 
 16964              	.LASF138:
 16965 0e00 70627566 		.ascii	"pbuf_layer\000"
 16965      5F6C6179 
 16965      657200
 16966              	.LASF240:
 16967 0e0b 61706966 		.ascii	"apiflags\000"
 16967      6C616773 
 16967      00
 16968              	.LASF220:
 16969 0e14 72656675 		.ascii	"refused_data\000"
 16969      7365645F 
 16969      64617461 
 16969      00
 16970              	.LASF165:
 16971 0e21 6E657463 		.ascii	"netconn_evt\000"
 16971      6F6E6E5F 
 16971      65767400 
 16972              	.LASF354:
 16973 0e2d 7564705F 		.ascii	"udp_recv\000"
 16973      72656376 
 16973      00
 16974              	.LASF171:
 16975 0e36 6E657463 		.ascii	"netconn_callback\000"
 16975      6F6E6E5F 
 16975      63616C6C 
 16975      6261636B 
 16975      00
 16976              	.LASF278:
ARM GAS  C:\Users\jo\AppData\Local\Temp\ccLDsGlj.s 			page 313


 16977 0e47 72656173 		.ascii	"reason\000"
 16977      6F6E00
 16978              	.LASF107:
 16979 0e4e 6D757465 		.ascii	"mutex_t\000"
 16979      785F7400 
 16980              	.LASF295:
 16981 0e56 646F5F63 		.ascii	"do_connected\000"
 16981      6F6E6E65 
 16981      63746564 
 16981      00
 16982              	.LASF71:
 16983 0e63 76745F70 		.ascii	"vt_par\000"
 16983      617200
 16984              	.LASF148:
 16985 0e6a 74797065 		.ascii	"type\000"
 16985      00
 16986              	.LASF5:
 16987 0e6f 756E7369 		.ascii	"unsigned char\000"
 16987      676E6564 
 16987      20636861 
 16987      7200
 16988              	.LASF317:
 16989 0e7d 646F5F6C 		.ascii	"do_listen\000"
 16989      69737465 
 16989      6E00
 16990              	.LASF157:
 16991 0e87 4E455443 		.ascii	"NETCONN_RAW\000"
 16991      4F4E4E5F 
 16991      52415700 
 16992              	.LASF255:
 16993 0e93 46494E5F 		.ascii	"FIN_WAIT_1\000"
 16993      57414954 
 16993      5F3100
 16994              	.LASF256:
 16995 0e9e 46494E5F 		.ascii	"FIN_WAIT_2\000"
 16995      57414954 
 16995      5F3200
 16996              	.LASF218:
 16997 0ea9 756E6163 		.ascii	"unacked\000"
 16997      6B656400 
 16998              	.LASF72:
 16999 0eb1 76697274 		.ascii	"virtual_timers_list_t\000"
 16999      75616C5F 
 16999      74696D65 
 16999      72735F6C 
 16999      6973745F 
 17000              	.LASF43:
 17001 0ec7 705F7265 		.ascii	"p_refs\000"
 17001      667300
 17002              	.LASF266:
 17003 0ece 4D454D50 		.ascii	"MEMP_TCP_SEG\000"
 17003      5F544350 
 17003      5F534547 
 17003      00
 17004              	.LASF182:
 17005 0edb 69705F70 		.ascii	"ip_pcb\000"
 17005      636200
ARM GAS  C:\Users\jo\AppData\Local\Temp\ccLDsGlj.s 			page 314


 17006              	.LASF153:
 17007 0ee2 4E455443 		.ascii	"NETCONN_TCP\000"
 17007      4F4E4E5F 
 17007      54435000 
 17008              	.LASF252:
 17009 0eee 53594E5F 		.ascii	"SYN_SENT\000"
 17009      53454E54 
 17009      00
 17010              	.LASF144:
 17011 0ef7 70627566 		.ascii	"pbuf\000"
 17011      00
 17012              	.LASF241:
 17013 0efc 73687574 		.ascii	"shut\000"
 17013      00
 17014              	.LASF226:
 17015 0f01 6B656570 		.ascii	"keep_idle\000"
 17015      5F69646C 
 17015      6500
 17016              	.LASF162:
 17017 0f0b 4E455443 		.ascii	"NETCONN_LISTEN\000"
 17017      4F4E4E5F 
 17017      4C495354 
 17017      454E00
 17018              	.LASF383:
 17019 0f1a 6E657463 		.ascii	"netconn_alloc\000"
 17019      6F6E6E5F 
 17019      616C6C6F 
 17019      6300
 17020              	.LASF251:
 17021 0f28 4C495354 		.ascii	"LISTEN\000"
 17021      454E00
 17022              	.LASF336:
 17023 0f2f 7463705F 		.ascii	"tcp_arg\000"
 17023      61726700 
 17024              	.LASF304:
 17025 0f37 6572725F 		.ascii	"err_mem\000"
 17025      6D656D00 
 17026              	.LASF179:
 17027 0f3f 77726974 		.ascii	"write_offset\000"
 17027      655F6F66 
 17027      66736574 
 17027      00
 17028              	.LASF129:
 17029 0f4c 61646472 		.ascii	"addr\000"
 17029      00
 17030              	.LASF370:
 17031 0f51 7261775F 		.ascii	"raw_connect\000"
 17031      636F6E6E 
 17031      65637400 
 17032              	.LASF173:
 17033 0f5d 73746174 		.ascii	"state\000"
 17033      6500
 17034              	.LASF337:
 17035 0f63 7463705F 		.ascii	"tcp_recv\000"
 17035      72656376 
 17035      00
 17036              	.LASF342:
ARM GAS  C:\Users\jo\AppData\Local\Temp\ccLDsGlj.s 			page 315


 17037 0f6c 63685379 		.ascii	"chSysHalt\000"
 17037      7348616C 
 17037      7400
 17038              	.LASF366:
 17039 0f76 7261775F 		.ascii	"raw_remove\000"
 17039      72656D6F 
 17039      766500
 17040              	.LASF181:
 17041 0f81 63616C6C 		.ascii	"callback\000"
 17041      6261636B 
 17041      00
 17042              	.LASF67:
 17043 0f8a 76745F6E 		.ascii	"vt_next\000"
 17043      65787400 
 17044              	.LASF364:
 17045 0f92 7379735F 		.ascii	"sys_sem_valid\000"
 17045      73656D5F 
 17045      76616C69 
 17045      6400
 17046              	.LASF78:
 17047 0fa0 63685F73 		.ascii	"ch_system_t\000"
 17047      79737465 
 17047      6D5F7400 
 17048              	.LASF318:
 17049 0fac 6C706362 		.ascii	"lpcb\000"
 17049      00
 17050              	.LASF296:
 17051 0fb1 7761735F 		.ascii	"was_blocking\000"
 17051      626C6F63 
 17051      6B696E67 
 17051      00
 17052              	.LASF91:
 17053 0fbe 63686172 		.ascii	"char\000"
 17053      00
 17054              	.LASF127:
 17055 0fc3 7533325F 		.ascii	"u32_t\000"
 17055      7400
 17056              	.LASF365:
 17057 0fc9 7564705F 		.ascii	"udp_remove\000"
 17057      72656D6F 
 17057      766500
 17058              	.LASF302:
 17059 0fd4 7063625F 		.ascii	"pcb_new\000"
 17059      6E657700 
 17060              	.LASF355:
 17061 0fdc 6D656D70 		.ascii	"memp_free\000"
 17061      5F667265 
 17061      6500
 17062              	.LASF222:
 17063 0fe6 72656376 		.ascii	"recv\000"
 17063      00
 17064              	.LASF102:
 17065 0feb 6D5F6E65 		.ascii	"m_next\000"
 17065      787400
 17066              	.LASF309:
 17067 0ff2 6E657763 		.ascii	"newconn\000"
 17067      6F6E6E00 
ARM GAS  C:\Users\jo\AppData\Local\Temp\ccLDsGlj.s 			page 316


 17068              	.LASF3:
 17069 0ffa 7369676E 		.ascii	"signed char\000"
 17069      65642063 
 17069      68617200 
 17070              	.LASF186:
 17071 1006 7463705F 		.ascii	"tcp_pcb\000"
 17071      70636200 
 17072              	.LASF9:
 17073 100e 73686F72 		.ascii	"short unsigned int\000"
 17073      7420756E 
 17073      7369676E 
 17073      65642069 
 17073      6E7400
 17074              	.LASF60:
 17075 1021 725F6374 		.ascii	"r_ctx\000"
 17075      7800
 17076              	.LASF187:
 17077 1027 63616C6C 		.ascii	"callback_arg\000"
 17077      6261636B 
 17077      5F617267 
 17077      00
 17078              	.LASF86:
 17079 1034 73746B61 		.ascii	"stkalign_t\000"
 17079      6C69676E 
 17079      5F7400
 17080              	.LASF2:
 17081 103f 5F5F696E 		.ascii	"__int8_t\000"
 17081      74385F74 
 17081      00
 17082              	.LASF116:
 17083 1048 77726974 		.ascii	"write\000"
 17083      6500
 17084              	.LASF322:
 17085 104e 72656376 		.ascii	"recved\000"
 17085      656400
 17086              	.LASF45:
 17087 1055 705F6D73 		.ascii	"p_msgqueue\000"
 17087      67717565 
 17087      756500
 17088              	.LASF155:
 17089 1060 4E455443 		.ascii	"NETCONN_UDPLITE\000"
 17089      4F4E4E5F 
 17089      5544504C 
 17089      49544500 
 17090              	.LASF227:
 17091 1070 70657273 		.ascii	"persist_cnt\000"
 17091      6973745F 
 17091      636E7400 
 17092              	.LASF184:
 17093 107c 72656D6F 		.ascii	"remote_ip\000"
 17093      74655F69 
 17093      7000
 17094              	.LASF70:
 17095 1086 76745F66 		.ascii	"vt_func\000"
 17095      756E6300 
 17096              	.LASF357:
 17097 108e 7379735F 		.ascii	"sys_mbox_new\000"
ARM GAS  C:\Users\jo\AppData\Local\Temp\ccLDsGlj.s 			page 317


 17097      6D626F78 
 17097      5F6E6577 
 17097      00
 17098              	.LASF175:
 17099 109b 6F705F63 		.ascii	"op_completed\000"
 17099      6F6D706C 
 17099      65746564 
 17099      00
 17100              	.LASF68:
 17101 10a8 76745F70 		.ascii	"vt_prev\000"
 17101      72657600 
 17102              	.LASF281:
 17103 10b0 666F726D 		.ascii	"formatted_bytes\000"
 17103      61747465 
 17103      645F6279 
 17103      74657300 
 17104              	.LASF130:
 17105 10c0 69705F61 		.ascii	"ip_addr_t\000"
 17105      6464725F 
 17105      7400
 17106              	.LASF230:
 17107 10ca 7564705F 		.ascii	"udp_pcb\000"
 17107      70636200 
 17108              	.LASF172:
 17109 10d2 6E657463 		.ascii	"netconn\000"
 17109      6F6E6E00 
 17110              	.LASF161:
 17111 10da 4E455443 		.ascii	"NETCONN_WRITE\000"
 17111      4F4E4E5F 
 17111      57524954 
 17111      4500
 17112              	.LASF277:
 17113 10e8 6D656D70 		.ascii	"memp_t\000"
 17113      5F7400
 17114              	.LASF140:
 17115 10ef 50425546 		.ascii	"PBUF_ROM\000"
 17115      5F524F4D 
 17115      00
 17116              	.LASF286:
 17117 10f8 73687574 		.ascii	"shut_rx\000"
 17117      5F727800 
 17118              	.LASF77:
 17119 1100 70616E69 		.ascii	"panic_msg\000"
 17119      635F6D73 
 17119      6700
 17120              	.LASF202:
 17121 110a 6E727478 		.ascii	"nrtx\000"
 17121      00
 17122              	.LASF215:
 17123 110f 736E645F 		.ascii	"snd_queuelen\000"
 17123      71756575 
 17123      656C656E 
 17123      00
 17124              	.LASF96:
 17125 111c 65786974 		.ascii	"exitcode\000"
 17125      636F6465 
 17125      00
ARM GAS  C:\Users\jo\AppData\Local\Temp\ccLDsGlj.s 			page 318


 17126              	.LASF253:
 17127 1125 53594E5F 		.ascii	"SYN_RCVD\000"
 17127      52435644 
 17127      00
 17128              	.LASF128:
 17129 112e 69705F61 		.ascii	"ip_addr\000"
 17129      64647200 
 17130              	.LASF327:
 17131 1136 69746D5F 		.ascii	"itm_port\000"
 17131      706F7274 
 17131      00
 17132              		.ident	"GCC: (GNU Tools for ARM Embedded Processors) 4.9.3 20141119 (release) [ARM/embedded-4_9-br
ARM GAS  C:\Users\jo\AppData\Local\Temp\ccLDsGlj.s 			page 319


DEFINED SYMBOLS
                            *ABS*:00000000 api_msg.c
C:\Users\jo\AppData\Local\Temp\ccLDsGlj.s:21     .text.recv_raw:00000000 $t
C:\Users\jo\AppData\Local\Temp\ccLDsGlj.s:26     .text.recv_raw:00000000 recv_raw
C:\Users\jo\AppData\Local\Temp\ccLDsGlj.s:165    .text.recv_raw:0000008c $d
C:\Users\jo\AppData\Local\Temp\ccLDsGlj.s:171    .text.setup_tcp:00000000 $t
C:\Users\jo\AppData\Local\Temp\ccLDsGlj.s:176    .text.setup_tcp:00000000 setup_tcp
C:\Users\jo\AppData\Local\Temp\ccLDsGlj.s:227    .text.setup_tcp:00000034 $d
C:\Users\jo\AppData\Local\Temp\ccLDsGlj.s:297    .text.recv_tcp:00000000 recv_tcp
C:\Users\jo\AppData\Local\Temp\ccLDsGlj.s:1440   .text.sent_tcp:00000000 sent_tcp
C:\Users\jo\AppData\Local\Temp\ccLDsGlj.s:1322   .text.poll_tcp:00000000 poll_tcp
C:\Users\jo\AppData\Local\Temp\ccLDsGlj.s:1742   .text.err_tcp:00000000 err_tcp
C:\Users\jo\AppData\Local\Temp\ccLDsGlj.s:235    .text.chprintf.constprop.1:00000000 $t
C:\Users\jo\AppData\Local\Temp\ccLDsGlj.s:240    .text.chprintf.constprop.1:00000000 chprintf.constprop.1
C:\Users\jo\AppData\Local\Temp\ccLDsGlj.s:286    .text.chprintf.constprop.1:00000020 $d
C:\Users\jo\AppData\Local\Temp\ccLDsGlj.s:292    .text.recv_tcp:00000000 $t
C:\Users\jo\AppData\Local\Temp\ccLDsGlj.s:488    .text.recv_tcp:000000cc $d
C:\Users\jo\AppData\Local\Temp\ccLDsGlj.s:498    .text.do_close_internal:00000000 $t
C:\Users\jo\AppData\Local\Temp\ccLDsGlj.s:503    .text.do_close_internal:00000000 do_close_internal
C:\Users\jo\AppData\Local\Temp\ccLDsGlj.s:895    .text.do_close_internal:000001d4 $d
C:\Users\jo\AppData\Local\Temp\ccLDsGlj.s:911    .text.do_writemore:00000000 $t
C:\Users\jo\AppData\Local\Temp\ccLDsGlj.s:916    .text.do_writemore:00000000 do_writemore
C:\Users\jo\AppData\Local\Temp\ccLDsGlj.s:1305   .text.do_writemore:000001e0 $d
C:\Users\jo\AppData\Local\Temp\ccLDsGlj.s:1317   .text.poll_tcp:00000000 $t
C:\Users\jo\AppData\Local\Temp\ccLDsGlj.s:1425   .text.poll_tcp:00000074 $d
C:\Users\jo\AppData\Local\Temp\ccLDsGlj.s:1435   .text.sent_tcp:00000000 $t
C:\Users\jo\AppData\Local\Temp\ccLDsGlj.s:1546   .text.sent_tcp:00000070 $d
C:\Users\jo\AppData\Local\Temp\ccLDsGlj.s:1556   .text.do_connected:00000000 $t
C:\Users\jo\AppData\Local\Temp\ccLDsGlj.s:1561   .text.do_connected:00000000 do_connected
C:\Users\jo\AppData\Local\Temp\ccLDsGlj.s:1728   .text.do_connected:000000b8 $d
C:\Users\jo\AppData\Local\Temp\ccLDsGlj.s:1737   .text.err_tcp:00000000 $t
C:\Users\jo\AppData\Local\Temp\ccLDsGlj.s:1978   .text.err_tcp:000000f4 $d
C:\Users\jo\AppData\Local\Temp\ccLDsGlj.s:1991   .text.recv_udp:00000000 $t
C:\Users\jo\AppData\Local\Temp\ccLDsGlj.s:1996   .text.recv_udp:00000000 recv_udp
C:\Users\jo\AppData\Local\Temp\ccLDsGlj.s:2219   .text.recv_udp:000000c8 $d
C:\Users\jo\AppData\Local\Temp\ccLDsGlj.s:2229   .text.do_newconn:00000000 $t
C:\Users\jo\AppData\Local\Temp\ccLDsGlj.s:2235   .text.do_newconn:00000000 do_newconn
C:\Users\jo\AppData\Local\Temp\ccLDsGlj.s:2359   .text.do_newconn:00000090 $d
C:\Users\jo\AppData\Local\Temp\ccLDsGlj.s:2367   .text.netconn_alloc:00000000 $t
C:\Users\jo\AppData\Local\Temp\ccLDsGlj.s:2373   .text.netconn_alloc:00000000 netconn_alloc
C:\Users\jo\AppData\Local\Temp\ccLDsGlj.s:2519   .text.netconn_alloc:0000009c $d
C:\Users\jo\AppData\Local\Temp\ccLDsGlj.s:2527   .text.netconn_free:00000000 $t
C:\Users\jo\AppData\Local\Temp\ccLDsGlj.s:2533   .text.netconn_free:00000000 netconn_free
C:\Users\jo\AppData\Local\Temp\ccLDsGlj.s:2649   .text.netconn_free:00000088 $d
C:\Users\jo\AppData\Local\Temp\ccLDsGlj.s:2661   .text.netconn_drain:00000000 $t
C:\Users\jo\AppData\Local\Temp\ccLDsGlj.s:2666   .text.netconn_drain:00000000 netconn_drain
C:\Users\jo\AppData\Local\Temp\ccLDsGlj.s:2842   .text.netconn_drain:000000d0 $d
C:\Users\jo\AppData\Local\Temp\ccLDsGlj.s:2850   .text.accept_function:00000000 $t
C:\Users\jo\AppData\Local\Temp\ccLDsGlj.s:2855   .text.accept_function:00000000 accept_function
C:\Users\jo\AppData\Local\Temp\ccLDsGlj.s:2989   .text.do_delconn:00000000 $t
C:\Users\jo\AppData\Local\Temp\ccLDsGlj.s:2995   .text.do_delconn:00000000 do_delconn
C:\Users\jo\AppData\Local\Temp\ccLDsGlj.s:3239   .text.do_delconn:00000118 $d
C:\Users\jo\AppData\Local\Temp\ccLDsGlj.s:3249   .text.do_bind:00000000 $t
C:\Users\jo\AppData\Local\Temp\ccLDsGlj.s:3255   .text.do_bind:00000000 do_bind
C:\Users\jo\AppData\Local\Temp\ccLDsGlj.s:3381   .text.do_connect:00000000 $t
C:\Users\jo\AppData\Local\Temp\ccLDsGlj.s:3387   .text.do_connect:00000000 do_connect
C:\Users\jo\AppData\Local\Temp\ccLDsGlj.s:3612   .text.do_connect:000000e8 $d
ARM GAS  C:\Users\jo\AppData\Local\Temp\ccLDsGlj.s 			page 320


C:\Users\jo\AppData\Local\Temp\ccLDsGlj.s:3621   .text.do_disconnect:00000000 $t
C:\Users\jo\AppData\Local\Temp\ccLDsGlj.s:3627   .text.do_disconnect:00000000 do_disconnect
C:\Users\jo\AppData\Local\Temp\ccLDsGlj.s:3679   .text.do_listen:00000000 $t
C:\Users\jo\AppData\Local\Temp\ccLDsGlj.s:3685   .text.do_listen:00000000 do_listen
C:\Users\jo\AppData\Local\Temp\ccLDsGlj.s:3838   .text.do_listen:000000b0 $d
C:\Users\jo\AppData\Local\Temp\ccLDsGlj.s:3844   .text.do_send:00000000 $t
C:\Users\jo\AppData\Local\Temp\ccLDsGlj.s:3850   .text.do_send:00000000 do_send
C:\Users\jo\AppData\Local\Temp\ccLDsGlj.s:3975   .text.do_recv:00000000 $t
C:\Users\jo\AppData\Local\Temp\ccLDsGlj.s:3981   .text.do_recv:00000000 do_recv
C:\Users\jo\AppData\Local\Temp\ccLDsGlj.s:4072   .text.do_write:00000000 $t
C:\Users\jo\AppData\Local\Temp\ccLDsGlj.s:4078   .text.do_write:00000000 do_write
C:\Users\jo\AppData\Local\Temp\ccLDsGlj.s:4218   .text.do_write:00000090 $d
C:\Users\jo\AppData\Local\Temp\ccLDsGlj.s:4227   .text.do_getaddr:00000000 $t
C:\Users\jo\AppData\Local\Temp\ccLDsGlj.s:4233   .text.do_getaddr:00000000 do_getaddr
C:\Users\jo\AppData\Local\Temp\ccLDsGlj.s:4416   .text.do_getaddr:000000c4 $d
C:\Users\jo\AppData\Local\Temp\ccLDsGlj.s:4424   .text.do_close:00000000 $t
C:\Users\jo\AppData\Local\Temp\ccLDsGlj.s:4430   .text.do_close:00000000 do_close
C:\Users\jo\AppData\Local\Temp\ccLDsGlj.s:4601   .text.do_close:000000ac $d
C:\Users\jo\AppData\Local\Temp\ccLDsGlj.s:4610   .rodata.str1.4:00000000 $d
                     .debug_frame:00000010 $d
C:\Users\jo\AppData\Local\Temp\ccLDsGlj.s:234    .text.setup_tcp:00000044 $t
C:\Users\jo\AppData\Local\Temp\ccLDsGlj.s:291    .text.chprintf.constprop.1:00000028 $t
C:\Users\jo\AppData\Local\Temp\ccLDsGlj.s:497    .text.recv_tcp:000000e4 $t
C:\Users\jo\AppData\Local\Temp\ccLDsGlj.s:910    .text.do_close_internal:00000204 $t
C:\Users\jo\AppData\Local\Temp\ccLDsGlj.s:1434   .text.poll_tcp:00000084 $t
C:\Users\jo\AppData\Local\Temp\ccLDsGlj.s:1736   .text.do_connected:000000cc $t
C:\Users\jo\AppData\Local\Temp\ccLDsGlj.s:1990   .text.err_tcp:0000010c $t
C:\Users\jo\AppData\Local\Temp\ccLDsGlj.s:2366   .text.do_newconn:00000098 $t
C:\Users\jo\AppData\Local\Temp\ccLDsGlj.s:2526   .text.netconn_alloc:000000ac $t
C:\Users\jo\AppData\Local\Temp\ccLDsGlj.s:3620   .text.do_connect:000000fc $t
C:\Users\jo\AppData\Local\Temp\ccLDsGlj.s:3843   .text.do_listen:000000b4 $t
C:\Users\jo\AppData\Local\Temp\ccLDsGlj.s:4226   .text.do_write:000000a4 $t
C:\Users\jo\AppData\Local\Temp\ccLDsGlj.s:4423   .text.do_getaddr:000000d4 $t

UNDEFINED SYMBOLS
sys_mbox_valid
pbuf_alloc
pbuf_copy
memp_malloc
sys_mbox_trypost
pbuf_free
netbuf_delete
current_iphdr_src
tcp_arg
tcp_recv
tcp_sent
tcp_poll
tcp_err
chvprintf
itm_port
chSysHalt
tcp_recved
tcp_shutdown
sys_sem_signal
tcp_close
tcp_accept
tcp_output
ARM GAS  C:\Users\jo\AppData\Local\Temp\ccLDsGlj.s 			page 321


tcp_write
tcp_new
raw_new
raw_recv
udp_new
udp_recv
memp_free
sys_sem_new
sys_mbox_new
sys_mbox_set_invalid
sys_sem_free
sys_sem_set_invalid
sys_arch_mbox_tryfetch
sys_mbox_free
tcp_abort
sys_sem_valid
udp_remove
raw_remove
udp_bind
tcp_bind
raw_bind
raw_connect
udp_connect
tcp_connect
udp_disconnect
tcp_listen_with_backlog
raw_send
udp_send
udp_sendto
raw_sendto
