ARM GAS  C:\Users\jo\AppData\Local\Temp\ccKPILIK.s 			page 1


   1              		.syntax unified
   2              		.cpu cortex-m4
   3              		.eabi_attribute 27, 3
   4              		.eabi_attribute 28, 1
   5              		.fpu fpv4-sp-d16
   6              		.eabi_attribute 20, 1
   7              		.eabi_attribute 21, 1
   8              		.eabi_attribute 23, 3
   9              		.eabi_attribute 24, 1
  10              		.eabi_attribute 25, 1
  11              		.eabi_attribute 26, 1
  12              		.eabi_attribute 30, 2
  13              		.eabi_attribute 34, 1
  14              		.eabi_attribute 18, 4
  15              		.thumb
  16              		.file	"api_lib.c"
  17              		.text
  18              	.Ltext0:
  19              		.cfi_sections	.debug_frame
  20              		.section	.text.chprintf.constprop.2,"ax",%progbits
  21              		.align	2
  22              		.p2align 4,,15
  23              		.thumb
  24              		.thumb_func
  25              		.type	chprintf.constprop.2, %function
  26              	chprintf.constprop.2:
  27              	.LFB276:
  28              		.file 1 "../../../os/hal/lib/streams/chprintf.h"
  29              		.loc 1 69 0
  30              		.cfi_startproc
  31              		@ args = 4, pretend = 12, frame = 8
  32              		@ frame_needed = 0, uses_anonymous_args = 1
  33              	.LVL0:
  34 0000 0EB4     		push	{r1, r2, r3}
  35              		.cfi_def_cfa_offset 12
  36              		.cfi_offset 1, -12
  37              		.cfi_offset 2, -8
  38              		.cfi_offset 3, -4
  39 0002 00B5     		push	{lr}
  40              		.cfi_def_cfa_offset 16
  41              		.cfi_offset 14, -16
  42 0004 82B0     		sub	sp, sp, #8
  43              		.cfi_def_cfa_offset 24
  44              		.loc 1 73 0
  45 0006 04AB     		add	r3, sp, #16
  46              		.loc 1 74 0
  47 0008 1A46     		mov	r2, r3
  48 000a 0549     		ldr	r1, .L3
  49 000c 0548     		ldr	r0, .L3+4
  50              	.LVL1:
  51              		.loc 1 73 0
  52 000e 0193     		str	r3, [sp, #4]
  53              		.loc 1 74 0
  54 0010 FFF7FEFF 		bl	chvprintf
  55              	.LVL2:
  56              		.loc 1 78 0
  57 0014 02B0     		add	sp, sp, #8
ARM GAS  C:\Users\jo\AppData\Local\Temp\ccKPILIK.s 			page 2


  58              		.cfi_def_cfa_offset 16
  59              		@ sp needed
  60 0016 5DF804EB 		ldr	lr, [sp], #4
  61              		.cfi_restore 14
  62              		.cfi_def_cfa_offset 12
  63 001a 03B0     		add	sp, sp, #12
  64              		.cfi_restore 3
  65              		.cfi_restore 2
  66              		.cfi_restore 1
  67              		.cfi_def_cfa_offset 0
  68 001c 7047     		bx	lr
  69              	.L4:
  70 001e 00BF     		.align	2
  71              	.L3:
  72 0020 00000000 		.word	.LC0
  73 0024 00000000 		.word	itm_port
  74              		.cfi_endproc
  75              	.LFE276:
  76              		.size	chprintf.constprop.2, .-chprintf.constprop.2
  77 0028 AFF30080 		.section	.text.netconn_recv_data,"ax",%progbits
  77      AFF30080 
  78              		.align	2
  79              		.p2align 4,,15
  80              		.thumb
  81              		.thumb_func
  82              		.type	netconn_recv_data, %function
  83              	netconn_recv_data:
  84              	.LFB264:
  85              		.file 2 "../../../os/ext/lwip-1.4.1/src/api/api_lib.c"
  86              		.loc 2 343 0
  87              		.cfi_startproc
  88              		@ args = 0, pretend = 0, frame = 32
  89              		@ frame_needed = 0, uses_anonymous_args = 0
  90              	.LVL3:
  91 0000 F0B5     		push	{r4, r5, r6, r7, lr}
  92              		.cfi_def_cfa_offset 20
  93              		.cfi_offset 4, -20
  94              		.cfi_offset 5, -16
  95              		.cfi_offset 6, -12
  96              		.cfi_offset 7, -8
  97              		.cfi_offset 14, -4
  98 0002 8BB0     		sub	sp, sp, #44
  99              		.cfi_def_cfa_offset 64
 100              		.loc 2 344 0
 101 0004 0025     		movs	r5, #0
 102 0006 0395     		str	r5, [sp, #12]
 103              		.loc 2 351 0
 104 0008 0E46     		mov	r6, r1
 105 000a 0029     		cmp	r1, #0
 106 000c 7BD0     		beq	.L33
 107 000e 0446     		mov	r4, r0
 108              		.loc 2 352 0
 109 0010 0D60     		str	r5, [r1]
 110              		.loc 2 353 0
 111 0012 0028     		cmp	r0, #0
 112 0014 69D0     		beq	.L34
 113              		.loc 2 354 0
ARM GAS  C:\Users\jo\AppData\Local\Temp\ccKPILIK.s 			page 3


 114 0016 00F11007 		add	r7, r0, #16
 115 001a 3846     		mov	r0, r7
 116              	.LVL4:
 117 001c FFF7FEFF 		bl	sys_mbox_valid
 118              	.LVL5:
 119 0020 0028     		cmp	r0, #0
 120 0022 54D0     		beq	.L35
 121              		.loc 2 356 0
 122 0024 207A     		ldrb	r0, [r4, #8]	@ zero_extendqisi2
 123              	.LVL6:
 124              		.loc 2 357 0
 125 0026 43B2     		sxtb	r3, r0
 126 0028 0933     		adds	r3, r3, #9
 127 002a 02DA     		bge	.L36
 128              	.LVL7:
 129              	.L7:
 130 002c 40B2     		sxtb	r0, r0
 131              		.loc 2 425 0
 132 002e 0BB0     		add	sp, sp, #44
 133              		.cfi_remember_state
 134              		.cfi_def_cfa_offset 20
 135              		@ sp needed
 136 0030 F0BD     		pop	{r4, r5, r6, r7, pc}
 137              	.LVL8:
 138              	.L36:
 139              		.cfi_restore_state
 140              		.loc 2 371 0
 141 0032 3846     		mov	r0, r7
 142              	.LVL9:
 143 0034 2A46     		mov	r2, r5
 144 0036 03A9     		add	r1, sp, #12
 145 0038 FFF7FEFF 		bl	sys_arch_mbox_fetch
 146              	.LVL10:
 147              		.loc 2 376 0
 148 003c 2378     		ldrb	r3, [r4]	@ zero_extendqisi2
 149 003e 102B     		cmp	r3, #16
 150 0040 0FD0     		beq	.L37
 151              		.loc 2 409 0
 152 0042 039B     		ldr	r3, [sp, #12]
 153 0044 002B     		cmp	r3, #0
 154 0046 34D0     		beq	.L38
 155              	.L19:
 156              		.loc 2 410 0
 157 0048 1A68     		ldr	r2, [r3]
 158 004a 1289     		ldrh	r2, [r2, #8]
 159              	.LVL11:
 160              	.L18:
 161              		.loc 2 418 0
 162 004c A56A     		ldr	r5, [r4, #40]
 163 004e 1DB1     		cbz	r5, .L20
 164              		.loc 2 418 0 is_stmt 0 discriminator 1
 165 0050 2046     		mov	r0, r4
 166 0052 0121     		movs	r1, #1
 167 0054 A847     		blx	r5
 168              	.LVL12:
 169 0056 039B     		ldr	r3, [sp, #12]
 170              	.L20:
ARM GAS  C:\Users\jo\AppData\Local\Temp\ccKPILIK.s 			page 4


 171              		.loc 2 422 0 is_stmt 1
 172 0058 3360     		str	r3, [r6]
 173              		.loc 2 424 0
 174 005a 0020     		movs	r0, #0
 175 005c 40B2     		sxtb	r0, r0
 176              		.loc 2 425 0
 177 005e 0BB0     		add	sp, sp, #44
 178              		.cfi_remember_state
 179              		.cfi_def_cfa_offset 20
 180              		@ sp needed
 181 0060 F0BD     		pop	{r4, r5, r6, r7, pc}
 182              	.LVL13:
 183              	.L37:
 184              		.cfi_restore_state
 185              		.loc 2 379 0
 186 0062 237F     		ldrb	r3, [r4, #28]	@ zero_extendqisi2
 187 0064 13F0080F 		tst	r3, #8
 188 0068 039B     		ldr	r3, [sp, #12]
 189 006a 0CD1     		bne	.L11
 190              		.loc 2 383 0
 191 006c 2D4A     		ldr	r2, .L40
 192              		.loc 2 384 0
 193 006e 0594     		str	r4, [sp, #20]
 194              		.loc 2 383 0
 195 0070 0492     		str	r2, [sp, #16]
 196              		.loc 2 385 0
 197 0072 6BB1     		cbz	r3, .L13
 198              		.loc 2 386 0
 199 0074 1B89     		ldrh	r3, [r3, #8]
 200 0076 0793     		str	r3, [sp, #28]
 201              	.L16:
 202              		.loc 2 391 0
 203 0078 04A8     		add	r0, sp, #16
 204 007a FFF7FEFF 		bl	tcpip_apimsg
 205              	.LVL14:
 206              		.loc 2 395 0
 207 007e 039B     		ldr	r3, [sp, #12]
 208 0080 4BB1     		cbz	r3, .L39
 209              	.L15:
 210              		.loc 2 401 0
 211 0082 1A89     		ldrh	r2, [r3, #8]
 212              	.LVL15:
 213 0084 E2E7     		b	.L18
 214              	.LVL16:
 215              	.L11:
 216              		.loc 2 379 0 discriminator 1
 217 0086 002B     		cmp	r3, #0
 218 0088 FBD1     		bne	.L15
 219              		.loc 2 383 0
 220 008a 264B     		ldr	r3, .L40
 221              		.loc 2 384 0
 222 008c 0594     		str	r4, [sp, #20]
 223              		.loc 2 383 0
 224 008e 0493     		str	r3, [sp, #16]
 225              	.L13:
 226              		.loc 2 388 0
 227 0090 0123     		movs	r3, #1
ARM GAS  C:\Users\jo\AppData\Local\Temp\ccKPILIK.s 			page 5


 228 0092 0793     		str	r3, [sp, #28]
 229 0094 F0E7     		b	.L16
 230              	.L39:
 231              		.loc 2 396 0
 232 0096 A56A     		ldr	r5, [r4, #40]
 233 0098 1DB1     		cbz	r5, .L17
 234              		.loc 2 396 0 is_stmt 0 discriminator 1
 235 009a 1A46     		mov	r2, r3
 236 009c 2046     		mov	r0, r4
 237 009e 0121     		movs	r1, #1
 238 00a0 A847     		blx	r5
 239              	.LVL17:
 240              	.L17:
 241              		.loc 2 398 0 is_stmt 1
 242 00a2 94F90830 		ldrsb	r3, [r4, #8]
 243 00a6 0933     		adds	r3, r3, #9
 244 00a8 4FF0F400 		mov	r0, #244
 245 00ac BEDB     		blt	.L7
 246              		.loc 2 398 0 is_stmt 0 discriminator 1
 247 00ae 2072     		strb	r0, [r4, #8]
 248 00b0 BCE7     		b	.L7
 249              	.L38:
 250              		.loc 2 409 0 is_stmt 1 discriminator 1
 251 00b2 1D4B     		ldr	r3, .L40+4
 252 00b4 0093     		str	r3, [sp]
 253 00b6 1D49     		ldr	r1, .L40+8
 254 00b8 1D4A     		ldr	r2, .L40+12
 255 00ba 1E48     		ldr	r0, .L40+16
 256 00bc 40F29913 		movw	r3, #409
 257 00c0 FFF7FEFF 		bl	chprintf.constprop.2
 258              	.LVL18:
 259              	.LBB61:
 260              	.LBB62:
 261              		.file 3 "../../../os/hal/osal/rt/osal.h"
 262              		.loc 3 414 0 discriminator 1
 263 00c4 1A48     		ldr	r0, .L40+12
 264 00c6 FFF7FEFF 		bl	chSysHalt
 265              	.LVL19:
 266 00ca 039B     		ldr	r3, [sp, #12]
 267 00cc BCE7     		b	.L19
 268              	.LVL20:
 269              	.L35:
 270              	.LBE62:
 271              	.LBE61:
 272              		.loc 2 354 0 discriminator 1
 273 00ce 164B     		ldr	r3, .L40+4
 274 00d0 0093     		str	r3, [sp]
 275 00d2 1649     		ldr	r1, .L40+8
 276 00d4 184A     		ldr	r2, .L40+20
 277 00d6 1748     		ldr	r0, .L40+16
 278 00d8 4FF4B173 		mov	r3, #354
 279 00dc FFF7FEFF 		bl	chprintf.constprop.2
 280              	.LVL21:
 281              	.LBB63:
 282              	.LBB64:
 283              		.loc 3 414 0 discriminator 1
 284 00e0 1548     		ldr	r0, .L40+20
ARM GAS  C:\Users\jo\AppData\Local\Temp\ccKPILIK.s 			page 6


 285 00e2 FFF7FEFF 		bl	chSysHalt
 286              	.LVL22:
 287              	.LBE64:
 288              	.LBE63:
 289              		.loc 2 354 0 discriminator 1
 290 00e6 F320     		movs	r0, #243
 291 00e8 A0E7     		b	.L7
 292              	.LVL23:
 293              	.L34:
 294              		.loc 2 353 0 discriminator 1
 295 00ea 0F4B     		ldr	r3, .L40+4
 296 00ec 0093     		str	r3, [sp]
 297 00ee 0F49     		ldr	r1, .L40+8
 298              	.LVL24:
 299 00f0 124A     		ldr	r2, .L40+24
 300 00f2 1048     		ldr	r0, .L40+16
 301              	.LVL25:
 302 00f4 40F26113 		movw	r3, #353
 303 00f8 FFF7FEFF 		bl	chprintf.constprop.2
 304              	.LVL26:
 305              	.LBB65:
 306              	.LBB66:
 307              		.loc 3 414 0 discriminator 1
 308 00fc 0F48     		ldr	r0, .L40+24
 309 00fe FFF7FEFF 		bl	chSysHalt
 310              	.LVL27:
 311              	.LBE66:
 312              	.LBE65:
 313              		.loc 2 353 0 discriminator 1
 314 0102 F220     		movs	r0, #242
 315 0104 92E7     		b	.L7
 316              	.LVL28:
 317              	.L33:
 318              		.loc 2 351 0 discriminator 1
 319 0106 084B     		ldr	r3, .L40+4
 320 0108 0093     		str	r3, [sp]
 321 010a 0849     		ldr	r1, .L40+8
 322              	.LVL29:
 323 010c 0C4A     		ldr	r2, .L40+28
 324 010e 0948     		ldr	r0, .L40+16
 325              	.LVL30:
 326 0110 40F25F13 		movw	r3, #351
 327 0114 FFF7FEFF 		bl	chprintf.constprop.2
 328              	.LVL31:
 329              	.LBB67:
 330              	.LBB68:
 331              		.loc 3 414 0 discriminator 1
 332 0118 0948     		ldr	r0, .L40+28
 333 011a FFF7FEFF 		bl	chSysHalt
 334              	.LVL32:
 335              	.LBE68:
 336              	.LBE67:
 337              		.loc 2 351 0 discriminator 1
 338 011e F220     		movs	r0, #242
 339 0120 84E7     		b	.L7
 340              	.L41:
 341 0122 00BF     		.align	2
ARM GAS  C:\Users\jo\AppData\Local\Temp\ccKPILIK.s 			page 7


 342              	.L40:
 343 0124 00000000 		.word	do_recv
 344 0128 48000000 		.word	.LC2
 345 012c 00000000 		.word	.LC0
 346 0130 B8000000 		.word	.LC5
 347 0134 00000000 		.word	itm_port
 348 0138 94000000 		.word	.LC4
 349 013c 78000000 		.word	.LC3
 350 0140 28000000 		.word	.LC1
 351              		.cfi_endproc
 352              	.LFE264:
 353              		.size	netconn_recv_data, .-netconn_recv_data
 354 0144 AFF30080 		.section	.text.netconn_close_shutdown,"ax",%progbits
 354      AFF30080 
 354      AFF30080 
 355              		.align	2
 356              		.p2align 4,,15
 357              		.thumb
 358              		.thumb_func
 359              		.type	netconn_close_shutdown, %function
 360              	netconn_close_shutdown:
 361              	.LFB271:
 362              		.loc 2 664 0
 363              		.cfi_startproc
 364              		@ args = 0, pretend = 0, frame = 24
 365              		@ frame_needed = 0, uses_anonymous_args = 0
 366              	.LVL33:
 367 0000 10B5     		push	{r4, lr}
 368              		.cfi_def_cfa_offset 8
 369              		.cfi_offset 4, -8
 370              		.cfi_offset 14, -4
 371              		.loc 2 668 0
 372 0002 0446     		mov	r4, r0
 373              		.loc 2 664 0
 374 0004 88B0     		sub	sp, sp, #32
 375              		.cfi_def_cfa_offset 40
 376              		.loc 2 668 0
 377 0006 78B1     		cbz	r0, .L47
 378              		.loc 2 670 0
 379 0008 0E4B     		ldr	r3, .L48
 380              		.loc 2 671 0
 381 000a 0390     		str	r0, [sp, #12]
 382              		.loc 2 676 0
 383 000c 02A8     		add	r0, sp, #8
 384              	.LVL34:
 385              		.loc 2 670 0
 386 000e 0293     		str	r3, [sp, #8]
 387              		.loc 2 673 0
 388 0010 8DF81410 		strb	r1, [sp, #20]
 389              		.loc 2 676 0
 390 0014 FFF7FEFF 		bl	tcpip_apimsg
 391              	.LVL35:
 392              		.loc 2 678 0
 393 0018 94F90830 		ldrsb	r3, [r4, #8]
 394 001c 0933     		adds	r3, r3, #9
 395 001e A8BF     		it	ge
 396 0020 2072     		strbge	r0, [r4, #8]
ARM GAS  C:\Users\jo\AppData\Local\Temp\ccKPILIK.s 			page 8


 397              	.LVL36:
 398              	.L44:
 399              		.loc 2 680 0
 400 0022 40B2     		sxtb	r0, r0
 401 0024 08B0     		add	sp, sp, #32
 402              		.cfi_remember_state
 403              		.cfi_def_cfa_offset 8
 404              		@ sp needed
 405 0026 10BD     		pop	{r4, pc}
 406              	.LVL37:
 407              	.L47:
 408              		.cfi_restore_state
 409              	.LBB73:
 410              	.LBB74:
 411              		.loc 2 668 0
 412 0028 074B     		ldr	r3, .L48+4
 413 002a 0093     		str	r3, [sp]
 414 002c 0749     		ldr	r1, .L48+8
 415              	.LVL38:
 416 002e 084A     		ldr	r2, .L48+12
 417 0030 0848     		ldr	r0, .L48+16
 418              	.LVL39:
 419 0032 4FF42773 		mov	r3, #668
 420 0036 FFF7FEFF 		bl	chprintf.constprop.2
 421              	.LVL40:
 422              	.LBB75:
 423              	.LBB76:
 424              		.loc 3 414 0
 425 003a 0548     		ldr	r0, .L48+12
 426 003c FFF7FEFF 		bl	chSysHalt
 427              	.LVL41:
 428 0040 F220     		movs	r0, #242
 429 0042 EEE7     		b	.L44
 430              	.L49:
 431              		.align	2
 432              	.L48:
 433 0044 00000000 		.word	do_close
 434 0048 48000000 		.word	.LC2
 435 004c 00000000 		.word	.LC0
 436 0050 C4000000 		.word	.LC6
 437 0054 00000000 		.word	itm_port
 438              	.LBE76:
 439              	.LBE75:
 440              	.LBE74:
 441              	.LBE73:
 442              		.cfi_endproc
 443              	.LFE271:
 444              		.size	netconn_close_shutdown, .-netconn_close_shutdown
 445 0058 AFF30080 		.section	.text.netconn_new_with_proto_and_callback,"ax",%progbits
 445      AFF30080 
 446              		.align	2
 447              		.p2align 4,,15
 448              		.global	netconn_new_with_proto_and_callback
 449              		.thumb
 450              		.thumb_func
 451              		.type	netconn_new_with_proto_and_callback, %function
 452              	netconn_new_with_proto_and_callback:
ARM GAS  C:\Users\jo\AppData\Local\Temp\ccKPILIK.s 			page 9


 453              	.LFB256:
 454              		.loc 2 69 0
 455              		.cfi_startproc
 456              		@ args = 0, pretend = 0, frame = 24
 457              		@ frame_needed = 0, uses_anonymous_args = 0
 458              	.LVL42:
 459 0000 70B5     		push	{r4, r5, r6, lr}
 460              		.cfi_def_cfa_offset 16
 461              		.cfi_offset 4, -16
 462              		.cfi_offset 5, -12
 463              		.cfi_offset 6, -8
 464              		.cfi_offset 14, -4
 465 0002 0D46     		mov	r5, r1
 466 0004 88B0     		sub	sp, sp, #32
 467              		.cfi_def_cfa_offset 48
 468              		.loc 2 73 0
 469 0006 1146     		mov	r1, r2
 470              	.LVL43:
 471 0008 FFF7FEFF 		bl	netconn_alloc
 472              	.LVL44:
 473              		.loc 2 74 0
 474 000c 0446     		mov	r4, r0
 475 000e 0028     		cmp	r0, #0
 476 0010 54D0     		beq	.L65
 477              		.loc 2 75 0
 478 0012 2C4B     		ldr	r3, .L67
 479              		.loc 2 76 0
 480 0014 8DF81450 		strb	r5, [sp, #20]
 481              		.loc 2 78 0
 482 0018 02A8     		add	r0, sp, #8
 483              	.LVL45:
 484              		.loc 2 77 0
 485 001a 0394     		str	r4, [sp, #12]
 486              		.loc 2 75 0
 487 001c 0293     		str	r3, [sp, #8]
 488              		.loc 2 78 0
 489 001e FFF7FEFF 		bl	tcpip_apimsg
 490              	.LVL46:
 491 0022 10B9     		cbnz	r0, .L66
 492 0024 2046     		mov	r0, r4
 493              		.loc 2 92 0
 494 0026 08B0     		add	sp, sp, #32
 495              		.cfi_remember_state
 496              		.cfi_def_cfa_offset 16
 497              		@ sp needed
 498 0028 70BD     		pop	{r4, r5, r6, pc}
 499              	.LVL47:
 500              	.L66:
 501              		.cfi_restore_state
 502              		.loc 2 79 0
 503 002a 6368     		ldr	r3, [r4, #4]
 504 002c 53B1     		cbz	r3, .L52
 505              		.loc 2 79 0 is_stmt 0 discriminator 1
 506 002e 264B     		ldr	r3, .L67+4
 507 0030 0093     		str	r3, [sp]
 508 0032 2648     		ldr	r0, .L67+8
 509 0034 2649     		ldr	r1, .L67+12
ARM GAS  C:\Users\jo\AppData\Local\Temp\ccKPILIK.s 			page 10


 510 0036 274A     		ldr	r2, .L67+16
 511 0038 4F23     		movs	r3, #79
 512 003a FFF7FEFF 		bl	chprintf.constprop.2
 513              	.LVL48:
 514              	.LBB77:
 515              	.LBB78:
 516              		.loc 3 414 0 is_stmt 1 discriminator 1
 517 003e 2548     		ldr	r0, .L67+16
 518 0040 FFF7FEFF 		bl	chSysHalt
 519              	.LVL49:
 520              	.L52:
 521              	.LBE78:
 522              	.LBE77:
 523              		.loc 2 80 0
 524 0044 04F10C06 		add	r6, r4, #12
 525 0048 3046     		mov	r0, r6
 526 004a FFF7FEFF 		bl	sys_sem_valid
 527              	.LVL50:
 528 004e 50B9     		cbnz	r0, .L53
 529              		.loc 2 80 0 is_stmt 0 discriminator 1
 530 0050 1D4B     		ldr	r3, .L67+4
 531 0052 0093     		str	r3, [sp]
 532 0054 1D48     		ldr	r0, .L67+8
 533 0056 1E49     		ldr	r1, .L67+12
 534 0058 1F4A     		ldr	r2, .L67+20
 535 005a 5023     		movs	r3, #80
 536 005c FFF7FEFF 		bl	chprintf.constprop.2
 537              	.LVL51:
 538              	.LBB79:
 539              	.LBB80:
 540              		.loc 3 414 0 is_stmt 1 discriminator 1
 541 0060 1D48     		ldr	r0, .L67+20
 542 0062 FFF7FEFF 		bl	chSysHalt
 543              	.LVL52:
 544              	.L53:
 545              	.LBE80:
 546              	.LBE79:
 547              		.loc 2 81 0
 548 0066 04F11005 		add	r5, r4, #16
 549 006a 2846     		mov	r0, r5
 550 006c FFF7FEFF 		bl	sys_mbox_valid
 551              	.LVL53:
 552 0070 50B9     		cbnz	r0, .L54
 553              		.loc 2 81 0 is_stmt 0 discriminator 1
 554 0072 154B     		ldr	r3, .L67+4
 555 0074 0093     		str	r3, [sp]
 556 0076 1548     		ldr	r0, .L67+8
 557 0078 1549     		ldr	r1, .L67+12
 558 007a 184A     		ldr	r2, .L67+24
 559 007c 5123     		movs	r3, #81
 560 007e FFF7FEFF 		bl	chprintf.constprop.2
 561              	.LVL54:
 562              	.LBB81:
 563              	.LBB82:
 564              		.loc 3 414 0 is_stmt 1 discriminator 1
 565 0082 1648     		ldr	r0, .L67+24
 566 0084 FFF7FEFF 		bl	chSysHalt
ARM GAS  C:\Users\jo\AppData\Local\Temp\ccKPILIK.s 			page 11


 567              	.LVL55:
 568              	.L54:
 569              	.LBE82:
 570              	.LBE81:
 571              		.loc 2 83 0
 572 0088 04F11400 		add	r0, r4, #20
 573 008c FFF7FEFF 		bl	sys_mbox_valid
 574              	.LVL56:
 575 0090 50B1     		cbz	r0, .L55
 576              		.loc 2 83 0 is_stmt 0 discriminator 1
 577 0092 0D4B     		ldr	r3, .L67+4
 578 0094 0093     		str	r3, [sp]
 579 0096 0D48     		ldr	r0, .L67+8
 580 0098 0D49     		ldr	r1, .L67+12
 581 009a 114A     		ldr	r2, .L67+28
 582 009c 5323     		movs	r3, #83
 583 009e FFF7FEFF 		bl	chprintf.constprop.2
 584              	.LVL57:
 585              	.LBB83:
 586              	.LBB84:
 587              		.loc 3 414 0 is_stmt 1 discriminator 1
 588 00a2 0F48     		ldr	r0, .L67+28
 589 00a4 FFF7FEFF 		bl	chSysHalt
 590              	.LVL58:
 591              	.L55:
 592              	.LBE84:
 593              	.LBE83:
 594              		.loc 2 85 0
 595 00a8 3046     		mov	r0, r6
 596 00aa FFF7FEFF 		bl	sys_sem_free
 597              	.LVL59:
 598              		.loc 2 86 0
 599 00ae 2846     		mov	r0, r5
 600 00b0 FFF7FEFF 		bl	sys_mbox_free
 601              	.LVL60:
 602              		.loc 2 87 0
 603 00b4 2146     		mov	r1, r4
 604 00b6 0820     		movs	r0, #8
 605 00b8 FFF7FEFF 		bl	memp_free
 606              	.LVL61:
 607              	.L65:
 608              		.loc 2 88 0
 609 00bc 0020     		movs	r0, #0
 610              		.loc 2 92 0
 611 00be 08B0     		add	sp, sp, #32
 612              		.cfi_def_cfa_offset 16
 613              		@ sp needed
 614 00c0 70BD     		pop	{r4, r5, r6, pc}
 615              	.LVL62:
 616              	.L68:
 617 00c2 00BF     		.align	2
 618              	.L67:
 619 00c4 00000000 		.word	do_newconn
 620 00c8 48000000 		.word	.LC2
 621 00cc 00000000 		.word	itm_port
 622 00d0 00000000 		.word	.LC0
 623 00d4 E0000000 		.word	.LC7
ARM GAS  C:\Users\jo\AppData\Local\Temp\ccKPILIK.s 			page 12


 624 00d8 04010000 		.word	.LC8
 625 00dc 20010000 		.word	.LC9
 626 00e0 38010000 		.word	.LC10
 627              		.cfi_endproc
 628              	.LFE256:
 629              		.size	netconn_new_with_proto_and_callback, .-netconn_new_with_proto_and_callback
 630 00e4 AFF30080 		.section	.text.netconn_delete,"ax",%progbits
 630      AFF30080 
 630      AFF30080 
 631              		.align	2
 632              		.p2align 4,,15
 633              		.global	netconn_delete
 634              		.thumb
 635              		.thumb_func
 636              		.type	netconn_delete, %function
 637              	netconn_delete:
 638              	.LFB257:
 639              		.loc 2 104 0
 640              		.cfi_startproc
 641              		@ args = 0, pretend = 0, frame = 24
 642              		@ frame_needed = 0, uses_anonymous_args = 0
 643              	.LVL63:
 644              		.loc 2 108 0
 645 0000 70B1     		cbz	r0, .L75
 646              		.loc 2 104 0
 647 0002 10B5     		push	{r4, lr}
 648              		.cfi_def_cfa_offset 8
 649              		.cfi_offset 4, -8
 650              		.cfi_offset 14, -4
 651 0004 86B0     		sub	sp, sp, #24
 652              		.cfi_def_cfa_offset 32
 653              		.loc 2 112 0
 654 0006 074B     		ldr	r3, .L76
 655              		.loc 2 113 0
 656 0008 0190     		str	r0, [sp, #4]
 657 000a 0446     		mov	r4, r0
 658              		.loc 2 114 0
 659 000c 6846     		mov	r0, sp
 660              	.LVL64:
 661              		.loc 2 112 0
 662 000e 0093     		str	r3, [sp]
 663              		.loc 2 114 0
 664 0010 FFF7FEFF 		bl	tcpip_apimsg
 665              	.LVL65:
 666              		.loc 2 116 0
 667 0014 2046     		mov	r0, r4
 668 0016 FFF7FEFF 		bl	netconn_free
 669              	.LVL66:
 670              		.loc 2 121 0
 671 001a 0020     		movs	r0, #0
 672 001c 06B0     		add	sp, sp, #24
 673              		.cfi_def_cfa_offset 8
 674              		@ sp needed
 675 001e 10BD     		pop	{r4, pc}
 676              	.LVL67:
 677              	.L75:
 678              		.cfi_def_cfa_offset 0
ARM GAS  C:\Users\jo\AppData\Local\Temp\ccKPILIK.s 			page 13


 679              		.cfi_restore 4
 680              		.cfi_restore 14
 681 0020 0020     		movs	r0, #0
 682              	.LVL68:
 683 0022 7047     		bx	lr
 684              	.L77:
 685              		.align	2
 686              	.L76:
 687 0024 00000000 		.word	do_delconn
 688              		.cfi_endproc
 689              	.LFE257:
 690              		.size	netconn_delete, .-netconn_delete
 691 0028 AFF30080 		.section	.text.netconn_getaddr,"ax",%progbits
 691      AFF30080 
 692              		.align	2
 693              		.p2align 4,,15
 694              		.global	netconn_getaddr
 695              		.thumb
 696              		.thumb_func
 697              		.type	netconn_getaddr, %function
 698              	netconn_getaddr:
 699              	.LFB258:
 700              		.loc 2 136 0
 701              		.cfi_startproc
 702              		@ args = 0, pretend = 0, frame = 24
 703              		@ frame_needed = 0, uses_anonymous_args = 0
 704              	.LVL69:
 705 0000 30B5     		push	{r4, r5, lr}
 706              		.cfi_def_cfa_offset 12
 707              		.cfi_offset 4, -12
 708              		.cfi_offset 5, -8
 709              		.cfi_offset 14, -4
 710              		.loc 2 140 0
 711 0002 0446     		mov	r4, r0
 712              		.loc 2 136 0
 713 0004 89B0     		sub	sp, sp, #36
 714              		.cfi_def_cfa_offset 48
 715              		.loc 2 140 0
 716 0006 0028     		cmp	r0, #0
 717 0008 2DD0     		beq	.L85
 718              		.loc 2 141 0
 719 000a F9B1     		cbz	r1, .L86
 720              		.loc 2 142 0
 721 000c 8AB1     		cbz	r2, .L87
 722              		.loc 2 145 0
 723 000e 0390     		str	r0, [sp, #12]
 724              		.loc 2 144 0
 725 0010 1B4D     		ldr	r5, .L88
 726              		.loc 2 148 0
 727 0012 8DF81C30 		strb	r3, [sp, #28]
 728              		.loc 2 149 0
 729 0016 02A8     		add	r0, sp, #8
 730              	.LVL70:
 731              		.loc 2 146 0
 732 0018 0591     		str	r1, [sp, #20]
 733              		.loc 2 147 0
 734 001a 0692     		str	r2, [sp, #24]
ARM GAS  C:\Users\jo\AppData\Local\Temp\ccKPILIK.s 			page 14


 735              		.loc 2 144 0
 736 001c 0295     		str	r5, [sp, #8]
 737              		.loc 2 149 0
 738 001e FFF7FEFF 		bl	tcpip_apimsg
 739              	.LVL71:
 740              		.loc 2 151 0
 741 0022 94F90830 		ldrsb	r3, [r4, #8]
 742 0026 0933     		adds	r3, r3, #9
 743 0028 A8BF     		it	ge
 744 002a 2072     		strbge	r0, [r4, #8]
 745              	.LVL72:
 746              	.L80:
 747              		.loc 2 153 0
 748 002c 40B2     		sxtb	r0, r0
 749 002e 09B0     		add	sp, sp, #36
 750              		.cfi_remember_state
 751              		.cfi_def_cfa_offset 12
 752              		@ sp needed
 753 0030 30BD     		pop	{r4, r5, pc}
 754              	.LVL73:
 755              	.L87:
 756              		.cfi_restore_state
 757              		.loc 2 142 0 discriminator 1
 758 0032 144B     		ldr	r3, .L88+4
 759              	.LVL74:
 760 0034 0093     		str	r3, [sp]
 761 0036 1449     		ldr	r1, .L88+8
 762              	.LVL75:
 763 0038 144A     		ldr	r2, .L88+12
 764              	.LVL76:
 765 003a 1548     		ldr	r0, .L88+16
 766              	.LVL77:
 767 003c 8E23     		movs	r3, #142
 768 003e FFF7FEFF 		bl	chprintf.constprop.2
 769              	.LVL78:
 770              	.LBB85:
 771              	.LBB86:
 772              		.loc 3 414 0 discriminator 1
 773 0042 1248     		ldr	r0, .L88+12
 774 0044 FFF7FEFF 		bl	chSysHalt
 775              	.LVL79:
 776              	.LBE86:
 777              	.LBE85:
 778              		.loc 2 142 0 discriminator 1
 779 0048 F220     		movs	r0, #242
 780 004a EFE7     		b	.L80
 781              	.LVL80:
 782              	.L86:
 783              		.loc 2 141 0 discriminator 1
 784 004c 0D4B     		ldr	r3, .L88+4
 785              	.LVL81:
 786 004e 0093     		str	r3, [sp]
 787 0050 0D49     		ldr	r1, .L88+8
 788              	.LVL82:
 789 0052 104A     		ldr	r2, .L88+20
 790              	.LVL83:
 791 0054 0E48     		ldr	r0, .L88+16
ARM GAS  C:\Users\jo\AppData\Local\Temp\ccKPILIK.s 			page 15


 792              	.LVL84:
 793 0056 8D23     		movs	r3, #141
 794 0058 FFF7FEFF 		bl	chprintf.constprop.2
 795              	.LVL85:
 796              	.LBB87:
 797              	.LBB88:
 798              		.loc 3 414 0 discriminator 1
 799 005c 0D48     		ldr	r0, .L88+20
 800 005e FFF7FEFF 		bl	chSysHalt
 801              	.LVL86:
 802              	.LBE88:
 803              	.LBE87:
 804              		.loc 2 141 0 discriminator 1
 805 0062 F220     		movs	r0, #242
 806 0064 E2E7     		b	.L80
 807              	.LVL87:
 808              	.L85:
 809              		.loc 2 140 0 discriminator 1
 810 0066 074B     		ldr	r3, .L88+4
 811              	.LVL88:
 812 0068 0093     		str	r3, [sp]
 813 006a 0749     		ldr	r1, .L88+8
 814              	.LVL89:
 815 006c 0A4A     		ldr	r2, .L88+24
 816              	.LVL90:
 817 006e 0848     		ldr	r0, .L88+16
 818              	.LVL91:
 819 0070 8C23     		movs	r3, #140
 820 0072 FFF7FEFF 		bl	chprintf.constprop.2
 821              	.LVL92:
 822              	.LBB89:
 823              	.LBB90:
 824              		.loc 3 414 0 discriminator 1
 825 0076 0848     		ldr	r0, .L88+24
 826 0078 FFF7FEFF 		bl	chSysHalt
 827              	.LVL93:
 828              	.LBE90:
 829              	.LBE89:
 830              		.loc 2 140 0 discriminator 1
 831 007c F220     		movs	r0, #242
 832 007e D5E7     		b	.L80
 833              	.L89:
 834              		.align	2
 835              	.L88:
 836 0080 00000000 		.word	do_getaddr
 837 0084 48000000 		.word	.LC2
 838 0088 00000000 		.word	.LC0
 839 008c 9C010000 		.word	.LC13
 840 0090 00000000 		.word	itm_port
 841 0094 7C010000 		.word	.LC12
 842 0098 5C010000 		.word	.LC11
 843              		.cfi_endproc
 844              	.LFE258:
 845              		.size	netconn_getaddr, .-netconn_getaddr
 846 009c AFF30080 		.section	.text.netconn_bind,"ax",%progbits
 847              		.align	2
 848              		.p2align 4,,15
ARM GAS  C:\Users\jo\AppData\Local\Temp\ccKPILIK.s 			page 16


 849              		.global	netconn_bind
 850              		.thumb
 851              		.thumb_func
 852              		.type	netconn_bind, %function
 853              	netconn_bind:
 854              	.LFB259:
 855              		.loc 2 167 0
 856              		.cfi_startproc
 857              		@ args = 0, pretend = 0, frame = 24
 858              		@ frame_needed = 0, uses_anonymous_args = 0
 859              	.LVL94:
 860 0000 10B5     		push	{r4, lr}
 861              		.cfi_def_cfa_offset 8
 862              		.cfi_offset 4, -8
 863              		.cfi_offset 14, -4
 864              		.loc 2 171 0
 865 0002 0446     		mov	r4, r0
 866              		.loc 2 167 0
 867 0004 88B0     		sub	sp, sp, #32
 868              		.cfi_def_cfa_offset 40
 869              		.loc 2 171 0
 870 0006 80B1     		cbz	r0, .L95
 871              		.loc 2 173 0
 872 0008 0E4B     		ldr	r3, .L96
 873              		.loc 2 174 0
 874 000a 0390     		str	r0, [sp, #12]
 875              		.loc 2 177 0
 876 000c 02A8     		add	r0, sp, #8
 877              	.LVL95:
 878              		.loc 2 173 0
 879 000e 0293     		str	r3, [sp, #8]
 880              		.loc 2 175 0
 881 0010 0591     		str	r1, [sp, #20]
 882              		.loc 2 176 0
 883 0012 ADF81820 		strh	r2, [sp, #24]	@ movhi
 884              		.loc 2 177 0
 885 0016 FFF7FEFF 		bl	tcpip_apimsg
 886              	.LVL96:
 887              		.loc 2 179 0
 888 001a 94F90830 		ldrsb	r3, [r4, #8]
 889 001e 0933     		adds	r3, r3, #9
 890 0020 A8BF     		it	ge
 891 0022 2072     		strbge	r0, [r4, #8]
 892              	.LVL97:
 893              	.L92:
 894              		.loc 2 181 0
 895 0024 40B2     		sxtb	r0, r0
 896 0026 08B0     		add	sp, sp, #32
 897              		.cfi_remember_state
 898              		.cfi_def_cfa_offset 8
 899              		@ sp needed
 900 0028 10BD     		pop	{r4, pc}
 901              	.LVL98:
 902              	.L95:
 903              		.cfi_restore_state
 904              		.loc 2 171 0 discriminator 1
 905 002a 074B     		ldr	r3, .L96+4
ARM GAS  C:\Users\jo\AppData\Local\Temp\ccKPILIK.s 			page 17


 906 002c 0093     		str	r3, [sp]
 907 002e 0749     		ldr	r1, .L96+8
 908              	.LVL99:
 909 0030 074A     		ldr	r2, .L96+12
 910              	.LVL100:
 911 0032 0848     		ldr	r0, .L96+16
 912              	.LVL101:
 913 0034 AB23     		movs	r3, #171
 914 0036 FFF7FEFF 		bl	chprintf.constprop.2
 915              	.LVL102:
 916              	.LBB91:
 917              	.LBB92:
 918              		.loc 3 414 0 discriminator 1
 919 003a 0548     		ldr	r0, .L96+12
 920 003c FFF7FEFF 		bl	chSysHalt
 921              	.LVL103:
 922              	.LBE92:
 923              	.LBE91:
 924              		.loc 2 171 0 discriminator 1
 925 0040 F220     		movs	r0, #242
 926 0042 EFE7     		b	.L92
 927              	.L97:
 928              		.align	2
 929              	.L96:
 930 0044 00000000 		.word	do_bind
 931 0048 48000000 		.word	.LC2
 932 004c 00000000 		.word	.LC0
 933 0050 BC010000 		.word	.LC14
 934 0054 00000000 		.word	itm_port
 935              		.cfi_endproc
 936              	.LFE259:
 937              		.size	netconn_bind, .-netconn_bind
 938 0058 AFF30080 		.section	.text.netconn_connect,"ax",%progbits
 938      AFF30080 
 939              		.align	2
 940              		.p2align 4,,15
 941              		.global	netconn_connect
 942              		.thumb
 943              		.thumb_func
 944              		.type	netconn_connect, %function
 945              	netconn_connect:
 946              	.LFB260:
 947              		.loc 2 193 0
 948              		.cfi_startproc
 949              		@ args = 0, pretend = 0, frame = 24
 950              		@ frame_needed = 0, uses_anonymous_args = 0
 951              	.LVL104:
 952 0000 10B5     		push	{r4, lr}
 953              		.cfi_def_cfa_offset 8
 954              		.cfi_offset 4, -8
 955              		.cfi_offset 14, -4
 956              		.loc 2 197 0
 957 0002 0446     		mov	r4, r0
 958              		.loc 2 193 0
 959 0004 88B0     		sub	sp, sp, #32
 960              		.cfi_def_cfa_offset 40
 961              		.loc 2 197 0
ARM GAS  C:\Users\jo\AppData\Local\Temp\ccKPILIK.s 			page 18


 962 0006 80B1     		cbz	r0, .L103
 963              		.loc 2 199 0
 964 0008 0E4B     		ldr	r3, .L104
 965              		.loc 2 200 0
 966 000a 0390     		str	r0, [sp, #12]
 967              		.loc 2 204 0
 968 000c 02A8     		add	r0, sp, #8
 969              	.LVL105:
 970              		.loc 2 199 0
 971 000e 0293     		str	r3, [sp, #8]
 972              		.loc 2 201 0
 973 0010 0591     		str	r1, [sp, #20]
 974              		.loc 2 202 0
 975 0012 ADF81820 		strh	r2, [sp, #24]	@ movhi
 976              		.loc 2 204 0
 977 0016 FFF7FEFF 		bl	tcpip_apimsg
 978              	.LVL106:
 979              		.loc 2 206 0
 980 001a 94F90830 		ldrsb	r3, [r4, #8]
 981 001e 0933     		adds	r3, r3, #9
 982 0020 A8BF     		it	ge
 983 0022 2072     		strbge	r0, [r4, #8]
 984              	.LVL107:
 985              	.L100:
 986              		.loc 2 208 0
 987 0024 40B2     		sxtb	r0, r0
 988 0026 08B0     		add	sp, sp, #32
 989              		.cfi_remember_state
 990              		.cfi_def_cfa_offset 8
 991              		@ sp needed
 992 0028 10BD     		pop	{r4, pc}
 993              	.LVL108:
 994              	.L103:
 995              		.cfi_restore_state
 996              		.loc 2 197 0 discriminator 1
 997 002a 074B     		ldr	r3, .L104+4
 998 002c 0093     		str	r3, [sp]
 999 002e 0749     		ldr	r1, .L104+8
 1000              	.LVL109:
 1001 0030 074A     		ldr	r2, .L104+12
 1002              	.LVL110:
 1003 0032 0848     		ldr	r0, .L104+16
 1004              	.LVL111:
 1005 0034 C523     		movs	r3, #197
 1006 0036 FFF7FEFF 		bl	chprintf.constprop.2
 1007              	.LVL112:
 1008              	.LBB93:
 1009              	.LBB94:
 1010              		.loc 3 414 0 discriminator 1
 1011 003a 0548     		ldr	r0, .L104+12
 1012 003c FFF7FEFF 		bl	chSysHalt
 1013              	.LVL113:
 1014              	.LBE94:
 1015              	.LBE93:
 1016              		.loc 2 197 0 discriminator 1
 1017 0040 F220     		movs	r0, #242
 1018 0042 EFE7     		b	.L100
ARM GAS  C:\Users\jo\AppData\Local\Temp\ccKPILIK.s 			page 19


 1019              	.L105:
 1020              		.align	2
 1021              	.L104:
 1022 0044 00000000 		.word	do_connect
 1023 0048 48000000 		.word	.LC2
 1024 004c 00000000 		.word	.LC0
 1025 0050 D8010000 		.word	.LC15
 1026 0054 00000000 		.word	itm_port
 1027              		.cfi_endproc
 1028              	.LFE260:
 1029              		.size	netconn_connect, .-netconn_connect
 1030 0058 AFF30080 		.section	.text.netconn_disconnect,"ax",%progbits
 1030      AFF30080 
 1031              		.align	2
 1032              		.p2align 4,,15
 1033              		.global	netconn_disconnect
 1034              		.thumb
 1035              		.thumb_func
 1036              		.type	netconn_disconnect, %function
 1037              	netconn_disconnect:
 1038              	.LFB261:
 1039              		.loc 2 218 0
 1040              		.cfi_startproc
 1041              		@ args = 0, pretend = 0, frame = 24
 1042              		@ frame_needed = 0, uses_anonymous_args = 0
 1043              	.LVL114:
 1044 0000 10B5     		push	{r4, lr}
 1045              		.cfi_def_cfa_offset 8
 1046              		.cfi_offset 4, -8
 1047              		.cfi_offset 14, -4
 1048              		.loc 2 222 0
 1049 0002 0446     		mov	r4, r0
 1050              		.loc 2 218 0
 1051 0004 88B0     		sub	sp, sp, #32
 1052              		.cfi_def_cfa_offset 40
 1053              		.loc 2 222 0
 1054 0006 68B1     		cbz	r0, .L111
 1055              		.loc 2 224 0
 1056 0008 0D4B     		ldr	r3, .L112
 1057              		.loc 2 225 0
 1058 000a 0390     		str	r0, [sp, #12]
 1059              		.loc 2 226 0
 1060 000c 02A8     		add	r0, sp, #8
 1061              	.LVL115:
 1062              		.loc 2 224 0
 1063 000e 0293     		str	r3, [sp, #8]
 1064              		.loc 2 226 0
 1065 0010 FFF7FEFF 		bl	tcpip_apimsg
 1066              	.LVL116:
 1067              		.loc 2 228 0
 1068 0014 94F90830 		ldrsb	r3, [r4, #8]
 1069 0018 0933     		adds	r3, r3, #9
 1070 001a A8BF     		it	ge
 1071 001c 2072     		strbge	r0, [r4, #8]
 1072              	.LVL117:
 1073              	.L108:
 1074              		.loc 2 230 0
ARM GAS  C:\Users\jo\AppData\Local\Temp\ccKPILIK.s 			page 20


 1075 001e 40B2     		sxtb	r0, r0
 1076 0020 08B0     		add	sp, sp, #32
 1077              		.cfi_remember_state
 1078              		.cfi_def_cfa_offset 8
 1079              		@ sp needed
 1080 0022 10BD     		pop	{r4, pc}
 1081              	.LVL118:
 1082              	.L111:
 1083              		.cfi_restore_state
 1084              		.loc 2 222 0 discriminator 1
 1085 0024 074B     		ldr	r3, .L112+4
 1086 0026 0093     		str	r3, [sp]
 1087 0028 0749     		ldr	r1, .L112+8
 1088 002a 084A     		ldr	r2, .L112+12
 1089 002c 0848     		ldr	r0, .L112+16
 1090              	.LVL119:
 1091 002e DE23     		movs	r3, #222
 1092 0030 FFF7FEFF 		bl	chprintf.constprop.2
 1093              	.LVL120:
 1094              	.LBB95:
 1095              	.LBB96:
 1096              		.loc 3 414 0 discriminator 1
 1097 0034 0548     		ldr	r0, .L112+12
 1098 0036 FFF7FEFF 		bl	chSysHalt
 1099              	.LVL121:
 1100              	.LBE96:
 1101              	.LBE95:
 1102              		.loc 2 222 0 discriminator 1
 1103 003a F220     		movs	r0, #242
 1104 003c EFE7     		b	.L108
 1105              	.L113:
 1106 003e 00BF     		.align	2
 1107              	.L112:
 1108 0040 00000000 		.word	do_disconnect
 1109 0044 48000000 		.word	.LC2
 1110 0048 00000000 		.word	.LC0
 1111 004c F8010000 		.word	.LC16
 1112 0050 00000000 		.word	itm_port
 1113              		.cfi_endproc
 1114              	.LFE261:
 1115              		.size	netconn_disconnect, .-netconn_disconnect
 1116 0054 AFF30080 		.section	.text.netconn_listen_with_backlog,"ax",%progbits
 1116      AFF30080 
 1116      AFF30080 
 1117              		.align	2
 1118              		.p2align 4,,15
 1119              		.global	netconn_listen_with_backlog
 1120              		.thumb
 1121              		.thumb_func
 1122              		.type	netconn_listen_with_backlog, %function
 1123              	netconn_listen_with_backlog:
 1124              	.LFB262:
 1125              		.loc 2 242 0
 1126              		.cfi_startproc
 1127              		@ args = 0, pretend = 0, frame = 24
 1128              		@ frame_needed = 0, uses_anonymous_args = 0
 1129              	.LVL122:
ARM GAS  C:\Users\jo\AppData\Local\Temp\ccKPILIK.s 			page 21


 1130 0000 10B5     		push	{r4, lr}
 1131              		.cfi_def_cfa_offset 8
 1132              		.cfi_offset 4, -8
 1133              		.cfi_offset 14, -4
 1134              		.loc 2 250 0
 1135 0002 0446     		mov	r4, r0
 1136              		.loc 2 242 0
 1137 0004 88B0     		sub	sp, sp, #32
 1138              		.cfi_def_cfa_offset 40
 1139              		.loc 2 250 0
 1140 0006 68B1     		cbz	r0, .L119
 1141              		.loc 2 252 0
 1142 0008 0D4B     		ldr	r3, .L120
 1143              		.loc 2 253 0
 1144 000a 0390     		str	r0, [sp, #12]
 1145              		.loc 2 257 0
 1146 000c 02A8     		add	r0, sp, #8
 1147              	.LVL123:
 1148              		.loc 2 252 0
 1149 000e 0293     		str	r3, [sp, #8]
 1150              		.loc 2 257 0
 1151 0010 FFF7FEFF 		bl	tcpip_apimsg
 1152              	.LVL124:
 1153              		.loc 2 259 0
 1154 0014 94F90830 		ldrsb	r3, [r4, #8]
 1155 0018 0933     		adds	r3, r3, #9
 1156 001a A8BF     		it	ge
 1157 001c 2072     		strbge	r0, [r4, #8]
 1158              	.LVL125:
 1159              	.L116:
 1160              		.loc 2 266 0
 1161 001e 40B2     		sxtb	r0, r0
 1162 0020 08B0     		add	sp, sp, #32
 1163              		.cfi_remember_state
 1164              		.cfi_def_cfa_offset 8
 1165              		@ sp needed
 1166 0022 10BD     		pop	{r4, pc}
 1167              	.LVL126:
 1168              	.L119:
 1169              		.cfi_restore_state
 1170              		.loc 2 250 0 discriminator 1
 1171 0024 074B     		ldr	r3, .L120+4
 1172 0026 0093     		str	r3, [sp]
 1173 0028 0749     		ldr	r1, .L120+8
 1174              	.LVL127:
 1175 002a 084A     		ldr	r2, .L120+12
 1176 002c 0848     		ldr	r0, .L120+16
 1177              	.LVL128:
 1178 002e FA23     		movs	r3, #250
 1179 0030 FFF7FEFF 		bl	chprintf.constprop.2
 1180              	.LVL129:
 1181              	.LBB97:
 1182              	.LBB98:
 1183              		.loc 3 414 0 discriminator 1
 1184 0034 0548     		ldr	r0, .L120+12
 1185 0036 FFF7FEFF 		bl	chSysHalt
 1186              	.LVL130:
ARM GAS  C:\Users\jo\AppData\Local\Temp\ccKPILIK.s 			page 22


 1187              	.LBE98:
 1188              	.LBE97:
 1189              		.loc 2 250 0 discriminator 1
 1190 003a F220     		movs	r0, #242
 1191 003c EFE7     		b	.L116
 1192              	.L121:
 1193 003e 00BF     		.align	2
 1194              	.L120:
 1195 0040 00000000 		.word	do_listen
 1196 0044 48000000 		.word	.LC2
 1197 0048 00000000 		.word	.LC0
 1198 004c 1C020000 		.word	.LC17
 1199 0050 00000000 		.word	itm_port
 1200              		.cfi_endproc
 1201              	.LFE262:
 1202              		.size	netconn_listen_with_backlog, .-netconn_listen_with_backlog
 1203 0054 AFF30080 		.section	.text.netconn_accept,"ax",%progbits
 1203      AFF30080 
 1203      AFF30080 
 1204              		.align	2
 1205              		.p2align 4,,15
 1206              		.global	netconn_accept
 1207              		.thumb
 1208              		.thumb_func
 1209              		.type	netconn_accept, %function
 1210              	netconn_accept:
 1211              	.LFB263:
 1212              		.loc 2 278 0
 1213              		.cfi_startproc
 1214              		@ args = 0, pretend = 0, frame = 8
 1215              		@ frame_needed = 0, uses_anonymous_args = 0
 1216              	.LVL131:
 1217 0000 F0B5     		push	{r4, r5, r6, r7, lr}
 1218              		.cfi_def_cfa_offset 20
 1219              		.cfi_offset 4, -20
 1220              		.cfi_offset 5, -16
 1221              		.cfi_offset 6, -12
 1222              		.cfi_offset 7, -8
 1223              		.cfi_offset 14, -4
 1224              		.loc 2 286 0
 1225 0002 0D46     		mov	r5, r1
 1226              		.loc 2 278 0
 1227 0004 85B0     		sub	sp, sp, #20
 1228              		.cfi_def_cfa_offset 40
 1229              		.loc 2 286 0
 1230 0006 0029     		cmp	r1, #0
 1231 0008 47D0     		beq	.L135
 1232              		.loc 2 287 0
 1233 000a 0026     		movs	r6, #0
 1234 000c 0446     		mov	r4, r0
 1235 000e 0E60     		str	r6, [r1]
 1236              		.loc 2 288 0
 1237 0010 0028     		cmp	r0, #0
 1238 0012 34D0     		beq	.L136
 1239              		.loc 2 289 0
 1240 0014 00F11407 		add	r7, r0, #20
 1241 0018 3846     		mov	r0, r7
ARM GAS  C:\Users\jo\AppData\Local\Temp\ccKPILIK.s 			page 23


 1242              	.LVL132:
 1243 001a FFF7FEFF 		bl	sys_mbox_valid
 1244              	.LVL133:
 1245 001e 00B3     		cbz	r0, .L137
 1246              		.loc 2 291 0
 1247 0020 207A     		ldrb	r0, [r4, #8]	@ zero_extendqisi2
 1248              	.LVL134:
 1249              		.loc 2 292 0
 1250 0022 43B2     		sxtb	r3, r0
 1251 0024 0933     		adds	r3, r3, #9
 1252 0026 02DA     		bge	.L138
 1253              	.LVL135:
 1254              	.L124:
 1255              		.loc 2 330 0
 1256 0028 40B2     		sxtb	r0, r0
 1257 002a 05B0     		add	sp, sp, #20
 1258              		.cfi_remember_state
 1259              		.cfi_def_cfa_offset 20
 1260              		@ sp needed
 1261 002c F0BD     		pop	{r4, r5, r6, r7, pc}
 1262              	.LVL136:
 1263              	.L138:
 1264              		.cfi_restore_state
 1265              		.loc 2 304 0
 1266 002e 3846     		mov	r0, r7
 1267              	.LVL137:
 1268 0030 03A9     		add	r1, sp, #12
 1269 0032 3246     		mov	r2, r6
 1270 0034 FFF7FEFF 		bl	sys_arch_mbox_fetch
 1271              	.LVL138:
 1272              		.loc 2 307 0
 1273 0038 A36A     		ldr	r3, [r4, #40]
 1274 003a 1BB1     		cbz	r3, .L127
 1275              		.loc 2 307 0 is_stmt 0 discriminator 1
 1276 003c 3246     		mov	r2, r6
 1277 003e 2046     		mov	r0, r4
 1278 0040 0121     		movs	r1, #1
 1279 0042 9847     		blx	r3
 1280              	.LVL139:
 1281              	.L127:
 1282              		.loc 2 309 0 is_stmt 1
 1283 0044 039B     		ldr	r3, [sp, #12]
 1284 0046 23B1     		cbz	r3, .L139
 1285              		.loc 2 324 0
 1286 0048 0020     		movs	r0, #0
 1287              		.loc 2 330 0
 1288 004a 40B2     		sxtb	r0, r0
 1289              		.loc 2 322 0
 1290 004c 2B60     		str	r3, [r5]
 1291              		.loc 2 330 0
 1292 004e 05B0     		add	sp, sp, #20
 1293              		.cfi_remember_state
 1294              		.cfi_def_cfa_offset 20
 1295              		@ sp needed
 1296 0050 F0BD     		pop	{r4, r5, r6, r7, pc}
 1297              	.LVL140:
 1298              	.L139:
ARM GAS  C:\Users\jo\AppData\Local\Temp\ccKPILIK.s 			page 24


 1299              		.cfi_restore_state
 1300              		.loc 2 311 0
 1301 0052 94F90830 		ldrsb	r3, [r4, #8]
 1302 0056 0933     		adds	r3, r3, #9
 1303 0058 4FF0F600 		mov	r0, #246
 1304 005c E4DB     		blt	.L124
 1305              		.loc 2 311 0 is_stmt 0 discriminator 1
 1306 005e 2072     		strb	r0, [r4, #8]
 1307 0060 E2E7     		b	.L124
 1308              	.L137:
 1309              		.loc 2 289 0 is_stmt 1 discriminator 1
 1310 0062 154B     		ldr	r3, .L140
 1311 0064 0093     		str	r3, [sp]
 1312 0066 1549     		ldr	r1, .L140+4
 1313 0068 154A     		ldr	r2, .L140+8
 1314 006a 1648     		ldr	r0, .L140+12
 1315 006c 40F22113 		movw	r3, #289
 1316 0070 FFF7FEFF 		bl	chprintf.constprop.2
 1317              	.LVL141:
 1318              	.LBB99:
 1319              	.LBB100:
 1320              		.loc 3 414 0 discriminator 1
 1321 0074 1248     		ldr	r0, .L140+8
 1322 0076 FFF7FEFF 		bl	chSysHalt
 1323              	.LVL142:
 1324              	.LBE100:
 1325              	.LBE99:
 1326              		.loc 2 289 0 discriminator 1
 1327 007a F220     		movs	r0, #242
 1328 007c D4E7     		b	.L124
 1329              	.LVL143:
 1330              	.L136:
 1331              		.loc 2 288 0 discriminator 1
 1332 007e 0E4B     		ldr	r3, .L140
 1333 0080 0093     		str	r3, [sp]
 1334 0082 0E49     		ldr	r1, .L140+4
 1335              	.LVL144:
 1336 0084 104A     		ldr	r2, .L140+16
 1337 0086 0F48     		ldr	r0, .L140+12
 1338              	.LVL145:
 1339 0088 4FF49073 		mov	r3, #288
 1340 008c FFF7FEFF 		bl	chprintf.constprop.2
 1341              	.LVL146:
 1342              	.LBB101:
 1343              	.LBB102:
 1344              		.loc 3 414 0 discriminator 1
 1345 0090 0D48     		ldr	r0, .L140+16
 1346 0092 FFF7FEFF 		bl	chSysHalt
 1347              	.LVL147:
 1348              	.LBE102:
 1349              	.LBE101:
 1350              		.loc 2 288 0 discriminator 1
 1351 0096 F220     		movs	r0, #242
 1352 0098 C6E7     		b	.L124
 1353              	.LVL148:
 1354              	.L135:
 1355              		.loc 2 286 0 discriminator 1
ARM GAS  C:\Users\jo\AppData\Local\Temp\ccKPILIK.s 			page 25


 1356 009a 074B     		ldr	r3, .L140
 1357 009c 0093     		str	r3, [sp]
 1358 009e 0749     		ldr	r1, .L140+4
 1359              	.LVL149:
 1360 00a0 0A4A     		ldr	r2, .L140+20
 1361 00a2 0848     		ldr	r0, .L140+12
 1362              	.LVL150:
 1363 00a4 4FF48F73 		mov	r3, #286
 1364 00a8 FFF7FEFF 		bl	chprintf.constprop.2
 1365              	.LVL151:
 1366              	.LBB103:
 1367              	.LBB104:
 1368              		.loc 3 414 0 discriminator 1
 1369 00ac 0748     		ldr	r0, .L140+20
 1370 00ae FFF7FEFF 		bl	chSysHalt
 1371              	.LVL152:
 1372              	.LBE104:
 1373              	.LBE103:
 1374              		.loc 2 286 0 discriminator 1
 1375 00b2 F220     		movs	r0, #242
 1376 00b4 B8E7     		b	.L124
 1377              	.L141:
 1378 00b6 00BF     		.align	2
 1379              	.L140:
 1380 00b8 48000000 		.word	.LC2
 1381 00bc 00000000 		.word	.LC0
 1382 00c0 7C020000 		.word	.LC20
 1383 00c4 00000000 		.word	itm_port
 1384 00c8 5C020000 		.word	.LC19
 1385 00cc 3C020000 		.word	.LC18
 1386              		.cfi_endproc
 1387              	.LFE263:
 1388              		.size	netconn_accept, .-netconn_accept
 1389              		.section	.text.netconn_recv_tcp_pbuf,"ax",%progbits
 1390              		.align	2
 1391              		.p2align 4,,15
 1392              		.global	netconn_recv_tcp_pbuf
 1393              		.thumb
 1394              		.thumb_func
 1395              		.type	netconn_recv_tcp_pbuf, %function
 1396              	netconn_recv_tcp_pbuf:
 1397              	.LFB265:
 1398              		.loc 2 438 0
 1399              		.cfi_startproc
 1400              		@ args = 0, pretend = 0, frame = 0
 1401              		@ frame_needed = 0, uses_anonymous_args = 0
 1402              	.LVL153:
 1403 0000 00B5     		push	{lr}
 1404              		.cfi_def_cfa_offset 4
 1405              		.cfi_offset 14, -4
 1406 0002 83B0     		sub	sp, sp, #12
 1407              		.cfi_def_cfa_offset 16
 1408              		.loc 2 439 0
 1409 0004 38B1     		cbz	r0, .L143
 1410              		.loc 2 439 0 is_stmt 0 discriminator 2
 1411 0006 0378     		ldrb	r3, [r0]	@ zero_extendqisi2
 1412 0008 102B     		cmp	r3, #16
ARM GAS  C:\Users\jo\AppData\Local\Temp\ccKPILIK.s 			page 26


 1413 000a 04D1     		bne	.L143
 1414              		.loc 2 443 0 is_stmt 1
 1415 000c 03B0     		add	sp, sp, #12
 1416              		.cfi_remember_state
 1417              		.cfi_def_cfa_offset 4
 1418              		@ sp needed
 1419 000e 5DF804EB 		ldr	lr, [sp], #4
 1420              		.cfi_restore 14
 1421              		.cfi_def_cfa_offset 0
 1422              		.loc 2 442 0
 1423 0012 FFF7FEBF 		b	netconn_recv_data
 1424              	.LVL154:
 1425              	.L143:
 1426              		.cfi_restore_state
 1427              		.loc 2 439 0 discriminator 3
 1428 0016 084B     		ldr	r3, .L151
 1429 0018 0093     		str	r3, [sp]
 1430 001a 0849     		ldr	r1, .L151+4
 1431              	.LVL155:
 1432 001c 084A     		ldr	r2, .L151+8
 1433 001e 0948     		ldr	r0, .L151+12
 1434              	.LVL156:
 1435 0020 4FF4DC73 		mov	r3, #440
 1436 0024 FFF7FEFF 		bl	chprintf.constprop.2
 1437              	.LVL157:
 1438              	.LBB105:
 1439              	.LBB106:
 1440              		.loc 3 414 0 discriminator 3
 1441 0028 0548     		ldr	r0, .L151+8
 1442 002a FFF7FEFF 		bl	chSysHalt
 1443              	.LVL158:
 1444              	.LBE106:
 1445              	.LBE105:
 1446              		.loc 2 443 0 discriminator 3
 1447 002e 6FF00D00 		mvn	r0, #13
 1448 0032 03B0     		add	sp, sp, #12
 1449              		.cfi_def_cfa_offset 4
 1450              		@ sp needed
 1451 0034 5DF804FB 		ldr	pc, [sp], #4
 1452              	.L152:
 1453              		.align	2
 1454              	.L151:
 1455 0038 48000000 		.word	.LC2
 1456 003c 00000000 		.word	.LC0
 1457 0040 78000000 		.word	.LC3
 1458 0044 00000000 		.word	itm_port
 1459              		.cfi_endproc
 1460              	.LFE265:
 1461              		.size	netconn_recv_tcp_pbuf, .-netconn_recv_tcp_pbuf
 1462 0048 AFF30080 		.section	.text.netconn_recv,"ax",%progbits
 1462      AFF30080 
 1463              		.align	2
 1464              		.p2align 4,,15
 1465              		.global	netconn_recv
 1466              		.thumb
 1467              		.thumb_func
 1468              		.type	netconn_recv, %function
ARM GAS  C:\Users\jo\AppData\Local\Temp\ccKPILIK.s 			page 27


 1469              	netconn_recv:
 1470              	.LFB266:
 1471              		.loc 2 455 0
 1472              		.cfi_startproc
 1473              		@ args = 0, pretend = 0, frame = 8
 1474              		@ frame_needed = 0, uses_anonymous_args = 0
 1475              	.LVL159:
 1476 0000 70B5     		push	{r4, r5, r6, lr}
 1477              		.cfi_def_cfa_offset 16
 1478              		.cfi_offset 4, -16
 1479              		.cfi_offset 5, -12
 1480              		.cfi_offset 6, -8
 1481              		.cfi_offset 14, -4
 1482              		.loc 2 461 0
 1483 0002 0D46     		mov	r5, r1
 1484              		.loc 2 455 0
 1485 0004 84B0     		sub	sp, sp, #16
 1486              		.cfi_def_cfa_offset 32
 1487              		.loc 2 461 0
 1488 0006 0029     		cmp	r1, #0
 1489 0008 61D0     		beq	.L165
 1490              		.loc 2 462 0
 1491 000a 0026     		movs	r6, #0
 1492 000c 0446     		mov	r4, r0
 1493 000e 0E60     		str	r6, [r1]
 1494              		.loc 2 463 0
 1495 0010 0028     		cmp	r0, #0
 1496 0012 4ED0     		beq	.L166
 1497              		.loc 2 464 0
 1498 0014 1030     		adds	r0, r0, #16
 1499              	.LVL160:
 1500 0016 FFF7FEFF 		bl	sys_mbox_valid
 1501              	.LVL161:
 1502 001a 70B3     		cbz	r0, .L167
 1503              		.loc 2 468 0
 1504 001c 2378     		ldrb	r3, [r4]	@ zero_extendqisi2
 1505 001e 102B     		cmp	r3, #16
 1506 0020 06D0     		beq	.L168
 1507              		.loc 2 501 0
 1508 0022 2046     		mov	r0, r4
 1509 0024 2946     		mov	r1, r5
 1510 0026 FFF7FEFF 		bl	netconn_recv_data
 1511              	.LVL162:
 1512              	.L155:
 1513              		.loc 2 504 0 discriminator 1
 1514 002a 40B2     		sxtb	r0, r0
 1515 002c 04B0     		add	sp, sp, #16
 1516              		.cfi_remember_state
 1517              		.cfi_def_cfa_offset 16
 1518              		@ sp needed
 1519 002e 70BD     		pop	{r4, r5, r6, pc}
 1520              	.LVL163:
 1521              	.L168:
 1522              		.cfi_restore_state
 1523              	.LBB107:
 1524              		.loc 2 474 0
 1525 0030 0720     		movs	r0, #7
ARM GAS  C:\Users\jo\AppData\Local\Temp\ccKPILIK.s 			page 28


 1526              		.loc 2 471 0
 1527 0032 0396     		str	r6, [sp, #12]
 1528              		.loc 2 474 0
 1529 0034 FFF7FEFF 		bl	memp_malloc
 1530              	.LVL164:
 1531              		.loc 2 475 0
 1532 0038 0646     		mov	r6, r0
 1533 003a 80B1     		cbz	r0, .L169
 1534              		.loc 2 480 0
 1535 003c 2046     		mov	r0, r4
 1536              	.LVL165:
 1537 003e 03A9     		add	r1, sp, #12
 1538 0040 FFF7FEFF 		bl	netconn_recv_data
 1539              	.LVL166:
 1540              		.loc 2 481 0
 1541 0044 0446     		mov	r4, r0
 1542              	.LVL167:
 1543 0046 90B9     		cbnz	r0, .L170
 1544              		.loc 2 485 0
 1545 0048 039B     		ldr	r3, [sp, #12]
 1546 004a 23B3     		cbz	r3, .L171
 1547              	.LVL168:
 1548              	.L162:
 1549              		.loc 2 489 0
 1550 004c 0020     		movs	r0, #0
 1551 004e B081     		strh	r0, [r6, #12]	@ movhi
 1552              		.loc 2 490 0
 1553 0050 B060     		str	r0, [r6, #8]
 1554              	.LBE107:
 1555              		.loc 2 504 0
 1556 0052 40B2     		sxtb	r0, r0
 1557              	.LBB110:
 1558              		.loc 2 487 0
 1559 0054 3360     		str	r3, [r6]
 1560              		.loc 2 488 0
 1561 0056 7360     		str	r3, [r6, #4]
 1562              		.loc 2 491 0
 1563 0058 2E60     		str	r6, [r5]
 1564              	.LBE110:
 1565              		.loc 2 504 0
 1566 005a 04B0     		add	sp, sp, #16
 1567              		.cfi_remember_state
 1568              		.cfi_def_cfa_offset 16
 1569              		@ sp needed
 1570 005c 70BD     		pop	{r4, r5, r6, pc}
 1571              	.LVL169:
 1572              	.L169:
 1573              		.cfi_restore_state
 1574              	.LBB111:
 1575              		.loc 2 476 0
 1576 005e 94F90830 		ldrsb	r3, [r4, #8]
 1577 0062 0933     		adds	r3, r3, #9
 1578 0064 4FF0FF00 		mov	r0, #255
 1579              	.LVL170:
 1580 0068 DFDB     		blt	.L155
 1581              		.loc 2 476 0 is_stmt 0 discriminator 1
 1582 006a 2072     		strb	r0, [r4, #8]
ARM GAS  C:\Users\jo\AppData\Local\Temp\ccKPILIK.s 			page 29


 1583 006c DDE7     		b	.L155
 1584              	.LVL171:
 1585              	.L170:
 1586              		.loc 2 482 0 is_stmt 1
 1587 006e 0720     		movs	r0, #7
 1588              	.LVL172:
 1589 0070 3146     		mov	r1, r6
 1590 0072 FFF7FEFF 		bl	memp_free
 1591              	.LVL173:
 1592              		.loc 2 483 0
 1593 0076 2046     		mov	r0, r4
 1594 0078 D7E7     		b	.L155
 1595              	.LVL174:
 1596              	.L167:
 1597              	.LBE111:
 1598              		.loc 2 464 0 discriminator 1
 1599 007a 1C4B     		ldr	r3, .L172
 1600 007c 0093     		str	r3, [sp]
 1601 007e 1C49     		ldr	r1, .L172+4
 1602 0080 1C4A     		ldr	r2, .L172+8
 1603 0082 1D48     		ldr	r0, .L172+12
 1604 0084 4FF4E873 		mov	r3, #464
 1605 0088 FFF7FEFF 		bl	chprintf.constprop.2
 1606              	.LVL175:
 1607              	.LBB112:
 1608              	.LBB113:
 1609              		.loc 3 414 0 discriminator 1
 1610 008c 1948     		ldr	r0, .L172+8
 1611 008e FFF7FEFF 		bl	chSysHalt
 1612              	.LVL176:
 1613              	.LBE113:
 1614              	.LBE112:
 1615              		.loc 2 464 0 discriminator 1
 1616 0092 F320     		movs	r0, #243
 1617 0094 C9E7     		b	.L155
 1618              	.LVL177:
 1619              	.L171:
 1620              	.LBB114:
 1621              		.loc 2 485 0 discriminator 1
 1622 0096 154B     		ldr	r3, .L172
 1623 0098 0093     		str	r3, [sp]
 1624 009a 1549     		ldr	r1, .L172+4
 1625 009c 174A     		ldr	r2, .L172+16
 1626 009e 1648     		ldr	r0, .L172+12
 1627              	.LVL178:
 1628 00a0 40F2E513 		movw	r3, #485
 1629 00a4 FFF7FEFF 		bl	chprintf.constprop.2
 1630              	.LVL179:
 1631              	.LBB108:
 1632              	.LBB109:
 1633              		.loc 3 414 0 discriminator 1
 1634 00a8 1448     		ldr	r0, .L172+16
 1635 00aa FFF7FEFF 		bl	chSysHalt
 1636              	.LVL180:
 1637 00ae 039B     		ldr	r3, [sp, #12]
 1638 00b0 CCE7     		b	.L162
 1639              	.LVL181:
ARM GAS  C:\Users\jo\AppData\Local\Temp\ccKPILIK.s 			page 30


 1640              	.L166:
 1641              	.LBE109:
 1642              	.LBE108:
 1643              	.LBE114:
 1644              		.loc 2 463 0 discriminator 1
 1645 00b2 0E4B     		ldr	r3, .L172
 1646 00b4 0093     		str	r3, [sp]
 1647 00b6 0E49     		ldr	r1, .L172+4
 1648              	.LVL182:
 1649 00b8 114A     		ldr	r2, .L172+20
 1650 00ba 0F48     		ldr	r0, .L172+12
 1651              	.LVL183:
 1652 00bc 40F2CF13 		movw	r3, #463
 1653 00c0 FFF7FEFF 		bl	chprintf.constprop.2
 1654              	.LVL184:
 1655              	.LBB115:
 1656              	.LBB116:
 1657              		.loc 3 414 0 discriminator 1
 1658 00c4 0E48     		ldr	r0, .L172+20
 1659 00c6 FFF7FEFF 		bl	chSysHalt
 1660              	.LVL185:
 1661              	.LBE116:
 1662              	.LBE115:
 1663              		.loc 2 463 0 discriminator 1
 1664 00ca F220     		movs	r0, #242
 1665 00cc ADE7     		b	.L155
 1666              	.LVL186:
 1667              	.L165:
 1668              		.loc 2 461 0 discriminator 1
 1669 00ce 074B     		ldr	r3, .L172
 1670 00d0 0093     		str	r3, [sp]
 1671 00d2 0749     		ldr	r1, .L172+4
 1672              	.LVL187:
 1673 00d4 0B4A     		ldr	r2, .L172+24
 1674 00d6 0848     		ldr	r0, .L172+12
 1675              	.LVL188:
 1676 00d8 40F2CD13 		movw	r3, #461
 1677 00dc FFF7FEFF 		bl	chprintf.constprop.2
 1678              	.LVL189:
 1679              	.LBB117:
 1680              	.LBB118:
 1681              		.loc 3 414 0 discriminator 1
 1682 00e0 0848     		ldr	r0, .L172+24
 1683 00e2 FFF7FEFF 		bl	chSysHalt
 1684              	.LVL190:
 1685              	.LBE118:
 1686              	.LBE117:
 1687              		.loc 2 461 0 discriminator 1
 1688 00e6 F220     		movs	r0, #242
 1689 00e8 9FE7     		b	.L155
 1690              	.L173:
 1691 00ea 00BF     		.align	2
 1692              	.L172:
 1693 00ec 48000000 		.word	.LC2
 1694 00f0 00000000 		.word	.LC0
 1695 00f4 94000000 		.word	.LC4
 1696 00f8 00000000 		.word	itm_port
ARM GAS  C:\Users\jo\AppData\Local\Temp\ccKPILIK.s 			page 31


 1697 00fc A0020000 		.word	.LC21
 1698 0100 78000000 		.word	.LC3
 1699 0104 28000000 		.word	.LC1
 1700              		.cfi_endproc
 1701              	.LFE266:
 1702              		.size	netconn_recv, .-netconn_recv
 1703 0108 AFF30080 		.section	.text.netconn_recved,"ax",%progbits
 1703      AFF30080 
 1704              		.align	2
 1705              		.p2align 4,,15
 1706              		.global	netconn_recved
 1707              		.thumb
 1708              		.thumb_func
 1709              		.type	netconn_recved, %function
 1710              	netconn_recved:
 1711              	.LFB267:
 1712              		.loc 2 518 0
 1713              		.cfi_startproc
 1714              		@ args = 0, pretend = 0, frame = 24
 1715              		@ frame_needed = 0, uses_anonymous_args = 0
 1716              	.LVL191:
 1717              		.loc 2 520 0
 1718 0000 10B1     		cbz	r0, .L183
 1719              		.loc 2 520 0 is_stmt 0 discriminator 1
 1720 0002 0378     		ldrb	r3, [r0]	@ zero_extendqisi2
 1721 0004 102B     		cmp	r3, #16
 1722 0006 00D0     		beq	.L184
 1723              	.L183:
 1724 0008 7047     		bx	lr
 1725              	.L184:
 1726              		.loc 2 521 0 is_stmt 1 discriminator 2
 1727 000a 037F     		ldrb	r3, [r0, #28]	@ zero_extendqisi2
 1728              		.loc 2 520 0 discriminator 2
 1729 000c 1B07     		lsls	r3, r3, #28
 1730 000e FBD5     		bpl	.L183
 1731              		.loc 2 518 0
 1732 0010 00B5     		push	{lr}
 1733              		.cfi_def_cfa_offset 4
 1734              		.cfi_offset 14, -4
 1735 0012 87B0     		sub	sp, sp, #28
 1736              		.cfi_def_cfa_offset 32
 1737              	.LBB119:
 1738              		.loc 2 526 0
 1739 0014 044B     		ldr	r3, .L185
 1740              		.loc 2 527 0
 1741 0016 0190     		str	r0, [sp, #4]
 1742              		.loc 2 530 0
 1743 0018 6846     		mov	r0, sp
 1744              	.LVL192:
 1745              		.loc 2 528 0
 1746 001a 0391     		str	r1, [sp, #12]
 1747              		.loc 2 526 0
 1748 001c 0093     		str	r3, [sp]
 1749              		.loc 2 530 0
 1750 001e FFF7FEFF 		bl	tcpip_apimsg
 1751              	.LVL193:
 1752              	.LBE119:
ARM GAS  C:\Users\jo\AppData\Local\Temp\ccKPILIK.s 			page 32


 1753              		.loc 2 536 0
 1754 0022 07B0     		add	sp, sp, #28
 1755              		.cfi_def_cfa_offset 4
 1756              		@ sp needed
 1757 0024 5DF804FB 		ldr	pc, [sp], #4
 1758              	.L186:
 1759              		.align	2
 1760              	.L185:
 1761 0028 00000000 		.word	do_recv
 1762              		.cfi_endproc
 1763              	.LFE267:
 1764              		.size	netconn_recved, .-netconn_recved
 1765 002c AFF30080 		.section	.text.netconn_send,"ax",%progbits
 1766              		.align	2
 1767              		.p2align 4,,15
 1768              		.global	netconn_send
 1769              		.thumb
 1770              		.thumb_func
 1771              		.type	netconn_send, %function
 1772              	netconn_send:
 1773              	.LFB269:
 1774              		.loc 2 568 0
 1775              		.cfi_startproc
 1776              		@ args = 0, pretend = 0, frame = 24
 1777              		@ frame_needed = 0, uses_anonymous_args = 0
 1778              	.LVL194:
 1779 0000 10B5     		push	{r4, lr}
 1780              		.cfi_def_cfa_offset 8
 1781              		.cfi_offset 4, -8
 1782              		.cfi_offset 14, -4
 1783              		.loc 2 572 0
 1784 0002 0446     		mov	r4, r0
 1785              		.loc 2 568 0
 1786 0004 88B0     		sub	sp, sp, #32
 1787              		.cfi_def_cfa_offset 40
 1788              		.loc 2 572 0
 1789 0006 70B1     		cbz	r0, .L192
 1790              		.loc 2 575 0
 1791 0008 0E4B     		ldr	r3, .L193
 1792              		.loc 2 576 0
 1793 000a 0390     		str	r0, [sp, #12]
 1794              		.loc 2 578 0
 1795 000c 02A8     		add	r0, sp, #8
 1796              	.LVL195:
 1797              		.loc 2 575 0
 1798 000e 0293     		str	r3, [sp, #8]
 1799              		.loc 2 577 0
 1800 0010 0591     		str	r1, [sp, #20]
 1801              		.loc 2 578 0
 1802 0012 FFF7FEFF 		bl	tcpip_apimsg
 1803              	.LVL196:
 1804              		.loc 2 580 0
 1805 0016 94F90830 		ldrsb	r3, [r4, #8]
 1806 001a 0933     		adds	r3, r3, #9
 1807 001c A8BF     		it	ge
 1808 001e 2072     		strbge	r0, [r4, #8]
 1809              	.LVL197:
ARM GAS  C:\Users\jo\AppData\Local\Temp\ccKPILIK.s 			page 33


 1810              	.L189:
 1811              		.loc 2 582 0
 1812 0020 40B2     		sxtb	r0, r0
 1813 0022 08B0     		add	sp, sp, #32
 1814              		.cfi_remember_state
 1815              		.cfi_def_cfa_offset 8
 1816              		@ sp needed
 1817 0024 10BD     		pop	{r4, pc}
 1818              	.LVL198:
 1819              	.L192:
 1820              		.cfi_restore_state
 1821              	.LBB124:
 1822              	.LBB125:
 1823              		.loc 2 572 0
 1824 0026 084B     		ldr	r3, .L193+4
 1825 0028 0093     		str	r3, [sp]
 1826 002a 0849     		ldr	r1, .L193+8
 1827              	.LVL199:
 1828 002c 084A     		ldr	r2, .L193+12
 1829 002e 0948     		ldr	r0, .L193+16
 1830              	.LVL200:
 1831 0030 4FF40F73 		mov	r3, #572
 1832 0034 FFF7FEFF 		bl	chprintf.constprop.2
 1833              	.LVL201:
 1834              	.LBB126:
 1835              	.LBB127:
 1836              		.loc 3 414 0
 1837 0038 0548     		ldr	r0, .L193+12
 1838 003a FFF7FEFF 		bl	chSysHalt
 1839              	.LVL202:
 1840 003e F220     		movs	r0, #242
 1841 0040 EEE7     		b	.L189
 1842              	.L194:
 1843 0042 00BF     		.align	2
 1844              	.L193:
 1845 0044 00000000 		.word	do_send
 1846 0048 48000000 		.word	.LC2
 1847 004c 00000000 		.word	.LC0
 1848 0050 AC020000 		.word	.LC22
 1849 0054 00000000 		.word	itm_port
 1850              	.LBE127:
 1851              	.LBE126:
 1852              	.LBE125:
 1853              	.LBE124:
 1854              		.cfi_endproc
 1855              	.LFE269:
 1856              		.size	netconn_send, .-netconn_send
 1857              		.section	.text.netconn_sendto,"ax",%progbits
 1858              		.align	2
 1859              		.p2align 4,,15
 1860              		.global	netconn_sendto
 1861              		.thumb
 1862              		.thumb_func
 1863              		.type	netconn_sendto, %function
 1864              	netconn_sendto:
 1865              	.LFB268:
 1866              		.loc 2 550 0
ARM GAS  C:\Users\jo\AppData\Local\Temp\ccKPILIK.s 			page 34


 1867              		.cfi_startproc
 1868              		@ args = 0, pretend = 0, frame = 0
 1869              		@ frame_needed = 0, uses_anonymous_args = 0
 1870              		@ link register save eliminated.
 1871              	.LVL203:
 1872              		.loc 2 551 0
 1873 0000 29B1     		cbz	r1, .L196
 1874              		.loc 2 552 0
 1875 0002 02B1     		cbz	r2, .L197
 1876              		.loc 2 552 0 is_stmt 0 discriminator 1
 1877 0004 1268     		ldr	r2, [r2]
 1878              	.LVL204:
 1879              	.L197:
 1880              		.loc 2 552 0 discriminator 4
 1881 0006 8A60     		str	r2, [r1, #8]
 1882              		.loc 2 553 0 is_stmt 1 discriminator 4
 1883 0008 8B81     		strh	r3, [r1, #12]	@ movhi
 1884              		.loc 2 554 0 discriminator 4
 1885 000a FFF7FEBF 		b	netconn_send
 1886              	.LVL205:
 1887              	.L196:
 1888              		.loc 2 557 0
 1889 000e 6FF00500 		mvn	r0, #5
 1890              	.LVL206:
 1891 0012 7047     		bx	lr
 1892              		.cfi_endproc
 1893              	.LFE268:
 1894              		.size	netconn_sendto, .-netconn_sendto
 1895 0014 AFF30080 		.section	.text.netconn_write_partly,"ax",%progbits
 1895      AFF30080 
 1895      AFF30080 
 1896              		.align	2
 1897              		.p2align 4,,15
 1898              		.global	netconn_write_partly
 1899              		.thumb
 1900              		.thumb_func
 1901              		.type	netconn_write_partly, %function
 1902              	netconn_write_partly:
 1903              	.LFB270:
 1904              		.loc 2 600 0
 1905              		.cfi_startproc
 1906              		@ args = 4, pretend = 0, frame = 24
 1907              		@ frame_needed = 0, uses_anonymous_args = 0
 1908              	.LVL207:
 1909 0000 30B5     		push	{r4, r5, lr}
 1910              		.cfi_def_cfa_offset 12
 1911              		.cfi_offset 4, -12
 1912              		.cfi_offset 5, -8
 1913              		.cfi_offset 14, -4
 1914              		.loc 2 605 0
 1915 0002 0546     		mov	r5, r0
 1916              		.loc 2 600 0
 1917 0004 89B0     		sub	sp, sp, #36
 1918              		.cfi_def_cfa_offset 48
 1919              		.loc 2 605 0
 1920 0006 0028     		cmp	r0, #0
 1921 0008 49D0     		beq	.L212
ARM GAS  C:\Users\jo\AppData\Local\Temp\ccKPILIK.s 			page 35


 1922 000a 1446     		mov	r4, r2
 1923              		.loc 2 606 0
 1924 000c 0278     		ldrb	r2, [r0]	@ zero_extendqisi2
 1925              	.LVL208:
 1926 000e 102A     		cmp	r2, #16
 1927 0010 35D1     		bne	.L213
 1928              		.loc 2 607 0
 1929 0012 002C     		cmp	r4, #0
 1930 0014 2FD0     		beq	.L207
 1931              		.loc 2 610 0
 1932 0016 027F     		ldrb	r2, [r0, #28]	@ zero_extendqisi2
 1933 0018 9007     		lsls	r0, r2, #30
 1934              	.LVL209:
 1935 001a 18D5     		bpl	.L214
 1936              	.L203:
 1937              	.LVL210:
 1938              		.loc 2 611 0
 1939 001c 0C9A     		ldr	r2, [sp, #48]
 1940 001e 002A     		cmp	r2, #0
 1941 0020 3BD0     		beq	.L209
 1942              		.loc 2 618 0
 1943 0022 264A     		ldr	r2, .L215
 1944              		.loc 2 619 0
 1945 0024 0395     		str	r5, [sp, #12]
 1946              		.loc 2 636 0
 1947 0026 02A8     		add	r0, sp, #8
 1948              		.loc 2 620 0
 1949 0028 0591     		str	r1, [sp, #20]
 1950              		.loc 2 621 0
 1951 002a 8DF81C30 		strb	r3, [sp, #28]
 1952              		.loc 2 622 0
 1953 002e 0694     		str	r4, [sp, #24]
 1954              		.loc 2 618 0
 1955 0030 0292     		str	r2, [sp, #8]
 1956              		.loc 2 636 0
 1957 0032 FFF7FEFF 		bl	tcpip_apimsg
 1958              	.LVL211:
 1959              		.loc 2 637 0
 1960 0036 10B9     		cbnz	r0, .L204
 1961              		.loc 2 644 0
 1962 0038 0C9A     		ldr	r2, [sp, #48]
 1963 003a 069B     		ldr	r3, [sp, #24]
 1964 003c 1360     		str	r3, [r2]
 1965              	.LVL212:
 1966              	.L204:
 1967              		.loc 2 651 0
 1968 003e 95F90830 		ldrsb	r3, [r5, #8]
 1969 0042 0933     		adds	r3, r3, #9
 1970 0044 00DB     		blt	.L201
 1971              		.loc 2 651 0 is_stmt 0 discriminator 1
 1972 0046 2872     		strb	r0, [r5, #8]
 1973              	.LVL213:
 1974              	.L201:
 1975 0048 40B2     		sxtb	r0, r0
 1976              		.loc 2 653 0 is_stmt 1
 1977 004a 09B0     		add	sp, sp, #36
 1978              		.cfi_remember_state
ARM GAS  C:\Users\jo\AppData\Local\Temp\ccKPILIK.s 			page 36


 1979              		.cfi_def_cfa_offset 12
 1980              		@ sp needed
 1981 004c 30BD     		pop	{r4, r5, pc}
 1982              	.LVL214:
 1983              	.L214:
 1984              		.cfi_restore_state
 1985              		.loc 2 610 0 discriminator 2
 1986 004e 5A07     		lsls	r2, r3, #29
 1987 0050 E4D4     		bmi	.L203
 1988              	.LVL215:
 1989              		.loc 2 618 0
 1990 0052 1A4A     		ldr	r2, .L215
 1991              		.loc 2 619 0
 1992 0054 0395     		str	r5, [sp, #12]
 1993              		.loc 2 636 0
 1994 0056 02A8     		add	r0, sp, #8
 1995              		.loc 2 620 0
 1996 0058 0591     		str	r1, [sp, #20]
 1997              		.loc 2 621 0
 1998 005a 8DF81C30 		strb	r3, [sp, #28]
 1999              		.loc 2 622 0
 2000 005e 0694     		str	r4, [sp, #24]
 2001              		.loc 2 618 0
 2002 0060 0292     		str	r2, [sp, #8]
 2003              		.loc 2 636 0
 2004 0062 FFF7FEFF 		bl	tcpip_apimsg
 2005              	.LVL216:
 2006              		.loc 2 637 0
 2007 0066 0028     		cmp	r0, #0
 2008 0068 E9D1     		bne	.L204
 2009              		.loc 2 637 0 is_stmt 0 discriminator 1
 2010 006a 0C9B     		ldr	r3, [sp, #48]
 2011 006c 002B     		cmp	r3, #0
 2012 006e E6D0     		beq	.L204
 2013              		.loc 2 647 0 is_stmt 1
 2014 0070 0C9B     		ldr	r3, [sp, #48]
 2015 0072 1C60     		str	r4, [r3]
 2016 0074 E3E7     		b	.L204
 2017              	.LVL217:
 2018              	.L207:
 2019              		.loc 2 608 0
 2020 0076 2046     		mov	r0, r4
 2021              	.LVL218:
 2022 0078 40B2     		sxtb	r0, r0
 2023              		.loc 2 653 0
 2024 007a 09B0     		add	sp, sp, #36
 2025              		.cfi_remember_state
 2026              		.cfi_def_cfa_offset 12
 2027              		@ sp needed
 2028 007c 30BD     		pop	{r4, r5, pc}
 2029              	.LVL219:
 2030              	.L213:
 2031              		.cfi_restore_state
 2032              		.loc 2 606 0 discriminator 1
 2033 007e 104B     		ldr	r3, .L215+4
 2034              	.LVL220:
 2035 0080 0093     		str	r3, [sp]
ARM GAS  C:\Users\jo\AppData\Local\Temp\ccKPILIK.s 			page 37


 2036 0082 1049     		ldr	r1, .L215+8
 2037              	.LVL221:
 2038 0084 104A     		ldr	r2, .L215+12
 2039 0086 1148     		ldr	r0, .L215+16
 2040              	.LVL222:
 2041 0088 40F25E23 		movw	r3, #606
 2042 008c FFF7FEFF 		bl	chprintf.constprop.2
 2043              	.LVL223:
 2044              	.LBB128:
 2045              	.LBB129:
 2046              		.loc 3 414 0 discriminator 1
 2047 0090 0D48     		ldr	r0, .L215+12
 2048 0092 FFF7FEFF 		bl	chSysHalt
 2049              	.LVL224:
 2050              	.LBE129:
 2051              	.LBE128:
 2052              		.loc 2 606 0 discriminator 1
 2053 0096 FA20     		movs	r0, #250
 2054 0098 D6E7     		b	.L201
 2055              	.LVL225:
 2056              	.L209:
 2057              		.loc 2 614 0
 2058 009a FA20     		movs	r0, #250
 2059 009c D4E7     		b	.L201
 2060              	.LVL226:
 2061              	.L212:
 2062              		.loc 2 605 0 discriminator 1
 2063 009e 084B     		ldr	r3, .L215+4
 2064              	.LVL227:
 2065 00a0 0093     		str	r3, [sp]
 2066 00a2 0849     		ldr	r1, .L215+8
 2067              	.LVL228:
 2068 00a4 0A4A     		ldr	r2, .L215+20
 2069              	.LVL229:
 2070 00a6 0948     		ldr	r0, .L215+16
 2071              	.LVL230:
 2072 00a8 40F25D23 		movw	r3, #605
 2073 00ac FFF7FEFF 		bl	chprintf.constprop.2
 2074              	.LVL231:
 2075              	.LBB130:
 2076              	.LBB131:
 2077              		.loc 3 414 0 discriminator 1
 2078 00b0 0748     		ldr	r0, .L215+20
 2079 00b2 FFF7FEFF 		bl	chSysHalt
 2080              	.LVL232:
 2081              	.LBE131:
 2082              	.LBE130:
 2083              		.loc 2 605 0 discriminator 1
 2084 00b6 F220     		movs	r0, #242
 2085 00b8 C6E7     		b	.L201
 2086              	.L216:
 2087 00ba 00BF     		.align	2
 2088              	.L215:
 2089 00bc 00000000 		.word	do_write
 2090 00c0 48000000 		.word	.LC2
 2091 00c4 00000000 		.word	.LC0
 2092 00c8 E4020000 		.word	.LC24
ARM GAS  C:\Users\jo\AppData\Local\Temp\ccKPILIK.s 			page 38


 2093 00cc 00000000 		.word	itm_port
 2094 00d0 C8020000 		.word	.LC23
 2095              		.cfi_endproc
 2096              	.LFE270:
 2097              		.size	netconn_write_partly, .-netconn_write_partly
 2098 00d4 AFF30080 		.section	.text.netconn_close,"ax",%progbits
 2098      AFF30080 
 2098      AFF30080 
 2099              		.align	2
 2100              		.p2align 4,,15
 2101              		.global	netconn_close
 2102              		.thumb
 2103              		.thumb_func
 2104              		.type	netconn_close, %function
 2105              	netconn_close:
 2106              	.LFB272:
 2107              		.loc 2 690 0
 2108              		.cfi_startproc
 2109              		@ args = 0, pretend = 0, frame = 0
 2110              		@ frame_needed = 0, uses_anonymous_args = 0
 2111              		@ link register save eliminated.
 2112              	.LVL233:
 2113              		.loc 2 692 0
 2114 0000 0321     		movs	r1, #3
 2115 0002 FFF7FEBF 		b	netconn_close_shutdown
 2116              	.LVL234:
 2117              		.cfi_endproc
 2118              	.LFE272:
 2119              		.size	netconn_close, .-netconn_close
 2120 0006 00BFAFF3 		.section	.text.netconn_shutdown,"ax",%progbits
 2120      0080AFF3 
 2120      0080
 2121              		.align	2
 2122              		.p2align 4,,15
 2123              		.global	netconn_shutdown
 2124              		.thumb
 2125              		.thumb_func
 2126              		.type	netconn_shutdown, %function
 2127              	netconn_shutdown:
 2128              	.LFB273:
 2129              		.loc 2 703 0
 2130              		.cfi_startproc
 2131              		@ args = 0, pretend = 0, frame = 0
 2132              		@ frame_needed = 0, uses_anonymous_args = 0
 2133              		@ link register save eliminated.
 2134              	.LVL235:
 2135              		.loc 2 704 0
 2136 0000 002A     		cmp	r2, #0
 2137 0002 14BF     		ite	ne
 2138 0004 0223     		movne	r3, #2
 2139 0006 0023     		moveq	r3, #0
 2140 0008 0029     		cmp	r1, #0
 2141 000a 0CBF     		ite	eq
 2142 000c 1946     		moveq	r1, r3
 2143 000e 43F00101 		orrne	r1, r3, #1
 2144              	.LVL236:
 2145 0012 FFF7FEBF 		b	netconn_close_shutdown
ARM GAS  C:\Users\jo\AppData\Local\Temp\ccKPILIK.s 			page 39


 2146              	.LVL237:
 2147              		.cfi_endproc
 2148              	.LFE273:
 2149              		.size	netconn_shutdown, .-netconn_shutdown
 2150 0016 00BFAFF3 		.section	.rodata.str1.4,"aMS",%progbits,1
 2150      0080AFF3 
 2150      0080
 2151              		.align	2
 2152              	.LC0:
 2153 0000 41737365 		.ascii	"Assertion \"%s\" failed at line %d in %s\012\000"
 2153      7274696F 
 2153      6E202225 
 2153      73222066 
 2153      61696C65 
 2154              	.LC1:
 2155 0028 6E657463 		.ascii	"netconn_recv: invalid pointer\000"
 2155      6F6E6E5F 
 2155      72656376 
 2155      3A20696E 
 2155      76616C69 
 2156 0046 0000     		.space	2
 2157              	.LC2:
 2158 0048 2E2E2F2E 		.ascii	"../../../os/ext/lwip-1.4.1/src/api/api_lib.c\000"
 2158      2E2F2E2E 
 2158      2F6F732F 
 2158      6578742F 
 2158      6C776970 
 2159 0075 000000   		.space	3
 2160              	.LC3:
 2161 0078 6E657463 		.ascii	"netconn_recv: invalid conn\000"
 2161      6F6E6E5F 
 2161      72656376 
 2161      3A20696E 
 2161      76616C69 
 2162 0093 00       		.space	1
 2163              	.LC4:
 2164 0094 6E657463 		.ascii	"netconn_accept: invalid recvmbox\000"
 2164      6F6E6E5F 
 2164      61636365 
 2164      70743A20 
 2164      696E7661 
 2165 00b5 000000   		.space	3
 2166              	.LC5:
 2167 00b8 62756620 		.ascii	"buf != NULL\000"
 2167      213D204E 
 2167      554C4C00 
 2168              	.LC6:
 2169 00c4 6E657463 		.ascii	"netconn_close: invalid conn\000"
 2169      6F6E6E5F 
 2169      636C6F73 
 2169      653A2069 
 2169      6E76616C 
 2170              	.LC7:
 2171 00e0 66726565 		.ascii	"freeing conn without freeing pcb\000"
 2171      696E6720 
 2171      636F6E6E 
 2171      20776974 
ARM GAS  C:\Users\jo\AppData\Local\Temp\ccKPILIK.s 			page 40


 2171      686F7574 
 2172 0101 000000   		.space	3
 2173              	.LC8:
 2174 0104 636F6E6E 		.ascii	"conn has no op_completed\000"
 2174      20686173 
 2174      206E6F20 
 2174      6F705F63 
 2174      6F6D706C 
 2175 011d 000000   		.space	3
 2176              	.LC9:
 2177 0120 636F6E6E 		.ascii	"conn has no recvmbox\000"
 2177      20686173 
 2177      206E6F20 
 2177      72656376 
 2177      6D626F78 
 2178 0135 000000   		.space	3
 2179              	.LC10:
 2180 0138 636F6E6E 		.ascii	"conn->acceptmbox shouldn't exist\000"
 2180      2D3E6163 
 2180      63657074 
 2180      6D626F78 
 2180      2073686F 
 2181 0159 000000   		.space	3
 2182              	.LC11:
 2183 015c 6E657463 		.ascii	"netconn_getaddr: invalid conn\000"
 2183      6F6E6E5F 
 2183      67657461 
 2183      6464723A 
 2183      20696E76 
 2184 017a 0000     		.space	2
 2185              	.LC12:
 2186 017c 6E657463 		.ascii	"netconn_getaddr: invalid addr\000"
 2186      6F6E6E5F 
 2186      67657461 
 2186      6464723A 
 2186      20696E76 
 2187 019a 0000     		.space	2
 2188              	.LC13:
 2189 019c 6E657463 		.ascii	"netconn_getaddr: invalid port\000"
 2189      6F6E6E5F 
 2189      67657461 
 2189      6464723A 
 2189      20696E76 
 2190 01ba 0000     		.space	2
 2191              	.LC14:
 2192 01bc 6E657463 		.ascii	"netconn_bind: invalid conn\000"
 2192      6F6E6E5F 
 2192      62696E64 
 2192      3A20696E 
 2192      76616C69 
 2193 01d7 00       		.space	1
 2194              	.LC15:
 2195 01d8 6E657463 		.ascii	"netconn_connect: invalid conn\000"
 2195      6F6E6E5F 
 2195      636F6E6E 
 2195      6563743A 
 2195      20696E76 
ARM GAS  C:\Users\jo\AppData\Local\Temp\ccKPILIK.s 			page 41


 2196 01f6 0000     		.space	2
 2197              	.LC16:
 2198 01f8 6E657463 		.ascii	"netconn_disconnect: invalid conn\000"
 2198      6F6E6E5F 
 2198      64697363 
 2198      6F6E6E65 
 2198      63743A20 
 2199 0219 000000   		.space	3
 2200              	.LC17:
 2201 021c 6E657463 		.ascii	"netconn_listen: invalid conn\000"
 2201      6F6E6E5F 
 2201      6C697374 
 2201      656E3A20 
 2201      696E7661 
 2202 0239 000000   		.space	3
 2203              	.LC18:
 2204 023c 6E657463 		.ascii	"netconn_accept: invalid pointer\000"
 2204      6F6E6E5F 
 2204      61636365 
 2204      70743A20 
 2204      696E7661 
 2205              	.LC19:
 2206 025c 6E657463 		.ascii	"netconn_accept: invalid conn\000"
 2206      6F6E6E5F 
 2206      61636365 
 2206      70743A20 
 2206      696E7661 
 2207 0279 000000   		.space	3
 2208              	.LC20:
 2209 027c 6E657463 		.ascii	"netconn_accept: invalid acceptmbox\000"
 2209      6F6E6E5F 
 2209      61636365 
 2209      70743A20 
 2209      696E7661 
 2210 029f 00       		.space	1
 2211              	.LC21:
 2212 02a0 7020213D 		.ascii	"p != NULL\000"
 2212      204E554C 
 2212      4C00
 2213 02aa 0000     		.space	2
 2214              	.LC22:
 2215 02ac 6E657463 		.ascii	"netconn_send: invalid conn\000"
 2215      6F6E6E5F 
 2215      73656E64 
 2215      3A20696E 
 2215      76616C69 
 2216 02c7 00       		.space	1
 2217              	.LC23:
 2218 02c8 6E657463 		.ascii	"netconn_write: invalid conn\000"
 2218      6F6E6E5F 
 2218      77726974 
 2218      653A2069 
 2218      6E76616C 
 2219              	.LC24:
 2220 02e4 6E657463 		.ascii	"netconn_write: invalid conn->type\000"
 2220      6F6E6E5F 
 2220      77726974 
ARM GAS  C:\Users\jo\AppData\Local\Temp\ccKPILIK.s 			page 42


 2220      653A2069 
 2220      6E76616C 
 2221 0306 0000     		.text
 2222              	.Letext0:
 2223              		.file 4 "c:\\program files\\gnu tools arm embedded\\4.9 2014q4\\lib\\gcc\\arm-none-eabi\\4.9.3\\in
 2224              		.file 5 "c:\\program files\\gnu tools arm embedded\\4.9 2014q4\\arm-none-eabi\\include\\machine\\_
 2225              		.file 6 "c:\\program files\\gnu tools arm embedded\\4.9 2014q4\\arm-none-eabi\\include\\stdint.h"
 2226              		.file 7 "../../../os/rt/ports/ARMCMx/compilers/GCC/chtypes.h"
 2227              		.file 8 "../../../os/rt/include/chsystypes.h"
 2228              		.file 9 "../../../os/rt/include/chschd.h"
 2229              		.file 10 "../../../os/rt/ports/ARMCMx/chcore.h"
 2230              		.file 11 "../../../os/rt/ports/ARMCMx/chcore_v7m.h"
 2231              		.file 12 "c:\\program files\\gnu tools arm embedded\\4.9 2014q4\\lib\\gcc\\arm-none-eabi\\4.9.3\\i
 2232              		.file 13 "<built-in>"
 2233              		.file 14 "../../../os/rt/include/chtm.h"
 2234              		.file 15 "../../../os/rt/include/chmtx.h"
 2235              		.file 16 "../../../os/rt/include/chsem.h"
 2236              		.file 17 "../../../os/rt/include/chmboxes.h"
 2237              		.file 18 "../../../os/rt/include/chstreams.h"
 2238              		.file 19 "./ITM_trace.h"
 2239              		.file 20 "../../../os/various/lwip_bindings/arch/cc.h"
 2240              		.file 21 "../../../os/ext/lwip-1.4.1/src/include/lwip/err.h"
 2241              		.file 22 "../../../os/ext/lwip-1.4.1/src/include/lwip/pbuf.h"
 2242              		.file 23 "../../../os/ext/lwip-1.4.1/src/include/ipv4/lwip/ip_addr.h"
 2243              		.file 24 "../../../os/ext/lwip-1.4.1/src/include/lwip/netbuf.h"
 2244              		.file 25 "../../../os/various/lwip_bindings/arch/sys_arch.h"
 2245              		.file 26 "../../../os/ext/lwip-1.4.1/src/include/lwip/api.h"
 2246              		.file 27 "../../../os/ext/lwip-1.4.1/src/include/ipv4/lwip/ip.h"
 2247              		.file 28 "../../../os/ext/lwip-1.4.1/src/include/lwip/tcp.h"
 2248              		.file 29 "../../../os/ext/lwip-1.4.1/src/include/lwip/udp.h"
 2249              		.file 30 "../../../os/ext/lwip-1.4.1/src/include/lwip/raw.h"
 2250              		.file 31 "../../../os/ext/lwip-1.4.1/src/include/lwip/api_msg.h"
 2251              		.file 32 "../../../os/ext/lwip-1.4.1/src/include/lwip/memp.h"
 2252              		.file 33 "../../../os/ext/CMSIS/include/core_cm4.h"
 2253              		.file 34 "../../../os/ext/lwip-1.4.1/src/include/lwip/sys.h"
 2254              		.file 35 "../../../os/ext/lwip-1.4.1/src/include/lwip/tcpip.h"
 2255              		.file 36 "../../../os/rt/include/chsys.h"