ARM GAS  C:\Users\jo\AppData\Local\Temp\ccLDsGlj.s 			page 1


   1              		.syntax unified
   2              		.cpu cortex-m4
   3              		.eabi_attribute 27, 3
   4              		.eabi_attribute 28, 1
   5              		.fpu fpv4-sp-d16
   6              		.eabi_attribute 20, 1
   7              		.eabi_attribute 21, 1
   8              		.eabi_attribute 23, 3
   9              		.eabi_attribute 24, 1
  10              		.eabi_attribute 25, 1
  11              		.eabi_attribute 26, 1
  12              		.eabi_attribute 30, 2
  13              		.eabi_attribute 34, 1
  14              		.eabi_attribute 18, 4
  15              		.thumb
  16              		.file	"api_msg.c"
  17              		.text
  18              	.Ltext0:
  19              		.cfi_sections	.debug_frame
  20              		.section	.text.recv_raw,"ax",%progbits
  21              		.align	2
  22              		.p2align 4,,15
  23              		.thumb
  24              		.thumb_func
  25              		.type	recv_raw, %function
  26              	recv_raw:
  27              	.LFB256:
  28              		.file 1 "../../../os/ext/lwip-1.4.1/src/api/api_msg.c"
  29              		.loc 1 80 0
  30              		.cfi_startproc
  31              		@ args = 0, pretend = 0, frame = 0
  32              		@ frame_needed = 0, uses_anonymous_args = 0
  33              	.LVL0:
  34              		.loc 1 88 0
  35 0000 0028     		cmp	r0, #0
  36 0002 38D0     		beq	.L22
  37              		.loc 1 80 0 discriminator 1
  38 0004 2DE9F041 		push	{r4, r5, r6, r7, r8, lr}
  39              		.cfi_def_cfa_offset 24
  40              		.cfi_offset 4, -24
  41              		.cfi_offset 5, -20
  42              		.cfi_offset 6, -16
  43              		.cfi_offset 7, -12
  44              		.cfi_offset 8, -8
  45              		.cfi_offset 14, -4
  46              		.loc 1 88 0 discriminator 1
  47 0008 00F11007 		add	r7, r0, #16
  48 000c 0546     		mov	r5, r0
  49 000e 3846     		mov	r0, r7
  50              	.LVL1:
  51 0010 1446     		mov	r4, r2
  52 0012 0E46     		mov	r6, r1
  53 0014 FFF7FEFF 		bl	sys_mbox_valid
  54              	.LVL2:
  55 0018 10B9     		cbnz	r0, .L24
  56              	.LVL3:
  57              	.L16:
ARM GAS  C:\Users\jo\AppData\Local\Temp\ccLDsGlj.s 			page 2


  58              		.loc 1 133 0
  59 001a 0020     		movs	r0, #0
  60 001c BDE8F081 		pop	{r4, r5, r6, r7, r8, pc}
  61              	.LVL4:
  62              	.L24:
  63              		.loc 1 97 0
  64 0020 0320     		movs	r0, #3
  65 0022 2189     		ldrh	r1, [r4, #8]
  66 0024 0022     		movs	r2, #0
  67 0026 FFF7FEFF 		bl	pbuf_alloc
  68              	.LVL5:
  69              		.loc 1 98 0
  70 002a 8046     		mov	r8, r0
  71 002c 0028     		cmp	r0, #0
  72 002e F4D0     		beq	.L16
  73              		.loc 1 99 0
  74 0030 2146     		mov	r1, r4
  75 0032 FFF7FEFF 		bl	pbuf_copy
  76              	.LVL6:
  77 0036 00BB     		cbnz	r0, .L8
  78              	.LBB87:
  79              		.loc 1 107 0
  80 0038 0720     		movs	r0, #7
  81 003a FFF7FEFF 		bl	memp_malloc
  82              	.LVL7:
  83              		.loc 1 108 0
  84 003e 0446     		mov	r4, r0
  85              	.LVL8:
  86 0040 D8B1     		cbz	r0, .L8
  87              		.loc 1 115 0
  88 0042 124B     		ldr	r3, .L26
  89              		.loc 1 113 0
  90 0044 C4F80080 		str	r8, [r4]
  91              		.loc 1 115 0
  92 0048 1B68     		ldr	r3, [r3]
  93              		.loc 1 114 0
  94 004a C4F80480 		str	r8, [r4, #4]
  95              		.loc 1 115 0
  96 004e A360     		str	r3, [r4, #8]
  97              		.loc 1 116 0
  98 0050 337C     		ldrb	r3, [r6, #16]	@ zero_extendqisi2
  99 0052 A381     		strh	r3, [r4, #12]	@ movhi
 100              		.loc 1 119 0
 101 0054 2146     		mov	r1, r4
 102 0056 3846     		mov	r0, r7
 103              	.LVL9:
 104              		.loc 1 118 0
 105 0058 B8F80860 		ldrh	r6, [r8, #8]
 106              	.LVL10:
 107              		.loc 1 119 0
 108 005c FFF7FEFF 		bl	sys_mbox_trypost
 109              	.LVL11:
 110 0060 0146     		mov	r1, r0
 111 0062 70B9     		cbnz	r0, .L25
 112              		.loc 1 127 0
 113 0064 AB6A     		ldr	r3, [r5, #40]
 114 0066 002B     		cmp	r3, #0
ARM GAS  C:\Users\jo\AppData\Local\Temp\ccLDsGlj.s 			page 3


 115 0068 D7D0     		beq	.L16
 116              		.loc 1 127 0 is_stmt 0 discriminator 1
 117 006a 2846     		mov	r0, r5
 118 006c 3246     		mov	r2, r6
 119 006e 9847     		blx	r3
 120              	.LVL12:
 121              	.LBE87:
 122              		.loc 1 133 0 is_stmt 1 discriminator 1
 123 0070 0020     		movs	r0, #0
 124 0072 BDE8F081 		pop	{r4, r5, r6, r7, r8, pc}
 125              	.LVL13:
 126              	.L22:
 127              		.cfi_def_cfa_offset 0
 128              		.cfi_restore 4
 129              		.cfi_restore 5
 130              		.cfi_restore 6
 131              		.cfi_restore 7
 132              		.cfi_restore 8
 133              		.cfi_restore 14
 134              		.loc 1 133 0 is_stmt 0
 135 0076 0020     		movs	r0, #0
 136              	.LVL14:
 137 0078 7047     		bx	lr
 138              	.LVL15:
 139              	.L8:
 140              		.cfi_def_cfa_offset 24
 141              		.cfi_offset 4, -24
 142              		.cfi_offset 5, -20
 143              		.cfi_offset 6, -16
 144              		.cfi_offset 7, -12
 145              		.cfi_offset 8, -8
 146              		.cfi_offset 14, -4
 147              	.LBB88:
 148              		.loc 1 109 0 is_stmt 1
 149 007a 4046     		mov	r0, r8
 150 007c FFF7FEFF 		bl	pbuf_free
 151              	.LVL16:
 152              		.loc 1 110 0
 153 0080 CBE7     		b	.L16
 154              	.LVL17:
 155              	.L25:
 156              		.loc 1 120 0
 157 0082 2046     		mov	r0, r4
 158 0084 FFF7FEFF 		bl	netbuf_delete
 159              	.LVL18:
 160              		.loc 1 121 0
 161 0088 C7E7     		b	.L16
 162              	.L27:
 163 008a 00BF     		.align	2
 164              	.L26:
 165 008c 00000000 		.word	current_iphdr_src
 166              	.LBE88:
 167              		.cfi_endproc
 168              	.LFE256:
 169              		.size	recv_raw, .-recv_raw
 170              		.section	.text.setup_tcp,"ax",%progbits
 171              		.align	2
ARM GAS  C:\Users\jo\AppData\Local\Temp\ccLDsGlj.s 			page 4


 172              		.p2align 4,,15
 173              		.thumb
 174              		.thumb_func
 175              		.type	setup_tcp, %function
 176              	setup_tcp:
 177              	.LFB262:
 178              		.loc 1 414 0
 179              		.cfi_startproc
 180              		@ args = 0, pretend = 0, frame = 0
 181              		@ frame_needed = 0, uses_anonymous_args = 0
 182              	.LVL19:
 183 0000 10B5     		push	{r4, lr}
 184              		.cfi_def_cfa_offset 8
 185              		.cfi_offset 4, -8
 186              		.cfi_offset 14, -4
 187              		.loc 1 417 0
 188 0002 4468     		ldr	r4, [r0, #4]
 189              	.LVL20:
 190              		.loc 1 418 0
 191 0004 0146     		mov	r1, r0
 192 0006 2046     		mov	r0, r4
 193              	.LVL21:
 194 0008 FFF7FEFF 		bl	tcp_arg
 195              	.LVL22:
 196              		.loc 1 419 0
 197 000c 2046     		mov	r0, r4
 198 000e 0949     		ldr	r1, .L30
 199 0010 FFF7FEFF 		bl	tcp_recv
 200              	.LVL23:
 201              		.loc 1 420 0
 202 0014 2046     		mov	r0, r4
 203 0016 0849     		ldr	r1, .L30+4
 204 0018 FFF7FEFF 		bl	tcp_sent
 205              	.LVL24:
 206              		.loc 1 421 0
 207 001c 2046     		mov	r0, r4
 208 001e 0749     		ldr	r1, .L30+8
 209 0020 0422     		movs	r2, #4
 210 0022 FFF7FEFF 		bl	tcp_poll
 211              	.LVL25:
 212              		.loc 1 422 0
 213 0026 2046     		mov	r0, r4
 214 0028 0549     		ldr	r1, .L30+12
 215              		.loc 1 423 0
 216 002a BDE81040 		pop	{r4, lr}
 217              		.cfi_restore 14
 218              		.cfi_restore 4
 219              		.cfi_def_cfa_offset 0
 220              	.LVL26:
 221              		.loc 1 422 0
 222 002e FFF7FEBF 		b	tcp_err
 223              	.LVL27:
 224              	.L31:
 225 0032 00BF     		.align	2
 226              	.L30:
 227 0034 00000000 		.word	recv_tcp
 228 0038 00000000 		.word	sent_tcp
ARM GAS  C:\Users\jo\AppData\Local\Temp\ccLDsGlj.s 			page 5


 229 003c 00000000 		.word	poll_tcp
 230 0040 00000000 		.word	err_tcp
 231              		.cfi_endproc
 232              	.LFE262:
 233              		.size	setup_tcp, .-setup_tcp
 234 0044 AFF30080 		.section	.text.chprintf.constprop.1,"ax",%progbits
 234      AFF30080 
 234      AFF30080 
 235              		.align	2
 236              		.p2align 4,,15
 237              		.thumb
 238              		.thumb_func
 239              		.type	chprintf.constprop.1, %function
 240              	chprintf.constprop.1:
 241              	.LFB283:
 242              		.file 2 "../../../os/hal/lib/streams/chprintf.h"
 243              		.loc 2 69 0
 244              		.cfi_startproc
 245              		@ args = 4, pretend = 12, frame = 8
 246              		@ frame_needed = 0, uses_anonymous_args = 1
 247              	.LVL28:
 248 0000 0EB4     		push	{r1, r2, r3}
 249              		.cfi_def_cfa_offset 12
 250              		.cfi_offset 1, -12
 251              		.cfi_offset 2, -8
 252              		.cfi_offset 3, -4
 253 0002 00B5     		push	{lr}
 254              		.cfi_def_cfa_offset 16
 255              		.cfi_offset 14, -16
 256 0004 82B0     		sub	sp, sp, #8
 257              		.cfi_def_cfa_offset 24
 258              		.loc 2 73 0
 259 0006 04AB     		add	r3, sp, #16
 260              		.loc 2 74 0
 261 0008 1A46     		mov	r2, r3
 262 000a 0549     		ldr	r1, .L34
 263 000c 0548     		ldr	r0, .L34+4
 264              	.LVL29:
 265              		.loc 2 73 0
 266 000e 0193     		str	r3, [sp, #4]
 267              		.loc 2 74 0
 268 0010 FFF7FEFF 		bl	chvprintf
 269              	.LVL30:
 270              		.loc 2 78 0
 271 0014 02B0     		add	sp, sp, #8
 272              		.cfi_def_cfa_offset 16
 273              		@ sp needed
 274 0016 5DF804EB 		ldr	lr, [sp], #4
 275              		.cfi_restore 14
 276              		.cfi_def_cfa_offset 12
 277 001a 03B0     		add	sp, sp, #12
 278              		.cfi_restore 3
 279              		.cfi_restore 2
 280              		.cfi_restore 1
 281              		.cfi_def_cfa_offset 0
 282 001c 7047     		bx	lr
 283              	.L35:
ARM GAS  C:\Users\jo\AppData\Local\Temp\ccLDsGlj.s 			page 6


 284 001e 00BF     		.align	2
 285              	.L34:
 286 0020 00000000 		.word	.LC0
 287 0024 00000000 		.word	itm_port
 288              		.cfi_endproc
 289              	.LFE283:
 290              		.size	chprintf.constprop.1, .-chprintf.constprop.1
 291 0028 AFF30080 		.section	.text.recv_tcp,"ax",%progbits
 291      AFF30080 
 292              		.align	2
 293              		.p2align 4,,15
 294              		.thumb
 295              		.thumb_func
 296              		.type	recv_tcp, %function
 297              	recv_tcp:
 298              	.LFB258:
 299              		.loc 1 217 0
 300              		.cfi_startproc
 301              		@ args = 0, pretend = 0, frame = 0
 302              		@ frame_needed = 0, uses_anonymous_args = 0
 303              	.LVL31:
 304 0000 2DE9F043 		push	{r4, r5, r6, r7, r8, r9, lr}
 305              		.cfi_def_cfa_offset 28
 306              		.cfi_offset 4, -28
 307              		.cfi_offset 5, -24
 308              		.cfi_offset 6, -20
 309              		.cfi_offset 7, -16
 310              		.cfi_offset 8, -12
 311              		.cfi_offset 9, -8
 312              		.cfi_offset 14, -4
 313 0004 0446     		mov	r4, r0
 314 0006 83B0     		sub	sp, sp, #12
 315              		.cfi_def_cfa_offset 40
 316              		.loc 1 217 0
 317 0008 1646     		mov	r6, r2
 318 000a 9946     		mov	r9, r3
 319              		.loc 1 222 0
 320 000c 0F46     		mov	r7, r1
 321 000e 0029     		cmp	r1, #0
 322 0010 40D0     		beq	.L52
 323              	.LVL32:
 324              	.L37:
 325              		.loc 1 223 0
 326 0012 002C     		cmp	r4, #0
 327 0014 4CD0     		beq	.L53
 328              	.L38:
 329              	.LVL33:
 330              		.loc 1 225 0
 331 0016 6368     		ldr	r3, [r4, #4]
 332 0018 BB42     		cmp	r3, r7
 333 001a 0AD0     		beq	.L39
 334              		.loc 1 225 0 is_stmt 0 discriminator 1
 335 001c 2B4B     		ldr	r3, .L54
 336 001e 0093     		str	r3, [sp]
 337 0020 2B48     		ldr	r0, .L54+4
 338 0022 2C49     		ldr	r1, .L54+8
 339 0024 2C4A     		ldr	r2, .L54+12
ARM GAS  C:\Users\jo\AppData\Local\Temp\ccLDsGlj.s 			page 7


 340 0026 E123     		movs	r3, #225
 341 0028 FFF7FEFF 		bl	chprintf.constprop.1
 342              	.LVL34:
 343              	.LBB89:
 344              	.LBB90:
 345              		.file 3 "../../../os/hal/osal/rt/osal.h"
 346              		.loc 3 414 0 is_stmt 1 discriminator 1
 347 002c 2A48     		ldr	r0, .L54+12
 348 002e FFF7FEFF 		bl	chSysHalt
 349              	.LVL35:
 350              	.L39:
 351              	.LBE90:
 352              	.LBE89:
 353              		.loc 1 230 0
 354 0032 04F11008 		add	r8, r4, #16
 355 0036 4046     		mov	r0, r8
 356 0038 FFF7FEFF 		bl	sys_mbox_valid
 357              	.LVL36:
 358 003c 0546     		mov	r5, r0
 359 003e 80B9     		cbnz	r0, .L40
 360              		.loc 1 232 0
 361 0040 56B1     		cbz	r6, .L45
 362              		.loc 1 233 0
 363 0042 3846     		mov	r0, r7
 364 0044 3189     		ldrh	r1, [r6, #8]
 365 0046 FFF7FEFF 		bl	tcp_recved
 366              	.LVL37:
 367              		.loc 1 234 0
 368 004a 3046     		mov	r0, r6
 369 004c FFF7FEFF 		bl	pbuf_free
 370              	.LVL38:
 371              	.L42:
 372              		.loc 1 263 0
 373 0050 68B2     		sxtb	r0, r5
 374 0052 03B0     		add	sp, sp, #12
 375              		.cfi_remember_state
 376              		.cfi_def_cfa_offset 28
 377              		@ sp needed
 378 0054 BDE8F083 		pop	{r4, r5, r6, r7, r8, r9, pc}
 379              	.LVL39:
 380              	.L45:
 381              		.cfi_restore_state
 382              		.loc 1 236 0
 383 0058 0025     		movs	r5, #0
 384              		.loc 1 263 0
 385 005a 68B2     		sxtb	r0, r5
 386 005c 03B0     		add	sp, sp, #12
 387              		.cfi_remember_state
 388              		.cfi_def_cfa_offset 28
 389              		@ sp needed
 390 005e BDE8F083 		pop	{r4, r5, r6, r7, r8, r9, pc}
 391              	.LVL40:
 392              	.L40:
 393              		.cfi_restore_state
 394              		.loc 1 243 0
 395 0062 94F90830 		ldrsb	r3, [r4, #8]
 396 0066 0933     		adds	r3, r3, #9
ARM GAS  C:\Users\jo\AppData\Local\Temp\ccLDsGlj.s 			page 8


 397 0068 A8BF     		it	ge
 398 006a 84F80890 		strbge	r9, [r4, #8]
 399              		.loc 1 245 0
 400 006e EEB1     		cbz	r6, .L46
 401              		.loc 1 246 0
 402 0070 3789     		ldrh	r7, [r6, #8]
 403              	.LVL41:
 404              	.L44:
 405              		.loc 1 251 0
 406 0072 4046     		mov	r0, r8
 407 0074 3146     		mov	r1, r6
 408 0076 FFF7FEFF 		bl	sys_mbox_trypost
 409              	.LVL42:
 410 007a 0546     		mov	r5, r0
 411 007c 20BB     		cbnz	r0, .L47
 412              		.loc 1 259 0
 413 007e A36A     		ldr	r3, [r4, #40]
 414 0080 002B     		cmp	r3, #0
 415 0082 E9D0     		beq	.L45
 416              		.loc 1 259 0 is_stmt 0 discriminator 1
 417 0084 2046     		mov	r0, r4
 418 0086 3A46     		mov	r2, r7
 419 0088 2946     		mov	r1, r5
 420 008a 9847     		blx	r3
 421              	.LVL43:
 422              		.loc 1 263 0 is_stmt 1 discriminator 1
 423 008c 68B2     		sxtb	r0, r5
 424 008e 03B0     		add	sp, sp, #12
 425              		.cfi_remember_state
 426              		.cfi_def_cfa_offset 28
 427              		@ sp needed
 428 0090 BDE8F083 		pop	{r4, r5, r6, r7, r8, r9, pc}
 429              	.LVL44:
 430              	.L52:
 431              		.cfi_restore_state
 432              		.loc 1 222 0 discriminator 1
 433 0094 0D4B     		ldr	r3, .L54
 434              	.LVL45:
 435 0096 0093     		str	r3, [sp]
 436 0098 0E49     		ldr	r1, .L54+8
 437              	.LVL46:
 438 009a 104A     		ldr	r2, .L54+16
 439              	.LVL47:
 440 009c 0C48     		ldr	r0, .L54+4
 441              	.LVL48:
 442 009e DE23     		movs	r3, #222
 443 00a0 FFF7FEFF 		bl	chprintf.constprop.1
 444              	.LVL49:
 445              	.LBB91:
 446              	.LBB92:
 447              		.loc 3 414 0 discriminator 1
 448 00a4 0D48     		ldr	r0, .L54+16
 449 00a6 FFF7FEFF 		bl	chSysHalt
 450              	.LVL50:
 451 00aa B2E7     		b	.L37
 452              	.LVL51:
 453              	.L46:
ARM GAS  C:\Users\jo\AppData\Local\Temp\ccLDsGlj.s 			page 9


 454              	.LBE92:
 455              	.LBE91:
 456              		.loc 1 248 0
 457 00ac 3746     		mov	r7, r6
 458              	.LVL52:
 459 00ae E0E7     		b	.L44
 460              	.LVL53:
 461              	.L53:
 462              		.loc 1 223 0 discriminator 1
 463 00b0 064B     		ldr	r3, .L54
 464 00b2 0093     		str	r3, [sp]
 465 00b4 0749     		ldr	r1, .L54+8
 466 00b6 0A4A     		ldr	r2, .L54+20
 467 00b8 0548     		ldr	r0, .L54+4
 468 00ba DF23     		movs	r3, #223
 469 00bc FFF7FEFF 		bl	chprintf.constprop.1
 470              	.LVL54:
 471              	.LBB93:
 472              	.LBB94:
 473              		.loc 3 414 0 discriminator 1
 474 00c0 0748     		ldr	r0, .L54+20
 475 00c2 FFF7FEFF 		bl	chSysHalt
 476              	.LVL55:
 477 00c6 A6E7     		b	.L38
 478              	.LVL56:
 479              	.L47:
 480              	.LBE94:
 481              	.LBE93:
 482              		.loc 1 253 0
 483 00c8 FF25     		movs	r5, #255
 484 00ca C1E7     		b	.L42
 485              	.L55:
 486              		.align	2
 487              	.L54:
 488 00cc 4C000000 		.word	.LC2
 489 00d0 00000000 		.word	itm_port
 490 00d4 00000000 		.word	.LC0
 491 00d8 9C000000 		.word	.LC4
 492 00dc 28000000 		.word	.LC1
 493 00e0 7C000000 		.word	.LC3
 494              		.cfi_endproc
 495              	.LFE258:
 496              		.size	recv_tcp, .-recv_tcp
 497 00e4 AFF30080 		.section	.text.do_close_internal,"ax",%progbits
 497      AFF30080 
 497      AFF30080 
 498              		.align	2
 499              		.p2align 4,,15
 500              		.thumb
 501              		.thumb_func
 502              		.type	do_close_internal, %function
 503              	do_close_internal:
 504              	.LFB269:
 505              		.loc 1 748 0
 506              		.cfi_startproc
 507              		@ args = 0, pretend = 0, frame = 0
 508              		@ frame_needed = 0, uses_anonymous_args = 0
ARM GAS  C:\Users\jo\AppData\Local\Temp\ccLDsGlj.s 			page 10


 509              	.LVL57:
 510 0000 F0B5     		push	{r4, r5, r6, r7, lr}
 511              		.cfi_def_cfa_offset 20
 512              		.cfi_offset 4, -20
 513              		.cfi_offset 5, -16
 514              		.cfi_offset 6, -12
 515              		.cfi_offset 7, -8
 516              		.cfi_offset 14, -4
 517              		.loc 1 752 0
 518 0002 0446     		mov	r4, r0
 519              		.loc 1 748 0
 520 0004 83B0     		sub	sp, sp, #12
 521              		.cfi_def_cfa_offset 32
 522              		.loc 1 752 0
 523 0006 0028     		cmp	r0, #0
 524 0008 00F0D280 		beq	.L105
 525              	.LVL58:
 526              	.L57:
 527              		.loc 1 753 0
 528 000c 2378     		ldrb	r3, [r4]	@ zero_extendqisi2
 529 000e 102B     		cmp	r3, #16
 530 0010 0BD0     		beq	.L58
 531              		.loc 1 753 0 is_stmt 0 discriminator 1
 532 0012 704B     		ldr	r3, .L114
 533 0014 0093     		str	r3, [sp]
 534 0016 7048     		ldr	r0, .L114+4
 535 0018 7049     		ldr	r1, .L114+8
 536 001a 714A     		ldr	r2, .L114+12
 537 001c 40F2F123 		movw	r3, #753
 538 0020 FFF7FEFF 		bl	chprintf.constprop.1
 539              	.LVL59:
 540              	.LBB95:
 541              	.LBB96:
 542              		.loc 3 414 0 is_stmt 1 discriminator 1
 543 0024 6E48     		ldr	r0, .L114+12
 544 0026 FFF7FEFF 		bl	chSysHalt
 545              	.LVL60:
 546              	.L58:
 547              	.LBE96:
 548              	.LBE95:
 549              		.loc 1 754 0
 550 002a 6378     		ldrb	r3, [r4, #1]	@ zero_extendqisi2
 551 002c 042B     		cmp	r3, #4
 552 002e 0BD0     		beq	.L59
 553              		.loc 1 754 0 is_stmt 0 discriminator 1
 554 0030 684B     		ldr	r3, .L114
 555 0032 0093     		str	r3, [sp]
 556 0034 6848     		ldr	r0, .L114+4
 557 0036 6949     		ldr	r1, .L114+8
 558 0038 6A4A     		ldr	r2, .L114+16
 559 003a 40F2F223 		movw	r3, #754
 560 003e FFF7FEFF 		bl	chprintf.constprop.1
 561              	.LVL61:
 562              	.LBB97:
 563              	.LBB98:
 564              		.loc 3 414 0 is_stmt 1 discriminator 1
 565 0042 6848     		ldr	r0, .L114+16
ARM GAS  C:\Users\jo\AppData\Local\Temp\ccLDsGlj.s 			page 11


 566 0044 FFF7FEFF 		bl	chSysHalt
 567              	.LVL62:
 568              	.L59:
 569              	.LBE98:
 570              	.LBE97:
 571              		.loc 1 755 0
 572 0048 6368     		ldr	r3, [r4, #4]
 573 004a 002B     		cmp	r3, #0
 574 004c 00F09580 		beq	.L106
 575              	.L60:
 576              		.loc 1 756 0
 577 0050 636A     		ldr	r3, [r4, #36]
 578 0052 002B     		cmp	r3, #0
 579 0054 00F09E80 		beq	.L107
 580              	.L61:
 581              		.loc 1 758 0
 582 0058 197A     		ldrb	r1, [r3, #8]	@ zero_extendqisi2
 583              	.LVL63:
 584              		.loc 1 766 0
 585 005a 6068     		ldr	r0, [r4, #4]
 586              		.loc 1 760 0
 587 005c 01F00206 		and	r6, r1, #2
 588              		.loc 1 762 0
 589 0060 A1F10307 		sub	r7, r1, #3
 590 0064 B7FA87F7 		clz	r7, r7
 591 0068 7F09     		lsrs	r7, r7, #5
 592              		.loc 1 760 0
 593 006a F6B2     		uxtb	r6, r6
 594              		.loc 1 759 0
 595 006c 01F00105 		and	r5, r1, #1
 596              	.LVL64:
 597              		.loc 1 765 0
 598 0070 002F     		cmp	r7, #0
 599 0072 69D1     		bne	.L108
 600              		.loc 1 768 0
 601 0074 037E     		ldrb	r3, [r0, #24]	@ zero_extendqisi2
 602 0076 012B     		cmp	r3, #1
 603 0078 00F0A780 		beq	.L109
 604              	.LVL65:
 605              	.L81:
 606              		.loc 1 772 0
 607 007c 002D     		cmp	r5, #0
 608 007e 58D1     		bne	.L110
 609              		.loc 1 776 0
 610 0080 002E     		cmp	r6, #0
 611 0082 36D1     		bne	.L111
 612              	.L65:
 613              		.loc 1 779 0
 614 0084 002F     		cmp	r7, #0
 615 0086 3AD1     		bne	.L112
 616              	.L66:
 617              		.loc 1 788 0
 618 0088 2946     		mov	r1, r5
 619 008a 3246     		mov	r2, r6
 620 008c FFF7FEFF 		bl	tcp_shutdown
 621              	.LVL66:
 622              		.loc 1 790 0
ARM GAS  C:\Users\jo\AppData\Local\Temp\ccLDsGlj.s 			page 12


 623 0090 C0B9     		cbnz	r0, .L68
 624              		.loc 1 792 0
 625 0092 636A     		ldr	r3, [r4, #36]
 626 0094 1871     		strb	r0, [r3, #4]
 627              		.loc 1 793 0
 628 0096 6062     		str	r0, [r4, #36]
 629              		.loc 1 794 0
 630 0098 6070     		strb	r0, [r4, #1]
 631              	.LVL67:
 632              	.L76:
 633              		.loc 1 802 0
 634 009a 2DB1     		cbz	r5, .L71
 635              		.loc 1 803 0
 636 009c A36A     		ldr	r3, [r4, #40]
 637 009e 53B1     		cbz	r3, .L73
 638              		.loc 1 803 0 is_stmt 0 discriminator 1
 639 00a0 0021     		movs	r1, #0
 640 00a2 0A46     		mov	r2, r1
 641 00a4 2046     		mov	r0, r4
 642 00a6 9847     		blx	r3
 643              	.LVL68:
 644              	.L71:
 645              		.loc 1 805 0 is_stmt 1
 646 00a8 2EB1     		cbz	r6, .L73
 647              		.loc 1 806 0
 648 00aa A36A     		ldr	r3, [r4, #40]
 649 00ac 1BB1     		cbz	r3, .L73
 650              		.loc 1 806 0 is_stmt 0 discriminator 1
 651 00ae 2046     		mov	r0, r4
 652 00b0 0221     		movs	r1, #2
 653 00b2 0022     		movs	r2, #0
 654 00b4 9847     		blx	r3
 655              	.LVL69:
 656              	.L73:
 657              		.loc 1 809 0 is_stmt 1
 658 00b6 04F10C00 		add	r0, r4, #12
 659              		.loc 1 822 0
 660 00ba 03B0     		add	sp, sp, #12
 661              		.cfi_remember_state
 662              		.cfi_def_cfa_offset 20
 663              		@ sp needed
 664 00bc BDE8F040 		pop	{r4, r5, r6, r7, lr}
 665              		.cfi_restore 14
 666              		.cfi_restore 7
 667              		.cfi_restore 6
 668              		.cfi_restore 5
 669              		.cfi_restore 4
 670              		.cfi_def_cfa_offset 0
 671              	.LVL70:
 672              		.loc 1 809 0
 673 00c0 FFF7FEBF 		b	sys_sem_signal
 674              	.LVL71:
 675              	.L68:
 676              		.cfi_restore_state
 677              		.loc 1 813 0
 678 00c4 6068     		ldr	r0, [r4, #4]
 679              	.LVL72:
ARM GAS  C:\Users\jo\AppData\Local\Temp\ccLDsGlj.s 			page 13


 680 00c6 037E     		ldrb	r3, [r0, #24]	@ zero_extendqisi2
 681 00c8 012B     		cmp	r3, #1
 682 00ca 48D0     		beq	.L113
 683              	.L75:
 684              		.loc 1 814 0
 685 00cc 4649     		ldr	r1, .L114+20
 686 00ce FFF7FEFF 		bl	tcp_sent
 687              	.LVL73:
 688              		.loc 1 815 0
 689 00d2 6068     		ldr	r0, [r4, #4]
 690 00d4 4549     		ldr	r1, .L114+24
 691 00d6 0422     		movs	r2, #4
 692 00d8 FFF7FEFF 		bl	tcp_poll
 693              	.LVL74:
 694              		.loc 1 816 0
 695 00dc 6068     		ldr	r0, [r4, #4]
 696 00de 4449     		ldr	r1, .L114+28
 697 00e0 FFF7FEFF 		bl	tcp_err
 698              	.LVL75:
 699              		.loc 1 817 0
 700 00e4 6068     		ldr	r0, [r4, #4]
 701 00e6 2146     		mov	r1, r4
 702              		.loc 1 822 0
 703 00e8 03B0     		add	sp, sp, #12
 704              		.cfi_remember_state
 705              		.cfi_def_cfa_offset 20
 706              		@ sp needed
 707 00ea BDE8F040 		pop	{r4, r5, r6, r7, lr}
 708              		.cfi_restore 14
 709              		.cfi_restore 7
 710              		.cfi_restore 6
 711              		.cfi_restore 5
 712              		.cfi_restore 4
 713              		.cfi_def_cfa_offset 0
 714              	.LVL76:
 715              		.loc 1 817 0
 716 00ee FFF7FEBF 		b	tcp_arg
 717              	.LVL77:
 718              	.L111:
 719              		.cfi_restore_state
 720              		.loc 1 777 0
 721 00f2 0021     		movs	r1, #0
 722 00f4 FFF7FEFF 		bl	tcp_sent
 723              	.LVL78:
 724 00f8 6068     		ldr	r0, [r4, #4]
 725              		.loc 1 779 0
 726 00fa 002F     		cmp	r7, #0
 727 00fc C4D0     		beq	.L66
 728              	.L112:
 729              		.loc 1 780 0
 730 00fe 0021     		movs	r1, #0
 731 0100 0422     		movs	r2, #4
 732 0102 FFF7FEFF 		bl	tcp_poll
 733              	.LVL79:
 734              		.loc 1 781 0
 735 0106 6068     		ldr	r0, [r4, #4]
 736 0108 0021     		movs	r1, #0
ARM GAS  C:\Users\jo\AppData\Local\Temp\ccLDsGlj.s 			page 14


 737 010a FFF7FEFF 		bl	tcp_err
 738              	.LVL80:
 739              	.L79:
 740              		.loc 1 786 0
 741 010e 6068     		ldr	r0, [r4, #4]
 742 0110 FFF7FEFF 		bl	tcp_close
 743              	.LVL81:
 744              		.loc 1 790 0
 745 0114 0028     		cmp	r0, #0
 746 0116 D5D1     		bne	.L68
 747              		.loc 1 792 0
 748 0118 636A     		ldr	r3, [r4, #36]
 749 011a 1871     		strb	r0, [r3, #4]
 750              		.loc 1 800 0
 751 011c A36A     		ldr	r3, [r4, #40]
 752              		.loc 1 793 0
 753 011e 6062     		str	r0, [r4, #36]
 754              		.loc 1 794 0
 755 0120 6070     		strb	r0, [r4, #1]
 756              		.loc 1 797 0
 757 0122 6060     		str	r0, [r4, #4]
 758              		.loc 1 800 0
 759 0124 002B     		cmp	r3, #0
 760 0126 BFD0     		beq	.L71
 761              		.loc 1 800 0 is_stmt 0 discriminator 1
 762 0128 0246     		mov	r2, r0
 763 012a 0421     		movs	r1, #4
 764 012c 2046     		mov	r0, r4
 765              	.LVL82:
 766 012e 9847     		blx	r3
 767              	.LVL83:
 768 0130 B3E7     		b	.L76
 769              	.L110:
 770              		.loc 1 773 0 is_stmt 1
 771 0132 0021     		movs	r1, #0
 772 0134 FFF7FEFF 		bl	tcp_recv
 773              	.LVL84:
 774              		.loc 1 774 0
 775 0138 6068     		ldr	r0, [r4, #4]
 776 013a 0021     		movs	r1, #0
 777 013c FFF7FEFF 		bl	tcp_accept
 778              	.LVL85:
 779 0140 6068     		ldr	r0, [r4, #4]
 780              		.loc 1 776 0
 781 0142 002E     		cmp	r6, #0
 782 0144 9ED0     		beq	.L65
 783 0146 D4E7     		b	.L111
 784              	.LVL86:
 785              	.L108:
 786              		.loc 1 766 0
 787 0148 0021     		movs	r1, #0
 788              	.LVL87:
 789 014a FFF7FEFF 		bl	tcp_arg
 790              	.LVL88:
 791              		.loc 1 768 0
 792 014e 6068     		ldr	r0, [r4, #4]
 793 0150 037E     		ldrb	r3, [r0, #24]	@ zero_extendqisi2
ARM GAS  C:\Users\jo\AppData\Local\Temp\ccLDsGlj.s 			page 15


 794 0152 012B     		cmp	r3, #1
 795 0154 92D1     		bne	.L81
 796              		.loc 1 769 0
 797 0156 0021     		movs	r1, #0
 798 0158 FFF7FEFF 		bl	tcp_accept
 799              	.LVL89:
 800 015c D7E7     		b	.L79
 801              	.L113:
 802              		.loc 1 813 0 discriminator 1
 803 015e 1D4B     		ldr	r3, .L114
 804 0160 0093     		str	r3, [sp]
 805 0162 1E49     		ldr	r1, .L114+8
 806 0164 234A     		ldr	r2, .L114+32
 807 0166 1C48     		ldr	r0, .L114+4
 808 0168 40F22D33 		movw	r3, #813
 809 016c FFF7FEFF 		bl	chprintf.constprop.1
 810              	.LVL90:
 811              	.LBB99:
 812              	.LBB100:
 813              		.loc 3 414 0 discriminator 1
 814 0170 2048     		ldr	r0, .L114+32
 815 0172 FFF7FEFF 		bl	chSysHalt
 816              	.LVL91:
 817 0176 6068     		ldr	r0, [r4, #4]
 818 0178 A8E7     		b	.L75
 819              	.LVL92:
 820              	.L106:
 821              	.LBE100:
 822              	.LBE99:
 823              		.loc 1 755 0 discriminator 1
 824 017a 164B     		ldr	r3, .L114
 825 017c 0093     		str	r3, [sp]
 826 017e 1749     		ldr	r1, .L114+8
 827 0180 1D4A     		ldr	r2, .L114+36
 828 0182 1548     		ldr	r0, .L114+4
 829 0184 40F2F323 		movw	r3, #755
 830 0188 FFF7FEFF 		bl	chprintf.constprop.1
 831              	.LVL93:
 832              	.LBB101:
 833              	.LBB102:
 834              		.loc 3 414 0 discriminator 1
 835 018c 1A48     		ldr	r0, .L114+36
 836 018e FFF7FEFF 		bl	chSysHalt
 837              	.LVL94:
 838 0192 5DE7     		b	.L60
 839              	.LVL95:
 840              	.L107:
 841              	.LBE102:
 842              	.LBE101:
 843              		.loc 1 756 0 discriminator 1
 844 0194 0F4B     		ldr	r3, .L114
 845 0196 0093     		str	r3, [sp]
 846 0198 1049     		ldr	r1, .L114+8
 847 019a 184A     		ldr	r2, .L114+40
 848 019c 0E48     		ldr	r0, .L114+4
 849 019e 4FF43D73 		mov	r3, #756
 850 01a2 FFF7FEFF 		bl	chprintf.constprop.1
ARM GAS  C:\Users\jo\AppData\Local\Temp\ccLDsGlj.s 			page 16


 851              	.LVL96:
 852              	.LBB103:
 853              	.LBB104:
 854              		.loc 3 414 0 discriminator 1
 855 01a6 1548     		ldr	r0, .L114+40
 856 01a8 FFF7FEFF 		bl	chSysHalt
 857              	.LVL97:
 858 01ac 636A     		ldr	r3, [r4, #36]
 859 01ae 53E7     		b	.L61
 860              	.LVL98:
 861              	.L105:
 862              	.LBE104:
 863              	.LBE103:
 864              		.loc 1 752 0 discriminator 1
 865 01b0 084B     		ldr	r3, .L114
 866 01b2 0093     		str	r3, [sp]
 867 01b4 0949     		ldr	r1, .L114+8
 868 01b6 124A     		ldr	r2, .L114+44
 869 01b8 0748     		ldr	r0, .L114+4
 870              	.LVL99:
 871 01ba 4FF43C73 		mov	r3, #752
 872 01be FFF7FEFF 		bl	chprintf.constprop.1
 873              	.LVL100:
 874              	.LBB105:
 875              	.LBB106:
 876              		.loc 3 414 0 discriminator 1
 877 01c2 0F48     		ldr	r0, .L114+44
 878 01c4 FFF7FEFF 		bl	chSysHalt
 879              	.LVL101:
 880 01c8 20E7     		b	.L57
 881              	.LVL102:
 882              	.L109:
 883              	.LBE106:
 884              	.LBE105:
 885              		.loc 1 769 0
 886 01ca 3946     		mov	r1, r7
 887              	.LVL103:
 888 01cc FFF7FEFF 		bl	tcp_accept
 889              	.LVL104:
 890 01d0 6068     		ldr	r0, [r4, #4]
 891 01d2 59E7     		b	.L66
 892              	.L115:
 893              		.align	2
 894              	.L114:
 895 01d4 4C000000 		.word	.LC2
 896 01d8 00000000 		.word	itm_port
 897 01dc 00000000 		.word	.LC0
 898 01e0 CC000000 		.word	.LC6
 899 01e4 EC000000 		.word	.LC7
 900 01e8 00000000 		.word	sent_tcp
 901 01ec 00000000 		.word	poll_tcp
 902 01f0 00000000 		.word	err_tcp
 903 01f4 40010000 		.word	.LC10
 904 01f8 10010000 		.word	.LC8
 905 01fc 24010000 		.word	.LC9
 906 0200 BC000000 		.word	.LC5
 907              		.cfi_endproc
ARM GAS  C:\Users\jo\AppData\Local\Temp\ccLDsGlj.s 			page 17


 908              	.LFE269:
 909              		.size	do_close_internal, .-do_close_internal
 910 0204 AFF30080 		.section	.text.do_writemore,"ax",%progbits
 910      AFF30080 
 910      AFF30080 
 911              		.align	2
 912              		.p2align 4,,15
 913              		.thumb
 914              		.thumb_func
 915              		.type	do_writemore, %function
 916              	do_writemore:
 917              	.LFB278:
 918              		.loc 1 1209 0
 919              		.cfi_startproc
 920              		@ args = 0, pretend = 0, frame = 0
 921              		@ frame_needed = 0, uses_anonymous_args = 0
 922              	.LVL105:
 923 0000 2DE9F043 		push	{r4, r5, r6, r7, r8, r9, lr}
 924              		.cfi_def_cfa_offset 28
 925              		.cfi_offset 4, -28
 926              		.cfi_offset 5, -24
 927              		.cfi_offset 6, -20
 928              		.cfi_offset 7, -16
 929              		.cfi_offset 8, -12
 930              		.cfi_offset 9, -8
 931              		.cfi_offset 14, -4
 932              		.loc 1 1215 0
 933 0004 037F     		ldrb	r3, [r0, #28]	@ zero_extendqisi2
 934 0006 13F0020F 		tst	r3, #2
 935 000a 436A     		ldr	r3, [r0, #36]
 936              		.loc 1 1216 0
 937 000c 0CBF     		ite	eq
 938 000e 1E7C     		ldrbeq	r6, [r3, #16]	@ zero_extendqisi2
 939 0010 1E7C     		ldrbne	r6, [r3, #16]	@ zero_extendqisi2
 940              		.loc 1 1220 0
 941 0012 4378     		ldrb	r3, [r0, #1]	@ zero_extendqisi2
 942              		.loc 1 1215 0
 943 0014 14BF     		ite	ne
 944 0016 4FF00108 		movne	r8, #1
 945 001a C6F38008 		ubfxeq	r8, r6, #2, #1
 946              	.LVL106:
 947              		.loc 1 1220 0
 948 001e 012B     		cmp	r3, #1
 949              		.loc 1 1209 0
 950 0020 83B0     		sub	sp, sp, #12
 951              		.cfi_def_cfa_offset 40
 952              		.loc 1 1209 0
 953 0022 0446     		mov	r4, r0
 954              		.loc 1 1220 0
 955 0024 0FD0     		beq	.L119
 956              		.loc 1 1220 0 is_stmt 0 discriminator 1
 957 0026 6E4D     		ldr	r5, .L169
 958 0028 6E49     		ldr	r1, .L169+4
 959 002a 6F4A     		ldr	r2, .L169+8
 960 002c 0095     		str	r5, [sp]
 961 002e 40F2C443 		movw	r3, #1220
 962 0032 6E48     		ldr	r0, .L169+12
ARM GAS  C:\Users\jo\AppData\Local\Temp\ccLDsGlj.s 			page 18


 963              	.LVL107:
 964 0034 FFF7FEFF 		bl	chprintf.constprop.1
 965              	.LVL108:
 966              	.LBB107:
 967              	.LBB108:
 968              		.loc 3 414 0 is_stmt 1 discriminator 1
 969 0038 6B48     		ldr	r0, .L169+8
 970 003a FFF7FEFF 		bl	chSysHalt
 971              	.LVL109:
 972              	.LBE108:
 973              	.LBE107:
 974              		.loc 1 1221 0 discriminator 1
 975 003e 636A     		ldr	r3, [r4, #36]
 976 0040 002B     		cmp	r3, #0
 977 0042 00F0A080 		beq	.L162
 978              	.LVL110:
 979              	.L119:
 980              		.loc 1 1222 0
 981 0046 6368     		ldr	r3, [r4, #4]
 982 0048 002B     		cmp	r3, #0
 983 004a 00F0AE80 		beq	.L163
 984              	.L120:
 985              		.loc 1 1223 0
 986 004e 616A     		ldr	r1, [r4, #36]
 987 0050 236A     		ldr	r3, [r4, #32]
 988 0052 CA68     		ldr	r2, [r1, #12]
 989 0054 9342     		cmp	r3, r2
 990 0056 54D2     		bcs	.L164
 991              	.L121:
 992              		.loc 1 1253 0
 993 0058 6068     		ldr	r0, [r4, #4]
 994              		.loc 1 1242 0
 995 005a 8F68     		ldr	r7, [r1, #8]
 996              		.loc 1 1253 0
 997 005c B0F86690 		ldrh	r9, [r0, #102]
 998              		.loc 1 1243 0
 999 0060 D51A     		subs	r5, r2, r3
 1000              		.loc 1 1244 0
 1001 0062 B5F5803F 		cmp	r5, #65536
 1002              		.loc 1 1245 0
 1003 0066 2ABF     		itet	cs
 1004 0068 4FF6FF75 		movwcs	r5, #65535
 1005              		.loc 1 1251 0
 1006 006c ADB2     		uxthcc	r5, r5
 1007              		.loc 1 1249 0
 1008 006e 46F00206 		orrcs	r6, r6, #2
 1009              	.LVL111:
 1010              		.loc 1 1254 0
 1011 0072 4D45     		cmp	r5, r9
 1012              		.loc 1 1242 0
 1013 0074 1F44     		add	r7, r7, r3
 1014              	.LVL112:
 1015              		.loc 1 1254 0
 1016 0076 33D9     		bls	.L124
 1017              	.LVL113:
 1018              		.loc 1 1257 0
 1019 0078 B8F1000F 		cmp	r8, #0
ARM GAS  C:\Users\jo\AppData\Local\Temp\ccLDsGlj.s 			page 19


 1020 007c 2DD0     		beq	.L125
 1021              		.loc 1 1258 0
 1022 007e B9F1000F 		cmp	r9, #0
 1023 0082 2CD1     		bne	.L160
 1024              	.LVL114:
 1025              		.loc 1 1274 0
 1026 0084 002A     		cmp	r2, #0
 1027 0086 40F09D80 		bne	.L144
 1028              		.loc 1 1283 0
 1029 008a A36A     		ldr	r3, [r4, #40]
 1030              		.loc 1 1259 0
 1031 008c F926     		movs	r6, #249
 1032              	.LVL115:
 1033              		.loc 1 1283 0
 1034 008e 002B     		cmp	r3, #0
 1035 0090 67D0     		beq	.L134
 1036 0092 1546     		mov	r5, r2
 1037 0094 2046     		mov	r0, r4
 1038 0096 0321     		movs	r1, #3
 1039 0098 2A46     		mov	r2, r5
 1040 009a 9847     		blx	r3
 1041              	.LVL116:
 1042              	.L132:
 1043              		.loc 1 1287 0
 1044 009c 002E     		cmp	r6, #0
 1045 009e 60D1     		bne	.L134
 1046              		.loc 1 1288 0
 1047 00a0 236A     		ldr	r3, [r4, #32]
 1048              		.loc 1 1289 0
 1049 00a2 626A     		ldr	r2, [r4, #36]
 1050              		.loc 1 1288 0
 1051 00a4 1D44     		add	r5, r5, r3
 1052              	.LVL117:
 1053 00a6 2562     		str	r5, [r4, #32]
 1054              		.loc 1 1289 0
 1055 00a8 D368     		ldr	r3, [r2, #12]
 1056 00aa 9D42     		cmp	r5, r3
 1057 00ac 02D0     		beq	.L135
 1058              		.loc 1 1289 0 is_stmt 0 discriminator 1
 1059 00ae B8F1000F 		cmp	r8, #0
 1060 00b2 5CD0     		beq	.L136
 1061              	.L135:
 1062              		.loc 1 1291 0 is_stmt 1
 1063 00b4 D560     		str	r5, [r2, #12]
 1064              	.LVL118:
 1065              		.loc 1 1294 0
 1066 00b6 0023     		movs	r3, #0
 1067              		.loc 1 1296 0
 1068 00b8 6068     		ldr	r0, [r4, #4]
 1069              		.loc 1 1294 0
 1070 00ba 2362     		str	r3, [r4, #32]
 1071              		.loc 1 1296 0
 1072 00bc FFF7FEFF 		bl	tcp_output
 1073              	.LVL119:
 1074              	.L137:
 1075              		.loc 1 1318 0
 1076 00c0 626A     		ldr	r2, [r4, #36]
ARM GAS  C:\Users\jo\AppData\Local\Temp\ccLDsGlj.s 			page 20


 1077              		.loc 1 1319 0
 1078 00c2 0023     		movs	r3, #0
 1079              		.loc 1 1318 0
 1080 00c4 1671     		strb	r6, [r2, #4]
 1081              		.loc 1 1325 0
 1082 00c6 04F10C00 		add	r0, r4, #12
 1083              		.loc 1 1319 0
 1084 00ca 6362     		str	r3, [r4, #36]
 1085              		.loc 1 1320 0
 1086 00cc 6370     		strb	r3, [r4, #1]
 1087              		.loc 1 1325 0
 1088 00ce FFF7FEFF 		bl	sys_sem_signal
 1089              	.LVL120:
 1090              		.loc 1 1333 0
 1091 00d2 0020     		movs	r0, #0
 1092 00d4 03B0     		add	sp, sp, #12
 1093              		.cfi_remember_state
 1094              		.cfi_def_cfa_offset 28
 1095              		@ sp needed
 1096 00d6 BDE8F083 		pop	{r4, r5, r6, r7, r8, r9, pc}
 1097              	.LVL121:
 1098              	.L125:
 1099              		.cfi_restore_state
 1100              		.loc 1 1266 0
 1101 00da 46F00206 		orr	r6, r6, #2
 1102              	.LVL122:
 1103              	.L160:
 1104 00de 4D46     		mov	r5, r9
 1105              	.LVL123:
 1106              	.L124:
 1107              		.loc 1 1269 0
 1108 00e0 2B44     		add	r3, r3, r5
 1109 00e2 9342     		cmp	r3, r2
 1110 00e4 1DD8     		bhi	.L165
 1111              	.L127:
 1112              		.loc 1 1270 0
 1113 00e6 3346     		mov	r3, r6
 1114 00e8 3946     		mov	r1, r7
 1115 00ea 2A46     		mov	r2, r5
 1116 00ec FFF7FEFF 		bl	tcp_write
 1117              	.LVL124:
 1118              		.loc 1 1272 0
 1119 00f0 431C     		adds	r3, r0, #1
 1120 00f2 DBB2     		uxtb	r3, r3
 1121 00f4 012B     		cmp	r3, #1
 1122              		.loc 1 1270 0
 1123 00f6 0646     		mov	r6, r0
 1124              	.LVL125:
 1125              		.loc 1 1272 0
 1126 00f8 21D9     		bls	.L166
 1127              	.LVL126:
 1128              	.L138:
 1129              		.loc 1 1312 0
 1130 00fa 636A     		ldr	r3, [r4, #36]
 1131 00fc 0022     		movs	r2, #0
 1132 00fe DA60     		str	r2, [r3, #12]
 1133 0100 DEE7     		b	.L137
ARM GAS  C:\Users\jo\AppData\Local\Temp\ccLDsGlj.s 			page 21


 1134              	.LVL127:
 1135              	.L164:
 1136              		.loc 1 1223 0 discriminator 1
 1137 0102 374B     		ldr	r3, .L169
 1138 0104 3749     		ldr	r1, .L169+4
 1139 0106 3A4A     		ldr	r2, .L169+16
 1140 0108 0093     		str	r3, [sp]
 1141 010a 3848     		ldr	r0, .L169+12
 1142 010c 4FF49963 		mov	r3, #1224
 1143 0110 FFF7FEFF 		bl	chprintf.constprop.1
 1144              	.LVL128:
 1145              	.LBB109:
 1146              	.LBB110:
 1147              		.loc 3 414 0 discriminator 1
 1148 0114 3648     		ldr	r0, .L169+16
 1149 0116 FFF7FEFF 		bl	chSysHalt
 1150              	.LVL129:
 1151 011a 616A     		ldr	r1, [r4, #36]
 1152 011c 236A     		ldr	r3, [r4, #32]
 1153 011e CA68     		ldr	r2, [r1, #12]
 1154 0120 9AE7     		b	.L121
 1155              	.LVL130:
 1156              	.L165:
 1157              	.LBE110:
 1158              	.LBE109:
 1159              		.loc 1 1269 0 discriminator 1
 1160 0122 2F4B     		ldr	r3, .L169
 1161 0124 0093     		str	r3, [sp]
 1162 0126 2F49     		ldr	r1, .L169+4
 1163 0128 324A     		ldr	r2, .L169+20
 1164 012a 3048     		ldr	r0, .L169+12
 1165 012c 40F2F543 		movw	r3, #1269
 1166 0130 FFF7FEFF 		bl	chprintf.constprop.1
 1167              	.LVL131:
 1168              	.LBB111:
 1169              	.LBB112:
 1170              		.loc 3 414 0 discriminator 1
 1171 0134 2F48     		ldr	r0, .L169+20
 1172 0136 FFF7FEFF 		bl	chSysHalt
 1173              	.LVL132:
 1174 013a 6068     		ldr	r0, [r4, #4]
 1175 013c D3E7     		b	.L127
 1176              	.LVL133:
 1177              	.L166:
 1178              	.L129:
 1179              	.LBE112:
 1180              	.LBE111:
 1181              		.loc 1 1274 0
 1182 013e B8F1000F 		cmp	r8, #0
 1183 0142 2CD1     		bne	.L167
 1184              	.L130:
 1185              		.loc 1 1279 0
 1186 0144 6368     		ldr	r3, [r4, #4]
 1187 0146 B3F86610 		ldrh	r1, [r3, #102]
 1188 014a 40F2B452 		movw	r2, #1460
 1189 014e 9142     		cmp	r1, r2
 1190 0150 14D8     		bhi	.L168
ARM GAS  C:\Users\jo\AppData\Local\Temp\ccLDsGlj.s 			page 22


 1191              	.L133:
 1192              		.loc 1 1283 0
 1193 0152 A36A     		ldr	r3, [r4, #40]
 1194 0154 002B     		cmp	r3, #0
 1195 0156 A1D0     		beq	.L132
 1196 0158 2046     		mov	r0, r4
 1197 015a 0321     		movs	r1, #3
 1198 015c 2A46     		mov	r2, r5
 1199 015e 9847     		blx	r3
 1200              	.LVL134:
 1201 0160 9CE7     		b	.L132
 1202              	.LVL135:
 1203              	.L134:
 1204              		.loc 1 1297 0
 1205 0162 73B2     		sxtb	r3, r6
 1206 0164 0133     		adds	r3, r3, #1
 1207 0166 C8D1     		bne	.L138
 1208              		.loc 1 1297 0 is_stmt 0 discriminator 1
 1209 0168 B8F1000F 		cmp	r8, #0
 1210 016c C5D1     		bne	.L138
 1211              	.L136:
 1212              		.loc 1 1296 0 is_stmt 1
 1213 016e 6068     		ldr	r0, [r4, #4]
 1214 0170 FFF7FEFF 		bl	tcp_output
 1215              	.LVL136:
 1216              		.loc 1 1333 0
 1217 0174 0020     		movs	r0, #0
 1218 0176 03B0     		add	sp, sp, #12
 1219              		.cfi_remember_state
 1220              		.cfi_def_cfa_offset 28
 1221              		@ sp needed
 1222 0178 BDE8F083 		pop	{r4, r5, r6, r7, r8, r9, pc}
 1223              	.LVL137:
 1224              	.L168:
 1225              		.cfi_restore_state
 1226              		.loc 1 1279 0 discriminator 1
 1227 017c B3F86830 		ldrh	r3, [r3, #104]
 1228 0180 032B     		cmp	r3, #3
 1229 0182 8BD9     		bls	.L132
 1230 0184 E5E7     		b	.L133
 1231              	.LVL138:
 1232              	.L162:
 1233              		.loc 1 1221 0 discriminator 1
 1234 0186 0095     		str	r5, [sp]
 1235 0188 1649     		ldr	r1, .L169+4
 1236 018a 1B4A     		ldr	r2, .L169+24
 1237 018c 1748     		ldr	r0, .L169+12
 1238 018e 40F2C543 		movw	r3, #1221
 1239 0192 FFF7FEFF 		bl	chprintf.constprop.1
 1240              	.LVL139:
 1241              	.LBB113:
 1242              	.LBB114:
 1243              		.loc 3 414 0 discriminator 1
 1244 0196 1848     		ldr	r0, .L169+24
 1245 0198 FFF7FEFF 		bl	chSysHalt
 1246              	.LVL140:
 1247 019c 53E7     		b	.L119
ARM GAS  C:\Users\jo\AppData\Local\Temp\ccLDsGlj.s 			page 23


 1248              	.LVL141:
 1249              	.L167:
 1250 019e 636A     		ldr	r3, [r4, #36]
 1251              	.LBE114:
 1252              	.LBE113:
 1253              		.loc 1 1274 0
 1254 01a0 DB68     		ldr	r3, [r3, #12]
 1255 01a2 9D42     		cmp	r5, r3
 1256 01a4 CED2     		bcs	.L130
 1257 01a6 A946     		mov	r9, r5
 1258              	.LVL142:
 1259 01a8 0DE0     		b	.L140
 1260              	.LVL143:
 1261              	.L163:
 1262              		.loc 1 1222 0 discriminator 1
 1263 01aa 0D4B     		ldr	r3, .L169
 1264 01ac 0093     		str	r3, [sp]
 1265 01ae 0D49     		ldr	r1, .L169+4
 1266 01b0 124A     		ldr	r2, .L169+28
 1267 01b2 0E48     		ldr	r0, .L169+12
 1268 01b4 40F2C643 		movw	r3, #1222
 1269 01b8 FFF7FEFF 		bl	chprintf.constprop.1
 1270              	.LVL144:
 1271              	.LBB115:
 1272              	.LBB116:
 1273              		.loc 3 414 0 discriminator 1
 1274 01bc 0F48     		ldr	r0, .L169+28
 1275 01be FFF7FEFF 		bl	chSysHalt
 1276              	.LVL145:
 1277 01c2 44E7     		b	.L120
 1278              	.LVL146:
 1279              	.L144:
 1280              	.LBE116:
 1281              	.LBE115:
 1282              		.loc 1 1259 0
 1283 01c4 F926     		movs	r6, #249
 1284              	.LVL147:
 1285              	.L140:
 1286              		.loc 1 1277 0
 1287 01c6 A36A     		ldr	r3, [r4, #40]
 1288 01c8 1BB1     		cbz	r3, .L131
 1289              		.loc 1 1277 0 is_stmt 0 discriminator 1
 1290 01ca 2046     		mov	r0, r4
 1291 01cc 0321     		movs	r1, #3
 1292 01ce 4A46     		mov	r2, r9
 1293 01d0 9847     		blx	r3
 1294              	.LVL148:
 1295              	.L131:
 1296              		.loc 1 1278 0 is_stmt 1
 1297 01d2 237F     		ldrb	r3, [r4, #28]	@ zero_extendqisi2
 1298 01d4 43F01003 		orr	r3, r3, #16
 1299 01d8 4D46     		mov	r5, r9
 1300 01da 2377     		strb	r3, [r4, #28]
 1301 01dc 5EE7     		b	.L132
 1302              	.L170:
 1303 01de 00BF     		.align	2
 1304              	.L169:
ARM GAS  C:\Users\jo\AppData\Local\Temp\ccLDsGlj.s 			page 24


 1305 01e0 4C000000 		.word	.LC2
 1306 01e4 00000000 		.word	.LC0
 1307 01e8 64010000 		.word	.LC11
 1308 01ec 00000000 		.word	itm_port
 1309 01f0 9C010000 		.word	.LC13
 1310 01f4 D0010000 		.word	.LC14
 1311 01f8 24010000 		.word	.LC9
 1312 01fc 84010000 		.word	.LC12
 1313              		.cfi_endproc
 1314              	.LFE278:
 1315              		.size	do_writemore, .-do_writemore
 1316              		.section	.text.poll_tcp,"ax",%progbits
 1317              		.align	2
 1318              		.p2align 4,,15
 1319              		.thumb
 1320              		.thumb_func
 1321              		.type	poll_tcp, %function
 1322              	poll_tcp:
 1323              	.LFB259:
 1324              		.loc 1 278 0
 1325              		.cfi_startproc
 1326              		@ args = 0, pretend = 0, frame = 0
 1327              		@ frame_needed = 0, uses_anonymous_args = 0
 1328              	.LVL149:
 1329 0000 30B5     		push	{r4, r5, lr}
 1330              		.cfi_def_cfa_offset 12
 1331              		.cfi_offset 4, -12
 1332              		.cfi_offset 5, -8
 1333              		.cfi_offset 14, -4
 1334              		.loc 1 282 0
 1335 0002 0446     		mov	r4, r0
 1336              		.loc 1 278 0
 1337 0004 83B0     		sub	sp, sp, #12
 1338              		.cfi_def_cfa_offset 24
 1339              		.loc 1 282 0
 1340 0006 38B3     		cbz	r0, .L185
 1341              	.LVL150:
 1342              	.L172:
 1343              		.loc 1 284 0
 1344 0008 6378     		ldrb	r3, [r4, #1]	@ zero_extendqisi2
 1345 000a 012B     		cmp	r3, #1
 1346 000c 1CD0     		beq	.L186
 1347              		.loc 1 286 0
 1348 000e 042B     		cmp	r3, #4
 1349 0010 1ED0     		beq	.L187
 1350              	.L174:
 1351              		.loc 1 292 0
 1352 0012 237F     		ldrb	r3, [r4, #28]	@ zero_extendqisi2
 1353 0014 DA06     		lsls	r2, r3, #27
 1354 0016 14D5     		bpl	.L176
 1355              		.loc 1 295 0
 1356 0018 6268     		ldr	r2, [r4, #4]
 1357 001a 92B1     		cbz	r2, .L176
 1358              		.loc 1 295 0 is_stmt 0 discriminator 1
 1359 001c B2F86600 		ldrh	r0, [r2, #102]
 1360 0020 40F2B451 		movw	r1, #1460
 1361 0024 8842     		cmp	r0, r1
ARM GAS  C:\Users\jo\AppData\Local\Temp\ccLDsGlj.s 			page 25


 1362 0026 0CD9     		bls	.L176
 1363              		.loc 1 295 0 discriminator 2
 1364 0028 B2F86820 		ldrh	r2, [r2, #104]
 1365 002c 032A     		cmp	r2, #3
 1366 002e 08D8     		bhi	.L176
 1367              		.loc 1 298 0 is_stmt 1
 1368 0030 A56A     		ldr	r5, [r4, #40]
 1369              		.loc 1 297 0
 1370 0032 23F01003 		bic	r3, r3, #16
 1371 0036 2377     		strb	r3, [r4, #28]
 1372              		.loc 1 298 0
 1373 0038 1DB1     		cbz	r5, .L176
 1374              		.loc 1 298 0 is_stmt 0 discriminator 1
 1375 003a 2046     		mov	r0, r4
 1376 003c 0221     		movs	r1, #2
 1377 003e 0022     		movs	r2, #0
 1378 0040 A847     		blx	r5
 1379              	.LVL151:
 1380              	.L176:
 1381              		.loc 1 303 0 is_stmt 1
 1382 0042 0020     		movs	r0, #0
 1383 0044 03B0     		add	sp, sp, #12
 1384              		.cfi_remember_state
 1385              		.cfi_def_cfa_offset 12
 1386              		@ sp needed
 1387 0046 30BD     		pop	{r4, r5, pc}
 1388              	.LVL152:
 1389              	.L186:
 1390              		.cfi_restore_state
 1391              		.loc 1 285 0
 1392 0048 2046     		mov	r0, r4
 1393 004a FFF7FEFF 		bl	do_writemore
 1394              	.LVL153:
 1395 004e E0E7     		b	.L174
 1396              	.L187:
 1397              		.loc 1 287 0
 1398 0050 2046     		mov	r0, r4
 1399 0052 FFF7FEFF 		bl	do_close_internal
 1400              	.LVL154:
 1401 0056 DCE7     		b	.L174
 1402              	.LVL155:
 1403              	.L185:
 1404              		.loc 1 282 0 discriminator 1
 1405 0058 064B     		ldr	r3, .L188
 1406 005a 0093     		str	r3, [sp]
 1407 005c 0649     		ldr	r1, .L188+4
 1408              	.LVL156:
 1409 005e 074A     		ldr	r2, .L188+8
 1410 0060 0748     		ldr	r0, .L188+12
 1411              	.LVL157:
 1412 0062 4FF48D73 		mov	r3, #282
 1413 0066 FFF7FEFF 		bl	chprintf.constprop.1
 1414              	.LVL158:
 1415              	.LBB117:
 1416              	.LBB118:
 1417              		.loc 3 414 0 discriminator 1
 1418 006a 0448     		ldr	r0, .L188+8
ARM GAS  C:\Users\jo\AppData\Local\Temp\ccLDsGlj.s 			page 26


 1419 006c FFF7FEFF 		bl	chSysHalt
 1420              	.LVL159:
 1421 0070 CAE7     		b	.L172
 1422              	.L189:
 1423 0072 00BF     		.align	2
 1424              	.L188:
 1425 0074 4C000000 		.word	.LC2
 1426 0078 00000000 		.word	.LC0
 1427 007c F0010000 		.word	.LC15
 1428 0080 00000000 		.word	itm_port
 1429              	.LBE118:
 1430              	.LBE117:
 1431              		.cfi_endproc
 1432              	.LFE259:
 1433              		.size	poll_tcp, .-poll_tcp
 1434 0084 AFF30080 		.section	.text.sent_tcp,"ax",%progbits
 1434      AFF30080 
 1434      AFF30080 
 1435              		.align	2
 1436              		.p2align 4,,15
 1437              		.thumb
 1438              		.thumb_func
 1439              		.type	sent_tcp, %function
 1440              	sent_tcp:
 1441              	.LFB260:
 1442              		.loc 1 314 0
 1443              		.cfi_startproc
 1444              		@ args = 0, pretend = 0, frame = 0
 1445              		@ frame_needed = 0, uses_anonymous_args = 0
 1446              	.LVL160:
 1447 0000 70B5     		push	{r4, r5, r6, lr}
 1448              		.cfi_def_cfa_offset 16
 1449              		.cfi_offset 4, -16
 1450              		.cfi_offset 5, -12
 1451              		.cfi_offset 6, -8
 1452              		.cfi_offset 14, -4
 1453 0002 1546     		mov	r5, r2
 1454 0004 82B0     		sub	sp, sp, #8
 1455              		.cfi_def_cfa_offset 24
 1456              		.loc 1 318 0
 1457 0006 0446     		mov	r4, r0
 1458 0008 28B3     		cbz	r0, .L201
 1459              	.LVL161:
 1460              	.L191:
 1461              		.loc 1 320 0
 1462 000a 6378     		ldrb	r3, [r4, #1]	@ zero_extendqisi2
 1463 000c 012B     		cmp	r3, #1
 1464 000e 1AD0     		beq	.L202
 1465              		.loc 1 322 0
 1466 0010 042B     		cmp	r3, #4
 1467 0012 1CD0     		beq	.L203
 1468              	.L193:
 1469              		.loc 1 329 0
 1470 0014 6368     		ldr	r3, [r4, #4]
 1471 0016 9BB1     		cbz	r3, .L195
 1472              		.loc 1 329 0 is_stmt 0 discriminator 1
 1473 0018 B3F86610 		ldrh	r1, [r3, #102]
ARM GAS  C:\Users\jo\AppData\Local\Temp\ccLDsGlj.s 			page 27


 1474 001c 40F2B452 		movw	r2, #1460
 1475 0020 9142     		cmp	r1, r2
 1476 0022 0DD9     		bls	.L195
 1477              		.loc 1 329 0 discriminator 2
 1478 0024 B3F86830 		ldrh	r3, [r3, #104]
 1479 0028 032B     		cmp	r3, #3
 1480 002a 09D8     		bhi	.L195
 1481              	.LVL162:
 1482              	.LBB125:
 1483              	.LBB126:
 1484              		.loc 1 331 0 is_stmt 1
 1485 002c 237F     		ldrb	r3, [r4, #28]	@ zero_extendqisi2
 1486              		.loc 1 332 0
 1487 002e A66A     		ldr	r6, [r4, #40]
 1488              		.loc 1 331 0
 1489 0030 23F01003 		bic	r3, r3, #16
 1490 0034 2377     		strb	r3, [r4, #28]
 1491              		.loc 1 332 0
 1492 0036 1EB1     		cbz	r6, .L195
 1493 0038 2046     		mov	r0, r4
 1494 003a 2A46     		mov	r2, r5
 1495 003c 0221     		movs	r1, #2
 1496 003e B047     		blx	r6
 1497              	.LVL163:
 1498              	.L195:
 1499              	.LBE126:
 1500              	.LBE125:
 1501              		.loc 1 337 0
 1502 0040 0020     		movs	r0, #0
 1503 0042 02B0     		add	sp, sp, #8
 1504              		.cfi_remember_state
 1505              		.cfi_def_cfa_offset 16
 1506              		@ sp needed
 1507 0044 70BD     		pop	{r4, r5, r6, pc}
 1508              	.LVL164:
 1509              	.L202:
 1510              		.cfi_restore_state
 1511              		.loc 1 321 0
 1512 0046 2046     		mov	r0, r4
 1513 0048 FFF7FEFF 		bl	do_writemore
 1514              	.LVL165:
 1515 004c E2E7     		b	.L193
 1516              	.L203:
 1517              		.loc 1 323 0
 1518 004e 2046     		mov	r0, r4
 1519 0050 FFF7FEFF 		bl	do_close_internal
 1520              	.LVL166:
 1521 0054 DEE7     		b	.L193
 1522              	.LVL167:
 1523              	.L201:
 1524              		.loc 1 318 0 discriminator 1
 1525 0056 064B     		ldr	r3, .L204
 1526 0058 0093     		str	r3, [sp]
 1527 005a 0649     		ldr	r1, .L204+4
 1528              	.LVL168:
 1529 005c 064A     		ldr	r2, .L204+8
 1530              	.LVL169:
ARM GAS  C:\Users\jo\AppData\Local\Temp\ccLDsGlj.s 			page 28


 1531 005e 0748     		ldr	r0, .L204+12
 1532              	.LVL170:
 1533 0060 4FF49F73 		mov	r3, #318
 1534 0064 FFF7FEFF 		bl	chprintf.constprop.1
 1535              	.LVL171:
 1536              	.LBB127:
 1537              	.LBB128:
 1538              		.loc 3 414 0 discriminator 1
 1539 0068 0348     		ldr	r0, .L204+8
 1540 006a FFF7FEFF 		bl	chSysHalt
 1541              	.LVL172:
 1542 006e CCE7     		b	.L191
 1543              	.L205:
 1544              		.align	2
 1545              	.L204:
 1546 0070 4C000000 		.word	.LC2
 1547 0074 00000000 		.word	.LC0
 1548 0078 F0010000 		.word	.LC15
 1549 007c 00000000 		.word	itm_port
 1550              	.LBE128:
 1551              	.LBE127:
 1552              		.cfi_endproc
 1553              	.LFE260:
 1554              		.size	sent_tcp, .-sent_tcp
 1555              		.section	.text.do_connected,"ax",%progbits
 1556              		.align	2
 1557              		.p2align 4,,15
 1558              		.thumb
 1559              		.thumb_func
 1560              		.type	do_connected, %function
 1561              	do_connected:
 1562              	.LFB272:
 1563              		.loc 1 938 0
 1564              		.cfi_startproc
 1565              		@ args = 0, pretend = 0, frame = 0
 1566              		@ frame_needed = 0, uses_anonymous_args = 0
 1567              	.LVL173:
 1568 0000 30B5     		push	{r4, r5, lr}
 1569              		.cfi_def_cfa_offset 12
 1570              		.cfi_offset 4, -12
 1571              		.cfi_offset 5, -8
 1572              		.cfi_offset 14, -4
 1573              		.loc 1 946 0
 1574 0002 0446     		mov	r4, r0
 1575              		.loc 1 938 0
 1576 0004 83B0     		sub	sp, sp, #12
 1577              		.cfi_def_cfa_offset 24
 1578              		.loc 1 946 0
 1579 0006 0028     		cmp	r0, #0
 1580 0008 54D0     		beq	.L219
 1581              		.loc 1 950 0
 1582 000a 4378     		ldrb	r3, [r0, #1]	@ zero_extendqisi2
 1583 000c 032B     		cmp	r3, #3
 1584 000e 1546     		mov	r5, r2
 1585 0010 0BD0     		beq	.L208
 1586              		.loc 1 950 0 is_stmt 0 discriminator 1
 1587 0012 294B     		ldr	r3, .L235
ARM GAS  C:\Users\jo\AppData\Local\Temp\ccLDsGlj.s 			page 29


 1588 0014 0093     		str	r3, [sp]
 1589 0016 2948     		ldr	r0, .L235+4
 1590              	.LVL174:
 1591 0018 2949     		ldr	r1, .L235+8
 1592              	.LVL175:
 1593 001a 2A4A     		ldr	r2, .L235+12
 1594              	.LVL176:
 1595 001c 40F2B633 		movw	r3, #950
 1596 0020 FFF7FEFF 		bl	chprintf.constprop.1
 1597              	.LVL177:
 1598              	.LBB129:
 1599              	.LBB130:
 1600              		.loc 3 414 0 is_stmt 1 discriminator 1
 1601 0024 2748     		ldr	r0, .L235+12
 1602 0026 FFF7FEFF 		bl	chSysHalt
 1603              	.LVL178:
 1604              	.L208:
 1605              	.LBE130:
 1606              	.LBE129:
 1607              		.loc 1 951 0
 1608 002a 636A     		ldr	r3, [r4, #36]
 1609 002c 7BB3     		cbz	r3, .L232
 1610              	.L209:
 1611              		.loc 1 955 0
 1612 002e 1D71     		strb	r5, [r3, #4]
 1613              	.L211:
 1614              		.loc 1 957 0
 1615 0030 2378     		ldrb	r3, [r4]	@ zero_extendqisi2
 1616 0032 102B     		cmp	r3, #16
 1617 0034 25D0     		beq	.L233
 1618              	.L213:
 1619              		.loc 1 960 0
 1620 0036 237F     		ldrb	r3, [r4, #28]	@ zero_extendqisi2
 1621              	.LVL179:
 1622              		.loc 1 962 0
 1623 0038 0021     		movs	r1, #0
 1624              		.loc 1 961 0
 1625 003a 23F00402 		bic	r2, r3, #4
 1626              		.loc 1 960 0
 1627 003e 03F00403 		and	r3, r3, #4
 1628              	.LVL180:
 1629              		.loc 1 961 0
 1630 0042 2277     		strb	r2, [r4, #28]
 1631              	.LVL181:
 1632              		.loc 1 962 0
 1633 0044 6162     		str	r1, [r4, #36]
 1634              		.loc 1 964 0
 1635 0046 03F0FF02 		and	r2, r3, #255
 1636              		.loc 1 963 0
 1637 004a 6170     		strb	r1, [r4, #1]
 1638              		.loc 1 964 0
 1639 004c 63B9     		cbnz	r3, .L234
 1640              		.loc 1 967 0
 1641 004e A36A     		ldr	r3, [r4, #40]
 1642 0050 13B1     		cbz	r3, .L217
 1643 0052 2046     		mov	r0, r4
 1644 0054 0221     		movs	r1, #2
ARM GAS  C:\Users\jo\AppData\Local\Temp\ccLDsGlj.s 			page 30


 1645 0056 9847     		blx	r3
 1646              	.LVL182:
 1647              	.L217:
 1648              		.loc 1 970 0
 1649 0058 04F10C00 		add	r0, r4, #12
 1650 005c FFF7FEFF 		bl	sys_sem_signal
 1651              	.LVL183:
 1652              	.L231:
 1653              		.loc 1 972 0
 1654 0060 0020     		movs	r0, #0
 1655              	.L207:
 1656 0062 40B2     		sxtb	r0, r0
 1657              		.loc 1 973 0
 1658 0064 03B0     		add	sp, sp, #12
 1659              		.cfi_remember_state
 1660              		.cfi_def_cfa_offset 12
 1661              		@ sp needed
 1662 0066 30BD     		pop	{r4, r5, pc}
 1663              	.LVL184:
 1664              	.L234:
 1665              		.cfi_restore_state
 1666              		.loc 1 965 0
 1667 0068 94F90830 		ldrsb	r3, [r4, #8]
 1668 006c 0933     		adds	r3, r3, #9
 1669 006e 00DB     		blt	.L215
 1670              		.loc 1 965 0 is_stmt 0 discriminator 1
 1671 0070 2172     		strb	r1, [r4, #8]
 1672              	.L215:
 1673              		.loc 1 967 0 is_stmt 1
 1674 0072 A36A     		ldr	r3, [r4, #40]
 1675 0074 002B     		cmp	r3, #0
 1676 0076 F3D0     		beq	.L231
 1677 0078 2046     		mov	r0, r4
 1678 007a 0221     		movs	r1, #2
 1679 007c 0022     		movs	r2, #0
 1680 007e 9847     		blx	r3
 1681              	.LVL185:
 1682 0080 EEE7     		b	.L231
 1683              	.L233:
 1684              		.loc 1 957 0 discriminator 1
 1685 0082 002D     		cmp	r5, #0
 1686 0084 D7D1     		bne	.L213
 1687              		.loc 1 958 0
 1688 0086 2046     		mov	r0, r4
 1689 0088 FFF7FEFF 		bl	setup_tcp
 1690              	.LVL186:
 1691 008c D3E7     		b	.L213
 1692              	.L232:
 1693              		.loc 1 951 0 discriminator 1
 1694 008e 237F     		ldrb	r3, [r4, #28]	@ zero_extendqisi2
 1695 0090 5B07     		lsls	r3, r3, #29
 1696 0092 CDD4     		bmi	.L211
 1697              		.loc 1 951 0 is_stmt 0 discriminator 2
 1698 0094 084B     		ldr	r3, .L235
 1699 0096 0093     		str	r3, [sp]
 1700 0098 0949     		ldr	r1, .L235+8
 1701 009a 0B4A     		ldr	r2, .L235+16
ARM GAS  C:\Users\jo\AppData\Local\Temp\ccLDsGlj.s 			page 31


 1702 009c 0748     		ldr	r0, .L235+4
 1703 009e 4FF46E73 		mov	r3, #952
 1704 00a2 FFF7FEFF 		bl	chprintf.constprop.1
 1705              	.LVL187:
 1706              	.LBB131:
 1707              	.LBB132:
 1708              		.loc 3 414 0 is_stmt 1 discriminator 2
 1709 00a6 0848     		ldr	r0, .L235+16
 1710 00a8 FFF7FEFF 		bl	chSysHalt
 1711              	.LVL188:
 1712              	.LBE132:
 1713              	.LBE131:
 1714              		.loc 1 954 0 discriminator 2
 1715 00ac 636A     		ldr	r3, [r4, #36]
 1716 00ae 002B     		cmp	r3, #0
 1717 00b0 BED0     		beq	.L211
 1718 00b2 BCE7     		b	.L209
 1719              	.LVL189:
 1720              	.L219:
 1721              		.loc 1 947 0
 1722 00b4 FA20     		movs	r0, #250
 1723              	.LVL190:
 1724 00b6 D4E7     		b	.L207
 1725              	.L236:
 1726              		.align	2
 1727              	.L235:
 1728 00b8 4C000000 		.word	.LC2
 1729 00bc 00000000 		.word	itm_port
 1730 00c0 00000000 		.word	.LC0
 1731 00c4 00020000 		.word	.LC16
 1732 00c8 20020000 		.word	.LC17
 1733              		.cfi_endproc
 1734              	.LFE272:
 1735              		.size	do_connected, .-do_connected
 1736 00cc AFF30080 		.section	.text.err_tcp,"ax",%progbits
 1737              		.align	2
 1738              		.p2align 4,,15
 1739              		.thumb
 1740              		.thumb_func
 1741              		.type	err_tcp, %function
 1742              	err_tcp:
 1743              	.LFB261:
 1744              		.loc 1 348 0
 1745              		.cfi_startproc
 1746              		@ args = 0, pretend = 0, frame = 0
 1747              		@ frame_needed = 0, uses_anonymous_args = 0
 1748              	.LVL191:
 1749 0000 F0B5     		push	{r4, r5, r6, r7, lr}
 1750              		.cfi_def_cfa_offset 20
 1751              		.cfi_offset 4, -20
 1752              		.cfi_offset 5, -16
 1753              		.cfi_offset 6, -12
 1754              		.cfi_offset 7, -8
 1755              		.cfi_offset 14, -4
 1756 0002 0F46     		mov	r7, r1
 1757 0004 83B0     		sub	sp, sp, #12
 1758              		.cfi_def_cfa_offset 32
ARM GAS  C:\Users\jo\AppData\Local\Temp\ccLDsGlj.s 			page 32


 1759              		.loc 1 354 0
 1760 0006 0446     		mov	r4, r0
 1761 0008 0028     		cmp	r0, #0
 1762 000a 57D0     		beq	.L269
 1763              	.LVL192:
 1764              	.L238:
 1765              		.loc 1 369 0
 1766 000c A36A     		ldr	r3, [r4, #40]
 1767              		.loc 1 364 0
 1768 000e 6678     		ldrb	r6, [r4, #1]	@ zero_extendqisi2
 1769              	.LVL193:
 1770              		.loc 1 360 0
 1771 0010 2772     		strb	r7, [r4, #8]
 1772              		.loc 1 356 0
 1773 0012 0025     		movs	r5, #0
 1774 0014 6560     		str	r5, [r4, #4]
 1775              		.loc 1 365 0
 1776 0016 6570     		strb	r5, [r4, #1]
 1777              		.loc 1 369 0
 1778 0018 7BB1     		cbz	r3, .L241
 1779              		.loc 1 369 0 is_stmt 0 discriminator 1
 1780 001a 2046     		mov	r0, r4
 1781 001c 0421     		movs	r1, #4
 1782 001e 2A46     		mov	r2, r5
 1783 0020 9847     		blx	r3
 1784              	.LVL194:
 1785              		.loc 1 372 0 is_stmt 1 discriminator 1
 1786 0022 A36A     		ldr	r3, [r4, #40]
 1787 0024 4BB1     		cbz	r3, .L241
 1788 0026 2046     		mov	r0, r4
 1789 0028 2946     		mov	r1, r5
 1790 002a 2A46     		mov	r2, r5
 1791 002c 9847     		blx	r3
 1792              	.LVL195:
 1793 002e A36A     		ldr	r3, [r4, #40]
 1794              		.loc 1 373 0 discriminator 1
 1795 0030 1BB1     		cbz	r3, .L241
 1796 0032 2A46     		mov	r2, r5
 1797 0034 2046     		mov	r0, r4
 1798 0036 0221     		movs	r1, #2
 1799 0038 9847     		blx	r3
 1800              	.LVL196:
 1801              	.L241:
 1802              		.loc 1 376 0
 1803 003a 04F11005 		add	r5, r4, #16
 1804 003e 2846     		mov	r0, r5
 1805 0040 FFF7FEFF 		bl	sys_mbox_valid
 1806              	.LVL197:
 1807 0044 0028     		cmp	r0, #0
 1808 0046 34D1     		bne	.L270
 1809              	.L242:
 1810              		.loc 1 381 0
 1811 0048 04F11405 		add	r5, r4, #20
 1812 004c 2846     		mov	r0, r5
 1813 004e FFF7FEFF 		bl	sys_mbox_valid
 1814              	.LVL198:
 1815 0052 48BB     		cbnz	r0, .L271
ARM GAS  C:\Users\jo\AppData\Local\Temp\ccLDsGlj.s 			page 33


 1816              	.L243:
 1817              		.loc 1 386 0
 1818 0054 012E     		cmp	r6, #1
 1819 0056 13D0     		beq	.L244
 1820              		.loc 1 386 0 is_stmt 0 discriminator 2
 1821 0058 033E     		subs	r6, r6, #3
 1822              	.LVL199:
 1823 005a 012E     		cmp	r6, #1
 1824 005c 10D9     		bls	.L244
 1825              		.loc 1 402 0 is_stmt 1
 1826 005e 636A     		ldr	r3, [r4, #36]
 1827 0060 03B3     		cbz	r3, .L237
 1828              		.loc 1 402 0 is_stmt 0 discriminator 1
 1829 0062 244B     		ldr	r3, .L273
 1830 0064 0093     		str	r3, [sp]
 1831 0066 2449     		ldr	r1, .L273+4
 1832 0068 244A     		ldr	r2, .L273+8
 1833 006a 2548     		ldr	r0, .L273+12
 1834 006c 4FF4C973 		mov	r3, #402
 1835 0070 FFF7FEFF 		bl	chprintf.constprop.1
 1836              	.LVL200:
 1837              	.LBB133:
 1838              	.LBB134:
 1839              		.loc 3 414 0 is_stmt 1 discriminator 1
 1840 0074 2148     		ldr	r0, .L273+8
 1841              	.LBE134:
 1842              	.LBE133:
 1843              		.loc 1 404 0 discriminator 1
 1844 0076 03B0     		add	sp, sp, #12
 1845              		.cfi_remember_state
 1846              		.cfi_def_cfa_offset 20
 1847              		@ sp needed
 1848 0078 BDE8F040 		pop	{r4, r5, r6, r7, lr}
 1849              		.cfi_restore 14
 1850              		.cfi_restore 7
 1851              		.cfi_restore 6
 1852              		.cfi_restore 5
 1853              		.cfi_restore 4
 1854              		.cfi_def_cfa_offset 0
 1855              	.LVL201:
 1856              	.LBB136:
 1857              	.LBB135:
 1858              		.loc 3 414 0 discriminator 1
 1859 007c FFF7FEBF 		b	chSysHalt
 1860              	.LVL202:
 1861              	.L244:
 1862              		.cfi_restore_state
 1863              	.LBE135:
 1864              	.LBE136:
 1865              	.LBB137:
 1866              		.loc 1 390 0
 1867 0080 237F     		ldrb	r3, [r4, #28]	@ zero_extendqisi2
 1868              	.LVL203:
 1869              		.loc 1 391 0
 1870 0082 23F00402 		bic	r2, r3, #4
 1871              		.loc 1 393 0
 1872 0086 5B07     		lsls	r3, r3, #29
ARM GAS  C:\Users\jo\AppData\Local\Temp\ccLDsGlj.s 			page 34


 1873              	.LVL204:
 1874              		.loc 1 391 0
 1875 0088 2277     		strb	r2, [r4, #28]
 1876              	.LVL205:
 1877              		.loc 1 393 0
 1878 008a 0BD4     		bmi	.L237
 1879              		.loc 1 395 0
 1880 008c 636A     		ldr	r3, [r4, #36]
 1881 008e 13B3     		cbz	r3, .L272
 1882              	.L248:
 1883              		.loc 1 396 0
 1884 0090 1F71     		strb	r7, [r3, #4]
 1885              		.loc 1 399 0
 1886 0092 04F10C00 		add	r0, r4, #12
 1887              		.loc 1 397 0
 1888 0096 0023     		movs	r3, #0
 1889 0098 6362     		str	r3, [r4, #36]
 1890              	.LBE137:
 1891              		.loc 1 404 0
 1892 009a 03B0     		add	sp, sp, #12
 1893              		.cfi_remember_state
 1894              		.cfi_def_cfa_offset 20
 1895              		@ sp needed
 1896 009c BDE8F040 		pop	{r4, r5, r6, r7, lr}
 1897              		.cfi_restore 14
 1898              		.cfi_restore 7
 1899              		.cfi_restore 6
 1900              		.cfi_restore 5
 1901              		.cfi_restore 4
 1902              		.cfi_def_cfa_offset 0
 1903              	.LVL206:
 1904              	.LBB140:
 1905              		.loc 1 399 0
 1906 00a0 FFF7FEBF 		b	sys_sem_signal
 1907              	.LVL207:
 1908              	.L237:
 1909              		.cfi_restore_state
 1910              	.LBE140:
 1911              		.loc 1 404 0
 1912 00a4 03B0     		add	sp, sp, #12
 1913              		.cfi_remember_state
 1914              		.cfi_def_cfa_offset 20
 1915              		@ sp needed
 1916 00a6 F0BD     		pop	{r4, r5, r6, r7, pc}
 1917              	.LVL208:
 1918              	.L271:
 1919              		.cfi_restore_state
 1920              		.loc 1 383 0
 1921 00a8 2846     		mov	r0, r5
 1922 00aa 0021     		movs	r1, #0
 1923 00ac FFF7FEFF 		bl	sys_mbox_trypost
 1924              	.LVL209:
 1925 00b0 D0E7     		b	.L243
 1926              	.L270:
 1927              		.loc 1 378 0
 1928 00b2 2846     		mov	r0, r5
 1929 00b4 0021     		movs	r1, #0
ARM GAS  C:\Users\jo\AppData\Local\Temp\ccLDsGlj.s 			page 35


 1930 00b6 FFF7FEFF 		bl	sys_mbox_trypost
 1931              	.LVL210:
 1932 00ba C5E7     		b	.L242
 1933              	.LVL211:
 1934              	.L269:
 1935              		.loc 1 354 0 discriminator 1
 1936 00bc 0D4B     		ldr	r3, .L273
 1937 00be 0093     		str	r3, [sp]
 1938 00c0 0D49     		ldr	r1, .L273+4
 1939              	.LVL212:
 1940 00c2 104A     		ldr	r2, .L273+16
 1941 00c4 0E48     		ldr	r0, .L273+12
 1942              	.LVL213:
 1943 00c6 4FF4B173 		mov	r3, #354
 1944 00ca FFF7FEFF 		bl	chprintf.constprop.1
 1945              	.LVL214:
 1946              	.LBB141:
 1947              	.LBB142:
 1948              		.loc 3 414 0 discriminator 1
 1949 00ce 0D48     		ldr	r0, .L273+16
 1950 00d0 FFF7FEFF 		bl	chSysHalt
 1951              	.LVL215:
 1952 00d4 9AE7     		b	.L238
 1953              	.LVL216:
 1954              	.L272:
 1955              	.LBE142:
 1956              	.LBE141:
 1957              	.LBB143:
 1958              		.loc 1 395 0 discriminator 1
 1959 00d6 074B     		ldr	r3, .L273
 1960 00d8 0093     		str	r3, [sp]
 1961 00da 0749     		ldr	r1, .L273+4
 1962 00dc 0A4A     		ldr	r2, .L273+20
 1963 00de 0848     		ldr	r0, .L273+12
 1964 00e0 40F28B13 		movw	r3, #395
 1965 00e4 FFF7FEFF 		bl	chprintf.constprop.1
 1966              	.LVL217:
 1967              	.LBB138:
 1968              	.LBB139:
 1969              		.loc 3 414 0 discriminator 1
 1970 00e8 0748     		ldr	r0, .L273+20
 1971 00ea FFF7FEFF 		bl	chSysHalt
 1972              	.LVL218:
 1973 00ee 636A     		ldr	r3, [r4, #36]
 1974 00f0 CEE7     		b	.L248
 1975              	.L274:
 1976 00f2 00BF     		.align	2
 1977              	.L273:
 1978 00f4 4C000000 		.word	.LC2
 1979 00f8 00000000 		.word	.LC0
 1980 00fc 60020000 		.word	.LC18
 1981 0100 00000000 		.word	itm_port
 1982 0104 F0010000 		.word	.LC15
 1983 0108 24010000 		.word	.LC9
 1984              	.LBE139:
 1985              	.LBE138:
 1986              	.LBE143:
ARM GAS  C:\Users\jo\AppData\Local\Temp\ccLDsGlj.s 			page 36


 1987              		.cfi_endproc
 1988              	.LFE261:
 1989              		.size	err_tcp, .-err_tcp
 1990 010c AFF30080 		.section	.text.recv_udp,"ax",%progbits
 1991              		.align	2
 1992              		.p2align 4,,15
 1993              		.thumb
 1994              		.thumb_func
 1995              		.type	recv_udp, %function
 1996              	recv_udp:
 1997              	.LFB257:
 1998              		.loc 1 146 0
 1999              		.cfi_startproc
 2000              		@ args = 4, pretend = 0, frame = 0
 2001              		@ frame_needed = 0, uses_anonymous_args = 0
 2002              	.LVL219:
 2003 0000 2DE9F043 		push	{r4, r5, r6, r7, r8, r9, lr}
 2004              		.cfi_def_cfa_offset 28
 2005              		.cfi_offset 4, -28
 2006              		.cfi_offset 5, -24
 2007              		.cfi_offset 6, -20
 2008              		.cfi_offset 7, -16
 2009              		.cfi_offset 8, -12
 2010              		.cfi_offset 9, -8
 2011              		.cfi_offset 14, -4
 2012 0004 83B0     		sub	sp, sp, #12
 2013              		.cfi_def_cfa_offset 40
 2014              		.loc 1 146 0
 2015 0006 0446     		mov	r4, r0
 2016 0008 1646     		mov	r6, r2
 2017 000a 1F46     		mov	r7, r3
 2018 000c BDF82890 		ldrh	r9, [sp, #40]
 2019              		.loc 1 155 0
 2020 0010 0D46     		mov	r5, r1
 2021 0012 0029     		cmp	r1, #0
 2022 0014 37D0     		beq	.L290
 2023              	.LVL220:
 2024              	.L276:
 2025              		.loc 1 156 0
 2026 0016 002C     		cmp	r4, #0
 2027 0018 47D0     		beq	.L291
 2028              	.L277:
 2029              	.LVL221:
 2030              		.loc 1 158 0
 2031 001a 6368     		ldr	r3, [r4, #4]
 2032 001c AB42     		cmp	r3, r5
 2033 001e 0AD0     		beq	.L284
 2034              		.loc 1 158 0 is_stmt 0 discriminator 1
 2035 0020 294B     		ldr	r3, .L293
 2036 0022 0093     		str	r3, [sp]
 2037 0024 2948     		ldr	r0, .L293+4
 2038 0026 2A49     		ldr	r1, .L293+8
 2039 0028 2A4A     		ldr	r2, .L293+12
 2040 002a 9E23     		movs	r3, #158
 2041 002c FFF7FEFF 		bl	chprintf.constprop.1
 2042              	.LVL222:
 2043              	.LBB144:
ARM GAS  C:\Users\jo\AppData\Local\Temp\ccLDsGlj.s 			page 37


 2044              	.LBB145:
 2045              		.loc 3 414 0 is_stmt 1 discriminator 1
 2046 0030 2848     		ldr	r0, .L293+12
 2047 0032 FFF7FEFF 		bl	chSysHalt
 2048              	.LVL223:
 2049              	.L284:
 2050              	.LBE145:
 2051              	.LBE144:
 2052              		.loc 1 165 0 discriminator 1
 2053 0036 04F11008 		add	r8, r4, #16
 2054 003a 4046     		mov	r0, r8
 2055 003c FFF7FEFF 		bl	sys_mbox_valid
 2056              	.LVL224:
 2057 0040 28B9     		cbnz	r0, .L278
 2058              	.LVL225:
 2059              	.L279:
 2060              		.loc 1 167 0
 2061 0042 3046     		mov	r0, r6
 2062              		.loc 1 205 0
 2063 0044 03B0     		add	sp, sp, #12
 2064              		.cfi_remember_state
 2065              		.cfi_def_cfa_offset 28
 2066              		@ sp needed
 2067 0046 BDE8F043 		pop	{r4, r5, r6, r7, r8, r9, lr}
 2068              		.cfi_restore 14
 2069              		.cfi_restore 9
 2070              		.cfi_restore 8
 2071              		.cfi_restore 7
 2072              		.cfi_restore 6
 2073              		.cfi_restore 5
 2074              		.cfi_restore 4
 2075              		.cfi_def_cfa_offset 0
 2076              	.LVL226:
 2077              		.loc 1 167 0
 2078 004a FFF7FEBF 		b	pbuf_free
 2079              	.LVL227:
 2080              	.L278:
 2081              		.cfi_restore_state
 2082              		.loc 1 171 0
 2083 004e 0720     		movs	r0, #7
 2084 0050 FFF7FEFF 		bl	memp_malloc
 2085              	.LVL228:
 2086              		.loc 1 172 0
 2087 0054 0546     		mov	r5, r0
 2088              	.LVL229:
 2089 0056 0028     		cmp	r0, #0
 2090 0058 F3D0     		beq	.L279
 2091              		.loc 1 176 0
 2092 005a 0660     		str	r6, [r0]
 2093              		.loc 1 177 0
 2094 005c 4660     		str	r6, [r0, #4]
 2095              		.loc 1 178 0
 2096 005e 07B1     		cbz	r7, .L280
 2097              		.loc 1 178 0 is_stmt 0 discriminator 1
 2098 0060 3F68     		ldr	r7, [r7]
 2099              	.LVL230:
 2100              	.L280:
ARM GAS  C:\Users\jo\AppData\Local\Temp\ccLDsGlj.s 			page 38


 2101              		.loc 1 178 0 discriminator 4
 2102 0062 AF60     		str	r7, [r5, #8]
 2103              		.loc 1 195 0 is_stmt 1 discriminator 4
 2104 0064 2946     		mov	r1, r5
 2105              		.loc 1 179 0 discriminator 4
 2106 0066 A5F80C90 		strh	r9, [r5, #12]	@ movhi
 2107              		.loc 1 195 0 discriminator 4
 2108 006a 4046     		mov	r0, r8
 2109              	.LVL231:
 2110              		.loc 1 194 0 discriminator 4
 2111 006c 3689     		ldrh	r6, [r6, #8]
 2112              	.LVL232:
 2113              		.loc 1 195 0 discriminator 4
 2114 006e FFF7FEFF 		bl	sys_mbox_trypost
 2115              	.LVL233:
 2116 0072 0146     		mov	r1, r0
 2117 0074 98B9     		cbnz	r0, .L292
 2118              		.loc 1 203 0
 2119 0076 A36A     		ldr	r3, [r4, #40]
 2120 0078 1BB3     		cbz	r3, .L275
 2121              		.loc 1 203 0 is_stmt 0 discriminator 1
 2122 007a 2046     		mov	r0, r4
 2123 007c 3246     		mov	r2, r6
 2124              		.loc 1 205 0 is_stmt 1 discriminator 1
 2125 007e 03B0     		add	sp, sp, #12
 2126              		.cfi_remember_state
 2127              		.cfi_def_cfa_offset 28
 2128              		@ sp needed
 2129 0080 BDE8F043 		pop	{r4, r5, r6, r7, r8, r9, lr}
 2130              		.cfi_restore 14
 2131              		.cfi_restore 9
 2132              		.cfi_restore 8
 2133              		.cfi_restore 7
 2134              		.cfi_restore 6
 2135              		.cfi_restore 5
 2136              		.cfi_restore 4
 2137              		.cfi_def_cfa_offset 0
 2138              	.LVL234:
 2139              		.loc 1 203 0 discriminator 1
 2140 0084 1847     		bx	r3	@ indirect register sibling call
 2141              	.LVL235:
 2142              	.L290:
 2143              		.cfi_restore_state
 2144              		.loc 1 155 0 discriminator 1
 2145 0086 104B     		ldr	r3, .L293
 2146              	.LVL236:
 2147 0088 0093     		str	r3, [sp]
 2148 008a 1149     		ldr	r1, .L293+8
 2149              	.LVL237:
 2150 008c 124A     		ldr	r2, .L293+16
 2151              	.LVL238:
 2152 008e 0F48     		ldr	r0, .L293+4
 2153              	.LVL239:
 2154 0090 9B23     		movs	r3, #155
 2155 0092 FFF7FEFF 		bl	chprintf.constprop.1
 2156              	.LVL240:
 2157              	.LBB146:
ARM GAS  C:\Users\jo\AppData\Local\Temp\ccLDsGlj.s 			page 39


 2158              	.LBB147:
 2159              		.loc 3 414 0 discriminator 1
 2160 0096 1048     		ldr	r0, .L293+16
 2161 0098 FFF7FEFF 		bl	chSysHalt
 2162              	.LVL241:
 2163 009c BBE7     		b	.L276
 2164              	.LVL242:
 2165              	.L292:
 2166              	.LBE147:
 2167              	.LBE146:
 2168              		.loc 1 196 0
 2169 009e 2846     		mov	r0, r5
 2170              		.loc 1 205 0
 2171 00a0 03B0     		add	sp, sp, #12
 2172              		.cfi_remember_state
 2173              		.cfi_def_cfa_offset 28
 2174              		@ sp needed
 2175 00a2 BDE8F043 		pop	{r4, r5, r6, r7, r8, r9, lr}
 2176              		.cfi_restore 14
 2177              		.cfi_restore 9
 2178              		.cfi_restore 8
 2179              		.cfi_restore 7
 2180              		.cfi_restore 6
 2181              		.cfi_restore 5
 2182              		.cfi_restore 4
 2183              		.cfi_def_cfa_offset 0
 2184              	.LVL243:
 2185              		.loc 1 196 0
 2186 00a6 FFF7FEBF 		b	netbuf_delete
 2187              	.LVL244:
 2188              	.L291:
 2189              		.cfi_restore_state
 2190              		.loc 1 156 0 discriminator 1
 2191 00aa 074B     		ldr	r3, .L293
 2192 00ac 0093     		str	r3, [sp]
 2193 00ae 0849     		ldr	r1, .L293+8
 2194 00b0 0A4A     		ldr	r2, .L293+20
 2195 00b2 0648     		ldr	r0, .L293+4
 2196 00b4 9C23     		movs	r3, #156
 2197 00b6 FFF7FEFF 		bl	chprintf.constprop.1
 2198              	.LVL245:
 2199              	.LBB148:
 2200              	.LBB149:
 2201              		.loc 3 414 0 discriminator 1
 2202 00ba 0848     		ldr	r0, .L293+20
 2203 00bc FFF7FEFF 		bl	chSysHalt
 2204              	.LVL246:
 2205 00c0 ABE7     		b	.L277
 2206              	.LVL247:
 2207              	.L275:
 2208              	.LBE149:
 2209              	.LBE148:
 2210              		.loc 1 205 0
 2211 00c2 03B0     		add	sp, sp, #12
 2212              		.cfi_def_cfa_offset 28
 2213              		@ sp needed
 2214 00c4 BDE8F083 		pop	{r4, r5, r6, r7, r8, r9, pc}
ARM GAS  C:\Users\jo\AppData\Local\Temp\ccLDsGlj.s 			page 40


 2215              	.LVL248:
 2216              	.L294:
 2217              		.align	2
 2218              	.L293:
 2219 00c8 4C000000 		.word	.LC2
 2220 00cc 00000000 		.word	itm_port
 2221 00d0 00000000 		.word	.LC0
 2222 00d4 C0020000 		.word	.LC21
 2223 00d8 7C020000 		.word	.LC19
 2224 00dc A0020000 		.word	.LC20
 2225              		.cfi_endproc
 2226              	.LFE257:
 2227              		.size	recv_udp, .-recv_udp
 2228              		.section	.text.do_newconn,"ax",%progbits
 2229              		.align	2
 2230              		.p2align 4,,15
 2231              		.global	do_newconn
 2232              		.thumb
 2233              		.thumb_func
 2234              		.type	do_newconn, %function
 2235              	do_newconn:
 2236              	.LFB265:
 2237              		.loc 1 549 0
 2238              		.cfi_startproc
 2239              		@ args = 0, pretend = 0, frame = 0
 2240              		@ frame_needed = 0, uses_anonymous_args = 0
 2241              	.LVL249:
 2242 0000 38B5     		push	{r3, r4, r5, lr}
 2243              		.cfi_def_cfa_offset 16
 2244              		.cfi_offset 3, -16
 2245              		.cfi_offset 4, -12
 2246              		.cfi_offset 5, -8
 2247              		.cfi_offset 14, -4
 2248              		.loc 1 550 0
 2249 0002 0023     		movs	r3, #0
 2250              		.loc 1 551 0
 2251 0004 0468     		ldr	r4, [r0]
 2252              		.loc 1 550 0
 2253 0006 0371     		strb	r3, [r0, #4]
 2254              		.loc 1 551 0
 2255 0008 6368     		ldr	r3, [r4, #4]
 2256 000a 2BB1     		cbz	r3, .L309
 2257              	.LVL250:
 2258              	.L296:
 2259              		.loc 1 558 0
 2260 000c 04F10C00 		add	r0, r4, #12
 2261              		.loc 1 559 0
 2262 0010 BDE83840 		pop	{r3, r4, r5, lr}
 2263              		.cfi_remember_state
 2264              		.cfi_restore 14
 2265              		.cfi_restore 5
 2266              		.cfi_restore 4
 2267              		.cfi_restore 3
 2268              		.cfi_def_cfa_offset 0
 2269              		.loc 1 558 0
 2270 0014 FFF7FEBF 		b	sys_sem_signal
 2271              	.LVL251:
ARM GAS  C:\Users\jo\AppData\Local\Temp\ccLDsGlj.s 			page 41


 2272              	.L309:
 2273              		.cfi_restore_state
 2274              	.LBB154:
 2275              	.LBB155:
 2276              		.loc 1 495 0
 2277 0018 2378     		ldrb	r3, [r4]	@ zero_extendqisi2
 2278 001a 03F0F003 		and	r3, r3, #240
 2279 001e 202B     		cmp	r3, #32
 2280 0020 0546     		mov	r5, r0
 2281 0022 1ED0     		beq	.L298
 2282 0024 402B     		cmp	r3, #64
 2283 0026 0FD0     		beq	.L299
 2284 0028 102B     		cmp	r3, #16
 2285 002a 02D0     		beq	.L310
 2286              		.loc 1 536 0
 2287 002c FA23     		movs	r3, #250
 2288 002e 0371     		strb	r3, [r0, #4]
 2289 0030 ECE7     		b	.L296
 2290              	.L310:
 2291              		.loc 1 526 0
 2292 0032 FFF7FEFF 		bl	tcp_new
 2293              	.LVL252:
 2294 0036 6060     		str	r0, [r4, #4]
 2295              		.loc 1 527 0
 2296 0038 2C68     		ldr	r4, [r5]
 2297 003a 6368     		ldr	r3, [r4, #4]
 2298 003c 23B3     		cbz	r3, .L307
 2299              		.loc 1 531 0
 2300 003e 2046     		mov	r0, r4
 2301 0040 FFF7FEFF 		bl	setup_tcp
 2302              	.LVL253:
 2303 0044 2C68     		ldr	r4, [r5]
 2304 0046 E1E7     		b	.L296
 2305              	.LVL254:
 2306              	.L299:
 2307              		.loc 1 498 0
 2308 0048 007A     		ldrb	r0, [r0, #8]	@ zero_extendqisi2
 2309              	.LVL255:
 2310 004a FFF7FEFF 		bl	raw_new
 2311              	.LVL256:
 2312 004e 6060     		str	r0, [r4, #4]
 2313              		.loc 1 499 0
 2314 0050 2C68     		ldr	r4, [r5]
 2315 0052 6068     		ldr	r0, [r4, #4]
 2316 0054 C0B1     		cbz	r0, .L307
 2317              		.loc 1 503 0
 2318 0056 2246     		mov	r2, r4
 2319 0058 0D49     		ldr	r1, .L311
 2320 005a FFF7FEFF 		bl	raw_recv
 2321              	.LVL257:
 2322 005e 2C68     		ldr	r4, [r5]
 2323 0060 D4E7     		b	.L296
 2324              	.LVL258:
 2325              	.L298:
 2326              		.loc 1 508 0
 2327 0062 FFF7FEFF 		bl	udp_new
 2328              	.LVL259:
ARM GAS  C:\Users\jo\AppData\Local\Temp\ccLDsGlj.s 			page 42


 2329 0066 6060     		str	r0, [r4, #4]
 2330              		.loc 1 509 0
 2331 0068 2C68     		ldr	r4, [r5]
 2332 006a 6068     		ldr	r0, [r4, #4]
 2333 006c 60B1     		cbz	r0, .L307
 2334              		.loc 1 518 0
 2335 006e 2378     		ldrb	r3, [r4]	@ zero_extendqisi2
 2336 0070 222B     		cmp	r3, #34
 2337 0072 03D1     		bne	.L303
 2338              		.loc 1 519 0
 2339 0074 0123     		movs	r3, #1
 2340 0076 0374     		strb	r3, [r0, #16]
 2341 0078 2C68     		ldr	r4, [r5]
 2342 007a 6068     		ldr	r0, [r4, #4]
 2343              	.L303:
 2344              		.loc 1 521 0
 2345 007c 0549     		ldr	r1, .L311+4
 2346 007e 2246     		mov	r2, r4
 2347 0080 FFF7FEFF 		bl	udp_recv
 2348              	.LVL260:
 2349 0084 2C68     		ldr	r4, [r5]
 2350 0086 C1E7     		b	.L296
 2351              	.L307:
 2352              		.loc 1 528 0
 2353 0088 FF23     		movs	r3, #255
 2354 008a 2B71     		strb	r3, [r5, #4]
 2355 008c BEE7     		b	.L296
 2356              	.L312:
 2357 008e 00BF     		.align	2
 2358              	.L311:
 2359 0090 00000000 		.word	recv_raw
 2360 0094 00000000 		.word	recv_udp
 2361              	.LBE155:
 2362              	.LBE154:
 2363              		.cfi_endproc
 2364              	.LFE265:
 2365              		.size	do_newconn, .-do_newconn
 2366 0098 AFF30080 		.section	.text.netconn_alloc,"ax",%progbits
 2366      AFF30080 
 2367              		.align	2
 2368              		.p2align 4,,15
 2369              		.global	netconn_alloc
 2370              		.thumb
 2371              		.thumb_func
 2372              		.type	netconn_alloc, %function
 2373              	netconn_alloc:
 2374              	.LFB266:
 2375              		.loc 1 573 0
 2376              		.cfi_startproc
 2377              		@ args = 0, pretend = 0, frame = 0
 2378              		@ frame_needed = 0, uses_anonymous_args = 0
 2379              	.LVL261:
 2380 0000 F0B5     		push	{r4, r5, r6, r7, lr}
 2381              		.cfi_def_cfa_offset 20
 2382              		.cfi_offset 4, -20
 2383              		.cfi_offset 5, -16
 2384              		.cfi_offset 6, -12
ARM GAS  C:\Users\jo\AppData\Local\Temp\ccLDsGlj.s 			page 43


 2385              		.cfi_offset 7, -8
 2386              		.cfi_offset 14, -4
 2387 0002 0546     		mov	r5, r0
 2388 0004 83B0     		sub	sp, sp, #12
 2389              		.cfi_def_cfa_offset 32
 2390              		.loc 1 577 0
 2391 0006 0820     		movs	r0, #8
 2392              	.LVL262:
 2393              		.loc 1 573 0
 2394 0008 0E46     		mov	r6, r1
 2395              		.loc 1 577 0
 2396 000a FFF7FEFF 		bl	memp_malloc
 2397              	.LVL263:
 2398              		.loc 1 578 0
 2399 000e 0446     		mov	r4, r0
 2400 0010 E0B1     		cbz	r0, .L314
 2401              		.loc 1 590 0
 2402 0012 05F0F003 		and	r3, r5, #240
 2403              		.loc 1 582 0
 2404 0016 0022     		movs	r2, #0
 2405              		.loc 1 590 0
 2406 0018 202B     		cmp	r3, #32
 2407              		.loc 1 583 0
 2408 001a 0570     		strb	r5, [r0]
 2409              		.loc 1 582 0
 2410 001c 0272     		strb	r2, [r0, #8]
 2411              		.loc 1 584 0
 2412 001e 4260     		str	r2, [r0, #4]
 2413              		.loc 1 590 0
 2414 0020 35D0     		beq	.L321
 2415 0022 402B     		cmp	r3, #64
 2416 0024 33D0     		beq	.L321
 2417 0026 102B     		cmp	r3, #16
 2418 0028 12D0     		beq	.L330
 2419              		.loc 1 607 0 discriminator 1
 2420 002a 1C4B     		ldr	r3, .L332
 2421 002c 0093     		str	r3, [sp]
 2422 002e 1C48     		ldr	r0, .L332+4
 2423              	.LVL264:
 2424 0030 1C49     		ldr	r1, .L332+8
 2425 0032 1D4A     		ldr	r2, .L332+12
 2426 0034 40F25F23 		movw	r3, #607
 2427 0038 FFF7FEFF 		bl	chprintf.constprop.1
 2428              	.LVL265:
 2429              	.LBB156:
 2430              	.LBB157:
 2431              		.loc 3 414 0 discriminator 1
 2432 003c 1A48     		ldr	r0, .L332+12
 2433 003e FFF7FEFF 		bl	chSysHalt
 2434              	.LVL266:
 2435              	.L318:
 2436              	.LBE157:
 2437              	.LBE156:
 2438              		.loc 1 646 0
 2439 0042 0820     		movs	r0, #8
 2440 0044 2146     		mov	r1, r4
 2441 0046 FFF7FEFF 		bl	memp_free
ARM GAS  C:\Users\jo\AppData\Local\Temp\ccLDsGlj.s 			page 44


 2442              	.LVL267:
 2443              		.loc 1 647 0
 2444 004a 0020     		movs	r0, #0
 2445              	.L314:
 2446              		.loc 1 648 0
 2447 004c 03B0     		add	sp, sp, #12
 2448              		.cfi_remember_state
 2449              		.cfi_def_cfa_offset 20
 2450              		@ sp needed
 2451 004e F0BD     		pop	{r4, r5, r6, r7, pc}
 2452              	.LVL268:
 2453              	.L330:
 2454              		.cfi_restore_state
 2455              		.loc 1 603 0
 2456 0050 2825     		movs	r5, #40
 2457              	.L316:
 2458              	.LVL269:
 2459              		.loc 1 612 0
 2460 0052 04F10C07 		add	r7, r4, #12
 2461 0056 3846     		mov	r0, r7
 2462              	.LVL270:
 2463 0058 0021     		movs	r1, #0
 2464 005a FFF7FEFF 		bl	sys_sem_new
 2465              	.LVL271:
 2466 005e 0028     		cmp	r0, #0
 2467 0060 EFD1     		bne	.L318
 2468              		.loc 1 615 0
 2469 0062 2946     		mov	r1, r5
 2470 0064 04F11000 		add	r0, r4, #16
 2471 0068 FFF7FEFF 		bl	sys_mbox_new
 2472              	.LVL272:
 2473 006c 0546     		mov	r5, r0
 2474              	.LVL273:
 2475 006e 80B9     		cbnz	r0, .L331
 2476              		.loc 1 621 0
 2477 0070 04F11400 		add	r0, r4, #20
 2478 0074 FFF7FEFF 		bl	sys_mbox_set_invalid
 2479              	.LVL274:
 2480              		.loc 1 626 0
 2481 0078 4FF0FF33 		mov	r3, #-1
 2482              		.loc 1 644 0
 2483 007c 2046     		mov	r0, r4
 2484              		.loc 1 623 0
 2485 007e 6570     		strb	r5, [r4, #1]
 2486              		.loc 1 628 0
 2487 0080 A662     		str	r6, [r4, #40]
 2488              		.loc 1 630 0
 2489 0082 6562     		str	r5, [r4, #36]
 2490              		.loc 1 631 0
 2491 0084 2562     		str	r5, [r4, #32]
 2492              		.loc 1 643 0
 2493 0086 2577     		strb	r5, [r4, #28]
 2494              		.loc 1 626 0
 2495 0088 A361     		str	r3, [r4, #24]
 2496              		.loc 1 648 0
 2497 008a 03B0     		add	sp, sp, #12
 2498              		.cfi_remember_state
ARM GAS  C:\Users\jo\AppData\Local\Temp\ccLDsGlj.s 			page 45


 2499              		.cfi_def_cfa_offset 20
 2500              		@ sp needed
 2501 008c F0BD     		pop	{r4, r5, r6, r7, pc}
 2502              	.LVL275:
 2503              	.L321:
 2504              		.cfi_restore_state
 2505              		.loc 1 593 0
 2506 008e 0425     		movs	r5, #4
 2507 0090 DFE7     		b	.L316
 2508              	.LVL276:
 2509              	.L331:
 2510              		.loc 1 616 0
 2511 0092 3846     		mov	r0, r7
 2512 0094 FFF7FEFF 		bl	sys_sem_free
 2513              	.LVL277:
 2514              		.loc 1 617 0
 2515 0098 D3E7     		b	.L318
 2516              	.L333:
 2517 009a 00BF     		.align	2
 2518              	.L332:
 2519 009c 4C000000 		.word	.LC2
 2520 00a0 00000000 		.word	itm_port
 2521 00a4 00000000 		.word	.LC0
 2522 00a8 E0020000 		.word	.LC22
 2523              		.cfi_endproc
 2524              	.LFE266:
 2525              		.size	netconn_alloc, .-netconn_alloc
 2526 00ac AFF30080 		.section	.text.netconn_free,"ax",%progbits
 2527              		.align	2
 2528              		.p2align 4,,15
 2529              		.global	netconn_free
 2530              		.thumb
 2531              		.thumb_func
 2532              		.type	netconn_free, %function
 2533              	netconn_free:
 2534              	.LFB267:
 2535              		.loc 1 658 0
 2536              		.cfi_startproc
 2537              		@ args = 0, pretend = 0, frame = 0
 2538              		@ frame_needed = 0, uses_anonymous_args = 0
 2539              	.LVL278:
 2540 0000 30B5     		push	{r4, r5, lr}
 2541              		.cfi_def_cfa_offset 12
 2542              		.cfi_offset 4, -12
 2543              		.cfi_offset 5, -8
 2544              		.cfi_offset 14, -4
 2545              		.loc 1 659 0
 2546 0002 4368     		ldr	r3, [r0, #4]
 2547              		.loc 1 658 0
 2548 0004 83B0     		sub	sp, sp, #12
 2549              		.cfi_def_cfa_offset 24
 2550              		.loc 1 658 0
 2551 0006 0446     		mov	r4, r0
 2552              		.loc 1 659 0
 2553 0008 5BB1     		cbz	r3, .L335
 2554              		.loc 1 659 0 is_stmt 0 discriminator 1
 2555 000a 1F4B     		ldr	r3, .L349
ARM GAS  C:\Users\jo\AppData\Local\Temp\ccLDsGlj.s 			page 46


 2556 000c 0093     		str	r3, [sp]
 2557 000e 1F48     		ldr	r0, .L349+4
 2558              	.LVL279:
 2559 0010 1F49     		ldr	r1, .L349+8
 2560 0012 204A     		ldr	r2, .L349+12
 2561 0014 40F29323 		movw	r3, #659
 2562 0018 FFF7FEFF 		bl	chprintf.constprop.1
 2563              	.LVL280:
 2564              	.LBB158:
 2565              	.LBB159:
 2566              		.loc 3 414 0 is_stmt 1 discriminator 1
 2567 001c 1D48     		ldr	r0, .L349+12
 2568 001e FFF7FEFF 		bl	chSysHalt
 2569              	.LVL281:
 2570              	.L335:
 2571              	.LBE159:
 2572              	.LBE158:
 2573              		.loc 1 660 0
 2574 0022 04F11000 		add	r0, r4, #16
 2575 0026 FFF7FEFF 		bl	sys_mbox_valid
 2576              	.LVL282:
 2577 002a F8B9     		cbnz	r0, .L348
 2578              	.L336:
 2579              		.loc 1 663 0
 2580 002c 04F11400 		add	r0, r4, #20
 2581 0030 FFF7FEFF 		bl	sys_mbox_valid
 2582              	.LVL283:
 2583 0034 58B1     		cbz	r0, .L337
 2584              		.loc 1 663 0 is_stmt 0 discriminator 1
 2585 0036 144B     		ldr	r3, .L349
 2586 0038 0093     		str	r3, [sp]
 2587 003a 1448     		ldr	r0, .L349+4
 2588 003c 1449     		ldr	r1, .L349+8
 2589 003e 164A     		ldr	r2, .L349+16
 2590 0040 4FF42673 		mov	r3, #664
 2591 0044 FFF7FEFF 		bl	chprintf.constprop.1
 2592              	.LVL284:
 2593              	.LBB160:
 2594              	.LBB161:
 2595              		.loc 3 414 0 is_stmt 1 discriminator 1
 2596 0048 1348     		ldr	r0, .L349+16
 2597 004a FFF7FEFF 		bl	chSysHalt
 2598              	.LVL285:
 2599              	.L337:
 2600              	.LBE161:
 2601              	.LBE160:
 2602              		.loc 1 667 0
 2603 004e 04F10C05 		add	r5, r4, #12
 2604 0052 2846     		mov	r0, r5
 2605 0054 FFF7FEFF 		bl	sys_sem_free
 2606              	.LVL286:
 2607              		.loc 1 668 0
 2608 0058 2846     		mov	r0, r5
 2609 005a FFF7FEFF 		bl	sys_sem_set_invalid
 2610              	.LVL287:
 2611              		.loc 1 670 0
 2612 005e 2146     		mov	r1, r4
ARM GAS  C:\Users\jo\AppData\Local\Temp\ccLDsGlj.s 			page 47


 2613 0060 0820     		movs	r0, #8
 2614              		.loc 1 671 0
 2615 0062 03B0     		add	sp, sp, #12
 2616              		.cfi_remember_state
 2617              		.cfi_def_cfa_offset 12
 2618              		@ sp needed
 2619 0064 BDE83040 		pop	{r4, r5, lr}
 2620              		.cfi_restore 14
 2621              		.cfi_restore 5
 2622              		.cfi_restore 4
 2623              		.cfi_def_cfa_offset 0
 2624              	.LVL288:
 2625              		.loc 1 670 0
 2626 0068 FFF7FEBF 		b	memp_free
 2627              	.LVL289:
 2628              	.L348:
 2629              		.cfi_restore_state
 2630              		.loc 1 660 0 discriminator 1
 2631 006c 064B     		ldr	r3, .L349
 2632 006e 0093     		str	r3, [sp]
 2633 0070 0749     		ldr	r1, .L349+8
 2634 0072 0A4A     		ldr	r2, .L349+20
 2635 0074 0548     		ldr	r0, .L349+4
 2636 0076 40F29523 		movw	r3, #661
 2637 007a FFF7FEFF 		bl	chprintf.constprop.1
 2638              	.LVL290:
 2639              	.LBB162:
 2640              	.LBB163:
 2641              		.loc 3 414 0 discriminator 1
 2642 007e 0748     		ldr	r0, .L349+20
 2643 0080 FFF7FEFF 		bl	chSysHalt
 2644              	.LVL291:
 2645 0084 D2E7     		b	.L336
 2646              	.L350:
 2647 0086 00BF     		.align	2
 2648              	.L349:
 2649 0088 4C000000 		.word	.LC2
 2650 008c 00000000 		.word	itm_port
 2651 0090 00000000 		.word	.LC0
 2652 0094 08030000 		.word	.LC23
 2653 0098 74030000 		.word	.LC25
 2654 009c 38030000 		.word	.LC24
 2655              	.LBE163:
 2656              	.LBE162:
 2657              		.cfi_endproc
 2658              	.LFE267:
 2659              		.size	netconn_free, .-netconn_free
 2660              		.section	.text.netconn_drain,"ax",%progbits
 2661              		.align	2
 2662              		.p2align 4,,15
 2663              		.thumb
 2664              		.thumb_func
 2665              		.type	netconn_drain, %function
 2666              	netconn_drain:
 2667              	.LFB268:
 2668              		.loc 1 683 0
 2669              		.cfi_startproc
ARM GAS  C:\Users\jo\AppData\Local\Temp\ccLDsGlj.s 			page 48


 2670              		@ args = 0, pretend = 0, frame = 8
 2671              		@ frame_needed = 0, uses_anonymous_args = 0
 2672              	.LVL292:
 2673 0000 2DE9F043 		push	{r4, r5, r6, r7, r8, r9, lr}
 2674              		.cfi_def_cfa_offset 28
 2675              		.cfi_offset 4, -28
 2676              		.cfi_offset 5, -24
 2677              		.cfi_offset 6, -20
 2678              		.cfi_offset 7, -16
 2679              		.cfi_offset 8, -12
 2680              		.cfi_offset 9, -8
 2681              		.cfi_offset 14, -4
 2682              		.loc 1 692 0
 2683 0004 00F11004 		add	r4, r0, #16
 2684              		.loc 1 683 0
 2685 0008 85B0     		sub	sp, sp, #20
 2686              		.cfi_def_cfa_offset 48
 2687              		.loc 1 683 0
 2688 000a 0646     		mov	r6, r0
 2689              		.loc 1 692 0
 2690 000c 2046     		mov	r0, r4
 2691              	.LVL293:
 2692 000e FFF7FEFF 		bl	sys_mbox_valid
 2693              	.LVL294:
 2694 0012 08B3     		cbz	r0, .L353
 2695 0014 03AF     		add	r7, sp, #12
 2696              	.L352:
 2697              		.loc 1 693 0
 2698 0016 2046     		mov	r0, r4
 2699 0018 3946     		mov	r1, r7
 2700 001a FFF7FEFF 		bl	sys_arch_mbox_tryfetch
 2701              	.LVL295:
 2702 001e 0130     		adds	r0, r0, #1
 2703 0020 14D0     		beq	.L381
 2704              	.L357:
 2705              		.loc 1 695 0
 2706 0022 3378     		ldrb	r3, [r6]	@ zero_extendqisi2
 2707 0024 102B     		cmp	r3, #16
 2708 0026 4ED1     		bne	.L354
 2709              		.loc 1 696 0
 2710 0028 039D     		ldr	r5, [sp, #12]
 2711              	.LVL296:
 2712 002a 002D     		cmp	r5, #0
 2713 002c F3D0     		beq	.L352
 2714              		.loc 1 699 0
 2715 002e 7368     		ldr	r3, [r6, #4]
 2716              		.loc 1 700 0
 2717 0030 1846     		mov	r0, r3
 2718              		.loc 1 699 0
 2719 0032 13B1     		cbz	r3, .L356
 2720              		.loc 1 700 0
 2721 0034 2989     		ldrh	r1, [r5, #8]
 2722 0036 FFF7FEFF 		bl	tcp_recved
 2723              	.LVL297:
 2724              	.L356:
 2725              		.loc 1 702 0
 2726 003a 2846     		mov	r0, r5
ARM GAS  C:\Users\jo\AppData\Local\Temp\ccLDsGlj.s 			page 49


 2727 003c FFF7FEFF 		bl	pbuf_free
 2728              	.LVL298:
 2729              		.loc 1 693 0
 2730 0040 2046     		mov	r0, r4
 2731 0042 3946     		mov	r1, r7
 2732 0044 FFF7FEFF 		bl	sys_arch_mbox_tryfetch
 2733              	.LVL299:
 2734 0048 0130     		adds	r0, r0, #1
 2735 004a EAD1     		bne	.L357
 2736              	.LVL300:
 2737              	.L381:
 2738              		.loc 1 710 0
 2739 004c 2046     		mov	r0, r4
 2740 004e FFF7FEFF 		bl	sys_mbox_free
 2741              	.LVL301:
 2742              		.loc 1 711 0
 2743 0052 2046     		mov	r0, r4
 2744 0054 FFF7FEFF 		bl	sys_mbox_set_invalid
 2745              	.LVL302:
 2746              	.L353:
 2747              		.loc 1 716 0
 2748 0058 06F11408 		add	r8, r6, #20
 2749 005c 4046     		mov	r0, r8
 2750 005e FFF7FEFF 		bl	sys_mbox_valid
 2751              	.LVL303:
 2752 0062 68B3     		cbz	r0, .L351
 2753 0064 03AF     		add	r7, sp, #12
 2754              	.LBB164:
 2755              		.loc 1 722 0
 2756 0066 DFF87490 		ldr	r9, .L382+12
 2757 006a 1DE0     		b	.L358
 2758              	.L362:
 2759              		.loc 1 721 0
 2760 006c 7568     		ldr	r5, [r6, #4]
 2761              		.loc 1 722 0
 2762 006e 1849     		ldr	r1, .L382
 2763 0070 184A     		ldr	r2, .L382+4
 2764 0072 1948     		ldr	r0, .L382+8
 2765              		.loc 1 718 0
 2766 0074 039C     		ldr	r4, [sp, #12]
 2767              	.LVL304:
 2768              		.loc 1 722 0
 2769 0076 40F2D223 		movw	r3, #722
 2770              		.loc 1 721 0
 2771 007a 4DB1     		cbz	r5, .L360
 2772              		.loc 1 722 0
 2773 007c 2D7E     		ldrb	r5, [r5, #24]	@ zero_extendqisi2
 2774 007e 012D     		cmp	r5, #1
 2775 0080 06D0     		beq	.L360
 2776              		.loc 1 722 0 is_stmt 0 discriminator 1
 2777 0082 CDF80090 		str	r9, [sp]
 2778 0086 FFF7FEFF 		bl	chprintf.constprop.1
 2779              	.LVL305:
 2780              	.LBB165:
 2781              	.LBB166:
 2782              		.loc 3 414 0 is_stmt 1 discriminator 1
 2783 008a 1248     		ldr	r0, .L382+4
ARM GAS  C:\Users\jo\AppData\Local\Temp\ccLDsGlj.s 			page 50


 2784 008c FFF7FEFF 		bl	chSysHalt
 2785              	.LVL306:
 2786              	.L360:
 2787              	.LBE166:
 2788              	.LBE165:
 2789              		.loc 1 725 0
 2790 0090 2046     		mov	r0, r4
 2791 0092 FFF7B5FF 		bl	netconn_drain
 2792              	.LVL307:
 2793              		.loc 1 726 0
 2794 0096 6068     		ldr	r0, [r4, #4]
 2795 0098 18B1     		cbz	r0, .L361
 2796              		.loc 1 727 0
 2797 009a FFF7FEFF 		bl	tcp_abort
 2798              	.LVL308:
 2799              		.loc 1 728 0
 2800 009e 0023     		movs	r3, #0
 2801 00a0 6360     		str	r3, [r4, #4]
 2802              	.L361:
 2803              		.loc 1 730 0
 2804 00a2 2046     		mov	r0, r4
 2805 00a4 FFF7FEFF 		bl	netconn_free
 2806              	.LVL309:
 2807              	.L358:
 2808              	.LBE164:
 2809              		.loc 1 717 0
 2810 00a8 4046     		mov	r0, r8
 2811 00aa 3946     		mov	r1, r7
 2812 00ac FFF7FEFF 		bl	sys_arch_mbox_tryfetch
 2813              	.LVL310:
 2814 00b0 0130     		adds	r0, r0, #1
 2815 00b2 DBD1     		bne	.L362
 2816              		.loc 1 732 0
 2817 00b4 4046     		mov	r0, r8
 2818 00b6 FFF7FEFF 		bl	sys_mbox_free
 2819              	.LVL311:
 2820              		.loc 1 733 0
 2821 00ba 4046     		mov	r0, r8
 2822 00bc FFF7FEFF 		bl	sys_mbox_set_invalid
 2823              	.LVL312:
 2824              	.L351:
 2825              		.loc 1 736 0
 2826 00c0 05B0     		add	sp, sp, #20
 2827              		.cfi_remember_state
 2828              		.cfi_def_cfa_offset 28
 2829              		@ sp needed
 2830 00c2 BDE8F083 		pop	{r4, r5, r6, r7, r8, r9, pc}
 2831              	.LVL313:
 2832              	.L354:
 2833              		.cfi_restore_state
 2834              		.loc 1 707 0
 2835 00c6 0398     		ldr	r0, [sp, #12]
 2836 00c8 FFF7FEFF 		bl	netbuf_delete
 2837              	.LVL314:
 2838 00cc A3E7     		b	.L352
 2839              	.L383:
 2840 00ce 00BF     		.align	2
ARM GAS  C:\Users\jo\AppData\Local\Temp\ccLDsGlj.s 			page 51


 2841              	.L382:
 2842 00d0 00000000 		.word	.LC0
 2843 00d4 B0030000 		.word	.LC26
 2844 00d8 00000000 		.word	itm_port
 2845 00dc 4C000000 		.word	.LC2
 2846              		.cfi_endproc
 2847              	.LFE268:
 2848              		.size	netconn_drain, .-netconn_drain
 2849              		.section	.text.accept_function,"ax",%progbits
 2850              		.align	2
 2851              		.p2align 4,,15
 2852              		.thumb
 2853              		.thumb_func
 2854              		.type	accept_function, %function
 2855              	accept_function:
 2856              	.LFB263:
 2857              		.loc 1 433 0
 2858              		.cfi_startproc
 2859              		@ args = 0, pretend = 0, frame = 0
 2860              		@ frame_needed = 0, uses_anonymous_args = 0
 2861              	.LVL315:
 2862 0000 2DE9F041 		push	{r4, r5, r6, r7, r8, lr}
 2863              		.cfi_def_cfa_offset 24
 2864              		.cfi_offset 4, -24
 2865              		.cfi_offset 5, -20
 2866              		.cfi_offset 6, -16
 2867              		.cfi_offset 7, -12
 2868              		.cfi_offset 8, -8
 2869              		.cfi_offset 14, -4
 2870              		.loc 1 439 0
 2871 0004 00F11405 		add	r5, r0, #20
 2872              		.loc 1 433 0
 2873 0008 0446     		mov	r4, r0
 2874              	.LVL316:
 2875              		.loc 1 439 0
 2876 000a 2846     		mov	r0, r5
 2877              	.LVL317:
 2878              		.loc 1 433 0
 2879 000c 8846     		mov	r8, r1
 2880 000e 1746     		mov	r7, r2
 2881              		.loc 1 439 0
 2882 0010 FFF7FEFF 		bl	sys_mbox_valid
 2883              	.LVL318:
 2884 0014 C8B1     		cbz	r0, .L387
 2885              		.loc 1 446 0
 2886 0016 2078     		ldrb	r0, [r4]	@ zero_extendqisi2
 2887 0018 A16A     		ldr	r1, [r4, #40]
 2888 001a FFF7FEFF 		bl	netconn_alloc
 2889              	.LVL319:
 2890              		.loc 1 447 0
 2891 001e 0646     		mov	r6, r0
 2892 0020 A8B1     		cbz	r0, .L388
 2893              		.loc 1 450 0
 2894 0022 C0F80480 		str	r8, [r0, #4]
 2895              		.loc 1 451 0
 2896 0026 FFF7FEFF 		bl	setup_tcp
 2897              	.LVL320:
ARM GAS  C:\Users\jo\AppData\Local\Temp\ccLDsGlj.s 			page 52


 2898              		.loc 1 456 0
 2899 002a 2846     		mov	r0, r5
 2900              		.loc 1 454 0
 2901 002c 3772     		strb	r7, [r6, #8]
 2902              		.loc 1 456 0
 2903 002e 3146     		mov	r1, r6
 2904 0030 FFF7FEFF 		bl	sys_mbox_trypost
 2905              	.LVL321:
 2906 0034 0546     		mov	r5, r0
 2907 0036 60B9     		cbnz	r0, .L393
 2908              		.loc 1 475 0
 2909 0038 A36A     		ldr	r3, [r4, #40]
 2910 003a 1BB1     		cbz	r3, .L385
 2911              		.loc 1 475 0 is_stmt 0 discriminator 1
 2912 003c 2046     		mov	r0, r4
 2913 003e 2946     		mov	r1, r5
 2914 0040 2A46     		mov	r2, r5
 2915 0042 9847     		blx	r3
 2916              	.LVL322:
 2917              	.L385:
 2918              		.loc 1 479 0 is_stmt 1
 2919 0044 68B2     		sxtb	r0, r5
 2920 0046 BDE8F081 		pop	{r4, r5, r6, r7, r8, pc}
 2921              	.LVL323:
 2922              	.L387:
 2923              		.loc 1 441 0
 2924 004a FA25     		movs	r5, #250
 2925 004c FAE7     		b	.L385
 2926              	.LVL324:
 2927              	.L388:
 2928              		.loc 1 448 0
 2929 004e FF25     		movs	r5, #255
 2930 0050 F8E7     		b	.L385
 2931              	.LVL325:
 2932              	.L393:
 2933              	.LBB167:
 2934              		.loc 1 460 0
 2935 0052 7468     		ldr	r4, [r6, #4]
 2936              	.LVL326:
 2937              		.loc 1 461 0
 2938 0054 0021     		movs	r1, #0
 2939 0056 2046     		mov	r0, r4
 2940 0058 FFF7FEFF 		bl	tcp_arg
 2941              	.LVL327:
 2942              		.loc 1 462 0
 2943 005c 2046     		mov	r0, r4
 2944 005e 0021     		movs	r1, #0
 2945 0060 FFF7FEFF 		bl	tcp_recv
 2946              	.LVL328:
 2947              		.loc 1 463 0
 2948 0064 2046     		mov	r0, r4
 2949 0066 0021     		movs	r1, #0
 2950 0068 FFF7FEFF 		bl	tcp_sent
 2951              	.LVL329:
 2952              		.loc 1 464 0
 2953 006c 0422     		movs	r2, #4
 2954 006e 2046     		mov	r0, r4
ARM GAS  C:\Users\jo\AppData\Local\Temp\ccLDsGlj.s 			page 53


 2955 0070 0021     		movs	r1, #0
 2956 0072 FFF7FEFF 		bl	tcp_poll
 2957              	.LVL330:
 2958              		.loc 1 465 0
 2959 0076 0021     		movs	r1, #0
 2960 0078 2046     		mov	r0, r4
 2961 007a FFF7FEFF 		bl	tcp_err
 2962              	.LVL331:
 2963              		.loc 1 469 0
 2964 007e 06F11004 		add	r4, r6, #16
 2965              	.LVL332:
 2966              		.loc 1 467 0
 2967 0082 0023     		movs	r3, #0
 2968 0084 7360     		str	r3, [r6, #4]
 2969              		.loc 1 469 0
 2970 0086 2046     		mov	r0, r4
 2971 0088 FFF7FEFF 		bl	sys_mbox_free
 2972              	.LVL333:
 2973              		.loc 1 470 0
 2974 008c 2046     		mov	r0, r4
 2975 008e FFF7FEFF 		bl	sys_mbox_set_invalid
 2976              	.LVL334:
 2977              		.loc 1 471 0
 2978 0092 3046     		mov	r0, r6
 2979 0094 FFF7FEFF 		bl	netconn_free
 2980              	.LVL335:
 2981              		.loc 1 472 0
 2982 0098 FF25     		movs	r5, #255
 2983 009a D3E7     		b	.L385
 2984              	.LBE167:
 2985              		.cfi_endproc
 2986              	.LFE263:
 2987              		.size	accept_function, .-accept_function
 2988 009c AFF30080 		.section	.text.do_delconn,"ax",%progbits
 2989              		.align	2
 2990              		.p2align 4,,15
 2991              		.global	do_delconn
 2992              		.thumb
 2993              		.thumb_func
 2994              		.type	do_delconn, %function
 2995              	do_delconn:
 2996              	.LFB270:
 2997              		.loc 1 833 0
 2998              		.cfi_startproc
 2999              		@ args = 0, pretend = 0, frame = 0
 3000              		@ frame_needed = 0, uses_anonymous_args = 0
 3001              	.LVL336:
 3002 0000 30B5     		push	{r4, r5, lr}
 3003              		.cfi_def_cfa_offset 12
 3004              		.cfi_offset 4, -12
 3005              		.cfi_offset 5, -8
 3006              		.cfi_offset 14, -4
 3007              		.loc 1 835 0
 3008 0002 0368     		ldr	r3, [r0]
 3009 0004 5A78     		ldrb	r2, [r3, #1]	@ zero_extendqisi2
 3010 0006 12F0FD0F 		tst	r2, #253
 3011              		.loc 1 833 0
ARM GAS  C:\Users\jo\AppData\Local\Temp\ccLDsGlj.s 			page 54


 3012 000a 83B0     		sub	sp, sp, #12
 3013              		.cfi_def_cfa_offset 24
 3014              		.loc 1 833 0
 3015 000c 0446     		mov	r4, r0
 3016              		.loc 1 835 0
 3017 000e 2BD0     		beq	.L395
 3018              		.loc 1 836 0
 3019 0010 032A     		cmp	r2, #3
 3020 0012 19D0     		beq	.L396
 3021              		.loc 1 839 0
 3022 0014 1A78     		ldrb	r2, [r3]	@ zero_extendqisi2
 3023 0016 102A     		cmp	r2, #16
 3024 0018 0CD0     		beq	.L397
 3025              		.loc 1 839 0 is_stmt 0 discriminator 1
 3026 001a 3F4B     		ldr	r3, .L430
 3027 001c 0093     		str	r3, [sp]
 3028 001e 3F49     		ldr	r1, .L430+4
 3029 0020 3F4A     		ldr	r2, .L430+8
 3030 0022 4048     		ldr	r0, .L430+12
 3031              	.LVL337:
 3032 0024 40F24733 		movw	r3, #839
 3033 0028 FFF7FEFF 		bl	chprintf.constprop.1
 3034              	.LVL338:
 3035              	.LBB168:
 3036              	.LBB169:
 3037              		.loc 3 414 0 is_stmt 1 discriminator 1
 3038 002c 3C48     		ldr	r0, .L430+8
 3039 002e FFF7FEFF 		bl	chSysHalt
 3040              	.LVL339:
 3041 0032 2368     		ldr	r3, [r4]
 3042              	.LVL340:
 3043              	.L397:
 3044              	.LBE169:
 3045              	.LBE168:
 3046              		.loc 1 840 0
 3047 0034 FB22     		movs	r2, #251
 3048 0036 2271     		strb	r2, [r4, #4]
 3049              	.L398:
 3050              		.loc 1 885 0
 3051 0038 03F10C00 		add	r0, r3, #12
 3052 003c FFF7FEFF 		bl	sys_sem_valid
 3053              	.LVL341:
 3054 0040 0028     		cmp	r0, #0
 3055 0042 39D1     		bne	.L427
 3056              	.L394:
 3057              		.loc 1 888 0
 3058 0044 03B0     		add	sp, sp, #12
 3059              		.cfi_remember_state
 3060              		.cfi_def_cfa_offset 12
 3061              		@ sp needed
 3062 0046 30BD     		pop	{r4, r5, pc}
 3063              	.LVL342:
 3064              	.L396:
 3065              		.cfi_restore_state
 3066              		.loc 1 842 0 discriminator 1
 3067 0048 1A7F     		ldrb	r2, [r3, #28]	@ zero_extendqisi2
 3068 004a 5207     		lsls	r2, r2, #29
ARM GAS  C:\Users\jo\AppData\Local\Temp\ccLDsGlj.s 			page 55


 3069 004c 0CD4     		bmi	.L395
 3070              		.loc 1 842 0 is_stmt 0 discriminator 2
 3071 004e 324B     		ldr	r3, .L430
 3072 0050 0093     		str	r3, [sp]
 3073 0052 3249     		ldr	r1, .L430+4
 3074 0054 344A     		ldr	r2, .L430+16
 3075 0056 3348     		ldr	r0, .L430+12
 3076              	.LVL343:
 3077 0058 40F24B33 		movw	r3, #843
 3078 005c FFF7FEFF 		bl	chprintf.constprop.1
 3079              	.LVL344:
 3080              	.LBB170:
 3081              	.LBB171:
 3082              		.loc 3 414 0 is_stmt 1 discriminator 2
 3083 0060 3148     		ldr	r0, .L430+16
 3084 0062 FFF7FEFF 		bl	chSysHalt
 3085              	.LVL345:
 3086 0066 2368     		ldr	r3, [r4]
 3087              	.LVL346:
 3088              	.L395:
 3089              	.LBE171:
 3090              	.LBE170:
 3091              		.loc 1 845 0
 3092 0068 1846     		mov	r0, r3
 3093 006a FFF7FEFF 		bl	netconn_drain
 3094              	.LVL347:
 3095              		.loc 1 847 0
 3096 006e 2368     		ldr	r3, [r4]
 3097 0070 5868     		ldr	r0, [r3, #4]
 3098 0072 58B1     		cbz	r0, .L399
 3099              		.loc 1 849 0
 3100 0074 1A78     		ldrb	r2, [r3]	@ zero_extendqisi2
 3101 0076 02F0F002 		and	r2, r2, #240
 3102 007a 202A     		cmp	r2, #32
 3103 007c 23D0     		beq	.L401
 3104 007e 402A     		cmp	r2, #64
 3105 0080 42D0     		beq	.L402
 3106 0082 102A     		cmp	r2, #16
 3107 0084 26D0     		beq	.L428
 3108              	.L400:
 3109              		.loc 1 876 0
 3110 0086 0022     		movs	r2, #0
 3111 0088 5A60     		str	r2, [r3, #4]
 3112 008a 2368     		ldr	r3, [r4]
 3113              	.L399:
 3114              		.loc 1 882 0
 3115 008c 9D6A     		ldr	r5, [r3, #40]
 3116 008e 002D     		cmp	r5, #0
 3117 0090 D2D0     		beq	.L398
 3118              		.loc 1 882 0 is_stmt 0 discriminator 1
 3119 0092 0021     		movs	r1, #0
 3120 0094 1846     		mov	r0, r3
 3121 0096 0A46     		mov	r2, r1
 3122 0098 A847     		blx	r5
 3123              	.LVL348:
 3124              		.loc 1 883 0 is_stmt 1 discriminator 1
 3125 009a 2368     		ldr	r3, [r4]
ARM GAS  C:\Users\jo\AppData\Local\Temp\ccLDsGlj.s 			page 56


 3126 009c 9D6A     		ldr	r5, [r3, #40]
 3127 009e 002D     		cmp	r5, #0
 3128 00a0 CAD0     		beq	.L398
 3129 00a2 1846     		mov	r0, r3
 3130 00a4 0221     		movs	r1, #2
 3131 00a6 0022     		movs	r2, #0
 3132 00a8 A847     		blx	r5
 3133              	.LVL349:
 3134 00aa 2368     		ldr	r3, [r4]
 3135              		.loc 1 885 0 discriminator 1
 3136 00ac 03F10C00 		add	r0, r3, #12
 3137 00b0 FFF7FEFF 		bl	sys_sem_valid
 3138              	.LVL350:
 3139 00b4 0028     		cmp	r0, #0
 3140 00b6 C5D0     		beq	.L394
 3141              	.L427:
 3142              		.loc 1 886 0
 3143 00b8 2068     		ldr	r0, [r4]
 3144 00ba 0C30     		adds	r0, r0, #12
 3145              		.loc 1 888 0
 3146 00bc 03B0     		add	sp, sp, #12
 3147              		.cfi_remember_state
 3148              		.cfi_def_cfa_offset 12
 3149              		@ sp needed
 3150 00be BDE83040 		pop	{r4, r5, lr}
 3151              		.cfi_restore 14
 3152              		.cfi_restore 5
 3153              		.cfi_restore 4
 3154              		.cfi_def_cfa_offset 0
 3155              	.LVL351:
 3156              		.loc 1 886 0
 3157 00c2 FFF7FEBF 		b	sys_sem_signal
 3158              	.LVL352:
 3159              	.L401:
 3160              		.cfi_restore_state
 3161              		.loc 1 857 0
 3162 00c6 0022     		movs	r2, #0
 3163 00c8 C261     		str	r2, [r0, #28]
 3164              		.loc 1 858 0
 3165 00ca 5868     		ldr	r0, [r3, #4]
 3166 00cc FFF7FEFF 		bl	udp_remove
 3167              	.LVL353:
 3168 00d0 2368     		ldr	r3, [r4]
 3169              		.loc 1 859 0
 3170 00d2 D8E7     		b	.L400
 3171              	.L428:
 3172              		.loc 1 863 0
 3173 00d4 5A6A     		ldr	r2, [r3, #36]
 3174 00d6 DAB1     		cbz	r2, .L429
 3175              	.L404:
 3176              		.loc 1 863 0 is_stmt 0 discriminator 3
 3177 00d8 0F4B     		ldr	r3, .L430
 3178 00da 0093     		str	r3, [sp]
 3179 00dc 0F49     		ldr	r1, .L430+4
 3180 00de 134A     		ldr	r2, .L430+20
 3181 00e0 1048     		ldr	r0, .L430+12
 3182 00e2 4FF45873 		mov	r3, #864
ARM GAS  C:\Users\jo\AppData\Local\Temp\ccLDsGlj.s 			page 57


 3183 00e6 FFF7FEFF 		bl	chprintf.constprop.1
 3184              	.LVL354:
 3185              	.LBB172:
 3186              	.LBB173:
 3187              		.loc 3 414 0 is_stmt 1 discriminator 3
 3188 00ea 1048     		ldr	r0, .L430+20
 3189 00ec FFF7FEFF 		bl	chSysHalt
 3190              	.LVL355:
 3191 00f0 2368     		ldr	r3, [r4]
 3192              	.LVL356:
 3193              	.L405:
 3194              	.LBE173:
 3195              	.LBE172:
 3196              		.loc 1 865 0
 3197 00f2 0421     		movs	r1, #4
 3198              		.loc 1 866 0
 3199 00f4 0322     		movs	r2, #3
 3200              		.loc 1 868 0
 3201 00f6 1846     		mov	r0, r3
 3202              		.loc 1 865 0
 3203 00f8 5970     		strb	r1, [r3, #1]
 3204              		.loc 1 866 0
 3205 00fa 2272     		strb	r2, [r4, #8]
 3206              		.loc 1 867 0
 3207 00fc 5C62     		str	r4, [r3, #36]
 3208              		.loc 1 888 0
 3209 00fe 03B0     		add	sp, sp, #12
 3210              		.cfi_remember_state
 3211              		.cfi_def_cfa_offset 12
 3212              		@ sp needed
 3213 0100 BDE83040 		pop	{r4, r5, lr}
 3214              		.cfi_restore 14
 3215              		.cfi_restore 5
 3216              		.cfi_restore 4
 3217              		.cfi_def_cfa_offset 0
 3218              	.LVL357:
 3219              		.loc 1 868 0
 3220 0104 FFF7FEBF 		b	do_close_internal
 3221              	.LVL358:
 3222              	.L402:
 3223              		.cfi_restore_state
 3224              		.loc 1 852 0
 3225 0108 FFF7FEFF 		bl	raw_remove
 3226              	.LVL359:
 3227 010c 2368     		ldr	r3, [r4]
 3228              		.loc 1 853 0
 3229 010e BAE7     		b	.L400
 3230              	.L429:
 3231              		.loc 1 863 0 discriminator 2
 3232 0110 1A6A     		ldr	r2, [r3, #32]
 3233 0112 002A     		cmp	r2, #0
 3234 0114 E0D1     		bne	.L404
 3235 0116 ECE7     		b	.L405
 3236              	.L431:
 3237              		.align	2
 3238              	.L430:
 3239 0118 4C000000 		.word	.LC2
ARM GAS  C:\Users\jo\AppData\Local\Temp\ccLDsGlj.s 			page 58


 3240 011c 00000000 		.word	.LC0
 3241 0120 E0030000 		.word	.LC27
 3242 0124 00000000 		.word	itm_port
 3243 0128 00040000 		.word	.LC28
 3244 012c 20040000 		.word	.LC29
 3245              		.cfi_endproc
 3246              	.LFE270:
 3247              		.size	do_delconn, .-do_delconn
 3248              		.section	.text.do_bind,"ax",%progbits
 3249              		.align	2
 3250              		.p2align 4,,15
 3251              		.global	do_bind
 3252              		.thumb
 3253              		.thumb_func
 3254              		.type	do_bind, %function
 3255              	do_bind:
 3256              	.LFB271:
 3257              		.loc 1 899 0
 3258              		.cfi_startproc
 3259              		@ args = 0, pretend = 0, frame = 0
 3260              		@ frame_needed = 0, uses_anonymous_args = 0
 3261              	.LVL360:
 3262              		.loc 1 900 0
 3263 0000 0368     		ldr	r3, [r0]
 3264 0002 1A7A     		ldrb	r2, [r3, #8]	@ zero_extendqisi2
 3265 0004 51B2     		sxtb	r1, r2
 3266 0006 0931     		adds	r1, r1, #9
 3267 0008 14DB     		blt	.L444
 3268              		.loc 1 903 0
 3269 000a FA22     		movs	r2, #250
 3270 000c 0271     		strb	r2, [r0, #4]
 3271              		.loc 1 904 0
 3272 000e 5968     		ldr	r1, [r3, #4]
 3273 0010 89B1     		cbz	r1, .L442
 3274              		.loc 1 905 0
 3275 0012 1A78     		ldrb	r2, [r3]	@ zero_extendqisi2
 3276 0014 02F0F002 		and	r2, r2, #240
 3277 0018 202A     		cmp	r2, #32
 3278              		.loc 1 899 0
 3279 001a 10B5     		push	{r4, lr}
 3280              		.cfi_def_cfa_offset 8
 3281              		.cfi_offset 4, -8
 3282              		.cfi_offset 14, -4
 3283 001c 0446     		mov	r4, r0
 3284              		.loc 1 905 0
 3285 001e 0ED0     		beq	.L435
 3286 0020 402A     		cmp	r2, #64
 3287 0022 26D0     		beq	.L436
 3288 0024 102A     		cmp	r2, #16
 3289 0026 17D0     		beq	.L445
 3290              		.loc 1 926 0
 3291 0028 03F10C00 		add	r0, r3, #12
 3292              	.LVL361:
 3293              		.loc 1 927 0
 3294 002c BDE81040 		pop	{r4, lr}
 3295              		.cfi_restore 14
 3296              		.cfi_restore 4
ARM GAS  C:\Users\jo\AppData\Local\Temp\ccLDsGlj.s 			page 59


 3297              		.cfi_def_cfa_offset 0
 3298              	.LVL362:
 3299              		.loc 1 926 0
 3300 0030 FFF7FEBF 		b	sys_sem_signal
 3301              	.LVL363:
 3302              	.L444:
 3303              		.loc 1 901 0
 3304 0034 0271     		strb	r2, [r0, #4]
 3305              	.L442:
 3306              		.loc 1 926 0
 3307 0036 03F10C00 		add	r0, r3, #12
 3308              	.LVL364:
 3309 003a FFF7FEBF 		b	sys_sem_signal
 3310              	.LVL365:
 3311              	.L435:
 3312              		.cfi_def_cfa_offset 8
 3313              		.cfi_offset 4, -8
 3314              		.cfi_offset 14, -4
 3315              		.loc 1 913 0
 3316 003e 0846     		mov	r0, r1
 3317              	.LVL366:
 3318 0040 A289     		ldrh	r2, [r4, #12]
 3319 0042 A168     		ldr	r1, [r4, #8]
 3320 0044 FFF7FEFF 		bl	udp_bind
 3321              	.LVL367:
 3322 0048 2368     		ldr	r3, [r4]
 3323 004a 2071     		strb	r0, [r4, #4]
 3324              		.loc 1 927 0
 3325 004c BDE81040 		pop	{r4, lr}
 3326              		.cfi_remember_state
 3327              		.cfi_restore 4
 3328              		.cfi_restore 14
 3329              		.cfi_def_cfa_offset 0
 3330              	.LVL368:
 3331              		.loc 1 926 0
 3332 0050 03F10C00 		add	r0, r3, #12
 3333 0054 FFF7FEBF 		b	sys_sem_signal
 3334              	.LVL369:
 3335              	.L445:
 3336              		.cfi_restore_state
 3337              		.loc 1 918 0
 3338 0058 0846     		mov	r0, r1
 3339              	.LVL370:
 3340 005a A289     		ldrh	r2, [r4, #12]
 3341 005c A168     		ldr	r1, [r4, #8]
 3342 005e FFF7FEFF 		bl	tcp_bind
 3343              	.LVL371:
 3344 0062 2368     		ldr	r3, [r4]
 3345 0064 2071     		strb	r0, [r4, #4]
 3346              		.loc 1 927 0
 3347 0066 BDE81040 		pop	{r4, lr}
 3348              		.cfi_remember_state
 3349              		.cfi_restore 4
 3350              		.cfi_restore 14
 3351              		.cfi_def_cfa_offset 0
 3352              	.LVL372:
 3353              		.loc 1 926 0
ARM GAS  C:\Users\jo\AppData\Local\Temp\ccLDsGlj.s 			page 60


 3354 006a 03F10C00 		add	r0, r3, #12
 3355 006e FFF7FEBF 		b	sys_sem_signal
 3356              	.LVL373:
 3357              	.L436:
 3358              		.cfi_restore_state
 3359              		.loc 1 908 0
 3360 0072 0846     		mov	r0, r1
 3361              	.LVL374:
 3362 0074 A168     		ldr	r1, [r4, #8]
 3363 0076 FFF7FEFF 		bl	raw_bind
 3364              	.LVL375:
 3365 007a 2368     		ldr	r3, [r4]
 3366 007c 2071     		strb	r0, [r4, #4]
 3367              		.loc 1 927 0
 3368 007e BDE81040 		pop	{r4, lr}
 3369              		.cfi_restore 4
 3370              		.cfi_restore 14
 3371              		.cfi_def_cfa_offset 0
 3372              	.LVL376:
 3373              		.loc 1 926 0
 3374 0082 03F10C00 		add	r0, r3, #12
 3375 0086 FFF7FEBF 		b	sys_sem_signal
 3376              	.LVL377:
 3377              		.cfi_endproc
 3378              	.LFE271:
 3379              		.size	do_bind, .-do_bind
 3380 008a 00BFAFF3 		.section	.text.do_connect,"ax",%progbits
 3380      0080
 3381              		.align	2
 3382              		.p2align 4,,15
 3383              		.global	do_connect
 3384              		.thumb
 3385              		.thumb_func
 3386              		.type	do_connect, %function
 3387              	do_connect:
 3388              	.LFB273:
 3389              		.loc 1 985 0
 3390              		.cfi_startproc
 3391              		@ args = 0, pretend = 0, frame = 0
 3392              		@ frame_needed = 0, uses_anonymous_args = 0
 3393              	.LVL378:
 3394              		.loc 1 986 0
 3395 0000 0368     		ldr	r3, [r0]
 3396 0002 5968     		ldr	r1, [r3, #4]
 3397 0004 0029     		cmp	r1, #0
 3398 0006 60D0     		beq	.L461
 3399              		.loc 1 985 0
 3400 0008 10B5     		push	{r4, lr}
 3401              		.cfi_def_cfa_offset 8
 3402              		.cfi_offset 4, -8
 3403              		.cfi_offset 14, -4
 3404              		.loc 1 990 0
 3405 000a 1A78     		ldrb	r2, [r3]	@ zero_extendqisi2
 3406 000c 02F0F002 		and	r2, r2, #240
 3407 0010 202A     		cmp	r2, #32
 3408              		.loc 1 985 0
 3409 0012 82B0     		sub	sp, sp, #8
ARM GAS  C:\Users\jo\AppData\Local\Temp\ccLDsGlj.s 			page 61


 3410              		.cfi_def_cfa_offset 16
 3411 0014 0446     		mov	r4, r0
 3412              		.loc 1 990 0
 3413 0016 31D0     		beq	.L450
 3414 0018 402A     		cmp	r2, #64
 3415 001a 17D0     		beq	.L451
 3416 001c 102A     		cmp	r2, #16
 3417 001e 22D0     		beq	.L462
 3418              		.loc 1 1027 0 discriminator 1
 3419 0020 314B     		ldr	r3, .L464
 3420 0022 324A     		ldr	r2, .L464+4
 3421 0024 0093     		str	r3, [sp]
 3422 0026 3249     		ldr	r1, .L464+8
 3423 0028 3248     		ldr	r0, .L464+12
 3424              	.LVL379:
 3425 002a 40F20343 		movw	r3, #1027
 3426 002e FFF7FEFF 		bl	chprintf.constprop.1
 3427              	.LVL380:
 3428              	.LBB174:
 3429              	.LBB175:
 3430              		.loc 3 414 0 discriminator 1
 3431 0032 2E48     		ldr	r0, .L464+4
 3432 0034 FFF7FEFF 		bl	chSysHalt
 3433              	.LVL381:
 3434              	.LBE175:
 3435              	.LBE174:
 3436              		.loc 1 1027 0 discriminator 1
 3437 0038 FA22     		movs	r2, #250
 3438 003a 2368     		ldr	r3, [r4]
 3439 003c 2271     		strb	r2, [r4, #4]
 3440              	.LVL382:
 3441              	.L448:
 3442              		.loc 1 1031 0
 3443 003e 03F10C00 		add	r0, r3, #12
 3444              		.loc 1 1032 0
 3445 0042 02B0     		add	sp, sp, #8
 3446              		.cfi_remember_state
 3447              		.cfi_def_cfa_offset 8
 3448              		@ sp needed
 3449 0044 BDE81040 		pop	{r4, lr}
 3450              		.cfi_restore 14
 3451              		.cfi_restore 4
 3452              		.cfi_def_cfa_offset 0
 3453              	.LVL383:
 3454              		.loc 1 1031 0
 3455 0048 FFF7FEBF 		b	sys_sem_signal
 3456              	.LVL384:
 3457              	.L451:
 3458              		.cfi_restore_state
 3459              		.loc 1 993 0
 3460 004c 0846     		mov	r0, r1
 3461              	.LVL385:
 3462 004e A168     		ldr	r1, [r4, #8]
 3463 0050 FFF7FEFF 		bl	raw_connect
 3464              	.LVL386:
 3465 0054 2368     		ldr	r3, [r4]
 3466 0056 2071     		strb	r0, [r4, #4]
ARM GAS  C:\Users\jo\AppData\Local\Temp\ccLDsGlj.s 			page 62


 3467              		.loc 1 1031 0
 3468 0058 03F10C00 		add	r0, r3, #12
 3469              		.loc 1 1032 0
 3470 005c 02B0     		add	sp, sp, #8
 3471              		.cfi_remember_state
 3472              		.cfi_def_cfa_offset 8
 3473              		@ sp needed
 3474 005e BDE81040 		pop	{r4, lr}
 3475              		.cfi_restore 4
 3476              		.cfi_restore 14
 3477              		.cfi_def_cfa_offset 0
 3478              	.LVL387:
 3479              		.loc 1 1031 0
 3480 0062 FFF7FEBF 		b	sys_sem_signal
 3481              	.LVL388:
 3482              	.L462:
 3483              		.cfi_restore_state
 3484              		.loc 1 1004 0
 3485 0066 5A78     		ldrb	r2, [r3, #1]	@ zero_extendqisi2
 3486 0068 B2B1     		cbz	r2, .L453
 3487              		.loc 1 1005 0
 3488 006a F722     		movs	r2, #247
 3489 006c 0271     		strb	r2, [r0, #4]
 3490              		.loc 1 1031 0
 3491 006e 03F10C00 		add	r0, r3, #12
 3492              	.LVL389:
 3493              		.loc 1 1032 0
 3494 0072 02B0     		add	sp, sp, #8
 3495              		.cfi_remember_state
 3496              		.cfi_def_cfa_offset 8
 3497              		@ sp needed
 3498 0074 BDE81040 		pop	{r4, lr}
 3499              		.cfi_restore 4
 3500              		.cfi_restore 14
 3501              		.cfi_def_cfa_offset 0
 3502              	.LVL390:
 3503              		.loc 1 1031 0
 3504 0078 FFF7FEBF 		b	sys_sem_signal
 3505              	.LVL391:
 3506              	.L450:
 3507              		.cfi_restore_state
 3508              		.loc 1 998 0
 3509 007c 0846     		mov	r0, r1
 3510              	.LVL392:
 3511 007e A289     		ldrh	r2, [r4, #12]
 3512 0080 A168     		ldr	r1, [r4, #8]
 3513 0082 FFF7FEFF 		bl	udp_connect
 3514              	.LVL393:
 3515 0086 2368     		ldr	r3, [r4]
 3516 0088 2071     		strb	r0, [r4, #4]
 3517              		.loc 1 1031 0
 3518 008a 03F10C00 		add	r0, r3, #12
 3519              		.loc 1 1032 0
 3520 008e 02B0     		add	sp, sp, #8
 3521              		.cfi_remember_state
 3522              		.cfi_def_cfa_offset 8
 3523              		@ sp needed
ARM GAS  C:\Users\jo\AppData\Local\Temp\ccLDsGlj.s 			page 63


 3524 0090 BDE81040 		pop	{r4, lr}
 3525              		.cfi_restore 4
 3526              		.cfi_restore 14
 3527              		.cfi_def_cfa_offset 0
 3528              	.LVL394:
 3529              		.loc 1 1031 0
 3530 0094 FFF7FEBF 		b	sys_sem_signal
 3531              	.LVL395:
 3532              	.L453:
 3533              		.cfi_restore_state
 3534              		.loc 1 1007 0
 3535 0098 1846     		mov	r0, r3
 3536              	.LVL396:
 3537 009a FFF7FEFF 		bl	setup_tcp
 3538              	.LVL397:
 3539              		.loc 1 1008 0
 3540 009e 2368     		ldr	r3, [r4]
 3541 00a0 A168     		ldr	r1, [r4, #8]
 3542 00a2 5868     		ldr	r0, [r3, #4]
 3543 00a4 A289     		ldrh	r2, [r4, #12]
 3544 00a6 144B     		ldr	r3, .L464+16
 3545 00a8 FFF7FEFF 		bl	tcp_connect
 3546              	.LVL398:
 3547 00ac 2071     		strb	r0, [r4, #4]
 3548              		.loc 1 1010 0
 3549 00ae 90B9     		cbnz	r0, .L463
 3550              	.LBB176:
 3551              		.loc 1 1011 0
 3552 00b0 2268     		ldr	r2, [r4]
 3553 00b2 137F     		ldrb	r3, [r2, #28]	@ zero_extendqisi2
 3554              	.LVL399:
 3555              		.loc 1 1012 0
 3556 00b4 0321     		movs	r1, #3
 3557 00b6 5170     		strb	r1, [r2, #1]
 3558              		.loc 1 1013 0
 3559 00b8 9907     		lsls	r1, r3, #30
 3560 00ba 0ED5     		bpl	.L455
 3561              		.loc 1 1013 0 is_stmt 0 discriminator 1
 3562 00bc 43F00403 		orr	r3, r3, #4
 3563              	.LVL400:
 3564 00c0 1377     		strb	r3, [r2, #28]
 3565              	.LVL401:
 3566              		.loc 1 1015 0 is_stmt 1 discriminator 1
 3567 00c2 FB22     		movs	r2, #251
 3568 00c4 2368     		ldr	r3, [r4]
 3569 00c6 2271     		strb	r2, [r4, #4]
 3570 00c8 B9E7     		b	.L448
 3571              	.LVL402:
 3572              	.L461:
 3573              		.cfi_def_cfa_offset 0
 3574              		.cfi_restore 4
 3575              		.cfi_restore 14
 3576              	.LBE176:
 3577              		.loc 1 988 0
 3578 00ca F422     		movs	r2, #244
 3579 00cc 0271     		strb	r2, [r0, #4]
 3580              		.loc 1 1031 0
ARM GAS  C:\Users\jo\AppData\Local\Temp\ccLDsGlj.s 			page 64


 3581 00ce 03F10C00 		add	r0, r3, #12
 3582              	.LVL403:
 3583 00d2 FFF7FEBF 		b	sys_sem_signal
 3584              	.LVL404:
 3585              	.L463:
 3586              		.cfi_def_cfa_offset 16
 3587              		.cfi_offset 4, -8
 3588              		.cfi_offset 14, -4
 3589 00d6 2368     		ldr	r3, [r4]
 3590 00d8 B1E7     		b	.L448
 3591              	.LVL405:
 3592              	.L455:
 3593              	.LBB177:
 3594              		.loc 1 1013 0 discriminator 2
 3595 00da 23F00403 		bic	r3, r3, #4
 3596              	.LVL406:
 3597 00de 1377     		strb	r3, [r2, #28]
 3598              	.LVL407:
 3599              		.loc 1 1017 0 discriminator 2
 3600 00e0 2368     		ldr	r3, [r4]
 3601 00e2 5C62     		str	r4, [r3, #36]
 3602              	.LBE177:
 3603              		.loc 1 1032 0 discriminator 2
 3604 00e4 02B0     		add	sp, sp, #8
 3605              		.cfi_def_cfa_offset 8
 3606              		@ sp needed
 3607 00e6 10BD     		pop	{r4, pc}
 3608              	.LVL408:
 3609              	.L465:
 3610              		.align	2
 3611              	.L464:
 3612 00e8 4C000000 		.word	.LC2
 3613 00ec 3C040000 		.word	.LC30
 3614 00f0 00000000 		.word	.LC0
 3615 00f4 00000000 		.word	itm_port
 3616 00f8 00000000 		.word	do_connected
 3617              		.cfi_endproc
 3618              	.LFE273:
 3619              		.size	do_connect, .-do_connect
 3620 00fc AFF30080 		.section	.text.do_disconnect,"ax",%progbits
 3621              		.align	2
 3622              		.p2align 4,,15
 3623              		.global	do_disconnect
 3624              		.thumb
 3625              		.thumb_func
 3626              		.type	do_disconnect, %function
 3627              	do_disconnect:
 3628              	.LFB274:
 3629              		.loc 1 1043 0
 3630              		.cfi_startproc
 3631              		@ args = 0, pretend = 0, frame = 0
 3632              		@ frame_needed = 0, uses_anonymous_args = 0
 3633              	.LVL409:
 3634              		.loc 1 1045 0
 3635 0000 0268     		ldr	r2, [r0]
 3636 0002 1378     		ldrb	r3, [r2]	@ zero_extendqisi2
 3637 0004 03F0F003 		and	r3, r3, #240
ARM GAS  C:\Users\jo\AppData\Local\Temp\ccLDsGlj.s 			page 65


 3638 0008 202B     		cmp	r3, #32
 3639 000a 05D0     		beq	.L471
 3640              		.loc 1 1051 0
 3641 000c FA23     		movs	r3, #250
 3642 000e 0371     		strb	r3, [r0, #4]
 3643              		.loc 1 1053 0
 3644 0010 02F10C00 		add	r0, r2, #12
 3645              	.LVL410:
 3646 0014 FFF7FEBF 		b	sys_sem_signal
 3647              	.LVL411:
 3648              	.L471:
 3649              		.loc 1 1043 0
 3650 0018 10B5     		push	{r4, lr}
 3651              		.cfi_def_cfa_offset 8
 3652              		.cfi_offset 4, -8
 3653              		.cfi_offset 14, -4
 3654 001a 0446     		mov	r4, r0
 3655              		.loc 1 1046 0
 3656 001c 5068     		ldr	r0, [r2, #4]
 3657              	.LVL412:
 3658 001e FFF7FEFF 		bl	udp_disconnect
 3659              	.LVL413:
 3660 0022 2268     		ldr	r2, [r4]
 3661              		.loc 1 1047 0
 3662 0024 0023     		movs	r3, #0
 3663 0026 2371     		strb	r3, [r4, #4]
 3664              		.loc 1 1053 0
 3665 0028 02F10C00 		add	r0, r2, #12
 3666              		.loc 1 1054 0
 3667 002c BDE81040 		pop	{r4, lr}
 3668              		.cfi_restore 14
 3669              		.cfi_restore 4
 3670              		.cfi_def_cfa_offset 0
 3671              	.LVL414:
 3672              		.loc 1 1053 0
 3673 0030 FFF7FEBF 		b	sys_sem_signal
 3674              	.LVL415:
 3675              		.cfi_endproc
 3676              	.LFE274:
 3677              		.size	do_disconnect, .-do_disconnect
 3678 0034 AFF30080 		.section	.text.do_listen,"ax",%progbits
 3678      AFF30080 
 3678      AFF30080 
 3679              		.align	2
 3680              		.p2align 4,,15
 3681              		.global	do_listen
 3682              		.thumb
 3683              		.thumb_func
 3684              		.type	do_listen, %function
 3685              	do_listen:
 3686              	.LFB275:
 3687              		.loc 1 1065 0
 3688              		.cfi_startproc
 3689              		@ args = 0, pretend = 0, frame = 0
 3690              		@ frame_needed = 0, uses_anonymous_args = 0
 3691              	.LVL416:
 3692 0000 38B5     		push	{r3, r4, r5, lr}
ARM GAS  C:\Users\jo\AppData\Local\Temp\ccLDsGlj.s 			page 66


 3693              		.cfi_def_cfa_offset 16
 3694              		.cfi_offset 3, -16
 3695              		.cfi_offset 4, -12
 3696              		.cfi_offset 5, -8
 3697              		.cfi_offset 14, -4
 3698              		.loc 1 1066 0
 3699 0002 0368     		ldr	r3, [r0]
 3700 0004 1A7A     		ldrb	r2, [r3, #8]	@ zero_extendqisi2
 3701 0006 51B2     		sxtb	r1, r2
 3702 0008 0931     		adds	r1, r1, #9
 3703 000a 07DB     		blt	.L488
 3704              		.loc 1 1069 0
 3705 000c F322     		movs	r2, #243
 3706 000e 0271     		strb	r2, [r0, #4]
 3707              		.loc 1 1070 0
 3708 0010 5A68     		ldr	r2, [r3, #4]
 3709 0012 22B1     		cbz	r2, .L474
 3710              		.loc 1 1071 0
 3711 0014 1978     		ldrb	r1, [r3]	@ zero_extendqisi2
 3712 0016 1029     		cmp	r1, #16
 3713 0018 07D0     		beq	.L489
 3714              		.loc 1 1105 0
 3715 001a F222     		movs	r2, #242
 3716              	.L488:
 3717 001c 0271     		strb	r2, [r0, #4]
 3718              	.LVL417:
 3719              	.L474:
 3720              		.loc 1 1109 0
 3721 001e 03F10C00 		add	r0, r3, #12
 3722              		.loc 1 1110 0
 3723 0022 BDE83840 		pop	{r3, r4, r5, lr}
 3724              		.cfi_remember_state
 3725              		.cfi_restore 14
 3726              		.cfi_restore 5
 3727              		.cfi_restore 4
 3728              		.cfi_restore 3
 3729              		.cfi_def_cfa_offset 0
 3730              		.loc 1 1109 0
 3731 0026 FFF7FEBF 		b	sys_sem_signal
 3732              	.LVL418:
 3733              	.L489:
 3734              		.cfi_restore_state
 3735              		.loc 1 1072 0
 3736 002a 5978     		ldrb	r1, [r3, #1]	@ zero_extendqisi2
 3737 002c 0029     		cmp	r1, #0
 3738 002e F6D1     		bne	.L474
 3739 0030 0446     		mov	r4, r0
 3740              	.LBB178:
 3741              		.loc 1 1076 0
 3742 0032 FF21     		movs	r1, #255
 3743 0034 1046     		mov	r0, r2
 3744              	.LVL419:
 3745 0036 FFF7FEFF 		bl	tcp_listen_with_backlog
 3746              	.LVL420:
 3747              		.loc 1 1078 0
 3748 003a 0546     		mov	r5, r0
 3749 003c E0B1     		cbz	r0, .L490
ARM GAS  C:\Users\jo\AppData\Local\Temp\ccLDsGlj.s 			page 67


 3750              		.loc 1 1083 0
 3751 003e 2068     		ldr	r0, [r4]
 3752              	.LVL421:
 3753 0040 1030     		adds	r0, r0, #16
 3754 0042 FFF7FEFF 		bl	sys_mbox_valid
 3755              	.LVL422:
 3756 0046 50BB     		cbnz	r0, .L491
 3757              	.L477:
 3758              		.loc 1 1089 0
 3759 0048 2068     		ldr	r0, [r4]
 3760              		.loc 1 1088 0
 3761 004a 0023     		movs	r3, #0
 3762              		.loc 1 1089 0
 3763 004c 1430     		adds	r0, r0, #20
 3764              		.loc 1 1088 0
 3765 004e 2371     		strb	r3, [r4, #4]
 3766              		.loc 1 1089 0
 3767 0050 FFF7FEFF 		bl	sys_mbox_valid
 3768              	.LVL423:
 3769 0054 E0B1     		cbz	r0, .L478
 3770 0056 2079     		ldrb	r0, [r4, #4]	@ zero_extendqisi2
 3771              	.L479:
 3772              		.loc 1 1092 0
 3773 0058 90B9     		cbnz	r0, .L480
 3774              		.loc 1 1093 0
 3775 005a 2368     		ldr	r3, [r4]
 3776              		.loc 1 1094 0
 3777 005c 5D60     		str	r5, [r3, #4]
 3778              		.loc 1 1095 0
 3779 005e 2168     		ldr	r1, [r4]
 3780              		.loc 1 1093 0
 3781 0060 0222     		movs	r2, #2
 3782 0062 5A70     		strb	r2, [r3, #1]
 3783              		.loc 1 1095 0
 3784 0064 4868     		ldr	r0, [r1, #4]
 3785 0066 FFF7FEFF 		bl	tcp_arg
 3786              	.LVL424:
 3787              		.loc 1 1096 0
 3788 006a 2368     		ldr	r3, [r4]
 3789 006c 1049     		ldr	r1, .L492
 3790 006e 5868     		ldr	r0, [r3, #4]
 3791 0070 FFF7FEFF 		bl	tcp_accept
 3792              	.LVL425:
 3793 0074 2368     		ldr	r3, [r4]
 3794 0076 D2E7     		b	.L474
 3795              	.LVL426:
 3796              	.L490:
 3797              		.loc 1 1080 0
 3798 0078 FF23     		movs	r3, #255
 3799 007a 2371     		strb	r3, [r4, #4]
 3800 007c 2368     		ldr	r3, [r4]
 3801 007e CEE7     		b	.L474
 3802              	.LVL427:
 3803              	.L480:
 3804              		.loc 1 1099 0
 3805 0080 2846     		mov	r0, r5
 3806 0082 FFF7FEFF 		bl	tcp_close
ARM GAS  C:\Users\jo\AppData\Local\Temp\ccLDsGlj.s 			page 68


 3807              	.LVL428:
 3808              		.loc 1 1100 0
 3809 0086 2368     		ldr	r3, [r4]
 3810 0088 0022     		movs	r2, #0
 3811 008a 5A60     		str	r2, [r3, #4]
 3812 008c 2368     		ldr	r3, [r4]
 3813 008e C6E7     		b	.L474
 3814              	.L478:
 3815              		.loc 1 1090 0
 3816 0090 2068     		ldr	r0, [r4]
 3817 0092 0421     		movs	r1, #4
 3818 0094 1430     		adds	r0, r0, #20
 3819 0096 FFF7FEFF 		bl	sys_mbox_new
 3820              	.LVL429:
 3821 009a 2071     		strb	r0, [r4, #4]
 3822 009c DCE7     		b	.L479
 3823              	.L491:
 3824              		.loc 1 1085 0
 3825 009e 2068     		ldr	r0, [r4]
 3826 00a0 1030     		adds	r0, r0, #16
 3827 00a2 FFF7FEFF 		bl	sys_mbox_free
 3828              	.LVL430:
 3829              		.loc 1 1086 0
 3830 00a6 2068     		ldr	r0, [r4]
 3831 00a8 1030     		adds	r0, r0, #16
 3832 00aa FFF7FEFF 		bl	sys_mbox_set_invalid
 3833              	.LVL431:
 3834 00ae CBE7     		b	.L477
 3835              	.L493:
 3836              		.align	2
 3837              	.L492:
 3838 00b0 00000000 		.word	accept_function
 3839              	.LBE178:
 3840              		.cfi_endproc
 3841              	.LFE275:
 3842              		.size	do_listen, .-do_listen
 3843 00b4 AFF30080 		.section	.text.do_send,"ax",%progbits
 3843      AFF30080 
 3843      AFF30080 
 3844              		.align	2
 3845              		.p2align 4,,15
 3846              		.global	do_send
 3847              		.thumb
 3848              		.thumb_func
 3849              		.type	do_send, %function
 3850              	do_send:
 3851              	.LFB276:
 3852              		.loc 1 1121 0
 3853              		.cfi_startproc
 3854              		@ args = 0, pretend = 0, frame = 0
 3855              		@ frame_needed = 0, uses_anonymous_args = 0
 3856              	.LVL432:
 3857              		.loc 1 1122 0
 3858 0000 0368     		ldr	r3, [r0]
 3859 0002 1A7A     		ldrb	r2, [r3, #8]	@ zero_extendqisi2
 3860 0004 51B2     		sxtb	r1, r2
 3861 0006 0931     		adds	r1, r1, #9
ARM GAS  C:\Users\jo\AppData\Local\Temp\ccLDsGlj.s 			page 69


 3862 0008 1EDB     		blt	.L514
 3863              		.loc 1 1125 0
 3864 000a F322     		movs	r2, #243
 3865 000c 0271     		strb	r2, [r0, #4]
 3866              		.loc 1 1126 0
 3867 000e 5968     		ldr	r1, [r3, #4]
 3868 0010 D9B1     		cbz	r1, .L513
 3869              		.loc 1 1127 0
 3870 0012 1A78     		ldrb	r2, [r3]	@ zero_extendqisi2
 3871 0014 02F0F002 		and	r2, r2, #240
 3872 0018 202A     		cmp	r2, #32
 3873              		.loc 1 1121 0
 3874 001a 10B5     		push	{r4, lr}
 3875              		.cfi_def_cfa_offset 8
 3876              		.cfi_offset 4, -8
 3877              		.cfi_offset 14, -4
 3878 001c 0446     		mov	r4, r0
 3879              		.loc 1 1127 0
 3880 001e 18D0     		beq	.L497
 3881 0020 402A     		cmp	r2, #64
 3882 0022 0BD1     		bne	.L496
 3883              		.loc 1 1130 0
 3884 0024 8368     		ldr	r3, [r0, #8]
 3885 0026 13F10802 		adds	r2, r3, #8
 3886 002a 01D0     		beq	.L499
 3887              		.loc 1 1130 0 is_stmt 0 discriminator 1
 3888 002c 9868     		ldr	r0, [r3, #8]
 3889              	.LVL433:
 3890 002e 50BB     		cbnz	r0, .L500
 3891              	.L499:
 3892              		.loc 1 1131 0 is_stmt 1
 3893 0030 0846     		mov	r0, r1
 3894 0032 1968     		ldr	r1, [r3]
 3895 0034 FFF7FEFF 		bl	raw_send
 3896              	.LVL434:
 3897 0038 2368     		ldr	r3, [r4]
 3898 003a 2071     		strb	r0, [r4, #4]
 3899              	.L496:
 3900              		.loc 1 1162 0
 3901 003c 03F10C00 		add	r0, r3, #12
 3902              		.loc 1 1163 0
 3903 0040 BDE81040 		pop	{r4, lr}
 3904              		.cfi_restore 14
 3905              		.cfi_restore 4
 3906              		.cfi_def_cfa_offset 0
 3907              	.LVL435:
 3908              		.loc 1 1162 0
 3909 0044 FFF7FEBF 		b	sys_sem_signal
 3910              	.LVL436:
 3911              	.L514:
 3912              		.loc 1 1123 0
 3913 0048 0271     		strb	r2, [r0, #4]
 3914              	.L513:
 3915              		.loc 1 1162 0
 3916 004a 03F10C00 		add	r0, r3, #12
 3917              	.LVL437:
 3918 004e FFF7FEBF 		b	sys_sem_signal
ARM GAS  C:\Users\jo\AppData\Local\Temp\ccLDsGlj.s 			page 70


 3919              	.LVL438:
 3920              	.L497:
 3921              		.cfi_def_cfa_offset 8
 3922              		.cfi_offset 4, -8
 3923              		.cfi_offset 14, -4
 3924              		.loc 1 1149 0
 3925 0052 8368     		ldr	r3, [r0, #8]
 3926 0054 13F10802 		adds	r2, r3, #8
 3927 0058 01D0     		beq	.L501
 3928              		.loc 1 1149 0 is_stmt 0 discriminator 1
 3929 005a 9868     		ldr	r0, [r3, #8]
 3930              	.LVL439:
 3931 005c 58B9     		cbnz	r0, .L502
 3932              	.L501:
 3933              		.loc 1 1150 0 is_stmt 1
 3934 005e 0846     		mov	r0, r1
 3935 0060 1968     		ldr	r1, [r3]
 3936 0062 FFF7FEFF 		bl	udp_send
 3937              	.LVL440:
 3938 0066 2368     		ldr	r3, [r4]
 3939 0068 2071     		strb	r0, [r4, #4]
 3940              		.loc 1 1163 0
 3941 006a BDE81040 		pop	{r4, lr}
 3942              		.cfi_remember_state
 3943              		.cfi_restore 4
 3944              		.cfi_restore 14
 3945              		.cfi_def_cfa_offset 0
 3946              	.LVL441:
 3947              		.loc 1 1162 0
 3948 006e 03F10C00 		add	r0, r3, #12
 3949 0072 FFF7FEBF 		b	sys_sem_signal
 3950              	.LVL442:
 3951              	.L502:
 3952              		.cfi_restore_state
 3953              		.loc 1 1152 0
 3954 0076 0846     		mov	r0, r1
 3955 0078 1968     		ldr	r1, [r3]
 3956 007a 9B89     		ldrh	r3, [r3, #12]
 3957 007c FFF7FEFF 		bl	udp_sendto
 3958              	.LVL443:
 3959 0080 2368     		ldr	r3, [r4]
 3960 0082 2071     		strb	r0, [r4, #4]
 3961 0084 DAE7     		b	.L496
 3962              	.L500:
 3963              		.loc 1 1133 0
 3964 0086 0846     		mov	r0, r1
 3965 0088 1968     		ldr	r1, [r3]
 3966 008a FFF7FEFF 		bl	raw_sendto
 3967              	.LVL444:
 3968 008e 2368     		ldr	r3, [r4]
 3969 0090 2071     		strb	r0, [r4, #4]
 3970 0092 D3E7     		b	.L496
 3971              		.cfi_endproc
 3972              	.LFE276:
 3973              		.size	do_send, .-do_send
 3974 0094 AFF30080 		.section	.text.do_recv,"ax",%progbits
 3974      AFF30080 
ARM GAS  C:\Users\jo\AppData\Local\Temp\ccLDsGlj.s 			page 71


 3974      AFF30080 
 3975              		.align	2
 3976              		.p2align 4,,15
 3977              		.global	do_recv
 3978              		.thumb
 3979              		.thumb_func
 3980              		.type	do_recv, %function
 3981              	do_recv:
 3982              	.LFB277:
 3983              		.loc 1 1174 0
 3984              		.cfi_startproc
 3985              		@ args = 0, pretend = 0, frame = 0
 3986              		@ frame_needed = 0, uses_anonymous_args = 0
 3987              	.LVL445:
 3988 0000 70B5     		push	{r4, r5, r6, lr}
 3989              		.cfi_def_cfa_offset 16
 3990              		.cfi_offset 4, -16
 3991              		.cfi_offset 5, -12
 3992              		.cfi_offset 6, -8
 3993              		.cfi_offset 14, -4
 3994              		.loc 1 1175 0
 3995 0002 0022     		movs	r2, #0
 3996              		.loc 1 1176 0
 3997 0004 0368     		ldr	r3, [r0]
 3998              		.loc 1 1175 0
 3999 0006 0271     		strb	r2, [r0, #4]
 4000              		.loc 1 1174 0
 4001 0008 0646     		mov	r6, r0
 4002              		.loc 1 1176 0
 4003 000a 5868     		ldr	r0, [r3, #4]
 4004              	.LVL446:
 4005 000c 10B1     		cbz	r0, .L516
 4006              		.loc 1 1177 0
 4007 000e 1A78     		ldrb	r2, [r3]	@ zero_extendqisi2
 4008 0010 102A     		cmp	r2, #16
 4009 0012 05D0     		beq	.L526
 4010              	.L516:
 4011              		.loc 1 1193 0
 4012 0014 03F10C00 		add	r0, r3, #12
 4013              		.loc 1 1194 0
 4014 0018 BDE87040 		pop	{r4, r5, r6, lr}
 4015              		.cfi_remember_state
 4016              		.cfi_restore 14
 4017              		.cfi_restore 6
 4018              		.cfi_restore 5
 4019              		.cfi_restore 4
 4020              		.cfi_def_cfa_offset 0
 4021              	.LVL447:
 4022              		.loc 1 1193 0
 4023 001c FFF7FEBF 		b	sys_sem_signal
 4024              	.LVL448:
 4025              	.L526:
 4026              		.cfi_restore_state
 4027              	.LBB179:
 4028              		.loc 1 1184 0
 4029 0020 B468     		ldr	r4, [r6, #8]
 4030              	.LVL449:
ARM GAS  C:\Users\jo\AppData\Local\Temp\ccLDsGlj.s 			page 72


 4031 0022 00E0     		b	.L519
 4032              	.LVL450:
 4033              	.L527:
 4034 0024 5868     		ldr	r0, [r3, #4]
 4035              	.L519:
 4036              	.LBB180:
 4037              		.loc 1 1186 0
 4038 0026 B4F5803F 		cmp	r4, #65536
 4039 002a 2DBF     		iteet	cs
 4040 002c 4FF6FF75 		movwcs	r5, #65535
 4041 0030 A1B2     		uxthcc	r1, r4
 4042 0032 2546     		movcc	r5, r4
 4043 0034 2946     		movcs	r1, r5
 4044              	.LVL451:
 4045              		.loc 1 1187 0
 4046 0036 FFF7FEFF 		bl	tcp_recved
 4047              	.LVL452:
 4048              	.LBE180:
 4049              		.loc 1 1189 0
 4050 003a 641B     		subs	r4, r4, r5
 4051              	.LVL453:
 4052 003c 3368     		ldr	r3, [r6]
 4053 003e F1D1     		bne	.L527
 4054              	.LBE179:
 4055              		.loc 1 1193 0
 4056 0040 03F10C00 		add	r0, r3, #12
 4057              		.loc 1 1194 0
 4058 0044 BDE87040 		pop	{r4, r5, r6, lr}
 4059              		.cfi_restore 4
 4060              		.cfi_restore 5
 4061              		.cfi_restore 6
 4062              		.cfi_restore 14
 4063              		.cfi_def_cfa_offset 0
 4064              	.LVL454:
 4065              		.loc 1 1193 0
 4066 0048 FFF7FEBF 		b	sys_sem_signal
 4067              	.LVL455:
 4068              		.cfi_endproc
 4069              	.LFE277:
 4070              		.size	do_recv, .-do_recv
 4071 004c AFF30080 		.section	.text.do_write,"ax",%progbits
 4072              		.align	2
 4073              		.p2align 4,,15
 4074              		.global	do_write
 4075              		.thumb
 4076              		.thumb_func
 4077              		.type	do_write, %function
 4078              	do_write:
 4079              	.LFB279:
 4080              		.loc 1 1344 0
 4081              		.cfi_startproc
 4082              		@ args = 0, pretend = 0, frame = 0
 4083              		@ frame_needed = 0, uses_anonymous_args = 0
 4084              	.LVL456:
 4085              		.loc 1 1345 0
 4086 0000 0368     		ldr	r3, [r0]
 4087 0002 1A7A     		ldrb	r2, [r3, #8]	@ zero_extendqisi2
ARM GAS  C:\Users\jo\AppData\Local\Temp\ccLDsGlj.s 			page 73


 4088 0004 51B2     		sxtb	r1, r2
 4089 0006 0931     		adds	r1, r1, #9
 4090 0008 03DB     		blt	.L541
 4091              		.loc 1 1348 0
 4092 000a 1A78     		ldrb	r2, [r3]	@ zero_extendqisi2
 4093 000c 102A     		cmp	r2, #16
 4094 000e 05D0     		beq	.L542
 4095              		.loc 1 1384 0
 4096 0010 FA22     		movs	r2, #250
 4097              	.L541:
 4098 0012 0271     		strb	r2, [r0, #4]
 4099              	.L530:
 4100              		.loc 1 1388 0
 4101 0014 03F10C00 		add	r0, r3, #12
 4102              	.LVL457:
 4103 0018 FFF7FEBF 		b	sys_sem_signal
 4104              	.LVL458:
 4105              	.L542:
 4106              		.loc 1 1350 0
 4107 001c 5A78     		ldrb	r2, [r3, #1]	@ zero_extendqisi2
 4108 001e 12B1     		cbz	r2, .L532
 4109              		.loc 1 1352 0
 4110 0020 FB22     		movs	r2, #251
 4111 0022 0271     		strb	r2, [r0, #4]
 4112 0024 F6E7     		b	.L530
 4113              	.L532:
 4114              		.loc 1 1353 0
 4115 0026 5A68     		ldr	r2, [r3, #4]
 4116 0028 002A     		cmp	r2, #0
 4117 002a 2ED0     		beq	.L533
 4118              		.loc 1 1344 0
 4119 002c 10B5     		push	{r4, lr}
 4120              		.cfi_def_cfa_offset 8
 4121              		.cfi_offset 4, -8
 4122              		.cfi_offset 14, -4
 4123              		.loc 1 1356 0
 4124 002e 5A6A     		ldr	r2, [r3, #36]
 4125              		.loc 1 1354 0
 4126 0030 0121     		movs	r1, #1
 4127              		.loc 1 1344 0
 4128 0032 82B0     		sub	sp, sp, #8
 4129              		.cfi_def_cfa_offset 16
 4130 0034 0446     		mov	r4, r0
 4131              		.loc 1 1354 0
 4132 0036 5970     		strb	r1, [r3, #1]
 4133              		.loc 1 1356 0
 4134 0038 1AB3     		cbz	r2, .L543
 4135              	.L534:
 4136              		.loc 1 1356 0 is_stmt 0 discriminator 3
 4137 003a 154B     		ldr	r3, .L545
 4138 003c 0093     		str	r3, [sp]
 4139 003e 1548     		ldr	r0, .L545+4
 4140              	.LVL459:
 4141 0040 1549     		ldr	r1, .L545+8
 4142 0042 164A     		ldr	r2, .L545+12
 4143 0044 40F24D53 		movw	r3, #1357
 4144 0048 FFF7FEFF 		bl	chprintf.constprop.1
ARM GAS  C:\Users\jo\AppData\Local\Temp\ccLDsGlj.s 			page 74


 4145              	.LVL460:
 4146              	.LBB181:
 4147              	.LBB182:
 4148              		.loc 3 414 0 is_stmt 1 discriminator 3
 4149 004c 1348     		ldr	r0, .L545+12
 4150 004e FFF7FEFF 		bl	chSysHalt
 4151              	.LVL461:
 4152              	.L535:
 4153              	.LBE182:
 4154              	.LBE181:
 4155              		.loc 1 1358 0
 4156 0052 E368     		ldr	r3, [r4, #12]
 4157 0054 43B1     		cbz	r3, .L544
 4158              	.L536:
 4159              		.loc 1 1359 0
 4160 0056 2068     		ldr	r0, [r4]
 4161              		.loc 1 1360 0
 4162 0058 0023     		movs	r3, #0
 4163              		.loc 1 1359 0
 4164 005a 4462     		str	r4, [r0, #36]
 4165              		.loc 1 1360 0
 4166 005c 0362     		str	r3, [r0, #32]
 4167              		.loc 1 1389 0
 4168 005e 02B0     		add	sp, sp, #8
 4169              		.cfi_remember_state
 4170              		.cfi_def_cfa_offset 8
 4171              		@ sp needed
 4172 0060 BDE81040 		pop	{r4, lr}
 4173              		.cfi_restore 14
 4174              		.cfi_restore 4
 4175              		.cfi_def_cfa_offset 0
 4176              	.LVL462:
 4177              		.loc 1 1371 0
 4178 0064 FFF7FEBF 		b	do_writemore
 4179              	.LVL463:
 4180              	.L544:
 4181              		.cfi_restore_state
 4182              		.loc 1 1358 0 discriminator 1
 4183 0068 094B     		ldr	r3, .L545
 4184 006a 0093     		str	r3, [sp]
 4185 006c 0A49     		ldr	r1, .L545+8
 4186 006e 0C4A     		ldr	r2, .L545+16
 4187 0070 0848     		ldr	r0, .L545+4
 4188 0072 40F24E53 		movw	r3, #1358
 4189 0076 FFF7FEFF 		bl	chprintf.constprop.1
 4190              	.LVL464:
 4191              	.LBB183:
 4192              	.LBB184:
 4193              		.loc 3 414 0 discriminator 1
 4194 007a 0948     		ldr	r0, .L545+16
 4195 007c FFF7FEFF 		bl	chSysHalt
 4196              	.LVL465:
 4197 0080 E9E7     		b	.L536
 4198              	.LVL466:
 4199              	.L543:
 4200              	.LBE184:
 4201              	.LBE183:
ARM GAS  C:\Users\jo\AppData\Local\Temp\ccLDsGlj.s 			page 75


 4202              		.loc 1 1356 0 discriminator 2
 4203 0082 1B6A     		ldr	r3, [r3, #32]
 4204 0084 002B     		cmp	r3, #0
 4205 0086 E4D0     		beq	.L535
 4206 0088 D7E7     		b	.L534
 4207              	.L533:
 4208              		.cfi_def_cfa_offset 0
 4209              		.cfi_restore 4
 4210              		.cfi_restore 14
 4211              		.loc 1 1377 0
 4212 008a F322     		movs	r2, #243
 4213 008c 0271     		strb	r2, [r0, #4]
 4214 008e C1E7     		b	.L530
 4215              	.L546:
 4216              		.align	2
 4217              	.L545:
 4218 0090 4C000000 		.word	.LC2
 4219 0094 00000000 		.word	itm_port
 4220 0098 00000000 		.word	.LC0
 4221 009c 20040000 		.word	.LC29
 4222 00a0 54040000 		.word	.LC31
 4223              		.cfi_endproc
 4224              	.LFE279:
 4225              		.size	do_write, .-do_write
 4226 00a4 AFF30080 		.section	.text.do_getaddr,"ax",%progbits
 4226      AFF30080 
 4226      AFF30080 
 4227              		.align	2
 4228              		.p2align 4,,15
 4229              		.global	do_getaddr
 4230              		.thumb
 4231              		.thumb_func
 4232              		.type	do_getaddr, %function
 4233              	do_getaddr:
 4234              	.LFB280:
 4235              		.loc 1 1399 0
 4236              		.cfi_startproc
 4237              		@ args = 0, pretend = 0, frame = 0
 4238              		@ frame_needed = 0, uses_anonymous_args = 0
 4239              	.LVL467:
 4240 0000 10B5     		push	{r4, lr}
 4241              		.cfi_def_cfa_offset 8
 4242              		.cfi_offset 4, -8
 4243              		.cfi_offset 14, -4
 4244              		.loc 1 1400 0
 4245 0002 0468     		ldr	r4, [r0]
 4246 0004 6368     		ldr	r3, [r4, #4]
 4247              		.loc 1 1399 0
 4248 0006 82B0     		sub	sp, sp, #8
 4249              		.cfi_def_cfa_offset 16
 4250              		.loc 1 1400 0
 4251 0008 4BB3     		cbz	r3, .L548
 4252              		.loc 1 1401 0
 4253 000a 017C     		ldrb	r1, [r0, #16]	@ zero_extendqisi2
 4254 000c 8268     		ldr	r2, [r0, #8]
 4255 000e 09BB     		cbnz	r1, .L564
 4256              		.loc 1 1401 0 is_stmt 0 discriminator 2
ARM GAS  C:\Users\jo\AppData\Local\Temp\ccLDsGlj.s 			page 76


 4257 0010 5B68     		ldr	r3, [r3, #4]
 4258 0012 1360     		str	r3, [r2]
 4259              	.L550:
 4260              		.loc 1 1404 0 is_stmt 1
 4261 0014 0023     		movs	r3, #0
 4262 0016 0371     		strb	r3, [r0, #4]
 4263              		.loc 1 1405 0
 4264 0018 2378     		ldrb	r3, [r4]	@ zero_extendqisi2
 4265 001a 03F0F003 		and	r3, r3, #240
 4266 001e 202B     		cmp	r3, #32
 4267 0020 33D0     		beq	.L552
 4268 0022 402B     		cmp	r3, #64
 4269 0024 19D0     		beq	.L553
 4270 0026 102B     		cmp	r3, #16
 4271 0028 22D0     		beq	.L565
 4272              		.loc 1 1435 0 discriminator 1
 4273 002a 264B     		ldr	r3, .L569
 4274 002c 0093     		str	r3, [sp]
 4275 002e 0446     		mov	r4, r0
 4276 0030 2549     		ldr	r1, .L569+4
 4277 0032 264A     		ldr	r2, .L569+8
 4278 0034 2648     		ldr	r0, .L569+12
 4279              	.LVL468:
 4280 0036 40F29B53 		movw	r3, #1435
 4281 003a FFF7FEFF 		bl	chprintf.constprop.1
 4282              	.LVL469:
 4283              	.LBB185:
 4284              	.LBB186:
 4285              		.loc 3 414 0 discriminator 1
 4286 003e 2348     		ldr	r0, .L569+8
 4287 0040 FFF7FEFF 		bl	chSysHalt
 4288              	.LVL470:
 4289 0044 2468     		ldr	r4, [r4]
 4290              	.LVL471:
 4291              	.L556:
 4292              	.LBE186:
 4293              	.LBE185:
 4294              		.loc 1 1441 0
 4295 0046 04F10C00 		add	r0, r4, #12
 4296              		.loc 1 1442 0
 4297 004a 02B0     		add	sp, sp, #8
 4298              		.cfi_remember_state
 4299              		.cfi_def_cfa_offset 8
 4300              		@ sp needed
 4301 004c BDE81040 		pop	{r4, lr}
 4302              		.cfi_restore 14
 4303              		.cfi_restore 4
 4304              		.cfi_def_cfa_offset 0
 4305              		.loc 1 1441 0
 4306 0050 FFF7FEBF 		b	sys_sem_signal
 4307              	.LVL472:
 4308              	.L564:
 4309              		.cfi_restore_state
 4310              		.loc 1 1401 0 discriminator 1
 4311 0054 1B68     		ldr	r3, [r3]
 4312 0056 1360     		str	r3, [r2]
 4313 0058 DCE7     		b	.L550
ARM GAS  C:\Users\jo\AppData\Local\Temp\ccLDsGlj.s 			page 77


 4314              	.L553:
 4315              		.loc 1 1408 0
 4316 005a 037C     		ldrb	r3, [r0, #16]	@ zero_extendqisi2
 4317 005c FBB9     		cbnz	r3, .L566
 4318              	.L548:
 4319              		.loc 1 1439 0
 4320 005e F323     		movs	r3, #243
 4321 0060 0371     		strb	r3, [r0, #4]
 4322              		.loc 1 1441 0
 4323 0062 04F10C00 		add	r0, r4, #12
 4324              	.LVL473:
 4325              		.loc 1 1442 0
 4326 0066 02B0     		add	sp, sp, #8
 4327              		.cfi_remember_state
 4328              		.cfi_def_cfa_offset 8
 4329              		@ sp needed
 4330 0068 BDE81040 		pop	{r4, lr}
 4331              		.cfi_restore 4
 4332              		.cfi_restore 14
 4333              		.cfi_def_cfa_offset 0
 4334              		.loc 1 1441 0
 4335 006c FFF7FEBF 		b	sys_sem_signal
 4336              	.LVL474:
 4337              	.L565:
 4338              		.cfi_restore_state
 4339              		.loc 1 1431 0
 4340 0070 027C     		ldrb	r2, [r0, #16]	@ zero_extendqisi2
 4341 0072 C368     		ldr	r3, [r0, #12]
 4342 0074 F2B9     		cbnz	r2, .L567
 4343              		.loc 1 1431 0 is_stmt 0 discriminator 2
 4344 0076 6268     		ldr	r2, [r4, #4]
 4345 0078 928B     		ldrh	r2, [r2, #28]
 4346              	.L560:
 4347              		.loc 1 1431 0 discriminator 4
 4348 007a 1A80     		strh	r2, [r3]	@ movhi
 4349              		.loc 1 1441 0 is_stmt 1 discriminator 4
 4350 007c 04F10C00 		add	r0, r4, #12
 4351              	.LVL475:
 4352              		.loc 1 1442 0 discriminator 4
 4353 0080 02B0     		add	sp, sp, #8
 4354              		.cfi_remember_state
 4355              		.cfi_def_cfa_offset 8
 4356              		@ sp needed
 4357 0082 BDE81040 		pop	{r4, lr}
 4358              		.cfi_restore 4
 4359              		.cfi_restore 14
 4360              		.cfi_def_cfa_offset 0
 4361              		.loc 1 1441 0 discriminator 4
 4362 0086 FFF7FEBF 		b	sys_sem_signal
 4363              	.LVL476:
 4364              	.L552:
 4365              		.cfi_restore_state
 4366              		.loc 1 1418 0
 4367 008a 037C     		ldrb	r3, [r0, #16]	@ zero_extendqisi2
 4368 008c ABB9     		cbnz	r3, .L568
 4369              		.loc 1 1421 0
 4370 008e 6368     		ldr	r3, [r4, #4]
ARM GAS  C:\Users\jo\AppData\Local\Temp\ccLDsGlj.s 			page 78


 4371 0090 1A7C     		ldrb	r2, [r3, #16]	@ zero_extendqisi2
 4372 0092 5207     		lsls	r2, r2, #29
 4373 0094 E3D5     		bpl	.L548
 4374              		.loc 1 1424 0
 4375 0096 C268     		ldr	r2, [r0, #12]
 4376 0098 9B8A     		ldrh	r3, [r3, #20]
 4377 009a 1380     		strh	r3, [r2]	@ movhi
 4378 009c D3E7     		b	.L556
 4379              	.L566:
 4380              		.loc 1 1409 0
 4381 009e 6268     		ldr	r2, [r4, #4]
 4382 00a0 C368     		ldr	r3, [r0, #12]
 4383 00a2 127C     		ldrb	r2, [r2, #16]	@ zero_extendqisi2
 4384 00a4 1A80     		strh	r2, [r3]	@ movhi
 4385              		.loc 1 1441 0
 4386 00a6 04F10C00 		add	r0, r4, #12
 4387              	.LVL477:
 4388              		.loc 1 1442 0
 4389 00aa 02B0     		add	sp, sp, #8
 4390              		.cfi_remember_state
 4391              		.cfi_def_cfa_offset 8
 4392              		@ sp needed
 4393 00ac BDE81040 		pop	{r4, lr}
 4394              		.cfi_restore 4
 4395              		.cfi_restore 14
 4396              		.cfi_def_cfa_offset 0
 4397              		.loc 1 1441 0
 4398 00b0 FFF7FEBF 		b	sys_sem_signal
 4399              	.LVL478:
 4400              	.L567:
 4401              		.cfi_restore_state
 4402              		.loc 1 1431 0 discriminator 1
 4403 00b4 6268     		ldr	r2, [r4, #4]
 4404 00b6 528B     		ldrh	r2, [r2, #26]
 4405 00b8 DFE7     		b	.L560
 4406              	.L568:
 4407              		.loc 1 1419 0
 4408 00ba 6268     		ldr	r2, [r4, #4]
 4409 00bc C368     		ldr	r3, [r0, #12]
 4410 00be 528A     		ldrh	r2, [r2, #18]
 4411 00c0 1A80     		strh	r2, [r3]	@ movhi
 4412 00c2 C0E7     		b	.L556
 4413              	.L570:
 4414              		.align	2
 4415              	.L569:
 4416 00c4 4C000000 		.word	.LC2
 4417 00c8 00000000 		.word	.LC0
 4418 00cc 68040000 		.word	.LC32
 4419 00d0 00000000 		.word	itm_port
 4420              		.cfi_endproc
 4421              	.LFE280:
 4422              		.size	do_getaddr, .-do_getaddr
 4423 00d4 AFF30080 		.section	.text.do_close,"ax",%progbits
 4423      AFF30080 
 4423      AFF30080 
 4424              		.align	2
 4425              		.p2align 4,,15
ARM GAS  C:\Users\jo\AppData\Local\Temp\ccLDsGlj.s 			page 79


 4426              		.global	do_close
 4427              		.thumb
 4428              		.thumb_func
 4429              		.type	do_close, %function
 4430              	do_close:
 4431              	.LFB281:
 4432              		.loc 1 1452 0
 4433              		.cfi_startproc
 4434              		@ args = 0, pretend = 0, frame = 0
 4435              		@ frame_needed = 0, uses_anonymous_args = 0
 4436              	.LVL479:
 4437 0000 10B5     		push	{r4, lr}
 4438              		.cfi_def_cfa_offset 8
 4439              		.cfi_offset 4, -8
 4440              		.cfi_offset 14, -4
 4441 0002 0446     		mov	r4, r0
 4442              		.loc 1 1455 0
 4443 0004 0068     		ldr	r0, [r0]
 4444              	.LVL480:
 4445 0006 4378     		ldrb	r3, [r0, #1]	@ zero_extendqisi2
 4446 0008 13F0FD0F 		tst	r3, #253
 4447              		.loc 1 1452 0
 4448 000c 82B0     		sub	sp, sp, #8
 4449              		.cfi_def_cfa_offset 16
 4450              		.loc 1 1455 0
 4451 000e 17D0     		beq	.L572
 4452              		.loc 1 1457 0
 4453 0010 0378     		ldrb	r3, [r0]	@ zero_extendqisi2
 4454 0012 102B     		cmp	r3, #16
 4455 0014 0CD0     		beq	.L573
 4456              		.loc 1 1457 0 is_stmt 0 discriminator 1
 4457 0016 254B     		ldr	r3, .L600
 4458 0018 0093     		str	r3, [sp]
 4459 001a 2549     		ldr	r1, .L600+4
 4460 001c 254A     		ldr	r2, .L600+8
 4461 001e 2648     		ldr	r0, .L600+12
 4462 0020 40F2B153 		movw	r3, #1457
 4463 0024 FFF7FEFF 		bl	chprintf.constprop.1
 4464              	.LVL481:
 4465              	.LBB187:
 4466              	.LBB188:
 4467              		.loc 3 414 0 is_stmt 1 discriminator 1
 4468 0028 2248     		ldr	r0, .L600+8
 4469 002a FFF7FEFF 		bl	chSysHalt
 4470              	.LVL482:
 4471 002e 2068     		ldr	r0, [r4]
 4472              	.LVL483:
 4473              	.L573:
 4474              	.LBE188:
 4475              	.LBE187:
 4476              		.loc 1 1458 0
 4477 0030 FB23     		movs	r3, #251
 4478              		.loc 1 1481 0
 4479 0032 0C30     		adds	r0, r0, #12
 4480              		.loc 1 1458 0
 4481 0034 2371     		strb	r3, [r4, #4]
 4482              		.loc 1 1482 0
ARM GAS  C:\Users\jo\AppData\Local\Temp\ccLDsGlj.s 			page 80


 4483 0036 02B0     		add	sp, sp, #8
 4484              		.cfi_remember_state
 4485              		.cfi_def_cfa_offset 8
 4486              		@ sp needed
 4487 0038 BDE81040 		pop	{r4, lr}
 4488              		.cfi_restore 4
 4489              		.cfi_restore 14
 4490              		.cfi_def_cfa_offset 0
 4491              	.LVL484:
 4492              		.loc 1 1481 0
 4493 003c FFF7FEBF 		b	sys_sem_signal
 4494              	.LVL485:
 4495              	.L572:
 4496              		.cfi_restore_state
 4497              		.loc 1 1459 0
 4498 0040 4268     		ldr	r2, [r0, #4]
 4499 0042 12B1     		cbz	r2, .L575
 4500              		.loc 1 1459 0 is_stmt 0 discriminator 1
 4501 0044 0278     		ldrb	r2, [r0]	@ zero_extendqisi2
 4502 0046 102A     		cmp	r2, #16
 4503 0048 07D0     		beq	.L597
 4504              	.L575:
 4505              		.loc 1 1479 0 is_stmt 1
 4506 004a FA23     		movs	r3, #250
 4507 004c 2371     		strb	r3, [r4, #4]
 4508              	.L574:
 4509              		.loc 1 1481 0
 4510 004e 0C30     		adds	r0, r0, #12
 4511              		.loc 1 1482 0
 4512 0050 02B0     		add	sp, sp, #8
 4513              		.cfi_remember_state
 4514              		.cfi_def_cfa_offset 8
 4515              		@ sp needed
 4516 0052 BDE81040 		pop	{r4, lr}
 4517              		.cfi_restore 14
 4518              		.cfi_restore 4
 4519              		.cfi_def_cfa_offset 0
 4520              	.LVL486:
 4521              		.loc 1 1481 0
 4522 0056 FFF7FEBF 		b	sys_sem_signal
 4523              	.LVL487:
 4524              	.L597:
 4525              		.cfi_restore_state
 4526              		.loc 1 1460 0
 4527 005a 227A     		ldrb	r2, [r4, #8]	@ zero_extendqisi2
 4528 005c 032A     		cmp	r2, #3
 4529 005e 1ED0     		beq	.L576
 4530              		.loc 1 1460 0 is_stmt 0 discriminator 1
 4531 0060 022B     		cmp	r3, #2
 4532 0062 20D0     		beq	.L598
 4533              		.loc 1 1464 0 is_stmt 1
 4534 0064 D307     		lsls	r3, r2, #31
 4535 0066 1AD4     		bmi	.L576
 4536              	.L578:
 4537              		.loc 1 1468 0
 4538 0068 436A     		ldr	r3, [r0, #36]
 4539 006a A3B1     		cbz	r3, .L599
ARM GAS  C:\Users\jo\AppData\Local\Temp\ccLDsGlj.s 			page 81


 4540              	.L579:
 4541              		.loc 1 1468 0 is_stmt 0 discriminator 3
 4542 006c 0F4B     		ldr	r3, .L600
 4543 006e 0093     		str	r3, [sp]
 4544 0070 0F49     		ldr	r1, .L600+4
 4545 0072 124A     		ldr	r2, .L600+16
 4546 0074 1048     		ldr	r0, .L600+12
 4547 0076 40F2BD53 		movw	r3, #1469
 4548 007a FFF7FEFF 		bl	chprintf.constprop.1
 4549              	.LVL488:
 4550              	.LBB189:
 4551              	.LBB190:
 4552              		.loc 3 414 0 is_stmt 1 discriminator 3
 4553 007e 0F48     		ldr	r0, .L600+16
 4554 0080 FFF7FEFF 		bl	chSysHalt
 4555              	.LVL489:
 4556 0084 2068     		ldr	r0, [r4]
 4557              	.LVL490:
 4558              	.L580:
 4559              	.LBE190:
 4560              	.LBE189:
 4561              		.loc 1 1471 0
 4562 0086 4462     		str	r4, [r0, #36]
 4563              		.loc 1 1470 0
 4564 0088 0423     		movs	r3, #4
 4565 008a 4370     		strb	r3, [r0, #1]
 4566              		.loc 1 1482 0
 4567 008c 02B0     		add	sp, sp, #8
 4568              		.cfi_remember_state
 4569              		.cfi_def_cfa_offset 8
 4570              		@ sp needed
 4571 008e BDE81040 		pop	{r4, lr}
 4572              		.cfi_restore 14
 4573              		.cfi_restore 4
 4574              		.cfi_def_cfa_offset 0
 4575              	.LVL491:
 4576              		.loc 1 1472 0
 4577 0092 FFF7FEBF 		b	do_close_internal
 4578              	.LVL492:
 4579              	.L599:
 4580              		.cfi_restore_state
 4581              		.loc 1 1468 0 discriminator 2
 4582 0096 036A     		ldr	r3, [r0, #32]
 4583 0098 002B     		cmp	r3, #0
 4584 009a E7D1     		bne	.L579
 4585 009c F3E7     		b	.L580
 4586              	.L576:
 4587              		.loc 1 1466 0
 4588 009e FFF7FEFF 		bl	netconn_drain
 4589              	.LVL493:
 4590 00a2 2068     		ldr	r0, [r4]
 4591 00a4 E0E7     		b	.L578
 4592              	.L598:
 4593              		.loc 1 1462 0
 4594 00a6 F323     		movs	r3, #243
 4595 00a8 2371     		strb	r3, [r4, #4]
 4596              		.loc 1 1460 0
ARM GAS  C:\Users\jo\AppData\Local\Temp\ccLDsGlj.s 			page 82


 4597 00aa D0E7     		b	.L574
 4598              	.L601:
 4599              		.align	2
 4600              	.L600:
 4601 00ac 4C000000 		.word	.LC2
 4602 00b0 00000000 		.word	.LC0
 4603 00b4 E0030000 		.word	.LC27
 4604 00b8 00000000 		.word	itm_port
 4605 00bc 20040000 		.word	.LC29
 4606              		.cfi_endproc
 4607              	.LFE281:
 4608              		.size	do_close, .-do_close
 4609              		.section	.rodata.str1.4,"aMS",%progbits,1
 4610              		.align	2
 4611              	.LC0:
 4612 0000 41737365 		.ascii	"Assertion \"%s\" failed at line %d in %s\012\000"
 4612      7274696F 
 4612      6E202225 
 4612      73222066 
 4612      61696C65 
 4613              	.LC1:
 4614 0028 72656376 		.ascii	"recv_tcp must have a pcb argument\000"
 4614      5F746370 
 4614      206D7573 
 4614      74206861 
 4614      76652061 
 4615 004a 0000     		.space	2
 4616              	.LC2:
 4617 004c 2E2E2F2E 		.ascii	"../../../os/ext/lwip-1.4.1/src/api/api_msg.c\000"
 4617      2E2F2E2E 
 4617      2F6F732F 
 4617      6578742F 
 4617      6C776970 
 4618 0079 000000   		.space	3
 4619              	.LC3:
 4620 007c 72656376 		.ascii	"recv_tcp must have an argument\000"
 4620      5F746370 
 4620      206D7573 
 4620      74206861 
 4620      76652061 
 4621 009b 00       		.space	1
 4622              	.LC4:
 4623 009c 72656376 		.ascii	"recv_tcp: recv for wrong pcb!\000"
 4623      5F746370 
 4623      3A207265 
 4623      63762066 
 4623      6F722077 
 4624 00ba 0000     		.space	2
 4625              	.LC5:
 4626 00bc 696E7661 		.ascii	"invalid conn\000"
 4626      6C696420 
 4626      636F6E6E 
 4626      00
 4627 00c9 000000   		.space	3
 4628              	.LC6:
 4629 00cc 74686973 		.ascii	"this is for tcp netconns only\000"
 4629      20697320 
ARM GAS  C:\Users\jo\AppData\Local\Temp\ccLDsGlj.s 			page 83


 4629      666F7220 
 4629      74637020 
 4629      6E657463 
 4630 00ea 0000     		.space	2
 4631              	.LC7:
 4632 00ec 636F6E6E 		.ascii	"conn must be in state NETCONN_CLOSE\000"
 4632      206D7573 
 4632      74206265 
 4632      20696E20 
 4632      73746174 
 4633              	.LC8:
 4634 0110 70636220 		.ascii	"pcb already closed\000"
 4634      616C7265 
 4634      61647920 
 4634      636C6F73 
 4634      656400
 4635 0123 00       		.space	1
 4636              	.LC9:
 4637 0124 636F6E6E 		.ascii	"conn->current_msg != NULL\000"
 4637      2D3E6375 
 4637      7272656E 
 4637      745F6D73 
 4637      6720213D 
 4638 013e 0000     		.space	2
 4639              	.LC10:
 4640 0140 436C6F73 		.ascii	"Closing a listen pcb may not fail!\000"
 4640      696E6720 
 4640      61206C69 
 4640      7374656E 
 4640      20706362 
 4641 0163 00       		.space	1
 4642              	.LC11:
 4643 0164 636F6E6E 		.ascii	"conn->state == NETCONN_WRITE\000"
 4643      2D3E7374 
 4643      61746520 
 4643      3D3D204E 
 4643      4554434F 
 4644 0181 000000   		.space	3
 4645              	.LC12:
 4646 0184 636F6E6E 		.ascii	"conn->pcb.tcp != NULL\000"
 4646      2D3E7063 
 4646      622E7463 
 4646      7020213D 
 4646      204E554C 
 4647 019a 0000     		.space	2
 4648              	.LC13:
 4649 019c 636F6E6E 		.ascii	"conn->write_offset < conn->current_msg->msg.w.len\000"
 4649      2D3E7772 
 4649      6974655F 
 4649      6F666673 
 4649      6574203C 
 4650 01ce 0000     		.space	2
 4651              	.LC14:
 4652 01d0 646F5F77 		.ascii	"do_writemore: invalid length!\000"
 4652      72697465 
 4652      6D6F7265 
 4652      3A20696E 
ARM GAS  C:\Users\jo\AppData\Local\Temp\ccLDsGlj.s 			page 84


 4652      76616C69 
 4653 01ee 0000     		.space	2
 4654              	.LC15:
 4655 01f0 636F6E6E 		.ascii	"conn != NULL\000"
 4655      20213D20 
 4655      4E554C4C 
 4655      00
 4656 01fd 000000   		.space	3
 4657              	.LC16:
 4658 0200 636F6E6E 		.ascii	"conn->state == NETCONN_CONNECT\000"
 4658      2D3E7374 
 4658      61746520 
 4658      3D3D204E 
 4658      4554434F 
 4659 021f 00       		.space	1
 4660              	.LC17:
 4661 0220 28636F6E 		.ascii	"(conn->current_msg != NULL) || conn->in_non_blockin"
 4661      6E2D3E63 
 4661      75727265 
 4661      6E745F6D 
 4661      73672021 
 4662 0253 675F636F 		.ascii	"g_connect\000"
 4662      6E6E6563 
 4662      7400
 4663 025d 000000   		.space	3
 4664              	.LC18:
 4665 0260 636F6E6E 		.ascii	"conn->current_msg == NULL\000"
 4665      2D3E6375 
 4665      7272656E 
 4665      745F6D73 
 4665      67203D3D 
 4666 027a 0000     		.space	2
 4667              	.LC19:
 4668 027c 72656376 		.ascii	"recv_udp must have a pcb argument\000"
 4668      5F756470 
 4668      206D7573 
 4668      74206861 
 4668      76652061 
 4669 029e 0000     		.space	2
 4670              	.LC20:
 4671 02a0 72656376 		.ascii	"recv_udp must have an argument\000"
 4671      5F756470 
 4671      206D7573 
 4671      74206861 
 4671      76652061 
 4672 02bf 00       		.space	1
 4673              	.LC21:
 4674 02c0 72656376 		.ascii	"recv_udp: recv for wrong pcb!\000"
 4674      5F756470 
 4674      3A207265 
 4674      63762066 
 4674      6F722077 
 4675 02de 0000     		.space	2
 4676              	.LC22:
 4677 02e0 6E657463 		.ascii	"netconn_alloc: undefined netconn_type\000"
 4677      6F6E6E5F 
 4677      616C6C6F 
ARM GAS  C:\Users\jo\AppData\Local\Temp\ccLDsGlj.s 			page 85


 4677      633A2075 
 4677      6E646566 
 4678 0306 0000     		.space	2
 4679              	.LC23:
 4680 0308 50434220 		.ascii	"PCB must be deallocated outside this function\000"
 4680      6D757374 
 4680      20626520 
 4680      6465616C 
 4680      6C6F6361 
 4681 0336 0000     		.space	2
 4682              	.LC24:
 4683 0338 72656376 		.ascii	"recvmbox must be deallocated before calling this fu"
 4683      6D626F78 
 4683      206D7573 
 4683      74206265 
 4683      20646561 
 4684 036b 6E637469 		.ascii	"nction\000"
 4684      6F6E00
 4685 0372 0000     		.space	2
 4686              	.LC25:
 4687 0374 61636365 		.ascii	"acceptmbox must be deallocated before calling this "
 4687      70746D62 
 4687      6F78206D 
 4687      75737420 
 4687      62652064 
 4688 03a7 66756E63 		.ascii	"function\000"
 4688      74696F6E 
 4688      00
 4689              	.LC26:
 4690 03b0 7063622D 		.ascii	"pcb->state == LISTEN (called for wrong pcb?)\000"
 4690      3E737461 
 4690      7465203D 
 4690      3D204C49 
 4690      5354454E 
 4691 03dd 000000   		.space	3
 4692              	.LC27:
 4693 03e0 6D73672D 		.ascii	"msg->conn->type == NETCONN_TCP\000"
 4693      3E636F6E 
 4693      6E2D3E74 
 4693      79706520 
 4693      3D3D204E 
 4694 03ff 00       		.space	1
 4695              	.LC28:
 4696 0400 626C6F63 		.ascii	"blocking connect in progress\000"
 4696      6B696E67 
 4696      20636F6E 
 4696      6E656374 
 4696      20696E20 
 4697 041d 000000   		.space	3
 4698              	.LC29:
 4699 0420 616C7265 		.ascii	"already writing or closing\000"
 4699      61647920 
 4699      77726974 
 4699      696E6720 
 4699      6F722063 
 4700 043b 00       		.space	1
 4701              	.LC30:
ARM GAS  C:\Users\jo\AppData\Local\Temp\ccLDsGlj.s 			page 86


 4702 043c 496E7661 		.ascii	"Invalid netconn type\000"
 4702      6C696420 
 4702      6E657463 
 4702      6F6E6E20 
 4702      74797065 
 4703 0451 000000   		.space	3
 4704              	.LC31:
 4705 0454 6D73672D 		.ascii	"msg->msg.w.len != 0\000"
 4705      3E6D7367 
 4705      2E772E6C 
 4705      656E2021 
 4705      3D203000 
 4706              	.LC32:
 4707 0468 696E7661 		.ascii	"invalid netconn_type\000"
 4707      6C696420 
 4707      6E657463 
 4707      6F6E6E5F 
 4707      74797065 
 4708 047d 000000   		.text
 4709              	.Letext0:
 4710              		.file 4 "c:\\program files\\gnu tools arm embedded\\4.9 2014q4\\lib\\gcc\\arm-none-eabi\\4.9.3\\in
 4711              		.file 5 "c:\\program files\\gnu tools arm embedded\\4.9 2014q4\\arm-none-eabi\\include\\machine\\_
 4712              		.file 6 "c:\\program files\\gnu tools arm embedded\\4.9 2014q4\\arm-none-eabi\\include\\stdint.h"
 4713              		.file 7 "../../../os/rt/ports/ARMCMx/compilers/GCC/chtypes.h"
 4714              		.file 8 "../../../os/rt/include/chsystypes.h"
 4715              		.file 9 "../../../os/rt/include/chschd.h"
 4716              		.file 10 "../../../os/rt/ports/ARMCMx/chcore.h"
 4717              		.file 11 "../../../os/rt/ports/ARMCMx/chcore_v7m.h"
 4718              		.file 12 "c:\\program files\\gnu tools arm embedded\\4.9 2014q4\\lib\\gcc\\arm-none-eabi\\4.9.3\\i
 4719              		.file 13 "<built-in>"
 4720              		.file 14 "../../../os/rt/include/chtm.h"
 4721              		.file 15 "../../../os/rt/include/chmtx.h"
 4722              		.file 16 "../../../os/rt/include/chsem.h"
 4723              		.file 17 "../../../os/rt/include/chmboxes.h"
 4724              		.file 18 "../../../os/rt/include/chstreams.h"
 4725              		.file 19 "./ITM_trace.h"
 4726              		.file 20 "../../../os/various/lwip_bindings/arch/cc.h"
 4727              		.file 21 "../../../os/ext/lwip-1.4.1/src/include/ipv4/lwip/ip_addr.h"
 4728              		.file 22 "../../../os/ext/lwip-1.4.1/src/include/lwip/err.h"
 4729              		.file 23 "../../../os/various/lwip_bindings/arch/sys_arch.h"
 4730              		.file 24 "../../../os/ext/lwip-1.4.1/src/include/lwip/pbuf.h"
 4731              		.file 25 "../../../os/ext/lwip-1.4.1/src/include/lwip/netbuf.h"
 4732              		.file 26 "../../../os/ext/lwip-1.4.1/src/include/lwip/api.h"
 4733              		.file 27 "../../../os/ext/lwip-1.4.1/src/include/ipv4/lwip/ip.h"
 4734              		.file 28 "../../../os/ext/lwip-1.4.1/src/include/lwip/tcp.h"
 4735              		.file 29 "../../../os/ext/lwip-1.4.1/src/include/lwip/udp.h"
 4736              		.file 30 "../../../os/ext/lwip-1.4.1/src/include/lwip/raw.h"
 4737              		.file 31 "../../../os/ext/lwip-1.4.1/src/include/lwip/api_msg.h"
 4738              		.file 32 "../../../os/ext/lwip-1.4.1/src/include/lwip/memp.h"
 4739              		.file 33 "../../../os/ext/CMSIS/include/core_cm4.h"
 4740              		.file 34 "../../../os/ext/lwip-1.4.1/src/include/lwip/sys.h"
 4741              		.file 35 "../../../os/rt/include/chsys.h"