ARM GAS  C:\Users\jo\AppData\Local\Temp\ccueyXEu.s 			page 1


   1              		.syntax unified
   2              		.cpu cortex-m4
   3              		.eabi_attribute 27, 3
   4              		.eabi_attribute 28, 1
   5              		.fpu fpv4-sp-d16
   6              		.eabi_attribute 20, 1
   7              		.eabi_attribute 21, 1
   8              		.eabi_attribute 23, 3
   9              		.eabi_attribute 24, 1
  10              		.eabi_attribute 25, 1
  11              		.eabi_attribute 26, 1
  12              		.eabi_attribute 30, 2
  13              		.eabi_attribute 34, 1
  14              		.eabi_attribute 18, 4
  15              		.thumb
  16              		.file	"ArrayCopy.c"
  17              		.text
  18              	.Ltext0:
  19              		.cfi_sections	.debug_frame
  20              		.section	.text.arrayCopy,"ax",%progbits
  21              		.align	2
  22              		.p2align 4,,15
  23              		.global	arrayCopy
  24              		.thumb
  25              		.thumb_func
  26              		.type	arrayCopy, %function
  27              	arrayCopy:
  28              	.LFB0:
  29              		.file 1 "ArrayCopy.c"
  30              		.loc 1 8 0
  31              		.cfi_startproc
  32              		@ args = 12, pretend = 0, frame = 0
  33              		@ frame_needed = 0, uses_anonymous_args = 0
  34              	.LVL0:
  35 0000 2DE9F047 		push	{r4, r5, r6, r7, r8, r9, r10, lr}
  36              		.cfi_def_cfa_offset 32
  37              		.cfi_offset 4, -32
  38              		.cfi_offset 5, -28
  39              		.cfi_offset 6, -24
  40              		.cfi_offset 7, -20
  41              		.cfi_offset 8, -16
  42              		.cfi_offset 9, -12
  43              		.cfi_offset 10, -8
  44              		.cfi_offset 14, -4
  45              		.loc 1 8 0
  46 0004 0A9C     		ldr	r4, [sp, #40]
  47 0006 089D     		ldr	r5, [sp, #32]
  48 0008 DDF824E0 		ldr	lr, [sp, #36]
  49              	.LVL1:
  50              		.loc 1 16 0
  51 000c 8242     		cmp	r2, r0
  52              		.loc 1 8 0
  53 000e 1646     		mov	r6, r2
  54              	.LVL2:
  55              		.loc 1 13 0
  56 0010 05FB04F5 		mul	r5, r5, r4
  57              		.loc 1 11 0
ARM GAS  C:\Users\jo\AppData\Local\Temp\ccueyXEu.s 			page 2


  58 0014 04FB01F7 		mul	r7, r4, r1
  59              	.LVL3:
  60              		.loc 1 12 0
  61 0018 04FB03F8 		mul	r8, r4, r3
  62              	.LVL4:
  63              		.loc 1 16 0
  64 001c 07D0     		beq	.L2
  65              		.loc 1 18 0
  66 001e 02EB0801 		add	r1, r2, r8
  67 0022 3844     		add	r0, r0, r7
  68              	.LVL5:
  69 0024 2A46     		mov	r2, r5
  70              	.LVL6:
  71              		.loc 1 34 0
  72 0026 BDE8F047 		pop	{r4, r5, r6, r7, r8, r9, r10, lr}
  73              		.cfi_remember_state
  74              		.cfi_restore 14
  75              		.cfi_restore 10
  76              		.cfi_restore 9
  77              		.cfi_restore 8
  78              		.cfi_restore 7
  79              		.cfi_restore 6
  80              		.cfi_restore 5
  81              		.cfi_restore 4
  82              		.cfi_def_cfa_offset 0
  83              	.LVL7:
  84              		.loc 1 18 0
  85 002a FFF7FEBF 		b	memcpy
  86              	.LVL8:
  87              	.L2:
  88              		.cfi_restore_state
  89              		.loc 1 21 0
  90 002e 4745     		cmp	r7, r8
  91              		.loc 1 14 0
  92 0030 0EFB04F0 		mul	r0, lr, r4
  93              	.LVL9:
  94              		.loc 1 21 0
  95 0034 0CDC     		bgt	.L7
  96              		.loc 1 28 0
  97 0036 01DB     		blt	.L8
  98 0038 BDE8F087 		pop	{r4, r5, r6, r7, r8, r9, r10, pc}
  99              	.LVL10:
 100              	.L8:
 101              		.loc 1 30 0
 102 003c C8EB0002 		rsb	r2, r8, r0
 103              	.LVL11:
 104 0040 06EB0801 		add	r1, r6, r8
 105 0044 F019     		adds	r0, r6, r7
 106 0046 0132     		adds	r2, r2, #1
 107              		.loc 1 34 0
 108 0048 BDE8F047 		pop	{r4, r5, r6, r7, r8, r9, r10, lr}
 109              		.cfi_remember_state
 110              		.cfi_restore 14
 111              		.cfi_restore 10
 112              		.cfi_restore 9
 113              		.cfi_restore 8
 114              		.cfi_restore 7
ARM GAS  C:\Users\jo\AppData\Local\Temp\ccueyXEu.s 			page 3


 115              		.cfi_restore 6
 116              		.cfi_restore 5
 117              		.cfi_restore 4
 118              		.cfi_def_cfa_offset 0
 119              	.LVL12:
 120              		.loc 1 30 0
 121 004c FFF7FEBF 		b	memcpy
 122              	.LVL13:
 123              	.L7:
 124              		.cfi_restore_state
 125              	.LBB2:
 126              		.loc 1 23 0
 127 0050 2146     		mov	r1, r4
 128              		.loc 1 24 0
 129 0052 02EB070A 		add	r10, r2, r7
 130 0056 C7EB0009 		rsb	r9, r7, r0
 131              		.loc 1 23 0
 132 005a FFF7FEFF 		bl	calloc
 133              	.LVL14:
 134              		.loc 1 24 0
 135 005e 4A46     		mov	r2, r9
 136 0060 5146     		mov	r1, r10
 137              		.loc 1 23 0
 138 0062 0446     		mov	r4, r0
 139              	.LVL15:
 140              		.loc 1 24 0
 141 0064 FFF7FEFF 		bl	memcpy
 142              	.LVL16:
 143              		.loc 1 25 0
 144 0068 06EB0801 		add	r1, r6, r8
 145 006c 2A46     		mov	r2, r5
 146 006e 5046     		mov	r0, r10
 147 0070 FFF7FEFF 		bl	memcpy
 148              	.LVL17:
 149              		.loc 1 26 0
 150 0074 7819     		adds	r0, r7, r5
 151 0076 4A46     		mov	r2, r9
 152 0078 3044     		add	r0, r0, r6
 153 007a 2146     		mov	r1, r4
 154 007c FFF7FEFF 		bl	memcpy
 155              	.LVL18:
 156              		.loc 1 27 0
 157 0080 2046     		mov	r0, r4
 158              	.LBE2:
 159              		.loc 1 34 0
 160 0082 BDE8F047 		pop	{r4, r5, r6, r7, r8, r9, r10, lr}
 161              		.cfi_restore 14
 162              		.cfi_restore 10
 163              		.cfi_restore 9
 164              		.cfi_restore 8
 165              		.cfi_restore 7
 166              		.cfi_restore 6
 167              		.cfi_restore 5
 168              		.cfi_restore 4
 169              		.cfi_def_cfa_offset 0
 170              	.LVL19:
 171              	.LBB3:
ARM GAS  C:\Users\jo\AppData\Local\Temp\ccueyXEu.s 			page 4


 172              		.loc 1 27 0
 173 0086 FFF7FEBF 		b	free
 174              	.LVL20:
 175              	.LBE3:
 176              		.cfi_endproc
 177              	.LFE0:
 178              		.size	arrayCopy, .-arrayCopy
 179 008a 00BFAFF3 		.text
 179      0080
 180              	.Letext0:
 181              		.file 2 "c:\\program files\\gnu tools arm embedded\\4.9 2014q4\\lib\\gcc\\arm-none-eabi\\4.9.3\\in
 182              		.file 3 "c:\\program files\\gnu tools arm embedded\\4.9 2014q4\\arm-none-eabi\\include\\machine\\_
 183              		.file 4 "c:\\program files\\gnu tools arm embedded\\4.9 2014q4\\arm-none-eabi\\include\\stdint.h"
 184              		.file 5 "c:\\program files\\gnu tools arm embedded\\4.9 2014q4\\arm-none-eabi\\include\\stdlib.h"
 185              		.section	.debug_info,"",%progbits
 186              	.Ldebug_info0:
 187 0000 A4020000 		.4byte	0x2a4
 188 0004 0400     		.2byte	0x4
 189 0006 00000000 		.4byte	.Ldebug_abbrev0
 190 000a 04       		.byte	0x4
 191 000b 01       		.uleb128 0x1
 192 000c AB000000 		.4byte	.LASF21
 193 0010 01       		.byte	0x1
 194 0011 2E020000 		.4byte	.LASF22
 195 0015 00000000 		.4byte	.LASF23
 196 0019 18000000 		.4byte	.Ldebug_ranges0+0x18
 197 001d 00000000 		.4byte	0
 198 0021 00000000 		.4byte	.Ldebug_line0
 199 0025 02       		.uleb128 0x2
 200 0026 04       		.byte	0x4
 201 0027 05       		.byte	0x5
 202 0028 696E7400 		.ascii	"int\000"
 203 002c 03       		.uleb128 0x3
 204 002d 96000000 		.4byte	.LASF2
 205 0031 02       		.byte	0x2
 206 0032 D4       		.byte	0xd4
 207 0033 37000000 		.4byte	0x37
 208 0037 04       		.uleb128 0x4
 209 0038 04       		.byte	0x4
 210 0039 07       		.byte	0x7
 211 003a CB010000 		.4byte	.LASF0
 212 003e 04       		.uleb128 0x4
 213 003f 01       		.byte	0x1
 214 0040 06       		.byte	0x6
 215 0041 4F020000 		.4byte	.LASF1
 216 0045 03       		.uleb128 0x3
 217 0046 4F000000 		.4byte	.LASF3
 218 004a 03       		.byte	0x3
 219 004b 1D       		.byte	0x1d
 220 004c 50000000 		.4byte	0x50
 221 0050 04       		.uleb128 0x4
 222 0051 01       		.byte	0x1
 223 0052 08       		.byte	0x8
 224 0053 9D000000 		.4byte	.LASF4
 225 0057 04       		.uleb128 0x4
 226 0058 02       		.byte	0x2
 227 0059 05       		.byte	0x5
ARM GAS  C:\Users\jo\AppData\Local\Temp\ccueyXEu.s 			page 5


 228 005a 24020000 		.4byte	.LASF5
 229 005e 04       		.uleb128 0x4
 230 005f 02       		.byte	0x2
 231 0060 07       		.byte	0x7
 232 0061 83000000 		.4byte	.LASF6
 233 0065 04       		.uleb128 0x4
 234 0066 04       		.byte	0x4
 235 0067 05       		.byte	0x5
 236 0068 41020000 		.4byte	.LASF7
 237 006c 04       		.uleb128 0x4
 238 006d 04       		.byte	0x4
 239 006e 07       		.byte	0x7
 240 006f 71000000 		.4byte	.LASF8
 241 0073 04       		.uleb128 0x4
 242 0074 08       		.byte	0x8
 243 0075 05       		.byte	0x5
 244 0076 05020000 		.4byte	.LASF9
 245 007a 04       		.uleb128 0x4
 246 007b 08       		.byte	0x8
 247 007c 07       		.byte	0x7
 248 007d D8010000 		.4byte	.LASF10
 249 0081 04       		.uleb128 0x4
 250 0082 04       		.byte	0x4
 251 0083 07       		.byte	0x7
 252 0084 F7010000 		.4byte	.LASF11
 253 0088 05       		.uleb128 0x5
 254 0089 04       		.byte	0x4
 255 008a 04       		.uleb128 0x4
 256 008b 01       		.byte	0x1
 257 008c 08       		.byte	0x8
 258 008d 4A020000 		.4byte	.LASF12
 259 0091 03       		.uleb128 0x3
 260 0092 EF010000 		.4byte	.LASF13
 261 0096 04       		.byte	0x4
 262 0097 15       		.byte	0x15
 263 0098 45000000 		.4byte	0x45
 264 009c 06       		.uleb128 0x6
 265 009d 04       		.byte	0x4
 266 009e A2000000 		.4byte	0xa2
 267 00a2 07       		.uleb128 0x7
 268 00a3 08       		.uleb128 0x8
 269 00a4 13020000 		.4byte	.LASF24
 270 00a8 01       		.byte	0x1
 271 00a9 07       		.byte	0x7
 272 00aa 00000000 		.4byte	.LFB0
 273 00ae 8A000000 		.4byte	.LFE0-.LFB0
 274 00b2 01       		.uleb128 0x1
 275 00b3 9C       		.byte	0x9c
 276 00b4 5D020000 		.4byte	0x25d
 277 00b8 09       		.uleb128 0x9
 278 00b9 67000000 		.4byte	.LASF14
 279 00bd 01       		.byte	0x1
 280 00be 07       		.byte	0x7
 281 00bf 88000000 		.4byte	0x88
 282 00c3 00000000 		.4byte	.LLST0
 283 00c7 09       		.uleb128 0x9
 284 00c8 3A020000 		.4byte	.LASF15
ARM GAS  C:\Users\jo\AppData\Local\Temp\ccueyXEu.s 			page 6


 285 00cc 01       		.byte	0x1
 286 00cd 07       		.byte	0x7
 287 00ce 25000000 		.4byte	0x25
 288 00d2 3A000000 		.4byte	.LLST1
 289 00d6 0A       		.uleb128 0xa
 290 00d7 73726300 		.ascii	"src\000"
 291 00db 01       		.byte	0x1
 292 00dc 07       		.byte	0x7
 293 00dd 9C000000 		.4byte	0x9c
 294 00e1 A4000000 		.4byte	.LLST2
 295 00e5 09       		.uleb128 0x9
 296 00e6 C4010000 		.4byte	.LASF16
 297 00ea 01       		.byte	0x1
 298 00eb 07       		.byte	0x7
 299 00ec 25000000 		.4byte	0x25
 300 00f0 18010000 		.4byte	.LLST3
 301 00f4 0A       		.uleb128 0xa
 302 00f5 6C656E00 		.ascii	"len\000"
 303 00f9 01       		.byte	0x1
 304 00fa 07       		.byte	0x7
 305 00fb 25000000 		.4byte	0x25
 306 00ff A4010000 		.4byte	.LLST4
 307 0103 09       		.uleb128 0x9
 308 0104 59000000 		.4byte	.LASF17
 309 0108 01       		.byte	0x1
 310 0109 07       		.byte	0x7
 311 010a 25000000 		.4byte	0x25
 312 010e 1A020000 		.4byte	.LLST5
 313 0112 09       		.uleb128 0x9
 314 0113 6C000000 		.4byte	.LASF18
 315 0117 01       		.byte	0x1
 316 0118 07       		.byte	0x7
 317 0119 2C000000 		.4byte	0x2c
 318 011d B7020000 		.4byte	.LLST6
 319 0121 0B       		.uleb128 0xb
 320 0122 61000000 		.4byte	.LASF19
 321 0126 01       		.byte	0x1
 322 0127 09       		.byte	0x9
 323 0128 5D020000 		.4byte	0x25d
 324 012c 07030000 		.4byte	.LLST7
 325 0130 0B       		.uleb128 0xb
 326 0131 5B020000 		.4byte	.LASF20
 327 0135 01       		.byte	0x1
 328 0136 0A       		.byte	0xa
 329 0137 5D020000 		.4byte	0x25d
 330 013b 41030000 		.4byte	.LLST8
 331 013f 0C       		.uleb128 0xc
 332 0140 00000000 		.4byte	.Ldebug_ranges0+0
 333 0144 E8010000 		.4byte	0x1e8
 334 0148 0D       		.uleb128 0xd
 335 0149 746D7000 		.ascii	"tmp\000"
 336 014d 01       		.byte	0x1
 337 014e 17       		.byte	0x17
 338 014f 5D020000 		.4byte	0x25d
 339 0153 B5030000 		.4byte	.LLST9
 340 0157 0E       		.uleb128 0xe
 341 0158 5E000000 		.4byte	.LVL14
ARM GAS  C:\Users\jo\AppData\Local\Temp\ccueyXEu.s 			page 7


 342 015c 63020000 		.4byte	0x263
 343 0160 75010000 		.4byte	0x175
 344 0164 0F       		.uleb128 0xf
 345 0165 01       		.uleb128 0x1
 346 0166 51       		.byte	0x51
 347 0167 02       		.uleb128 0x2
 348 0168 74       		.byte	0x74
 349 0169 00       		.sleb128 0
 350 016a 0F       		.uleb128 0xf
 351 016b 01       		.uleb128 0x1
 352 016c 50       		.byte	0x50
 353 016d 06       		.uleb128 0x6
 354 016e 91       		.byte	0x91
 355 016f 04       		.sleb128 4
 356 0170 06       		.byte	0x6
 357 0171 74       		.byte	0x74
 358 0172 00       		.sleb128 0
 359 0173 1E       		.byte	0x1e
 360 0174 00       		.byte	0
 361 0175 0E       		.uleb128 0xe
 362 0176 68000000 		.4byte	.LVL16
 363 017a 7D020000 		.4byte	0x27d
 364 017e 95010000 		.4byte	0x195
 365 0182 0F       		.uleb128 0xf
 366 0183 01       		.uleb128 0x1
 367 0184 52       		.byte	0x52
 368 0185 02       		.uleb128 0x2
 369 0186 79       		.byte	0x79
 370 0187 00       		.sleb128 0
 371 0188 0F       		.uleb128 0xf
 372 0189 01       		.uleb128 0x1
 373 018a 51       		.byte	0x51
 374 018b 02       		.uleb128 0x2
 375 018c 7A       		.byte	0x7a
 376 018d 00       		.sleb128 0
 377 018e 0F       		.uleb128 0xf
 378 018f 01       		.uleb128 0x1
 379 0190 50       		.byte	0x50
 380 0191 02       		.uleb128 0x2
 381 0192 74       		.byte	0x74
 382 0193 00       		.sleb128 0
 383 0194 00       		.byte	0
 384 0195 0E       		.uleb128 0xe
 385 0196 74000000 		.4byte	.LVL17
 386 019a 7D020000 		.4byte	0x27d
 387 019e B8010000 		.4byte	0x1b8
 388 01a2 0F       		.uleb128 0xf
 389 01a3 01       		.uleb128 0x1
 390 01a4 52       		.byte	0x52
 391 01a5 02       		.uleb128 0x2
 392 01a6 75       		.byte	0x75
 393 01a7 00       		.sleb128 0
 394 01a8 0F       		.uleb128 0xf
 395 01a9 01       		.uleb128 0x1
 396 01aa 51       		.byte	0x51
 397 01ab 05       		.uleb128 0x5
 398 01ac 76       		.byte	0x76
ARM GAS  C:\Users\jo\AppData\Local\Temp\ccueyXEu.s 			page 8


 399 01ad 00       		.sleb128 0
 400 01ae 78       		.byte	0x78
 401 01af 00       		.sleb128 0
 402 01b0 22       		.byte	0x22
 403 01b1 0F       		.uleb128 0xf
 404 01b2 01       		.uleb128 0x1
 405 01b3 50       		.byte	0x50
 406 01b4 02       		.uleb128 0x2
 407 01b5 7A       		.byte	0x7a
 408 01b6 00       		.sleb128 0
 409 01b7 00       		.byte	0
 410 01b8 0E       		.uleb128 0xe
 411 01b9 80000000 		.4byte	.LVL18
 412 01bd 7D020000 		.4byte	0x27d
 413 01c1 DE010000 		.4byte	0x1de
 414 01c5 0F       		.uleb128 0xf
 415 01c6 01       		.uleb128 0x1
 416 01c7 52       		.byte	0x52
 417 01c8 02       		.uleb128 0x2
 418 01c9 79       		.byte	0x79
 419 01ca 00       		.sleb128 0
 420 01cb 0F       		.uleb128 0xf
 421 01cc 01       		.uleb128 0x1
 422 01cd 51       		.byte	0x51
 423 01ce 02       		.uleb128 0x2
 424 01cf 74       		.byte	0x74
 425 01d0 00       		.sleb128 0
 426 01d1 0F       		.uleb128 0xf
 427 01d2 01       		.uleb128 0x1
 428 01d3 50       		.byte	0x50
 429 01d4 08       		.uleb128 0x8
 430 01d5 76       		.byte	0x76
 431 01d6 00       		.sleb128 0
 432 01d7 75       		.byte	0x75
 433 01d8 00       		.sleb128 0
 434 01d9 22       		.byte	0x22
 435 01da 77       		.byte	0x77
 436 01db 00       		.sleb128 0
 437 01dc 22       		.byte	0x22
 438 01dd 00       		.byte	0
 439 01de 10       		.uleb128 0x10
 440 01df 8A000000 		.4byte	.LVL20
 441 01e3 9A020000 		.4byte	0x29a
 442 01e7 00       		.byte	0
 443 01e8 11       		.uleb128 0x11
 444 01e9 2E000000 		.4byte	.LVL8
 445 01ed 7D020000 		.4byte	0x27d
 446 01f1 1F020000 		.4byte	0x21f
 447 01f5 0F       		.uleb128 0xf
 448 01f6 01       		.uleb128 0x1
 449 01f7 52       		.byte	0x52
 450 01f8 07       		.uleb128 0x7
 451 01f9 7D       		.byte	0x7d
 452 01fa 00       		.sleb128 0
 453 01fb 06       		.byte	0x6
 454 01fc 7D       		.byte	0x7d
 455 01fd 08       		.sleb128 8
ARM GAS  C:\Users\jo\AppData\Local\Temp\ccueyXEu.s 			page 9


 456 01fe 06       		.byte	0x6
 457 01ff 1E       		.byte	0x1e
 458 0200 0F       		.uleb128 0xf
 459 0201 01       		.uleb128 0x1
 460 0202 51       		.byte	0x51
 461 0203 0B       		.uleb128 0xb
 462 0204 7D       		.byte	0x7d
 463 0205 08       		.sleb128 8
 464 0206 06       		.byte	0x6
 465 0207 F3       		.byte	0xf3
 466 0208 01       		.uleb128 0x1
 467 0209 53       		.byte	0x53
 468 020a 1E       		.byte	0x1e
 469 020b F3       		.byte	0xf3
 470 020c 01       		.uleb128 0x1
 471 020d 52       		.byte	0x52
 472 020e 22       		.byte	0x22
 473 020f 0F       		.uleb128 0xf
 474 0210 01       		.uleb128 0x1
 475 0211 50       		.byte	0x50
 476 0212 0B       		.uleb128 0xb
 477 0213 7D       		.byte	0x7d
 478 0214 08       		.sleb128 8
 479 0215 06       		.byte	0x6
 480 0216 F3       		.byte	0xf3
 481 0217 01       		.uleb128 0x1
 482 0218 51       		.byte	0x51
 483 0219 1E       		.byte	0x1e
 484 021a F3       		.byte	0xf3
 485 021b 01       		.uleb128 0x1
 486 021c 50       		.byte	0x50
 487 021d 22       		.byte	0x22
 488 021e 00       		.byte	0
 489 021f 12       		.uleb128 0x12
 490 0220 50000000 		.4byte	.LVL13
 491 0224 7D020000 		.4byte	0x27d
 492 0228 0F       		.uleb128 0xf
 493 0229 01       		.uleb128 0x1
 494 022a 52       		.byte	0x52
 495 022b 11       		.uleb128 0x11
 496 022c 7D       		.byte	0x7d
 497 022d 04       		.sleb128 4
 498 022e 06       		.byte	0x6
 499 022f 7D       		.byte	0x7d
 500 0230 08       		.sleb128 8
 501 0231 06       		.byte	0x6
 502 0232 1E       		.byte	0x1e
 503 0233 7D       		.byte	0x7d
 504 0234 08       		.sleb128 8
 505 0235 06       		.byte	0x6
 506 0236 F3       		.byte	0xf3
 507 0237 01       		.uleb128 0x1
 508 0238 53       		.byte	0x53
 509 0239 1E       		.byte	0x1e
 510 023a 1C       		.byte	0x1c
 511 023b 23       		.byte	0x23
 512 023c 01       		.uleb128 0x1
ARM GAS  C:\Users\jo\AppData\Local\Temp\ccueyXEu.s 			page 10


 513 023d 0F       		.uleb128 0xf
 514 023e 01       		.uleb128 0x1
 515 023f 51       		.byte	0x51
 516 0240 0B       		.uleb128 0xb
 517 0241 7D       		.byte	0x7d
 518 0242 08       		.sleb128 8
 519 0243 06       		.byte	0x6
 520 0244 F3       		.byte	0xf3
 521 0245 01       		.uleb128 0x1
 522 0246 53       		.byte	0x53
 523 0247 1E       		.byte	0x1e
 524 0248 F3       		.byte	0xf3
 525 0249 01       		.uleb128 0x1
 526 024a 52       		.byte	0x52
 527 024b 22       		.byte	0x22
 528 024c 0F       		.uleb128 0xf
 529 024d 01       		.uleb128 0x1
 530 024e 50       		.byte	0x50
 531 024f 0B       		.uleb128 0xb
 532 0250 7D       		.byte	0x7d
 533 0251 08       		.sleb128 8
 534 0252 06       		.byte	0x6
 535 0253 F3       		.byte	0xf3
 536 0254 01       		.uleb128 0x1
 537 0255 51       		.byte	0x51
 538 0256 1E       		.byte	0x1e
 539 0257 F3       		.byte	0xf3
 540 0258 01       		.uleb128 0x1
 541 0259 52       		.byte	0x52
 542 025a 22       		.byte	0x22
 543 025b 00       		.byte	0
 544 025c 00       		.byte	0
 545 025d 06       		.uleb128 0x6
 546 025e 04       		.byte	0x4
 547 025f 91000000 		.4byte	0x91
 548 0263 13       		.uleb128 0x13
 549 0264 48000000 		.4byte	.LASF25
 550 0268 05       		.byte	0x5
 551 0269 52       		.byte	0x52
 552 026a 88000000 		.4byte	0x88
 553 026e 7D020000 		.4byte	0x27d
 554 0272 14       		.uleb128 0x14
 555 0273 2C000000 		.4byte	0x2c
 556 0277 14       		.uleb128 0x14
 557 0278 2C000000 		.4byte	0x2c
 558 027c 00       		.byte	0
 559 027d 15       		.uleb128 0x15
 560 027e 1D020000 		.4byte	.LASF26
 561 0282 88000000 		.4byte	0x88
 562 0286 9A020000 		.4byte	0x29a
 563 028a 14       		.uleb128 0x14
 564 028b 88000000 		.4byte	0x88
 565 028f 14       		.uleb128 0x14
 566 0290 9C000000 		.4byte	0x9c
 567 0294 14       		.uleb128 0x14
 568 0295 81000000 		.4byte	0x81
 569 0299 00       		.byte	0
ARM GAS  C:\Users\jo\AppData\Local\Temp\ccueyXEu.s 			page 11


 570 029a 16       		.uleb128 0x16
 571 029b 00020000 		.4byte	.LASF27
 572 029f 05       		.byte	0x5
 573 02a0 55       		.byte	0x55
 574 02a1 14       		.uleb128 0x14
 575 02a2 88000000 		.4byte	0x88
 576 02a6 00       		.byte	0
 577 02a7 00       		.byte	0
 578              		.section	.debug_abbrev,"",%progbits
 579              	.Ldebug_abbrev0:
 580 0000 01       		.uleb128 0x1
 581 0001 11       		.uleb128 0x11
 582 0002 01       		.byte	0x1
 583 0003 25       		.uleb128 0x25
 584 0004 0E       		.uleb128 0xe
 585 0005 13       		.uleb128 0x13
 586 0006 0B       		.uleb128 0xb
 587 0007 03       		.uleb128 0x3
 588 0008 0E       		.uleb128 0xe
 589 0009 1B       		.uleb128 0x1b
 590 000a 0E       		.uleb128 0xe
 591 000b 55       		.uleb128 0x55
 592 000c 17       		.uleb128 0x17
 593 000d 11       		.uleb128 0x11
 594 000e 01       		.uleb128 0x1
 595 000f 10       		.uleb128 0x10
 596 0010 17       		.uleb128 0x17
 597 0011 00       		.byte	0
 598 0012 00       		.byte	0
 599 0013 02       		.uleb128 0x2
 600 0014 24       		.uleb128 0x24
 601 0015 00       		.byte	0
 602 0016 0B       		.uleb128 0xb
 603 0017 0B       		.uleb128 0xb
 604 0018 3E       		.uleb128 0x3e
 605 0019 0B       		.uleb128 0xb
 606 001a 03       		.uleb128 0x3
 607 001b 08       		.uleb128 0x8
 608 001c 00       		.byte	0
 609 001d 00       		.byte	0
 610 001e 03       		.uleb128 0x3
 611 001f 16       		.uleb128 0x16
 612 0020 00       		.byte	0
 613 0021 03       		.uleb128 0x3
 614 0022 0E       		.uleb128 0xe
 615 0023 3A       		.uleb128 0x3a
 616 0024 0B       		.uleb128 0xb
 617 0025 3B       		.uleb128 0x3b
 618 0026 0B       		.uleb128 0xb
 619 0027 49       		.uleb128 0x49
 620 0028 13       		.uleb128 0x13
 621 0029 00       		.byte	0
 622 002a 00       		.byte	0
 623 002b 04       		.uleb128 0x4
 624 002c 24       		.uleb128 0x24
 625 002d 00       		.byte	0
 626 002e 0B       		.uleb128 0xb
ARM GAS  C:\Users\jo\AppData\Local\Temp\ccueyXEu.s 			page 12


 627 002f 0B       		.uleb128 0xb
 628 0030 3E       		.uleb128 0x3e
 629 0031 0B       		.uleb128 0xb
 630 0032 03       		.uleb128 0x3
 631 0033 0E       		.uleb128 0xe
 632 0034 00       		.byte	0
 633 0035 00       		.byte	0
 634 0036 05       		.uleb128 0x5
 635 0037 0F       		.uleb128 0xf
 636 0038 00       		.byte	0
 637 0039 0B       		.uleb128 0xb
 638 003a 0B       		.uleb128 0xb
 639 003b 00       		.byte	0
 640 003c 00       		.byte	0
 641 003d 06       		.uleb128 0x6
 642 003e 0F       		.uleb128 0xf
 643 003f 00       		.byte	0
 644 0040 0B       		.uleb128 0xb
 645 0041 0B       		.uleb128 0xb
 646 0042 49       		.uleb128 0x49
 647 0043 13       		.uleb128 0x13
 648 0044 00       		.byte	0
 649 0045 00       		.byte	0
 650 0046 07       		.uleb128 0x7
 651 0047 26       		.uleb128 0x26
 652 0048 00       		.byte	0
 653 0049 00       		.byte	0
 654 004a 00       		.byte	0
 655 004b 08       		.uleb128 0x8
 656 004c 2E       		.uleb128 0x2e
 657 004d 01       		.byte	0x1
 658 004e 3F       		.uleb128 0x3f
 659 004f 19       		.uleb128 0x19
 660 0050 03       		.uleb128 0x3
 661 0051 0E       		.uleb128 0xe
 662 0052 3A       		.uleb128 0x3a
 663 0053 0B       		.uleb128 0xb
 664 0054 3B       		.uleb128 0x3b
 665 0055 0B       		.uleb128 0xb
 666 0056 27       		.uleb128 0x27
 667 0057 19       		.uleb128 0x19
 668 0058 11       		.uleb128 0x11
 669 0059 01       		.uleb128 0x1
 670 005a 12       		.uleb128 0x12
 671 005b 06       		.uleb128 0x6
 672 005c 40       		.uleb128 0x40
 673 005d 18       		.uleb128 0x18
 674 005e 9742     		.uleb128 0x2117
 675 0060 19       		.uleb128 0x19
 676 0061 01       		.uleb128 0x1
 677 0062 13       		.uleb128 0x13
 678 0063 00       		.byte	0
 679 0064 00       		.byte	0
 680 0065 09       		.uleb128 0x9
 681 0066 05       		.uleb128 0x5
 682 0067 00       		.byte	0
 683 0068 03       		.uleb128 0x3
ARM GAS  C:\Users\jo\AppData\Local\Temp\ccueyXEu.s 			page 13


 684 0069 0E       		.uleb128 0xe
 685 006a 3A       		.uleb128 0x3a
 686 006b 0B       		.uleb128 0xb
 687 006c 3B       		.uleb128 0x3b
 688 006d 0B       		.uleb128 0xb
 689 006e 49       		.uleb128 0x49
 690 006f 13       		.uleb128 0x13
 691 0070 02       		.uleb128 0x2
 692 0071 17       		.uleb128 0x17
 693 0072 00       		.byte	0
 694 0073 00       		.byte	0
 695 0074 0A       		.uleb128 0xa
 696 0075 05       		.uleb128 0x5
 697 0076 00       		.byte	0
 698 0077 03       		.uleb128 0x3
 699 0078 08       		.uleb128 0x8
 700 0079 3A       		.uleb128 0x3a
 701 007a 0B       		.uleb128 0xb
 702 007b 3B       		.uleb128 0x3b
 703 007c 0B       		.uleb128 0xb
 704 007d 49       		.uleb128 0x49
 705 007e 13       		.uleb128 0x13
 706 007f 02       		.uleb128 0x2
 707 0080 17       		.uleb128 0x17
 708 0081 00       		.byte	0
 709 0082 00       		.byte	0
 710 0083 0B       		.uleb128 0xb
 711 0084 34       		.uleb128 0x34
 712 0085 00       		.byte	0
 713 0086 03       		.uleb128 0x3
 714 0087 0E       		.uleb128 0xe
 715 0088 3A       		.uleb128 0x3a
 716 0089 0B       		.uleb128 0xb
 717 008a 3B       		.uleb128 0x3b
 718 008b 0B       		.uleb128 0xb
 719 008c 49       		.uleb128 0x49
 720 008d 13       		.uleb128 0x13
 721 008e 02       		.uleb128 0x2
 722 008f 17       		.uleb128 0x17
 723 0090 00       		.byte	0
 724 0091 00       		.byte	0
 725 0092 0C       		.uleb128 0xc
 726 0093 0B       		.uleb128 0xb
 727 0094 01       		.byte	0x1
 728 0095 55       		.uleb128 0x55
 729 0096 17       		.uleb128 0x17
 730 0097 01       		.uleb128 0x1
 731 0098 13       		.uleb128 0x13
 732 0099 00       		.byte	0
 733 009a 00       		.byte	0
 734 009b 0D       		.uleb128 0xd
 735 009c 34       		.uleb128 0x34
 736 009d 00       		.byte	0
 737 009e 03       		.uleb128 0x3
 738 009f 08       		.uleb128 0x8
 739 00a0 3A       		.uleb128 0x3a
 740 00a1 0B       		.uleb128 0xb
ARM GAS  C:\Users\jo\AppData\Local\Temp\ccueyXEu.s 			page 14


 741 00a2 3B       		.uleb128 0x3b
 742 00a3 0B       		.uleb128 0xb
 743 00a4 49       		.uleb128 0x49
 744 00a5 13       		.uleb128 0x13
 745 00a6 02       		.uleb128 0x2
 746 00a7 17       		.uleb128 0x17
 747 00a8 00       		.byte	0
 748 00a9 00       		.byte	0
 749 00aa 0E       		.uleb128 0xe
 750 00ab 898201   		.uleb128 0x4109
 751 00ae 01       		.byte	0x1
 752 00af 11       		.uleb128 0x11
 753 00b0 01       		.uleb128 0x1
 754 00b1 31       		.uleb128 0x31
 755 00b2 13       		.uleb128 0x13
 756 00b3 01       		.uleb128 0x1
 757 00b4 13       		.uleb128 0x13
 758 00b5 00       		.byte	0
 759 00b6 00       		.byte	0
 760 00b7 0F       		.uleb128 0xf
 761 00b8 8A8201   		.uleb128 0x410a
 762 00bb 00       		.byte	0
 763 00bc 02       		.uleb128 0x2
 764 00bd 18       		.uleb128 0x18
 765 00be 9142     		.uleb128 0x2111
 766 00c0 18       		.uleb128 0x18
 767 00c1 00       		.byte	0
 768 00c2 00       		.byte	0
 769 00c3 10       		.uleb128 0x10
 770 00c4 898201   		.uleb128 0x4109
 771 00c7 00       		.byte	0
 772 00c8 11       		.uleb128 0x11
 773 00c9 01       		.uleb128 0x1
 774 00ca 9542     		.uleb128 0x2115
 775 00cc 19       		.uleb128 0x19
 776 00cd 31       		.uleb128 0x31
 777 00ce 13       		.uleb128 0x13
 778 00cf 00       		.byte	0
 779 00d0 00       		.byte	0
 780 00d1 11       		.uleb128 0x11
 781 00d2 898201   		.uleb128 0x4109
 782 00d5 01       		.byte	0x1
 783 00d6 11       		.uleb128 0x11
 784 00d7 01       		.uleb128 0x1
 785 00d8 9542     		.uleb128 0x2115
 786 00da 19       		.uleb128 0x19
 787 00db 31       		.uleb128 0x31
 788 00dc 13       		.uleb128 0x13
 789 00dd 01       		.uleb128 0x1
 790 00de 13       		.uleb128 0x13
 791 00df 00       		.byte	0
 792 00e0 00       		.byte	0
 793 00e1 12       		.uleb128 0x12
 794 00e2 898201   		.uleb128 0x4109
 795 00e5 01       		.byte	0x1
 796 00e6 11       		.uleb128 0x11
 797 00e7 01       		.uleb128 0x1
ARM GAS  C:\Users\jo\AppData\Local\Temp\ccueyXEu.s 			page 15


 798 00e8 9542     		.uleb128 0x2115
 799 00ea 19       		.uleb128 0x19
 800 00eb 31       		.uleb128 0x31
 801 00ec 13       		.uleb128 0x13
 802 00ed 00       		.byte	0
 803 00ee 00       		.byte	0
 804 00ef 13       		.uleb128 0x13
 805 00f0 2E       		.uleb128 0x2e
 806 00f1 01       		.byte	0x1
 807 00f2 3F       		.uleb128 0x3f
 808 00f3 19       		.uleb128 0x19
 809 00f4 03       		.uleb128 0x3
 810 00f5 0E       		.uleb128 0xe
 811 00f6 3A       		.uleb128 0x3a
 812 00f7 0B       		.uleb128 0xb
 813 00f8 3B       		.uleb128 0x3b
 814 00f9 0B       		.uleb128 0xb
 815 00fa 27       		.uleb128 0x27
 816 00fb 19       		.uleb128 0x19
 817 00fc 49       		.uleb128 0x49
 818 00fd 13       		.uleb128 0x13
 819 00fe 3C       		.uleb128 0x3c
 820 00ff 19       		.uleb128 0x19
 821 0100 01       		.uleb128 0x1
 822 0101 13       		.uleb128 0x13
 823 0102 00       		.byte	0
 824 0103 00       		.byte	0
 825 0104 14       		.uleb128 0x14
 826 0105 05       		.uleb128 0x5
 827 0106 00       		.byte	0
 828 0107 49       		.uleb128 0x49
 829 0108 13       		.uleb128 0x13
 830 0109 00       		.byte	0
 831 010a 00       		.byte	0
 832 010b 15       		.uleb128 0x15
 833 010c 2E       		.uleb128 0x2e
 834 010d 01       		.byte	0x1
 835 010e 3F       		.uleb128 0x3f
 836 010f 19       		.uleb128 0x19
 837 0110 03       		.uleb128 0x3
 838 0111 0E       		.uleb128 0xe
 839 0112 27       		.uleb128 0x27
 840 0113 19       		.uleb128 0x19
 841 0114 49       		.uleb128 0x49
 842 0115 13       		.uleb128 0x13
 843 0116 34       		.uleb128 0x34
 844 0117 19       		.uleb128 0x19
 845 0118 3C       		.uleb128 0x3c
 846 0119 19       		.uleb128 0x19
 847 011a 01       		.uleb128 0x1
 848 011b 13       		.uleb128 0x13
 849 011c 00       		.byte	0
 850 011d 00       		.byte	0
 851 011e 16       		.uleb128 0x16
 852 011f 2E       		.uleb128 0x2e
 853 0120 01       		.byte	0x1
 854 0121 3F       		.uleb128 0x3f
ARM GAS  C:\Users\jo\AppData\Local\Temp\ccueyXEu.s 			page 16


 855 0122 19       		.uleb128 0x19
 856 0123 03       		.uleb128 0x3
 857 0124 0E       		.uleb128 0xe
 858 0125 3A       		.uleb128 0x3a
 859 0126 0B       		.uleb128 0xb
 860 0127 3B       		.uleb128 0x3b
 861 0128 0B       		.uleb128 0xb
 862 0129 27       		.uleb128 0x27
 863 012a 19       		.uleb128 0x19
 864 012b 3C       		.uleb128 0x3c
 865 012c 19       		.uleb128 0x19
 866 012d 00       		.byte	0
 867 012e 00       		.byte	0
 868 012f 00       		.byte	0
 869              		.section	.debug_loc,"",%progbits
 870              	.Ldebug_loc0:
 871              	.LLST0:
 872 0000 00000000 		.4byte	.LVL0
 873 0004 24000000 		.4byte	.LVL5
 874 0008 0100     		.2byte	0x1
 875 000a 50       		.byte	0x50
 876 000b 24000000 		.4byte	.LVL5
 877 000f 2E000000 		.4byte	.LVL8
 878 0013 0400     		.2byte	0x4
 879 0015 F3       		.byte	0xf3
 880 0016 01       		.uleb128 0x1
 881 0017 50       		.byte	0x50
 882 0018 9F       		.byte	0x9f
 883 0019 2E000000 		.4byte	.LVL8
 884 001d 34000000 		.4byte	.LVL9
 885 0021 0100     		.2byte	0x1
 886 0023 50       		.byte	0x50
 887 0024 34000000 		.4byte	.LVL9
 888 0028 8A000000 		.4byte	.LFE0
 889 002c 0400     		.2byte	0x4
 890 002e F3       		.byte	0xf3
 891 002f 01       		.uleb128 0x1
 892 0030 50       		.byte	0x50
 893 0031 9F       		.byte	0x9f
 894 0032 00000000 		.4byte	0
 895 0036 00000000 		.4byte	0
 896              	.LLST1:
 897 003a 00000000 		.4byte	.LVL0
 898 003e 18000000 		.4byte	.LVL3
 899 0042 0100     		.2byte	0x1
 900 0044 51       		.byte	0x51
 901 0045 18000000 		.4byte	.LVL3
 902 0049 2A000000 		.4byte	.LVL7
 903 004d 0100     		.2byte	0x1
 904 004f 57       		.byte	0x57
 905 0050 2A000000 		.4byte	.LVL7
 906 0054 2E000000 		.4byte	.LVL8
 907 0058 0800     		.2byte	0x8
 908 005a 7D       		.byte	0x7d
 909 005b 08       		.sleb128 8
 910 005c 06       		.byte	0x6
 911 005d F3       		.byte	0xf3
ARM GAS  C:\Users\jo\AppData\Local\Temp\ccueyXEu.s 			page 17


 912 005e 01       		.uleb128 0x1
 913 005f 51       		.byte	0x51
 914 0060 1E       		.byte	0x1e
 915 0061 9F       		.byte	0x9f
 916 0062 2E000000 		.4byte	.LVL8
 917 0066 4C000000 		.4byte	.LVL12
 918 006a 0100     		.2byte	0x1
 919 006c 57       		.byte	0x57
 920 006d 4C000000 		.4byte	.LVL12
 921 0071 50000000 		.4byte	.LVL13
 922 0075 0800     		.2byte	0x8
 923 0077 7D       		.byte	0x7d
 924 0078 08       		.sleb128 8
 925 0079 06       		.byte	0x6
 926 007a F3       		.byte	0xf3
 927 007b 01       		.uleb128 0x1
 928 007c 51       		.byte	0x51
 929 007d 1E       		.byte	0x1e
 930 007e 9F       		.byte	0x9f
 931 007f 50000000 		.4byte	.LVL13
 932 0083 86000000 		.4byte	.LVL19
 933 0087 0100     		.2byte	0x1
 934 0089 57       		.byte	0x57
 935 008a 86000000 		.4byte	.LVL19
 936 008e 8A000000 		.4byte	.LFE0
 937 0092 0800     		.2byte	0x8
 938 0094 7D       		.byte	0x7d
 939 0095 08       		.sleb128 8
 940 0096 06       		.byte	0x6
 941 0097 F3       		.byte	0xf3
 942 0098 01       		.uleb128 0x1
 943 0099 51       		.byte	0x51
 944 009a 1E       		.byte	0x1e
 945 009b 9F       		.byte	0x9f
 946 009c 00000000 		.4byte	0
 947 00a0 00000000 		.4byte	0
 948              	.LLST2:
 949 00a4 00000000 		.4byte	.LVL0
 950 00a8 26000000 		.4byte	.LVL6
 951 00ac 0100     		.2byte	0x1
 952 00ae 52       		.byte	0x52
 953 00af 26000000 		.4byte	.LVL6
 954 00b3 2A000000 		.4byte	.LVL7
 955 00b7 0100     		.2byte	0x1
 956 00b9 56       		.byte	0x56
 957 00ba 2A000000 		.4byte	.LVL7
 958 00be 2E000000 		.4byte	.LVL8
 959 00c2 0400     		.2byte	0x4
 960 00c4 F3       		.byte	0xf3
 961 00c5 01       		.uleb128 0x1
 962 00c6 52       		.byte	0x52
 963 00c7 9F       		.byte	0x9f
 964 00c8 2E000000 		.4byte	.LVL8
 965 00cc 40000000 		.4byte	.LVL11
 966 00d0 0100     		.2byte	0x1
 967 00d2 52       		.byte	0x52
 968 00d3 40000000 		.4byte	.LVL11
ARM GAS  C:\Users\jo\AppData\Local\Temp\ccueyXEu.s 			page 18


 969 00d7 4C000000 		.4byte	.LVL12
 970 00db 0100     		.2byte	0x1
 971 00dd 56       		.byte	0x56
 972 00de 4C000000 		.4byte	.LVL12
 973 00e2 50000000 		.4byte	.LVL13
 974 00e6 0400     		.2byte	0x4
 975 00e8 F3       		.byte	0xf3
 976 00e9 01       		.uleb128 0x1
 977 00ea 52       		.byte	0x52
 978 00eb 9F       		.byte	0x9f
 979 00ec 50000000 		.4byte	.LVL13
 980 00f0 5D000000 		.4byte	.LVL14-1
 981 00f4 0100     		.2byte	0x1
 982 00f6 52       		.byte	0x52
 983 00f7 5D000000 		.4byte	.LVL14-1
 984 00fb 86000000 		.4byte	.LVL19
 985 00ff 0100     		.2byte	0x1
 986 0101 56       		.byte	0x56
 987 0102 86000000 		.4byte	.LVL19
 988 0106 8A000000 		.4byte	.LFE0
 989 010a 0400     		.2byte	0x4
 990 010c F3       		.byte	0xf3
 991 010d 01       		.uleb128 0x1
 992 010e 52       		.byte	0x52
 993 010f 9F       		.byte	0x9f
 994 0110 00000000 		.4byte	0
 995 0114 00000000 		.4byte	0
 996              	.LLST3:
 997 0118 00000000 		.4byte	.LVL0
 998 011c 1C000000 		.4byte	.LVL4
 999 0120 0100     		.2byte	0x1
 1000 0122 53       		.byte	0x53
 1001 0123 1C000000 		.4byte	.LVL4
 1002 0127 2A000000 		.4byte	.LVL7
 1003 012b 0100     		.2byte	0x1
 1004 012d 58       		.byte	0x58
 1005 012e 2A000000 		.4byte	.LVL7
 1006 0132 2D000000 		.4byte	.LVL8-1
 1007 0136 0700     		.2byte	0x7
 1008 0138 7D       		.byte	0x7d
 1009 0139 08       		.sleb128 8
 1010 013a 06       		.byte	0x6
 1011 013b 73       		.byte	0x73
 1012 013c 00       		.sleb128 0
 1013 013d 1E       		.byte	0x1e
 1014 013e 9F       		.byte	0x9f
 1015 013f 2D000000 		.4byte	.LVL8-1
 1016 0143 2E000000 		.4byte	.LVL8
 1017 0147 0800     		.2byte	0x8
 1018 0149 7D       		.byte	0x7d
 1019 014a 08       		.sleb128 8
 1020 014b 06       		.byte	0x6
 1021 014c F3       		.byte	0xf3
 1022 014d 01       		.uleb128 0x1
 1023 014e 53       		.byte	0x53
 1024 014f 1E       		.byte	0x1e
 1025 0150 9F       		.byte	0x9f
ARM GAS  C:\Users\jo\AppData\Local\Temp\ccueyXEu.s 			page 19


 1026 0151 2E000000 		.4byte	.LVL8
 1027 0155 4C000000 		.4byte	.LVL12
 1028 0159 0100     		.2byte	0x1
 1029 015b 58       		.byte	0x58
 1030 015c 4C000000 		.4byte	.LVL12
 1031 0160 4F000000 		.4byte	.LVL13-1
 1032 0164 0700     		.2byte	0x7
 1033 0166 7D       		.byte	0x7d
 1034 0167 08       		.sleb128 8
 1035 0168 06       		.byte	0x6
 1036 0169 73       		.byte	0x73
 1037 016a 00       		.sleb128 0
 1038 016b 1E       		.byte	0x1e
 1039 016c 9F       		.byte	0x9f
 1040 016d 4F000000 		.4byte	.LVL13-1
 1041 0171 50000000 		.4byte	.LVL13
 1042 0175 0800     		.2byte	0x8
 1043 0177 7D       		.byte	0x7d
 1044 0178 08       		.sleb128 8
 1045 0179 06       		.byte	0x6
 1046 017a F3       		.byte	0xf3
 1047 017b 01       		.uleb128 0x1
 1048 017c 53       		.byte	0x53
 1049 017d 1E       		.byte	0x1e
 1050 017e 9F       		.byte	0x9f
 1051 017f 50000000 		.4byte	.LVL13
 1052 0183 86000000 		.4byte	.LVL19
 1053 0187 0100     		.2byte	0x1
 1054 0189 58       		.byte	0x58
 1055 018a 86000000 		.4byte	.LVL19
 1056 018e 8A000000 		.4byte	.LFE0
 1057 0192 0800     		.2byte	0x8
 1058 0194 7D       		.byte	0x7d
 1059 0195 08       		.sleb128 8
 1060 0196 06       		.byte	0x6
 1061 0197 F3       		.byte	0xf3
 1062 0198 01       		.uleb128 0x1
 1063 0199 53       		.byte	0x53
 1064 019a 1E       		.byte	0x1e
 1065 019b 9F       		.byte	0x9f
 1066 019c 00000000 		.4byte	0
 1067 01a0 00000000 		.4byte	0
 1068              	.LLST4:
 1069 01a4 00000000 		.4byte	.LVL0
 1070 01a8 1C000000 		.4byte	.LVL4
 1071 01ac 0200     		.2byte	0x2
 1072 01ae 91       		.byte	0x91
 1073 01af 00       		.sleb128 0
 1074 01b0 1C000000 		.4byte	.LVL4
 1075 01b4 2A000000 		.4byte	.LVL7
 1076 01b8 0100     		.2byte	0x1
 1077 01ba 55       		.byte	0x55
 1078 01bb 2A000000 		.4byte	.LVL7
 1079 01bf 2D000000 		.4byte	.LVL8-1
 1080 01c3 0100     		.2byte	0x1
 1081 01c5 52       		.byte	0x52
 1082 01c6 2D000000 		.4byte	.LVL8-1
ARM GAS  C:\Users\jo\AppData\Local\Temp\ccueyXEu.s 			page 20


 1083 01ca 2E000000 		.4byte	.LVL8
 1084 01ce 0800     		.2byte	0x8
 1085 01d0 7D       		.byte	0x7d
 1086 01d1 00       		.sleb128 0
 1087 01d2 06       		.byte	0x6
 1088 01d3 7D       		.byte	0x7d
 1089 01d4 08       		.sleb128 8
 1090 01d5 06       		.byte	0x6
 1091 01d6 1E       		.byte	0x1e
 1092 01d7 9F       		.byte	0x9f
 1093 01d8 2E000000 		.4byte	.LVL8
 1094 01dc 4C000000 		.4byte	.LVL12
 1095 01e0 0100     		.2byte	0x1
 1096 01e2 55       		.byte	0x55
 1097 01e3 4C000000 		.4byte	.LVL12
 1098 01e7 50000000 		.4byte	.LVL13
 1099 01eb 0800     		.2byte	0x8
 1100 01ed 7D       		.byte	0x7d
 1101 01ee 00       		.sleb128 0
 1102 01ef 06       		.byte	0x6
 1103 01f0 7D       		.byte	0x7d
 1104 01f1 08       		.sleb128 8
 1105 01f2 06       		.byte	0x6
 1106 01f3 1E       		.byte	0x1e
 1107 01f4 9F       		.byte	0x9f
 1108 01f5 50000000 		.4byte	.LVL13
 1109 01f9 86000000 		.4byte	.LVL19
 1110 01fd 0100     		.2byte	0x1
 1111 01ff 55       		.byte	0x55
 1112 0200 86000000 		.4byte	.LVL19
 1113 0204 8A000000 		.4byte	.LFE0
 1114 0208 0800     		.2byte	0x8
 1115 020a 7D       		.byte	0x7d
 1116 020b 00       		.sleb128 0
 1117 020c 06       		.byte	0x6
 1118 020d 7D       		.byte	0x7d
 1119 020e 08       		.sleb128 8
 1120 020f 06       		.byte	0x6
 1121 0210 1E       		.byte	0x1e
 1122 0211 9F       		.byte	0x9f
 1123 0212 00000000 		.4byte	0
 1124 0216 00000000 		.4byte	0
 1125              	.LLST5:
 1126 021a 00000000 		.4byte	.LVL0
 1127 021e 1C000000 		.4byte	.LVL4
 1128 0222 0200     		.2byte	0x2
 1129 0224 91       		.byte	0x91
 1130 0225 04       		.sleb128 4
 1131 0226 1C000000 		.4byte	.LVL4
 1132 022a 2A000000 		.4byte	.LVL7
 1133 022e 0600     		.2byte	0x6
 1134 0230 74       		.byte	0x74
 1135 0231 00       		.sleb128 0
 1136 0232 7E       		.byte	0x7e
 1137 0233 00       		.sleb128 0
 1138 0234 1E       		.byte	0x1e
 1139 0235 9F       		.byte	0x9f
ARM GAS  C:\Users\jo\AppData\Local\Temp\ccueyXEu.s 			page 21


 1140 0236 2A000000 		.4byte	.LVL7
 1141 023a 2E000000 		.4byte	.LVL8
 1142 023e 0800     		.2byte	0x8
 1143 0240 7D       		.byte	0x7d
 1144 0241 08       		.sleb128 8
 1145 0242 06       		.byte	0x6
 1146 0243 7D       		.byte	0x7d
 1147 0244 04       		.sleb128 4
 1148 0245 06       		.byte	0x6
 1149 0246 1E       		.byte	0x1e
 1150 0247 9F       		.byte	0x9f
 1151 0248 2E000000 		.4byte	.LVL8
 1152 024c 4C000000 		.4byte	.LVL12
 1153 0250 0600     		.2byte	0x6
 1154 0252 74       		.byte	0x74
 1155 0253 00       		.sleb128 0
 1156 0254 7E       		.byte	0x7e
 1157 0255 00       		.sleb128 0
 1158 0256 1E       		.byte	0x1e
 1159 0257 9F       		.byte	0x9f
 1160 0258 4C000000 		.4byte	.LVL12
 1161 025c 50000000 		.4byte	.LVL13
 1162 0260 0800     		.2byte	0x8
 1163 0262 7D       		.byte	0x7d
 1164 0263 08       		.sleb128 8
 1165 0264 06       		.byte	0x6
 1166 0265 7D       		.byte	0x7d
 1167 0266 04       		.sleb128 4
 1168 0267 06       		.byte	0x6
 1169 0268 1E       		.byte	0x1e
 1170 0269 9F       		.byte	0x9f
 1171 026a 50000000 		.4byte	.LVL13
 1172 026e 5D000000 		.4byte	.LVL14-1
 1173 0272 0600     		.2byte	0x6
 1174 0274 74       		.byte	0x74
 1175 0275 00       		.sleb128 0
 1176 0276 7E       		.byte	0x7e
 1177 0277 00       		.sleb128 0
 1178 0278 1E       		.byte	0x1e
 1179 0279 9F       		.byte	0x9f
 1180 027a 5D000000 		.4byte	.LVL14-1
 1181 027e 64000000 		.4byte	.LVL15
 1182 0282 0700     		.2byte	0x7
 1183 0284 74       		.byte	0x74
 1184 0285 00       		.sleb128 0
 1185 0286 91       		.byte	0x91
 1186 0287 04       		.sleb128 4
 1187 0288 06       		.byte	0x6
 1188 0289 1E       		.byte	0x1e
 1189 028a 9F       		.byte	0x9f
 1190 028b 64000000 		.4byte	.LVL15
 1191 028f 86000000 		.4byte	.LVL19
 1192 0293 0800     		.2byte	0x8
 1193 0295 91       		.byte	0x91
 1194 0296 08       		.sleb128 8
 1195 0297 06       		.byte	0x6
 1196 0298 91       		.byte	0x91
ARM GAS  C:\Users\jo\AppData\Local\Temp\ccueyXEu.s 			page 22


 1197 0299 04       		.sleb128 4
 1198 029a 06       		.byte	0x6
 1199 029b 1E       		.byte	0x1e
 1200 029c 9F       		.byte	0x9f
 1201 029d 86000000 		.4byte	.LVL19
 1202 02a1 8A000000 		.4byte	.LFE0
 1203 02a5 0800     		.2byte	0x8
 1204 02a7 7D       		.byte	0x7d
 1205 02a8 08       		.sleb128 8
 1206 02a9 06       		.byte	0x6
 1207 02aa 7D       		.byte	0x7d
 1208 02ab 04       		.sleb128 4
 1209 02ac 06       		.byte	0x6
 1210 02ad 1E       		.byte	0x1e
 1211 02ae 9F       		.byte	0x9f
 1212 02af 00000000 		.4byte	0
 1213 02b3 00000000 		.4byte	0
 1214              	.LLST6:
 1215 02b7 00000000 		.4byte	.LVL0
 1216 02bb 2A000000 		.4byte	.LVL7
 1217 02bf 0200     		.2byte	0x2
 1218 02c1 91       		.byte	0x91
 1219 02c2 08       		.sleb128 8
 1220 02c3 2A000000 		.4byte	.LVL7
 1221 02c7 2E000000 		.4byte	.LVL8
 1222 02cb 0200     		.2byte	0x2
 1223 02cd 7D       		.byte	0x7d
 1224 02ce 08       		.sleb128 8
 1225 02cf 2E000000 		.4byte	.LVL8
 1226 02d3 4C000000 		.4byte	.LVL12
 1227 02d7 0200     		.2byte	0x2
 1228 02d9 91       		.byte	0x91
 1229 02da 08       		.sleb128 8
 1230 02db 4C000000 		.4byte	.LVL12
 1231 02df 50000000 		.4byte	.LVL13
 1232 02e3 0200     		.2byte	0x2
 1233 02e5 7D       		.byte	0x7d
 1234 02e6 08       		.sleb128 8
 1235 02e7 50000000 		.4byte	.LVL13
 1236 02eb 86000000 		.4byte	.LVL19
 1237 02ef 0200     		.2byte	0x2
 1238 02f1 91       		.byte	0x91
 1239 02f2 08       		.sleb128 8
 1240 02f3 86000000 		.4byte	.LVL19
 1241 02f7 8A000000 		.4byte	.LFE0
 1242 02fb 0200     		.2byte	0x2
 1243 02fd 7D       		.byte	0x7d
 1244 02fe 08       		.sleb128 8
 1245 02ff 00000000 		.4byte	0
 1246 0303 00000000 		.4byte	0
 1247              	.LLST7:
 1248 0307 0C000000 		.4byte	.LVL1
 1249 030b 24000000 		.4byte	.LVL5
 1250 030f 0100     		.2byte	0x1
 1251 0311 50       		.byte	0x50
 1252 0312 24000000 		.4byte	.LVL5
 1253 0316 2E000000 		.4byte	.LVL8
ARM GAS  C:\Users\jo\AppData\Local\Temp\ccueyXEu.s 			page 23


 1254 031a 0400     		.2byte	0x4
 1255 031c F3       		.byte	0xf3
 1256 031d 01       		.uleb128 0x1
 1257 031e 50       		.byte	0x50
 1258 031f 9F       		.byte	0x9f
 1259 0320 2E000000 		.4byte	.LVL8
 1260 0324 34000000 		.4byte	.LVL9
 1261 0328 0100     		.2byte	0x1
 1262 032a 50       		.byte	0x50
 1263 032b 34000000 		.4byte	.LVL9
 1264 032f 8A000000 		.4byte	.LFE0
 1265 0333 0400     		.2byte	0x4
 1266 0335 F3       		.byte	0xf3
 1267 0336 01       		.uleb128 0x1
 1268 0337 50       		.byte	0x50
 1269 0338 9F       		.byte	0x9f
 1270 0339 00000000 		.4byte	0
 1271 033d 00000000 		.4byte	0
 1272              	.LLST8:
 1273 0341 10000000 		.4byte	.LVL2
 1274 0345 26000000 		.4byte	.LVL6
 1275 0349 0100     		.2byte	0x1
 1276 034b 52       		.byte	0x52
 1277 034c 26000000 		.4byte	.LVL6
 1278 0350 2A000000 		.4byte	.LVL7
 1279 0354 0100     		.2byte	0x1
 1280 0356 56       		.byte	0x56
 1281 0357 2A000000 		.4byte	.LVL7
 1282 035b 2E000000 		.4byte	.LVL8
 1283 035f 0400     		.2byte	0x4
 1284 0361 F3       		.byte	0xf3
 1285 0362 01       		.uleb128 0x1
 1286 0363 52       		.byte	0x52
 1287 0364 9F       		.byte	0x9f
 1288 0365 2E000000 		.4byte	.LVL8
 1289 0369 40000000 		.4byte	.LVL11
 1290 036d 0100     		.2byte	0x1
 1291 036f 52       		.byte	0x52
 1292 0370 40000000 		.4byte	.LVL11
 1293 0374 4C000000 		.4byte	.LVL12
 1294 0378 0100     		.2byte	0x1
 1295 037a 56       		.byte	0x56
 1296 037b 4C000000 		.4byte	.LVL12
 1297 037f 50000000 		.4byte	.LVL13
 1298 0383 0400     		.2byte	0x4
 1299 0385 F3       		.byte	0xf3
 1300 0386 01       		.uleb128 0x1
 1301 0387 52       		.byte	0x52
 1302 0388 9F       		.byte	0x9f
 1303 0389 50000000 		.4byte	.LVL13
 1304 038d 5D000000 		.4byte	.LVL14-1
 1305 0391 0100     		.2byte	0x1
 1306 0393 52       		.byte	0x52
 1307 0394 5D000000 		.4byte	.LVL14-1
 1308 0398 86000000 		.4byte	.LVL19
 1309 039c 0100     		.2byte	0x1
 1310 039e 56       		.byte	0x56
ARM GAS  C:\Users\jo\AppData\Local\Temp\ccueyXEu.s 			page 24


 1311 039f 86000000 		.4byte	.LVL19
 1312 03a3 8A000000 		.4byte	.LFE0
 1313 03a7 0400     		.2byte	0x4
 1314 03a9 F3       		.byte	0xf3
 1315 03aa 01       		.uleb128 0x1
 1316 03ab 52       		.byte	0x52
 1317 03ac 9F       		.byte	0x9f
 1318 03ad 00000000 		.4byte	0
 1319 03b1 00000000 		.4byte	0
 1320              	.LLST9:
 1321 03b5 64000000 		.4byte	.LVL15
 1322 03b9 67000000 		.4byte	.LVL16-1
 1323 03bd 0100     		.2byte	0x1
 1324 03bf 50       		.byte	0x50
 1325 03c0 67000000 		.4byte	.LVL16-1
 1326 03c4 86000000 		.4byte	.LVL19
 1327 03c8 0100     		.2byte	0x1
 1328 03ca 54       		.byte	0x54
 1329 03cb 86000000 		.4byte	.LVL19
 1330 03cf 89000000 		.4byte	.LVL20-1
 1331 03d3 0100     		.2byte	0x1
 1332 03d5 50       		.byte	0x50
 1333 03d6 00000000 		.4byte	0
 1334 03da 00000000 		.4byte	0
 1335              		.section	.debug_aranges,"",%progbits
 1336 0000 1C000000 		.4byte	0x1c
 1337 0004 0200     		.2byte	0x2
 1338 0006 00000000 		.4byte	.Ldebug_info0
 1339 000a 04       		.byte	0x4
 1340 000b 00       		.byte	0
 1341 000c 0000     		.2byte	0
 1342 000e 0000     		.2byte	0
 1343 0010 00000000 		.4byte	.LFB0
 1344 0014 8A000000 		.4byte	.LFE0-.LFB0
 1345 0018 00000000 		.4byte	0
 1346 001c 00000000 		.4byte	0
 1347              		.section	.debug_ranges,"",%progbits
 1348              	.Ldebug_ranges0:
 1349 0000 50000000 		.4byte	.LBB2
 1350 0004 82000000 		.4byte	.LBE2
 1351 0008 86000000 		.4byte	.LBB3
 1352 000c 8A000000 		.4byte	.LBE3
 1353 0010 00000000 		.4byte	0
 1354 0014 00000000 		.4byte	0
 1355 0018 00000000 		.4byte	.LFB0
 1356 001c 8A000000 		.4byte	.LFE0
 1357 0020 00000000 		.4byte	0
 1358 0024 00000000 		.4byte	0
 1359              		.section	.debug_line,"",%progbits
 1360              	.Ldebug_line0:
 1361 0000 86010000 		.section	.debug_str,"MS",%progbits,1
 1361      02004B01 
 1361      00000201 
 1361      FB0E0D00 
 1361      01010101 
 1362              	.LASF23:
 1363 0000 433A5C55 		.ascii	"C:\\Users\\jo\\Documents\\GitHub\\ChibiOS\\demos\\S"
ARM GAS  C:\Users\jo\AppData\Local\Temp\ccueyXEu.s 			page 25


 1363      73657273 
 1363      5C6A6F5C 
 1363      446F6375 
 1363      6D656E74 
 1364 002c 544D3332 		.ascii	"TM32\\RT-STM32F407-DISCOVERY\000"
 1364      5C52542D 
 1364      53544D33 
 1364      32463430 
 1364      372D4449 
 1365              	.LASF25:
 1366 0048 63616C6C 		.ascii	"calloc\000"
 1366      6F6300
 1367              	.LASF3:
 1368 004f 5F5F7569 		.ascii	"__uint8_t\000"
 1368      6E74385F 
 1368      7400
 1369              	.LASF17:
 1370 0059 64657374 		.ascii	"destLen\000"
 1370      4C656E00 
 1371              	.LASF19:
 1372 0061 75646573 		.ascii	"udest\000"
 1372      7400
 1373              	.LASF14:
 1374 0067 64657374 		.ascii	"dest\000"
 1374      00
 1375              	.LASF18:
 1376 006c 73697A65 		.ascii	"size\000"
 1376      00
 1377              	.LASF8:
 1378 0071 6C6F6E67 		.ascii	"long unsigned int\000"
 1378      20756E73 
 1378      69676E65 
 1378      6420696E 
 1378      7400
 1379              	.LASF6:
 1380 0083 73686F72 		.ascii	"short unsigned int\000"
 1380      7420756E 
 1380      7369676E 
 1380      65642069 
 1380      6E7400
 1381              	.LASF2:
 1382 0096 73697A65 		.ascii	"size_t\000"
 1382      5F7400
 1383              	.LASF4:
 1384 009d 756E7369 		.ascii	"unsigned char\000"
 1384      676E6564 
 1384      20636861 
 1384      7200
 1385              	.LASF21:
 1386 00ab 474E5520 		.ascii	"GNU C 4.9.3 20141119 (release) [ARM/embedded-4_9-br"
 1386      4320342E 
 1386      392E3320 
 1386      32303134 
 1386      31313139 
 1387 00de 616E6368 		.ascii	"anch revision 218278] -mcpu=cortex-m4 -mfloat-abi=h"
 1387      20726576 
 1387      6973696F 
ARM GAS  C:\Users\jo\AppData\Local\Temp\ccueyXEu.s 			page 26


 1387      6E203231 
 1387      38323738 
 1388 0111 61726420 		.ascii	"ard -mfpu=fpv4-sp-d16 -mno-thumb-interwork -mthumb "
 1388      2D6D6670 
 1388      753D6670 
 1388      76342D73 
 1388      702D6431 
 1389 0144 2D676764 		.ascii	"-ggdb -O2 -fomit-frame-pointer -falign-functions=16"
 1389      62202D4F 
 1389      32202D66 
 1389      6F6D6974 
 1389      2D667261 
 1390 0177 202D6666 		.ascii	" -ffunction-sections -fdata-sections -fno-common -f"
 1390      756E6374 
 1390      696F6E2D 
 1390      73656374 
 1390      696F6E73 
 1391 01aa 73696E67 		.ascii	"single-precision-constant\000"
 1391      6C652D70 
 1391      72656369 
 1391      73696F6E 
 1391      2D636F6E 
 1392              	.LASF16:
 1393 01c4 73496E64 		.ascii	"sIndex\000"
 1393      657800
 1394              	.LASF0:
 1395 01cb 756E7369 		.ascii	"unsigned int\000"
 1395      676E6564 
 1395      20696E74 
 1395      00
 1396              	.LASF10:
 1397 01d8 6C6F6E67 		.ascii	"long long unsigned int\000"
 1397      206C6F6E 
 1397      6720756E 
 1397      7369676E 
 1397      65642069 
 1398              	.LASF13:
 1399 01ef 75696E74 		.ascii	"uint8_t\000"
 1399      385F7400 
 1400              	.LASF11:
 1401 01f7 73697A65 		.ascii	"sizetype\000"
 1401      74797065 
 1401      00
 1402              	.LASF27:
 1403 0200 66726565 		.ascii	"free\000"
 1403      00
 1404              	.LASF9:
 1405 0205 6C6F6E67 		.ascii	"long long int\000"
 1405      206C6F6E 
 1405      6720696E 
 1405      7400
 1406              	.LASF24:
 1407 0213 61727261 		.ascii	"arrayCopy\000"
 1407      79436F70 
 1407      7900
 1408              	.LASF26:
 1409 021d 6D656D63 		.ascii	"memcpy\000"
ARM GAS  C:\Users\jo\AppData\Local\Temp\ccueyXEu.s 			page 27


 1409      707900
 1410              	.LASF5:
 1411 0224 73686F72 		.ascii	"short int\000"
 1411      7420696E 
 1411      7400
 1412              	.LASF22:
 1413 022e 41727261 		.ascii	"ArrayCopy.c\000"
 1413      79436F70 
 1413      792E6300 
 1414              	.LASF15:
 1415 023a 64496E64 		.ascii	"dIndex\000"
 1415      657800
 1416              	.LASF7:
 1417 0241 6C6F6E67 		.ascii	"long int\000"
 1417      20696E74 
 1417      00
 1418              	.LASF12:
 1419 024a 63686172 		.ascii	"char\000"
 1419      00
 1420              	.LASF1:
 1421 024f 7369676E 		.ascii	"signed char\000"
 1421      65642063 
 1421      68617200 
 1422              	.LASF20:
 1423 025b 75737263 		.ascii	"usrc\000"
 1423      00
 1424              		.ident	"GCC: (GNU Tools for ARM Embedded Processors) 4.9.3 20141119 (release) [ARM/embedded-4_9-br
ARM GAS  C:\Users\jo\AppData\Local\Temp\ccueyXEu.s 			page 28


DEFINED SYMBOLS
                            *ABS*:00000000 ArrayCopy.c
C:\Users\jo\AppData\Local\Temp\ccueyXEu.s:21     .text.arrayCopy:00000000 $t
C:\Users\jo\AppData\Local\Temp\ccueyXEu.s:27     .text.arrayCopy:00000000 arrayCopy
                     .debug_frame:00000010 $d

UNDEFINED SYMBOLS
memcpy
calloc
free
