ARM GAS  C:\Users\jo\AppData\Local\Temp\cco3a86y.s 			page 1


   1              		.syntax unified
   2              		.cpu cortex-m4
   3              		.eabi_attribute 27, 3
   4              		.eabi_attribute 28, 1
   5              		.fpu fpv4-sp-d16
   6              		.eabi_attribute 20, 1
   7              		.eabi_attribute 21, 1
   8              		.eabi_attribute 23, 3
   9              		.eabi_attribute 24, 1
  10              		.eabi_attribute 25, 1
  11              		.eabi_attribute 26, 1
  12              		.eabi_attribute 30, 2
  13              		.eabi_attribute 34, 1
  14              		.eabi_attribute 18, 4
  15              		.thumb
  16              		.file	"ip.c"
  17              		.text
  18              	.Ltext0:
  19              		.cfi_sections	.debug_frame
  20              		.section	.text.chprintf.constprop.1,"ax",%progbits
  21              		.align	2
  22              		.p2align 4,,15
  23              		.thumb
  24              		.thumb_func
  25              		.type	chprintf.constprop.1, %function
  26              	chprintf.constprop.1:
  27              	.LFB261:
  28              		.file 1 "../../../os/hal/lib/streams/chprintf.h"
  29              		.loc 1 69 0
  30              		.cfi_startproc
  31              		@ args = 4, pretend = 12, frame = 8
  32              		@ frame_needed = 0, uses_anonymous_args = 1
  33              	.LVL0:
  34 0000 0EB4     		push	{r1, r2, r3}
  35              		.cfi_def_cfa_offset 12
  36              		.cfi_offset 1, -12
  37              		.cfi_offset 2, -8
  38              		.cfi_offset 3, -4
  39 0002 00B5     		push	{lr}
  40              		.cfi_def_cfa_offset 16
  41              		.cfi_offset 14, -16
  42 0004 82B0     		sub	sp, sp, #8
  43              		.cfi_def_cfa_offset 24
  44              		.loc 1 73 0
  45 0006 04AB     		add	r3, sp, #16
  46              		.loc 1 74 0
  47 0008 1A46     		mov	r2, r3
  48 000a 0549     		ldr	r1, .L3
  49 000c 0548     		ldr	r0, .L3+4
  50              	.LVL1:
  51              		.loc 1 73 0
  52 000e 0193     		str	r3, [sp, #4]
  53              		.loc 1 74 0
  54 0010 FFF7FEFF 		bl	chvprintf
  55              	.LVL2:
  56              		.loc 1 78 0
  57 0014 02B0     		add	sp, sp, #8
ARM GAS  C:\Users\jo\AppData\Local\Temp\cco3a86y.s 			page 2


  58              		.cfi_def_cfa_offset 16
  59              		@ sp needed
  60 0016 5DF804EB 		ldr	lr, [sp], #4
  61              		.cfi_restore 14
  62              		.cfi_def_cfa_offset 12
  63 001a 03B0     		add	sp, sp, #12
  64              		.cfi_restore 3
  65              		.cfi_restore 2
  66              		.cfi_restore 1
  67              		.cfi_def_cfa_offset 0
  68 001c 7047     		bx	lr
  69              	.L4:
  70 001e 00BF     		.align	2
  71              	.L3:
  72 0020 00000000 		.word	.LC0
  73 0024 00000000 		.word	itm_port
  74              		.cfi_endproc
  75              	.LFE261:
  76              		.size	chprintf.constprop.1, .-chprintf.constprop.1
  77 0028 AFF30080 		.section	.text.ip_route,"ax",%progbits
  77      AFF30080 
  78              		.align	2
  79              		.p2align 4,,15
  80              		.global	ip_route
  81              		.thumb
  82              		.thumb_func
  83              		.type	ip_route, %function
  84              	ip_route:
  85              	.LFB256:
  86              		.file 2 "../../../os/ext/lwip-1.4.1/src/core/ipv4/ip.c"
  87              		.loc 2 125 0
  88              		.cfi_startproc
  89              		@ args = 0, pretend = 0, frame = 0
  90              		@ frame_needed = 0, uses_anonymous_args = 0
  91              		@ link register save eliminated.
  92              	.LVL3:
  93 0000 10B4     		push	{r4}
  94              		.cfi_def_cfa_offset 4
  95              		.cfi_offset 4, -4
  96              		.loc 2 136 0
  97 0002 114B     		ldr	r3, .L25
  98              	.L23:
  99 0004 1B68     		ldr	r3, [r3]
 100              	.LVL4:
 101 0006 6BB1     		cbz	r3, .L6
 102              		.loc 2 138 0
 103 0008 93F82920 		ldrb	r2, [r3, #41]	@ zero_extendqisi2
 104 000c D207     		lsls	r2, r2, #31
 105 000e F9D5     		bpl	.L23
 106              		.loc 2 139 0
 107 0010 5C68     		ldr	r4, [r3, #4]
 108 0012 0268     		ldr	r2, [r0]
 109 0014 9968     		ldr	r1, [r3, #8]
 110 0016 6240     		eors	r2, r2, r4
 111 0018 0A42     		tst	r2, r1
 112 001a F3D1     		bne	.L23
 113 001c 1846     		mov	r0, r3
ARM GAS  C:\Users\jo\AppData\Local\Temp\cco3a86y.s 			page 3


 114              	.LVL5:
 115              		.loc 2 154 0
 116 001e 5DF8044B 		ldr	r4, [sp], #4
 117              		.cfi_remember_state
 118              		.cfi_restore 4
 119              		.cfi_def_cfa_offset 0
 120 0022 7047     		bx	lr
 121              	.LVL6:
 122              	.L6:
 123              		.cfi_restore_state
 124              		.loc 2 145 0
 125 0024 094B     		ldr	r3, .L25+4
 126              	.LVL7:
 127 0026 1868     		ldr	r0, [r3]
 128              	.LVL8:
 129 0028 30B1     		cbz	r0, .L10
 130              		.loc 2 145 0 is_stmt 0 discriminator 1
 131 002a 90F82930 		ldrb	r3, [r0, #41]	@ zero_extendqisi2
 132 002e DB07     		lsls	r3, r3, #31
 133 0030 02D5     		bpl	.L10
 134              	.L8:
 135              		.loc 2 154 0 is_stmt 1
 136 0032 5DF8044B 		ldr	r4, [sp], #4
 137              		.cfi_remember_state
 138              		.cfi_restore 4
 139              		.cfi_def_cfa_offset 0
 140 0036 7047     		bx	lr
 141              	.L10:
 142              		.cfi_restore_state
 143              	.LVL9:
 144              	.LBB11:
 145              	.LBB12:
 146              		.loc 2 148 0
 147 0038 054A     		ldr	r2, .L25+8
 148 003a B2F85630 		ldrh	r3, [r2, #86]
 149 003e 0133     		adds	r3, r3, #1
 150 0040 A2F85630 		strh	r3, [r2, #86]	@ movhi
 151 0044 0020     		movs	r0, #0
 152 0046 F4E7     		b	.L8
 153              	.L26:
 154              		.align	2
 155              	.L25:
 156 0048 00000000 		.word	netif_list
 157 004c 00000000 		.word	netif_default
 158 0050 00000000 		.word	lwip_stats
 159              	.LBE12:
 160              	.LBE11:
 161              		.cfi_endproc
 162              	.LFE256:
 163              		.size	ip_route, .-ip_route
 164 0054 AFF30080 		.section	.text.ip_input,"ax",%progbits
 164      AFF30080 
 164      AFF30080 
 165              		.align	2
 166              		.p2align 4,,15
 167              		.global	ip_input
 168              		.thumb
ARM GAS  C:\Users\jo\AppData\Local\Temp\cco3a86y.s 			page 4


 169              		.thumb_func
 170              		.type	ip_input, %function
 171              	ip_input:
 172              	.LFB257:
 173              		.loc 2 306 0
 174              		.cfi_startproc
 175              		@ args = 0, pretend = 0, frame = 0
 176              		@ frame_needed = 0, uses_anonymous_args = 0
 177              	.LVL10:
 178 0000 2DE9F84F 		push	{r3, r4, r5, r6, r7, r8, r9, r10, fp, lr}
 179              		.cfi_def_cfa_offset 40
 180              		.cfi_offset 3, -40
 181              		.cfi_offset 4, -36
 182              		.cfi_offset 5, -32
 183              		.cfi_offset 6, -28
 184              		.cfi_offset 7, -24
 185              		.cfi_offset 8, -20
 186              		.cfi_offset 9, -16
 187              		.cfi_offset 10, -12
 188              		.cfi_offset 11, -8
 189              		.cfi_offset 14, -4
 190              		.loc 2 315 0
 191 0004 7A4D     		ldr	r5, .L73
 192              		.loc 2 319 0
 193 0006 D0F80480 		ldr	r8, [r0, #4]
 194              	.LVL11:
 195              		.loc 2 315 0
 196 000a B5F84A30 		ldrh	r3, [r5, #74]
 197 000e 0133     		adds	r3, r3, #1
 198 0010 A5F84A30 		strh	r3, [r5, #74]	@ movhi
 199              		.loc 2 320 0
 200 0014 98F80030 		ldrb	r3, [r8]	@ zero_extendqisi2
 201 0018 1A09     		lsrs	r2, r3, #4
 202 001a 042A     		cmp	r2, #4
 203              		.loc 2 306 0
 204 001c 0646     		mov	r6, r0
 205              		.loc 2 320 0
 206 001e 0ED0     		beq	.L28
 207              		.loc 2 323 0
 208 0020 FFF7FEFF 		bl	pbuf_free
 209              	.LVL12:
 210              		.loc 2 324 0
 211 0024 B5F85C20 		ldrh	r2, [r5, #92]
 212              		.loc 2 325 0
 213 0028 B5F84E30 		ldrh	r3, [r5, #78]
 214              		.loc 2 324 0
 215 002c 0132     		adds	r2, r2, #1
 216              		.loc 2 325 0
 217 002e 0133     		adds	r3, r3, #1
 218              		.loc 2 324 0
 219 0030 A5F85C20 		strh	r2, [r5, #92]	@ movhi
 220              		.loc 2 325 0
 221 0034 A5F84E30 		strh	r3, [r5, #78]	@ movhi
 222              	.L29:
 223              		.loc 2 613 0
 224 0038 0020     		movs	r0, #0
 225 003a BDE8F88F 		pop	{r3, r4, r5, r6, r7, r8, r9, r10, fp, pc}
ARM GAS  C:\Users\jo\AppData\Local\Temp\cco3a86y.s 			page 5


 226              	.LVL13:
 227              	.L28:
 228              		.loc 2 338 0
 229 003e 03F00F03 		and	r3, r3, #15
 230              	.LVL14:
 231              		.loc 2 342 0
 232 0042 B8F80200 		ldrh	r0, [r8, #2]	@ unaligned
 233              	.LVL15:
 234              		.loc 2 340 0
 235 0046 9C00     		lsls	r4, r3, #2
 236              	.LVL16:
 237 0048 0F46     		mov	r7, r1
 238              		.loc 2 342 0
 239 004a FFF7FEFF 		bl	lwip_ntohs
 240              	.LVL17:
 241              		.loc 2 345 0
 242 004e 7389     		ldrh	r3, [r6, #10]
 243 0050 A342     		cmp	r3, r4
 244              		.loc 2 342 0
 245 0052 8146     		mov	r9, r0
 246              	.LVL18:
 247              		.loc 2 345 0
 248 0054 02D3     		bcc	.L30
 249              		.loc 2 345 0 is_stmt 0 discriminator 1
 250 0056 3389     		ldrh	r3, [r6, #8]
 251 0058 8342     		cmp	r3, r0
 252 005a 0FD2     		bcs	.L31
 253              	.L30:
 254              		.loc 2 357 0 is_stmt 1
 255 005c 3046     		mov	r0, r6
 256              	.LVL19:
 257 005e FFF7FEFF 		bl	pbuf_free
 258              	.LVL20:
 259              		.loc 2 358 0
 260 0062 B5F85220 		ldrh	r2, [r5, #82]
 261              		.loc 2 359 0
 262 0066 B5F84E30 		ldrh	r3, [r5, #78]
 263              		.loc 2 358 0
 264 006a 0132     		adds	r2, r2, #1
 265              		.loc 2 359 0
 266 006c 0133     		adds	r3, r3, #1
 267              		.loc 2 358 0
 268 006e A5F85220 		strh	r2, [r5, #82]	@ movhi
 269              		.loc 2 359 0
 270 0072 A5F84E30 		strh	r3, [r5, #78]	@ movhi
 271              		.loc 2 613 0
 272 0076 0020     		movs	r0, #0
 273 0078 BDE8F88F 		pop	{r3, r4, r5, r6, r7, r8, r9, r10, fp, pc}
 274              	.LVL21:
 275              	.L31:
 276              		.loc 2 366 0
 277 007c 2146     		mov	r1, r4
 278 007e 4046     		mov	r0, r8
 279              	.LVL22:
 280 0080 FFF7FEFF 		bl	inet_chksum
 281              	.LVL23:
 282 0084 0028     		cmp	r0, #0
ARM GAS  C:\Users\jo\AppData\Local\Temp\cco3a86y.s 			page 6


 283 0086 40F09180 		bne	.L69
 284              		.loc 2 381 0
 285 008a 4946     		mov	r1, r9
 286 008c 3046     		mov	r0, r6
 287              		.loc 2 384 0
 288 008e DFF86C91 		ldr	r9, .L73+12
 289              	.LBB13:
 290              		.loc 2 435 0
 291 0092 DFF86CA1 		ldr	r10, .L73+16
 292              	.LBE13:
 293              		.loc 2 381 0
 294 0096 FFF7FEFF 		bl	pbuf_realloc
 295              	.LVL24:
 296              		.loc 2 384 0
 297 009a D8F81030 		ldr	r3, [r8, #16]	@ unaligned
 298 009e C9F80030 		str	r3, [r9]
 299              		.loc 2 385 0
 300 00a2 544A     		ldr	r2, .L73+4
 301 00a4 D8F80C30 		ldr	r3, [r8, #12]	@ unaligned
 302 00a8 1360     		str	r3, [r2]
 303              	.LVL25:
 304 00aa 3C46     		mov	r4, r7
 305              	.LVL26:
 306              	.LBB14:
 307              		.loc 2 401 0
 308 00ac 4FF0010B 		mov	fp, #1
 309              	.LVL27:
 310              	.L40:
 311              		.loc 2 411 0
 312 00b0 94F82930 		ldrb	r3, [r4, #41]	@ zero_extendqisi2
 313 00b4 DB07     		lsls	r3, r3, #31
 314 00b6 09D5     		bpl	.L36
 315              		.loc 2 411 0 is_stmt 0 discriminator 1
 316 00b8 6368     		ldr	r3, [r4, #4]
 317 00ba 3BB1     		cbz	r3, .L36
 318              		.loc 2 413 0 is_stmt 1
 319 00bc D9F80000 		ldr	r0, [r9]
 320 00c0 8342     		cmp	r3, r0
 321 00c2 0FD0     		beq	.L37
 322              		.loc 2 415 0 discriminator 1
 323 00c4 2146     		mov	r1, r4
 324 00c6 FFF7FEFF 		bl	ip4_addr_isbroadcast
 325              	.LVL28:
 326              		.loc 2 413 0 discriminator 1
 327 00ca 58B9     		cbnz	r0, .L37
 328              	.L36:
 329              		.loc 2 433 0
 330 00cc BBF1000F 		cmp	fp, #0
 331 00d0 61D0     		beq	.L70
 332              	.LVL29:
 333              		.loc 2 435 0
 334 00d2 DAF80040 		ldr	r4, [r10]
 335              	.LVL30:
 336              	.L38:
 337              		.loc 2 439 0
 338 00d6 BC42     		cmp	r4, r7
 339              		.loc 2 440 0
ARM GAS  C:\Users\jo\AppData\Local\Temp\cco3a86y.s 			page 7


 340 00d8 08BF     		it	eq
 341 00da 2468     		ldreq	r4, [r4]
 342              	.LVL31:
 343 00dc 4FF0000B 		mov	fp, #0
 344              		.loc 2 442 0
 345 00e0 002C     		cmp	r4, #0
 346 00e2 E5D1     		bne	.L40
 347              	.LVL32:
 348              	.L37:
 349              	.LBE14:
 350              		.loc 2 475 0
 351 00e4 434B     		ldr	r3, .L73+4
 352 00e6 3946     		mov	r1, r7
 353 00e8 1868     		ldr	r0, [r3]
 354 00ea 9B46     		mov	fp, r3
 355 00ec FFF7FEFF 		bl	ip4_addr_isbroadcast
 356              	.LVL33:
 357 00f0 0028     		cmp	r0, #0
 358 00f2 52D1     		bne	.L41
 359              		.loc 2 476 0 discriminator 1
 360 00f4 DBF80030 		ldr	r3, [fp]
 361 00f8 03F0F003 		and	r3, r3, #240
 362              		.loc 2 475 0 discriminator 1
 363 00fc E02B     		cmp	r3, #224
 364 00fe 4CD0     		beq	.L41
 365              		.loc 2 489 0
 366 0100 002C     		cmp	r4, #0
 367 0102 70D0     		beq	.L71
 368              		.loc 2 507 0
 369 0104 B8F80630 		ldrh	r3, [r8, #6]	@ unaligned
 370 0108 23F0C003 		bic	r3, r3, #192
 371 010c 3BB1     		cbz	r3, .L44
 372              		.loc 2 512 0
 373 010e 3046     		mov	r0, r6
 374 0110 FFF7FEFF 		bl	ip_reass
 375              	.LVL34:
 376              		.loc 2 514 0
 377 0114 0646     		mov	r6, r0
 378 0116 0028     		cmp	r0, #0
 379 0118 8ED0     		beq	.L29
 380              		.loc 2 517 0
 381 011a D0F80480 		ldr	r8, [r0, #4]
 382              	.LVL35:
 383              	.L44:
 384              		.loc 2 553 0
 385 011e DFF8E4B0 		ldr	fp, .L73+20
 386              		.loc 2 554 0
 387 0122 354C     		ldr	r4, .L73+8
 388              	.LVL36:
 389              		.loc 2 553 0
 390 0124 CBF80070 		str	r7, [fp]
 391              		.loc 2 558 0
 392 0128 3046     		mov	r0, r6
 393 012a 3946     		mov	r1, r7
 394              		.loc 2 554 0
 395 012c C4F80080 		str	r8, [r4]
 396              		.loc 2 558 0
ARM GAS  C:\Users\jo\AppData\Local\Temp\cco3a86y.s 			page 8


 397 0130 FFF7FEFF 		bl	raw_input
 398              	.LVL37:
 399 0134 30BB     		cbnz	r0, .L45
 400              		.loc 2 561 0
 401 0136 98F80930 		ldrb	r3, [r8, #9]	@ zero_extendqisi2
 402 013a 062B     		cmp	r3, #6
 403 013c 49D0     		beq	.L47
 404 013e 112B     		cmp	r3, #17
 405 0140 42D0     		beq	.L48
 406 0142 012B     		cmp	r3, #1
 407 0144 4AD0     		beq	.L72
 408              		.loc 2 591 0
 409 0146 3946     		mov	r1, r7
 410 0148 D9F80000 		ldr	r0, [r9]
 411 014c 2B4F     		ldr	r7, .L73+12
 412              	.LVL38:
 413 014e FFF7FEFF 		bl	ip4_addr_isbroadcast
 414              	.LVL39:
 415 0152 50B9     		cbnz	r0, .L50
 416              		.loc 2 592 0 discriminator 1
 417 0154 3B68     		ldr	r3, [r7]
 418 0156 03F0F003 		and	r3, r3, #240
 419              		.loc 2 591 0 discriminator 1
 420 015a E02B     		cmp	r3, #224
 421 015c 05D0     		beq	.L50
 422              		.loc 2 593 0
 423 015e C6F80480 		str	r8, [r6, #4]
 424              		.loc 2 594 0
 425 0162 3046     		mov	r0, r6
 426 0164 0221     		movs	r1, #2
 427 0166 FFF7FEFF 		bl	icmp_dest_unreach
 428              	.LVL40:
 429              	.L50:
 430              		.loc 2 597 0
 431 016a 3046     		mov	r0, r6
 432 016c FFF7FEFF 		bl	pbuf_free
 433              	.LVL41:
 434              		.loc 2 601 0
 435 0170 B5F85820 		ldrh	r2, [r5, #88]
 436              		.loc 2 602 0
 437 0174 B5F84E30 		ldrh	r3, [r5, #78]
 438              		.loc 2 601 0
 439 0178 0132     		adds	r2, r2, #1
 440              		.loc 2 602 0
 441 017a 0133     		adds	r3, r3, #1
 442              		.loc 2 601 0
 443 017c A5F85820 		strh	r2, [r5, #88]	@ movhi
 444              		.loc 2 602 0
 445 0180 A5F84E30 		strh	r3, [r5, #78]	@ movhi
 446              	.L45:
 447              		.loc 2 609 0
 448 0184 1B4A     		ldr	r2, .L73+4
 449              		.loc 2 607 0
 450 0186 0023     		movs	r3, #0
 451 0188 CBF80030 		str	r3, [fp]
 452              		.loc 2 608 0
 453 018c 2360     		str	r3, [r4]
ARM GAS  C:\Users\jo\AppData\Local\Temp\cco3a86y.s 			page 9


 454              		.loc 2 609 0
 455 018e 1360     		str	r3, [r2]
 456              		.loc 2 610 0
 457 0190 C9F80030 		str	r3, [r9]
 458              		.loc 2 612 0
 459 0194 50E7     		b	.L29
 460              	.LVL42:
 461              	.L70:
 462              	.LBB15:
 463              		.loc 2 437 0
 464 0196 2468     		ldr	r4, [r4]
 465              	.LVL43:
 466 0198 9DE7     		b	.L38
 467              	.LVL44:
 468              	.L41:
 469              	.LBE15:
 470              		.loc 2 480 0
 471 019a 3046     		mov	r0, r6
 472 019c FFF7FEFF 		bl	pbuf_free
 473              	.LVL45:
 474              		.loc 2 481 0
 475 01a0 B5F84E30 		ldrh	r3, [r5, #78]
 476 01a4 0133     		adds	r3, r3, #1
 477 01a6 A5F84E30 		strh	r3, [r5, #78]	@ movhi
 478              		.loc 2 484 0
 479 01aa 45E7     		b	.L29
 480              	.LVL46:
 481              	.L69:
 482              		.loc 2 371 0
 483 01ac 3046     		mov	r0, r6
 484 01ae FFF7FEFF 		bl	pbuf_free
 485              	.LVL47:
 486              		.loc 2 372 0
 487 01b2 B5F85020 		ldrh	r2, [r5, #80]
 488              		.loc 2 373 0
 489 01b6 B5F84E30 		ldrh	r3, [r5, #78]
 490              		.loc 2 372 0
 491 01ba 0132     		adds	r2, r2, #1
 492              		.loc 2 373 0
 493 01bc 0133     		adds	r3, r3, #1
 494              		.loc 2 372 0
 495 01be A5F85020 		strh	r2, [r5, #80]	@ movhi
 496              		.loc 2 373 0
 497 01c2 A5F84E30 		strh	r3, [r5, #78]	@ movhi
 498              		.loc 2 375 0
 499 01c6 37E7     		b	.L29
 500              	.LVL48:
 501              	.L48:
 502              		.loc 2 568 0
 503 01c8 3046     		mov	r0, r6
 504 01ca 3946     		mov	r1, r7
 505 01cc FFF7FEFF 		bl	udp_input
 506              	.LVL49:
 507              		.loc 2 569 0
 508 01d0 D8E7     		b	.L45
 509              	.L47:
 510              		.loc 2 574 0
ARM GAS  C:\Users\jo\AppData\Local\Temp\cco3a86y.s 			page 10


 511 01d2 3046     		mov	r0, r6
 512 01d4 3946     		mov	r1, r7
 513 01d6 FFF7FEFF 		bl	tcp_input
 514              	.LVL50:
 515              		.loc 2 575 0
 516 01da D3E7     		b	.L45
 517              	.L72:
 518              		.loc 2 580 0
 519 01dc 3046     		mov	r0, r6
 520 01de 3946     		mov	r1, r7
 521 01e0 FFF7FEFF 		bl	icmp_input
 522              	.LVL51:
 523              		.loc 2 581 0
 524 01e4 CEE7     		b	.L45
 525              	.LVL52:
 526              	.L71:
 527              		.loc 2 503 0
 528 01e6 3046     		mov	r0, r6
 529 01e8 FFF7FEFF 		bl	pbuf_free
 530              	.LVL53:
 531              		.loc 2 504 0
 532 01ec 24E7     		b	.L29
 533              	.L74:
 534 01ee 00BF     		.align	2
 535              	.L73:
 536 01f0 00000000 		.word	lwip_stats
 537 01f4 00000000 		.word	.LANCHOR1
 538 01f8 00000000 		.word	.LANCHOR3
 539 01fc 00000000 		.word	.LANCHOR0
 540 0200 00000000 		.word	netif_list
 541 0204 00000000 		.word	.LANCHOR2
 542              		.cfi_endproc
 543              	.LFE257:
 544              		.size	ip_input, .-ip_input
 545 0208 AFF30080 		.section	.text.ip_output_if,"ax",%progbits
 545      AFF30080 
 546              		.align	2
 547              		.p2align 4,,15
 548              		.global	ip_output_if
 549              		.thumb
 550              		.thumb_func
 551              		.type	ip_output_if, %function
 552              	ip_output_if:
 553              	.LFB258:
 554              		.loc 2 644 0
 555              		.cfi_startproc
 556              		@ args = 12, pretend = 0, frame = 16
 557              		@ frame_needed = 0, uses_anonymous_args = 0
 558              	.LVL54:
 559 0000 2DE9F04F 		push	{r4, r5, r6, r7, r8, r9, r10, fp, lr}
 560              		.cfi_def_cfa_offset 36
 561              		.cfi_offset 4, -36
 562              		.cfi_offset 5, -32
 563              		.cfi_offset 6, -28
 564              		.cfi_offset 7, -24
 565              		.cfi_offset 8, -20
 566              		.cfi_offset 9, -16
ARM GAS  C:\Users\jo\AppData\Local\Temp\cco3a86y.s 			page 11


 567              		.cfi_offset 10, -12
 568              		.cfi_offset 11, -8
 569              		.cfi_offset 14, -4
 570 0004 8A46     		mov	r10, r1
 571              		.loc 2 668 0
 572 0006 C189     		ldrh	r1, [r0, #14]
 573              	.LVL55:
 574              		.loc 2 644 0
 575 0008 87B0     		sub	sp, sp, #28
 576              		.cfi_def_cfa_offset 64
 577              		.loc 2 668 0
 578 000a 0129     		cmp	r1, #1
 579              		.loc 2 644 0
 580 000c 0546     		mov	r5, r0
 581 000e 9DF840B0 		ldrb	fp, [sp, #64]	@ zero_extendqisi2
 582 0012 9DF84490 		ldrb	r9, [sp, #68]	@ zero_extendqisi2
 583 0016 9046     		mov	r8, r2
 584 0018 1E46     		mov	r6, r3
 585              		.loc 2 668 0
 586 001a 0BD0     		beq	.L76
 587              		.loc 2 668 0 is_stmt 0 discriminator 1
 588 001c 4D4B     		ldr	r3, .L99
 589              	.LVL56:
 590 001e 0093     		str	r3, [sp]
 591 0020 4D48     		ldr	r0, .L99+4
 592              	.LVL57:
 593 0022 4E49     		ldr	r1, .L99+8
 594 0024 4E4A     		ldr	r2, .L99+12
 595              	.LVL58:
 596 0026 4FF42773 		mov	r3, #668
 597 002a FFF7FEFF 		bl	chprintf.constprop.1
 598              	.LVL59:
 599              	.LBB16:
 600              	.LBB17:
 601              		.file 3 "../../../os/hal/osal/rt/osal.h"
 602              		.loc 3 414 0 is_stmt 1 discriminator 1
 603 002e 4C48     		ldr	r0, .L99+12
 604 0030 FFF7FEFF 		bl	chSysHalt
 605              	.LVL60:
 606              	.L76:
 607              	.LBE17:
 608              	.LBE16:
 609              		.loc 2 673 0
 610 0034 B8F1000F 		cmp	r8, #0
 611 0038 66D0     		beq	.L77
 612              	.LVL61:
 613              	.LBB18:
 614              		.loc 2 704 0
 615 003a 2846     		mov	r0, r5
 616 003c 1421     		movs	r1, #20
 617 003e FFF7FEFF 		bl	pbuf_header
 618              	.LVL62:
 619 0042 0028     		cmp	r0, #0
 620 0044 7DD1     		bne	.L96
 621              		.loc 2 713 0
 622 0046 6B89     		ldrh	r3, [r5, #10]
 623              		.loc 2 712 0
ARM GAS  C:\Users\jo\AppData\Local\Temp\cco3a86y.s 			page 12


 624 0048 6C68     		ldr	r4, [r5, #4]
 625              	.LVL63:
 626              		.loc 2 713 0
 627 004a 132B     		cmp	r3, #19
 628 004c 63D9     		bls	.L97
 629              	.L80:
 630              		.loc 2 717 0
 631 004e 84F80990 		strb	r9, [r4, #9]
 632              		.loc 2 716 0
 633 0052 2672     		strb	r6, [r4, #8]
 634              		.loc 2 723 0
 635 0054 D8F80030 		ldr	r3, [r8]
 636              		.loc 2 730 0
 637 0058 84F801B0 		strb	fp, [r4, #1]
 638              		.loc 2 729 0
 639 005c 4522     		movs	r2, #69
 640              		.loc 2 725 0
 641 005e 99B2     		uxth	r1, r3
 642              		.loc 2 729 0
 643 0060 2270     		strb	r2, [r4]
 644 0062 01EB1341 		add	r1, r1, r3, lsr #16
 645              		.loc 2 723 0
 646 0066 2361     		str	r3, [r4, #16]	@ unaligned
 647              		.loc 2 732 0
 648 0068 4FEA0B2B 		lsl	fp, fp, #8
 649              		.loc 2 734 0
 650 006c 2889     		ldrh	r0, [r5, #8]
 651 006e 0391     		str	r1, [sp, #12]
 652              		.loc 2 732 0
 653 0070 4BEA020B 		orr	fp, fp, r2
 654              		.loc 2 734 0
 655 0074 FFF7FEFF 		bl	lwip_htons
 656              	.LVL64:
 657              		.loc 2 739 0
 658 0078 3A4F     		ldr	r7, .L99+16
 659              		.loc 2 734 0
 660 007a 6080     		strh	r0, [r4, #2]	@ unaligned
 661              		.loc 2 738 0
 662 007c 4FF0000E 		mov	lr, #0
 663              		.loc 2 734 0
 664 0080 0290     		str	r0, [sp, #8]
 665              		.loc 2 738 0
 666 0082 84F806E0 		strb	lr, [r4, #6]
 667 0086 84F807E0 		strb	lr, [r4, #7]
 668              		.loc 2 739 0
 669 008a 3888     		ldrh	r0, [r7]
 670 008c FFF7FEFF 		bl	lwip_htons
 671              	.LVL65:
 672              		.loc 2 743 0
 673 0090 B7F800E0 		ldrh	lr, [r7]
 674              		.loc 2 739 0
 675 0094 A080     		strh	r0, [r4, #4]	@ unaligned
 676              		.loc 2 743 0
 677 0096 0EF1010E 		add	lr, lr, #1
 678              		.loc 2 719 0
 679 009a 46EA0929 		orr	r9, r6, r9, lsl #8
 680              	.LVL66:
ARM GAS  C:\Users\jo\AppData\Local\Temp\cco3a86y.s 			page 13


 681              		.loc 2 743 0
 682 009e A7F800E0 		strh	lr, [r7]	@ movhi
 683              		.loc 2 745 0
 684 00a2 029B     		ldr	r3, [sp, #8]
 685 00a4 0399     		ldr	r1, [sp, #12]
 686 00a6 BAF1000F 		cmp	r10, #0
 687 00aa 02D0     		beq	.L81
 688              		.loc 2 745 0 is_stmt 0 discriminator 1
 689 00ac DAF80020 		ldr	r2, [r10]
 690 00b0 42BB     		cbnz	r2, .L82
 691              	.L81:
 692              		.loc 2 746 0 is_stmt 1
 693 00b2 129A     		ldr	r2, [sp, #72]
 694 00b4 5268     		ldr	r2, [r2, #4]
 695 00b6 E260     		str	r2, [r4, #12]	@ unaligned
 696              	.L83:
 697 00b8 01EB0B06 		add	r6, r1, fp
 698 00bc 4E44     		add	r6, r6, r9
 699 00be 1E44     		add	r6, r6, r3
 700 00c0 3044     		add	r0, r0, r6
 701 00c2 10FA82F0 		uxtah	r0, r0, r2
 702              		.loc 2 754 0
 703 00c6 00EB1240 		add	r0, r0, r2, lsr #16
 704              	.LVL67:
 705              		.loc 2 755 0
 706 00ca 83B2     		uxth	r3, r0
 707 00cc 03EB1040 		add	r0, r3, r0, lsr #16
 708              	.LVL68:
 709              		.loc 2 756 0
 710 00d0 00EB1040 		add	r0, r0, r0, lsr #16
 711              	.LVL69:
 712              		.loc 2 758 0
 713 00d4 C043     		mvns	r0, r0
 714              	.LVL70:
 715 00d6 6081     		strh	r0, [r4, #10]	@ unaligned
 716              	.LVL71:
 717              	.L84:
 718              	.LBE18:
 719              		.loc 2 772 0
 720 00d8 234A     		ldr	r2, .L99+20
 721              		.loc 2 791 0
 722 00da 129B     		ldr	r3, [sp, #72]
 723 00dc 198C     		ldrh	r1, [r3, #32]
 724              		.loc 2 772 0
 725 00de B2F84830 		ldrh	r3, [r2, #72]
 726 00e2 0133     		adds	r3, r3, #1
 727 00e4 A2F84830 		strh	r3, [r2, #72]	@ movhi
 728              		.loc 2 791 0
 729 00e8 11B1     		cbz	r1, .L85
 730              		.loc 2 791 0 is_stmt 0 discriminator 1
 731 00ea 2B89     		ldrh	r3, [r5, #8]
 732 00ec 8B42     		cmp	r3, r1
 733 00ee 1FD8     		bhi	.L98
 734              	.L85:
 735              		.loc 2 797 0 is_stmt 1
 736 00f0 129B     		ldr	r3, [sp, #72]
 737 00f2 1298     		ldr	r0, [sp, #72]
ARM GAS  C:\Users\jo\AppData\Local\Temp\cco3a86y.s 			page 14


 738 00f4 5B69     		ldr	r3, [r3, #20]
 739 00f6 2946     		mov	r1, r5
 740 00f8 4246     		mov	r2, r8
 741 00fa 9847     		blx	r3
 742              	.LVL72:
 743              	.L79:
 744              		.loc 2 798 0
 745 00fc 40B2     		sxtb	r0, r0
 746 00fe 07B0     		add	sp, sp, #28
 747              		.cfi_remember_state
 748              		.cfi_def_cfa_offset 36
 749              		@ sp needed
 750 0100 BDE8F08F 		pop	{r4, r5, r6, r7, r8, r9, r10, fp, pc}
 751              	.LVL73:
 752              	.L82:
 753              		.cfi_restore_state
 754              	.LBB21:
 755              		.loc 2 749 0
 756 0104 E260     		str	r2, [r4, #12]	@ unaligned
 757 0106 D7E7     		b	.L83
 758              	.LVL74:
 759              	.L77:
 760              	.LBE21:
 761              		.loc 2 768 0
 762 0108 6B68     		ldr	r3, [r5, #4]
 763 010a 0DF11808 		add	r8, sp, #24
 764              	.LVL75:
 765 010e 1B69     		ldr	r3, [r3, #16]	@ unaligned
 766 0110 48F8043D 		str	r3, [r8, #-4]!
 767              	.LVL76:
 768 0114 E0E7     		b	.L84
 769              	.LVL77:
 770              	.L97:
 771              	.LBB22:
 772              		.loc 2 713 0 discriminator 1
 773 0116 0F4B     		ldr	r3, .L99
 774 0118 0093     		str	r3, [sp]
 775 011a 1049     		ldr	r1, .L99+8
 776 011c 134A     		ldr	r2, .L99+24
 777 011e 0E48     		ldr	r0, .L99+4
 778 0120 40F2CA23 		movw	r3, #714
 779 0124 FFF7FEFF 		bl	chprintf.constprop.1
 780              	.LVL78:
 781              	.LBB19:
 782              	.LBB20:
 783              		.loc 3 414 0 discriminator 1
 784 0128 1048     		ldr	r0, .L99+24
 785 012a FFF7FEFF 		bl	chSysHalt
 786              	.LVL79:
 787 012e 8EE7     		b	.L80
 788              	.LVL80:
 789              	.L98:
 790              	.LBE20:
 791              	.LBE19:
 792              	.LBE22:
 793              		.loc 2 792 0
 794 0130 2846     		mov	r0, r5
ARM GAS  C:\Users\jo\AppData\Local\Temp\cco3a86y.s 			page 15


 795 0132 1299     		ldr	r1, [sp, #72]
 796 0134 4246     		mov	r2, r8
 797 0136 FFF7FEFF 		bl	ip_frag
 798              	.LVL81:
 799              		.loc 2 798 0
 800 013a 40B2     		sxtb	r0, r0
 801 013c 07B0     		add	sp, sp, #28
 802              		.cfi_remember_state
 803              		.cfi_def_cfa_offset 36
 804              		@ sp needed
 805 013e BDE8F08F 		pop	{r4, r5, r6, r7, r8, r9, r10, fp, pc}
 806              	.LVL82:
 807              	.L96:
 808              		.cfi_restore_state
 809              	.LBB23:
 810              		.loc 2 707 0
 811 0142 094A     		ldr	r2, .L99+20
 812 0144 B2F85C30 		ldrh	r3, [r2, #92]
 813 0148 0133     		adds	r3, r3, #1
 814 014a A2F85C30 		strh	r3, [r2, #92]	@ movhi
 815              		.loc 2 709 0
 816 014e FE20     		movs	r0, #254
 817 0150 D4E7     		b	.L79
 818              	.L100:
 819 0152 00BF     		.align	2
 820              	.L99:
 821 0154 34000000 		.word	.LC2
 822 0158 00000000 		.word	itm_port
 823 015c 00000000 		.word	.LC0
 824 0160 28000000 		.word	.LC1
 825 0164 00000000 		.word	.LANCHOR4
 826 0168 00000000 		.word	lwip_stats
 827 016c 64000000 		.word	.LC3
 828              	.LBE23:
 829              		.cfi_endproc
 830              	.LFE258:
 831              		.size	ip_output_if, .-ip_output_if
 832              		.section	.text.ip_output,"ax",%progbits
 833              		.align	2
 834              		.p2align 4,,15
 835              		.global	ip_output
 836              		.thumb
 837              		.thumb_func
 838              		.type	ip_output, %function
 839              	ip_output:
 840              	.LFB259:
 841              		.loc 2 820 0
 842              		.cfi_startproc
 843              		@ args = 8, pretend = 0, frame = 0
 844              		@ frame_needed = 0, uses_anonymous_args = 0
 845              	.LVL83:
 846 0000 2DE9F043 		push	{r4, r5, r6, r7, r8, r9, lr}
 847              		.cfi_def_cfa_offset 28
 848              		.cfi_offset 4, -28
 849              		.cfi_offset 5, -24
 850              		.cfi_offset 6, -20
 851              		.cfi_offset 7, -16
ARM GAS  C:\Users\jo\AppData\Local\Temp\cco3a86y.s 			page 16


 852              		.cfi_offset 8, -12
 853              		.cfi_offset 9, -8
 854              		.cfi_offset 14, -4
 855 0004 0F46     		mov	r7, r1
 856              		.loc 2 825 0
 857 0006 C189     		ldrh	r1, [r0, #14]
 858              	.LVL84:
 859              		.loc 2 820 0
 860 0008 85B0     		sub	sp, sp, #20
 861              		.cfi_def_cfa_offset 48
 862              		.loc 2 825 0
 863 000a 0129     		cmp	r1, #1
 864              		.loc 2 820 0
 865 000c 0546     		mov	r5, r0
 866 000e 9DF83090 		ldrb	r9, [sp, #48]	@ zero_extendqisi2
 867 0012 9DF83480 		ldrb	r8, [sp, #52]	@ zero_extendqisi2
 868 0016 1446     		mov	r4, r2
 869 0018 1E46     		mov	r6, r3
 870              		.loc 2 825 0
 871 001a 0BD0     		beq	.L102
 872              		.loc 2 825 0 is_stmt 0 discriminator 1
 873 001c 134B     		ldr	r3, .L110
 874              	.LVL85:
 875 001e 0093     		str	r3, [sp]
 876 0020 1348     		ldr	r0, .L110+4
 877              	.LVL86:
 878 0022 1449     		ldr	r1, .L110+8
 879 0024 144A     		ldr	r2, .L110+12
 880              	.LVL87:
 881 0026 40F23933 		movw	r3, #825
 882 002a FFF7FEFF 		bl	chprintf.constprop.1
 883              	.LVL88:
 884              	.LBB24:
 885              	.LBB25:
 886              		.loc 3 414 0 is_stmt 1 discriminator 1
 887 002e 1248     		ldr	r0, .L110+12
 888 0030 FFF7FEFF 		bl	chSysHalt
 889              	.LVL89:
 890              	.L102:
 891              	.LBE25:
 892              	.LBE24:
 893              		.loc 2 827 0
 894 0034 2046     		mov	r0, r4
 895 0036 FFF7FEFF 		bl	ip_route
 896              	.LVL90:
 897 003a 70B1     		cbz	r0, .L109
 898              		.loc 2 834 0
 899 003c 0290     		str	r0, [sp, #8]
 900 003e CDF80090 		str	r9, [sp]
 901 0042 CDF80480 		str	r8, [sp, #4]
 902 0046 2846     		mov	r0, r5
 903              	.LVL91:
 904 0048 3946     		mov	r1, r7
 905 004a 2246     		mov	r2, r4
 906 004c 3346     		mov	r3, r6
 907 004e FFF7FEFF 		bl	ip_output_if
 908              	.LVL92:
ARM GAS  C:\Users\jo\AppData\Local\Temp\cco3a86y.s 			page 17


 909              	.L104:
 910              		.loc 2 835 0
 911 0052 40B2     		sxtb	r0, r0
 912 0054 05B0     		add	sp, sp, #20
 913              		.cfi_remember_state
 914              		.cfi_def_cfa_offset 28
 915              		@ sp needed
 916 0056 BDE8F083 		pop	{r4, r5, r6, r7, r8, r9, pc}
 917              	.LVL93:
 918              	.L109:
 919              		.cfi_restore_state
 920              		.loc 2 830 0
 921 005a 084A     		ldr	r2, .L110+16
 922 005c B2F85630 		ldrh	r3, [r2, #86]
 923 0060 0133     		adds	r3, r3, #1
 924 0062 A2F85630 		strh	r3, [r2, #86]	@ movhi
 925              		.loc 2 831 0
 926 0066 FC20     		movs	r0, #252
 927              	.LVL94:
 928 0068 F3E7     		b	.L104
 929              	.L111:
 930 006a 00BF     		.align	2
 931              	.L110:
 932 006c 34000000 		.word	.LC2
 933 0070 00000000 		.word	itm_port
 934 0074 00000000 		.word	.LC0
 935 0078 28000000 		.word	.LC1
 936 007c 00000000 		.word	lwip_stats
 937              		.cfi_endproc
 938              	.LFE259:
 939              		.size	ip_output, .-ip_output
 940              		.global	current_iphdr_dest
 941              		.global	current_iphdr_src
 942              		.global	current_header
 943              		.global	current_netif
 944              		.section	.bss.current_header,"aw",%nobits
 945              		.align	2
 946              		.set	.LANCHOR3,. + 0
 947              		.type	current_header, %object
 948              		.size	current_header, 4
 949              	current_header:
 950 0000 00000000 		.space	4
 951              		.section	.bss.ip_id,"aw",%nobits
 952              		.align	1
 953              		.set	.LANCHOR4,. + 0
 954              		.type	ip_id, %object
 955              		.size	ip_id, 2
 956              	ip_id:
 957 0000 0000     		.space	2
 958              		.section	.bss.current_iphdr_src,"aw",%nobits
 959              		.align	2
 960              		.set	.LANCHOR1,. + 0
 961              		.type	current_iphdr_src, %object
 962              		.size	current_iphdr_src, 4
 963              	current_iphdr_src:
 964 0000 00000000 		.space	4
 965              		.section	.rodata.str1.4,"aMS",%progbits,1
ARM GAS  C:\Users\jo\AppData\Local\Temp\cco3a86y.s 			page 18


 966              		.align	2
 967              	.LC0:
 968 0000 41737365 		.ascii	"Assertion \"%s\" failed at line %d in %s\012\000"
 968      7274696F 
 968      6E202225 
 968      73222066 
 968      61696C65 
 969              	.LC1:
 970 0028 702D3E72 		.ascii	"p->ref == 1\000"
 970      6566203D 
 970      3D203100 
 971              	.LC2:
 972 0034 2E2E2F2E 		.ascii	"../../../os/ext/lwip-1.4.1/src/core/ipv4/ip.c\000"
 972      2E2F2E2E 
 972      2F6F732F 
 972      6578742F 
 972      6C776970 
 973 0062 0000     		.space	2
 974              	.LC3:
 975 0064 63686563 		.ascii	"check that first pbuf can hold struct ip_hdr\000"
 975      6B207468 
 975      61742066 
 975      69727374 
 975      20706275 
 976 0091 000000   		.section	.bss.current_iphdr_dest,"aw",%nobits
 977              		.align	2
 978              		.set	.LANCHOR0,. + 0
 979              		.type	current_iphdr_dest, %object
 980              		.size	current_iphdr_dest, 4
 981              	current_iphdr_dest:
 982 0000 00000000 		.space	4
 983              		.section	.bss.current_netif,"aw",%nobits
 984              		.align	2
 985              		.set	.LANCHOR2,. + 0
 986              		.type	current_netif, %object
 987              		.size	current_netif, 4
 988              	current_netif:
 989 0000 00000000 		.space	4
 990              		.text
 991              	.Letext0:
 992              		.file 4 "c:\\program files\\gnu tools arm embedded\\4.9 2014q4\\lib\\gcc\\arm-none-eabi\\4.9.3\\in
 993              		.file 5 "c:\\program files\\gnu tools arm embedded\\4.9 2014q4\\arm-none-eabi\\include\\machine\\_
 994              		.file 6 "c:\\program files\\gnu tools arm embedded\\4.9 2014q4\\arm-none-eabi\\include\\stdint.h"
 995              		.file 7 "../../../os/rt/ports/ARMCMx/compilers/GCC/chtypes.h"
 996              		.file 8 "../../../os/rt/include/chsystypes.h"
 997              		.file 9 "../../../os/rt/include/chschd.h"
 998              		.file 10 "../../../os/rt/ports/ARMCMx/chcore.h"
 999              		.file 11 "../../../os/rt/ports/ARMCMx/chcore_v7m.h"
 1000              		.file 12 "c:\\program files\\gnu tools arm embedded\\4.9 2014q4\\lib\\gcc\\arm-none-eabi\\4.9.3\\i
 1001              		.file 13 "<built-in>"
 1002              		.file 14 "../../../os/rt/include/chtm.h"
 1003              		.file 15 "../../../os/rt/include/chmtx.h"
 1004              		.file 16 "../../../os/rt/include/chstreams.h"
 1005              		.file 17 "./ITM_trace.h"
 1006              		.file 18 "../../../os/various/lwip_bindings/arch/cc.h"
 1007              		.file 19 "../../../os/ext/lwip-1.4.1/src/include/lwip/err.h"
 1008              		.file 20 "../../../os/ext/lwip-1.4.1/src/include/lwip/pbuf.h"
ARM GAS  C:\Users\jo\AppData\Local\Temp\cco3a86y.s 			page 19


 1009              		.file 21 "../../../os/ext/lwip-1.4.1/src/include/ipv4/lwip/ip_addr.h"
 1010              		.file 22 "../../../os/ext/lwip-1.4.1/src/include/lwip/netif.h"
 1011              		.file 23 "../../../os/ext/lwip-1.4.1/src/include/ipv4/lwip/ip.h"
 1012              		.file 24 "../../../os/ext/lwip-1.4.1/src/include/lwip/mem.h"
 1013              		.file 25 "../../../os/ext/lwip-1.4.1/src/include/lwip/stats.h"
 1014              		.file 26 "../../../os/ext/CMSIS/include/core_cm4.h"
 1015              		.file 27 "../../../os/ext/lwip-1.4.1/src/include/lwip/def.h"
 1016              		.file 28 "../../../os/ext/lwip-1.4.1/src/include/ipv4/lwip/inet_chksum.h"
 1017              		.file 29 "../../../os/ext/lwip-1.4.1/src/include/ipv4/lwip/ip_frag.h"
 1018              		.file 30 "../../../os/ext/lwip-1.4.1/src/include/lwip/raw.h"
 1019              		.file 31 "../../../os/ext/lwip-1.4.1/src/include/ipv4/lwip/icmp.h"
 1020              		.file 32 "../../../os/ext/lwip-1.4.1/src/include/lwip/udp.h"
 1021              		.file 33 "../../../os/ext/lwip-1.4.1/src/include/lwip/tcp_impl.h"
 1022              		.file 34 "../../../os/rt/include/chsys.h"
 1023              		.file 35 "../../../os/ext/lwip-1.4.1/src/include/lwip/memp.h"