ARM GAS  C:\Users\jo\AppData\Local\Temp\cc8gYp92.s 			page 1


   1              		.syntax unified
   2              		.cpu cortex-m4
   3              		.eabi_attribute 27, 3
   4              		.eabi_attribute 28, 1
   5              		.fpu fpv4-sp-d16
   6              		.eabi_attribute 20, 1
   7              		.eabi_attribute 21, 1
   8              		.eabi_attribute 23, 3
   9              		.eabi_attribute 24, 1
  10              		.eabi_attribute 25, 1
  11              		.eabi_attribute 26, 1
  12              		.eabi_attribute 30, 2
  13              		.eabi_attribute 34, 1
  14              		.eabi_attribute 18, 4
  15              		.thumb
  16              		.file	"ip_addr.c"
  17              		.text
  18              	.Ltext0:
  19              		.cfi_sections	.debug_frame
  20              		.section	.text.chprintf.constprop.0,"ax",%progbits
  21              		.align	2
  22              		.p2align 4,,15
  23              		.thumb
  24              		.thumb_func
  25              		.type	chprintf.constprop.0, %function
  26              	chprintf.constprop.0:
  27              	.LFB262:
  28              		.file 1 "../../../os/hal/lib/streams/chprintf.h"
  29              		.loc 1 69 0
  30              		.cfi_startproc
  31              		@ args = 4, pretend = 12, frame = 8
  32              		@ frame_needed = 0, uses_anonymous_args = 1
  33              	.LVL0:
  34 0000 0EB4     		push	{r1, r2, r3}
  35              		.cfi_def_cfa_offset 12
  36              		.cfi_offset 1, -12
  37              		.cfi_offset 2, -8
  38              		.cfi_offset 3, -4
  39 0002 00B5     		push	{lr}
  40              		.cfi_def_cfa_offset 16
  41              		.cfi_offset 14, -16
  42 0004 82B0     		sub	sp, sp, #8
  43              		.cfi_def_cfa_offset 24
  44              		.loc 1 73 0
  45 0006 04AB     		add	r3, sp, #16
  46              		.loc 1 74 0
  47 0008 1A46     		mov	r2, r3
  48 000a 0549     		ldr	r1, .L3
  49 000c 0548     		ldr	r0, .L3+4
  50              	.LVL1:
  51              		.loc 1 73 0
  52 000e 0193     		str	r3, [sp, #4]
  53              		.loc 1 74 0
  54 0010 FFF7FEFF 		bl	chvprintf
  55              	.LVL2:
  56              		.loc 1 78 0
  57 0014 02B0     		add	sp, sp, #8
ARM GAS  C:\Users\jo\AppData\Local\Temp\cc8gYp92.s 			page 2


  58              		.cfi_def_cfa_offset 16
  59              		@ sp needed
  60 0016 5DF804EB 		ldr	lr, [sp], #4
  61              		.cfi_restore 14
  62              		.cfi_def_cfa_offset 12
  63 001a 03B0     		add	sp, sp, #12
  64              		.cfi_restore 3
  65              		.cfi_restore 2
  66              		.cfi_restore 1
  67              		.cfi_def_cfa_offset 0
  68 001c 7047     		bx	lr
  69              	.L4:
  70 001e 00BF     		.align	2
  71              	.L3:
  72 0020 00000000 		.word	.LC0
  73 0024 00000000 		.word	itm_port
  74              		.cfi_endproc
  75              	.LFE262:
  76              		.size	chprintf.constprop.0, .-chprintf.constprop.0
  77 0028 AFF30080 		.section	.text.ip4_addr_isbroadcast,"ax",%progbits
  77      AFF30080 
  78              		.align	2
  79              		.p2align 4,,15
  80              		.global	ip4_addr_isbroadcast
  81              		.thumb
  82              		.thumb_func
  83              		.type	ip4_addr_isbroadcast, %function
  84              	ip4_addr_isbroadcast:
  85              	.LFB256:
  86              		.file 2 "../../../os/ext/lwip-1.4.1/src/core/ipv4/ip_addr.c"
  87              		.loc 2 56 0
  88              		.cfi_startproc
  89              		@ args = 0, pretend = 0, frame = 0
  90              		@ frame_needed = 0, uses_anonymous_args = 0
  91              		@ link register save eliminated.
  92              	.LVL3:
  93              		.loc 2 61 0
  94 0000 431E     		subs	r3, r0, #1
  95 0002 0333     		adds	r3, r3, #3
  96 0004 18D8     		bhi	.L7
  97              		.loc 2 65 0
  98 0006 91F82920 		ldrb	r2, [r1, #41]	@ zero_extendqisi2
  99 000a 02F00202 		and	r2, r2, #2
 100 000e 02F0FF03 		and	r3, r2, #255
 101 0012 62B1     		cbz	r2, .L6
 102              		.loc 2 70 0
 103 0014 4A68     		ldr	r2, [r1, #4]
 104 0016 8242     		cmp	r2, r0
 105 0018 0BD0     		beq	.L9
 106              		.loc 2 73 0
 107 001a 8B68     		ldr	r3, [r1, #8]
 108 001c 4240     		eors	r2, r2, r0
 109 001e 1A42     		tst	r2, r3
 110 0020 07D1     		bne	.L9
 111              		.loc 2 75 0
 112 0022 DB43     		mvns	r3, r3
 113 0024 1840     		ands	r0, r0, r3
ARM GAS  C:\Users\jo\AppData\Local\Temp\cc8gYp92.s 			page 3


 114              	.LVL4:
 115              		.loc 2 63 0
 116 0026 1B1A     		subs	r3, r3, r0
 117 0028 B3FA83F3 		clz	r3, r3
 118 002c 5B09     		lsrs	r3, r3, #5
 119              	.L6:
 120              		.loc 2 82 0
 121 002e 1846     		mov	r0, r3
 122 0030 7047     		bx	lr
 123              	.LVL5:
 124              	.L9:
 125              		.loc 2 80 0
 126 0032 0023     		movs	r3, #0
 127              		.loc 2 82 0
 128 0034 1846     		mov	r0, r3
 129              	.LVL6:
 130 0036 7047     		bx	lr
 131              	.LVL7:
 132              	.L7:
 133              		.loc 2 63 0
 134 0038 0123     		movs	r3, #1
 135              		.loc 2 82 0
 136 003a 1846     		mov	r0, r3
 137              	.LVL8:
 138 003c 7047     		bx	lr
 139              		.cfi_endproc
 140              	.LFE256:
 141              		.size	ip4_addr_isbroadcast, .-ip4_addr_isbroadcast
 142 003e 00BF     		.section	.text.ip4_addr_netmask_valid,"ax",%progbits
 143              		.align	2
 144              		.p2align 4,,15
 145              		.global	ip4_addr_netmask_valid
 146              		.thumb
 147              		.thumb_func
 148              		.type	ip4_addr_netmask_valid, %function
 149              	ip4_addr_netmask_valid:
 150              	.LFB257:
 151              		.loc 2 91 0
 152              		.cfi_startproc
 153              		@ args = 0, pretend = 0, frame = 0
 154              		@ frame_needed = 0, uses_anonymous_args = 0
 155              	.LVL9:
 156 0000 08B5     		push	{r3, lr}
 157              		.cfi_def_cfa_offset 8
 158              		.cfi_offset 3, -8
 159              		.cfi_offset 14, -4
 160              		.loc 2 93 0
 161 0002 FFF7FEFF 		bl	lwip_htonl
 162              	.LVL10:
 163 0006 2022     		movs	r2, #32
 164              		.loc 2 96 0
 165 0008 4FF00043 		mov	r3, #-2147483648
 166 000c 03E0     		b	.L16
 167              	.LVL11:
 168              	.L26:
 169              		.loc 2 96 0 is_stmt 0 discriminator 2
 170 000e 013A     		subs	r2, r2, #1
ARM GAS  C:\Users\jo\AppData\Local\Temp\cc8gYp92.s 			page 4


 171 0010 4FEA5303 		lsr	r3, r3, #1
 172              	.LVL12:
 173 0014 07D0     		beq	.L25
 174              	.LVL13:
 175              	.L16:
 176              		.loc 2 97 0 is_stmt 1
 177 0016 0342     		tst	r3, r0
 178 0018 F9D1     		bne	.L26
 179              		.loc 2 102 0
 180 001a 13B9     		cbnz	r3, .L18
 181 001c 03E0     		b	.L25
 182              	.L19:
 183              		.loc 2 103 0
 184 001e 1842     		tst	r0, r3
 185 0020 03D1     		bne	.L21
 186              	.LVL14:
 187              	.L18:
 188              		.loc 2 102 0
 189 0022 5B08     		lsrs	r3, r3, #1
 190              	.LVL15:
 191 0024 FBD1     		bne	.L19
 192              	.LVL16:
 193              	.L25:
 194              		.loc 2 109 0
 195 0026 0120     		movs	r0, #1
 196              	.LVL17:
 197              		.loc 2 110 0
 198 0028 08BD     		pop	{r3, pc}
 199              	.LVL18:
 200              	.L21:
 201              		.loc 2 105 0
 202 002a 0020     		movs	r0, #0
 203              	.LVL19:
 204 002c 08BD     		pop	{r3, pc}
 205              		.cfi_endproc
 206              	.LFE257:
 207              		.size	ip4_addr_netmask_valid, .-ip4_addr_netmask_valid
 208 002e 00BF     		.section	.text.ipaddr_aton,"ax",%progbits
 209              		.align	2
 210              		.p2align 4,,15
 211              		.global	ipaddr_aton
 212              		.thumb
 213              		.thumb_func
 214              		.type	ipaddr_aton, %function
 215              	ipaddr_aton:
 216              	.LFB259:
 217              		.loc 2 153 0
 218              		.cfi_startproc
 219              		@ args = 0, pretend = 0, frame = 16
 220              		@ frame_needed = 0, uses_anonymous_args = 0
 221              	.LVL20:
 222 0000 2DE9F047 		push	{r4, r5, r6, r7, r8, r9, r10, lr}
 223              		.cfi_def_cfa_offset 32
 224              		.cfi_offset 4, -32
 225              		.cfi_offset 5, -28
 226              		.cfi_offset 6, -24
 227              		.cfi_offset 7, -20
ARM GAS  C:\Users\jo\AppData\Local\Temp\cc8gYp92.s 			page 5


 228              		.cfi_offset 8, -16
 229              		.cfi_offset 9, -12
 230              		.cfi_offset 10, -8
 231              		.cfi_offset 14, -4
 232              		.loc 2 160 0
 233 0004 0378     		ldrb	r3, [r0]	@ zero_extendqisi2
 234              		.loc 2 167 0
 235 0006 A3F13002 		sub	r2, r3, #48
 236              		.loc 2 153 0
 237 000a 0E46     		mov	r6, r1
 238              		.loc 2 167 0
 239 000c D1B2     		uxtb	r1, r2
 240              	.LVL21:
 241 000e 0929     		cmp	r1, #9
 242              		.loc 2 153 0
 243 0010 86B0     		sub	sp, sp, #24
 244              		.cfi_def_cfa_offset 56
 245              	.LVL22:
 246              		.loc 2 167 0
 247 0012 3ED8     		bhi	.L38
 248 0014 0DF10809 		add	r9, sp, #8
 249              	.LVL23:
 250 0018 C846     		mov	r8, r9
 251              		.loc 2 196 0
 252 001a 0DF1140A 		add	r10, sp, #20
 253              	.LVL24:
 254              	.L39:
 255              		.loc 2 171 0
 256 001e 302B     		cmp	r3, #48
 257 0020 3CD0     		beq	.L56
 258              		.loc 2 170 0
 259 0022 0A27     		movs	r7, #10
 260              	.LVL25:
 261              	.L30:
 262 0024 0130     		adds	r0, r0, #1
 263              	.LVL26:
 264              		.loc 2 174 0
 265 0026 0024     		movs	r4, #0
 266 0028 05E0     		b	.L32
 267              	.LVL27:
 268              	.L57:
 269              		.loc 2 182 0
 270 002a 0378     		ldrb	r3, [r0]	@ zero_extendqisi2
 271              	.LVL28:
 272              		.loc 2 181 0
 273 002c AEF13004 		sub	r4, lr, #48
 274              	.LVL29:
 275              	.L34:
 276 0030 0130     		adds	r0, r0, #1
 277              	.LVL30:
 278 0032 A3F13002 		sub	r2, r3, #48
 279              	.LVL31:
 280              	.L32:
 281              		.loc 2 180 0
 282 0036 5FFA82FE 		uxtb	lr, r2
 283              		.loc 2 183 0
 284 003a 23F02001 		bic	r1, r3, #32
ARM GAS  C:\Users\jo\AppData\Local\Temp\cc8gYp92.s 			page 6


 285 003e 4139     		subs	r1, r1, #65
 286 0040 A3F16102 		sub	r2, r3, #97
 287              		.loc 2 180 0
 288 0044 BEF1090F 		cmp	lr, #9
 289              		.loc 2 183 0
 290 0048 C9B2     		uxtb	r1, r1
 291              		.loc 2 184 0
 292 004a 03F10A05 		add	r5, r3, #10
 293 004e 00F1FF3C 		add	ip, r0, #-1
 294              	.LVL32:
 295              		.loc 2 181 0
 296 0052 07FB043E 		mla	lr, r7, r4, r3
 297              		.loc 2 183 0
 298 0056 D2B2     		uxtb	r2, r2
 299              		.loc 2 180 0
 300 0058 E7D9     		bls	.L57
 301              		.loc 2 183 0
 302 005a 102F     		cmp	r7, #16
 303 005c 0AD1     		bne	.L35
 304              		.loc 2 183 0 is_stmt 0 discriminator 2
 305 005e 0529     		cmp	r1, #5
 306 0060 08D8     		bhi	.L35
 307              		.loc 2 184 0 is_stmt 1
 308 0062 1A2A     		cmp	r2, #26
 309 0064 34BF     		ite	cc
 310 0066 6123     		movcc	r3, #97
 311              	.LVL33:
 312 0068 4123     		movcs	r3, #65
 313 006a ED1A     		subs	r5, r5, r3
 314              	.LVL34:
 315 006c 45EA0414 		orr	r4, r5, r4, lsl #4
 316              	.LVL35:
 317              		.loc 2 185 0
 318 0070 0378     		ldrb	r3, [r0]	@ zero_extendqisi2
 319              	.LVL36:
 320 0072 DDE7     		b	.L34
 321              	.LVL37:
 322              	.L35:
 323              		.loc 2 189 0
 324 0074 2E2B     		cmp	r3, #46
 325 0076 21D1     		bne	.L37
 326              		.loc 2 196 0
 327 0078 D045     		cmp	r8, r10
 328 007a 0AD0     		beq	.L38
 329              		.loc 2 200 0
 330 007c 9CF80130 		ldrb	r3, [ip, #1]	@ zero_extendqisi2
 331              	.LVL38:
 332              		.loc 2 199 0
 333 0080 48F8044B 		str	r4, [r8], #4
 334              	.LVL39:
 335              		.loc 2 167 0
 336 0084 A3F13002 		sub	r2, r3, #48
 337 0088 D1B2     		uxtb	r1, r2
 338 008a 0929     		cmp	r1, #9
 339              		.loc 2 200 0
 340 008c 0CF10100 		add	r0, ip, #1
 341              	.LVL40:
ARM GAS  C:\Users\jo\AppData\Local\Temp\cc8gYp92.s 			page 7


 342              		.loc 2 167 0
 343 0090 C5D9     		bls	.L39
 344              	.LVL41:
 345              	.L38:
 346              		.loc 2 168 0
 347 0092 0023     		movs	r3, #0
 348              	.L29:
 349              		.loc 2 250 0
 350 0094 1846     		mov	r0, r3
 351 0096 06B0     		add	sp, sp, #24
 352              		.cfi_remember_state
 353              		.cfi_def_cfa_offset 32
 354              		@ sp needed
 355 0098 BDE8F087 		pop	{r4, r5, r6, r7, r8, r9, r10, pc}
 356              	.LVL42:
 357              	.L56:
 358              		.cfi_restore_state
 359              		.loc 2 172 0
 360 009c 4378     		ldrb	r3, [r0, #1]	@ zero_extendqisi2
 361              	.LVL43:
 362              		.loc 2 173 0
 363 009e 03F0DF02 		and	r2, r3, #223
 364 00a2 582A     		cmp	r2, #88
 365 00a4 04D0     		beq	.L31
 366              		.loc 2 172 0
 367 00a6 0130     		adds	r0, r0, #1
 368              	.LVL44:
 369              		.loc 2 177 0
 370 00a8 0827     		movs	r7, #8
 371 00aa A3F13002 		sub	r2, r3, #48
 372 00ae B9E7     		b	.L30
 373              	.LVL45:
 374              	.L31:
 375              		.loc 2 175 0
 376 00b0 8378     		ldrb	r3, [r0, #2]	@ zero_extendqisi2
 377              	.LVL46:
 378              		.loc 2 174 0
 379 00b2 1027     		movs	r7, #16
 380              		.loc 2 175 0
 381 00b4 0230     		adds	r0, r0, #2
 382              	.LVL47:
 383 00b6 A3F13002 		sub	r2, r3, #48
 384 00ba B3E7     		b	.L30
 385              	.LVL48:
 386              	.L37:
 387              		.loc 2 207 0
 388 00bc 13F0DF0F 		tst	r3, #223
 389 00c0 2546     		mov	r5, r4
 390 00c2 02D0     		beq	.L40
 391              		.loc 2 207 0 is_stmt 0 discriminator 5
 392 00c4 093B     		subs	r3, r3, #9
 393              	.LVL49:
 394 00c6 042B     		cmp	r3, #4
 395 00c8 E3D8     		bhi	.L38
 396              	.LVL50:
 397              	.L40:
 398              		.loc 2 214 0 is_stmt 1
ARM GAS  C:\Users\jo\AppData\Local\Temp\cc8gYp92.s 			page 8


 399 00ca C9EB0803 		rsb	r3, r9, r8
 400 00ce 9B10     		asrs	r3, r3, #2
 401 00d0 0133     		adds	r3, r3, #1
 402 00d2 042B     		cmp	r3, #4
 403 00d4 2FD8     		bhi	.L41
 404 00d6 01A2     		adr	r2, .L42
 405 00d8 52F823F0 		ldr	pc, [r2, r3, lsl #2]
 406              		.p2align 2
 407              	.L42:
 408 00dc 95000000 		.word	.L29+1
 409 00e0 03010000 		.word	.L43+1
 410 00e4 29010000 		.word	.L44+1
 411 00e8 F1000000 		.word	.L45+1
 412 00ec 11010000 		.word	.L46+1
 413              		.p2align 1
 414              	.L45:
 415              		.loc 2 230 0
 416 00f0 B4F5803F 		cmp	r4, #65536
 417 00f4 CDD2     		bcs	.L38
 418              		.loc 2 233 0
 419 00f6 029B     		ldr	r3, [sp, #8]
 420 00f8 039D     		ldr	r5, [sp, #12]
 421 00fa 1B06     		lsls	r3, r3, #24
 422 00fc 43EA0545 		orr	r5, r3, r5, lsl #16
 423 0100 2543     		orrs	r5, r5, r4
 424              	.LVL51:
 425              	.L43:
 426              		.loc 2 246 0
 427 0102 26B3     		cbz	r6, .L51
 428              		.loc 2 247 0
 429 0104 2846     		mov	r0, r5
 430 0106 FFF7FEFF 		bl	lwip_htonl
 431              	.LVL52:
 432              		.loc 2 249 0
 433 010a 0123     		movs	r3, #1
 434              		.loc 2 247 0
 435 010c 3060     		str	r0, [r6]
 436 010e C1E7     		b	.L29
 437              	.LVL53:
 438              	.L46:
 439              		.loc 2 237 0
 440 0110 FF2C     		cmp	r4, #255
 441 0112 BED8     		bhi	.L38
 442              		.loc 2 240 0
 443 0114 029B     		ldr	r3, [sp, #8]
 444 0116 039A     		ldr	r2, [sp, #12]
 445 0118 049D     		ldr	r5, [sp, #16]
 446 011a 1B06     		lsls	r3, r3, #24
 447 011c 43EA0243 		orr	r3, r3, r2, lsl #16
 448 0120 43EA0525 		orr	r5, r3, r5, lsl #8
 449 0124 2543     		orrs	r5, r5, r4
 450              	.LVL54:
 451              		.loc 2 241 0
 452 0126 ECE7     		b	.L43
 453              	.LVL55:
 454              	.L44:
 455              		.loc 2 223 0
ARM GAS  C:\Users\jo\AppData\Local\Temp\cc8gYp92.s 			page 9


 456 0128 B4F1807F 		cmp	r4, #16777216
 457 012c B1D2     		bcs	.L38
 458              		.loc 2 226 0
 459 012e 029D     		ldr	r5, [sp, #8]
 460 0130 44EA0565 		orr	r5, r4, r5, lsl #24
 461              	.LVL56:
 462              		.loc 2 227 0
 463 0134 E5E7     		b	.L43
 464              	.LVL57:
 465              	.L41:
 466              		.loc 2 243 0 discriminator 1
 467 0136 074B     		ldr	r3, .L58
 468 0138 0093     		str	r3, [sp]
 469 013a 0749     		ldr	r1, .L58+4
 470 013c 074A     		ldr	r2, .L58+8
 471 013e 0848     		ldr	r0, .L58+12
 472 0140 F323     		movs	r3, #243
 473 0142 FFF7FEFF 		bl	chprintf.constprop.0
 474              	.LVL58:
 475              	.LBB4:
 476              	.LBB5:
 477              		.file 3 "../../../os/hal/osal/rt/osal.h"
 478              		.loc 3 414 0 discriminator 1
 479 0146 0548     		ldr	r0, .L58+8
 480 0148 FFF7FEFF 		bl	chSysHalt
 481              	.LVL59:
 482 014c D9E7     		b	.L43
 483              	.LVL60:
 484              	.L51:
 485              	.LBE5:
 486              	.LBE4:
 487              		.loc 2 249 0
 488 014e 0123     		movs	r3, #1
 489 0150 A0E7     		b	.L29
 490              	.L59:
 491 0152 00BF     		.align	2
 492              	.L58:
 493 0154 34000000 		.word	.LC2
 494 0158 00000000 		.word	.LC0
 495 015c 28000000 		.word	.LC1
 496 0160 00000000 		.word	itm_port
 497              		.cfi_endproc
 498              	.LFE259:
 499              		.size	ipaddr_aton, .-ipaddr_aton
 500 0164 AFF30080 		.section	.text.ipaddr_addr,"ax",%progbits
 500      AFF30080 
 500      AFF30080 
 501              		.align	2
 502              		.p2align 4,,15
 503              		.global	ipaddr_addr
 504              		.thumb
 505              		.thumb_func
 506              		.type	ipaddr_addr, %function
 507              	ipaddr_addr:
 508              	.LFB258:
 509              		.loc 2 131 0
 510              		.cfi_startproc
ARM GAS  C:\Users\jo\AppData\Local\Temp\cc8gYp92.s 			page 10


 511              		@ args = 0, pretend = 0, frame = 8
 512              		@ frame_needed = 0, uses_anonymous_args = 0
 513              	.LVL61:
 514 0000 00B5     		push	{lr}
 515              		.cfi_def_cfa_offset 4
 516              		.cfi_offset 14, -4
 517 0002 83B0     		sub	sp, sp, #12
 518              		.cfi_def_cfa_offset 16
 519              		.loc 2 134 0
 520 0004 01A9     		add	r1, sp, #4
 521 0006 FFF7FEFF 		bl	ipaddr_aton
 522              	.LVL62:
 523 000a 20B9     		cbnz	r0, .L64
 524              		.loc 2 137 0
 525 000c 4FF0FF30 		mov	r0, #-1
 526              		.loc 2 138 0
 527 0010 03B0     		add	sp, sp, #12
 528              		.cfi_remember_state
 529              		.cfi_def_cfa_offset 4
 530              		@ sp needed
 531 0012 5DF804FB 		ldr	pc, [sp], #4
 532              	.L64:
 533              		.cfi_restore_state
 534              		.loc 2 135 0
 535 0016 0198     		ldr	r0, [sp, #4]
 536              		.loc 2 138 0
 537 0018 03B0     		add	sp, sp, #12
 538              		.cfi_def_cfa_offset 4
 539              		@ sp needed
 540 001a 5DF804FB 		ldr	pc, [sp], #4
 541              		.cfi_endproc
 542              	.LFE258:
 543              		.size	ipaddr_addr, .-ipaddr_addr
 544 001e 00BF     		.section	.text.ipaddr_ntoa_r,"ax",%progbits
 545              		.align	2
 546              		.p2align 4,,15
 547              		.global	ipaddr_ntoa_r
 548              		.thumb
 549              		.thumb_func
 550              		.type	ipaddr_ntoa_r, %function
 551              	ipaddr_ntoa_r:
 552              	.LFB261:
 553              		.loc 2 277 0
 554              		.cfi_startproc
 555              		@ args = 0, pretend = 0, frame = 8
 556              		@ frame_needed = 0, uses_anonymous_args = 0
 557              	.LVL63:
 558 0000 2DE9F047 		push	{r4, r5, r6, r7, r8, r9, r10, lr}
 559              		.cfi_def_cfa_offset 32
 560              		.cfi_offset 4, -32
 561              		.cfi_offset 5, -28
 562              		.cfi_offset 6, -24
 563              		.cfi_offset 7, -20
 564              		.cfi_offset 8, -16
 565              		.cfi_offset 9, -12
 566              		.cfi_offset 10, -8
 567              		.cfi_offset 14, -4
ARM GAS  C:\Users\jo\AppData\Local\Temp\cc8gYp92.s 			page 11


 568 0004 82B0     		sub	sp, sp, #8
 569              		.cfi_def_cfa_offset 40
 570              		.loc 2 287 0
 571 0006 0DF1080E 		add	lr, sp, #8
 572 000a 0368     		ldr	r3, [r0]
 573 000c 4EF8043D 		str	r3, [lr, #-4]!
 574              	.LVL64:
 575              		.loc 2 294 0
 576 0010 2A48     		ldr	r0, .L78
 577              	.LVL65:
 578              		.loc 2 289 0
 579 0012 0F46     		mov	r7, r1
 580 0014 0DF10808 		add	r8, sp, #8
 581              		.loc 2 285 0
 582 0018 4FF00009 		mov	r9, #0
 583              		.loc 2 307 0
 584 001c 4FF02E0C 		mov	ip, #46
 585              	.LVL66:
 586              	.L72:
 587 0020 9EF800A0 		ldrb	r10, [lr]	@ zero_extendqisi2
 588              		.loc 2 285 0
 589 0024 0024     		movs	r4, #0
 590 0026 00E0     		b	.L66
 591              	.LVL67:
 592              	.L73:
 593              		.loc 2 296 0
 594 0028 3446     		mov	r4, r6
 595              	.LVL68:
 596              	.L66:
 597              		.loc 2 294 0 discriminator 1
 598 002a A0FB0A35 		umull	r3, r5, r0, r10
 599 002e ED08     		lsrs	r5, r5, #3
 600 0030 05EB8503 		add	r3, r5, r5, lsl #2
 601 0034 AAEB4303 		sub	r3, r10, r3, lsl #1
 602              	.LVL69:
 603              		.loc 2 296 0 discriminator 1
 604 0038 0DF1080A 		add	r10, sp, #8
 605 003c A244     		add	r10, r10, r4
 606 003e 3033     		adds	r3, r3, #48
 607              	.LVL70:
 608 0040 03F0FF03 		and	r3, r3, #255
 609              	.LVL71:
 610 0044 661C     		adds	r6, r4, #1
 611 0046 0AF8083C 		strb	r3, [r10, #-8]
 612 004a F6B2     		uxtb	r6, r6
 613              	.LVL72:
 614              		.loc 2 297 0 discriminator 1
 615 004c 05F0FF0A 		and	r10, r5, #255
 616 0050 002D     		cmp	r5, #0
 617 0052 E9D1     		bne	.L73
 618 0054 0EF801AB 		strb	r10, [lr], #1
 619              	.LVL73:
 620              		.loc 2 298 0
 621 0058 6EB3     		cbz	r6, .L74
 622              		.loc 2 299 0
 623 005a 4A45     		cmp	r2, r9
 624 005c 09F10105 		add	r5, r9, #1
ARM GAS  C:\Users\jo\AppData\Local\Temp\cc8gYp92.s 			page 12


 625              	.LVL74:
 626 0060 25DD     		ble	.L68
 627 0062 013C     		subs	r4, r4, #1
 628              	.LVL75:
 629 0064 C9EB0209 		rsb	r9, r9, r2
 630 0068 E4B2     		uxtb	r4, r4
 631 006a B944     		add	r9, r9, r7
 632 006c 06E0     		b	.L69
 633              	.L71:
 634 006e 4F45     		cmp	r7, r9
 635 0070 05F10105 		add	r5, r5, #1
 636              	.LVL76:
 637 0074 1BD0     		beq	.L68
 638 0076 14F8083C 		ldrb	r3, [r4, #-8]	@ zero_extendqisi2
 639 007a 3446     		mov	r4, r6
 640              	.L69:
 641              	.LVL77:
 642 007c 661E     		subs	r6, r4, #1
 643              		.loc 2 302 0
 644 007e 07F8013B 		strb	r3, [r7], #1
 645              	.LVL78:
 646              		.loc 2 298 0
 647 0082 FF2C     		cmp	r4, #255
 648 0084 02AB     		add	r3, sp, #8
 649 0086 F6B2     		uxtb	r6, r6
 650 0088 1C44     		add	r4, r4, r3
 651              	.LVL79:
 652 008a F0D1     		bne	.L71
 653              	.L67:
 654              		.loc 2 304 0
 655 008c AA42     		cmp	r2, r5
 656 008e 05F10109 		add	r9, r5, #1
 657              	.LVL80:
 658 0092 0CDD     		ble	.L68
 659              		.loc 2 291 0 discriminator 2
 660 0094 C645     		cmp	lr, r8
 661              		.loc 2 307 0 discriminator 2
 662 0096 87F800C0 		strb	ip, [r7]
 663 009a 07F10107 		add	r7, r7, #1
 664              	.LVL81:
 665              		.loc 2 291 0 discriminator 2
 666 009e BFD1     		bne	.L72
 667              	.LVL82:
 668              		.loc 2 310 0
 669 00a0 0023     		movs	r3, #0
 670              		.loc 2 311 0
 671 00a2 0846     		mov	r0, r1
 672              		.loc 2 310 0
 673 00a4 07F8013C 		strb	r3, [r7, #-1]
 674              		.loc 2 312 0
 675 00a8 02B0     		add	sp, sp, #8
 676              		.cfi_remember_state
 677              		.cfi_def_cfa_offset 32
 678              		@ sp needed
 679 00aa BDE8F087 		pop	{r4, r5, r6, r7, r8, r9, r10, pc}
 680              	.LVL83:
 681              	.L68:
ARM GAS  C:\Users\jo\AppData\Local\Temp\cc8gYp92.s 			page 13


 682              		.cfi_restore_state
 683              		.loc 2 300 0
 684 00ae 0020     		movs	r0, #0
 685              		.loc 2 312 0
 686 00b0 02B0     		add	sp, sp, #8
 687              		.cfi_remember_state
 688              		.cfi_def_cfa_offset 32
 689              		@ sp needed
 690 00b2 BDE8F087 		pop	{r4, r5, r6, r7, r8, r9, r10, pc}
 691              	.LVL84:
 692              	.L74:
 693              		.cfi_restore_state
 694              		.loc 2 298 0
 695 00b6 4D46     		mov	r5, r9
 696 00b8 E8E7     		b	.L67
 697              	.L79:
 698 00ba 00BF     		.align	2
 699              	.L78:
 700 00bc CDCCCCCC 		.word	-858993459
 701              		.cfi_endproc
 702              	.LFE261:
 703              		.size	ipaddr_ntoa_r, .-ipaddr_ntoa_r
 704              		.section	.text.ipaddr_ntoa,"ax",%progbits
 705              		.align	2
 706              		.p2align 4,,15
 707              		.global	ipaddr_ntoa
 708              		.thumb
 709              		.thumb_func
 710              		.type	ipaddr_ntoa, %function
 711              	ipaddr_ntoa:
 712              	.LFB260:
 713              		.loc 2 262 0
 714              		.cfi_startproc
 715              		@ args = 0, pretend = 0, frame = 0
 716              		@ frame_needed = 0, uses_anonymous_args = 0
 717              		@ link register save eliminated.
 718              	.LVL85:
 719              		.loc 2 264 0
 720 0000 0149     		ldr	r1, .L81
 721 0002 1022     		movs	r2, #16
 722 0004 FFF7FEBF 		b	ipaddr_ntoa_r
 723              	.LVL86:
 724              	.L82:
 725              		.align	2
 726              	.L81:
 727 0008 00000000 		.word	.LANCHOR0
 728              		.cfi_endproc
 729              	.LFE260:
 730              		.size	ipaddr_ntoa, .-ipaddr_ntoa
 731              		.global	ip_addr_broadcast
 732              		.global	ip_addr_any
 733 000c AFF30080 		.section	.bss.str.8433,"aw",%nobits
 734              		.align	2
 735              		.set	.LANCHOR0,. + 0
 736              		.type	str.8433, %object
 737              		.size	str.8433, 16
 738              	str.8433:
ARM GAS  C:\Users\jo\AppData\Local\Temp\cc8gYp92.s 			page 14


 739 0000 00000000 		.space	16
 739      00000000 
 739      00000000 
 739      00000000 
 740              		.section	.rodata.ip_addr_broadcast,"a",%progbits
 741              		.align	2
 742              		.type	ip_addr_broadcast, %object
 743              		.size	ip_addr_broadcast, 4
 744              	ip_addr_broadcast:
 745 0000 FFFFFFFF 		.word	-1
 746              		.section	.rodata.str1.4,"aMS",%progbits,1
 747              		.align	2
 748              	.LC0:
 749 0000 41737365 		.ascii	"Assertion \"%s\" failed at line %d in %s\012\000"
 749      7274696F 
 749      6E202225 
 749      73222066 
 749      61696C65 
 750              	.LC1:
 751 0028 756E6861 		.ascii	"unhandled\000"
 751      6E646C65 
 751      6400
 752 0032 0000     		.space	2
 753              	.LC2:
 754 0034 2E2E2F2E 		.ascii	"../../../os/ext/lwip-1.4.1/src/core/ipv4/ip_addr.c\000"
 754      2E2F2E2E 
 754      2F6F732F 
 754      6578742F 
 754      6C776970 
 755 0067 00       		.section	.rodata.ip_addr_any,"a",%progbits
 756              		.align	2
 757              		.type	ip_addr_any, %object
 758              		.size	ip_addr_any, 4
 759              	ip_addr_any:
 760 0000 00000000 		.space	4
 761              		.text
 762              	.Letext0:
 763              		.file 4 "c:\\program files\\gnu tools arm embedded\\4.9 2014q4\\lib\\gcc\\arm-none-eabi\\4.9.3\\in
 764              		.file 5 "c:\\program files\\gnu tools arm embedded\\4.9 2014q4\\arm-none-eabi\\include\\machine\\_
 765              		.file 6 "c:\\program files\\gnu tools arm embedded\\4.9 2014q4\\arm-none-eabi\\include\\stdint.h"
 766              		.file 7 "../../../os/rt/ports/ARMCMx/compilers/GCC/chtypes.h"
 767              		.file 8 "../../../os/rt/include/chsystypes.h"
 768              		.file 9 "../../../os/rt/include/chschd.h"
 769              		.file 10 "../../../os/rt/ports/ARMCMx/chcore.h"
 770              		.file 11 "../../../os/rt/ports/ARMCMx/chcore_v7m.h"
 771              		.file 12 "c:\\program files\\gnu tools arm embedded\\4.9 2014q4\\lib\\gcc\\arm-none-eabi\\4.9.3\\i
 772              		.file 13 "<built-in>"
 773              		.file 14 "../../../os/rt/include/chtm.h"
 774              		.file 15 "../../../os/rt/include/chmtx.h"
 775              		.file 16 "../../../os/rt/include/chstreams.h"
 776              		.file 17 "./ITM_trace.h"
 777              		.file 18 "../../../os/various/lwip_bindings/arch/cc.h"
 778              		.file 19 "../../../os/ext/lwip-1.4.1/src/include/ipv4/lwip/ip_addr.h"
 779              		.file 20 "../../../os/ext/lwip-1.4.1/src/include/lwip/err.h"
 780              		.file 21 "../../../os/ext/lwip-1.4.1/src/include/lwip/pbuf.h"
 781              		.file 22 "../../../os/ext/lwip-1.4.1/src/include/lwip/netif.h"
 782              		.file 23 "../../../os/ext/CMSIS/include/core_cm4.h"
ARM GAS  C:\Users\jo\AppData\Local\Temp\cc8gYp92.s 			page 15


 783              		.file 24 "../../../os/ext/lwip-1.4.1/src/include/lwip/def.h"
 784              		.file 25 "../../../os/rt/include/chsys.h"