ARM GAS  C:\Users\jo\AppData\Local\Temp\cc8gYp92.s 			page 1


   1              		.syntax unified
   2              		.cpu cortex-m4
   3              		.eabi_attribute 27, 3
   4              		.eabi_attribute 28, 1
   5              		.fpu fpv4-sp-d16
   6              		.eabi_attribute 20, 1
   7              		.eabi_attribute 21, 1
   8              		.eabi_attribute 23, 3
   9              		.eabi_attribute 24, 1
  10              		.eabi_attribute 25, 1
  11              		.eabi_attribute 26, 1
  12              		.eabi_attribute 30, 2
  13              		.eabi_attribute 34, 1
  14              		.eabi_attribute 18, 4
  15              		.thumb
  16              		.file	"ip_addr.c"
  17              		.text
  18              	.Ltext0:
  19              		.cfi_sections	.debug_frame
  20              		.section	.text.chprintf.constprop.0,"ax",%progbits
  21              		.align	2
  22              		.p2align 4,,15
  23              		.thumb
  24              		.thumb_func
  25              		.type	chprintf.constprop.0, %function
  26              	chprintf.constprop.0:
  27              	.LFB262:
  28              		.file 1 "../../../os/hal/lib/streams/chprintf.h"
  29              		.loc 1 69 0
  30              		.cfi_startproc
  31              		@ args = 4, pretend = 12, frame = 8
  32              		@ frame_needed = 0, uses_anonymous_args = 1
  33              	.LVL0:
  34 0000 0EB4     		push	{r1, r2, r3}
  35              		.cfi_def_cfa_offset 12
  36              		.cfi_offset 1, -12
  37              		.cfi_offset 2, -8
  38              		.cfi_offset 3, -4
  39 0002 00B5     		push	{lr}
  40              		.cfi_def_cfa_offset 16
  41              		.cfi_offset 14, -16
  42 0004 82B0     		sub	sp, sp, #8
  43              		.cfi_def_cfa_offset 24
  44              		.loc 1 73 0
  45 0006 04AB     		add	r3, sp, #16
  46              		.loc 1 74 0
  47 0008 1A46     		mov	r2, r3
  48 000a 0549     		ldr	r1, .L3
  49 000c 0548     		ldr	r0, .L3+4
  50              	.LVL1:
  51              		.loc 1 73 0
  52 000e 0193     		str	r3, [sp, #4]
  53              		.loc 1 74 0
  54 0010 FFF7FEFF 		bl	chvprintf
  55              	.LVL2:
  56              		.loc 1 78 0
  57 0014 02B0     		add	sp, sp, #8
ARM GAS  C:\Users\jo\AppData\Local\Temp\cc8gYp92.s 			page 2


  58              		.cfi_def_cfa_offset 16
  59              		@ sp needed
  60 0016 5DF804EB 		ldr	lr, [sp], #4
  61              		.cfi_restore 14
  62              		.cfi_def_cfa_offset 12
  63 001a 03B0     		add	sp, sp, #12
  64              		.cfi_restore 3
  65              		.cfi_restore 2
  66              		.cfi_restore 1
  67              		.cfi_def_cfa_offset 0
  68 001c 7047     		bx	lr
  69              	.L4:
  70 001e 00BF     		.align	2
  71              	.L3:
  72 0020 00000000 		.word	.LC0
  73 0024 00000000 		.word	itm_port
  74              		.cfi_endproc
  75              	.LFE262:
  76              		.size	chprintf.constprop.0, .-chprintf.constprop.0
  77 0028 AFF30080 		.section	.text.ip4_addr_isbroadcast,"ax",%progbits
  77      AFF30080 
  78              		.align	2
  79              		.p2align 4,,15
  80              		.global	ip4_addr_isbroadcast
  81              		.thumb
  82              		.thumb_func
  83              		.type	ip4_addr_isbroadcast, %function
  84              	ip4_addr_isbroadcast:
  85              	.LFB256:
  86              		.file 2 "../../../os/ext/lwip-1.4.1/src/core/ipv4/ip_addr.c"
  87              		.loc 2 56 0
  88              		.cfi_startproc
  89              		@ args = 0, pretend = 0, frame = 0
  90              		@ frame_needed = 0, uses_anonymous_args = 0
  91              		@ link register save eliminated.
  92              	.LVL3:
  93              		.loc 2 61 0
  94 0000 431E     		subs	r3, r0, #1
  95 0002 0333     		adds	r3, r3, #3
  96 0004 18D8     		bhi	.L7
  97              		.loc 2 65 0
  98 0006 91F82920 		ldrb	r2, [r1, #41]	@ zero_extendqisi2
  99 000a 02F00202 		and	r2, r2, #2
 100 000e 02F0FF03 		and	r3, r2, #255
 101 0012 62B1     		cbz	r2, .L6
 102              		.loc 2 70 0
 103 0014 4A68     		ldr	r2, [r1, #4]
 104 0016 8242     		cmp	r2, r0
 105 0018 0BD0     		beq	.L9
 106              		.loc 2 73 0
 107 001a 8B68     		ldr	r3, [r1, #8]
 108 001c 4240     		eors	r2, r2, r0
 109 001e 1A42     		tst	r2, r3
 110 0020 07D1     		bne	.L9
 111              		.loc 2 75 0
 112 0022 DB43     		mvns	r3, r3
 113 0024 1840     		ands	r0, r0, r3
ARM GAS  C:\Users\jo\AppData\Local\Temp\cc8gYp92.s 			page 3


 114              	.LVL4:
 115              		.loc 2 63 0
 116 0026 1B1A     		subs	r3, r3, r0
 117 0028 B3FA83F3 		clz	r3, r3
 118 002c 5B09     		lsrs	r3, r3, #5
 119              	.L6:
 120              		.loc 2 82 0
 121 002e 1846     		mov	r0, r3
 122 0030 7047     		bx	lr
 123              	.LVL5:
 124              	.L9:
 125              		.loc 2 80 0
 126 0032 0023     		movs	r3, #0
 127              		.loc 2 82 0
 128 0034 1846     		mov	r0, r3
 129              	.LVL6:
 130 0036 7047     		bx	lr
 131              	.LVL7:
 132              	.L7:
 133              		.loc 2 63 0
 134 0038 0123     		movs	r3, #1
 135              		.loc 2 82 0
 136 003a 1846     		mov	r0, r3
 137              	.LVL8:
 138 003c 7047     		bx	lr
 139              		.cfi_endproc
 140              	.LFE256:
 141              		.size	ip4_addr_isbroadcast, .-ip4_addr_isbroadcast
 142 003e 00BF     		.section	.text.ip4_addr_netmask_valid,"ax",%progbits
 143              		.align	2
 144              		.p2align 4,,15
 145              		.global	ip4_addr_netmask_valid
 146              		.thumb
 147              		.thumb_func
 148              		.type	ip4_addr_netmask_valid, %function
 149              	ip4_addr_netmask_valid:
 150              	.LFB257:
 151              		.loc 2 91 0
 152              		.cfi_startproc
 153              		@ args = 0, pretend = 0, frame = 0
 154              		@ frame_needed = 0, uses_anonymous_args = 0
 155              	.LVL9:
 156 0000 08B5     		push	{r3, lr}
 157              		.cfi_def_cfa_offset 8
 158              		.cfi_offset 3, -8
 159              		.cfi_offset 14, -4
 160              		.loc 2 93 0
 161 0002 FFF7FEFF 		bl	lwip_htonl
 162              	.LVL10:
 163 0006 2022     		movs	r2, #32
 164              		.loc 2 96 0
 165 0008 4FF00043 		mov	r3, #-2147483648
 166 000c 03E0     		b	.L16
 167              	.LVL11:
 168              	.L26:
 169              		.loc 2 96 0 is_stmt 0 discriminator 2
 170 000e 013A     		subs	r2, r2, #1
ARM GAS  C:\Users\jo\AppData\Local\Temp\cc8gYp92.s 			page 4


 171 0010 4FEA5303 		lsr	r3, r3, #1
 172              	.LVL12:
 173 0014 07D0     		beq	.L25
 174              	.LVL13:
 175              	.L16:
 176              		.loc 2 97 0 is_stmt 1
 177 0016 0342     		tst	r3, r0
 178 0018 F9D1     		bne	.L26
 179              		.loc 2 102 0
 180 001a 13B9     		cbnz	r3, .L18
 181 001c 03E0     		b	.L25
 182              	.L19:
 183              		.loc 2 103 0
 184 001e 1842     		tst	r0, r3
 185 0020 03D1     		bne	.L21
 186              	.LVL14:
 187              	.L18:
 188              		.loc 2 102 0
 189 0022 5B08     		lsrs	r3, r3, #1
 190              	.LVL15:
 191 0024 FBD1     		bne	.L19
 192              	.LVL16:
 193              	.L25:
 194              		.loc 2 109 0
 195 0026 0120     		movs	r0, #1
 196              	.LVL17:
 197              		.loc 2 110 0
 198 0028 08BD     		pop	{r3, pc}
 199              	.LVL18:
 200              	.L21:
 201              		.loc 2 105 0
 202 002a 0020     		movs	r0, #0
 203              	.LVL19:
 204 002c 08BD     		pop	{r3, pc}
 205              		.cfi_endproc
 206              	.LFE257:
 207              		.size	ip4_addr_netmask_valid, .-ip4_addr_netmask_valid
 208 002e 00BF     		.section	.text.ipaddr_aton,"ax",%progbits
 209              		.align	2
 210              		.p2align 4,,15
 211              		.global	ipaddr_aton
 212              		.thumb
 213              		.thumb_func
 214              		.type	ipaddr_aton, %function
 215              	ipaddr_aton:
 216              	.LFB259:
 217              		.loc 2 153 0
 218              		.cfi_startproc
 219              		@ args = 0, pretend = 0, frame = 16
 220              		@ frame_needed = 0, uses_anonymous_args = 0
 221              	.LVL20:
 222 0000 2DE9F047 		push	{r4, r5, r6, r7, r8, r9, r10, lr}
 223              		.cfi_def_cfa_offset 32
 224              		.cfi_offset 4, -32
 225              		.cfi_offset 5, -28
 226              		.cfi_offset 6, -24
 227              		.cfi_offset 7, -20
ARM GAS  C:\Users\jo\AppData\Local\Temp\cc8gYp92.s 			page 5


 228              		.cfi_offset 8, -16
 229              		.cfi_offset 9, -12
 230              		.cfi_offset 10, -8
 231              		.cfi_offset 14, -4
 232              		.loc 2 160 0
 233 0004 0378     		ldrb	r3, [r0]	@ zero_extendqisi2
 234              		.loc 2 167 0
 235 0006 A3F13002 		sub	r2, r3, #48
 236              		.loc 2 153 0
 237 000a 0E46     		mov	r6, r1
 238              		.loc 2 167 0
 239 000c D1B2     		uxtb	r1, r2
 240              	.LVL21:
 241 000e 0929     		cmp	r1, #9
 242              		.loc 2 153 0
 243 0010 86B0     		sub	sp, sp, #24
 244              		.cfi_def_cfa_offset 56
 245              	.LVL22:
 246              		.loc 2 167 0
 247 0012 3ED8     		bhi	.L38
 248 0014 0DF10809 		add	r9, sp, #8
 249              	.LVL23:
 250 0018 C846     		mov	r8, r9
 251              		.loc 2 196 0
 252 001a 0DF1140A 		add	r10, sp, #20
 253              	.LVL24:
 254              	.L39:
 255              		.loc 2 171 0
 256 001e 302B     		cmp	r3, #48
 257 0020 3CD0     		beq	.L56
 258              		.loc 2 170 0
 259 0022 0A27     		movs	r7, #10
 260              	.LVL25:
 261              	.L30:
 262 0024 0130     		adds	r0, r0, #1
 263              	.LVL26:
 264              		.loc 2 174 0
 265 0026 0024     		movs	r4, #0
 266 0028 05E0     		b	.L32
 267              	.LVL27:
 268              	.L57:
 269              		.loc 2 182 0
 270 002a 0378     		ldrb	r3, [r0]	@ zero_extendqisi2
 271              	.LVL28:
 272              		.loc 2 181 0
 273 002c AEF13004 		sub	r4, lr, #48
 274              	.LVL29:
 275              	.L34:
 276 0030 0130     		adds	r0, r0, #1
 277              	.LVL30:
 278 0032 A3F13002 		sub	r2, r3, #48
 279              	.LVL31:
 280              	.L32:
 281              		.loc 2 180 0
 282 0036 5FFA82FE 		uxtb	lr, r2
 283              		.loc 2 183 0
 284 003a 23F02001 		bic	r1, r3, #32
ARM GAS  C:\Users\jo\AppData\Local\Temp\cc8gYp92.s 			page 6


 285 003e 4139     		subs	r1, r1, #65
 286 0040 A3F16102 		sub	r2, r3, #97
 287              		.loc 2 180 0
 288 0044 BEF1090F 		cmp	lr, #9
 289              		.loc 2 183 0
 290 0048 C9B2     		uxtb	r1, r1
 291              		.loc 2 184 0
 292 004a 03F10A05 		add	r5, r3, #10
 293 004e 00F1FF3C 		add	ip, r0, #-1
 294              	.LVL32:
 295              		.loc 2 181 0
 296 0052 07FB043E 		mla	lr, r7, r4, r3
 297              		.loc 2 183 0
 298 0056 D2B2     		uxtb	r2, r2
 299              		.loc 2 180 0
 300 0058 E7D9     		bls	.L57
 301              		.loc 2 183 0
 302 005a 102F     		cmp	r7, #16
 303 005c 0AD1     		bne	.L35
 304              		.loc 2 183 0 is_stmt 0 discriminator 2
 305 005e 0529     		cmp	r1, #5
 306 0060 08D8     		bhi	.L35
 307              		.loc 2 184 0 is_stmt 1
 308 0062 1A2A     		cmp	r2, #26
 309 0064 34BF     		ite	cc
 310 0066 6123     		movcc	r3, #97
 311              	.LVL33:
 312 0068 4123     		movcs	r3, #65
 313 006a ED1A     		subs	r5, r5, r3
 314              	.LVL34:
 315 006c 45EA0414 		orr	r4, r5, r4, lsl #4
 316              	.LVL35:
 317              		.loc 2 185 0
 318 0070 0378     		ldrb	r3, [r0]	@ zero_extendqisi2
 319              	.LVL36:
 320 0072 DDE7     		b	.L34
 321              	.LVL37:
 322              	.L35:
 323              		.loc 2 189 0
 324 0074 2E2B     		cmp	r3, #46
 325 0076 21D1     		bne	.L37
 326              		.loc 2 196 0
 327 0078 D045     		cmp	r8, r10
 328 007a 0AD0     		beq	.L38
 329              		.loc 2 200 0
 330 007c 9CF80130 		ldrb	r3, [ip, #1]	@ zero_extendqisi2
 331              	.LVL38:
 332              		.loc 2 199 0
 333 0080 48F8044B 		str	r4, [r8], #4
 334              	.LVL39:
 335              		.loc 2 167 0
 336 0084 A3F13002 		sub	r2, r3, #48
 337 0088 D1B2     		uxtb	r1, r2
 338 008a 0929     		cmp	r1, #9
 339              		.loc 2 200 0
 340 008c 0CF10100 		add	r0, ip, #1
 341              	.LVL40:
ARM GAS  C:\Users\jo\AppData\Local\Temp\cc8gYp92.s 			page 7


 342              		.loc 2 167 0
 343 0090 C5D9     		bls	.L39
 344              	.LVL41:
 345              	.L38:
 346              		.loc 2 168 0
 347 0092 0023     		movs	r3, #0
 348              	.L29:
 349              		.loc 2 250 0
 350 0094 1846     		mov	r0, r3
 351 0096 06B0     		add	sp, sp, #24
 352              		.cfi_remember_state
 353              		.cfi_def_cfa_offset 32
 354              		@ sp needed
 355 0098 BDE8F087 		pop	{r4, r5, r6, r7, r8, r9, r10, pc}
 356              	.LVL42:
 357              	.L56:
 358              		.cfi_restore_state
 359              		.loc 2 172 0
 360 009c 4378     		ldrb	r3, [r0, #1]	@ zero_extendqisi2
 361              	.LVL43:
 362              		.loc 2 173 0
 363 009e 03F0DF02 		and	r2, r3, #223
 364 00a2 582A     		cmp	r2, #88
 365 00a4 04D0     		beq	.L31
 366              		.loc 2 172 0
 367 00a6 0130     		adds	r0, r0, #1
 368              	.LVL44:
 369              		.loc 2 177 0
 370 00a8 0827     		movs	r7, #8
 371 00aa A3F13002 		sub	r2, r3, #48
 372 00ae B9E7     		b	.L30
 373              	.LVL45:
 374              	.L31:
 375              		.loc 2 175 0
 376 00b0 8378     		ldrb	r3, [r0, #2]	@ zero_extendqisi2
 377              	.LVL46:
 378              		.loc 2 174 0
 379 00b2 1027     		movs	r7, #16
 380              		.loc 2 175 0
 381 00b4 0230     		adds	r0, r0, #2
 382              	.LVL47:
 383 00b6 A3F13002 		sub	r2, r3, #48
 384 00ba B3E7     		b	.L30
 385              	.LVL48:
 386              	.L37:
 387              		.loc 2 207 0
 388 00bc 13F0DF0F 		tst	r3, #223
 389 00c0 2546     		mov	r5, r4
 390 00c2 02D0     		beq	.L40
 391              		.loc 2 207 0 is_stmt 0 discriminator 5
 392 00c4 093B     		subs	r3, r3, #9
 393              	.LVL49:
 394 00c6 042B     		cmp	r3, #4
 395 00c8 E3D8     		bhi	.L38
 396              	.LVL50:
 397              	.L40:
 398              		.loc 2 214 0 is_stmt 1
ARM GAS  C:\Users\jo\AppData\Local\Temp\cc8gYp92.s 			page 8


 399 00ca C9EB0803 		rsb	r3, r9, r8
 400 00ce 9B10     		asrs	r3, r3, #2
 401 00d0 0133     		adds	r3, r3, #1
 402 00d2 042B     		cmp	r3, #4
 403 00d4 2FD8     		bhi	.L41
 404 00d6 01A2     		adr	r2, .L42
 405 00d8 52F823F0 		ldr	pc, [r2, r3, lsl #2]
 406              		.p2align 2
 407              	.L42:
 408 00dc 95000000 		.word	.L29+1
 409 00e0 03010000 		.word	.L43+1
 410 00e4 29010000 		.word	.L44+1
 411 00e8 F1000000 		.word	.L45+1
 412 00ec 11010000 		.word	.L46+1
 413              		.p2align 1
 414              	.L45:
 415              		.loc 2 230 0
 416 00f0 B4F5803F 		cmp	r4, #65536
 417 00f4 CDD2     		bcs	.L38
 418              		.loc 2 233 0
 419 00f6 029B     		ldr	r3, [sp, #8]
 420 00f8 039D     		ldr	r5, [sp, #12]
 421 00fa 1B06     		lsls	r3, r3, #24
 422 00fc 43EA0545 		orr	r5, r3, r5, lsl #16
 423 0100 2543     		orrs	r5, r5, r4
 424              	.LVL51:
 425              	.L43:
 426              		.loc 2 246 0
 427 0102 26B3     		cbz	r6, .L51
 428              		.loc 2 247 0
 429 0104 2846     		mov	r0, r5
 430 0106 FFF7FEFF 		bl	lwip_htonl
 431              	.LVL52:
 432              		.loc 2 249 0
 433 010a 0123     		movs	r3, #1
 434              		.loc 2 247 0
 435 010c 3060     		str	r0, [r6]
 436 010e C1E7     		b	.L29
 437              	.LVL53:
 438              	.L46:
 439              		.loc 2 237 0
 440 0110 FF2C     		cmp	r4, #255
 441 0112 BED8     		bhi	.L38
 442              		.loc 2 240 0
 443 0114 029B     		ldr	r3, [sp, #8]
 444 0116 039A     		ldr	r2, [sp, #12]
 445 0118 049D     		ldr	r5, [sp, #16]
 446 011a 1B06     		lsls	r3, r3, #24
 447 011c 43EA0243 		orr	r3, r3, r2, lsl #16
 448 0120 43EA0525 		orr	r5, r3, r5, lsl #8
 449 0124 2543     		orrs	r5, r5, r4
 450              	.LVL54:
 451              		.loc 2 241 0
 452 0126 ECE7     		b	.L43
 453              	.LVL55:
 454              	.L44:
 455              		.loc 2 223 0
ARM GAS  C:\Users\jo\AppData\Local\Temp\cc8gYp92.s 			page 9


 456 0128 B4F1807F 		cmp	r4, #16777216
 457 012c B1D2     		bcs	.L38
 458              		.loc 2 226 0
 459 012e 029D     		ldr	r5, [sp, #8]
 460 0130 44EA0565 		orr	r5, r4, r5, lsl #24
 461              	.LVL56:
 462              		.loc 2 227 0
 463 0134 E5E7     		b	.L43
 464              	.LVL57:
 465              	.L41:
 466              		.loc 2 243 0 discriminator 1
 467 0136 074B     		ldr	r3, .L58
 468 0138 0093     		str	r3, [sp]
 469 013a 0749     		ldr	r1, .L58+4
 470 013c 074A     		ldr	r2, .L58+8
 471 013e 0848     		ldr	r0, .L58+12
 472 0140 F323     		movs	r3, #243
 473 0142 FFF7FEFF 		bl	chprintf.constprop.0
 474              	.LVL58:
 475              	.LBB4:
 476              	.LBB5:
 477              		.file 3 "../../../os/hal/osal/rt/osal.h"
 478              		.loc 3 414 0 discriminator 1
 479 0146 0548     		ldr	r0, .L58+8
 480 0148 FFF7FEFF 		bl	chSysHalt
 481              	.LVL59:
 482 014c D9E7     		b	.L43
 483              	.LVL60:
 484              	.L51:
 485              	.LBE5:
 486              	.LBE4:
 487              		.loc 2 249 0
 488 014e 0123     		movs	r3, #1
 489 0150 A0E7     		b	.L29
 490              	.L59:
 491 0152 00BF     		.align	2
 492              	.L58:
 493 0154 34000000 		.word	.LC2
 494 0158 00000000 		.word	.LC0
 495 015c 28000000 		.word	.LC1
 496 0160 00000000 		.word	itm_port
 497              		.cfi_endproc
 498              	.LFE259:
 499              		.size	ipaddr_aton, .-ipaddr_aton
 500 0164 AFF30080 		.section	.text.ipaddr_addr,"ax",%progbits
 500      AFF30080 
 500      AFF30080 
 501              		.align	2
 502              		.p2align 4,,15
 503              		.global	ipaddr_addr
 504              		.thumb
 505              		.thumb_func
 506              		.type	ipaddr_addr, %function
 507              	ipaddr_addr:
 508              	.LFB258:
 509              		.loc 2 131 0
 510              		.cfi_startproc
ARM GAS  C:\Users\jo\AppData\Local\Temp\cc8gYp92.s 			page 10


 511              		@ args = 0, pretend = 0, frame = 8
 512              		@ frame_needed = 0, uses_anonymous_args = 0
 513              	.LVL61:
 514 0000 00B5     		push	{lr}
 515              		.cfi_def_cfa_offset 4
 516              		.cfi_offset 14, -4
 517 0002 83B0     		sub	sp, sp, #12
 518              		.cfi_def_cfa_offset 16
 519              		.loc 2 134 0
 520 0004 01A9     		add	r1, sp, #4
 521 0006 FFF7FEFF 		bl	ipaddr_aton
 522              	.LVL62:
 523 000a 20B9     		cbnz	r0, .L64
 524              		.loc 2 137 0
 525 000c 4FF0FF30 		mov	r0, #-1
 526              		.loc 2 138 0
 527 0010 03B0     		add	sp, sp, #12
 528              		.cfi_remember_state
 529              		.cfi_def_cfa_offset 4
 530              		@ sp needed
 531 0012 5DF804FB 		ldr	pc, [sp], #4
 532              	.L64:
 533              		.cfi_restore_state
 534              		.loc 2 135 0
 535 0016 0198     		ldr	r0, [sp, #4]
 536              		.loc 2 138 0
 537 0018 03B0     		add	sp, sp, #12
 538              		.cfi_def_cfa_offset 4
 539              		@ sp needed
 540 001a 5DF804FB 		ldr	pc, [sp], #4
 541              		.cfi_endproc
 542              	.LFE258:
 543              		.size	ipaddr_addr, .-ipaddr_addr
 544 001e 00BF     		.section	.text.ipaddr_ntoa_r,"ax",%progbits
 545              		.align	2
 546              		.p2align 4,,15
 547              		.global	ipaddr_ntoa_r
 548              		.thumb
 549              		.thumb_func
 550              		.type	ipaddr_ntoa_r, %function
 551              	ipaddr_ntoa_r:
 552              	.LFB261:
 553              		.loc 2 277 0
 554              		.cfi_startproc
 555              		@ args = 0, pretend = 0, frame = 8
 556              		@ frame_needed = 0, uses_anonymous_args = 0
 557              	.LVL63:
 558 0000 2DE9F047 		push	{r4, r5, r6, r7, r8, r9, r10, lr}
 559              		.cfi_def_cfa_offset 32
 560              		.cfi_offset 4, -32
 561              		.cfi_offset 5, -28
 562              		.cfi_offset 6, -24
 563              		.cfi_offset 7, -20
 564              		.cfi_offset 8, -16
 565              		.cfi_offset 9, -12
 566              		.cfi_offset 10, -8
 567              		.cfi_offset 14, -4
ARM GAS  C:\Users\jo\AppData\Local\Temp\cc8gYp92.s 			page 11


 568 0004 82B0     		sub	sp, sp, #8
 569              		.cfi_def_cfa_offset 40
 570              		.loc 2 287 0
 571 0006 0DF1080E 		add	lr, sp, #8
 572 000a 0368     		ldr	r3, [r0]
 573 000c 4EF8043D 		str	r3, [lr, #-4]!
 574              	.LVL64:
 575              		.loc 2 294 0
 576 0010 2A48     		ldr	r0, .L78
 577              	.LVL65:
 578              		.loc 2 289 0
 579 0012 0F46     		mov	r7, r1
 580 0014 0DF10808 		add	r8, sp, #8
 581              		.loc 2 285 0
 582 0018 4FF00009 		mov	r9, #0
 583              		.loc 2 307 0
 584 001c 4FF02E0C 		mov	ip, #46
 585              	.LVL66:
 586              	.L72:
 587 0020 9EF800A0 		ldrb	r10, [lr]	@ zero_extendqisi2
 588              		.loc 2 285 0
 589 0024 0024     		movs	r4, #0
 590 0026 00E0     		b	.L66
 591              	.LVL67:
 592              	.L73:
 593              		.loc 2 296 0
 594 0028 3446     		mov	r4, r6
 595              	.LVL68:
 596              	.L66:
 597              		.loc 2 294 0 discriminator 1
 598 002a A0FB0A35 		umull	r3, r5, r0, r10
 599 002e ED08     		lsrs	r5, r5, #3
 600 0030 05EB8503 		add	r3, r5, r5, lsl #2
 601 0034 AAEB4303 		sub	r3, r10, r3, lsl #1
 602              	.LVL69:
 603              		.loc 2 296 0 discriminator 1
 604 0038 0DF1080A 		add	r10, sp, #8
 605 003c A244     		add	r10, r10, r4
 606 003e 3033     		adds	r3, r3, #48
 607              	.LVL70:
 608 0040 03F0FF03 		and	r3, r3, #255
 609              	.LVL71:
 610 0044 661C     		adds	r6, r4, #1
 611 0046 0AF8083C 		strb	r3, [r10, #-8]
 612 004a F6B2     		uxtb	r6, r6
 613              	.LVL72:
 614              		.loc 2 297 0 discriminator 1
 615 004c 05F0FF0A 		and	r10, r5, #255
 616 0050 002D     		cmp	r5, #0
 617 0052 E9D1     		bne	.L73
 618 0054 0EF801AB 		strb	r10, [lr], #1
 619              	.LVL73:
 620              		.loc 2 298 0
 621 0058 6EB3     		cbz	r6, .L74
 622              		.loc 2 299 0
 623 005a 4A45     		cmp	r2, r9
 624 005c 09F10105 		add	r5, r9, #1
ARM GAS  C:\Users\jo\AppData\Local\Temp\cc8gYp92.s 			page 12


 625              	.LVL74:
 626 0060 25DD     		ble	.L68
 627 0062 013C     		subs	r4, r4, #1
 628              	.LVL75:
 629 0064 C9EB0209 		rsb	r9, r9, r2
 630 0068 E4B2     		uxtb	r4, r4
 631 006a B944     		add	r9, r9, r7
 632 006c 06E0     		b	.L69
 633              	.L71:
 634 006e 4F45     		cmp	r7, r9
 635 0070 05F10105 		add	r5, r5, #1
 636              	.LVL76:
 637 0074 1BD0     		beq	.L68
 638 0076 14F8083C 		ldrb	r3, [r4, #-8]	@ zero_extendqisi2
 639 007a 3446     		mov	r4, r6
 640              	.L69:
 641              	.LVL77:
 642 007c 661E     		subs	r6, r4, #1
 643              		.loc 2 302 0
 644 007e 07F8013B 		strb	r3, [r7], #1
 645              	.LVL78:
 646              		.loc 2 298 0
 647 0082 FF2C     		cmp	r4, #255
 648 0084 02AB     		add	r3, sp, #8
 649 0086 F6B2     		uxtb	r6, r6
 650 0088 1C44     		add	r4, r4, r3
 651              	.LVL79:
 652 008a F0D1     		bne	.L71
 653              	.L67:
 654              		.loc 2 304 0
 655 008c AA42     		cmp	r2, r5
 656 008e 05F10109 		add	r9, r5, #1
 657              	.LVL80:
 658 0092 0CDD     		ble	.L68
 659              		.loc 2 291 0 discriminator 2
 660 0094 C645     		cmp	lr, r8
 661              		.loc 2 307 0 discriminator 2
 662 0096 87F800C0 		strb	ip, [r7]
 663 009a 07F10107 		add	r7, r7, #1
 664              	.LVL81:
 665              		.loc 2 291 0 discriminator 2
 666 009e BFD1     		bne	.L72
 667              	.LVL82:
 668              		.loc 2 310 0
 669 00a0 0023     		movs	r3, #0
 670              		.loc 2 311 0
 671 00a2 0846     		mov	r0, r1
 672              		.loc 2 310 0
 673 00a4 07F8013C 		strb	r3, [r7, #-1]
 674              		.loc 2 312 0
 675 00a8 02B0     		add	sp, sp, #8
 676              		.cfi_remember_state
 677              		.cfi_def_cfa_offset 32
 678              		@ sp needed
 679 00aa BDE8F087 		pop	{r4, r5, r6, r7, r8, r9, r10, pc}
 680              	.LVL83:
 681              	.L68:
ARM GAS  C:\Users\jo\AppData\Local\Temp\cc8gYp92.s 			page 13


 682              		.cfi_restore_state
 683              		.loc 2 300 0
 684 00ae 0020     		movs	r0, #0
 685              		.loc 2 312 0
 686 00b0 02B0     		add	sp, sp, #8
 687              		.cfi_remember_state
 688              		.cfi_def_cfa_offset 32
 689              		@ sp needed
 690 00b2 BDE8F087 		pop	{r4, r5, r6, r7, r8, r9, r10, pc}
 691              	.LVL84:
 692              	.L74:
 693              		.cfi_restore_state
 694              		.loc 2 298 0
 695 00b6 4D46     		mov	r5, r9
 696 00b8 E8E7     		b	.L67
 697              	.L79:
 698 00ba 00BF     		.align	2
 699              	.L78:
 700 00bc CDCCCCCC 		.word	-858993459
 701              		.cfi_endproc
 702              	.LFE261:
 703              		.size	ipaddr_ntoa_r, .-ipaddr_ntoa_r
 704              		.section	.text.ipaddr_ntoa,"ax",%progbits
 705              		.align	2
 706              		.p2align 4,,15
 707              		.global	ipaddr_ntoa
 708              		.thumb
 709              		.thumb_func
 710              		.type	ipaddr_ntoa, %function
 711              	ipaddr_ntoa:
 712              	.LFB260:
 713              		.loc 2 262 0
 714              		.cfi_startproc
 715              		@ args = 0, pretend = 0, frame = 0
 716              		@ frame_needed = 0, uses_anonymous_args = 0
 717              		@ link register save eliminated.
 718              	.LVL85:
 719              		.loc 2 264 0
 720 0000 0149     		ldr	r1, .L81
 721 0002 1022     		movs	r2, #16
 722 0004 FFF7FEBF 		b	ipaddr_ntoa_r
 723              	.LVL86:
 724              	.L82:
 725              		.align	2
 726              	.L81:
 727 0008 00000000 		.word	.LANCHOR0
 728              		.cfi_endproc
 729              	.LFE260:
 730              		.size	ipaddr_ntoa, .-ipaddr_ntoa
 731              		.global	ip_addr_broadcast
 732              		.global	ip_addr_any
 733 000c AFF30080 		.section	.bss.str.8433,"aw",%nobits
 734              		.align	2
 735              		.set	.LANCHOR0,. + 0
 736              		.type	str.8433, %object
 737              		.size	str.8433, 16
 738              	str.8433:
ARM GAS  C:\Users\jo\AppData\Local\Temp\cc8gYp92.s 			page 14


 739 0000 00000000 		.space	16
 739      00000000 
 739      00000000 
 739      00000000 
 740              		.section	.rodata.ip_addr_broadcast,"a",%progbits
 741              		.align	2
 742              		.type	ip_addr_broadcast, %object
 743              		.size	ip_addr_broadcast, 4
 744              	ip_addr_broadcast:
 745 0000 FFFFFFFF 		.word	-1
 746              		.section	.rodata.str1.4,"aMS",%progbits,1
 747              		.align	2
 748              	.LC0:
 749 0000 41737365 		.ascii	"Assertion \"%s\" failed at line %d in %s\012\000"
 749      7274696F 
 749      6E202225 
 749      73222066 
 749      61696C65 
 750              	.LC1:
 751 0028 756E6861 		.ascii	"unhandled\000"
 751      6E646C65 
 751      6400
 752 0032 0000     		.space	2
 753              	.LC2:
 754 0034 2E2E2F2E 		.ascii	"../../../os/ext/lwip-1.4.1/src/core/ipv4/ip_addr.c\000"
 754      2E2F2E2E 
 754      2F6F732F 
 754      6578742F 
 754      6C776970 
 755 0067 00       		.section	.rodata.ip_addr_any,"a",%progbits
 756              		.align	2
 757              		.type	ip_addr_any, %object
 758              		.size	ip_addr_any, 4
 759              	ip_addr_any:
 760 0000 00000000 		.space	4
 761              		.text
 762              	.Letext0:
 763              		.file 4 "c:\\program files\\gnu tools arm embedded\\4.9 2014q4\\lib\\gcc\\arm-none-eabi\\4.9.3\\in
 764              		.file 5 "c:\\program files\\gnu tools arm embedded\\4.9 2014q4\\arm-none-eabi\\include\\machine\\_
 765              		.file 6 "c:\\program files\\gnu tools arm embedded\\4.9 2014q4\\arm-none-eabi\\include\\stdint.h"
 766              		.file 7 "../../../os/rt/ports/ARMCMx/compilers/GCC/chtypes.h"
 767              		.file 8 "../../../os/rt/include/chsystypes.h"
 768              		.file 9 "../../../os/rt/include/chschd.h"
 769              		.file 10 "../../../os/rt/ports/ARMCMx/chcore.h"
 770              		.file 11 "../../../os/rt/ports/ARMCMx/chcore_v7m.h"
 771              		.file 12 "c:\\program files\\gnu tools arm embedded\\4.9 2014q4\\lib\\gcc\\arm-none-eabi\\4.9.3\\i
 772              		.file 13 "<built-in>"
 773              		.file 14 "../../../os/rt/include/chtm.h"
 774              		.file 15 "../../../os/rt/include/chmtx.h"
 775              		.file 16 "../../../os/rt/include/chstreams.h"
 776              		.file 17 "./ITM_trace.h"
 777              		.file 18 "../../../os/various/lwip_bindings/arch/cc.h"
 778              		.file 19 "../../../os/ext/lwip-1.4.1/src/include/ipv4/lwip/ip_addr.h"
 779              		.file 20 "../../../os/ext/lwip-1.4.1/src/include/lwip/err.h"
 780              		.file 21 "../../../os/ext/lwip-1.4.1/src/include/lwip/pbuf.h"
 781              		.file 22 "../../../os/ext/lwip-1.4.1/src/include/lwip/netif.h"
 782              		.file 23 "../../../os/ext/CMSIS/include/core_cm4.h"
ARM GAS  C:\Users\jo\AppData\Local\Temp\cc8gYp92.s 			page 15


 783              		.file 24 "../../../os/ext/lwip-1.4.1/src/include/lwip/def.h"
 784              		.file 25 "../../../os/rt/include/chsys.h"
 785              		.section	.debug_info,"",%progbits
 786              	.Ldebug_info0:
 787 0000 CD0E0000 		.4byte	0xecd
 788 0004 0400     		.2byte	0x4
 789 0006 00000000 		.4byte	.Ldebug_abbrev0
 790 000a 04       		.byte	0x4
 791 000b 01       		.uleb128 0x1
 792 000c 47040000 		.4byte	.LASF156
 793 0010 01       		.byte	0x1
 794 0011 F4050000 		.4byte	.LASF157
 795 0015 27060000 		.4byte	.LASF158
 796 0019 00000000 		.4byte	.Ldebug_ranges0+0
 797 001d 00000000 		.4byte	0
 798 0021 00000000 		.4byte	.Ldebug_line0
 799 0025 02       		.uleb128 0x2
 800 0026 04       		.byte	0x4
 801 0027 05       		.byte	0x5
 802 0028 696E7400 		.ascii	"int\000"
 803 002c 03       		.uleb128 0x3
 804 002d 0D000000 		.4byte	.LASF1
 805 0031 04       		.byte	0x4
 806 0032 D4       		.byte	0xd4
 807 0033 37000000 		.4byte	0x37
 808 0037 04       		.uleb128 0x4
 809 0038 04       		.byte	0x4
 810 0039 07       		.byte	0x7
 811 003a D7010000 		.4byte	.LASF0
 812 003e 03       		.uleb128 0x3
 813 003f BC000000 		.4byte	.LASF2
 814 0043 05       		.byte	0x5
 815 0044 1B       		.byte	0x1b
 816 0045 49000000 		.4byte	0x49
 817 0049 04       		.uleb128 0x4
 818 004a 01       		.byte	0x1
 819 004b 06       		.byte	0x6
 820 004c FD000000 		.4byte	.LASF3
 821 0050 03       		.uleb128 0x3
 822 0051 2F000000 		.4byte	.LASF4
 823 0055 05       		.byte	0x5
 824 0056 1D       		.byte	0x1d
 825 0057 5B000000 		.4byte	0x5b
 826 005b 04       		.uleb128 0x4
 827 005c 01       		.byte	0x1
 828 005d 08       		.byte	0x8
 829 005e E8030000 		.4byte	.LASF5
 830 0062 04       		.uleb128 0x4
 831 0063 02       		.byte	0x2
 832 0064 05       		.byte	0x5
 833 0065 08040000 		.4byte	.LASF6
 834 0069 03       		.uleb128 0x3
 835 006a 6F060000 		.4byte	.LASF7
 836 006e 05       		.byte	0x5
 837 006f 2B       		.byte	0x2b
 838 0070 74000000 		.4byte	0x74
 839 0074 04       		.uleb128 0x4
ARM GAS  C:\Users\jo\AppData\Local\Temp\cc8gYp92.s 			page 16


 840 0075 02       		.byte	0x2
 841 0076 07       		.byte	0x7
 842 0077 1B020000 		.4byte	.LASF8
 843 007b 03       		.uleb128 0x3
 844 007c 7D020000 		.4byte	.LASF9
 845 0080 05       		.byte	0x5
 846 0081 3F       		.byte	0x3f
 847 0082 86000000 		.4byte	0x86
 848 0086 04       		.uleb128 0x4
 849 0087 04       		.byte	0x4
 850 0088 05       		.byte	0x5
 851 0089 56010000 		.4byte	.LASF10
 852 008d 03       		.uleb128 0x3
 853 008e B5060000 		.4byte	.LASF11
 854 0092 05       		.byte	0x5
 855 0093 41       		.byte	0x41
 856 0094 98000000 		.4byte	0x98
 857 0098 04       		.uleb128 0x4
 858 0099 04       		.byte	0x4
 859 009a 07       		.byte	0x7
 860 009b DD050000 		.4byte	.LASF12
 861 009f 04       		.uleb128 0x4
 862 00a0 08       		.byte	0x8
 863 00a1 05       		.byte	0x5
 864 00a2 EF000000 		.4byte	.LASF13
 865 00a6 03       		.uleb128 0x3
 866 00a7 8B030000 		.4byte	.LASF14
 867 00ab 05       		.byte	0x5
 868 00ac 5B       		.byte	0x5b
 869 00ad B1000000 		.4byte	0xb1
 870 00b1 04       		.uleb128 0x4
 871 00b2 08       		.byte	0x8
 872 00b3 07       		.byte	0x7
 873 00b4 6B000000 		.4byte	.LASF15
 874 00b8 03       		.uleb128 0x3
 875 00b9 01070000 		.4byte	.LASF16
 876 00bd 06       		.byte	0x6
 877 00be 14       		.byte	0x14
 878 00bf 3E000000 		.4byte	0x3e
 879 00c3 03       		.uleb128 0x3
 880 00c4 56070000 		.4byte	.LASF17
 881 00c8 06       		.byte	0x6
 882 00c9 15       		.byte	0x15
 883 00ca 50000000 		.4byte	0x50
 884 00ce 03       		.uleb128 0x3
 885 00cf F3010000 		.4byte	.LASF18
 886 00d3 06       		.byte	0x6
 887 00d4 21       		.byte	0x21
 888 00d5 69000000 		.4byte	0x69
 889 00d9 03       		.uleb128 0x3
 890 00da E0030000 		.4byte	.LASF19
 891 00de 06       		.byte	0x6
 892 00df 2C       		.byte	0x2c
 893 00e0 7B000000 		.4byte	0x7b
 894 00e4 03       		.uleb128 0x3
 895 00e5 BC050000 		.4byte	.LASF20
 896 00e9 06       		.byte	0x6
ARM GAS  C:\Users\jo\AppData\Local\Temp\cc8gYp92.s 			page 17


 897 00ea 2D       		.byte	0x2d
 898 00eb 8D000000 		.4byte	0x8d
 899 00ef 03       		.uleb128 0x3
 900 00f0 14000000 		.4byte	.LASF21
 901 00f4 06       		.byte	0x6
 902 00f5 39       		.byte	0x39
 903 00f6 A6000000 		.4byte	0xa6
 904 00fa 05       		.uleb128 0x5
 905 00fb D9000000 		.4byte	0xd9
 906 00ff 03       		.uleb128 0x3
 907 0100 F9060000 		.4byte	.LASF22
 908 0104 07       		.byte	0x7
 909 0105 45       		.byte	0x45
 910 0106 E4000000 		.4byte	0xe4
 911 010a 03       		.uleb128 0x3
 912 010b 50020000 		.4byte	.LASF23
 913 010f 07       		.byte	0x7
 914 0110 48       		.byte	0x48
 915 0111 C3000000 		.4byte	0xc3
 916 0115 03       		.uleb128 0x3
 917 0116 5F010000 		.4byte	.LASF24
 918 011a 07       		.byte	0x7
 919 011b 49       		.byte	0x49
 920 011c C3000000 		.4byte	0xc3
 921 0120 03       		.uleb128 0x3
 922 0121 00000000 		.4byte	.LASF25
 923 0125 07       		.byte	0x7
 924 0126 4A       		.byte	0x4a
 925 0127 C3000000 		.4byte	0xc3
 926 012b 03       		.uleb128 0x3
 927 012c B7030000 		.4byte	.LASF26
 928 0130 07       		.byte	0x7
 929 0131 4C       		.byte	0x4c
 930 0132 E4000000 		.4byte	0xe4
 931 0136 03       		.uleb128 0x3
 932 0137 45020000 		.4byte	.LASF27
 933 013b 07       		.byte	0x7
 934 013c 4D       		.byte	0x4d
 935 013d D9000000 		.4byte	0xd9
 936 0141 03       		.uleb128 0x3
 937 0142 71020000 		.4byte	.LASF28
 938 0146 07       		.byte	0x7
 939 0147 4F       		.byte	0x4f
 940 0148 E4000000 		.4byte	0xe4
 941 014c 03       		.uleb128 0x3
 942 014d 97060000 		.4byte	.LASF29
 943 0151 08       		.byte	0x8
 944 0152 33       		.byte	0x33
 945 0153 E4000000 		.4byte	0xe4
 946 0157 03       		.uleb128 0x3
 947 0158 87060000 		.4byte	.LASF30
 948 015c 08       		.byte	0x8
 949 015d 3F       		.byte	0x3f
 950 015e 62010000 		.4byte	0x162
 951 0162 06       		.uleb128 0x6
 952 0163 2E020000 		.4byte	.LASF49
 953 0167 44       		.byte	0x44
ARM GAS  C:\Users\jo\AppData\Local\Temp\cc8gYp92.s 			page 18


 954 0168 09       		.byte	0x9
 955 0169 BE       		.byte	0xbe
 956 016a 4F020000 		.4byte	0x24f
 957 016e 07       		.uleb128 0x7
 958 016f 40040000 		.4byte	.LASF31
 959 0173 09       		.byte	0x9
 960 0174 BF       		.byte	0xbf
 961 0175 33060000 		.4byte	0x633
 962 0179 00       		.byte	0
 963 017a 07       		.uleb128 0x7
 964 017b B0030000 		.4byte	.LASF32
 965 017f 09       		.byte	0x9
 966 0180 C1       		.byte	0xc1
 967 0181 33060000 		.4byte	0x633
 968 0185 04       		.byte	0x4
 969 0186 07       		.uleb128 0x7
 970 0187 E8000000 		.4byte	.LASF33
 971 018b 09       		.byte	0x9
 972 018c C3       		.byte	0xc3
 973 018d 2B010000 		.4byte	0x12b
 974 0191 08       		.byte	0x8
 975 0192 07       		.uleb128 0x7
 976 0193 A9070000 		.4byte	.LASF34
 977 0197 09       		.byte	0x9
 978 0198 C4       		.byte	0xc4
 979 0199 79040000 		.4byte	0x479
 980 019d 0C       		.byte	0xc
 981 019e 07       		.uleb128 0x7
 982 019f 7D010000 		.4byte	.LASF35
 983 01a3 09       		.byte	0x9
 984 01a4 C6       		.byte	0xc6
 985 01a5 33060000 		.4byte	0x633
 986 01a9 10       		.byte	0x10
 987 01aa 07       		.uleb128 0x7
 988 01ab 2A040000 		.4byte	.LASF36
 989 01af 09       		.byte	0x9
 990 01b0 C7       		.byte	0xc7
 991 01b1 33060000 		.4byte	0x633
 992 01b5 14       		.byte	0x14
 993 01b6 07       		.uleb128 0x7
 994 01b7 80050000 		.4byte	.LASF37
 995 01bb 09       		.byte	0x9
 996 01bc CE       		.byte	0xce
 997 01bd 08060000 		.4byte	0x608
 998 01c1 18       		.byte	0x18
 999 01c2 07       		.uleb128 0x7
 1000 01c3 12040000 		.4byte	.LASF38
 1001 01c7 09       		.byte	0x9
 1002 01c8 D9       		.byte	0xd9
 1003 01c9 15010000 		.4byte	0x115
 1004 01cd 1C       		.byte	0x1c
 1005 01ce 07       		.uleb128 0x7
 1006 01cf 78050000 		.4byte	.LASF39
 1007 01d3 09       		.byte	0x9
 1008 01d4 DD       		.byte	0xdd
 1009 01d5 0A010000 		.4byte	0x10a
 1010 01d9 1D       		.byte	0x1d
ARM GAS  C:\Users\jo\AppData\Local\Temp\cc8gYp92.s 			page 19


 1011 01da 07       		.uleb128 0x7
 1012 01db 42070000 		.4byte	.LASF40
 1013 01df 09       		.byte	0x9
 1014 01e0 E2       		.byte	0xe2
 1015 01e1 20010000 		.4byte	0x120
 1016 01e5 1E       		.byte	0x1e
 1017 01e6 08       		.uleb128 0x8
 1018 01e7 705F7500 		.ascii	"p_u\000"
 1019 01eb 09       		.byte	0x9
 1020 01ec 1401     		.2byte	0x114
 1021 01ee 39060000 		.4byte	0x639
 1022 01f2 20       		.byte	0x20
 1023 01f3 09       		.uleb128 0x9
 1024 01f4 CF020000 		.4byte	.LASF41
 1025 01f8 09       		.byte	0x9
 1026 01f9 1901     		.2byte	0x119
 1027 01fb 4F020000 		.4byte	0x24f
 1028 01ff 24       		.byte	0x24
 1029 0200 09       		.uleb128 0x9
 1030 0201 05020000 		.4byte	.LASF42
 1031 0205 09       		.byte	0x9
 1032 0206 1F01     		.2byte	0x11f
 1033 0208 73020000 		.4byte	0x273
 1034 020c 28       		.byte	0x28
 1035 020d 09       		.uleb128 0x9
 1036 020e 84070000 		.4byte	.LASF43
 1037 0212 09       		.byte	0x9
 1038 0213 2301     		.2byte	0x123
 1039 0215 36010000 		.4byte	0x136
 1040 0219 30       		.byte	0x30
 1041 021a 09       		.uleb128 0x9
 1042 021b B1050000 		.4byte	.LASF44
 1043 021f 09       		.byte	0x9
 1044 0220 2901     		.2byte	0x129
 1045 0222 41010000 		.4byte	0x141
 1046 0226 34       		.byte	0x34
 1047 0227 09       		.uleb128 0x9
 1048 0228 FE030000 		.4byte	.LASF45
 1049 022c 09       		.byte	0x9
 1050 022d 3001     		.2byte	0x130
 1051 022f A2060000 		.4byte	0x6a2
 1052 0233 38       		.byte	0x38
 1053 0234 09       		.uleb128 0x9
 1054 0235 A1060000 		.4byte	.LASF46
 1055 0239 09       		.byte	0x9
 1056 023a 3401     		.2byte	0x134
 1057 023c 2B010000 		.4byte	0x12b
 1058 0240 3C       		.byte	0x3c
 1059 0241 09       		.uleb128 0x9
 1060 0242 0E010000 		.4byte	.LASF47
 1061 0246 09       		.byte	0x9
 1062 0247 3A01     		.2byte	0x13a
 1063 0249 26030000 		.4byte	0x326
 1064 024d 40       		.byte	0x40
 1065 024e 00       		.byte	0
 1066 024f 03       		.uleb128 0x3
 1067 0250 75070000 		.4byte	.LASF48
ARM GAS  C:\Users\jo\AppData\Local\Temp\cc8gYp92.s 			page 20


 1068 0254 08       		.byte	0x8
 1069 0255 44       		.byte	0x44
 1070 0256 5A020000 		.4byte	0x25a
 1071 025a 06       		.uleb128 0x6
 1072 025b CD050000 		.4byte	.LASF50
 1073 025f 04       		.byte	0x4
 1074 0260 09       		.byte	0x9
 1075 0261 AC       		.byte	0xac
 1076 0262 73020000 		.4byte	0x273
 1077 0266 07       		.uleb128 0x7
 1078 0267 40040000 		.4byte	.LASF31
 1079 026b 09       		.byte	0x9
 1080 026c AD       		.byte	0xad
 1081 026d 33060000 		.4byte	0x633
 1082 0271 00       		.byte	0
 1083 0272 00       		.byte	0
 1084 0273 03       		.uleb128 0x3
 1085 0274 2B070000 		.4byte	.LASF51
 1086 0278 08       		.byte	0x8
 1087 0279 4B       		.byte	0x4b
 1088 027a 7E020000 		.4byte	0x27e
 1089 027e 06       		.uleb128 0x6
 1090 027f D7000000 		.4byte	.LASF52
 1091 0283 08       		.byte	0x8
 1092 0284 09       		.byte	0x9
 1093 0285 B3       		.byte	0xb3
 1094 0286 A3020000 		.4byte	0x2a3
 1095 028a 07       		.uleb128 0x7
 1096 028b 40040000 		.4byte	.LASF31
 1097 028f 09       		.byte	0x9
 1098 0290 B4       		.byte	0xb4
 1099 0291 33060000 		.4byte	0x633
 1100 0295 00       		.byte	0
 1101 0296 07       		.uleb128 0x7
 1102 0297 B0030000 		.4byte	.LASF32
 1103 029b 09       		.byte	0x9
 1104 029c B5       		.byte	0xb5
 1105 029d 33060000 		.4byte	0x633
 1106 02a1 04       		.byte	0x4
 1107 02a2 00       		.byte	0
 1108 02a3 03       		.uleb128 0x3
 1109 02a4 15070000 		.4byte	.LASF53
 1110 02a8 08       		.byte	0x8
 1111 02a9 52       		.byte	0x52
 1112 02aa AE020000 		.4byte	0x2ae
 1113 02ae 0A       		.uleb128 0xa
 1114 02af 63020000 		.4byte	.LASF54
 1115 02b3 1C       		.byte	0x1c
 1116 02b4 09       		.byte	0x9
 1117 02b5 7201     		.2byte	0x172
 1118 02b7 0A030000 		.4byte	0x30a
 1119 02bb 09       		.uleb128 0x9
 1120 02bc C5050000 		.4byte	.LASF55
 1121 02c0 09       		.byte	0x9
 1122 02c1 7301     		.2byte	0x173
 1123 02c3 73020000 		.4byte	0x273
 1124 02c7 00       		.byte	0
ARM GAS  C:\Users\jo\AppData\Local\Temp\cc8gYp92.s 			page 21


 1125 02c8 09       		.uleb128 0x9
 1126 02c9 32040000 		.4byte	.LASF56
 1127 02cd 09       		.byte	0x9
 1128 02ce 7401     		.2byte	0x174
 1129 02d0 2B010000 		.4byte	0x12b
 1130 02d4 08       		.byte	0x8
 1131 02d5 09       		.uleb128 0x9
 1132 02d6 50030000 		.4byte	.LASF57
 1133 02da 09       		.byte	0x9
 1134 02db 7601     		.2byte	0x176
 1135 02dd 79040000 		.4byte	0x479
 1136 02e1 0C       		.byte	0xc
 1137 02e2 09       		.uleb128 0x9
 1138 02e3 8D010000 		.4byte	.LASF58
 1139 02e7 09       		.byte	0x9
 1140 02e8 7901     		.2byte	0x179
 1141 02ea 33060000 		.4byte	0x633
 1142 02ee 10       		.byte	0x10
 1143 02ef 09       		.uleb128 0x9
 1144 02f0 83030000 		.4byte	.LASF59
 1145 02f4 09       		.byte	0x9
 1146 02f5 7A01     		.2byte	0x17a
 1147 02f7 33060000 		.4byte	0x633
 1148 02fb 14       		.byte	0x14
 1149 02fc 09       		.uleb128 0x9
 1150 02fd 79030000 		.4byte	.LASF60
 1151 0301 09       		.byte	0x9
 1152 0302 7D01     		.2byte	0x17d
 1153 0304 33060000 		.4byte	0x633
 1154 0308 18       		.byte	0x18
 1155 0309 00       		.byte	0
 1156 030a 03       		.uleb128 0x3
 1157 030b AC060000 		.4byte	.LASF61
 1158 030f 08       		.byte	0x8
 1159 0310 57       		.byte	0x57
 1160 0311 15030000 		.4byte	0x315
 1161 0315 0B       		.uleb128 0xb
 1162 0316 04       		.byte	0x4
 1163 0317 1B030000 		.4byte	0x31b
 1164 031b 0C       		.uleb128 0xc
 1165 031c 26030000 		.4byte	0x326
 1166 0320 0D       		.uleb128 0xd
 1167 0321 26030000 		.4byte	0x326
 1168 0325 00       		.byte	0
 1169 0326 0E       		.uleb128 0xe
 1170 0327 04       		.byte	0x4
 1171 0328 03       		.uleb128 0x3
 1172 0329 A0030000 		.4byte	.LASF62
 1173 032d 08       		.byte	0x8
 1174 032e 5C       		.byte	0x5c
 1175 032f 33030000 		.4byte	0x333
 1176 0333 0A       		.uleb128 0xa
 1177 0334 9B050000 		.4byte	.LASF63
 1178 0338 14       		.byte	0x14
 1179 0339 09       		.byte	0x9
 1180 033a 4D01     		.2byte	0x14d
 1181 033c 82030000 		.4byte	0x382
ARM GAS  C:\Users\jo\AppData\Local\Temp\cc8gYp92.s 			page 22


 1182 0340 09       		.uleb128 0x9
 1183 0341 EB010000 		.4byte	.LASF64
 1184 0345 09       		.byte	0x9
 1185 0346 4E01     		.2byte	0x14e
 1186 0348 A8060000 		.4byte	0x6a8
 1187 034c 00       		.byte	0
 1188 034d 09       		.uleb128 0x9
 1189 034e A3010000 		.4byte	.LASF65
 1190 0352 09       		.byte	0x9
 1191 0353 4F01     		.2byte	0x14f
 1192 0355 A8060000 		.4byte	0x6a8
 1193 0359 04       		.byte	0x4
 1194 035a 09       		.uleb128 0x9
 1195 035b FC010000 		.4byte	.LASF66
 1196 035f 09       		.byte	0x9
 1197 0360 5001     		.2byte	0x150
 1198 0362 4C010000 		.4byte	0x14c
 1199 0366 08       		.byte	0x8
 1200 0367 09       		.uleb128 0x9
 1201 0368 AF070000 		.4byte	.LASF67
 1202 036c 09       		.byte	0x9
 1203 036d 5101     		.2byte	0x151
 1204 036f 0A030000 		.4byte	0x30a
 1205 0373 0C       		.byte	0xc
 1206 0374 09       		.uleb128 0x9
 1207 0375 08070000 		.4byte	.LASF68
 1208 0379 09       		.byte	0x9
 1209 037a 5301     		.2byte	0x153
 1210 037c 26030000 		.4byte	0x326
 1211 0380 10       		.byte	0x10
 1212 0381 00       		.byte	0
 1213 0382 03       		.uleb128 0x3
 1214 0383 A6000000 		.4byte	.LASF69
 1215 0387 08       		.byte	0x8
 1216 0388 61       		.byte	0x61
 1217 0389 8D030000 		.4byte	0x38d
 1218 038d 0A       		.uleb128 0xa
 1219 038e 08030000 		.4byte	.LASF70
 1220 0392 10       		.byte	0x10
 1221 0393 09       		.byte	0x9
 1222 0394 5D01     		.2byte	0x15d
 1223 0396 CF030000 		.4byte	0x3cf
 1224 039a 09       		.uleb128 0x9
 1225 039b EB010000 		.4byte	.LASF64
 1226 039f 09       		.byte	0x9
 1227 03a0 5E01     		.2byte	0x15e
 1228 03a2 A8060000 		.4byte	0x6a8
 1229 03a6 00       		.byte	0
 1230 03a7 09       		.uleb128 0x9
 1231 03a8 A3010000 		.4byte	.LASF65
 1232 03ac 09       		.byte	0x9
 1233 03ad 6001     		.2byte	0x160
 1234 03af A8060000 		.4byte	0x6a8
 1235 03b3 04       		.byte	0x4
 1236 03b4 09       		.uleb128 0x9
 1237 03b5 FC010000 		.4byte	.LASF66
 1238 03b9 09       		.byte	0x9
ARM GAS  C:\Users\jo\AppData\Local\Temp\cc8gYp92.s 			page 23


 1239 03ba 6201     		.2byte	0x162
 1240 03bc 4C010000 		.4byte	0x14c
 1241 03c0 08       		.byte	0x8
 1242 03c1 09       		.uleb128 0x9
 1243 03c2 3C030000 		.4byte	.LASF71
 1244 03c6 09       		.byte	0x9
 1245 03c7 6A01     		.2byte	0x16a
 1246 03c9 4C010000 		.4byte	0x14c
 1247 03cd 0C       		.byte	0xc
 1248 03ce 00       		.byte	0
 1249 03cf 03       		.uleb128 0x3
 1250 03d0 4D000000 		.4byte	.LASF72
 1251 03d4 08       		.byte	0x8
 1252 03d5 66       		.byte	0x66
 1253 03d6 DA030000 		.4byte	0x3da
 1254 03da 0A       		.uleb128 0xa
 1255 03db CA030000 		.4byte	.LASF73
 1256 03df 04       		.byte	0x4
 1257 03e0 09       		.byte	0x9
 1258 03e1 8401     		.2byte	0x184
 1259 03e3 F5030000 		.4byte	0x3f5
 1260 03e7 09       		.uleb128 0x9
 1261 03e8 C0060000 		.4byte	.LASF74
 1262 03ec 09       		.byte	0x9
 1263 03ed 8C01     		.2byte	0x18c
 1264 03ef AE060000 		.4byte	0x6ae
 1265 03f3 00       		.byte	0
 1266 03f4 00       		.byte	0
 1267 03f5 03       		.uleb128 0x3
 1268 03f6 ED060000 		.4byte	.LASF75
 1269 03fa 08       		.byte	0x8
 1270 03fb 6B       		.byte	0x6b
 1271 03fc 00040000 		.4byte	0x400
 1272 0400 0F       		.uleb128 0xf
 1273 0401 4C010000 		.4byte	.LASF76
 1274 0405 D801     		.2byte	0x1d8
 1275 0407 09       		.byte	0x9
 1276 0408 A401     		.2byte	0x1a4
 1277 040a 5C040000 		.4byte	0x45c
 1278 040e 09       		.uleb128 0x9
 1279 040f 50070000 		.4byte	.LASF77
 1280 0413 09       		.byte	0x9
 1281 0414 A801     		.2byte	0x1a8
 1282 0416 A3020000 		.4byte	0x2a3
 1283 041a 00       		.byte	0
 1284 041b 09       		.uleb128 0x9
 1285 041c 37010000 		.4byte	.LASF78
 1286 0420 09       		.byte	0x9
 1287 0421 AC01     		.2byte	0x1ac
 1288 0423 82030000 		.4byte	0x382
 1289 0427 1C       		.byte	0x1c
 1290 0428 08       		.uleb128 0x8
 1291 0429 64626700 		.ascii	"dbg\000"
 1292 042d 09       		.byte	0x9
 1293 042e B001     		.2byte	0x1b0
 1294 0430 CF030000 		.4byte	0x3cf
 1295 0434 2C       		.byte	0x2c
ARM GAS  C:\Users\jo\AppData\Local\Temp\cc8gYp92.s 			page 24


 1296 0435 09       		.uleb128 0x9
 1297 0436 9B000000 		.4byte	.LASF79
 1298 043a 09       		.byte	0x9
 1299 043b B401     		.2byte	0x1b4
 1300 043d 57010000 		.4byte	0x157
 1301 0441 30       		.byte	0x30
 1302 0442 08       		.uleb128 0x8
 1303 0443 746D00   		.ascii	"tm\000"
 1304 0446 09       		.byte	0x9
 1305 0447 B901     		.2byte	0x1b9
 1306 0449 28060000 		.4byte	0x628
 1307 044d 74       		.byte	0x74
 1308 044e 09       		.uleb128 0x9
 1309 044f C8010000 		.4byte	.LASF80
 1310 0453 09       		.byte	0x9
 1311 0454 C501     		.2byte	0x1c5
 1312 0456 B3060000 		.4byte	0x6b3
 1313 045a 78       		.byte	0x78
 1314 045b 00       		.byte	0
 1315 045c 04       		.uleb128 0x4
 1316 045d 04       		.byte	0x4
 1317 045e 07       		.byte	0x7
 1318 045f DF020000 		.4byte	.LASF81
 1319 0463 03       		.uleb128 0x3
 1320 0464 9A010000 		.4byte	.LASF82
 1321 0468 0A       		.byte	0xa
 1322 0469 85       		.byte	0x85
 1323 046a 26030000 		.4byte	0x326
 1324 046e 03       		.uleb128 0x3
 1325 046f 87020000 		.4byte	.LASF83
 1326 0473 0A       		.byte	0xa
 1327 0474 8D       		.byte	0x8d
 1328 0475 EF000000 		.4byte	0xef
 1329 0479 06       		.uleb128 0x6
 1330 047a E5060000 		.4byte	.LASF84
 1331 047e 04       		.byte	0x4
 1332 047f 0A       		.byte	0xa
 1333 0480 A9       		.byte	0xa9
 1334 0481 92040000 		.4byte	0x492
 1335 0485 10       		.uleb128 0x10
 1336 0486 72313300 		.ascii	"r13\000"
 1337 048a 0A       		.byte	0xa
 1338 048b AA       		.byte	0xaa
 1339 048c D3050000 		.4byte	0x5d3
 1340 0490 00       		.byte	0
 1341 0491 00       		.byte	0
 1342 0492 06       		.uleb128 0x6
 1343 0493 39000000 		.4byte	.LASF85
 1344 0497 64       		.byte	0x64
 1345 0498 0B       		.byte	0xb
 1346 0499 F4       		.byte	0xf4
 1347 049a D3050000 		.4byte	0x5d3
 1348 049e 10       		.uleb128 0x10
 1349 049f 73313600 		.ascii	"s16\000"
 1350 04a3 0B       		.byte	0xb
 1351 04a4 F6       		.byte	0xf6
 1352 04a5 63040000 		.4byte	0x463
ARM GAS  C:\Users\jo\AppData\Local\Temp\cc8gYp92.s 			page 25


 1353 04a9 00       		.byte	0
 1354 04aa 10       		.uleb128 0x10
 1355 04ab 73313700 		.ascii	"s17\000"
 1356 04af 0B       		.byte	0xb
 1357 04b0 F7       		.byte	0xf7
 1358 04b1 63040000 		.4byte	0x463
 1359 04b5 04       		.byte	0x4
 1360 04b6 10       		.uleb128 0x10
 1361 04b7 73313800 		.ascii	"s18\000"
 1362 04bb 0B       		.byte	0xb
 1363 04bc F8       		.byte	0xf8
 1364 04bd 63040000 		.4byte	0x463
 1365 04c1 08       		.byte	0x8
 1366 04c2 10       		.uleb128 0x10
 1367 04c3 73313900 		.ascii	"s19\000"
 1368 04c7 0B       		.byte	0xb
 1369 04c8 F9       		.byte	0xf9
 1370 04c9 63040000 		.4byte	0x463
 1371 04cd 0C       		.byte	0xc
 1372 04ce 10       		.uleb128 0x10
 1373 04cf 73323000 		.ascii	"s20\000"
 1374 04d3 0B       		.byte	0xb
 1375 04d4 FA       		.byte	0xfa
 1376 04d5 63040000 		.4byte	0x463
 1377 04d9 10       		.byte	0x10
 1378 04da 10       		.uleb128 0x10
 1379 04db 73323100 		.ascii	"s21\000"
 1380 04df 0B       		.byte	0xb
 1381 04e0 FB       		.byte	0xfb
 1382 04e1 63040000 		.4byte	0x463
 1383 04e5 14       		.byte	0x14
 1384 04e6 10       		.uleb128 0x10
 1385 04e7 73323200 		.ascii	"s22\000"
 1386 04eb 0B       		.byte	0xb
 1387 04ec FC       		.byte	0xfc
 1388 04ed 63040000 		.4byte	0x463
 1389 04f1 18       		.byte	0x18
 1390 04f2 10       		.uleb128 0x10
 1391 04f3 73323300 		.ascii	"s23\000"
 1392 04f7 0B       		.byte	0xb
 1393 04f8 FD       		.byte	0xfd
 1394 04f9 63040000 		.4byte	0x463
 1395 04fd 1C       		.byte	0x1c
 1396 04fe 10       		.uleb128 0x10
 1397 04ff 73323400 		.ascii	"s24\000"
 1398 0503 0B       		.byte	0xb
 1399 0504 FE       		.byte	0xfe
 1400 0505 63040000 		.4byte	0x463
 1401 0509 20       		.byte	0x20
 1402 050a 10       		.uleb128 0x10
 1403 050b 73323500 		.ascii	"s25\000"
 1404 050f 0B       		.byte	0xb
 1405 0510 FF       		.byte	0xff
 1406 0511 63040000 		.4byte	0x463
 1407 0515 24       		.byte	0x24
 1408 0516 08       		.uleb128 0x8
 1409 0517 73323600 		.ascii	"s26\000"
ARM GAS  C:\Users\jo\AppData\Local\Temp\cc8gYp92.s 			page 26


 1410 051b 0B       		.byte	0xb
 1411 051c 0001     		.2byte	0x100
 1412 051e 63040000 		.4byte	0x463
 1413 0522 28       		.byte	0x28
 1414 0523 08       		.uleb128 0x8
 1415 0524 73323700 		.ascii	"s27\000"
 1416 0528 0B       		.byte	0xb
 1417 0529 0101     		.2byte	0x101
 1418 052b 63040000 		.4byte	0x463
 1419 052f 2C       		.byte	0x2c
 1420 0530 08       		.uleb128 0x8
 1421 0531 73323800 		.ascii	"s28\000"
 1422 0535 0B       		.byte	0xb
 1423 0536 0201     		.2byte	0x102
 1424 0538 63040000 		.4byte	0x463
 1425 053c 30       		.byte	0x30
 1426 053d 08       		.uleb128 0x8
 1427 053e 73323900 		.ascii	"s29\000"
 1428 0542 0B       		.byte	0xb
 1429 0543 0301     		.2byte	0x103
 1430 0545 63040000 		.4byte	0x463
 1431 0549 34       		.byte	0x34
 1432 054a 08       		.uleb128 0x8
 1433 054b 73333000 		.ascii	"s30\000"
 1434 054f 0B       		.byte	0xb
 1435 0550 0401     		.2byte	0x104
 1436 0552 63040000 		.4byte	0x463
 1437 0556 38       		.byte	0x38
 1438 0557 08       		.uleb128 0x8
 1439 0558 73333100 		.ascii	"s31\000"
 1440 055c 0B       		.byte	0xb
 1441 055d 0501     		.2byte	0x105
 1442 055f 63040000 		.4byte	0x463
 1443 0563 3C       		.byte	0x3c
 1444 0564 08       		.uleb128 0x8
 1445 0565 723400   		.ascii	"r4\000"
 1446 0568 0B       		.byte	0xb
 1447 0569 0701     		.2byte	0x107
 1448 056b 63040000 		.4byte	0x463
 1449 056f 40       		.byte	0x40
 1450 0570 08       		.uleb128 0x8
 1451 0571 723500   		.ascii	"r5\000"
 1452 0574 0B       		.byte	0xb
 1453 0575 0801     		.2byte	0x108
 1454 0577 63040000 		.4byte	0x463
 1455 057b 44       		.byte	0x44
 1456 057c 08       		.uleb128 0x8
 1457 057d 723600   		.ascii	"r6\000"
 1458 0580 0B       		.byte	0xb
 1459 0581 0901     		.2byte	0x109
 1460 0583 63040000 		.4byte	0x463
 1461 0587 48       		.byte	0x48
 1462 0588 08       		.uleb128 0x8
 1463 0589 723700   		.ascii	"r7\000"
 1464 058c 0B       		.byte	0xb
 1465 058d 0A01     		.2byte	0x10a
 1466 058f 63040000 		.4byte	0x463
ARM GAS  C:\Users\jo\AppData\Local\Temp\cc8gYp92.s 			page 27


 1467 0593 4C       		.byte	0x4c
 1468 0594 08       		.uleb128 0x8
 1469 0595 723800   		.ascii	"r8\000"
 1470 0598 0B       		.byte	0xb
 1471 0599 0B01     		.2byte	0x10b
 1472 059b 63040000 		.4byte	0x463
 1473 059f 50       		.byte	0x50
 1474 05a0 08       		.uleb128 0x8
 1475 05a1 723900   		.ascii	"r9\000"
 1476 05a4 0B       		.byte	0xb
 1477 05a5 0C01     		.2byte	0x10c
 1478 05a7 63040000 		.4byte	0x463
 1479 05ab 54       		.byte	0x54
 1480 05ac 08       		.uleb128 0x8
 1481 05ad 72313000 		.ascii	"r10\000"
 1482 05b1 0B       		.byte	0xb
 1483 05b2 0D01     		.2byte	0x10d
 1484 05b4 63040000 		.4byte	0x463
 1485 05b8 58       		.byte	0x58
 1486 05b9 08       		.uleb128 0x8
 1487 05ba 72313100 		.ascii	"r11\000"
 1488 05be 0B       		.byte	0xb
 1489 05bf 0E01     		.2byte	0x10e
 1490 05c1 63040000 		.4byte	0x463
 1491 05c5 5C       		.byte	0x5c
 1492 05c6 08       		.uleb128 0x8
 1493 05c7 6C7200   		.ascii	"lr\000"
 1494 05ca 0B       		.byte	0xb
 1495 05cb 0F01     		.2byte	0x10f
 1496 05cd 63040000 		.4byte	0x463
 1497 05d1 60       		.byte	0x60
 1498 05d2 00       		.byte	0
 1499 05d3 0B       		.uleb128 0xb
 1500 05d4 04       		.byte	0x4
 1501 05d5 92040000 		.4byte	0x492
 1502 05d9 03       		.uleb128 0x3
 1503 05da 25030000 		.4byte	.LASF86
 1504 05de 0C       		.byte	0xc
 1505 05df 28       		.byte	0x28
 1506 05e0 E4050000 		.4byte	0x5e4
 1507 05e4 06       		.uleb128 0x6
 1508 05e5 68010000 		.4byte	.LASF87
 1509 05e9 04       		.byte	0x4
 1510 05ea 0D       		.byte	0xd
 1511 05eb 00       		.byte	0
 1512 05ec FB050000 		.4byte	0x5fb
 1513 05f0 11       		.uleb128 0x11
 1514 05f1 E0060000 		.4byte	.LASF91
 1515 05f5 26030000 		.4byte	0x326
 1516 05f9 00       		.byte	0
 1517 05fa 00       		.byte	0
 1518 05fb 0B       		.uleb128 0xb
 1519 05fc 04       		.byte	0x4
 1520 05fd 01060000 		.4byte	0x601
 1521 0601 04       		.uleb128 0x4
 1522 0602 01       		.byte	0x1
 1523 0603 08       		.byte	0x8
ARM GAS  C:\Users\jo\AppData\Local\Temp\cc8gYp92.s 			page 28


 1524 0604 EF050000 		.4byte	.LASF88
 1525 0608 0B       		.uleb128 0xb
 1526 0609 04       		.byte	0x4
 1527 060a 0E060000 		.4byte	0x60e
 1528 060e 12       		.uleb128 0x12
 1529 060f 01060000 		.4byte	0x601
 1530 0613 13       		.uleb128 0x13
 1531 0614 04       		.byte	0x4
 1532 0615 0E       		.byte	0xe
 1533 0616 38       		.byte	0x38
 1534 0617 28060000 		.4byte	0x628
 1535 061b 07       		.uleb128 0x7
 1536 061c CA060000 		.4byte	.LASF89
 1537 0620 0E       		.byte	0xe
 1538 0621 3C       		.byte	0x3c
 1539 0622 FF000000 		.4byte	0xff
 1540 0626 00       		.byte	0
 1541 0627 00       		.byte	0
 1542 0628 03       		.uleb128 0x3
 1543 0629 56030000 		.4byte	.LASF90
 1544 062d 0E       		.byte	0xe
 1545 062e 3D       		.byte	0x3d
 1546 062f 13060000 		.4byte	0x613
 1547 0633 0B       		.uleb128 0xb
 1548 0634 04       		.byte	0x4
 1549 0635 57010000 		.4byte	0x157
 1550 0639 14       		.uleb128 0x14
 1551 063a 04       		.byte	0x4
 1552 063b 09       		.byte	0x9
 1553 063c F6       		.byte	0xf6
 1554 063d 71060000 		.4byte	0x671
 1555 0641 15       		.uleb128 0x15
 1556 0642 3B070000 		.4byte	.LASF92
 1557 0646 09       		.byte	0x9
 1558 0647 FD       		.byte	0xfd
 1559 0648 36010000 		.4byte	0x136
 1560 064c 16       		.uleb128 0x16
 1561 064d 92000000 		.4byte	.LASF93
 1562 0651 09       		.byte	0x9
 1563 0652 0401     		.2byte	0x104
 1564 0654 36010000 		.4byte	0x136
 1565 0658 16       		.uleb128 0x16
 1566 0659 6E070000 		.4byte	.LASF94
 1567 065d 09       		.byte	0x9
 1568 065e 0B01     		.2byte	0x10b
 1569 0660 26030000 		.4byte	0x326
 1570 0664 16       		.uleb128 0x16
 1571 0665 39040000 		.4byte	.LASF95
 1572 0669 09       		.byte	0x9
 1573 066a 1201     		.2byte	0x112
 1574 066c 41010000 		.4byte	0x141
 1575 0670 00       		.byte	0
 1576 0671 06       		.uleb128 0x6
 1577 0672 C4030000 		.4byte	.LASF96
 1578 0676 10       		.byte	0x10
 1579 0677 0F       		.byte	0xf
 1580 0678 39       		.byte	0x39
ARM GAS  C:\Users\jo\AppData\Local\Temp\cc8gYp92.s 			page 29


 1581 0679 A2060000 		.4byte	0x6a2
 1582 067d 07       		.uleb128 0x7
 1583 067e F6030000 		.4byte	.LASF97
 1584 0682 0F       		.byte	0xf
 1585 0683 3A       		.byte	0x3a
 1586 0684 73020000 		.4byte	0x273
 1587 0688 00       		.byte	0
 1588 0689 07       		.uleb128 0x7
 1589 068a A1070000 		.4byte	.LASF98
 1590 068e 0F       		.byte	0xf
 1591 068f 3C       		.byte	0x3c
 1592 0690 33060000 		.4byte	0x633
 1593 0694 08       		.byte	0x8
 1594 0695 07       		.uleb128 0x7
 1595 0696 90060000 		.4byte	.LASF99
 1596 069a 0F       		.byte	0xf
 1597 069b 3E       		.byte	0x3e
 1598 069c E3060000 		.4byte	0x6e3
 1599 06a0 0C       		.byte	0xc
 1600 06a1 00       		.byte	0
 1601 06a2 0B       		.uleb128 0xb
 1602 06a3 04       		.byte	0x4
 1603 06a4 71060000 		.4byte	0x671
 1604 06a8 0B       		.uleb128 0xb
 1605 06a9 04       		.byte	0x4
 1606 06aa 28030000 		.4byte	0x328
 1607 06ae 05       		.uleb128 0x5
 1608 06af 08060000 		.4byte	0x608
 1609 06b3 17       		.uleb128 0x17
 1610 06b4 6E040000 		.4byte	0x46e
 1611 06b8 C3060000 		.4byte	0x6c3
 1612 06bc 18       		.uleb128 0x18
 1613 06bd 5C040000 		.4byte	0x45c
 1614 06c1 2B       		.byte	0x2b
 1615 06c2 00       		.byte	0
 1616 06c3 0B       		.uleb128 0xb
 1617 06c4 04       		.byte	0x4
 1618 06c5 C9060000 		.4byte	0x6c9
 1619 06c9 19       		.uleb128 0x19
 1620 06ca 36010000 		.4byte	0x136
 1621 06ce D8060000 		.4byte	0x6d8
 1622 06d2 0D       		.uleb128 0xd
 1623 06d3 26030000 		.4byte	0x326
 1624 06d7 00       		.byte	0
 1625 06d8 03       		.uleb128 0x3
 1626 06d9 AB010000 		.4byte	.LASF100
 1627 06dd 0F       		.byte	0xf
 1628 06de 34       		.byte	0x34
 1629 06df 71060000 		.4byte	0x671
 1630 06e3 0B       		.uleb128 0xb
 1631 06e4 04       		.byte	0x4
 1632 06e5 D8060000 		.4byte	0x6d8
 1633 06e9 0B       		.uleb128 0xb
 1634 06ea 04       		.byte	0x4
 1635 06eb C3000000 		.4byte	0xc3
 1636 06ef 06       		.uleb128 0x6
 1637 06f0 60050000 		.4byte	.LASF101
ARM GAS  C:\Users\jo\AppData\Local\Temp\cc8gYp92.s 			page 30


 1638 06f4 10       		.byte	0x10
 1639 06f5 10       		.byte	0x10
 1640 06f6 40       		.byte	0x40
 1641 06f7 2C070000 		.4byte	0x72c
 1642 06fb 07       		.uleb128 0x7
 1643 06fc B8020000 		.4byte	.LASF102
 1644 0700 10       		.byte	0x10
 1645 0701 41       		.byte	0x41
 1646 0702 50070000 		.4byte	0x750
 1647 0706 00       		.byte	0
 1648 0707 07       		.uleb128 0x7
 1649 0708 4B020000 		.4byte	.LASF103
 1650 070c 10       		.byte	0x10
 1651 070d 41       		.byte	0x41
 1652 070e 6F070000 		.4byte	0x76f
 1653 0712 04       		.byte	0x4
 1654 0713 10       		.uleb128 0x10
 1655 0714 70757400 		.ascii	"put\000"
 1656 0718 10       		.byte	0x10
 1657 0719 41       		.byte	0x41
 1658 071a 89070000 		.4byte	0x789
 1659 071e 08       		.byte	0x8
 1660 071f 10       		.uleb128 0x10
 1661 0720 67657400 		.ascii	"get\000"
 1662 0724 10       		.byte	0x10
 1663 0725 41       		.byte	0x41
 1664 0726 C3060000 		.4byte	0x6c3
 1665 072a 0C       		.byte	0xc
 1666 072b 00       		.byte	0
 1667 072c 19       		.uleb128 0x19
 1668 072d 2C000000 		.4byte	0x2c
 1669 0731 45070000 		.4byte	0x745
 1670 0735 0D       		.uleb128 0xd
 1671 0736 26030000 		.4byte	0x326
 1672 073a 0D       		.uleb128 0xd
 1673 073b 45070000 		.4byte	0x745
 1674 073f 0D       		.uleb128 0xd
 1675 0740 2C000000 		.4byte	0x2c
 1676 0744 00       		.byte	0
 1677 0745 0B       		.uleb128 0xb
 1678 0746 04       		.byte	0x4
 1679 0747 4B070000 		.4byte	0x74b
 1680 074b 12       		.uleb128 0x12
 1681 074c C3000000 		.4byte	0xc3
 1682 0750 0B       		.uleb128 0xb
 1683 0751 04       		.byte	0x4
 1684 0752 2C070000 		.4byte	0x72c
 1685 0756 19       		.uleb128 0x19
 1686 0757 2C000000 		.4byte	0x2c
 1687 075b 6F070000 		.4byte	0x76f
 1688 075f 0D       		.uleb128 0xd
 1689 0760 26030000 		.4byte	0x326
 1690 0764 0D       		.uleb128 0xd
 1691 0765 E9060000 		.4byte	0x6e9
 1692 0769 0D       		.uleb128 0xd
 1693 076a 2C000000 		.4byte	0x2c
 1694 076e 00       		.byte	0
ARM GAS  C:\Users\jo\AppData\Local\Temp\cc8gYp92.s 			page 31


 1695 076f 0B       		.uleb128 0xb
 1696 0770 04       		.byte	0x4
 1697 0771 56070000 		.4byte	0x756
 1698 0775 19       		.uleb128 0x19
 1699 0776 36010000 		.4byte	0x136
 1700 077a 89070000 		.4byte	0x789
 1701 077e 0D       		.uleb128 0xd
 1702 077f 26030000 		.4byte	0x326
 1703 0783 0D       		.uleb128 0xd
 1704 0784 C3000000 		.4byte	0xc3
 1705 0788 00       		.byte	0
 1706 0789 0B       		.uleb128 0xb
 1707 078a 04       		.byte	0x4
 1708 078b 75070000 		.4byte	0x775
 1709 078f 13       		.uleb128 0x13
 1710 0790 04       		.byte	0x4
 1711 0791 10       		.byte	0x10
 1712 0792 49       		.byte	0x49
 1713 0793 A4070000 		.4byte	0x7a4
 1714 0797 10       		.uleb128 0x10
 1715 0798 766D7400 		.ascii	"vmt\000"
 1716 079c 10       		.byte	0x10
 1717 079d 4B       		.byte	0x4b
 1718 079e A4070000 		.4byte	0x7a4
 1719 07a2 00       		.byte	0
 1720 07a3 00       		.byte	0
 1721 07a4 0B       		.uleb128 0xb
 1722 07a5 04       		.byte	0x4
 1723 07a6 AA070000 		.4byte	0x7aa
 1724 07aa 12       		.uleb128 0x12
 1725 07ab EF060000 		.4byte	0x6ef
 1726 07af 03       		.uleb128 0x3
 1727 07b0 B3010000 		.4byte	.LASF104
 1728 07b4 10       		.byte	0x10
 1729 07b5 4D       		.byte	0x4d
 1730 07b6 8F070000 		.4byte	0x78f
 1731 07ba 04       		.uleb128 0x4
 1732 07bb 01       		.byte	0x1
 1733 07bc 02       		.byte	0x2
 1734 07bd DA030000 		.4byte	.LASF105
 1735 07c1 06       		.uleb128 0x6
 1736 07c2 7A060000 		.4byte	.LASF106
 1737 07c6 10       		.byte	0x10
 1738 07c7 11       		.byte	0x11
 1739 07c8 2E       		.byte	0x2e
 1740 07c9 FE070000 		.4byte	0x7fe
 1741 07cd 07       		.uleb128 0x7
 1742 07ce B8020000 		.4byte	.LASF102
 1743 07d2 11       		.byte	0x11
 1744 07d3 2F       		.byte	0x2f
 1745 07d4 50070000 		.4byte	0x750
 1746 07d8 00       		.byte	0
 1747 07d9 07       		.uleb128 0x7
 1748 07da 4B020000 		.4byte	.LASF103
 1749 07de 11       		.byte	0x11
 1750 07df 2F       		.byte	0x2f
 1751 07e0 6F070000 		.4byte	0x76f
ARM GAS  C:\Users\jo\AppData\Local\Temp\cc8gYp92.s 			page 32


 1752 07e4 04       		.byte	0x4
 1753 07e5 10       		.uleb128 0x10
 1754 07e6 70757400 		.ascii	"put\000"
 1755 07ea 11       		.byte	0x11
 1756 07eb 2F       		.byte	0x2f
 1757 07ec 89070000 		.4byte	0x789
 1758 07f0 08       		.byte	0x8
 1759 07f1 10       		.uleb128 0x10
 1760 07f2 67657400 		.ascii	"get\000"
 1761 07f6 11       		.byte	0x11
 1762 07f7 2F       		.byte	0x2f
 1763 07f8 C3060000 		.4byte	0x6c3
 1764 07fc 0C       		.byte	0xc
 1765 07fd 00       		.byte	0
 1766 07fe 13       		.uleb128 0x13
 1767 07ff 04       		.byte	0x4
 1768 0800 11       		.byte	0x11
 1769 0801 39       		.byte	0x39
 1770 0802 13080000 		.4byte	0x813
 1771 0806 10       		.uleb128 0x10
 1772 0807 766D7400 		.ascii	"vmt\000"
 1773 080b 11       		.byte	0x11
 1774 080c 3B       		.byte	0x3b
 1775 080d 13080000 		.4byte	0x813
 1776 0811 00       		.byte	0
 1777 0812 00       		.byte	0
 1778 0813 0B       		.uleb128 0xb
 1779 0814 04       		.byte	0x4
 1780 0815 19080000 		.4byte	0x819
 1781 0819 12       		.uleb128 0x12
 1782 081a C1070000 		.4byte	0x7c1
 1783 081e 03       		.uleb128 0x3
 1784 081f 96030000 		.4byte	.LASF107
 1785 0823 11       		.byte	0x11
 1786 0824 3D       		.byte	0x3d
 1787 0825 FE070000 		.4byte	0x7fe
 1788 0829 03       		.uleb128 0x3
 1789 082a 45000000 		.4byte	.LASF108
 1790 082e 0C       		.byte	0xc
 1791 082f 62       		.byte	0x62
 1792 0830 D9050000 		.4byte	0x5d9
 1793 0834 03       		.uleb128 0x3
 1794 0835 09010000 		.4byte	.LASF109
 1795 0839 12       		.byte	0x12
 1796 083a 3D       		.byte	0x3d
 1797 083b C3000000 		.4byte	0xc3
 1798 083f 03       		.uleb128 0x3
 1799 0840 AC050000 		.4byte	.LASF110
 1800 0844 12       		.byte	0x12
 1801 0845 3E       		.byte	0x3e
 1802 0846 B8000000 		.4byte	0xb8
 1803 084a 03       		.uleb128 0x3
 1804 084b 0F070000 		.4byte	.LASF111
 1805 084f 12       		.byte	0x12
 1806 0850 3F       		.byte	0x3f
 1807 0851 CE000000 		.4byte	0xce
 1808 0855 03       		.uleb128 0x3
ARM GAS  C:\Users\jo\AppData\Local\Temp\cc8gYp92.s 			page 33


 1809 0856 10020000 		.4byte	.LASF112
 1810 085a 12       		.byte	0x12
 1811 085b 41       		.byte	0x41
 1812 085c E4000000 		.4byte	0xe4
 1813 0860 06       		.uleb128 0x6
 1814 0861 48030000 		.4byte	.LASF113
 1815 0865 04       		.byte	0x4
 1816 0866 13       		.byte	0x13
 1817 0867 2C       		.byte	0x2c
 1818 0868 79080000 		.4byte	0x879
 1819 086c 07       		.uleb128 0x7
 1820 086d 1D010000 		.4byte	.LASF114
 1821 0871 13       		.byte	0x13
 1822 0872 2D       		.byte	0x2d
 1823 0873 55080000 		.4byte	0x855
 1824 0877 00       		.byte	0
 1825 0878 00       		.byte	0
 1826 0879 03       		.uleb128 0x3
 1827 087a C5020000 		.4byte	.LASF115
 1828 087e 13       		.byte	0x13
 1829 087f 40       		.byte	0x40
 1830 0880 60080000 		.4byte	0x860
 1831 0884 03       		.uleb128 0x3
 1832 0885 D9020000 		.4byte	.LASF116
 1833 0889 14       		.byte	0x14
 1834 088a 2F       		.byte	0x2f
 1835 088b 3F080000 		.4byte	0x83f
 1836 088f 06       		.uleb128 0x6
 1837 0890 08000000 		.4byte	.LASF117
 1838 0894 10       		.byte	0x10
 1839 0895 15       		.byte	0x15
 1840 0896 4F       		.byte	0x4f
 1841 0897 F0080000 		.4byte	0x8f0
 1842 089b 07       		.uleb128 0x7
 1843 089c D2000000 		.4byte	.LASF118
 1844 08a0 15       		.byte	0x15
 1845 08a1 51       		.byte	0x51
 1846 08a2 F0080000 		.4byte	0x8f0
 1847 08a6 00       		.byte	0
 1848 08a7 07       		.uleb128 0x7
 1849 08a8 34030000 		.4byte	.LASF119
 1850 08ac 15       		.byte	0x15
 1851 08ad 54       		.byte	0x54
 1852 08ae 26030000 		.4byte	0x326
 1853 08b2 04       		.byte	0x4
 1854 08b3 07       		.uleb128 0x7
 1855 08b4 3E010000 		.4byte	.LASF120
 1856 08b8 15       		.byte	0x15
 1857 08b9 5D       		.byte	0x5d
 1858 08ba 4A080000 		.4byte	0x84a
 1859 08be 08       		.byte	0x8
 1860 08bf 10       		.uleb128 0x10
 1861 08c0 6C656E00 		.ascii	"len\000"
 1862 08c4 15       		.byte	0x15
 1863 08c5 60       		.byte	0x60
 1864 08c6 4A080000 		.4byte	0x84a
 1865 08ca 0A       		.byte	0xa
ARM GAS  C:\Users\jo\AppData\Local\Temp\cc8gYp92.s 			page 34


 1866 08cb 07       		.uleb128 0x7
 1867 08cc 5C000000 		.4byte	.LASF121
 1868 08d0 15       		.byte	0x15
 1869 08d1 63       		.byte	0x63
 1870 08d2 34080000 		.4byte	0x834
 1871 08d6 0C       		.byte	0xc
 1872 08d7 07       		.uleb128 0x7
 1873 08d8 68070000 		.4byte	.LASF122
 1874 08dc 15       		.byte	0x15
 1875 08dd 66       		.byte	0x66
 1876 08de 34080000 		.4byte	0x834
 1877 08e2 0D       		.byte	0xd
 1878 08e3 10       		.uleb128 0x10
 1879 08e4 72656600 		.ascii	"ref\000"
 1880 08e8 15       		.byte	0x15
 1881 08e9 6D       		.byte	0x6d
 1882 08ea 4A080000 		.4byte	0x84a
 1883 08ee 0E       		.byte	0xe
 1884 08ef 00       		.byte	0
 1885 08f0 0B       		.uleb128 0xb
 1886 08f1 04       		.byte	0x4
 1887 08f2 8F080000 		.4byte	0x88f
 1888 08f6 0B       		.uleb128 0xb
 1889 08f7 04       		.byte	0x4
 1890 08f8 FC080000 		.4byte	0x8fc
 1891 08fc 06       		.uleb128 0x6
 1892 08fd 1F030000 		.4byte	.LASF123
 1893 0901 30       		.byte	0x30
 1894 0902 16       		.byte	0x16
 1895 0903 88       		.byte	0x88
 1896 0904 B0090000 		.4byte	0x9b0
 1897 0908 07       		.uleb128 0x7
 1898 0909 D2000000 		.4byte	.LASF118
 1899 090d 16       		.byte	0x16
 1900 090e 8A       		.byte	0x8a
 1901 090f F6080000 		.4byte	0x8f6
 1902 0913 00       		.byte	0
 1903 0914 07       		.uleb128 0x7
 1904 0915 48030000 		.4byte	.LASF113
 1905 0919 16       		.byte	0x16
 1906 091a 8D       		.byte	0x8d
 1907 091b 79080000 		.4byte	0x879
 1908 091f 04       		.byte	0x4
 1909 0920 07       		.uleb128 0x7
 1910 0921 85010000 		.4byte	.LASF124
 1911 0925 16       		.byte	0x16
 1912 0926 8E       		.byte	0x8e
 1913 0927 79080000 		.4byte	0x879
 1914 092b 08       		.byte	0x8
 1915 092c 10       		.uleb128 0x10
 1916 092d 677700   		.ascii	"gw\000"
 1917 0930 16       		.byte	0x16
 1918 0931 8F       		.byte	0x8f
 1919 0932 79080000 		.4byte	0x879
 1920 0936 0C       		.byte	0xc
 1921 0937 07       		.uleb128 0x7
 1922 0938 95050000 		.4byte	.LASF125
ARM GAS  C:\Users\jo\AppData\Local\Temp\cc8gYp92.s 			page 35


 1923 093c 16       		.byte	0x16
 1924 093d 93       		.byte	0x93
 1925 093e B0090000 		.4byte	0x9b0
 1926 0942 10       		.byte	0x10
 1927 0943 07       		.uleb128 0x7
 1928 0944 BE020000 		.4byte	.LASF126
 1929 0948 16       		.byte	0x16
 1930 0949 97       		.byte	0x97
 1931 094a D5090000 		.4byte	0x9d5
 1932 094e 14       		.byte	0x14
 1933 094f 07       		.uleb128 0x7
 1934 0950 8A070000 		.4byte	.LASF127
 1935 0954 16       		.byte	0x16
 1936 0955 9B       		.byte	0x9b
 1937 0956 050A0000 		.4byte	0xa05
 1938 095a 18       		.byte	0x18
 1939 095b 07       		.uleb128 0x7
 1940 095c 46010000 		.4byte	.LASF128
 1941 0960 16       		.byte	0x16
 1942 0961 AC       		.byte	0xac
 1943 0962 26030000 		.4byte	0x326
 1944 0966 1C       		.byte	0x1c
 1945 0967 10       		.uleb128 0x10
 1946 0968 6D747500 		.ascii	"mtu\000"
 1947 096c 16       		.byte	0x16
 1948 096d BA       		.byte	0xba
 1949 096e 4A080000 		.4byte	0x84a
 1950 0972 20       		.byte	0x20
 1951 0973 07       		.uleb128 0x7
 1952 0974 72010000 		.4byte	.LASF129
 1953 0978 16       		.byte	0x16
 1954 0979 BC       		.byte	0xbc
 1955 097a 34080000 		.4byte	0x834
 1956 097e 22       		.byte	0x22
 1957 097f 07       		.uleb128 0x7
 1958 0980 16010000 		.4byte	.LASF130
 1959 0984 16       		.byte	0x16
 1960 0985 BE       		.byte	0xbe
 1961 0986 2A0A0000 		.4byte	0xa2a
 1962 098a 23       		.byte	0x23
 1963 098b 07       		.uleb128 0x7
 1964 098c 68070000 		.4byte	.LASF122
 1965 0990 16       		.byte	0x16
 1966 0991 C0       		.byte	0xc0
 1967 0992 34080000 		.4byte	0x834
 1968 0996 29       		.byte	0x29
 1969 0997 07       		.uleb128 0x7
 1970 0998 16020000 		.4byte	.LASF131
 1971 099c 16       		.byte	0x16
 1972 099d C2       		.byte	0xc2
 1973 099e 3A0A0000 		.4byte	0xa3a
 1974 09a2 2A       		.byte	0x2a
 1975 09a3 10       		.uleb128 0x10
 1976 09a4 6E756D00 		.ascii	"num\000"
 1977 09a8 16       		.byte	0x16
 1978 09a9 C4       		.byte	0xc4
 1979 09aa 34080000 		.4byte	0x834
ARM GAS  C:\Users\jo\AppData\Local\Temp\cc8gYp92.s 			page 36


 1980 09ae 2C       		.byte	0x2c
 1981 09af 00       		.byte	0
 1982 09b0 03       		.uleb128 0x3
 1983 09b1 D1060000 		.4byte	.LASF132
 1984 09b5 16       		.byte	0x16
 1985 09b6 6D       		.byte	0x6d
 1986 09b7 BB090000 		.4byte	0x9bb
 1987 09bb 0B       		.uleb128 0xb
 1988 09bc 04       		.byte	0x4
 1989 09bd C1090000 		.4byte	0x9c1
 1990 09c1 19       		.uleb128 0x19
 1991 09c2 84080000 		.4byte	0x884
 1992 09c6 D5090000 		.4byte	0x9d5
 1993 09ca 0D       		.uleb128 0xd
 1994 09cb F0080000 		.4byte	0x8f0
 1995 09cf 0D       		.uleb128 0xd
 1996 09d0 F6080000 		.4byte	0x8f6
 1997 09d4 00       		.byte	0
 1998 09d5 03       		.uleb128 0x3
 1999 09d6 1A040000 		.4byte	.LASF133
 2000 09da 16       		.byte	0x16
 2001 09db 76       		.byte	0x76
 2002 09dc E0090000 		.4byte	0x9e0
 2003 09e0 0B       		.uleb128 0xb
 2004 09e1 04       		.byte	0x4
 2005 09e2 E6090000 		.4byte	0x9e6
 2006 09e6 19       		.uleb128 0x19
 2007 09e7 84080000 		.4byte	0x884
 2008 09eb FF090000 		.4byte	0x9ff
 2009 09ef 0D       		.uleb128 0xd
 2010 09f0 F6080000 		.4byte	0x8f6
 2011 09f4 0D       		.uleb128 0xd
 2012 09f5 F0080000 		.4byte	0x8f0
 2013 09f9 0D       		.uleb128 0xd
 2014 09fa FF090000 		.4byte	0x9ff
 2015 09fe 00       		.byte	0
 2016 09ff 0B       		.uleb128 0xb
 2017 0a00 04       		.byte	0x4
 2018 0a01 79080000 		.4byte	0x879
 2019 0a05 03       		.uleb128 0x3
 2020 0a06 E8020000 		.4byte	.LASF134
 2021 0a0a 16       		.byte	0x16
 2022 0a0b 7E       		.byte	0x7e
 2023 0a0c 100A0000 		.4byte	0xa10
 2024 0a10 0B       		.uleb128 0xb
 2025 0a11 04       		.byte	0x4
 2026 0a12 160A0000 		.4byte	0xa16
 2027 0a16 19       		.uleb128 0x19
 2028 0a17 84080000 		.4byte	0x884
 2029 0a1b 2A0A0000 		.4byte	0xa2a
 2030 0a1f 0D       		.uleb128 0xd
 2031 0a20 F6080000 		.4byte	0x8f6
 2032 0a24 0D       		.uleb128 0xd
 2033 0a25 F0080000 		.4byte	0x8f0
 2034 0a29 00       		.byte	0
 2035 0a2a 17       		.uleb128 0x17
 2036 0a2b 34080000 		.4byte	0x834
ARM GAS  C:\Users\jo\AppData\Local\Temp\cc8gYp92.s 			page 37


 2037 0a2f 3A0A0000 		.4byte	0xa3a
 2038 0a33 18       		.uleb128 0x18
 2039 0a34 5C040000 		.4byte	0x45c
 2040 0a38 05       		.byte	0x5
 2041 0a39 00       		.byte	0
 2042 0a3a 17       		.uleb128 0x17
 2043 0a3b 01060000 		.4byte	0x601
 2044 0a3f 4A0A0000 		.4byte	0xa4a
 2045 0a43 18       		.uleb128 0x18
 2046 0a44 5C040000 		.4byte	0x45c
 2047 0a48 01       		.byte	0x1
 2048 0a49 00       		.byte	0
 2049 0a4a 1A       		.uleb128 0x1a
 2050 0a4b AC020000 		.4byte	.LASF159
 2051 0a4f 03       		.byte	0x3
 2052 0a50 9C01     		.2byte	0x19c
 2053 0a52 03       		.byte	0x3
 2054 0a53 640A0000 		.4byte	0xa64
 2055 0a57 1B       		.uleb128 0x1b
 2056 0a58 8E050000 		.4byte	.LASF135
 2057 0a5c 03       		.byte	0x3
 2058 0a5d 9C01     		.2byte	0x19c
 2059 0a5f 08060000 		.4byte	0x608
 2060 0a63 00       		.byte	0
 2061 0a64 1C       		.uleb128 0x1c
 2062 0a65 CE070000 		.4byte	.LASF160
 2063 0a69 01       		.byte	0x1
 2064 0a6a 45       		.byte	0x45
 2065 0a6b 25000000 		.4byte	0x25
 2066 0a6f 03       		.byte	0x3
 2067 0a70 A10A0000 		.4byte	0xaa1
 2068 0a74 1D       		.uleb128 0x1d
 2069 0a75 63687000 		.ascii	"chp\000"
 2070 0a79 01       		.byte	0x1
 2071 0a7a 45       		.byte	0x45
 2072 0a7b A10A0000 		.4byte	0xaa1
 2073 0a7f 1D       		.uleb128 0x1d
 2074 0a80 666D7400 		.ascii	"fmt\000"
 2075 0a84 01       		.byte	0x1
 2076 0a85 45       		.byte	0x45
 2077 0a86 08060000 		.4byte	0x608
 2078 0a8a 1E       		.uleb128 0x1e
 2079 0a8b 1F       		.uleb128 0x1f
 2080 0a8c 617000   		.ascii	"ap\000"
 2081 0a8f 01       		.byte	0x1
 2082 0a90 46       		.byte	0x46
 2083 0a91 29080000 		.4byte	0x829
 2084 0a95 20       		.uleb128 0x20
 2085 0a96 82000000 		.4byte	.LASF136
 2086 0a9a 01       		.byte	0x1
 2087 0a9b 47       		.byte	0x47
 2088 0a9c 25000000 		.4byte	0x25
 2089 0aa0 00       		.byte	0
 2090 0aa1 0B       		.uleb128 0xb
 2091 0aa2 04       		.byte	0x4
 2092 0aa3 AF070000 		.4byte	0x7af
 2093 0aa7 21       		.uleb128 0x21
ARM GAS  C:\Users\jo\AppData\Local\Temp\cc8gYp92.s 			page 38


 2094 0aa8 640A0000 		.4byte	0xa64
 2095 0aac 00000000 		.4byte	.LFB262
 2096 0ab0 28000000 		.4byte	.LFE262-.LFB262
 2097 0ab4 01       		.uleb128 0x1
 2098 0ab5 9C       		.byte	0x9c
 2099 0ab6 060B0000 		.4byte	0xb06
 2100 0aba 22       		.uleb128 0x22
 2101 0abb 740A0000 		.4byte	0xa74
 2102 0abf 00000000 		.4byte	.LLST0
 2103 0ac3 23       		.uleb128 0x23
 2104 0ac4 7F0A0000 		.4byte	0xa7f
 2105 0ac8 02       		.uleb128 0x2
 2106 0ac9 91       		.byte	0x91
 2107 0aca 74       		.sleb128 -12
 2108 0acb 1E       		.uleb128 0x1e
 2109 0acc 24       		.uleb128 0x24
 2110 0acd 8B0A0000 		.4byte	0xa8b
 2111 0ad1 02       		.uleb128 0x2
 2112 0ad2 91       		.byte	0x91
 2113 0ad3 6C       		.sleb128 -20
 2114 0ad4 24       		.uleb128 0x24
 2115 0ad5 950A0000 		.4byte	0xa95
 2116 0ad9 01       		.uleb128 0x1
 2117 0ada 50       		.byte	0x50
 2118 0adb 23       		.uleb128 0x23
 2119 0adc 7F0A0000 		.4byte	0xa7f
 2120 0ae0 06       		.uleb128 0x6
 2121 0ae1 03       		.byte	0x3
 2122 0ae2 00000000 		.4byte	.LC0
 2123 0ae6 9F       		.byte	0x9f
 2124 0ae7 25       		.uleb128 0x25
 2125 0ae8 740A0000 		.4byte	0xa74
 2126 0aec 26       		.uleb128 0x26
 2127 0aed 14000000 		.4byte	.LVL2
 2128 0af1 8F0E0000 		.4byte	0xe8f
 2129 0af5 27       		.uleb128 0x27
 2130 0af6 01       		.uleb128 0x1
 2131 0af7 52       		.byte	0x52
 2132 0af8 02       		.uleb128 0x2
 2133 0af9 91       		.byte	0x91
 2134 0afa 60       		.sleb128 -32
 2135 0afb 27       		.uleb128 0x27
 2136 0afc 01       		.uleb128 0x1
 2137 0afd 51       		.byte	0x51
 2138 0afe 05       		.uleb128 0x5
 2139 0aff 03       		.byte	0x3
 2140 0b00 00000000 		.4byte	.LC0
 2141 0b04 00       		.byte	0
 2142 0b05 00       		.byte	0
 2143 0b06 28       		.uleb128 0x28
 2144 0b07 22010000 		.4byte	.LASF137
 2145 0b0b 02       		.byte	0x2
 2146 0b0c 37       		.byte	0x37
 2147 0b0d 34080000 		.4byte	0x834
 2148 0b11 00000000 		.4byte	.LFB256
 2149 0b15 3E000000 		.4byte	.LFE256-.LFB256
 2150 0b19 01       		.uleb128 0x1
ARM GAS  C:\Users\jo\AppData\Local\Temp\cc8gYp92.s 			page 39


 2151 0b1a 9C       		.byte	0x9c
 2152 0b1b 4B0B0000 		.4byte	0xb4b
 2153 0b1f 29       		.uleb128 0x29
 2154 0b20 1D010000 		.4byte	.LASF114
 2155 0b24 02       		.byte	0x2
 2156 0b25 37       		.byte	0x37
 2157 0b26 55080000 		.4byte	0x855
 2158 0b2a 21000000 		.4byte	.LLST1
 2159 0b2e 2A       		.uleb128 0x2a
 2160 0b2f 1F030000 		.4byte	.LASF123
 2161 0b33 02       		.byte	0x2
 2162 0b34 37       		.byte	0x37
 2163 0b35 4B0B0000 		.4byte	0xb4b
 2164 0b39 01       		.uleb128 0x1
 2165 0b3a 51       		.byte	0x51
 2166 0b3b 2B       		.uleb128 0x2b
 2167 0b3c 49070000 		.4byte	.LASF139
 2168 0b40 02       		.byte	0x2
 2169 0b41 39       		.byte	0x39
 2170 0b42 79080000 		.4byte	0x879
 2171 0b46 74000000 		.4byte	.LLST2
 2172 0b4a 00       		.byte	0
 2173 0b4b 0B       		.uleb128 0xb
 2174 0b4c 04       		.byte	0x4
 2175 0b4d 510B0000 		.4byte	0xb51
 2176 0b51 12       		.uleb128 0x12
 2177 0b52 FC080000 		.4byte	0x8fc
 2178 0b56 28       		.uleb128 0x28
 2179 0b57 B7070000 		.4byte	.LASF138
 2180 0b5b 02       		.byte	0x2
 2181 0b5c 5A       		.byte	0x5a
 2182 0b5d 34080000 		.4byte	0x834
 2183 0b61 00000000 		.4byte	.LFB257
 2184 0b65 2E000000 		.4byte	.LFE257-.LFB257
 2185 0b69 01       		.uleb128 0x1
 2186 0b6a 9C       		.byte	0x9c
 2187 0b6b AE0B0000 		.4byte	0xbae
 2188 0b6f 29       		.uleb128 0x29
 2189 0b70 85010000 		.4byte	.LASF124
 2190 0b74 02       		.byte	0x2
 2191 0b75 5A       		.byte	0x5a
 2192 0b76 55080000 		.4byte	0x855
 2193 0b7a D3000000 		.4byte	.LLST3
 2194 0b7e 2B       		.uleb128 0x2b
 2195 0b7f 95010000 		.4byte	.LASF140
 2196 0b83 02       		.byte	0x2
 2197 0b84 5C       		.byte	0x5c
 2198 0b85 55080000 		.4byte	0x855
 2199 0b89 F4000000 		.4byte	.LLST4
 2200 0b8d 2B       		.uleb128 0x2b
 2201 0b8e 38020000 		.4byte	.LASF141
 2202 0b92 02       		.byte	0x2
 2203 0b93 5D       		.byte	0x5d
 2204 0b94 55080000 		.4byte	0x855
 2205 0b98 3B010000 		.4byte	.LLST5
 2206 0b9c 26       		.uleb128 0x26
 2207 0b9d 06000000 		.4byte	.LVL10
ARM GAS  C:\Users\jo\AppData\Local\Temp\cc8gYp92.s 			page 40


 2208 0ba1 AE0E0000 		.4byte	0xeae
 2209 0ba5 27       		.uleb128 0x27
 2210 0ba6 01       		.uleb128 0x1
 2211 0ba7 50       		.byte	0x50
 2212 0ba8 03       		.uleb128 0x3
 2213 0ba9 F3       		.byte	0xf3
 2214 0baa 01       		.uleb128 0x1
 2215 0bab 50       		.byte	0x50
 2216 0bac 00       		.byte	0
 2217 0bad 00       		.byte	0
 2218 0bae 28       		.uleb128 0x28
 2219 0baf FC020000 		.4byte	.LASF142
 2220 0bb3 02       		.byte	0x2
 2221 0bb4 98       		.byte	0x98
 2222 0bb5 25000000 		.4byte	0x25
 2223 0bb9 00000000 		.4byte	.LFB259
 2224 0bbd 64010000 		.4byte	.LFE259-.LFB259
 2225 0bc1 01       		.uleb128 0x1
 2226 0bc2 9C       		.byte	0x9c
 2227 0bc3 9C0C0000 		.4byte	0xc9c
 2228 0bc7 2C       		.uleb128 0x2c
 2229 0bc8 637000   		.ascii	"cp\000"
 2230 0bcb 02       		.byte	0x2
 2231 0bcc 98       		.byte	0x98
 2232 0bcd 08060000 		.4byte	0x608
 2233 0bd1 59010000 		.4byte	.LLST6
 2234 0bd5 29       		.uleb128 0x29
 2235 0bd6 1D010000 		.4byte	.LASF114
 2236 0bda 02       		.byte	0x2
 2237 0bdb 98       		.byte	0x98
 2238 0bdc FF090000 		.4byte	0x9ff
 2239 0be0 0E020000 		.4byte	.LLST7
 2240 0be4 2D       		.uleb128 0x2d
 2241 0be5 76616C00 		.ascii	"val\000"
 2242 0be9 02       		.byte	0x2
 2243 0bea 9A       		.byte	0x9a
 2244 0beb 55080000 		.4byte	0x855
 2245 0bef 2C020000 		.4byte	.LLST8
 2246 0bf3 2B       		.uleb128 0x2b
 2247 0bf4 BF030000 		.4byte	.LASF143
 2248 0bf8 02       		.byte	0x2
 2249 0bf9 9B       		.byte	0x9b
 2250 0bfa 34080000 		.4byte	0x834
 2251 0bfe BA020000 		.4byte	.LLST9
 2252 0c02 2D       		.uleb128 0x2d
 2253 0c03 6300     		.ascii	"c\000"
 2254 0c05 02       		.byte	0x2
 2255 0c06 9C       		.byte	0x9c
 2256 0c07 01060000 		.4byte	0x601
 2257 0c0b E6020000 		.4byte	.LLST10
 2258 0c0f 2E       		.uleb128 0x2e
 2259 0c10 1D000000 		.4byte	.LASF144
 2260 0c14 02       		.byte	0x2
 2261 0c15 9D       		.byte	0x9d
 2262 0c16 9C0C0000 		.4byte	0xc9c
 2263 0c1a 02       		.uleb128 0x2
 2264 0c1b 91       		.byte	0x91
ARM GAS  C:\Users\jo\AppData\Local\Temp\cc8gYp92.s 			page 41


 2265 0c1c 50       		.sleb128 -48
 2266 0c1d 2D       		.uleb128 0x2d
 2267 0c1e 707000   		.ascii	"pp\000"
 2268 0c21 02       		.byte	0x2
 2269 0c22 9E       		.byte	0x9e
 2270 0c23 AC0C0000 		.4byte	0xcac
 2271 0c27 59030000 		.4byte	.LLST11
 2272 0c2b 2F       		.uleb128 0x2f
 2273 0c2c 4A0A0000 		.4byte	0xa4a
 2274 0c30 46010000 		.4byte	.LBB4
 2275 0c34 08000000 		.4byte	.LBE4-.LBB4
 2276 0c38 02       		.byte	0x2
 2277 0c39 F3       		.byte	0xf3
 2278 0c3a 5B0C0000 		.4byte	0xc5b
 2279 0c3e 22       		.uleb128 0x22
 2280 0c3f 570A0000 		.4byte	0xa57
 2281 0c43 A7030000 		.4byte	.LLST12
 2282 0c47 26       		.uleb128 0x26
 2283 0c48 4C010000 		.4byte	.LVL59
 2284 0c4c C30E0000 		.4byte	0xec3
 2285 0c50 27       		.uleb128 0x27
 2286 0c51 01       		.uleb128 0x1
 2287 0c52 50       		.byte	0x50
 2288 0c53 05       		.uleb128 0x5
 2289 0c54 03       		.byte	0x3
 2290 0c55 28000000 		.4byte	.LC1
 2291 0c59 00       		.byte	0
 2292 0c5a 00       		.byte	0
 2293 0c5b 30       		.uleb128 0x30
 2294 0c5c 0A010000 		.4byte	.LVL52
 2295 0c60 AE0E0000 		.4byte	0xeae
 2296 0c64 6F0C0000 		.4byte	0xc6f
 2297 0c68 27       		.uleb128 0x27
 2298 0c69 01       		.uleb128 0x1
 2299 0c6a 50       		.byte	0x50
 2300 0c6b 02       		.uleb128 0x2
 2301 0c6c 75       		.byte	0x75
 2302 0c6d 00       		.sleb128 0
 2303 0c6e 00       		.byte	0
 2304 0c6f 26       		.uleb128 0x26
 2305 0c70 46010000 		.4byte	.LVL58
 2306 0c74 A70A0000 		.4byte	0xaa7
 2307 0c78 27       		.uleb128 0x27
 2308 0c79 01       		.uleb128 0x1
 2309 0c7a 53       		.byte	0x53
 2310 0c7b 02       		.uleb128 0x2
 2311 0c7c 08       		.byte	0x8
 2312 0c7d F3       		.byte	0xf3
 2313 0c7e 27       		.uleb128 0x27
 2314 0c7f 01       		.uleb128 0x1
 2315 0c80 52       		.byte	0x52
 2316 0c81 05       		.uleb128 0x5
 2317 0c82 03       		.byte	0x3
 2318 0c83 28000000 		.4byte	.LC1
 2319 0c87 27       		.uleb128 0x27
 2320 0c88 01       		.uleb128 0x1
 2321 0c89 51       		.byte	0x51
ARM GAS  C:\Users\jo\AppData\Local\Temp\cc8gYp92.s 			page 42


 2322 0c8a 05       		.uleb128 0x5
 2323 0c8b 03       		.byte	0x3
 2324 0c8c 00000000 		.4byte	.LC0
 2325 0c90 27       		.uleb128 0x27
 2326 0c91 02       		.uleb128 0x2
 2327 0c92 7D       		.byte	0x7d
 2328 0c93 00       		.sleb128 0
 2329 0c94 05       		.uleb128 0x5
 2330 0c95 03       		.byte	0x3
 2331 0c96 34000000 		.4byte	.LC2
 2332 0c9a 00       		.byte	0
 2333 0c9b 00       		.byte	0
 2334 0c9c 17       		.uleb128 0x17
 2335 0c9d 55080000 		.4byte	0x855
 2336 0ca1 AC0C0000 		.4byte	0xcac
 2337 0ca5 18       		.uleb128 0x18
 2338 0ca6 5C040000 		.4byte	0x45c
 2339 0caa 03       		.byte	0x3
 2340 0cab 00       		.byte	0
 2341 0cac 0B       		.uleb128 0xb
 2342 0cad 04       		.byte	0x4
 2343 0cae 55080000 		.4byte	0x855
 2344 0cb2 28       		.uleb128 0x28
 2345 0cb3 95070000 		.4byte	.LASF145
 2346 0cb7 02       		.byte	0x2
 2347 0cb8 82       		.byte	0x82
 2348 0cb9 55080000 		.4byte	0x855
 2349 0cbd 00000000 		.4byte	.LFB258
 2350 0cc1 1E000000 		.4byte	.LFE258-.LFB258
 2351 0cc5 01       		.uleb128 0x1
 2352 0cc6 9C       		.byte	0x9c
 2353 0cc7 FF0C0000 		.4byte	0xcff
 2354 0ccb 2C       		.uleb128 0x2c
 2355 0ccc 637000   		.ascii	"cp\000"
 2356 0ccf 02       		.byte	0x2
 2357 0cd0 82       		.byte	0x82
 2358 0cd1 08060000 		.4byte	0x608
 2359 0cd5 BF030000 		.4byte	.LLST13
 2360 0cd9 31       		.uleb128 0x31
 2361 0cda 76616C00 		.ascii	"val\000"
 2362 0cde 02       		.byte	0x2
 2363 0cdf 84       		.byte	0x84
 2364 0ce0 79080000 		.4byte	0x879
 2365 0ce4 02       		.uleb128 0x2
 2366 0ce5 91       		.byte	0x91
 2367 0ce6 74       		.sleb128 -12
 2368 0ce7 26       		.uleb128 0x26
 2369 0ce8 0A000000 		.4byte	.LVL62
 2370 0cec AE0B0000 		.4byte	0xbae
 2371 0cf0 27       		.uleb128 0x27
 2372 0cf1 01       		.uleb128 0x1
 2373 0cf2 51       		.byte	0x51
 2374 0cf3 02       		.uleb128 0x2
 2375 0cf4 91       		.byte	0x91
 2376 0cf5 74       		.sleb128 -12
 2377 0cf6 27       		.uleb128 0x27
 2378 0cf7 01       		.uleb128 0x1
ARM GAS  C:\Users\jo\AppData\Local\Temp\cc8gYp92.s 			page 43


 2379 0cf8 50       		.byte	0x50
 2380 0cf9 03       		.uleb128 0x3
 2381 0cfa F3       		.byte	0xf3
 2382 0cfb 01       		.uleb128 0x1
 2383 0cfc 50       		.byte	0x50
 2384 0cfd 00       		.byte	0
 2385 0cfe 00       		.byte	0
 2386 0cff 32       		.uleb128 0x32
 2387 0d00 9E020000 		.4byte	.LASF146
 2388 0d04 02       		.byte	0x2
 2389 0d05 1401     		.2byte	0x114
 2390 0d07 FB050000 		.4byte	0x5fb
 2391 0d0b 00000000 		.4byte	.LFB261
 2392 0d0f C0000000 		.4byte	.LFE261-.LFB261
 2393 0d13 01       		.uleb128 0x1
 2394 0d14 9C       		.byte	0x9c
 2395 0d15 BE0D0000 		.4byte	0xdbe
 2396 0d19 33       		.uleb128 0x33
 2397 0d1a 1D010000 		.4byte	.LASF114
 2398 0d1e 02       		.byte	0x2
 2399 0d1f 1401     		.2byte	0x114
 2400 0d21 BE0D0000 		.4byte	0xdbe
 2401 0d25 E0030000 		.4byte	.LLST14
 2402 0d29 34       		.uleb128 0x34
 2403 0d2a 62756600 		.ascii	"buf\000"
 2404 0d2e 02       		.byte	0x2
 2405 0d2f 1401     		.2byte	0x114
 2406 0d31 FB050000 		.4byte	0x5fb
 2407 0d35 01       		.uleb128 0x1
 2408 0d36 51       		.byte	0x51
 2409 0d37 35       		.uleb128 0x35
 2410 0d38 87050000 		.4byte	.LASF147
 2411 0d3c 02       		.byte	0x2
 2412 0d3d 1401     		.2byte	0x114
 2413 0d3f 25000000 		.4byte	0x25
 2414 0d43 01       		.uleb128 0x1
 2415 0d44 52       		.byte	0x52
 2416 0d45 36       		.uleb128 0x36
 2417 0d46 E4010000 		.4byte	.LASF148
 2418 0d4a 02       		.byte	0x2
 2419 0d4b 1601     		.2byte	0x116
 2420 0d4d 55080000 		.4byte	0x855
 2421 0d51 02       		.uleb128 0x2
 2422 0d52 91       		.byte	0x91
 2423 0d53 5C       		.sleb128 -36
 2424 0d54 37       		.uleb128 0x37
 2425 0d55 696E7600 		.ascii	"inv\000"
 2426 0d59 02       		.byte	0x2
 2427 0d5a 1701     		.2byte	0x117
 2428 0d5c C90D0000 		.4byte	0xdc9
 2429 0d60 02       		.uleb128 0x2
 2430 0d61 91       		.byte	0x91
 2431 0d62 58       		.sleb128 -40
 2432 0d63 38       		.uleb128 0x38
 2433 0d64 727000   		.ascii	"rp\000"
 2434 0d67 02       		.byte	0x2
 2435 0d68 1801     		.2byte	0x118
ARM GAS  C:\Users\jo\AppData\Local\Temp\cc8gYp92.s 			page 44


 2436 0d6a FB050000 		.4byte	0x5fb
 2437 0d6e 01040000 		.4byte	.LLST15
 2438 0d72 38       		.uleb128 0x38
 2439 0d73 617000   		.ascii	"ap\000"
 2440 0d76 02       		.byte	0x2
 2441 0d77 1901     		.2byte	0x119
 2442 0d79 D90D0000 		.4byte	0xdd9
 2443 0d7d 37040000 		.4byte	.LLST16
 2444 0d81 38       		.uleb128 0x38
 2445 0d82 72656D00 		.ascii	"rem\000"
 2446 0d86 02       		.byte	0x2
 2447 0d87 1A01     		.2byte	0x11a
 2448 0d89 34080000 		.4byte	0x834
 2449 0d8d 7C040000 		.4byte	.LLST17
 2450 0d91 38       		.uleb128 0x38
 2451 0d92 6E00     		.ascii	"n\000"
 2452 0d94 02       		.byte	0x2
 2453 0d95 1B01     		.2byte	0x11b
 2454 0d97 34080000 		.4byte	0x834
 2455 0d9b 9C040000 		.4byte	.LLST18
 2456 0d9f 38       		.uleb128 0x38
 2457 0da0 6900     		.ascii	"i\000"
 2458 0da2 02       		.byte	0x2
 2459 0da3 1C01     		.2byte	0x11c
 2460 0da5 34080000 		.4byte	0x834
 2461 0da9 D0040000 		.4byte	.LLST19
 2462 0dad 38       		.uleb128 0x38
 2463 0dae 6C656E00 		.ascii	"len\000"
 2464 0db2 02       		.byte	0x2
 2465 0db3 1D01     		.2byte	0x11d
 2466 0db5 25000000 		.4byte	0x25
 2467 0db9 27050000 		.4byte	.LLST20
 2468 0dbd 00       		.byte	0
 2469 0dbe 0B       		.uleb128 0xb
 2470 0dbf 04       		.byte	0x4
 2471 0dc0 C40D0000 		.4byte	0xdc4
 2472 0dc4 12       		.uleb128 0x12
 2473 0dc5 79080000 		.4byte	0x879
 2474 0dc9 17       		.uleb128 0x17
 2475 0dca 01060000 		.4byte	0x601
 2476 0dce D90D0000 		.4byte	0xdd9
 2477 0dd2 18       		.uleb128 0x18
 2478 0dd3 5C040000 		.4byte	0x45c
 2479 0dd7 02       		.byte	0x2
 2480 0dd8 00       		.byte	0
 2481 0dd9 0B       		.uleb128 0xb
 2482 0dda 04       		.byte	0x4
 2483 0ddb 34080000 		.4byte	0x834
 2484 0ddf 32       		.uleb128 0x32
 2485 0de0 23000000 		.4byte	.LASF149
 2486 0de4 02       		.byte	0x2
 2487 0de5 0501     		.2byte	0x105
 2488 0de7 FB050000 		.4byte	0x5fb
 2489 0deb 00000000 		.4byte	.LFB260
 2490 0def 0C000000 		.4byte	.LFE260-.LFB260
 2491 0df3 01       		.uleb128 0x1
 2492 0df4 9C       		.byte	0x9c
ARM GAS  C:\Users\jo\AppData\Local\Temp\cc8gYp92.s 			page 45


 2493 0df5 3B0E0000 		.4byte	0xe3b
 2494 0df9 33       		.uleb128 0x33
 2495 0dfa 1D010000 		.4byte	.LASF114
 2496 0dfe 02       		.byte	0x2
 2497 0dff 0501     		.2byte	0x105
 2498 0e01 BE0D0000 		.4byte	0xdbe
 2499 0e05 67050000 		.4byte	.LLST21
 2500 0e09 37       		.uleb128 0x37
 2501 0e0a 73747200 		.ascii	"str\000"
 2502 0e0e 02       		.byte	0x2
 2503 0e0f 0701     		.2byte	0x107
 2504 0e11 3B0E0000 		.4byte	0xe3b
 2505 0e15 05       		.uleb128 0x5
 2506 0e16 03       		.byte	0x3
 2507 0e17 00000000 		.4byte	str.8433
 2508 0e1b 39       		.uleb128 0x39
 2509 0e1c 08000000 		.4byte	.LVL86
 2510 0e20 FF0C0000 		.4byte	0xcff
 2511 0e24 27       		.uleb128 0x27
 2512 0e25 01       		.uleb128 0x1
 2513 0e26 52       		.byte	0x52
 2514 0e27 01       		.uleb128 0x1
 2515 0e28 40       		.byte	0x40
 2516 0e29 27       		.uleb128 0x27
 2517 0e2a 01       		.uleb128 0x1
 2518 0e2b 51       		.byte	0x51
 2519 0e2c 05       		.uleb128 0x5
 2520 0e2d 03       		.byte	0x3
 2521 0e2e 00000000 		.4byte	.LANCHOR0
 2522 0e32 27       		.uleb128 0x27
 2523 0e33 01       		.uleb128 0x1
 2524 0e34 50       		.byte	0x50
 2525 0e35 03       		.uleb128 0x3
 2526 0e36 F3       		.byte	0xf3
 2527 0e37 01       		.uleb128 0x1
 2528 0e38 50       		.byte	0x50
 2529 0e39 00       		.byte	0
 2530 0e3a 00       		.byte	0
 2531 0e3b 17       		.uleb128 0x17
 2532 0e3c 01060000 		.4byte	0x601
 2533 0e40 4B0E0000 		.4byte	0xe4b
 2534 0e44 18       		.uleb128 0x18
 2535 0e45 5C040000 		.4byte	0x45c
 2536 0e49 0F       		.byte	0xf
 2537 0e4a 00       		.byte	0
 2538 0e4b 3A       		.uleb128 0x3a
 2539 0e4c C5000000 		.4byte	.LASF150
 2540 0e50 17       		.byte	0x17
 2541 0e51 A706     		.2byte	0x6a7
 2542 0e53 FA000000 		.4byte	0xfa
 2543 0e57 3B       		.uleb128 0x3b
 2544 0e58 636800   		.ascii	"ch\000"
 2545 0e5b 09       		.byte	0x9
 2546 0e5c EB01     		.2byte	0x1eb
 2547 0e5e F5030000 		.4byte	0x3f5
 2548 0e62 3C       		.uleb128 0x3c
 2549 0e63 22070000 		.4byte	.LASF151
ARM GAS  C:\Users\jo\AppData\Local\Temp\cc8gYp92.s 			page 46


 2550 0e67 12       		.byte	0x12
 2551 0e68 3B       		.byte	0x3b
 2552 0e69 1E080000 		.4byte	0x81e
 2553 0e6d 3D       		.uleb128 0x3d
 2554 0e6e 92020000 		.4byte	.LASF152
 2555 0e72 02       		.byte	0x2
 2556 0e73 2C       		.byte	0x2c
 2557 0e74 C40D0000 		.4byte	0xdc4
 2558 0e78 05       		.uleb128 0x5
 2559 0e79 03       		.byte	0x3
 2560 0e7a 00000000 		.4byte	ip_addr_any
 2561 0e7e 3D       		.uleb128 0x3d
 2562 0e7f 67030000 		.4byte	.LASF153
 2563 0e83 02       		.byte	0x2
 2564 0e84 2D       		.byte	0x2d
 2565 0e85 C40D0000 		.4byte	0xdc4
 2566 0e89 05       		.uleb128 0x5
 2567 0e8a 03       		.byte	0x3
 2568 0e8b 00000000 		.4byte	ip_addr_broadcast
 2569 0e8f 3E       		.uleb128 0x3e
 2570 0e90 5E070000 		.4byte	.LASF154
 2571 0e94 01       		.byte	0x1
 2572 0e95 28       		.byte	0x28
 2573 0e96 25000000 		.4byte	0x25
 2574 0e9a AE0E0000 		.4byte	0xeae
 2575 0e9e 0D       		.uleb128 0xd
 2576 0e9f A10A0000 		.4byte	0xaa1
 2577 0ea3 0D       		.uleb128 0xd
 2578 0ea4 08060000 		.4byte	0x608
 2579 0ea8 0D       		.uleb128 0xd
 2580 0ea9 29080000 		.4byte	0x829
 2581 0ead 00       		.byte	0
 2582 0eae 3E       		.uleb128 0x3e
 2583 0eaf 58020000 		.4byte	.LASF155
 2584 0eb3 18       		.byte	0x18
 2585 0eb4 65       		.byte	0x65
 2586 0eb5 55080000 		.4byte	0x855
 2587 0eb9 C30E0000 		.4byte	0xec3
 2588 0ebd 0D       		.uleb128 0xd
 2589 0ebe 55080000 		.4byte	0x855
 2590 0ec2 00       		.byte	0
 2591 0ec3 3F       		.uleb128 0x3f
 2592 0ec4 61000000 		.4byte	.LASF161
 2593 0ec8 19       		.byte	0x19
 2594 0ec9 E6       		.byte	0xe6
 2595 0eca 0D       		.uleb128 0xd
 2596 0ecb 08060000 		.4byte	0x608
 2597 0ecf 00       		.byte	0
 2598 0ed0 00       		.byte	0
 2599              		.section	.debug_abbrev,"",%progbits
 2600              	.Ldebug_abbrev0:
 2601 0000 01       		.uleb128 0x1
 2602 0001 11       		.uleb128 0x11
 2603 0002 01       		.byte	0x1
 2604 0003 25       		.uleb128 0x25
 2605 0004 0E       		.uleb128 0xe
 2606 0005 13       		.uleb128 0x13
ARM GAS  C:\Users\jo\AppData\Local\Temp\cc8gYp92.s 			page 47


 2607 0006 0B       		.uleb128 0xb
 2608 0007 03       		.uleb128 0x3
 2609 0008 0E       		.uleb128 0xe
 2610 0009 1B       		.uleb128 0x1b
 2611 000a 0E       		.uleb128 0xe
 2612 000b 55       		.uleb128 0x55
 2613 000c 17       		.uleb128 0x17
 2614 000d 11       		.uleb128 0x11
 2615 000e 01       		.uleb128 0x1
 2616 000f 10       		.uleb128 0x10
 2617 0010 17       		.uleb128 0x17
 2618 0011 00       		.byte	0
 2619 0012 00       		.byte	0
 2620 0013 02       		.uleb128 0x2
 2621 0014 24       		.uleb128 0x24
 2622 0015 00       		.byte	0
 2623 0016 0B       		.uleb128 0xb
 2624 0017 0B       		.uleb128 0xb
 2625 0018 3E       		.uleb128 0x3e
 2626 0019 0B       		.uleb128 0xb
 2627 001a 03       		.uleb128 0x3
 2628 001b 08       		.uleb128 0x8
 2629 001c 00       		.byte	0
 2630 001d 00       		.byte	0
 2631 001e 03       		.uleb128 0x3
 2632 001f 16       		.uleb128 0x16
 2633 0020 00       		.byte	0
 2634 0021 03       		.uleb128 0x3
 2635 0022 0E       		.uleb128 0xe
 2636 0023 3A       		.uleb128 0x3a
 2637 0024 0B       		.uleb128 0xb
 2638 0025 3B       		.uleb128 0x3b
 2639 0026 0B       		.uleb128 0xb
 2640 0027 49       		.uleb128 0x49
 2641 0028 13       		.uleb128 0x13
 2642 0029 00       		.byte	0
 2643 002a 00       		.byte	0
 2644 002b 04       		.uleb128 0x4
 2645 002c 24       		.uleb128 0x24
 2646 002d 00       		.byte	0
 2647 002e 0B       		.uleb128 0xb
 2648 002f 0B       		.uleb128 0xb
 2649 0030 3E       		.uleb128 0x3e
 2650 0031 0B       		.uleb128 0xb
 2651 0032 03       		.uleb128 0x3
 2652 0033 0E       		.uleb128 0xe
 2653 0034 00       		.byte	0
 2654 0035 00       		.byte	0
 2655 0036 05       		.uleb128 0x5
 2656 0037 35       		.uleb128 0x35
 2657 0038 00       		.byte	0
 2658 0039 49       		.uleb128 0x49
 2659 003a 13       		.uleb128 0x13
 2660 003b 00       		.byte	0
 2661 003c 00       		.byte	0
 2662 003d 06       		.uleb128 0x6
 2663 003e 13       		.uleb128 0x13
ARM GAS  C:\Users\jo\AppData\Local\Temp\cc8gYp92.s 			page 48


 2664 003f 01       		.byte	0x1
 2665 0040 03       		.uleb128 0x3
 2666 0041 0E       		.uleb128 0xe
 2667 0042 0B       		.uleb128 0xb
 2668 0043 0B       		.uleb128 0xb
 2669 0044 3A       		.uleb128 0x3a
 2670 0045 0B       		.uleb128 0xb
 2671 0046 3B       		.uleb128 0x3b
 2672 0047 0B       		.uleb128 0xb
 2673 0048 01       		.uleb128 0x1
 2674 0049 13       		.uleb128 0x13
 2675 004a 00       		.byte	0
 2676 004b 00       		.byte	0
 2677 004c 07       		.uleb128 0x7
 2678 004d 0D       		.uleb128 0xd
 2679 004e 00       		.byte	0
 2680 004f 03       		.uleb128 0x3
 2681 0050 0E       		.uleb128 0xe
 2682 0051 3A       		.uleb128 0x3a
 2683 0052 0B       		.uleb128 0xb
 2684 0053 3B       		.uleb128 0x3b
 2685 0054 0B       		.uleb128 0xb
 2686 0055 49       		.uleb128 0x49
 2687 0056 13       		.uleb128 0x13
 2688 0057 38       		.uleb128 0x38
 2689 0058 0B       		.uleb128 0xb
 2690 0059 00       		.byte	0
 2691 005a 00       		.byte	0
 2692 005b 08       		.uleb128 0x8
 2693 005c 0D       		.uleb128 0xd
 2694 005d 00       		.byte	0
 2695 005e 03       		.uleb128 0x3
 2696 005f 08       		.uleb128 0x8
 2697 0060 3A       		.uleb128 0x3a
 2698 0061 0B       		.uleb128 0xb
 2699 0062 3B       		.uleb128 0x3b
 2700 0063 05       		.uleb128 0x5
 2701 0064 49       		.uleb128 0x49
 2702 0065 13       		.uleb128 0x13
 2703 0066 38       		.uleb128 0x38
 2704 0067 0B       		.uleb128 0xb
 2705 0068 00       		.byte	0
 2706 0069 00       		.byte	0
 2707 006a 09       		.uleb128 0x9
 2708 006b 0D       		.uleb128 0xd
 2709 006c 00       		.byte	0
 2710 006d 03       		.uleb128 0x3
 2711 006e 0E       		.uleb128 0xe
 2712 006f 3A       		.uleb128 0x3a
 2713 0070 0B       		.uleb128 0xb
 2714 0071 3B       		.uleb128 0x3b
 2715 0072 05       		.uleb128 0x5
 2716 0073 49       		.uleb128 0x49
 2717 0074 13       		.uleb128 0x13
 2718 0075 38       		.uleb128 0x38
 2719 0076 0B       		.uleb128 0xb
 2720 0077 00       		.byte	0
ARM GAS  C:\Users\jo\AppData\Local\Temp\cc8gYp92.s 			page 49


 2721 0078 00       		.byte	0
 2722 0079 0A       		.uleb128 0xa
 2723 007a 13       		.uleb128 0x13
 2724 007b 01       		.byte	0x1
 2725 007c 03       		.uleb128 0x3
 2726 007d 0E       		.uleb128 0xe
 2727 007e 0B       		.uleb128 0xb
 2728 007f 0B       		.uleb128 0xb
 2729 0080 3A       		.uleb128 0x3a
 2730 0081 0B       		.uleb128 0xb
 2731 0082 3B       		.uleb128 0x3b
 2732 0083 05       		.uleb128 0x5
 2733 0084 01       		.uleb128 0x1
 2734 0085 13       		.uleb128 0x13
 2735 0086 00       		.byte	0
 2736 0087 00       		.byte	0
 2737 0088 0B       		.uleb128 0xb
 2738 0089 0F       		.uleb128 0xf
 2739 008a 00       		.byte	0
 2740 008b 0B       		.uleb128 0xb
 2741 008c 0B       		.uleb128 0xb
 2742 008d 49       		.uleb128 0x49
 2743 008e 13       		.uleb128 0x13
 2744 008f 00       		.byte	0
 2745 0090 00       		.byte	0
 2746 0091 0C       		.uleb128 0xc
 2747 0092 15       		.uleb128 0x15
 2748 0093 01       		.byte	0x1
 2749 0094 27       		.uleb128 0x27
 2750 0095 19       		.uleb128 0x19
 2751 0096 01       		.uleb128 0x1
 2752 0097 13       		.uleb128 0x13
 2753 0098 00       		.byte	0
 2754 0099 00       		.byte	0
 2755 009a 0D       		.uleb128 0xd
 2756 009b 05       		.uleb128 0x5
 2757 009c 00       		.byte	0
 2758 009d 49       		.uleb128 0x49
 2759 009e 13       		.uleb128 0x13
 2760 009f 00       		.byte	0
 2761 00a0 00       		.byte	0
 2762 00a1 0E       		.uleb128 0xe
 2763 00a2 0F       		.uleb128 0xf
 2764 00a3 00       		.byte	0
 2765 00a4 0B       		.uleb128 0xb
 2766 00a5 0B       		.uleb128 0xb
 2767 00a6 00       		.byte	0
 2768 00a7 00       		.byte	0
 2769 00a8 0F       		.uleb128 0xf
 2770 00a9 13       		.uleb128 0x13
 2771 00aa 01       		.byte	0x1
 2772 00ab 03       		.uleb128 0x3
 2773 00ac 0E       		.uleb128 0xe
 2774 00ad 0B       		.uleb128 0xb
 2775 00ae 05       		.uleb128 0x5
 2776 00af 3A       		.uleb128 0x3a
 2777 00b0 0B       		.uleb128 0xb
ARM GAS  C:\Users\jo\AppData\Local\Temp\cc8gYp92.s 			page 50


 2778 00b1 3B       		.uleb128 0x3b
 2779 00b2 05       		.uleb128 0x5
 2780 00b3 01       		.uleb128 0x1
 2781 00b4 13       		.uleb128 0x13
 2782 00b5 00       		.byte	0
 2783 00b6 00       		.byte	0
 2784 00b7 10       		.uleb128 0x10
 2785 00b8 0D       		.uleb128 0xd
 2786 00b9 00       		.byte	0
 2787 00ba 03       		.uleb128 0x3
 2788 00bb 08       		.uleb128 0x8
 2789 00bc 3A       		.uleb128 0x3a
 2790 00bd 0B       		.uleb128 0xb
 2791 00be 3B       		.uleb128 0x3b
 2792 00bf 0B       		.uleb128 0xb
 2793 00c0 49       		.uleb128 0x49
 2794 00c1 13       		.uleb128 0x13
 2795 00c2 38       		.uleb128 0x38
 2796 00c3 0B       		.uleb128 0xb
 2797 00c4 00       		.byte	0
 2798 00c5 00       		.byte	0
 2799 00c6 11       		.uleb128 0x11
 2800 00c7 0D       		.uleb128 0xd
 2801 00c8 00       		.byte	0
 2802 00c9 03       		.uleb128 0x3
 2803 00ca 0E       		.uleb128 0xe
 2804 00cb 49       		.uleb128 0x49
 2805 00cc 13       		.uleb128 0x13
 2806 00cd 38       		.uleb128 0x38
 2807 00ce 0B       		.uleb128 0xb
 2808 00cf 34       		.uleb128 0x34
 2809 00d0 19       		.uleb128 0x19
 2810 00d1 00       		.byte	0
 2811 00d2 00       		.byte	0
 2812 00d3 12       		.uleb128 0x12
 2813 00d4 26       		.uleb128 0x26
 2814 00d5 00       		.byte	0
 2815 00d6 49       		.uleb128 0x49
 2816 00d7 13       		.uleb128 0x13
 2817 00d8 00       		.byte	0
 2818 00d9 00       		.byte	0
 2819 00da 13       		.uleb128 0x13
 2820 00db 13       		.uleb128 0x13
 2821 00dc 01       		.byte	0x1
 2822 00dd 0B       		.uleb128 0xb
 2823 00de 0B       		.uleb128 0xb
 2824 00df 3A       		.uleb128 0x3a
 2825 00e0 0B       		.uleb128 0xb
 2826 00e1 3B       		.uleb128 0x3b
 2827 00e2 0B       		.uleb128 0xb
 2828 00e3 01       		.uleb128 0x1
 2829 00e4 13       		.uleb128 0x13
 2830 00e5 00       		.byte	0
 2831 00e6 00       		.byte	0
 2832 00e7 14       		.uleb128 0x14
 2833 00e8 17       		.uleb128 0x17
 2834 00e9 01       		.byte	0x1
ARM GAS  C:\Users\jo\AppData\Local\Temp\cc8gYp92.s 			page 51


 2835 00ea 0B       		.uleb128 0xb
 2836 00eb 0B       		.uleb128 0xb
 2837 00ec 3A       		.uleb128 0x3a
 2838 00ed 0B       		.uleb128 0xb
 2839 00ee 3B       		.uleb128 0x3b
 2840 00ef 0B       		.uleb128 0xb
 2841 00f0 01       		.uleb128 0x1
 2842 00f1 13       		.uleb128 0x13
 2843 00f2 00       		.byte	0
 2844 00f3 00       		.byte	0
 2845 00f4 15       		.uleb128 0x15
 2846 00f5 0D       		.uleb128 0xd
 2847 00f6 00       		.byte	0
 2848 00f7 03       		.uleb128 0x3
 2849 00f8 0E       		.uleb128 0xe
 2850 00f9 3A       		.uleb128 0x3a
 2851 00fa 0B       		.uleb128 0xb
 2852 00fb 3B       		.uleb128 0x3b
 2853 00fc 0B       		.uleb128 0xb
 2854 00fd 49       		.uleb128 0x49
 2855 00fe 13       		.uleb128 0x13
 2856 00ff 00       		.byte	0
 2857 0100 00       		.byte	0
 2858 0101 16       		.uleb128 0x16
 2859 0102 0D       		.uleb128 0xd
 2860 0103 00       		.byte	0
 2861 0104 03       		.uleb128 0x3
 2862 0105 0E       		.uleb128 0xe
 2863 0106 3A       		.uleb128 0x3a
 2864 0107 0B       		.uleb128 0xb
 2865 0108 3B       		.uleb128 0x3b
 2866 0109 05       		.uleb128 0x5
 2867 010a 49       		.uleb128 0x49
 2868 010b 13       		.uleb128 0x13
 2869 010c 00       		.byte	0
 2870 010d 00       		.byte	0
 2871 010e 17       		.uleb128 0x17
 2872 010f 01       		.uleb128 0x1
 2873 0110 01       		.byte	0x1
 2874 0111 49       		.uleb128 0x49
 2875 0112 13       		.uleb128 0x13
 2876 0113 01       		.uleb128 0x1
 2877 0114 13       		.uleb128 0x13
 2878 0115 00       		.byte	0
 2879 0116 00       		.byte	0
 2880 0117 18       		.uleb128 0x18
 2881 0118 21       		.uleb128 0x21
 2882 0119 00       		.byte	0
 2883 011a 49       		.uleb128 0x49
 2884 011b 13       		.uleb128 0x13
 2885 011c 2F       		.uleb128 0x2f
 2886 011d 0B       		.uleb128 0xb
 2887 011e 00       		.byte	0
 2888 011f 00       		.byte	0
 2889 0120 19       		.uleb128 0x19
 2890 0121 15       		.uleb128 0x15
 2891 0122 01       		.byte	0x1
ARM GAS  C:\Users\jo\AppData\Local\Temp\cc8gYp92.s 			page 52


 2892 0123 27       		.uleb128 0x27
 2893 0124 19       		.uleb128 0x19
 2894 0125 49       		.uleb128 0x49
 2895 0126 13       		.uleb128 0x13
 2896 0127 01       		.uleb128 0x1
 2897 0128 13       		.uleb128 0x13
 2898 0129 00       		.byte	0
 2899 012a 00       		.byte	0
 2900 012b 1A       		.uleb128 0x1a
 2901 012c 2E       		.uleb128 0x2e
 2902 012d 01       		.byte	0x1
 2903 012e 03       		.uleb128 0x3
 2904 012f 0E       		.uleb128 0xe
 2905 0130 3A       		.uleb128 0x3a
 2906 0131 0B       		.uleb128 0xb
 2907 0132 3B       		.uleb128 0x3b
 2908 0133 05       		.uleb128 0x5
 2909 0134 27       		.uleb128 0x27
 2910 0135 19       		.uleb128 0x19
 2911 0136 20       		.uleb128 0x20
 2912 0137 0B       		.uleb128 0xb
 2913 0138 01       		.uleb128 0x1
 2914 0139 13       		.uleb128 0x13
 2915 013a 00       		.byte	0
 2916 013b 00       		.byte	0
 2917 013c 1B       		.uleb128 0x1b
 2918 013d 05       		.uleb128 0x5
 2919 013e 00       		.byte	0
 2920 013f 03       		.uleb128 0x3
 2921 0140 0E       		.uleb128 0xe
 2922 0141 3A       		.uleb128 0x3a
 2923 0142 0B       		.uleb128 0xb
 2924 0143 3B       		.uleb128 0x3b
 2925 0144 05       		.uleb128 0x5
 2926 0145 49       		.uleb128 0x49
 2927 0146 13       		.uleb128 0x13
 2928 0147 00       		.byte	0
 2929 0148 00       		.byte	0
 2930 0149 1C       		.uleb128 0x1c
 2931 014a 2E       		.uleb128 0x2e
 2932 014b 01       		.byte	0x1
 2933 014c 03       		.uleb128 0x3
 2934 014d 0E       		.uleb128 0xe
 2935 014e 3A       		.uleb128 0x3a
 2936 014f 0B       		.uleb128 0xb
 2937 0150 3B       		.uleb128 0x3b
 2938 0151 0B       		.uleb128 0xb
 2939 0152 27       		.uleb128 0x27
 2940 0153 19       		.uleb128 0x19
 2941 0154 49       		.uleb128 0x49
 2942 0155 13       		.uleb128 0x13
 2943 0156 20       		.uleb128 0x20
 2944 0157 0B       		.uleb128 0xb
 2945 0158 01       		.uleb128 0x1
 2946 0159 13       		.uleb128 0x13
 2947 015a 00       		.byte	0
 2948 015b 00       		.byte	0
ARM GAS  C:\Users\jo\AppData\Local\Temp\cc8gYp92.s 			page 53


 2949 015c 1D       		.uleb128 0x1d
 2950 015d 05       		.uleb128 0x5
 2951 015e 00       		.byte	0
 2952 015f 03       		.uleb128 0x3
 2953 0160 08       		.uleb128 0x8
 2954 0161 3A       		.uleb128 0x3a
 2955 0162 0B       		.uleb128 0xb
 2956 0163 3B       		.uleb128 0x3b
 2957 0164 0B       		.uleb128 0xb
 2958 0165 49       		.uleb128 0x49
 2959 0166 13       		.uleb128 0x13
 2960 0167 00       		.byte	0
 2961 0168 00       		.byte	0
 2962 0169 1E       		.uleb128 0x1e
 2963 016a 18       		.uleb128 0x18
 2964 016b 00       		.byte	0
 2965 016c 00       		.byte	0
 2966 016d 00       		.byte	0
 2967 016e 1F       		.uleb128 0x1f
 2968 016f 34       		.uleb128 0x34
 2969 0170 00       		.byte	0
 2970 0171 03       		.uleb128 0x3
 2971 0172 08       		.uleb128 0x8
 2972 0173 3A       		.uleb128 0x3a
 2973 0174 0B       		.uleb128 0xb
 2974 0175 3B       		.uleb128 0x3b
 2975 0176 0B       		.uleb128 0xb
 2976 0177 49       		.uleb128 0x49
 2977 0178 13       		.uleb128 0x13
 2978 0179 00       		.byte	0
 2979 017a 00       		.byte	0
 2980 017b 20       		.uleb128 0x20
 2981 017c 34       		.uleb128 0x34
 2982 017d 00       		.byte	0
 2983 017e 03       		.uleb128 0x3
 2984 017f 0E       		.uleb128 0xe
 2985 0180 3A       		.uleb128 0x3a
 2986 0181 0B       		.uleb128 0xb
 2987 0182 3B       		.uleb128 0x3b
 2988 0183 0B       		.uleb128 0xb
 2989 0184 49       		.uleb128 0x49
 2990 0185 13       		.uleb128 0x13
 2991 0186 00       		.byte	0
 2992 0187 00       		.byte	0
 2993 0188 21       		.uleb128 0x21
 2994 0189 2E       		.uleb128 0x2e
 2995 018a 01       		.byte	0x1
 2996 018b 31       		.uleb128 0x31
 2997 018c 13       		.uleb128 0x13
 2998 018d 11       		.uleb128 0x11
 2999 018e 01       		.uleb128 0x1
 3000 018f 12       		.uleb128 0x12
 3001 0190 06       		.uleb128 0x6
 3002 0191 40       		.uleb128 0x40
 3003 0192 18       		.uleb128 0x18
 3004 0193 9742     		.uleb128 0x2117
 3005 0195 19       		.uleb128 0x19
ARM GAS  C:\Users\jo\AppData\Local\Temp\cc8gYp92.s 			page 54


 3006 0196 01       		.uleb128 0x1
 3007 0197 13       		.uleb128 0x13
 3008 0198 00       		.byte	0
 3009 0199 00       		.byte	0
 3010 019a 22       		.uleb128 0x22
 3011 019b 05       		.uleb128 0x5
 3012 019c 00       		.byte	0
 3013 019d 31       		.uleb128 0x31
 3014 019e 13       		.uleb128 0x13
 3015 019f 02       		.uleb128 0x2
 3016 01a0 17       		.uleb128 0x17
 3017 01a1 00       		.byte	0
 3018 01a2 00       		.byte	0
 3019 01a3 23       		.uleb128 0x23
 3020 01a4 05       		.uleb128 0x5
 3021 01a5 00       		.byte	0
 3022 01a6 31       		.uleb128 0x31
 3023 01a7 13       		.uleb128 0x13
 3024 01a8 02       		.uleb128 0x2
 3025 01a9 18       		.uleb128 0x18
 3026 01aa 00       		.byte	0
 3027 01ab 00       		.byte	0
 3028 01ac 24       		.uleb128 0x24
 3029 01ad 34       		.uleb128 0x34
 3030 01ae 00       		.byte	0
 3031 01af 31       		.uleb128 0x31
 3032 01b0 13       		.uleb128 0x13
 3033 01b1 02       		.uleb128 0x2
 3034 01b2 18       		.uleb128 0x18
 3035 01b3 00       		.byte	0
 3036 01b4 00       		.byte	0
 3037 01b5 25       		.uleb128 0x25
 3038 01b6 05       		.uleb128 0x5
 3039 01b7 00       		.byte	0
 3040 01b8 31       		.uleb128 0x31
 3041 01b9 13       		.uleb128 0x13
 3042 01ba 00       		.byte	0
 3043 01bb 00       		.byte	0
 3044 01bc 26       		.uleb128 0x26
 3045 01bd 898201   		.uleb128 0x4109
 3046 01c0 01       		.byte	0x1
 3047 01c1 11       		.uleb128 0x11
 3048 01c2 01       		.uleb128 0x1
 3049 01c3 31       		.uleb128 0x31
 3050 01c4 13       		.uleb128 0x13
 3051 01c5 00       		.byte	0
 3052 01c6 00       		.byte	0
 3053 01c7 27       		.uleb128 0x27
 3054 01c8 8A8201   		.uleb128 0x410a
 3055 01cb 00       		.byte	0
 3056 01cc 02       		.uleb128 0x2
 3057 01cd 18       		.uleb128 0x18
 3058 01ce 9142     		.uleb128 0x2111
 3059 01d0 18       		.uleb128 0x18
 3060 01d1 00       		.byte	0
 3061 01d2 00       		.byte	0
 3062 01d3 28       		.uleb128 0x28
ARM GAS  C:\Users\jo\AppData\Local\Temp\cc8gYp92.s 			page 55


 3063 01d4 2E       		.uleb128 0x2e
 3064 01d5 01       		.byte	0x1
 3065 01d6 3F       		.uleb128 0x3f
 3066 01d7 19       		.uleb128 0x19
 3067 01d8 03       		.uleb128 0x3
 3068 01d9 0E       		.uleb128 0xe
 3069 01da 3A       		.uleb128 0x3a
 3070 01db 0B       		.uleb128 0xb
 3071 01dc 3B       		.uleb128 0x3b
 3072 01dd 0B       		.uleb128 0xb
 3073 01de 27       		.uleb128 0x27
 3074 01df 19       		.uleb128 0x19
 3075 01e0 49       		.uleb128 0x49
 3076 01e1 13       		.uleb128 0x13
 3077 01e2 11       		.uleb128 0x11
 3078 01e3 01       		.uleb128 0x1
 3079 01e4 12       		.uleb128 0x12
 3080 01e5 06       		.uleb128 0x6
 3081 01e6 40       		.uleb128 0x40
 3082 01e7 18       		.uleb128 0x18
 3083 01e8 9742     		.uleb128 0x2117
 3084 01ea 19       		.uleb128 0x19
 3085 01eb 01       		.uleb128 0x1
 3086 01ec 13       		.uleb128 0x13
 3087 01ed 00       		.byte	0
 3088 01ee 00       		.byte	0
 3089 01ef 29       		.uleb128 0x29
 3090 01f0 05       		.uleb128 0x5
 3091 01f1 00       		.byte	0
 3092 01f2 03       		.uleb128 0x3
 3093 01f3 0E       		.uleb128 0xe
 3094 01f4 3A       		.uleb128 0x3a
 3095 01f5 0B       		.uleb128 0xb
 3096 01f6 3B       		.uleb128 0x3b
 3097 01f7 0B       		.uleb128 0xb
 3098 01f8 49       		.uleb128 0x49
 3099 01f9 13       		.uleb128 0x13
 3100 01fa 02       		.uleb128 0x2
 3101 01fb 17       		.uleb128 0x17
 3102 01fc 00       		.byte	0
 3103 01fd 00       		.byte	0
 3104 01fe 2A       		.uleb128 0x2a
 3105 01ff 05       		.uleb128 0x5
 3106 0200 00       		.byte	0
 3107 0201 03       		.uleb128 0x3
 3108 0202 0E       		.uleb128 0xe
 3109 0203 3A       		.uleb128 0x3a
 3110 0204 0B       		.uleb128 0xb
 3111 0205 3B       		.uleb128 0x3b
 3112 0206 0B       		.uleb128 0xb
 3113 0207 49       		.uleb128 0x49
 3114 0208 13       		.uleb128 0x13
 3115 0209 02       		.uleb128 0x2
 3116 020a 18       		.uleb128 0x18
 3117 020b 00       		.byte	0
 3118 020c 00       		.byte	0
 3119 020d 2B       		.uleb128 0x2b
ARM GAS  C:\Users\jo\AppData\Local\Temp\cc8gYp92.s 			page 56


 3120 020e 34       		.uleb128 0x34
 3121 020f 00       		.byte	0
 3122 0210 03       		.uleb128 0x3
 3123 0211 0E       		.uleb128 0xe
 3124 0212 3A       		.uleb128 0x3a
 3125 0213 0B       		.uleb128 0xb
 3126 0214 3B       		.uleb128 0x3b
 3127 0215 0B       		.uleb128 0xb
 3128 0216 49       		.uleb128 0x49
 3129 0217 13       		.uleb128 0x13
 3130 0218 02       		.uleb128 0x2
 3131 0219 17       		.uleb128 0x17
 3132 021a 00       		.byte	0
 3133 021b 00       		.byte	0
 3134 021c 2C       		.uleb128 0x2c
 3135 021d 05       		.uleb128 0x5
 3136 021e 00       		.byte	0
 3137 021f 03       		.uleb128 0x3
 3138 0220 08       		.uleb128 0x8
 3139 0221 3A       		.uleb128 0x3a
 3140 0222 0B       		.uleb128 0xb
 3141 0223 3B       		.uleb128 0x3b
 3142 0224 0B       		.uleb128 0xb
 3143 0225 49       		.uleb128 0x49
 3144 0226 13       		.uleb128 0x13
 3145 0227 02       		.uleb128 0x2
 3146 0228 17       		.uleb128 0x17
 3147 0229 00       		.byte	0
 3148 022a 00       		.byte	0
 3149 022b 2D       		.uleb128 0x2d
 3150 022c 34       		.uleb128 0x34
 3151 022d 00       		.byte	0
 3152 022e 03       		.uleb128 0x3
 3153 022f 08       		.uleb128 0x8
 3154 0230 3A       		.uleb128 0x3a
 3155 0231 0B       		.uleb128 0xb
 3156 0232 3B       		.uleb128 0x3b
 3157 0233 0B       		.uleb128 0xb
 3158 0234 49       		.uleb128 0x49
 3159 0235 13       		.uleb128 0x13
 3160 0236 02       		.uleb128 0x2
 3161 0237 17       		.uleb128 0x17
 3162 0238 00       		.byte	0
 3163 0239 00       		.byte	0
 3164 023a 2E       		.uleb128 0x2e
 3165 023b 34       		.uleb128 0x34
 3166 023c 00       		.byte	0
 3167 023d 03       		.uleb128 0x3
 3168 023e 0E       		.uleb128 0xe
 3169 023f 3A       		.uleb128 0x3a
 3170 0240 0B       		.uleb128 0xb
 3171 0241 3B       		.uleb128 0x3b
 3172 0242 0B       		.uleb128 0xb
 3173 0243 49       		.uleb128 0x49
 3174 0244 13       		.uleb128 0x13
 3175 0245 02       		.uleb128 0x2
 3176 0246 18       		.uleb128 0x18
ARM GAS  C:\Users\jo\AppData\Local\Temp\cc8gYp92.s 			page 57


 3177 0247 00       		.byte	0
 3178 0248 00       		.byte	0
 3179 0249 2F       		.uleb128 0x2f
 3180 024a 1D       		.uleb128 0x1d
 3181 024b 01       		.byte	0x1
 3182 024c 31       		.uleb128 0x31
 3183 024d 13       		.uleb128 0x13
 3184 024e 11       		.uleb128 0x11
 3185 024f 01       		.uleb128 0x1
 3186 0250 12       		.uleb128 0x12
 3187 0251 06       		.uleb128 0x6
 3188 0252 58       		.uleb128 0x58
 3189 0253 0B       		.uleb128 0xb
 3190 0254 59       		.uleb128 0x59
 3191 0255 0B       		.uleb128 0xb
 3192 0256 01       		.uleb128 0x1
 3193 0257 13       		.uleb128 0x13
 3194 0258 00       		.byte	0
 3195 0259 00       		.byte	0
 3196 025a 30       		.uleb128 0x30
 3197 025b 898201   		.uleb128 0x4109
 3198 025e 01       		.byte	0x1
 3199 025f 11       		.uleb128 0x11
 3200 0260 01       		.uleb128 0x1
 3201 0261 31       		.uleb128 0x31
 3202 0262 13       		.uleb128 0x13
 3203 0263 01       		.uleb128 0x1
 3204 0264 13       		.uleb128 0x13
 3205 0265 00       		.byte	0
 3206 0266 00       		.byte	0
 3207 0267 31       		.uleb128 0x31
 3208 0268 34       		.uleb128 0x34
 3209 0269 00       		.byte	0
 3210 026a 03       		.uleb128 0x3
 3211 026b 08       		.uleb128 0x8
 3212 026c 3A       		.uleb128 0x3a
 3213 026d 0B       		.uleb128 0xb
 3214 026e 3B       		.uleb128 0x3b
 3215 026f 0B       		.uleb128 0xb
 3216 0270 49       		.uleb128 0x49
 3217 0271 13       		.uleb128 0x13
 3218 0272 02       		.uleb128 0x2
 3219 0273 18       		.uleb128 0x18
 3220 0274 00       		.byte	0
 3221 0275 00       		.byte	0
 3222 0276 32       		.uleb128 0x32
 3223 0277 2E       		.uleb128 0x2e
 3224 0278 01       		.byte	0x1
 3225 0279 3F       		.uleb128 0x3f
 3226 027a 19       		.uleb128 0x19
 3227 027b 03       		.uleb128 0x3
 3228 027c 0E       		.uleb128 0xe
 3229 027d 3A       		.uleb128 0x3a
 3230 027e 0B       		.uleb128 0xb
 3231 027f 3B       		.uleb128 0x3b
 3232 0280 05       		.uleb128 0x5
 3233 0281 27       		.uleb128 0x27
ARM GAS  C:\Users\jo\AppData\Local\Temp\cc8gYp92.s 			page 58


 3234 0282 19       		.uleb128 0x19
 3235 0283 49       		.uleb128 0x49
 3236 0284 13       		.uleb128 0x13
 3237 0285 11       		.uleb128 0x11
 3238 0286 01       		.uleb128 0x1
 3239 0287 12       		.uleb128 0x12
 3240 0288 06       		.uleb128 0x6
 3241 0289 40       		.uleb128 0x40
 3242 028a 18       		.uleb128 0x18
 3243 028b 9742     		.uleb128 0x2117
 3244 028d 19       		.uleb128 0x19
 3245 028e 01       		.uleb128 0x1
 3246 028f 13       		.uleb128 0x13
 3247 0290 00       		.byte	0
 3248 0291 00       		.byte	0
 3249 0292 33       		.uleb128 0x33
 3250 0293 05       		.uleb128 0x5
 3251 0294 00       		.byte	0
 3252 0295 03       		.uleb128 0x3
 3253 0296 0E       		.uleb128 0xe
 3254 0297 3A       		.uleb128 0x3a
 3255 0298 0B       		.uleb128 0xb
 3256 0299 3B       		.uleb128 0x3b
 3257 029a 05       		.uleb128 0x5
 3258 029b 49       		.uleb128 0x49
 3259 029c 13       		.uleb128 0x13
 3260 029d 02       		.uleb128 0x2
 3261 029e 17       		.uleb128 0x17
 3262 029f 00       		.byte	0
 3263 02a0 00       		.byte	0
 3264 02a1 34       		.uleb128 0x34
 3265 02a2 05       		.uleb128 0x5
 3266 02a3 00       		.byte	0
 3267 02a4 03       		.uleb128 0x3
 3268 02a5 08       		.uleb128 0x8
 3269 02a6 3A       		.uleb128 0x3a
 3270 02a7 0B       		.uleb128 0xb
 3271 02a8 3B       		.uleb128 0x3b
 3272 02a9 05       		.uleb128 0x5
 3273 02aa 49       		.uleb128 0x49
 3274 02ab 13       		.uleb128 0x13
 3275 02ac 02       		.uleb128 0x2
 3276 02ad 18       		.uleb128 0x18
 3277 02ae 00       		.byte	0
 3278 02af 00       		.byte	0
 3279 02b0 35       		.uleb128 0x35
 3280 02b1 05       		.uleb128 0x5
 3281 02b2 00       		.byte	0
 3282 02b3 03       		.uleb128 0x3
 3283 02b4 0E       		.uleb128 0xe
 3284 02b5 3A       		.uleb128 0x3a
 3285 02b6 0B       		.uleb128 0xb
 3286 02b7 3B       		.uleb128 0x3b
 3287 02b8 05       		.uleb128 0x5
 3288 02b9 49       		.uleb128 0x49
 3289 02ba 13       		.uleb128 0x13
 3290 02bb 02       		.uleb128 0x2
ARM GAS  C:\Users\jo\AppData\Local\Temp\cc8gYp92.s 			page 59


 3291 02bc 18       		.uleb128 0x18
 3292 02bd 00       		.byte	0
 3293 02be 00       		.byte	0
 3294 02bf 36       		.uleb128 0x36
 3295 02c0 34       		.uleb128 0x34
 3296 02c1 00       		.byte	0
 3297 02c2 03       		.uleb128 0x3
 3298 02c3 0E       		.uleb128 0xe
 3299 02c4 3A       		.uleb128 0x3a
 3300 02c5 0B       		.uleb128 0xb
 3301 02c6 3B       		.uleb128 0x3b
 3302 02c7 05       		.uleb128 0x5
 3303 02c8 49       		.uleb128 0x49
 3304 02c9 13       		.uleb128 0x13
 3305 02ca 02       		.uleb128 0x2
 3306 02cb 18       		.uleb128 0x18
 3307 02cc 00       		.byte	0
 3308 02cd 00       		.byte	0
 3309 02ce 37       		.uleb128 0x37
 3310 02cf 34       		.uleb128 0x34
 3311 02d0 00       		.byte	0
 3312 02d1 03       		.uleb128 0x3
 3313 02d2 08       		.uleb128 0x8
 3314 02d3 3A       		.uleb128 0x3a
 3315 02d4 0B       		.uleb128 0xb
 3316 02d5 3B       		.uleb128 0x3b
 3317 02d6 05       		.uleb128 0x5
 3318 02d7 49       		.uleb128 0x49
 3319 02d8 13       		.uleb128 0x13
 3320 02d9 02       		.uleb128 0x2
 3321 02da 18       		.uleb128 0x18
 3322 02db 00       		.byte	0
 3323 02dc 00       		.byte	0
 3324 02dd 38       		.uleb128 0x38
 3325 02de 34       		.uleb128 0x34
 3326 02df 00       		.byte	0
 3327 02e0 03       		.uleb128 0x3
 3328 02e1 08       		.uleb128 0x8
 3329 02e2 3A       		.uleb128 0x3a
 3330 02e3 0B       		.uleb128 0xb
 3331 02e4 3B       		.uleb128 0x3b
 3332 02e5 05       		.uleb128 0x5
 3333 02e6 49       		.uleb128 0x49
 3334 02e7 13       		.uleb128 0x13
 3335 02e8 02       		.uleb128 0x2
 3336 02e9 17       		.uleb128 0x17
 3337 02ea 00       		.byte	0
 3338 02eb 00       		.byte	0
 3339 02ec 39       		.uleb128 0x39
 3340 02ed 898201   		.uleb128 0x4109
 3341 02f0 01       		.byte	0x1
 3342 02f1 11       		.uleb128 0x11
 3343 02f2 01       		.uleb128 0x1
 3344 02f3 9542     		.uleb128 0x2115
 3345 02f5 19       		.uleb128 0x19
 3346 02f6 31       		.uleb128 0x31
 3347 02f7 13       		.uleb128 0x13
ARM GAS  C:\Users\jo\AppData\Local\Temp\cc8gYp92.s 			page 60


 3348 02f8 00       		.byte	0
 3349 02f9 00       		.byte	0
 3350 02fa 3A       		.uleb128 0x3a
 3351 02fb 34       		.uleb128 0x34
 3352 02fc 00       		.byte	0
 3353 02fd 03       		.uleb128 0x3
 3354 02fe 0E       		.uleb128 0xe
 3355 02ff 3A       		.uleb128 0x3a
 3356 0300 0B       		.uleb128 0xb
 3357 0301 3B       		.uleb128 0x3b
 3358 0302 05       		.uleb128 0x5
 3359 0303 49       		.uleb128 0x49
 3360 0304 13       		.uleb128 0x13
 3361 0305 3F       		.uleb128 0x3f
 3362 0306 19       		.uleb128 0x19
 3363 0307 3C       		.uleb128 0x3c
 3364 0308 19       		.uleb128 0x19
 3365 0309 00       		.byte	0
 3366 030a 00       		.byte	0
 3367 030b 3B       		.uleb128 0x3b
 3368 030c 34       		.uleb128 0x34
 3369 030d 00       		.byte	0
 3370 030e 03       		.uleb128 0x3
 3371 030f 08       		.uleb128 0x8
 3372 0310 3A       		.uleb128 0x3a
 3373 0311 0B       		.uleb128 0xb
 3374 0312 3B       		.uleb128 0x3b
 3375 0313 05       		.uleb128 0x5
 3376 0314 49       		.uleb128 0x49
 3377 0315 13       		.uleb128 0x13
 3378 0316 3F       		.uleb128 0x3f
 3379 0317 19       		.uleb128 0x19
 3380 0318 3C       		.uleb128 0x3c
 3381 0319 19       		.uleb128 0x19
 3382 031a 00       		.byte	0
 3383 031b 00       		.byte	0
 3384 031c 3C       		.uleb128 0x3c
 3385 031d 34       		.uleb128 0x34
 3386 031e 00       		.byte	0
 3387 031f 03       		.uleb128 0x3
 3388 0320 0E       		.uleb128 0xe
 3389 0321 3A       		.uleb128 0x3a
 3390 0322 0B       		.uleb128 0xb
 3391 0323 3B       		.uleb128 0x3b
 3392 0324 0B       		.uleb128 0xb
 3393 0325 49       		.uleb128 0x49
 3394 0326 13       		.uleb128 0x13
 3395 0327 3F       		.uleb128 0x3f
 3396 0328 19       		.uleb128 0x19
 3397 0329 3C       		.uleb128 0x3c
 3398 032a 19       		.uleb128 0x19
 3399 032b 00       		.byte	0
 3400 032c 00       		.byte	0
 3401 032d 3D       		.uleb128 0x3d
 3402 032e 34       		.uleb128 0x34
 3403 032f 00       		.byte	0
 3404 0330 03       		.uleb128 0x3
ARM GAS  C:\Users\jo\AppData\Local\Temp\cc8gYp92.s 			page 61


 3405 0331 0E       		.uleb128 0xe
 3406 0332 3A       		.uleb128 0x3a
 3407 0333 0B       		.uleb128 0xb
 3408 0334 3B       		.uleb128 0x3b
 3409 0335 0B       		.uleb128 0xb
 3410 0336 49       		.uleb128 0x49
 3411 0337 13       		.uleb128 0x13
 3412 0338 3F       		.uleb128 0x3f
 3413 0339 19       		.uleb128 0x19
 3414 033a 02       		.uleb128 0x2
 3415 033b 18       		.uleb128 0x18
 3416 033c 00       		.byte	0
 3417 033d 00       		.byte	0
 3418 033e 3E       		.uleb128 0x3e
 3419 033f 2E       		.uleb128 0x2e
 3420 0340 01       		.byte	0x1
 3421 0341 3F       		.uleb128 0x3f
 3422 0342 19       		.uleb128 0x19
 3423 0343 03       		.uleb128 0x3
 3424 0344 0E       		.uleb128 0xe
 3425 0345 3A       		.uleb128 0x3a
 3426 0346 0B       		.uleb128 0xb
 3427 0347 3B       		.uleb128 0x3b
 3428 0348 0B       		.uleb128 0xb
 3429 0349 27       		.uleb128 0x27
 3430 034a 19       		.uleb128 0x19
 3431 034b 49       		.uleb128 0x49
 3432 034c 13       		.uleb128 0x13
 3433 034d 3C       		.uleb128 0x3c
 3434 034e 19       		.uleb128 0x19
 3435 034f 01       		.uleb128 0x1
 3436 0350 13       		.uleb128 0x13
 3437 0351 00       		.byte	0
 3438 0352 00       		.byte	0
 3439 0353 3F       		.uleb128 0x3f
 3440 0354 2E       		.uleb128 0x2e
 3441 0355 01       		.byte	0x1
 3442 0356 3F       		.uleb128 0x3f
 3443 0357 19       		.uleb128 0x19
 3444 0358 03       		.uleb128 0x3
 3445 0359 0E       		.uleb128 0xe
 3446 035a 3A       		.uleb128 0x3a
 3447 035b 0B       		.uleb128 0xb
 3448 035c 3B       		.uleb128 0x3b
 3449 035d 0B       		.uleb128 0xb
 3450 035e 27       		.uleb128 0x27
 3451 035f 19       		.uleb128 0x19
 3452 0360 3C       		.uleb128 0x3c
 3453 0361 19       		.uleb128 0x19
 3454 0362 00       		.byte	0
 3455 0363 00       		.byte	0
 3456 0364 00       		.byte	0
 3457              		.section	.debug_loc,"",%progbits
 3458              	.Ldebug_loc0:
 3459              	.LLST0:
 3460 0000 00000000 		.4byte	.LVL0
 3461 0004 0E000000 		.4byte	.LVL1
ARM GAS  C:\Users\jo\AppData\Local\Temp\cc8gYp92.s 			page 62


 3462 0008 0100     		.2byte	0x1
 3463 000a 50       		.byte	0x50
 3464 000b 0E000000 		.4byte	.LVL1
 3465 000f 28000000 		.4byte	.LFE262
 3466 0013 0400     		.2byte	0x4
 3467 0015 F3       		.byte	0xf3
 3468 0016 01       		.uleb128 0x1
 3469 0017 50       		.byte	0x50
 3470 0018 9F       		.byte	0x9f
 3471 0019 00000000 		.4byte	0
 3472 001d 00000000 		.4byte	0
 3473              	.LLST1:
 3474 0021 00000000 		.4byte	.LVL3
 3475 0025 26000000 		.4byte	.LVL4
 3476 0029 0100     		.2byte	0x1
 3477 002b 50       		.byte	0x50
 3478 002c 26000000 		.4byte	.LVL4
 3479 0030 32000000 		.4byte	.LVL5
 3480 0034 0400     		.2byte	0x4
 3481 0036 F3       		.byte	0xf3
 3482 0037 01       		.uleb128 0x1
 3483 0038 50       		.byte	0x50
 3484 0039 9F       		.byte	0x9f
 3485 003a 32000000 		.4byte	.LVL5
 3486 003e 36000000 		.4byte	.LVL6
 3487 0042 0100     		.2byte	0x1
 3488 0044 50       		.byte	0x50
 3489 0045 36000000 		.4byte	.LVL6
 3490 0049 38000000 		.4byte	.LVL7
 3491 004d 0400     		.2byte	0x4
 3492 004f F3       		.byte	0xf3
 3493 0050 01       		.uleb128 0x1
 3494 0051 50       		.byte	0x50
 3495 0052 9F       		.byte	0x9f
 3496 0053 38000000 		.4byte	.LVL7
 3497 0057 3C000000 		.4byte	.LVL8
 3498 005b 0100     		.2byte	0x1
 3499 005d 50       		.byte	0x50
 3500 005e 3C000000 		.4byte	.LVL8
 3501 0062 3E000000 		.4byte	.LFE256
 3502 0066 0400     		.2byte	0x4
 3503 0068 F3       		.byte	0xf3
 3504 0069 01       		.uleb128 0x1
 3505 006a 50       		.byte	0x50
 3506 006b 9F       		.byte	0x9f
 3507 006c 00000000 		.4byte	0
 3508 0070 00000000 		.4byte	0
 3509              	.LLST2:
 3510 0074 00000000 		.4byte	.LVL3
 3511 0078 26000000 		.4byte	.LVL4
 3512 007c 0300     		.2byte	0x3
 3513 007e 50       		.byte	0x50
 3514 007f 93       		.byte	0x93
 3515 0080 04       		.uleb128 0x4
 3516 0081 26000000 		.4byte	.LVL4
 3517 0085 32000000 		.4byte	.LVL5
 3518 0089 0600     		.2byte	0x6
ARM GAS  C:\Users\jo\AppData\Local\Temp\cc8gYp92.s 			page 63


 3519 008b F3       		.byte	0xf3
 3520 008c 01       		.uleb128 0x1
 3521 008d 50       		.byte	0x50
 3522 008e 9F       		.byte	0x9f
 3523 008f 93       		.byte	0x93
 3524 0090 04       		.uleb128 0x4
 3525 0091 32000000 		.4byte	.LVL5
 3526 0095 36000000 		.4byte	.LVL6
 3527 0099 0300     		.2byte	0x3
 3528 009b 50       		.byte	0x50
 3529 009c 93       		.byte	0x93
 3530 009d 04       		.uleb128 0x4
 3531 009e 36000000 		.4byte	.LVL6
 3532 00a2 38000000 		.4byte	.LVL7
 3533 00a6 0600     		.2byte	0x6
 3534 00a8 F3       		.byte	0xf3
 3535 00a9 01       		.uleb128 0x1
 3536 00aa 50       		.byte	0x50
 3537 00ab 9F       		.byte	0x9f
 3538 00ac 93       		.byte	0x93
 3539 00ad 04       		.uleb128 0x4
 3540 00ae 38000000 		.4byte	.LVL7
 3541 00b2 3C000000 		.4byte	.LVL8
 3542 00b6 0300     		.2byte	0x3
 3543 00b8 50       		.byte	0x50
 3544 00b9 93       		.byte	0x93
 3545 00ba 04       		.uleb128 0x4
 3546 00bb 3C000000 		.4byte	.LVL8
 3547 00bf 3E000000 		.4byte	.LFE256
 3548 00c3 0600     		.2byte	0x6
 3549 00c5 F3       		.byte	0xf3
 3550 00c6 01       		.uleb128 0x1
 3551 00c7 50       		.byte	0x50
 3552 00c8 9F       		.byte	0x9f
 3553 00c9 93       		.byte	0x93
 3554 00ca 04       		.uleb128 0x4
 3555 00cb 00000000 		.4byte	0
 3556 00cf 00000000 		.4byte	0
 3557              	.LLST3:
 3558 00d3 00000000 		.4byte	.LVL9
 3559 00d7 05000000 		.4byte	.LVL10-1
 3560 00db 0100     		.2byte	0x1
 3561 00dd 50       		.byte	0x50
 3562 00de 05000000 		.4byte	.LVL10-1
 3563 00e2 2E000000 		.4byte	.LFE257
 3564 00e6 0400     		.2byte	0x4
 3565 00e8 F3       		.byte	0xf3
 3566 00e9 01       		.uleb128 0x1
 3567 00ea 50       		.byte	0x50
 3568 00eb 9F       		.byte	0x9f
 3569 00ec 00000000 		.4byte	0
 3570 00f0 00000000 		.4byte	0
 3571              	.LLST4:
 3572 00f4 06000000 		.4byte	.LVL10
 3573 00f8 0E000000 		.4byte	.LVL11
 3574 00fc 0500     		.2byte	0x5
 3575 00fe 40       		.byte	0x40
ARM GAS  C:\Users\jo\AppData\Local\Temp\cc8gYp92.s 			page 64


 3576 00ff 4B       		.byte	0x4b
 3577 0100 24       		.byte	0x24
 3578 0101 1F       		.byte	0x1f
 3579 0102 9F       		.byte	0x9f
 3580 0103 0E000000 		.4byte	.LVL11
 3581 0107 22000000 		.4byte	.LVL14
 3582 010b 0100     		.2byte	0x1
 3583 010d 53       		.byte	0x53
 3584 010e 22000000 		.4byte	.LVL14
 3585 0112 24000000 		.4byte	.LVL15
 3586 0116 0500     		.2byte	0x5
 3587 0118 73       		.byte	0x73
 3588 0119 00       		.sleb128 0
 3589 011a 31       		.byte	0x31
 3590 011b 25       		.byte	0x25
 3591 011c 9F       		.byte	0x9f
 3592 011d 24000000 		.4byte	.LVL15
 3593 0121 26000000 		.4byte	.LVL16
 3594 0125 0100     		.2byte	0x1
 3595 0127 53       		.byte	0x53
 3596 0128 2A000000 		.4byte	.LVL18
 3597 012c 2E000000 		.4byte	.LFE257
 3598 0130 0100     		.2byte	0x1
 3599 0132 53       		.byte	0x53
 3600 0133 00000000 		.4byte	0
 3601 0137 00000000 		.4byte	0
 3602              	.LLST5:
 3603 013b 06000000 		.4byte	.LVL10
 3604 013f 28000000 		.4byte	.LVL17
 3605 0143 0100     		.2byte	0x1
 3606 0145 50       		.byte	0x50
 3607 0146 2A000000 		.4byte	.LVL18
 3608 014a 2C000000 		.4byte	.LVL19
 3609 014e 0100     		.2byte	0x1
 3610 0150 50       		.byte	0x50
 3611 0151 00000000 		.4byte	0
 3612 0155 00000000 		.4byte	0
 3613              	.LLST6:
 3614 0159 00000000 		.4byte	.LVL20
 3615 015d 26000000 		.4byte	.LVL26
 3616 0161 0100     		.2byte	0x1
 3617 0163 50       		.byte	0x50
 3618 0164 26000000 		.4byte	.LVL26
 3619 0168 2A000000 		.4byte	.LVL27
 3620 016c 0300     		.2byte	0x3
 3621 016e 70       		.byte	0x70
 3622 016f 7F       		.sleb128 -1
 3623 0170 9F       		.byte	0x9f
 3624 0171 2A000000 		.4byte	.LVL27
 3625 0175 30000000 		.4byte	.LVL29
 3626 0179 0100     		.2byte	0x1
 3627 017b 5C       		.byte	0x5c
 3628 017c 30000000 		.4byte	.LVL29
 3629 0180 32000000 		.4byte	.LVL30
 3630 0184 0100     		.2byte	0x1
 3631 0186 50       		.byte	0x50
 3632 0187 32000000 		.4byte	.LVL30
ARM GAS  C:\Users\jo\AppData\Local\Temp\cc8gYp92.s 			page 65


 3633 018b 36000000 		.4byte	.LVL31
 3634 018f 0300     		.2byte	0x3
 3635 0191 70       		.byte	0x70
 3636 0192 7F       		.sleb128 -1
 3637 0193 9F       		.byte	0x9f
 3638 0194 52000000 		.4byte	.LVL32
 3639 0198 70000000 		.4byte	.LVL35
 3640 019c 0100     		.2byte	0x1
 3641 019e 5C       		.byte	0x5c
 3642 019f 70000000 		.4byte	.LVL35
 3643 01a3 74000000 		.4byte	.LVL37
 3644 01a7 0100     		.2byte	0x1
 3645 01a9 50       		.byte	0x50
 3646 01aa 74000000 		.4byte	.LVL37
 3647 01ae 90000000 		.4byte	.LVL40
 3648 01b2 0100     		.2byte	0x1
 3649 01b4 5C       		.byte	0x5c
 3650 01b5 90000000 		.4byte	.LVL40
 3651 01b9 92000000 		.4byte	.LVL41
 3652 01bd 0100     		.2byte	0x1
 3653 01bf 50       		.byte	0x50
 3654 01c0 9C000000 		.4byte	.LVL42
 3655 01c4 A8000000 		.4byte	.LVL44
 3656 01c8 0300     		.2byte	0x3
 3657 01ca 70       		.byte	0x70
 3658 01cb 01       		.sleb128 1
 3659 01cc 9F       		.byte	0x9f
 3660 01cd A8000000 		.4byte	.LVL44
 3661 01d1 B0000000 		.4byte	.LVL45
 3662 01d5 0100     		.2byte	0x1
 3663 01d7 50       		.byte	0x50
 3664 01d8 B0000000 		.4byte	.LVL45
 3665 01dc B6000000 		.4byte	.LVL47
 3666 01e0 0300     		.2byte	0x3
 3667 01e2 70       		.byte	0x70
 3668 01e3 02       		.sleb128 2
 3669 01e4 9F       		.byte	0x9f
 3670 01e5 B6000000 		.4byte	.LVL47
 3671 01e9 BC000000 		.4byte	.LVL48
 3672 01ed 0100     		.2byte	0x1
 3673 01ef 50       		.byte	0x50
 3674 01f0 BC000000 		.4byte	.LVL48
 3675 01f4 02010000 		.4byte	.LVL51
 3676 01f8 0100     		.2byte	0x1
 3677 01fa 5C       		.byte	0x5c
 3678 01fb 10010000 		.4byte	.LVL53
 3679 01ff 45010000 		.4byte	.LVL58-1
 3680 0203 0100     		.2byte	0x1
 3681 0205 5C       		.byte	0x5c
 3682 0206 00000000 		.4byte	0
 3683 020a 00000000 		.4byte	0
 3684              	.LLST7:
 3685 020e 00000000 		.4byte	.LVL20
 3686 0212 0E000000 		.4byte	.LVL21
 3687 0216 0100     		.2byte	0x1
 3688 0218 51       		.byte	0x51
 3689 0219 0E000000 		.4byte	.LVL21
ARM GAS  C:\Users\jo\AppData\Local\Temp\cc8gYp92.s 			page 66


 3690 021d 64010000 		.4byte	.LFE259
 3691 0221 0100     		.2byte	0x1
 3692 0223 56       		.byte	0x56
 3693 0224 00000000 		.4byte	0
 3694 0228 00000000 		.4byte	0
 3695              	.LLST8:
 3696 022c 1E000000 		.4byte	.LVL24
 3697 0230 2A000000 		.4byte	.LVL27
 3698 0234 0200     		.2byte	0x2
 3699 0236 30       		.byte	0x30
 3700 0237 9F       		.byte	0x9f
 3701 0238 2A000000 		.4byte	.LVL27
 3702 023c 36000000 		.4byte	.LVL31
 3703 0240 0100     		.2byte	0x1
 3704 0242 54       		.byte	0x54
 3705 0243 52000000 		.4byte	.LVL32
 3706 0247 92000000 		.4byte	.LVL41
 3707 024b 0100     		.2byte	0x1
 3708 024d 54       		.byte	0x54
 3709 024e 9C000000 		.4byte	.LVL42
 3710 0252 BC000000 		.4byte	.LVL48
 3711 0256 0200     		.2byte	0x2
 3712 0258 30       		.byte	0x30
 3713 0259 9F       		.byte	0x9f
 3714 025a BC000000 		.4byte	.LVL48
 3715 025e 02010000 		.4byte	.LVL51
 3716 0262 0100     		.2byte	0x1
 3717 0264 54       		.byte	0x54
 3718 0265 02010000 		.4byte	.LVL51
 3719 0269 10010000 		.4byte	.LVL53
 3720 026d 0100     		.2byte	0x1
 3721 026f 55       		.byte	0x55
 3722 0270 10010000 		.4byte	.LVL53
 3723 0274 26010000 		.4byte	.LVL54
 3724 0278 0100     		.2byte	0x1
 3725 027a 54       		.byte	0x54
 3726 027b 26010000 		.4byte	.LVL54
 3727 027f 28010000 		.4byte	.LVL55
 3728 0283 0100     		.2byte	0x1
 3729 0285 55       		.byte	0x55
 3730 0286 28010000 		.4byte	.LVL55
 3731 028a 34010000 		.4byte	.LVL56
 3732 028e 0100     		.2byte	0x1
 3733 0290 54       		.byte	0x54
 3734 0291 34010000 		.4byte	.LVL56
 3735 0295 36010000 		.4byte	.LVL57
 3736 0299 0100     		.2byte	0x1
 3737 029b 55       		.byte	0x55
 3738 029c 36010000 		.4byte	.LVL57
 3739 02a0 4E010000 		.4byte	.LVL60
 3740 02a4 0100     		.2byte	0x1
 3741 02a6 54       		.byte	0x54
 3742 02a7 4E010000 		.4byte	.LVL60
 3743 02ab 64010000 		.4byte	.LFE259
 3744 02af 0100     		.2byte	0x1
 3745 02b1 55       		.byte	0x55
 3746 02b2 00000000 		.4byte	0
ARM GAS  C:\Users\jo\AppData\Local\Temp\cc8gYp92.s 			page 67


 3747 02b6 00000000 		.4byte	0
 3748              	.LLST9:
 3749 02ba 1E000000 		.4byte	.LVL24
 3750 02be 24000000 		.4byte	.LVL25
 3751 02c2 0200     		.2byte	0x2
 3752 02c4 3A       		.byte	0x3a
 3753 02c5 9F       		.byte	0x9f
 3754 02c6 9C000000 		.4byte	.LVL42
 3755 02ca B0000000 		.4byte	.LVL45
 3756 02ce 0200     		.2byte	0x2
 3757 02d0 3A       		.byte	0x3a
 3758 02d1 9F       		.byte	0x9f
 3759 02d2 B0000000 		.4byte	.LVL45
 3760 02d6 BC000000 		.4byte	.LVL48
 3761 02da 0200     		.2byte	0x2
 3762 02dc 40       		.byte	0x40
 3763 02dd 9F       		.byte	0x9f
 3764 02de 00000000 		.4byte	0
 3765 02e2 00000000 		.4byte	0
 3766              	.LLST10:
 3767 02e6 12000000 		.4byte	.LVL22
 3768 02ea 2C000000 		.4byte	.LVL28
 3769 02ee 0100     		.2byte	0x1
 3770 02f0 53       		.byte	0x53
 3771 02f1 2C000000 		.4byte	.LVL28
 3772 02f5 30000000 		.4byte	.LVL29
 3773 02f9 0300     		.2byte	0x3
 3774 02fb 75       		.byte	0x75
 3775 02fc 76       		.sleb128 -10
 3776 02fd 9F       		.byte	0x9f
 3777 02fe 30000000 		.4byte	.LVL29
 3778 0302 68000000 		.4byte	.LVL33
 3779 0306 0100     		.2byte	0x1
 3780 0308 53       		.byte	0x53
 3781 0309 68000000 		.4byte	.LVL33
 3782 030d 6C000000 		.4byte	.LVL34
 3783 0311 0300     		.2byte	0x3
 3784 0313 75       		.byte	0x75
 3785 0314 76       		.sleb128 -10
 3786 0315 9F       		.byte	0x9f
 3787 0316 72000000 		.4byte	.LVL36
 3788 031a 80000000 		.4byte	.LVL38
 3789 031e 0100     		.2byte	0x1
 3790 0320 53       		.byte	0x53
 3791 0321 80000000 		.4byte	.LVL38
 3792 0325 90000000 		.4byte	.LVL40
 3793 0329 0300     		.2byte	0x3
 3794 032b 75       		.byte	0x75
 3795 032c 76       		.sleb128 -10
 3796 032d 9F       		.byte	0x9f
 3797 032e 90000000 		.4byte	.LVL40
 3798 0332 92000000 		.4byte	.LVL41
 3799 0336 0100     		.2byte	0x1
 3800 0338 53       		.byte	0x53
 3801 0339 9C000000 		.4byte	.LVL42
 3802 033d C6000000 		.4byte	.LVL49
 3803 0341 0100     		.2byte	0x1
ARM GAS  C:\Users\jo\AppData\Local\Temp\cc8gYp92.s 			page 68


 3804 0343 53       		.byte	0x53
 3805 0344 C6000000 		.4byte	.LVL49
 3806 0348 CA000000 		.4byte	.LVL50
 3807 034c 0300     		.2byte	0x3
 3808 034e 73       		.byte	0x73
 3809 034f 09       		.sleb128 9
 3810 0350 9F       		.byte	0x9f
 3811 0351 00000000 		.4byte	0
 3812 0355 00000000 		.4byte	0
 3813              	.LLST11:
 3814 0359 12000000 		.4byte	.LVL22
 3815 035d 18000000 		.4byte	.LVL23
 3816 0361 0300     		.2byte	0x3
 3817 0363 91       		.byte	0x91
 3818 0364 50       		.sleb128 -48
 3819 0365 9F       		.byte	0x9f
 3820 0366 18000000 		.4byte	.LVL23
 3821 036a 1E000000 		.4byte	.LVL24
 3822 036e 0100     		.2byte	0x1
 3823 0370 59       		.byte	0x59
 3824 0371 1E000000 		.4byte	.LVL24
 3825 0375 84000000 		.4byte	.LVL39
 3826 0379 0100     		.2byte	0x1
 3827 037b 58       		.byte	0x58
 3828 037c 84000000 		.4byte	.LVL39
 3829 0380 90000000 		.4byte	.LVL40
 3830 0384 0300     		.2byte	0x3
 3831 0386 78       		.byte	0x78
 3832 0387 7C       		.sleb128 -4
 3833 0388 9F       		.byte	0x9f
 3834 0389 90000000 		.4byte	.LVL40
 3835 038d 92000000 		.4byte	.LVL41
 3836 0391 0100     		.2byte	0x1
 3837 0393 58       		.byte	0x58
 3838 0394 9C000000 		.4byte	.LVL42
 3839 0398 64010000 		.4byte	.LFE259
 3840 039c 0100     		.2byte	0x1
 3841 039e 58       		.byte	0x58
 3842 039f 00000000 		.4byte	0
 3843 03a3 00000000 		.4byte	0
 3844              	.LLST12:
 3845 03a7 46010000 		.4byte	.LVL58
 3846 03ab 4E010000 		.4byte	.LVL60
 3847 03af 0600     		.2byte	0x6
 3848 03b1 03       		.byte	0x3
 3849 03b2 28000000 		.4byte	.LC1
 3850 03b6 9F       		.byte	0x9f
 3851 03b7 00000000 		.4byte	0
 3852 03bb 00000000 		.4byte	0
 3853              	.LLST13:
 3854 03bf 00000000 		.4byte	.LVL61
 3855 03c3 09000000 		.4byte	.LVL62-1
 3856 03c7 0100     		.2byte	0x1
 3857 03c9 50       		.byte	0x50
 3858 03ca 09000000 		.4byte	.LVL62-1
 3859 03ce 1E000000 		.4byte	.LFE258
 3860 03d2 0400     		.2byte	0x4
ARM GAS  C:\Users\jo\AppData\Local\Temp\cc8gYp92.s 			page 69


 3861 03d4 F3       		.byte	0xf3
 3862 03d5 01       		.uleb128 0x1
 3863 03d6 50       		.byte	0x50
 3864 03d7 9F       		.byte	0x9f
 3865 03d8 00000000 		.4byte	0
 3866 03dc 00000000 		.4byte	0
 3867              	.LLST14:
 3868 03e0 00000000 		.4byte	.LVL63
 3869 03e4 12000000 		.4byte	.LVL65
 3870 03e8 0100     		.2byte	0x1
 3871 03ea 50       		.byte	0x50
 3872 03eb 12000000 		.4byte	.LVL65
 3873 03ef C0000000 		.4byte	.LFE261
 3874 03f3 0400     		.2byte	0x4
 3875 03f5 F3       		.byte	0xf3
 3876 03f6 01       		.uleb128 0x1
 3877 03f7 50       		.byte	0x50
 3878 03f8 9F       		.byte	0x9f
 3879 03f9 00000000 		.4byte	0
 3880 03fd 00000000 		.4byte	0
 3881              	.LLST15:
 3882 0401 10000000 		.4byte	.LVL64
 3883 0405 20000000 		.4byte	.LVL66
 3884 0409 0100     		.2byte	0x1
 3885 040b 51       		.byte	0x51
 3886 040c 20000000 		.4byte	.LVL66
 3887 0410 A0000000 		.4byte	.LVL82
 3888 0414 0100     		.2byte	0x1
 3889 0416 57       		.byte	0x57
 3890 0417 A0000000 		.4byte	.LVL82
 3891 041b AE000000 		.4byte	.LVL83
 3892 041f 0300     		.2byte	0x3
 3893 0421 77       		.byte	0x77
 3894 0422 7F       		.sleb128 -1
 3895 0423 9F       		.byte	0x9f
 3896 0424 AE000000 		.4byte	.LVL83
 3897 0428 C0000000 		.4byte	.LFE261
 3898 042c 0100     		.2byte	0x1
 3899 042e 57       		.byte	0x57
 3900 042f 00000000 		.4byte	0
 3901 0433 00000000 		.4byte	0
 3902              	.LLST16:
 3903 0437 10000000 		.4byte	.LVL64
 3904 043b 20000000 		.4byte	.LVL66
 3905 043f 0300     		.2byte	0x3
 3906 0441 91       		.byte	0x91
 3907 0442 5C       		.sleb128 -36
 3908 0443 9F       		.byte	0x9f
 3909 0444 20000000 		.4byte	.LVL66
 3910 0448 58000000 		.4byte	.LVL73
 3911 044c 0100     		.2byte	0x1
 3912 044e 5E       		.byte	0x5e
 3913 044f 58000000 		.4byte	.LVL73
 3914 0453 9E000000 		.4byte	.LVL81
 3915 0457 0300     		.2byte	0x3
 3916 0459 7E       		.byte	0x7e
 3917 045a 7F       		.sleb128 -1
ARM GAS  C:\Users\jo\AppData\Local\Temp\cc8gYp92.s 			page 70


 3918 045b 9F       		.byte	0x9f
 3919 045c 9E000000 		.4byte	.LVL81
 3920 0460 AE000000 		.4byte	.LVL83
 3921 0464 0100     		.2byte	0x1
 3922 0466 5E       		.byte	0x5e
 3923 0467 AE000000 		.4byte	.LVL83
 3924 046b C0000000 		.4byte	.LFE261
 3925 046f 0300     		.2byte	0x3
 3926 0471 7E       		.byte	0x7e
 3927 0472 7F       		.sleb128 -1
 3928 0473 9F       		.byte	0x9f
 3929 0474 00000000 		.4byte	0
 3930 0478 00000000 		.4byte	0
 3931              	.LLST17:
 3932 047c 38000000 		.4byte	.LVL69
 3933 0480 40000000 		.4byte	.LVL70
 3934 0484 0100     		.2byte	0x1
 3935 0486 53       		.byte	0x53
 3936 0487 40000000 		.4byte	.LVL70
 3937 048b 44000000 		.4byte	.LVL71
 3938 048f 0300     		.2byte	0x3
 3939 0491 73       		.byte	0x73
 3940 0492 50       		.sleb128 -48
 3941 0493 9F       		.byte	0x9f
 3942 0494 00000000 		.4byte	0
 3943 0498 00000000 		.4byte	0
 3944              	.LLST18:
 3945 049c 10000000 		.4byte	.LVL64
 3946 04a0 20000000 		.4byte	.LVL66
 3947 04a4 0200     		.2byte	0x2
 3948 04a6 30       		.byte	0x30
 3949 04a7 9F       		.byte	0x9f
 3950 04a8 20000000 		.4byte	.LVL66
 3951 04ac 58000000 		.4byte	.LVL73
 3952 04b0 0600     		.2byte	0x6
 3953 04b2 7E       		.byte	0x7e
 3954 04b3 00       		.sleb128 0
 3955 04b4 91       		.byte	0x91
 3956 04b5 5C       		.sleb128 -36
 3957 04b6 1C       		.byte	0x1c
 3958 04b7 9F       		.byte	0x9f
 3959 04b8 9E000000 		.4byte	.LVL81
 3960 04bc AE000000 		.4byte	.LVL83
 3961 04c0 0600     		.2byte	0x6
 3962 04c2 7E       		.byte	0x7e
 3963 04c3 00       		.sleb128 0
 3964 04c4 91       		.byte	0x91
 3965 04c5 5C       		.sleb128 -36
 3966 04c6 1C       		.byte	0x1c
 3967 04c7 9F       		.byte	0x9f
 3968 04c8 00000000 		.4byte	0
 3969 04cc 00000000 		.4byte	0
 3970              	.LLST19:
 3971 04d0 28000000 		.4byte	.LVL67
 3972 04d4 2A000000 		.4byte	.LVL68
 3973 04d8 0100     		.2byte	0x1
 3974 04da 56       		.byte	0x56
ARM GAS  C:\Users\jo\AppData\Local\Temp\cc8gYp92.s 			page 71


 3975 04db 2A000000 		.4byte	.LVL68
 3976 04df 4C000000 		.4byte	.LVL72
 3977 04e3 0100     		.2byte	0x1
 3978 04e5 54       		.byte	0x54
 3979 04e6 4C000000 		.4byte	.LVL72
 3980 04ea 58000000 		.4byte	.LVL73
 3981 04ee 0100     		.2byte	0x1
 3982 04f0 56       		.byte	0x56
 3983 04f1 58000000 		.4byte	.LVL73
 3984 04f5 64000000 		.4byte	.LVL75
 3985 04f9 0100     		.2byte	0x1
 3986 04fb 54       		.byte	0x54
 3987 04fc 7C000000 		.4byte	.LVL77
 3988 0500 82000000 		.4byte	.LVL78
 3989 0504 0300     		.2byte	0x3
 3990 0506 74       		.byte	0x74
 3991 0507 01       		.sleb128 1
 3992 0508 9F       		.byte	0x9f
 3993 0509 82000000 		.4byte	.LVL78
 3994 050d 8A000000 		.4byte	.LVL79
 3995 0511 0100     		.2byte	0x1
 3996 0513 54       		.byte	0x54
 3997 0514 B6000000 		.4byte	.LVL84
 3998 0518 C0000000 		.4byte	.LFE261
 3999 051c 0100     		.2byte	0x1
 4000 051e 54       		.byte	0x54
 4001 051f 00000000 		.4byte	0
 4002 0523 00000000 		.4byte	0
 4003              	.LLST20:
 4004 0527 00000000 		.4byte	.LVL63
 4005 052b 20000000 		.4byte	.LVL66
 4006 052f 0200     		.2byte	0x2
 4007 0531 30       		.byte	0x30
 4008 0532 9F       		.byte	0x9f
 4009 0533 20000000 		.4byte	.LVL66
 4010 0537 60000000 		.4byte	.LVL74
 4011 053b 0100     		.2byte	0x1
 4012 053d 59       		.byte	0x59
 4013 053e 60000000 		.4byte	.LVL74
 4014 0542 92000000 		.4byte	.LVL80
 4015 0546 0100     		.2byte	0x1
 4016 0548 55       		.byte	0x55
 4017 0549 92000000 		.4byte	.LVL80
 4018 054d AE000000 		.4byte	.LVL83
 4019 0551 0100     		.2byte	0x1
 4020 0553 59       		.byte	0x59
 4021 0554 B6000000 		.4byte	.LVL84
 4022 0558 C0000000 		.4byte	.LFE261
 4023 055c 0100     		.2byte	0x1
 4024 055e 59       		.byte	0x59
 4025 055f 00000000 		.4byte	0
 4026 0563 00000000 		.4byte	0
 4027              	.LLST21:
 4028 0567 00000000 		.4byte	.LVL85
 4029 056b 07000000 		.4byte	.LVL86-1
 4030 056f 0100     		.2byte	0x1
 4031 0571 50       		.byte	0x50
ARM GAS  C:\Users\jo\AppData\Local\Temp\cc8gYp92.s 			page 72


 4032 0572 07000000 		.4byte	.LVL86-1
 4033 0576 0C000000 		.4byte	.LFE260
 4034 057a 0400     		.2byte	0x4
 4035 057c F3       		.byte	0xf3
 4036 057d 01       		.uleb128 0x1
 4037 057e 50       		.byte	0x50
 4038 057f 9F       		.byte	0x9f
 4039 0580 00000000 		.4byte	0
 4040 0584 00000000 		.4byte	0
 4041              		.section	.debug_aranges,"",%progbits
 4042 0000 4C000000 		.4byte	0x4c
 4043 0004 0200     		.2byte	0x2
 4044 0006 00000000 		.4byte	.Ldebug_info0
 4045 000a 04       		.byte	0x4
 4046 000b 00       		.byte	0
 4047 000c 0000     		.2byte	0
 4048 000e 0000     		.2byte	0
 4049 0010 00000000 		.4byte	.LFB262
 4050 0014 28000000 		.4byte	.LFE262-.LFB262
 4051 0018 00000000 		.4byte	.LFB256
 4052 001c 3E000000 		.4byte	.LFE256-.LFB256
 4053 0020 00000000 		.4byte	.LFB257
 4054 0024 2E000000 		.4byte	.LFE257-.LFB257
 4055 0028 00000000 		.4byte	.LFB259
 4056 002c 64010000 		.4byte	.LFE259-.LFB259
 4057 0030 00000000 		.4byte	.LFB258
 4058 0034 1E000000 		.4byte	.LFE258-.LFB258
 4059 0038 00000000 		.4byte	.LFB261
 4060 003c C0000000 		.4byte	.LFE261-.LFB261
 4061 0040 00000000 		.4byte	.LFB260
 4062 0044 0C000000 		.4byte	.LFE260-.LFB260
 4063 0048 00000000 		.4byte	0
 4064 004c 00000000 		.4byte	0
 4065              		.section	.debug_ranges,"",%progbits
 4066              	.Ldebug_ranges0:
 4067 0000 00000000 		.4byte	.LFB262
 4068 0004 28000000 		.4byte	.LFE262
 4069 0008 00000000 		.4byte	.LFB256
 4070 000c 3E000000 		.4byte	.LFE256
 4071 0010 00000000 		.4byte	.LFB257
 4072 0014 2E000000 		.4byte	.LFE257
 4073 0018 00000000 		.4byte	.LFB259
 4074 001c 64010000 		.4byte	.LFE259
 4075 0020 00000000 		.4byte	.LFB258
 4076 0024 1E000000 		.4byte	.LFE258
 4077 0028 00000000 		.4byte	.LFB261
 4078 002c C0000000 		.4byte	.LFE261
 4079 0030 00000000 		.4byte	.LFB260
 4080 0034 0C000000 		.4byte	.LFE260
 4081 0038 00000000 		.4byte	0
 4082 003c 00000000 		.4byte	0
 4083              		.section	.debug_line,"",%progbits
 4084              	.Ldebug_line0:
 4085 0000 0E050000 		.section	.debug_str,"MS",%progbits,1
 4085      02009A03 
 4085      00000201 
 4085      FB0E0D00 
ARM GAS  C:\Users\jo\AppData\Local\Temp\cc8gYp92.s 			page 73


 4085      01010101 
 4086              	.LASF25:
 4087 0000 74726566 		.ascii	"trefs_t\000"
 4087      735F7400 
 4088              	.LASF117:
 4089 0008 70627566 		.ascii	"pbuf\000"
 4089      00
 4090              	.LASF1:
 4091 000d 73697A65 		.ascii	"size_t\000"
 4091      5F7400
 4092              	.LASF21:
 4093 0014 75696E74 		.ascii	"uint64_t\000"
 4093      36345F74 
 4093      00
 4094              	.LASF144:
 4095 001d 70617274 		.ascii	"parts\000"
 4095      7300
 4096              	.LASF149:
 4097 0023 69706164 		.ascii	"ipaddr_ntoa\000"
 4097      64725F6E 
 4097      746F6100 
 4098              	.LASF4:
 4099 002f 5F5F7569 		.ascii	"__uint8_t\000"
 4099      6E74385F 
 4099      7400
 4100              	.LASF85:
 4101 0039 706F7274 		.ascii	"port_intctx\000"
 4101      5F696E74 
 4101      63747800 
 4102              	.LASF108:
 4103 0045 76615F6C 		.ascii	"va_list\000"
 4103      69737400 
 4104              	.LASF72:
 4105 004d 73797374 		.ascii	"system_debug_t\000"
 4105      656D5F64 
 4105      65627567 
 4105      5F7400
 4106              	.LASF121:
 4107 005c 74797065 		.ascii	"type\000"
 4107      00
 4108              	.LASF161:
 4109 0061 63685379 		.ascii	"chSysHalt\000"
 4109      7348616C 
 4109      7400
 4110              	.LASF15:
 4111 006b 6C6F6E67 		.ascii	"long long unsigned int\000"
 4111      206C6F6E 
 4111      6720756E 
 4111      7369676E 
 4111      65642069 
 4112              	.LASF136:
 4113 0082 666F726D 		.ascii	"formatted_bytes\000"
 4113      61747465 
 4113      645F6279 
 4113      74657300 
 4114              	.LASF93:
 4115 0092 65786974 		.ascii	"exitcode\000"
ARM GAS  C:\Users\jo\AppData\Local\Temp\cc8gYp92.s 			page 74


 4115      636F6465 
 4115      00
 4116              	.LASF79:
 4117 009b 6D61696E 		.ascii	"mainthread\000"
 4117      74687265 
 4117      616400
 4118              	.LASF69:
 4119 00a6 76697274 		.ascii	"virtual_timers_list_t\000"
 4119      75616C5F 
 4119      74696D65 
 4119      72735F6C 
 4119      6973745F 
 4120              	.LASF2:
 4121 00bc 5F5F696E 		.ascii	"__int8_t\000"
 4121      74385F74 
 4121      00
 4122              	.LASF150:
 4123 00c5 49544D5F 		.ascii	"ITM_RxBuffer\000"
 4123      52784275 
 4123      66666572 
 4123      00
 4124              	.LASF118:
 4125 00d2 6E657874 		.ascii	"next\000"
 4125      00
 4126              	.LASF52:
 4127 00d7 63685F74 		.ascii	"ch_threads_queue\000"
 4127      68726561 
 4127      64735F71 
 4127      75657565 
 4127      00
 4128              	.LASF33:
 4129 00e8 705F7072 		.ascii	"p_prio\000"
 4129      696F00
 4130              	.LASF13:
 4131 00ef 6C6F6E67 		.ascii	"long long int\000"
 4131      206C6F6E 
 4131      6720696E 
 4131      7400
 4132              	.LASF3:
 4133 00fd 7369676E 		.ascii	"signed char\000"
 4133      65642063 
 4133      68617200 
 4134              	.LASF109:
 4135 0109 75385F74 		.ascii	"u8_t\000"
 4135      00
 4136              	.LASF47:
 4137 010e 705F6D70 		.ascii	"p_mpool\000"
 4137      6F6F6C00 
 4138              	.LASF130:
 4139 0116 68776164 		.ascii	"hwaddr\000"
 4139      647200
 4140              	.LASF114:
 4141 011d 61646472 		.ascii	"addr\000"
 4141      00
 4142              	.LASF137:
 4143 0122 6970345F 		.ascii	"ip4_addr_isbroadcast\000"
 4143      61646472 
ARM GAS  C:\Users\jo\AppData\Local\Temp\cc8gYp92.s 			page 75


 4143      5F697362 
 4143      726F6164 
 4143      63617374 
 4144              	.LASF78:
 4145 0137 76746C69 		.ascii	"vtlist\000"
 4145      737400
 4146              	.LASF120:
 4147 013e 746F745F 		.ascii	"tot_len\000"
 4147      6C656E00 
 4148              	.LASF128:
 4149 0146 73746174 		.ascii	"state\000"
 4149      6500
 4150              	.LASF76:
 4151 014c 63685F73 		.ascii	"ch_system\000"
 4151      79737465 
 4151      6D00
 4152              	.LASF10:
 4153 0156 6C6F6E67 		.ascii	"long int\000"
 4153      20696E74 
 4153      00
 4154              	.LASF24:
 4155 015f 74737461 		.ascii	"tstate_t\000"
 4155      74655F74 
 4155      00
 4156              	.LASF87:
 4157 0168 5F5F7661 		.ascii	"__va_list\000"
 4157      5F6C6973 
 4157      7400
 4158              	.LASF129:
 4159 0172 68776164 		.ascii	"hwaddr_len\000"
 4159      64725F6C 
 4159      656E00
 4160              	.LASF35:
 4161 017d 705F6E65 		.ascii	"p_newer\000"
 4161      77657200 
 4162              	.LASF124:
 4163 0185 6E65746D 		.ascii	"netmask\000"
 4163      61736B00 
 4164              	.LASF58:
 4165 018d 725F6E65 		.ascii	"r_newer\000"
 4165      77657200 
 4166              	.LASF140:
 4167 0195 6D61736B 		.ascii	"mask\000"
 4167      00
 4168              	.LASF82:
 4169 019a 72656761 		.ascii	"regarm_t\000"
 4169      726D5F74 
 4169      00
 4170              	.LASF65:
 4171 01a3 76745F70 		.ascii	"vt_prev\000"
 4171      72657600 
 4172              	.LASF100:
 4173 01ab 6D757465 		.ascii	"mutex_t\000"
 4173      785F7400 
 4174              	.LASF104:
 4175 01b3 42617365 		.ascii	"BaseSequentialStream\000"
 4175      53657175 
ARM GAS  C:\Users\jo\AppData\Local\Temp\cc8gYp92.s 			page 76


 4175      656E7469 
 4175      616C5374 
 4175      7265616D 
 4176              	.LASF80:
 4177 01c8 69646C65 		.ascii	"idle_thread_wa\000"
 4177      5F746872 
 4177      6561645F 
 4177      776100
 4178              	.LASF0:
 4179 01d7 756E7369 		.ascii	"unsigned int\000"
 4179      676E6564 
 4179      20696E74 
 4179      00
 4180              	.LASF148:
 4181 01e4 735F6164 		.ascii	"s_addr\000"
 4181      647200
 4182              	.LASF64:
 4183 01eb 76745F6E 		.ascii	"vt_next\000"
 4183      65787400 
 4184              	.LASF18:
 4185 01f3 75696E74 		.ascii	"uint16_t\000"
 4185      31365F74 
 4185      00
 4186              	.LASF66:
 4187 01fc 76745F64 		.ascii	"vt_delta\000"
 4187      656C7461 
 4187      00
 4188              	.LASF42:
 4189 0205 705F6D73 		.ascii	"p_msgqueue\000"
 4189      67717565 
 4189      756500
 4190              	.LASF112:
 4191 0210 7533325F 		.ascii	"u32_t\000"
 4191      7400
 4192              	.LASF131:
 4193 0216 6E616D65 		.ascii	"name\000"
 4193      00
 4194              	.LASF8:
 4195 021b 73686F72 		.ascii	"short unsigned int\000"
 4195      7420756E 
 4195      7369676E 
 4195      65642069 
 4195      6E7400
 4196              	.LASF49:
 4197 022e 63685F74 		.ascii	"ch_thread\000"
 4197      68726561 
 4197      6400
 4198              	.LASF141:
 4199 0238 6E6D5F68 		.ascii	"nm_hostorder\000"
 4199      6F73746F 
 4199      72646572 
 4199      00
 4200              	.LASF27:
 4201 0245 6D73675F 		.ascii	"msg_t\000"
 4201      7400
 4202              	.LASF103:
 4203 024b 72656164 		.ascii	"read\000"
ARM GAS  C:\Users\jo\AppData\Local\Temp\cc8gYp92.s 			page 77


 4203      00
 4204              	.LASF23:
 4205 0250 746D6F64 		.ascii	"tmode_t\000"
 4205      655F7400 
 4206              	.LASF155:
 4207 0258 6C776970 		.ascii	"lwip_htonl\000"
 4207      5F68746F 
 4207      6E6C00
 4208              	.LASF54:
 4209 0263 63685F72 		.ascii	"ch_ready_list\000"
 4209      65616479 
 4209      5F6C6973 
 4209      7400
 4210              	.LASF28:
 4211 0271 6576656E 		.ascii	"eventmask_t\000"
 4211      746D6173 
 4211      6B5F7400 
 4212              	.LASF9:
 4213 027d 5F5F696E 		.ascii	"__int32_t\000"
 4213      7433325F 
 4213      7400
 4214              	.LASF83:
 4215 0287 73746B61 		.ascii	"stkalign_t\000"
 4215      6C69676E 
 4215      5F7400
 4216              	.LASF152:
 4217 0292 69705F61 		.ascii	"ip_addr_any\000"
 4217      6464725F 
 4217      616E7900 
 4218              	.LASF146:
 4219 029e 69706164 		.ascii	"ipaddr_ntoa_r\000"
 4219      64725F6E 
 4219      746F615F 
 4219      7200
 4220              	.LASF159:
 4221 02ac 6F73616C 		.ascii	"osalSysHalt\000"
 4221      53797348 
 4221      616C7400 
 4222              	.LASF102:
 4223 02b8 77726974 		.ascii	"write\000"
 4223      6500
 4224              	.LASF126:
 4225 02be 6F757470 		.ascii	"output\000"
 4225      757400
 4226              	.LASF115:
 4227 02c5 69705F61 		.ascii	"ip_addr_t\000"
 4227      6464725F 
 4227      7400
 4228              	.LASF41:
 4229 02cf 705F7761 		.ascii	"p_waiting\000"
 4229      6974696E 
 4229      6700
 4230              	.LASF116:
 4231 02d9 6572725F 		.ascii	"err_t\000"
 4231      7400
 4232              	.LASF81:
 4233 02df 73697A65 		.ascii	"sizetype\000"
ARM GAS  C:\Users\jo\AppData\Local\Temp\cc8gYp92.s 			page 78


 4233      74797065 
 4233      00
 4234              	.LASF134:
 4235 02e8 6E657469 		.ascii	"netif_linkoutput_fn\000"
 4235      665F6C69 
 4235      6E6B6F75 
 4235      74707574 
 4235      5F666E00 
 4236              	.LASF142:
 4237 02fc 69706164 		.ascii	"ipaddr_aton\000"
 4237      64725F61 
 4237      746F6E00 
 4238              	.LASF70:
 4239 0308 63685F76 		.ascii	"ch_virtual_timers_list\000"
 4239      69727475 
 4239      616C5F74 
 4239      696D6572 
 4239      735F6C69 
 4240              	.LASF123:
 4241 031f 6E657469 		.ascii	"netif\000"
 4241      6600
 4242              	.LASF86:
 4243 0325 5F5F676E 		.ascii	"__gnuc_va_list\000"
 4243      75635F76 
 4243      615F6C69 
 4243      737400
 4244              	.LASF119:
 4245 0334 7061796C 		.ascii	"payload\000"
 4245      6F616400 
 4246              	.LASF71:
 4247 033c 76745F6C 		.ascii	"vt_lasttime\000"
 4247      61737474 
 4247      696D6500 
 4248              	.LASF113:
 4249 0348 69705F61 		.ascii	"ip_addr\000"
 4249      64647200 
 4250              	.LASF57:
 4251 0350 725F6374 		.ascii	"r_ctx\000"
 4251      7800
 4252              	.LASF90:
 4253 0356 746D5F63 		.ascii	"tm_calibration_t\000"
 4253      616C6962 
 4253      72617469 
 4253      6F6E5F74 
 4253      00
 4254              	.LASF153:
 4255 0367 69705F61 		.ascii	"ip_addr_broadcast\000"
 4255      6464725F 
 4255      62726F61 
 4255      64636173 
 4255      7400
 4256              	.LASF60:
 4257 0379 725F6375 		.ascii	"r_current\000"
 4257      7272656E 
 4257      7400
 4258              	.LASF59:
 4259 0383 725F6F6C 		.ascii	"r_older\000"
ARM GAS  C:\Users\jo\AppData\Local\Temp\cc8gYp92.s 			page 79


 4259      64657200 
 4260              	.LASF14:
 4261 038b 5F5F7569 		.ascii	"__uint64_t\000"
 4261      6E743634 
 4261      5F7400
 4262              	.LASF107:
 4263 0396 49544D53 		.ascii	"ITMStream\000"
 4263      74726561 
 4263      6D00
 4264              	.LASF62:
 4265 03a0 76697274 		.ascii	"virtual_timer_t\000"
 4265      75616C5F 
 4265      74696D65 
 4265      725F7400 
 4266              	.LASF32:
 4267 03b0 705F7072 		.ascii	"p_prev\000"
 4267      657600
 4268              	.LASF26:
 4269 03b7 74707269 		.ascii	"tprio_t\000"
 4269      6F5F7400 
 4270              	.LASF143:
 4271 03bf 62617365 		.ascii	"base\000"
 4271      00
 4272              	.LASF96:
 4273 03c4 6D757465 		.ascii	"mutex\000"
 4273      7800
 4274              	.LASF73:
 4275 03ca 63685F73 		.ascii	"ch_system_debug\000"
 4275      79737465 
 4275      6D5F6465 
 4275      62756700 
 4276              	.LASF105:
 4277 03da 5F426F6F 		.ascii	"_Bool\000"
 4277      6C00
 4278              	.LASF19:
 4279 03e0 696E7433 		.ascii	"int32_t\000"
 4279      325F7400 
 4280              	.LASF5:
 4281 03e8 756E7369 		.ascii	"unsigned char\000"
 4281      676E6564 
 4281      20636861 
 4281      7200
 4282              	.LASF97:
 4283 03f6 6D5F7175 		.ascii	"m_queue\000"
 4283      65756500 
 4284              	.LASF45:
 4285 03fe 705F6D74 		.ascii	"p_mtxlist\000"
 4285      786C6973 
 4285      7400
 4286              	.LASF6:
 4287 0408 73686F72 		.ascii	"short int\000"
 4287      7420696E 
 4287      7400
 4288              	.LASF38:
 4289 0412 705F7374 		.ascii	"p_state\000"
 4289      61746500 
 4290              	.LASF133:
ARM GAS  C:\Users\jo\AppData\Local\Temp\cc8gYp92.s 			page 80


 4291 041a 6E657469 		.ascii	"netif_output_fn\000"
 4291      665F6F75 
 4291      74707574 
 4291      5F666E00 
 4292              	.LASF36:
 4293 042a 705F6F6C 		.ascii	"p_older\000"
 4293      64657200 
 4294              	.LASF56:
 4295 0432 725F7072 		.ascii	"r_prio\000"
 4295      696F00
 4296              	.LASF95:
 4297 0439 65776D61 		.ascii	"ewmask\000"
 4297      736B00
 4298              	.LASF31:
 4299 0440 705F6E65 		.ascii	"p_next\000"
 4299      787400
 4300              	.LASF156:
 4301 0447 474E5520 		.ascii	"GNU C 4.9.3 20141119 (release) [ARM/embedded-4_9-br"
 4301      4320342E 
 4301      392E3320 
 4301      32303134 
 4301      31313139 
 4302 047a 616E6368 		.ascii	"anch revision 218278] -mcpu=cortex-m4 -mfloat-abi=h"
 4302      20726576 
 4302      6973696F 
 4302      6E203231 
 4302      38323738 
 4303 04ad 61726420 		.ascii	"ard -mfpu=fpv4-sp-d16 -mno-thumb-interwork -mthumb "
 4303      2D6D6670 
 4303      753D6670 
 4303      76342D73 
 4303      702D6431 
 4304 04e0 2D676764 		.ascii	"-ggdb -O2 -fomit-frame-pointer -falign-functions=16"
 4304      62202D4F 
 4304      32202D66 
 4304      6F6D6974 
 4304      2D667261 
 4305 0513 202D6666 		.ascii	" -ffunction-sections -fdata-sections -fno-common -f"
 4305      756E6374 
 4305      696F6E2D 
 4305      73656374 
 4305      696F6E73 
 4306 0546 73696E67 		.ascii	"single-precision-constant\000"
 4306      6C652D70 
 4306      72656369 
 4306      73696F6E 
 4306      2D636F6E 
 4307              	.LASF101:
 4308 0560 42617365 		.ascii	"BaseSequentialStreamVMT\000"
 4308      53657175 
 4308      656E7469 
 4308      616C5374 
 4308      7265616D 
 4309              	.LASF39:
 4310 0578 705F666C 		.ascii	"p_flags\000"
 4310      61677300 
 4311              	.LASF37:
ARM GAS  C:\Users\jo\AppData\Local\Temp\cc8gYp92.s 			page 81


 4312 0580 705F6E61 		.ascii	"p_name\000"
 4312      6D6500
 4313              	.LASF147:
 4314 0587 6275666C 		.ascii	"buflen\000"
 4314      656E00
 4315              	.LASF135:
 4316 058e 72656173 		.ascii	"reason\000"
 4316      6F6E00
 4317              	.LASF125:
 4318 0595 696E7075 		.ascii	"input\000"
 4318      7400
 4319              	.LASF63:
 4320 059b 63685F76 		.ascii	"ch_virtual_timer\000"
 4320      69727475 
 4320      616C5F74 
 4320      696D6572 
 4320      00
 4321              	.LASF110:
 4322 05ac 73385F74 		.ascii	"s8_t\000"
 4322      00
 4323              	.LASF44:
 4324 05b1 705F6570 		.ascii	"p_epending\000"
 4324      656E6469 
 4324      6E6700
 4325              	.LASF20:
 4326 05bc 75696E74 		.ascii	"uint32_t\000"
 4326      33325F74 
 4326      00
 4327              	.LASF55:
 4328 05c5 725F7175 		.ascii	"r_queue\000"
 4328      65756500 
 4329              	.LASF50:
 4330 05cd 63685F74 		.ascii	"ch_threads_list\000"
 4330      68726561 
 4330      64735F6C 
 4330      69737400 
 4331              	.LASF12:
 4332 05dd 6C6F6E67 		.ascii	"long unsigned int\000"
 4332      20756E73 
 4332      69676E65 
 4332      6420696E 
 4332      7400
 4333              	.LASF88:
 4334 05ef 63686172 		.ascii	"char\000"
 4334      00
 4335              	.LASF157:
 4336 05f4 2E2E2F2E 		.ascii	"../../../os/ext/lwip-1.4.1/src/core/ipv4/ip_addr.c\000"
 4336      2E2F2E2E 
 4336      2F6F732F 
 4336      6578742F 
 4336      6C776970 
 4337              	.LASF158:
 4338 0627 433A5C55 		.ascii	"C:\\Users\\jo\\Documents\\GitHub\\ChibiOS\\demos\\S"
 4338      73657273 
 4338      5C6A6F5C 
 4338      446F6375 
 4338      6D656E74 
ARM GAS  C:\Users\jo\AppData\Local\Temp\cc8gYp92.s 			page 82


 4339 0653 544D3332 		.ascii	"TM32\\RT-STM32F407-DISCOVERY\000"
 4339      5C52542D 
 4339      53544D33 
 4339      32463430 
 4339      372D4449 
 4340              	.LASF7:
 4341 066f 5F5F7569 		.ascii	"__uint16_t\000"
 4341      6E743136 
 4341      5F7400
 4342              	.LASF106:
 4343 067a 49544D53 		.ascii	"ITMStreamVMT\000"
 4343      74726561 
 4343      6D564D54 
 4343      00
 4344              	.LASF30:
 4345 0687 74687265 		.ascii	"thread_t\000"
 4345      61645F74 
 4345      00
 4346              	.LASF99:
 4347 0690 6D5F6E65 		.ascii	"m_next\000"
 4347      787400
 4348              	.LASF29:
 4349 0697 73797374 		.ascii	"systime_t\000"
 4349      696D655F 
 4349      7400
 4350              	.LASF46:
 4351 06a1 705F7265 		.ascii	"p_realprio\000"
 4351      616C7072 
 4351      696F00
 4352              	.LASF61:
 4353 06ac 76746675 		.ascii	"vtfunc_t\000"
 4353      6E635F74 
 4353      00
 4354              	.LASF11:
 4355 06b5 5F5F7569 		.ascii	"__uint32_t\000"
 4355      6E743332 
 4355      5F7400
 4356              	.LASF74:
 4357 06c0 70616E69 		.ascii	"panic_msg\000"
 4357      635F6D73 
 4357      6700
 4358              	.LASF89:
 4359 06ca 6F666673 		.ascii	"offset\000"
 4359      657400
 4360              	.LASF132:
 4361 06d1 6E657469 		.ascii	"netif_input_fn\000"
 4361      665F696E 
 4361      7075745F 
 4361      666E00
 4362              	.LASF91:
 4363 06e0 5F5F6170 		.ascii	"__ap\000"
 4363      00
 4364              	.LASF84:
 4365 06e5 636F6E74 		.ascii	"context\000"
 4365      65787400 
 4366              	.LASF75:
 4367 06ed 63685F73 		.ascii	"ch_system_t\000"
ARM GAS  C:\Users\jo\AppData\Local\Temp\cc8gYp92.s 			page 83


 4367      79737465 
 4367      6D5F7400 
 4368              	.LASF22:
 4369 06f9 7274636E 		.ascii	"rtcnt_t\000"
 4369      745F7400 
 4370              	.LASF16:
 4371 0701 696E7438 		.ascii	"int8_t\000"
 4371      5F7400
 4372              	.LASF68:
 4373 0708 76745F70 		.ascii	"vt_par\000"
 4373      617200
 4374              	.LASF111:
 4375 070f 7531365F 		.ascii	"u16_t\000"
 4375      7400
 4376              	.LASF53:
 4377 0715 72656164 		.ascii	"ready_list_t\000"
 4377      795F6C69 
 4377      73745F74 
 4377      00
 4378              	.LASF151:
 4379 0722 69746D5F 		.ascii	"itm_port\000"
 4379      706F7274 
 4379      00
 4380              	.LASF51:
 4381 072b 74687265 		.ascii	"threads_queue_t\000"
 4381      6164735F 
 4381      71756575 
 4381      655F7400 
 4382              	.LASF92:
 4383 073b 7264796D 		.ascii	"rdymsg\000"
 4383      736700
 4384              	.LASF40:
 4385 0742 705F7265 		.ascii	"p_refs\000"
 4385      667300
 4386              	.LASF139:
 4387 0749 69706164 		.ascii	"ipaddr\000"
 4387      647200
 4388              	.LASF77:
 4389 0750 726C6973 		.ascii	"rlist\000"
 4389      7400
 4390              	.LASF17:
 4391 0756 75696E74 		.ascii	"uint8_t\000"
 4391      385F7400 
 4392              	.LASF154:
 4393 075e 63687670 		.ascii	"chvprintf\000"
 4393      72696E74 
 4393      6600
 4394              	.LASF122:
 4395 0768 666C6167 		.ascii	"flags\000"
 4395      7300
 4396              	.LASF94:
 4397 076e 77746F62 		.ascii	"wtobjp\000"
 4397      6A7000
 4398              	.LASF48:
 4399 0775 74687265 		.ascii	"threads_list_t\000"
 4399      6164735F 
 4399      6C697374 
ARM GAS  C:\Users\jo\AppData\Local\Temp\cc8gYp92.s 			page 84


 4399      5F7400
 4400              	.LASF43:
 4401 0784 705F6D73 		.ascii	"p_msg\000"
 4401      6700
 4402              	.LASF127:
 4403 078a 6C696E6B 		.ascii	"linkoutput\000"
 4403      6F757470 
 4403      757400
 4404              	.LASF145:
 4405 0795 69706164 		.ascii	"ipaddr_addr\000"
 4405      64725F61 
 4405      64647200 
 4406              	.LASF98:
 4407 07a1 6D5F6F77 		.ascii	"m_owner\000"
 4407      6E657200 
 4408              	.LASF34:
 4409 07a9 705F6374 		.ascii	"p_ctx\000"
 4409      7800
 4410              	.LASF67:
 4411 07af 76745F66 		.ascii	"vt_func\000"
 4411      756E6300 
 4412              	.LASF138:
 4413 07b7 6970345F 		.ascii	"ip4_addr_netmask_valid\000"
 4413      61646472 
 4413      5F6E6574 
 4413      6D61736B 
 4413      5F76616C 
 4414              	.LASF160:
 4415 07ce 63687072 		.ascii	"chprintf\000"
 4415      696E7466 
 4415      00
 4416              		.ident	"GCC: (GNU Tools for ARM Embedded Processors) 4.9.3 20141119 (release) [ARM/embedded-4_9-br
ARM GAS  C:\Users\jo\AppData\Local\Temp\cc8gYp92.s 			page 85


DEFINED SYMBOLS
                            *ABS*:00000000 ip_addr.c
C:\Users\jo\AppData\Local\Temp\cc8gYp92.s:21     .text.chprintf.constprop.0:00000000 $t
C:\Users\jo\AppData\Local\Temp\cc8gYp92.s:26     .text.chprintf.constprop.0:00000000 chprintf.constprop.0
C:\Users\jo\AppData\Local\Temp\cc8gYp92.s:72     .text.chprintf.constprop.0:00000020 $d
C:\Users\jo\AppData\Local\Temp\cc8gYp92.s:78     .text.ip4_addr_isbroadcast:00000000 $t
C:\Users\jo\AppData\Local\Temp\cc8gYp92.s:84     .text.ip4_addr_isbroadcast:00000000 ip4_addr_isbroadcast
C:\Users\jo\AppData\Local\Temp\cc8gYp92.s:143    .text.ip4_addr_netmask_valid:00000000 $t
C:\Users\jo\AppData\Local\Temp\cc8gYp92.s:149    .text.ip4_addr_netmask_valid:00000000 ip4_addr_netmask_valid
C:\Users\jo\AppData\Local\Temp\cc8gYp92.s:209    .text.ipaddr_aton:00000000 $t
C:\Users\jo\AppData\Local\Temp\cc8gYp92.s:215    .text.ipaddr_aton:00000000 ipaddr_aton
C:\Users\jo\AppData\Local\Temp\cc8gYp92.s:408    .text.ipaddr_aton:000000dc $d
C:\Users\jo\AppData\Local\Temp\cc8gYp92.s:413    .text.ipaddr_aton:000000f0 $t
C:\Users\jo\AppData\Local\Temp\cc8gYp92.s:493    .text.ipaddr_aton:00000154 $d
C:\Users\jo\AppData\Local\Temp\cc8gYp92.s:501    .text.ipaddr_addr:00000000 $t
C:\Users\jo\AppData\Local\Temp\cc8gYp92.s:507    .text.ipaddr_addr:00000000 ipaddr_addr
C:\Users\jo\AppData\Local\Temp\cc8gYp92.s:545    .text.ipaddr_ntoa_r:00000000 $t
C:\Users\jo\AppData\Local\Temp\cc8gYp92.s:551    .text.ipaddr_ntoa_r:00000000 ipaddr_ntoa_r
C:\Users\jo\AppData\Local\Temp\cc8gYp92.s:700    .text.ipaddr_ntoa_r:000000bc $d
C:\Users\jo\AppData\Local\Temp\cc8gYp92.s:705    .text.ipaddr_ntoa:00000000 $t
C:\Users\jo\AppData\Local\Temp\cc8gYp92.s:711    .text.ipaddr_ntoa:00000000 ipaddr_ntoa
C:\Users\jo\AppData\Local\Temp\cc8gYp92.s:727    .text.ipaddr_ntoa:00000008 $d
C:\Users\jo\AppData\Local\Temp\cc8gYp92.s:744    .rodata.ip_addr_broadcast:00000000 ip_addr_broadcast
C:\Users\jo\AppData\Local\Temp\cc8gYp92.s:759    .rodata.ip_addr_any:00000000 ip_addr_any
C:\Users\jo\AppData\Local\Temp\cc8gYp92.s:734    .bss.str.8433:00000000 $d
C:\Users\jo\AppData\Local\Temp\cc8gYp92.s:738    .bss.str.8433:00000000 str.8433
C:\Users\jo\AppData\Local\Temp\cc8gYp92.s:741    .rodata.ip_addr_broadcast:00000000 $d
C:\Users\jo\AppData\Local\Temp\cc8gYp92.s:747    .rodata.str1.4:00000000 $d
C:\Users\jo\AppData\Local\Temp\cc8gYp92.s:756    .rodata.ip_addr_any:00000000 $d
                     .debug_frame:00000010 $d
C:\Users\jo\AppData\Local\Temp\cc8gYp92.s:77     .text.chprintf.constprop.0:00000028 $t
C:\Users\jo\AppData\Local\Temp\cc8gYp92.s:500    .text.ipaddr_aton:00000164 $t
C:\Users\jo\AppData\Local\Temp\cc8gYp92.s:733    .text.ipaddr_ntoa:0000000c $t

UNDEFINED SYMBOLS
chvprintf
itm_port
lwip_htonl
chSysHalt
