ARM GAS  C:\Users\jo\AppData\Local\Temp\ccDwNN2l.s 			page 1


   1              		.syntax unified
   2              		.cpu cortex-m4
   3              		.eabi_attribute 27, 3
   4              		.eabi_attribute 28, 1
   5              		.fpu fpv4-sp-d16
   6              		.eabi_attribute 20, 1
   7              		.eabi_attribute 21, 1
   8              		.eabi_attribute 23, 3
   9              		.eabi_attribute 24, 1
  10              		.eabi_attribute 25, 1
  11              		.eabi_attribute 26, 1
  12              		.eabi_attribute 30, 2
  13              		.eabi_attribute 34, 1
  14              		.eabi_attribute 18, 4
  15              		.thumb
  16              		.file	"ip_frag.c"
  17              		.text
  18              	.Ltext0:
  19              		.cfi_sections	.debug_frame
  20              		.section	.text.chprintf.constprop.0,"ax",%progbits
  21              		.align	2
  22              		.p2align 4,,15
  23              		.thumb
  24              		.thumb_func
  25              		.type	chprintf.constprop.0, %function
  26              	chprintf.constprop.0:
  27              	.LFB267:
  28              		.file 1 "../../../os/hal/lib/streams/chprintf.h"
  29              		.loc 1 69 0
  30              		.cfi_startproc
  31              		@ args = 4, pretend = 12, frame = 8
  32              		@ frame_needed = 0, uses_anonymous_args = 1
  33              	.LVL0:
  34 0000 0EB4     		push	{r1, r2, r3}
  35              		.cfi_def_cfa_offset 12
  36              		.cfi_offset 1, -12
  37              		.cfi_offset 2, -8
  38              		.cfi_offset 3, -4
  39 0002 00B5     		push	{lr}
  40              		.cfi_def_cfa_offset 16
  41              		.cfi_offset 14, -16
  42 0004 82B0     		sub	sp, sp, #8
  43              		.cfi_def_cfa_offset 24
  44              		.loc 1 73 0
  45 0006 04AB     		add	r3, sp, #16
  46              		.loc 1 74 0
  47 0008 1A46     		mov	r2, r3
  48 000a 0549     		ldr	r1, .L3
  49 000c 0548     		ldr	r0, .L3+4
  50              	.LVL1:
  51              		.loc 1 73 0
  52 000e 0193     		str	r3, [sp, #4]
  53              		.loc 1 74 0
  54 0010 FFF7FEFF 		bl	chvprintf
  55              	.LVL2:
  56              		.loc 1 78 0
  57 0014 02B0     		add	sp, sp, #8
ARM GAS  C:\Users\jo\AppData\Local\Temp\ccDwNN2l.s 			page 2


  58              		.cfi_def_cfa_offset 16
  59              		@ sp needed
  60 0016 5DF804EB 		ldr	lr, [sp], #4
  61              		.cfi_restore 14
  62              		.cfi_def_cfa_offset 12
  63 001a 03B0     		add	sp, sp, #12
  64              		.cfi_restore 3
  65              		.cfi_restore 2
  66              		.cfi_restore 1
  67              		.cfi_def_cfa_offset 0
  68 001c 7047     		bx	lr
  69              	.L4:
  70 001e 00BF     		.align	2
  71              	.L3:
  72 0020 00000000 		.word	.LC0
  73 0024 00000000 		.word	itm_port
  74              		.cfi_endproc
  75              	.LFE267:
  76              		.size	chprintf.constprop.0, .-chprintf.constprop.0
  77 0028 AFF30080 		.section	.text.ip_frag_free_pbuf_custom_ref,"ax",%progbits
  77      AFF30080 
  78              		.align	2
  79              		.p2align 4,,15
  80              		.thumb
  81              		.thumb_func
  82              		.type	ip_frag_free_pbuf_custom_ref, %function
  83              	ip_frag_free_pbuf_custom_ref:
  84              	.LFB264:
  85              		.file 2 "../../../os/ext/lwip-1.4.1/src/core/ipv4/ip_frag.c"
  86              		.loc 2 632 0
  87              		.cfi_startproc
  88              		@ args = 0, pretend = 0, frame = 0
  89              		@ frame_needed = 0, uses_anonymous_args = 0
  90              	.LVL3:
  91 0000 10B5     		push	{r4, lr}
  92              		.cfi_def_cfa_offset 8
  93              		.cfi_offset 4, -8
  94              		.cfi_offset 14, -4
  95              		.loc 2 633 0
  96 0002 0446     		mov	r4, r0
  97              		.loc 2 632 0
  98 0004 82B0     		sub	sp, sp, #8
  99              		.cfi_def_cfa_offset 16
 100              		.loc 2 633 0
 101 0006 30B1     		cbz	r0, .L9
 102              	.LVL4:
 103              	.L6:
 104              		.loc 2 634 0
 105 0008 2146     		mov	r1, r4
 106 000a 0620     		movs	r0, #6
 107              		.loc 2 635 0
 108 000c 02B0     		add	sp, sp, #8
 109              		.cfi_remember_state
 110              		.cfi_def_cfa_offset 8
 111              		@ sp needed
 112 000e BDE81040 		pop	{r4, lr}
 113              		.cfi_restore 14
ARM GAS  C:\Users\jo\AppData\Local\Temp\ccDwNN2l.s 			page 3


 114              		.cfi_restore 4
 115              		.cfi_def_cfa_offset 0
 116              	.LVL5:
 117              		.loc 2 634 0
 118 0012 FFF7FEBF 		b	memp_free
 119              	.LVL6:
 120              	.L9:
 121              		.cfi_restore_state
 122              		.loc 2 633 0 discriminator 1
 123 0016 064B     		ldr	r3, .L10
 124 0018 0093     		str	r3, [sp]
 125 001a 0649     		ldr	r1, .L10+4
 126 001c 064A     		ldr	r2, .L10+8
 127 001e 0748     		ldr	r0, .L10+12
 128              	.LVL7:
 129 0020 40F27923 		movw	r3, #633
 130 0024 FFF7FEFF 		bl	chprintf.constprop.0
 131              	.LVL8:
 132              	.LBB38:
 133              	.LBB39:
 134              		.file 3 "../../../os/hal/osal/rt/osal.h"
 135              		.loc 3 414 0 discriminator 1
 136 0028 0348     		ldr	r0, .L10+8
 137 002a FFF7FEFF 		bl	chSysHalt
 138              	.LVL9:
 139 002e EBE7     		b	.L6
 140              	.L11:
 141              		.align	2
 142              	.L10:
 143 0030 34000000 		.word	.LC2
 144 0034 00000000 		.word	.LC0
 145 0038 28000000 		.word	.LC1
 146 003c 00000000 		.word	itm_port
 147              	.LBE39:
 148              	.LBE38:
 149              		.cfi_endproc
 150              	.LFE264:
 151              		.size	ip_frag_free_pbuf_custom_ref, .-ip_frag_free_pbuf_custom_ref
 152              		.section	.text.ipfrag_free_pbuf_custom,"ax",%progbits
 153              		.align	2
 154              		.p2align 4,,15
 155              		.thumb
 156              		.thumb_func
 157              		.type	ipfrag_free_pbuf_custom, %function
 158              	ipfrag_free_pbuf_custom:
 159              	.LFB265:
 160              		.loc 2 641 0
 161              		.cfi_startproc
 162              		@ args = 0, pretend = 0, frame = 0
 163              		@ frame_needed = 0, uses_anonymous_args = 0
 164              	.LVL10:
 165 0000 10B5     		push	{r4, lr}
 166              		.cfi_def_cfa_offset 8
 167              		.cfi_offset 4, -8
 168              		.cfi_offset 14, -4
 169              		.loc 2 643 0
 170 0002 0446     		mov	r4, r0
ARM GAS  C:\Users\jo\AppData\Local\Temp\ccDwNN2l.s 			page 4


 171              		.loc 2 641 0
 172 0004 82B0     		sub	sp, sp, #8
 173              		.cfi_def_cfa_offset 16
 174              		.loc 2 643 0
 175 0006 48B1     		cbz	r0, .L19
 176              	.LVL11:
 177              	.L13:
 178              		.loc 2 645 0
 179 0008 6069     		ldr	r0, [r4, #20]
 180 000a 08B1     		cbz	r0, .L14
 181              		.loc 2 646 0
 182 000c FFF7FEFF 		bl	pbuf_free
 183              	.LVL12:
 184              	.L14:
 185              		.loc 2 648 0
 186 0010 2046     		mov	r0, r4
 187              		.loc 2 649 0
 188 0012 02B0     		add	sp, sp, #8
 189              		.cfi_remember_state
 190              		.cfi_def_cfa_offset 8
 191              		@ sp needed
 192 0014 BDE81040 		pop	{r4, lr}
 193              		.cfi_restore 14
 194              		.cfi_restore 4
 195              		.cfi_def_cfa_offset 0
 196              	.LVL13:
 197              		.loc 2 648 0
 198 0018 FFF7FEBF 		b	ip_frag_free_pbuf_custom_ref
 199              	.LVL14:
 200              	.L19:
 201              		.cfi_restore_state
 202              		.loc 2 643 0 discriminator 1
 203 001c 064B     		ldr	r3, .L20
 204 001e 0093     		str	r3, [sp]
 205 0020 0649     		ldr	r1, .L20+4
 206 0022 074A     		ldr	r2, .L20+8
 207 0024 0748     		ldr	r0, .L20+12
 208              	.LVL15:
 209 0026 40F28323 		movw	r3, #643
 210 002a FFF7FEFF 		bl	chprintf.constprop.0
 211              	.LVL16:
 212              	.LBB40:
 213              	.LBB41:
 214              		.loc 3 414 0 discriminator 1
 215 002e 0448     		ldr	r0, .L20+8
 216 0030 FFF7FEFF 		bl	chSysHalt
 217              	.LVL17:
 218 0034 E8E7     		b	.L13
 219              	.L21:
 220 0036 00BF     		.align	2
 221              	.L20:
 222 0038 34000000 		.word	.LC2
 223 003c 00000000 		.word	.LC0
 224 0040 68000000 		.word	.LC3
 225 0044 00000000 		.word	itm_port
 226              	.LBE41:
 227              	.LBE40:
ARM GAS  C:\Users\jo\AppData\Local\Temp\ccDwNN2l.s 			page 5


 228              		.cfi_endproc
 229              	.LFE265:
 230              		.size	ipfrag_free_pbuf_custom, .-ipfrag_free_pbuf_custom
 231 0048 AFF30080 		.section	.text.ip_reass_dequeue_datagram,"ax",%progbits
 231      AFF30080 
 232              		.align	2
 233              		.p2align 4,,15
 234              		.thumb
 235              		.thumb_func
 236              		.type	ip_reass_dequeue_datagram, %function
 237              	ip_reass_dequeue_datagram:
 238              	.LFB260:
 239              		.loc 2 305 0
 240              		.cfi_startproc
 241              		@ args = 0, pretend = 0, frame = 0
 242              		@ frame_needed = 0, uses_anonymous_args = 0
 243              	.LVL18:
 244 0000 30B5     		push	{r4, r5, lr}
 245              		.cfi_def_cfa_offset 12
 246              		.cfi_offset 4, -12
 247              		.cfi_offset 5, -8
 248              		.cfi_offset 14, -4
 249              		.loc 2 308 0
 250 0002 104B     		ldr	r3, .L29
 251 0004 1A68     		ldr	r2, [r3]
 252 0006 8242     		cmp	r2, r0
 253              		.loc 2 305 0
 254 0008 83B0     		sub	sp, sp, #12
 255              		.cfi_def_cfa_offset 24
 256              		.loc 2 305 0
 257 000a 0446     		mov	r4, r0
 258              		.loc 2 308 0
 259 000c 0AD0     		beq	.L27
 260 000e 0D46     		mov	r5, r1
 261              		.loc 2 313 0
 262 0010 59B1     		cbz	r1, .L28
 263              	.LVL19:
 264              	.L25:
 265              		.loc 2 314 0
 266 0012 2368     		ldr	r3, [r4]
 267 0014 2B60     		str	r3, [r5]
 268              	.LVL20:
 269              	.L24:
 270              		.loc 2 318 0
 271 0016 2146     		mov	r1, r4
 272 0018 0520     		movs	r0, #5
 273              		.loc 2 319 0
 274 001a 03B0     		add	sp, sp, #12
 275              		.cfi_remember_state
 276              		.cfi_def_cfa_offset 12
 277              		@ sp needed
 278 001c BDE83040 		pop	{r4, r5, lr}
 279              		.cfi_restore 14
 280              		.cfi_restore 5
 281              		.cfi_restore 4
 282              		.cfi_def_cfa_offset 0
 283              	.LVL21:
ARM GAS  C:\Users\jo\AppData\Local\Temp\ccDwNN2l.s 			page 6


 284              		.loc 2 318 0
 285 0020 FFF7FEBF 		b	memp_free
 286              	.LVL22:
 287              	.L27:
 288              		.cfi_restore_state
 289              		.loc 2 310 0
 290 0024 0268     		ldr	r2, [r0]
 291 0026 1A60     		str	r2, [r3]
 292 0028 F5E7     		b	.L24
 293              	.L28:
 294              		.loc 2 313 0 discriminator 1
 295 002a 074B     		ldr	r3, .L29+4
 296 002c 0093     		str	r3, [sp]
 297 002e 0749     		ldr	r1, .L29+8
 298              	.LVL23:
 299 0030 074A     		ldr	r2, .L29+12
 300 0032 0848     		ldr	r0, .L29+16
 301              	.LVL24:
 302 0034 40F23913 		movw	r3, #313
 303 0038 FFF7FEFF 		bl	chprintf.constprop.0
 304              	.LVL25:
 305              	.LBB42:
 306              	.LBB43:
 307              		.loc 3 414 0 discriminator 1
 308 003c 0448     		ldr	r0, .L29+12
 309 003e FFF7FEFF 		bl	chSysHalt
 310              	.LVL26:
 311 0042 E6E7     		b	.L25
 312              	.L30:
 313              		.align	2
 314              	.L29:
 315 0044 00000000 		.word	.LANCHOR0
 316 0048 34000000 		.word	.LC2
 317 004c 00000000 		.word	.LC0
 318 0050 74000000 		.word	.LC4
 319 0054 00000000 		.word	itm_port
 320              	.LBE43:
 321              	.LBE42:
 322              		.cfi_endproc
 323              	.LFE260:
 324              		.size	ip_reass_dequeue_datagram, .-ip_reass_dequeue_datagram
 325 0058 AFF30080 		.section	.text.ip_reass_free_complete_datagram,"ax",%progbits
 325      AFF30080 
 326              		.align	2
 327              		.p2align 4,,15
 328              		.thumb
 329              		.thumb_func
 330              		.type	ip_reass_free_complete_datagram, %function
 331              	ip_reass_free_complete_datagram:
 332              	.LFB257:
 333              		.loc 2 159 0
 334              		.cfi_startproc
 335              		@ args = 0, pretend = 0, frame = 0
 336              		@ frame_needed = 0, uses_anonymous_args = 0
 337              	.LVL27:
 338 0000 2DE9F043 		push	{r4, r5, r6, r7, r8, r9, lr}
 339              		.cfi_def_cfa_offset 28
ARM GAS  C:\Users\jo\AppData\Local\Temp\ccDwNN2l.s 			page 7


 340              		.cfi_offset 4, -28
 341              		.cfi_offset 5, -24
 342              		.cfi_offset 6, -20
 343              		.cfi_offset 7, -16
 344              		.cfi_offset 8, -12
 345              		.cfi_offset 9, -8
 346              		.cfi_offset 14, -4
 347              		.loc 2 165 0
 348 0004 8142     		cmp	r1, r0
 349              		.loc 2 159 0
 350 0006 83B0     		sub	sp, sp, #12
 351              		.cfi_def_cfa_offset 40
 352              		.loc 2 159 0
 353 0008 0746     		mov	r7, r0
 354 000a 8846     		mov	r8, r1
 355              		.loc 2 165 0
 356 000c 74D0     		beq	.L52
 357              	.LVL28:
 358              	.L32:
 359              		.loc 2 166 0
 360 000e B8F1000F 		cmp	r8, #0
 361 0012 0ED0     		beq	.L33
 362              		.loc 2 167 0
 363 0014 D8F80030 		ldr	r3, [r8]
 364 0018 BB42     		cmp	r3, r7
 365 001a 0AD0     		beq	.L33
 366              		.loc 2 167 0 is_stmt 0 discriminator 1
 367 001c 3C4B     		ldr	r3, .L54
 368 001e 0093     		str	r3, [sp]
 369 0020 3C48     		ldr	r0, .L54+4
 370 0022 3D49     		ldr	r1, .L54+8
 371 0024 3D4A     		ldr	r2, .L54+12
 372 0026 A723     		movs	r3, #167
 373 0028 FFF7FEFF 		bl	chprintf.constprop.0
 374              	.LVL29:
 375              	.LBB44:
 376              	.LBB45:
 377              		.loc 3 414 0 is_stmt 1 discriminator 1
 378 002c 3B48     		ldr	r0, .L54+12
 379 002e FFF7FEFF 		bl	chSysHalt
 380              	.LVL30:
 381              	.L33:
 382              	.LBE45:
 383              	.LBE44:
 384              		.loc 2 172 0
 385 0032 7D68     		ldr	r5, [r7, #4]
 386 0034 6B68     		ldr	r3, [r5, #4]
 387              	.LVL31:
 388              		.loc 2 173 0
 389 0036 9A88     		ldrh	r2, [r3, #4]	@ unaligned
 390 0038 002A     		cmp	r2, #0
 391 003a 3DD0     		beq	.L39
 392              		.loc 2 160 0
 393 003c 0026     		movs	r6, #0
 394              	.LVL32:
 395              	.L40:
 396              	.LBB46:
ARM GAS  C:\Users\jo\AppData\Local\Temp\ccDwNN2l.s 			page 8


 397              		.loc 2 198 0
 398 003e DFF8D090 		ldr	r9, .L54
 399 0042 06E0     		b	.L36
 400              	.LVL33:
 401              	.L35:
 402              		.loc 2 200 0
 403 0044 2846     		mov	r0, r5
 404              	.LVL34:
 405              		.loc 2 199 0
 406 0046 B6B2     		uxth	r6, r6
 407              	.LVL35:
 408              		.loc 2 200 0
 409 0048 FFF7FEFF 		bl	pbuf_free
 410              	.LVL36:
 411              	.LBE46:
 412              		.loc 2 191 0
 413 004c D4B1     		cbz	r4, .L34
 414              	.L53:
 415 004e 6368     		ldr	r3, [r4, #4]
 416 0050 2546     		mov	r5, r4
 417              	.LVL37:
 418              	.L36:
 419              	.LBB49:
 420              		.loc 2 197 0
 421 0052 2846     		mov	r0, r5
 422              		.loc 2 196 0
 423 0054 1C68     		ldr	r4, [r3]	@ unaligned
 424              	.LVL38:
 425              		.loc 2 197 0
 426 0056 FFF7FEFF 		bl	pbuf_clen
 427              	.LVL39:
 428              		.loc 2 198 0
 429 005a 0644     		add	r6, r6, r0
 430              	.LVL40:
 431 005c B6F5803F 		cmp	r6, #65536
 432 0060 F0DB     		blt	.L35
 433              		.loc 2 198 0 is_stmt 0 discriminator 1
 434 0062 2D49     		ldr	r1, .L54+8
 435 0064 2E4A     		ldr	r2, .L54+16
 436 0066 CDF80090 		str	r9, [sp]
 437 006a C623     		movs	r3, #198
 438 006c 2948     		ldr	r0, .L54+4
 439              	.LVL41:
 440 006e FFF7FEFF 		bl	chprintf.constprop.0
 441              	.LVL42:
 442              	.LBB47:
 443              	.LBB48:
 444              		.loc 3 414 0 is_stmt 1 discriminator 1
 445 0072 2B48     		ldr	r0, .L54+16
 446 0074 FFF7FEFF 		bl	chSysHalt
 447              	.LVL43:
 448              	.LBE48:
 449              	.LBE47:
 450              		.loc 2 200 0 discriminator 1
 451 0078 2846     		mov	r0, r5
 452              		.loc 2 199 0 discriminator 1
 453 007a B6B2     		uxth	r6, r6
ARM GAS  C:\Users\jo\AppData\Local\Temp\ccDwNN2l.s 			page 9


 454              	.LVL44:
 455              		.loc 2 200 0 discriminator 1
 456 007c FFF7FEFF 		bl	pbuf_free
 457              	.LVL45:
 458              	.LBE49:
 459              		.loc 2 191 0 discriminator 1
 460 0080 002C     		cmp	r4, #0
 461 0082 E4D1     		bne	.L53
 462              	.LVL46:
 463              	.L34:
 464              		.loc 2 204 0
 465 0084 274C     		ldr	r4, .L54+20
 466              		.loc 2 203 0
 467 0086 3846     		mov	r0, r7
 468 0088 4146     		mov	r1, r8
 469 008a FFF7FEFF 		bl	ip_reass_dequeue_datagram
 470              	.LVL47:
 471              		.loc 2 204 0
 472 008e 2388     		ldrh	r3, [r4]
 473 0090 9E42     		cmp	r6, r3
 474 0092 0BD9     		bls	.L38
 475              		.loc 2 204 0 is_stmt 0 discriminator 1
 476 0094 1E4B     		ldr	r3, .L54
 477 0096 0093     		str	r3, [sp]
 478 0098 1F49     		ldr	r1, .L54+8
 479 009a 234A     		ldr	r2, .L54+24
 480 009c 1D48     		ldr	r0, .L54+4
 481 009e CC23     		movs	r3, #204
 482 00a0 FFF7FEFF 		bl	chprintf.constprop.0
 483              	.LVL48:
 484              	.LBB50:
 485              	.LBB51:
 486              		.loc 3 414 0 is_stmt 1 discriminator 1
 487 00a4 2048     		ldr	r0, .L54+24
 488 00a6 FFF7FEFF 		bl	chSysHalt
 489              	.LVL49:
 490 00aa 2388     		ldrh	r3, [r4]
 491              	.LVL50:
 492              	.L38:
 493              	.LBE51:
 494              	.LBE50:
 495              		.loc 2 205 0
 496 00ac 9B1B     		subs	r3, r3, r6
 497              		.loc 2 208 0
 498 00ae 3046     		mov	r0, r6
 499              		.loc 2 205 0
 500 00b0 2380     		strh	r3, [r4]	@ movhi
 501              		.loc 2 208 0
 502 00b2 03B0     		add	sp, sp, #12
 503              		.cfi_remember_state
 504              		.cfi_def_cfa_offset 28
 505              		@ sp needed
 506 00b4 BDE8F083 		pop	{r4, r5, r6, r7, r8, r9, pc}
 507              	.LVL51:
 508              	.L39:
 509              		.cfi_restore_state
 510              		.loc 2 177 0
ARM GAS  C:\Users\jo\AppData\Local\Temp\ccDwNN2l.s 			page 10


 511 00b8 1A68     		ldr	r2, [r3]	@ unaligned
 512 00ba 7A60     		str	r2, [r7, #4]
 513              		.loc 2 179 0
 514 00bc 3A46     		mov	r2, r7
 515              		.loc 2 180 0
 516 00be 2846     		mov	r0, r5
 517              		.loc 2 179 0
 518 00c0 52F8081F 		ldr	r1, [r2, #8]!	@ unaligned
 519 00c4 5668     		ldr	r6, [r2, #4]	@ unaligned
 520 00c6 9468     		ldr	r4, [r2, #8]	@ unaligned
 521 00c8 D2F80CE0 		ldr	lr, [r2, #12]	@ unaligned
 522 00cc C3F80CE0 		str	lr, [r3, #12]	@ unaligned
 523 00d0 5E60     		str	r6, [r3, #4]	@ unaligned
 524 00d2 1960     		str	r1, [r3]	@ unaligned
 525 00d4 9C60     		str	r4, [r3, #8]	@ unaligned
 526 00d6 1169     		ldr	r1, [r2, #16]	@ unaligned
 527 00d8 1961     		str	r1, [r3, #16]	@ unaligned
 528              		.loc 2 180 0
 529 00da 0121     		movs	r1, #1
 530 00dc FFF7FEFF 		bl	icmp_time_exceeded
 531              	.LVL52:
 532              		.loc 2 181 0
 533 00e0 2846     		mov	r0, r5
 534 00e2 FFF7FEFF 		bl	pbuf_clen
 535              	.LVL53:
 536              		.loc 2 183 0
 537 00e6 86B2     		uxth	r6, r0
 538              	.LVL54:
 539              		.loc 2 184 0
 540 00e8 2846     		mov	r0, r5
 541              	.LVL55:
 542 00ea FFF7FEFF 		bl	pbuf_free
 543              	.LVL56:
 544              		.loc 2 190 0
 545 00ee 7D68     		ldr	r5, [r7, #4]
 546              	.LVL57:
 547              		.loc 2 191 0
 548 00f0 002D     		cmp	r5, #0
 549 00f2 C7D0     		beq	.L34
 550 00f4 6B68     		ldr	r3, [r5, #4]
 551 00f6 A2E7     		b	.L40
 552              	.LVL58:
 553              	.L52:
 554              		.loc 2 165 0 discriminator 1
 555 00f8 054B     		ldr	r3, .L54
 556 00fa 0093     		str	r3, [sp]
 557 00fc 0649     		ldr	r1, .L54+8
 558              	.LVL59:
 559 00fe 0B4A     		ldr	r2, .L54+28
 560 0100 0448     		ldr	r0, .L54+4
 561              	.LVL60:
 562 0102 A523     		movs	r3, #165
 563 0104 FFF7FEFF 		bl	chprintf.constprop.0
 564              	.LVL61:
 565              	.LBB52:
 566              	.LBB53:
 567              		.loc 3 414 0 discriminator 1
ARM GAS  C:\Users\jo\AppData\Local\Temp\ccDwNN2l.s 			page 11


 568 0108 0848     		ldr	r0, .L54+28
 569 010a FFF7FEFF 		bl	chSysHalt
 570              	.LVL62:
 571 010e 7EE7     		b	.L32
 572              	.L55:
 573              		.align	2
 574              	.L54:
 575 0110 34000000 		.word	.LC2
 576 0114 00000000 		.word	itm_port
 577 0118 00000000 		.word	.LC0
 578 011c 9C000000 		.word	.LC6
 579 0120 B0000000 		.word	.LC7
 580 0124 00000000 		.word	.LANCHOR1
 581 0128 D0000000 		.word	.LC8
 582 012c 90000000 		.word	.LC5
 583              	.LBE53:
 584              	.LBE52:
 585              		.cfi_endproc
 586              	.LFE257:
 587              		.size	ip_reass_free_complete_datagram, .-ip_reass_free_complete_datagram
 588              		.section	.text.ip_reass_remove_oldest_datagram,"ax",%progbits
 589              		.align	2
 590              		.p2align 4,,15
 591              		.thumb
 592              		.thumb_func
 593              		.type	ip_reass_remove_oldest_datagram, %function
 594              	ip_reass_remove_oldest_datagram:
 595              	.LFB258:
 596              		.loc 2 222 0
 597              		.cfi_startproc
 598              		@ args = 0, pretend = 0, frame = 0
 599              		@ frame_needed = 0, uses_anonymous_args = 0
 600              	.LVL63:
 601 0000 2DE9F843 		push	{r3, r4, r5, r6, r7, r8, r9, lr}
 602              		.cfi_def_cfa_offset 32
 603              		.cfi_offset 3, -32
 604              		.cfi_offset 4, -28
 605              		.cfi_offset 5, -24
 606              		.cfi_offset 6, -20
 607              		.cfi_offset 7, -16
 608              		.cfi_offset 8, -12
 609              		.cfi_offset 9, -8
 610              		.cfi_offset 14, -4
 611 0004 1B4E     		ldr	r6, .L81
 612              		.loc 2 222 0
 613 0006 8046     		mov	r8, r0
 614 0008 0D46     		mov	r5, r1
 615              		.loc 2 227 0
 616 000a 4FF00009 		mov	r9, #0
 617              	.LVL64:
 618              	.L63:
 619              		.loc 2 236 0
 620 000e 3368     		ldr	r3, [r6]
 621              	.LVL65:
 622              		.loc 2 237 0
 623 0010 63B3     		cbz	r3, .L72
 624 0012 0024     		movs	r4, #0
ARM GAS  C:\Users\jo\AppData\Local\Temp\ccDwNN2l.s 			page 12


 625 0014 2146     		mov	r1, r4
 626 0016 2046     		mov	r0, r4
 627 0018 D8F80CE0 		ldr	lr, [r8, #12]	@ unaligned
 628 001c 0AE0     		b	.L60
 629              	.LVL66:
 630              	.L58:
 631              		.loc 2 240 0
 632 001e 0134     		adds	r4, r4, #1
 633              	.LVL67:
 634              		.loc 2 241 0
 635 0020 C0B1     		cbz	r0, .L69
 636              	.L80:
 637              		.loc 2 243 0
 638 0022 DF7F     		ldrb	r7, [r3, #31]	@ zero_extendqisi2
 639 0024 C27F     		ldrb	r2, [r0, #31]	@ zero_extendqisi2
 640 0026 9742     		cmp	r7, r2
 641 0028 98BF     		it	ls
 642 002a 1846     		movls	r0, r3
 643              	.LVL68:
 644              	.L59:
 645              		.loc 2 248 0
 646 002c 1A68     		ldr	r2, [r3]
 647 002e AAB1     		cbz	r2, .L79
 648              	.L70:
 649 0030 1946     		mov	r1, r3
 650 0032 1346     		mov	r3, r2
 651              	.LVL69:
 652              	.L60:
 653              		.loc 2 238 0
 654 0034 5A69     		ldr	r2, [r3, #20]
 655 0036 7245     		cmp	r2, lr
 656 0038 F1D1     		bne	.L58
 657              		.loc 2 238 0 is_stmt 0 discriminator 1
 658 003a D8F81070 		ldr	r7, [r8, #16]	@ unaligned
 659 003e 9A69     		ldr	r2, [r3, #24]
 660 0040 BA42     		cmp	r2, r7
 661 0042 ECD1     		bne	.L58
 662              		.loc 2 238 0 discriminator 2
 663 0044 9F89     		ldrh	r7, [r3, #12]
 664 0046 B8F80420 		ldrh	r2, [r8, #4]	@ unaligned
 665 004a 9742     		cmp	r7, r2
 666 004c EED0     		beq	.L59
 667              		.loc 2 240 0 is_stmt 1
 668 004e 0134     		adds	r4, r4, #1
 669              	.LVL70:
 670              		.loc 2 241 0
 671 0050 0028     		cmp	r0, #0
 672 0052 E6D1     		bne	.L80
 673              	.L69:
 674              		.loc 2 248 0
 675 0054 1A68     		ldr	r2, [r3]
 676 0056 1846     		mov	r0, r3
 677              	.LVL71:
 678 0058 002A     		cmp	r2, #0
 679 005a E9D1     		bne	.L70
 680              	.L79:
 681              	.LVL72:
ARM GAS  C:\Users\jo\AppData\Local\Temp\ccDwNN2l.s 			page 13


 682              		.loc 2 253 0
 683 005c 10B1     		cbz	r0, .L66
 684              		.loc 2 254 0
 685 005e FFF7FEFF 		bl	ip_reass_free_complete_datagram
 686              	.LVL73:
 687              		.loc 2 255 0
 688 0062 8144     		add	r9, r9, r0
 689              	.LVL74:
 690              	.L66:
 691              		.loc 2 257 0
 692 0064 A945     		cmp	r9, r5
 693 0066 01DA     		bge	.L72
 694              		.loc 2 257 0 is_stmt 0 discriminator 1
 695 0068 012C     		cmp	r4, #1
 696 006a D0DC     		bgt	.L63
 697              	.LVL75:
 698              	.L72:
 699              		.loc 2 259 0 is_stmt 1
 700 006c 4846     		mov	r0, r9
 701 006e BDE8F883 		pop	{r3, r4, r5, r6, r7, r8, r9, pc}
 702              	.LVL76:
 703              	.L82:
 704 0072 00BF     		.align	2
 705              	.L81:
 706 0074 00000000 		.word	.LANCHOR0
 707              		.cfi_endproc
 708              	.LFE258:
 709              		.size	ip_reass_remove_oldest_datagram, .-ip_reass_remove_oldest_datagram
 710 0078 AFF30080 		.section	.text.ip_reass_tmr,"ax",%progbits
 710      AFF30080 
 711              		.align	2
 712              		.p2align 4,,15
 713              		.global	ip_reass_tmr
 714              		.thumb
 715              		.thumb_func
 716              		.type	ip_reass_tmr, %function
 717              	ip_reass_tmr:
 718              	.LFB256:
 719              		.loc 2 123 0
 720              		.cfi_startproc
 721              		@ args = 0, pretend = 0, frame = 0
 722              		@ frame_needed = 0, uses_anonymous_args = 0
 723              	.LVL77:
 724 0000 38B5     		push	{r3, r4, r5, lr}
 725              		.cfi_def_cfa_offset 16
 726              		.cfi_offset 3, -16
 727              		.cfi_offset 4, -12
 728              		.cfi_offset 5, -8
 729              		.cfi_offset 14, -4
 730              		.loc 2 126 0
 731 0002 0A4B     		ldr	r3, .L91
 732 0004 1868     		ldr	r0, [r3]
 733              	.LVL78:
 734              		.loc 2 127 0
 735 0006 40B1     		cbz	r0, .L83
 736 0008 0024     		movs	r4, #0
 737              	.LVL79:
ARM GAS  C:\Users\jo\AppData\Local\Temp\ccDwNN2l.s 			page 14


 738              	.L87:
 739              		.loc 2 130 0
 740 000a C37F     		ldrb	r3, [r0, #31]	@ zero_extendqisi2
 741              		.loc 2 131 0
 742 000c 5A1E     		subs	r2, r3, #1
 743              		.loc 2 130 0
 744 000e 2BB1     		cbz	r3, .L85
 745              		.loc 2 131 0
 746 0010 C277     		strb	r2, [r0, #31]
 747              	.LVL80:
 748 0012 0446     		mov	r4, r0
 749              		.loc 2 134 0
 750 0014 0068     		ldr	r0, [r0]
 751              	.LVL81:
 752              		.loc 2 127 0
 753 0016 0028     		cmp	r0, #0
 754 0018 F7D1     		bne	.L87
 755              	.LVL82:
 756              	.L83:
 757 001a 38BD     		pop	{r3, r4, r5, pc}
 758              	.LVL83:
 759              	.L85:
 760              	.LBB54:
 761              		.loc 2 141 0
 762 001c 0568     		ldr	r5, [r0]
 763              	.LVL84:
 764              		.loc 2 143 0
 765 001e 2146     		mov	r1, r4
 766 0020 FFF7FEFF 		bl	ip_reass_free_complete_datagram
 767              	.LVL85:
 768              		.loc 2 141 0
 769 0024 2846     		mov	r0, r5
 770              	.LBE54:
 771              		.loc 2 127 0
 772 0026 0028     		cmp	r0, #0
 773 0028 EFD1     		bne	.L87
 774 002a F6E7     		b	.L83
 775              	.L92:
 776              		.align	2
 777              	.L91:
 778 002c 00000000 		.word	.LANCHOR0
 779              		.cfi_endproc
 780              	.LFE256:
 781              		.size	ip_reass_tmr, .-ip_reass_tmr
 782              		.section	.text.ip_reass,"ax",%progbits
 783              		.align	2
 784              		.p2align 4,,15
 785              		.global	ip_reass
 786              		.thumb
 787              		.thumb_func
 788              		.type	ip_reass, %function
 789              	ip_reass:
 790              	.LFB262:
 791              		.loc 2 477 0
 792              		.cfi_startproc
 793              		@ args = 0, pretend = 0, frame = 16
 794              		@ frame_needed = 0, uses_anonymous_args = 0
ARM GAS  C:\Users\jo\AppData\Local\Temp\ccDwNN2l.s 			page 15


 795              	.LVL86:
 796 0000 2DE9F04F 		push	{r4, r5, r6, r7, r8, r9, r10, fp, lr}
 797              		.cfi_def_cfa_offset 36
 798              		.cfi_offset 4, -36
 799              		.cfi_offset 5, -32
 800              		.cfi_offset 6, -28
 801              		.cfi_offset 7, -24
 802              		.cfi_offset 8, -20
 803              		.cfi_offset 9, -16
 804              		.cfi_offset 10, -12
 805              		.cfi_offset 11, -8
 806              		.cfi_offset 14, -4
 807              		.loc 2 486 0
 808 0004 DFF8F0B3 		ldr	fp, .L175+28
 809              		.loc 2 489 0
 810 0008 4568     		ldr	r5, [r0, #4]
 811              	.LVL87:
 812              		.loc 2 486 0
 813 000a BBF83230 		ldrh	r3, [fp, #50]
 814 000e 0133     		adds	r3, r3, #1
 815 0010 ABF83230 		strh	r3, [fp, #50]	@ movhi
 816              		.loc 2 491 0
 817 0014 2B78     		ldrb	r3, [r5]	@ zero_extendqisi2
 818 0016 03F00F03 		and	r3, r3, #15
 819 001a 052B     		cmp	r3, #5
 820              		.loc 2 477 0
 821 001c 87B0     		sub	sp, sp, #28
 822              		.cfi_def_cfa_offset 64
 823              		.loc 2 477 0
 824 001e 0646     		mov	r6, r0
 825              		.loc 2 491 0
 826 0020 40F0E380 		bne	.L169
 827              		.loc 2 497 0
 828 0024 E888     		ldrh	r0, [r5, #6]	@ unaligned
 829              	.LVL88:
 830              		.loc 2 502 0
 831 0026 DFF8D483 		ldr	r8, .L175+32
 832              		.loc 2 497 0
 833 002a FFF7FEFF 		bl	lwip_ntohs
 834              	.LVL89:
 835 002e 0390     		str	r0, [sp, #12]
 836              	.LVL90:
 837              		.loc 2 498 0
 838 0030 6888     		ldrh	r0, [r5, #2]	@ unaligned
 839 0032 FFF7FEFF 		bl	lwip_ntohs
 840              	.LVL91:
 841 0036 2B78     		ldrb	r3, [r5]	@ zero_extendqisi2
 842 0038 0490     		str	r0, [sp, #16]
 843              		.loc 2 501 0
 844 003a 3046     		mov	r0, r6
 845              		.loc 2 498 0
 846 003c 0593     		str	r3, [sp, #20]
 847              	.LVL92:
 848              		.loc 2 501 0
 849 003e FFF7FEFF 		bl	pbuf_clen
 850              	.LVL93:
 851              		.loc 2 502 0
ARM GAS  C:\Users\jo\AppData\Local\Temp\ccDwNN2l.s 			page 16


 852 0042 B8F80030 		ldrh	r3, [r8]
 853 0046 0344     		add	r3, r3, r0
 854 0048 0A2B     		cmp	r3, #10
 855              		.loc 2 501 0
 856 004a 8146     		mov	r9, r0
 857              	.LVL94:
 858              		.loc 2 502 0
 859 004c 00F3DE80 		bgt	.L170
 860              	.LVL95:
 861              	.L96:
 862              		.loc 2 520 0
 863 0050 DFF8ACA3 		ldr	r10, .L175+36
 864 0054 DAF80040 		ldr	r4, [r10]
 865              	.LVL96:
 866 0058 94B3     		cbz	r4, .L98
 867 005a E868     		ldr	r0, [r5, #12]	@ unaligned
 868 005c 4FF0000E 		mov	lr, #0
 869 0060 03E0     		b	.L102
 870              	.LVL97:
 871              	.L99:
 872              		.loc 2 520 0 is_stmt 0 discriminator 2
 873 0062 2368     		ldr	r3, [r4]
 874              	.LVL98:
 875 0064 A646     		mov	lr, r4
 876 0066 5BB3     		cbz	r3, .L98
 877 0068 1C46     		mov	r4, r3
 878              	.LVL99:
 879              	.L102:
 880              		.loc 2 524 0 is_stmt 1
 881 006a 6369     		ldr	r3, [r4, #20]
 882 006c 8342     		cmp	r3, r0
 883 006e F8D1     		bne	.L99
 884              		.loc 2 524 0 is_stmt 0 discriminator 1
 885 0070 2B69     		ldr	r3, [r5, #16]	@ unaligned
 886 0072 A269     		ldr	r2, [r4, #24]
 887 0074 9A42     		cmp	r2, r3
 888 0076 F4D1     		bne	.L99
 889              		.loc 2 524 0 discriminator 2
 890 0078 A289     		ldrh	r2, [r4, #12]
 891 007a AB88     		ldrh	r3, [r5, #4]	@ unaligned
 892 007c 9A42     		cmp	r2, r3
 893 007e F0D1     		bne	.L99
 894              		.loc 2 527 0 is_stmt 1
 895 0080 BBF84630 		ldrh	r3, [fp, #70]
 896 0084 0133     		adds	r3, r3, #1
 897 0086 ABF84630 		strh	r3, [fp, #70]	@ movhi
 898              		.loc 2 541 0
 899 008a E888     		ldrh	r0, [r5, #6]	@ unaligned
 900 008c 2746     		mov	r7, r4
 901 008e 7446     		mov	r4, lr
 902              	.LVL100:
 903 0090 FFF7FEFF 		bl	lwip_ntohs
 904              	.LVL101:
 905 0094 C0F30C00 		ubfx	r0, r0, #0, #13
 906 0098 88BB     		cbnz	r0, .L101
 907              		.loc 2 542 0 discriminator 1
 908 009a F889     		ldrh	r0, [r7, #14]
ARM GAS  C:\Users\jo\AppData\Local\Temp\ccDwNN2l.s 			page 17


 909 009c FFF7FEFF 		bl	lwip_ntohs
 910              	.LVL102:
 911              		.loc 2 541 0 discriminator 1
 912 00a0 C0F30C00 		ubfx	r0, r0, #0, #13
 913 00a4 58B3     		cbz	r0, .L101
 914              		.loc 2 547 0
 915 00a6 2A68     		ldr	r2, [r5]	@ unaligned
 916 00a8 D5F804E0 		ldr	lr, [r5, #4]	@ unaligned
 917 00ac A868     		ldr	r0, [r5, #8]	@ unaligned
 918 00ae E968     		ldr	r1, [r5, #12]	@ unaligned
 919 00b0 7961     		str	r1, [r7, #20]	@ unaligned
 920 00b2 BA60     		str	r2, [r7, #8]	@ unaligned
 921 00b4 C7F80CE0 		str	lr, [r7, #12]	@ unaligned
 922 00b8 3861     		str	r0, [r7, #16]	@ unaligned
 923 00ba 2A69     		ldr	r2, [r5, #16]	@ unaligned
 924 00bc BA61     		str	r2, [r7, #24]	@ unaligned
 925 00be 1EE0     		b	.L101
 926              	.LVL103:
 927              	.L98:
 928              	.LBB71:
 929              	.LBB72:
 930              		.loc 2 273 0
 931 00c0 0520     		movs	r0, #5
 932 00c2 FFF7FEFF 		bl	memp_malloc
 933              	.LVL104:
 934              		.loc 2 274 0
 935 00c6 0746     		mov	r7, r0
 936 00c8 0028     		cmp	r0, #0
 937 00ca 00F03881 		beq	.L171
 938              	.L130:
 939              		.loc 2 287 0
 940 00ce 0021     		movs	r1, #0
 941 00d0 2022     		movs	r2, #32
 942 00d2 3846     		mov	r0, r7
 943 00d4 FFF7FEFF 		bl	memset
 944              	.LVL105:
 945              		.loc 2 288 0
 946 00d8 0321     		movs	r1, #3
 947              		.loc 2 291 0
 948 00da DAF80020 		ldr	r2, [r10]
 949              		.loc 2 288 0
 950 00de F977     		strb	r1, [r7, #31]
 951              		.loc 2 291 0
 952 00e0 3A60     		str	r2, [r7]
 953              		.loc 2 295 0
 954 00e2 2968     		ldr	r1, [r5]	@ unaligned
 955 00e4 D5F804E0 		ldr	lr, [r5, #4]	@ unaligned
 956 00e8 A868     		ldr	r0, [r5, #8]	@ unaligned
 957 00ea EB68     		ldr	r3, [r5, #12]	@ unaligned
 958 00ec 7B61     		str	r3, [r7, #20]	@ unaligned
 959 00ee B960     		str	r1, [r7, #8]	@ unaligned
 960 00f0 C7F80CE0 		str	lr, [r7, #12]	@ unaligned
 961 00f4 3861     		str	r0, [r7, #16]	@ unaligned
 962 00f6 2969     		ldr	r1, [r5, #16]	@ unaligned
 963              		.loc 2 292 0
 964 00f8 CAF80070 		str	r7, [r10]
 965              		.loc 2 295 0
ARM GAS  C:\Users\jo\AppData\Local\Temp\ccDwNN2l.s 			page 18


 966 00fc B961     		str	r1, [r7, #24]	@ unaligned
 967              	.LVL106:
 968              	.L101:
 969              	.LBE72:
 970              	.LBE71:
 971              		.loc 2 552 0
 972 00fe B8F80030 		ldrh	r3, [r8]
 973 0102 09EB030C 		add	ip, r9, r3
 974 0106 A8F800C0 		strh	ip, [r8]	@ movhi
 975              		.loc 2 558 0
 976 010a EB88     		ldrh	r3, [r5, #6]	@ unaligned
 977 010c 9906     		lsls	r1, r3, #26
 978 010e 10D4     		bmi	.L105
 979              		.loc 2 498 0
 980 0110 059B     		ldr	r3, [sp, #20]
 981 0112 049A     		ldr	r2, [sp, #16]
 982 0114 03F00F09 		and	r9, r3, #15
 983 0118 C9EB8939 		rsb	r9, r9, r9, lsl #14
 984              		.loc 2 559 0
 985 011c BB7F     		ldrb	r3, [r7, #30]	@ zero_extendqisi2
 986              		.loc 2 498 0
 987 011e 02EB890B 		add	fp, r2, r9, lsl #2
 988              		.loc 2 560 0
 989 0122 039A     		ldr	r2, [sp, #12]
 990              		.loc 2 559 0
 991 0124 43F00103 		orr	r3, r3, #1
 992              		.loc 2 560 0
 993 0128 0BEBC20A 		add	r10, fp, r2, lsl #3
 994 012c A7F81CA0 		strh	r10, [r7, #28]	@ movhi
 995              		.loc 2 559 0
 996 0130 BB77     		strb	r3, [r7, #30]
 997              	.L105:
 998              	.LVL107:
 999              	.LBB75:
 1000              	.LBB76:
 1001              		.loc 2 340 0
 1002 0132 D6F80490 		ldr	r9, [r6, #4]
 1003              	.LVL108:
 1004              		.loc 2 341 0
 1005 0136 B9F80200 		ldrh	r0, [r9, #2]	@ unaligned
 1006 013a FFF7FEFF 		bl	lwip_ntohs
 1007              	.LVL109:
 1008 013e 99F80030 		ldrb	r3, [r9]	@ zero_extendqisi2
 1009 0142 03F00F03 		and	r3, r3, #15
 1010 0146 C3EB8333 		rsb	r3, r3, r3, lsl #14
 1011 014a 00EB8305 		add	r5, r0, r3, lsl #2
 1012              	.LVL110:
 1013              		.loc 2 342 0
 1014 014e B9F80600 		ldrh	r0, [r9, #6]	@ unaligned
 1015 0152 FFF7FEFF 		bl	lwip_ntohs
 1016              	.LVL111:
 1017 0156 C0F30C00 		ubfx	r0, r0, #0, #13
 1018 015a C000     		lsls	r0, r0, #3
 1019              		.loc 2 341 0
 1020 015c ADB2     		uxth	r5, r5
 1021              	.LVL112:
 1022              		.loc 2 349 0
ARM GAS  C:\Users\jo\AppData\Local\Temp\ccDwNN2l.s 			page 19


 1023 015e D6F804A0 		ldr	r10, [r6, #4]
 1024              	.LVL113:
 1025              		.loc 2 356 0
 1026 0162 7A68     		ldr	r2, [r7, #4]
 1027              		.loc 2 351 0
 1028 0164 AAF80400 		strh	r0, [r10, #4]	@ unaligned
 1029              		.loc 2 352 0
 1030 0168 05EB000E 		add	lr, r5, r0
 1031              		.loc 2 350 0
 1032 016c 0023     		movs	r3, #0
 1033              		.loc 2 352 0
 1034 016e 1FFA8EFE 		uxth	lr, lr
 1035 0172 AAF806E0 		strh	lr, [r10, #6]	@ unaligned
 1036              	.LVL114:
 1037              		.loc 2 350 0
 1038 0176 8AF80030 		strb	r3, [r10]
 1039 017a 8AF80130 		strb	r3, [r10, #1]
 1040 017e 8AF80230 		strb	r3, [r10, #2]
 1041 0182 8AF80330 		strb	r3, [r10, #3]
 1042              		.loc 2 356 0
 1043 0186 002A     		cmp	r2, #0
 1044 0188 00F0FB80 		beq	.L106
 1045              		.loc 2 357 0
 1046 018c 5568     		ldr	r5, [r2, #4]
 1047              	.LVL115:
 1048              		.loc 2 358 0
 1049 018e AB88     		ldrh	r3, [r5, #4]	@ unaligned
 1050 0190 9842     		cmp	r0, r3
 1051 0192 C0F0E080 		bcc	.L107
 1052              		.loc 2 375 0
 1053 0196 00F0C380 		beq	.L108
 1054              		.loc 2 379 0
 1055 019a EB88     		ldrh	r3, [r5, #6]	@ unaligned
 1056 019c 8342     		cmp	r3, r0
 1057 019e 00F2BF80 		bhi	.L108
 1058 01a2 4FF00109 		mov	r9, #1
 1059              	.LVL116:
 1060 01a6 0FE0     		b	.L109
 1061              	.LVL117:
 1062              	.L113:
 1063              		.loc 2 357 0
 1064 01a8 5368     		ldr	r3, [r2, #4]
 1065              	.LVL118:
 1066              		.loc 2 358 0
 1067 01aa 9988     		ldrh	r1, [r3, #4]	@ unaligned
 1068 01ac 8842     		cmp	r0, r1
 1069 01ae 3BD3     		bcc	.L172
 1070              		.loc 2 375 0
 1071 01b0 00F0B680 		beq	.L108
 1072              		.loc 2 379 0
 1073 01b4 DA88     		ldrh	r2, [r3, #6]	@ unaligned
 1074              	.LVL119:
 1075 01b6 8242     		cmp	r2, r0
 1076 01b8 00F2B280 		bhi	.L108
 1077              		.loc 2 386 0
 1078 01bc EA88     		ldrh	r2, [r5, #6]	@ unaligned
 1079              		.loc 2 379 0
ARM GAS  C:\Users\jo\AppData\Local\Temp\ccDwNN2l.s 			page 20


 1080 01be 1D46     		mov	r5, r3
 1081              	.LVL120:
 1082              		.loc 2 389 0
 1083 01c0 8A42     		cmp	r2, r1
 1084 01c2 18BF     		it	ne
 1085 01c4 4FF00009 		movne	r9, #0
 1086              	.LVL121:
 1087              	.L109:
 1088              		.loc 2 393 0
 1089 01c8 2A68     		ldr	r2, [r5]	@ unaligned
 1090              	.LVL122:
 1091              		.loc 2 356 0
 1092 01ca 002A     		cmp	r2, #0
 1093 01cc ECD1     		bne	.L113
 1094              		.loc 2 403 0
 1095 01ce EB88     		ldrh	r3, [r5, #6]	@ unaligned
 1096 01d0 9842     		cmp	r0, r3
 1097 01d2 C0F0C680 		bcc	.L173
 1098              	.LVL123:
 1099              	.L134:
 1100              		.loc 2 406 0
 1101 01d6 9842     		cmp	r0, r3
 1102              		.loc 2 405 0
 1103 01d8 2E60     		str	r6, [r5]	@ unaligned
 1104              		.loc 2 406 0
 1105 01da 2DD0     		beq	.L116
 1106              	.LVL124:
 1107              		.loc 2 421 0
 1108 01dc BB7F     		ldrb	r3, [r7, #30]	@ zero_extendqisi2
 1109 01de 13F00103 		ands	r3, r3, #1
 1110 01e2 40F0A880 		bne	.L120
 1111              	.LBE76:
 1112              	.LBE75:
 1113              		.loc 2 606 0
 1114 01e6 1846     		mov	r0, r3
 1115 01e8 0DE0     		b	.L158
 1116              	.LVL125:
 1117              	.L169:
 1118              		.loc 2 493 0
 1119 01ea BBF84430 		ldrh	r3, [fp, #68]
 1120 01ee 0133     		adds	r3, r3, #1
 1121 01f0 ABF84430 		strh	r3, [fp, #68]	@ movhi
 1122              	.LVL126:
 1123              	.L95:
 1124              		.loc 2 610 0
 1125 01f4 BBF83630 		ldrh	r3, [fp, #54]
 1126              		.loc 2 611 0
 1127 01f8 3046     		mov	r0, r6
 1128              		.loc 2 610 0
 1129 01fa 0133     		adds	r3, r3, #1
 1130 01fc ABF83630 		strh	r3, [fp, #54]	@ movhi
 1131              		.loc 2 611 0
 1132 0200 FFF7FEFF 		bl	pbuf_free
 1133              	.LVL127:
 1134              		.loc 2 612 0
 1135 0204 0020     		movs	r0, #0
 1136              	.LVL128:
ARM GAS  C:\Users\jo\AppData\Local\Temp\ccDwNN2l.s 			page 21


 1137              	.L158:
 1138              		.loc 2 613 0
 1139 0206 07B0     		add	sp, sp, #28
 1140              		.cfi_remember_state
 1141              		.cfi_def_cfa_offset 36
 1142              		@ sp needed
 1143 0208 BDE8F08F 		pop	{r4, r5, r6, r7, r8, r9, r10, fp, pc}
 1144              	.LVL129:
 1145              	.L170:
 1146              		.cfi_restore_state
 1147              		.loc 2 504 0
 1148 020c 2846     		mov	r0, r5
 1149              	.LVL130:
 1150 020e 4946     		mov	r1, r9
 1151 0210 FFF7FEFF 		bl	ip_reass_remove_oldest_datagram
 1152              	.LVL131:
 1153 0214 0028     		cmp	r0, #0
 1154 0216 00F09880 		beq	.L104
 1155              		.loc 2 505 0 discriminator 1
 1156 021a B8F80030 		ldrh	r3, [r8]
 1157 021e 4B44     		add	r3, r3, r9
 1158              		.loc 2 504 0 discriminator 1
 1159 0220 0A2B     		cmp	r3, #10
 1160 0222 7FF715AF 		ble	.L96
 1161 0226 90E0     		b	.L104
 1162              	.LVL132:
 1163              	.L172:
 1164              	.LBB89:
 1165              	.LBB85:
 1166              		.loc 2 360 0
 1167 0228 CAF80020 		str	r2, [r10]	@ unaligned
 1168              		.loc 2 364 0
 1169 022c EB88     		ldrh	r3, [r5, #6]	@ unaligned
 1170              	.LVL133:
 1171 022e 8342     		cmp	r3, r0
 1172 0230 76D8     		bhi	.L108
 1173 0232 8E45     		cmp	lr, r1
 1174 0234 74D8     		bhi	.L108
 1175              		.loc 2 369 0
 1176 0236 2E60     		str	r6, [r5]	@ unaligned
 1177              	.LVL134:
 1178              	.L116:
 1179              		.loc 2 421 0
 1180 0238 BB7F     		ldrb	r3, [r7, #30]	@ zero_extendqisi2
 1181 023a DB07     		lsls	r3, r3, #31
 1182 023c 7BD5     		bpl	.L120
 1183              		.loc 2 423 0
 1184 023e B9F1000F 		cmp	r9, #0
 1185 0242 78D0     		beq	.L120
 1186              	.LVL135:
 1187              	.L117:
 1188              		.loc 2 426 0
 1189 0244 7B68     		ldr	r3, [r7, #4]
 1190 0246 5868     		ldr	r0, [r3, #4]
 1191 0248 8388     		ldrh	r3, [r0, #4]	@ unaligned
 1192 024a 002B     		cmp	r3, #0
 1193 024c 73D1     		bne	.L120
ARM GAS  C:\Users\jo\AppData\Local\Temp\ccDwNN2l.s 			page 22


 1194              	.LVL136:
 1195              		.loc 2 431 0
 1196 024e DAF80030 		ldr	r3, [r10]	@ unaligned
 1197              	.LVL137:
 1198              		.loc 2 432 0
 1199 0252 002B     		cmp	r3, #0
 1200 0254 00F0A380 		beq	.L137
 1201              		.loc 2 433 0
 1202 0258 5D68     		ldr	r5, [r3, #4]
 1203              	.LVL138:
 1204              		.loc 2 434 0
 1205 025a BAF80620 		ldrh	r2, [r10, #6]	@ unaligned
 1206 025e AB88     		ldrh	r3, [r5, #4]	@ unaligned
 1207              	.LVL139:
 1208 0260 9A42     		cmp	r2, r3
 1209 0262 06D0     		beq	.L123
 1210 0264 67E0     		b	.L120
 1211              	.LVL140:
 1212              	.L124:
 1213              		.loc 2 433 0
 1214 0266 5B68     		ldr	r3, [r3, #4]
 1215              	.LVL141:
 1216              		.loc 2 434 0
 1217 0268 E988     		ldrh	r1, [r5, #6]	@ unaligned
 1218 026a 9A88     		ldrh	r2, [r3, #4]	@ unaligned
 1219 026c 9142     		cmp	r1, r2
 1220 026e 62D1     		bne	.L120
 1221 0270 1D46     		mov	r5, r3
 1222              	.LVL142:
 1223              	.L123:
 1224              		.loc 2 439 0
 1225 0272 2B68     		ldr	r3, [r5]	@ unaligned
 1226              	.LVL143:
 1227              		.loc 2 432 0
 1228 0274 002B     		cmp	r3, #0
 1229 0276 F6D1     		bne	.L124
 1230              	.LVL144:
 1231              	.L121:
 1232              		.loc 2 445 0
 1233 0278 A842     		cmp	r0, r5
 1234 027a 00F09280 		beq	.L174
 1235              	.LVL145:
 1236              	.L125:
 1237              		.loc 2 449 0
 1238 027e EA88     		ldrh	r2, [r5, #6]	@ unaligned
 1239 0280 BB8B     		ldrh	r3, [r7, #28]
 1240 0282 9A42     		cmp	r2, r3
 1241 0284 0CD0     		beq	.L126
 1242 0286 554B     		ldr	r3, .L175
 1243 0288 0093     		str	r3, [sp]
 1244 028a 5549     		ldr	r1, .L175+4
 1245 028c 554A     		ldr	r2, .L175+8
 1246 028e 5648     		ldr	r0, .L175+12
 1247 0290 4FF4E173 		mov	r3, #450
 1248 0294 FFF7FEFF 		bl	chprintf.constprop.0
 1249              	.LVL146:
 1250              	.LBB77:
ARM GAS  C:\Users\jo\AppData\Local\Temp\ccDwNN2l.s 			page 23


 1251              	.LBB78:
 1252              		.loc 3 414 0
 1253 0298 5248     		ldr	r0, .L175+8
 1254 029a FFF7FEFF 		bl	chSysHalt
 1255              	.LVL147:
 1256 029e BB8B     		ldrh	r3, [r7, #28]
 1257              	.LVL148:
 1258              	.L126:
 1259              	.LBE78:
 1260              	.LBE77:
 1261              	.LBE85:
 1262              	.LBE89:
 1263              		.loc 2 573 0
 1264 02a0 7968     		ldr	r1, [r7, #4]
 1265              		.loc 2 570 0
 1266 02a2 03F11402 		add	r2, r3, #20
 1267              		.loc 2 577 0
 1268 02a6 3B46     		mov	r3, r7
 1269              		.loc 2 570 0
 1270 02a8 BA83     		strh	r2, [r7, #28]	@ movhi
 1271              		.loc 2 577 0
 1272 02aa 53F8082F 		ldr	r2, [r3, #8]!	@ unaligned
 1273              		.loc 2 573 0
 1274 02ae 4E68     		ldr	r6, [r1, #4]
 1275              		.loc 2 577 0
 1276 02b0 5868     		ldr	r0, [r3, #4]	@ unaligned
 1277 02b2 9968     		ldr	r1, [r3, #8]	@ unaligned
 1278 02b4 DD68     		ldr	r5, [r3, #12]	@ unaligned
 1279              	.LVL149:
 1280 02b6 F560     		str	r5, [r6, #12]	@ unaligned
 1281 02b8 B160     		str	r1, [r6, #8]	@ unaligned
 1282 02ba 7060     		str	r0, [r6, #4]	@ unaligned
 1283              		.loc 2 573 0
 1284 02bc 3568     		ldr	r5, [r6]	@ unaligned
 1285              	.LVL150:
 1286              		.loc 2 577 0
 1287 02be 3260     		str	r2, [r6]	@ unaligned
 1288 02c0 1A69     		ldr	r2, [r3, #16]	@ unaligned
 1289 02c2 3261     		str	r2, [r6, #16]	@ unaligned
 1290              		.loc 2 578 0
 1291 02c4 B88B     		ldrh	r0, [r7, #28]
 1292 02c6 FFF7FEFF 		bl	lwip_htons
 1293              	.LVL151:
 1294              		.loc 2 579 0
 1295 02ca 0023     		movs	r3, #0
 1296              		.loc 2 578 0
 1297 02cc 7080     		strh	r0, [r6, #2]	@ unaligned
 1298              		.loc 2 579 0
 1299 02ce B371     		strb	r3, [r6, #6]
 1300 02d0 F371     		strb	r3, [r6, #7]
 1301              		.loc 2 580 0
 1302 02d2 B372     		strb	r3, [r6, #10]
 1303 02d4 F372     		strb	r3, [r6, #11]
 1304              		.loc 2 582 0
 1305 02d6 3046     		mov	r0, r6
 1306 02d8 1421     		movs	r1, #20
 1307 02da FFF7FEFF 		bl	inet_chksum
ARM GAS  C:\Users\jo\AppData\Local\Temp\ccDwNN2l.s 			page 24


 1308              	.LVL152:
 1309              		.loc 2 584 0
 1310 02de D7F80490 		ldr	r9, [r7, #4]
 1311              	.LVL153:
 1312              		.loc 2 582 0
 1313 02e2 7081     		strh	r0, [r6, #10]	@ unaligned
 1314              		.loc 2 587 0
 1315 02e4 65B1     		cbz	r5, .L132
 1316              	.LVL154:
 1317              	.L127:
 1318              		.loc 2 588 0
 1319 02e6 6E68     		ldr	r6, [r5, #4]
 1320              	.LVL155:
 1321              		.loc 2 591 0
 1322 02e8 2846     		mov	r0, r5
 1323 02ea 6FF01301 		mvn	r1, #19
 1324 02ee FFF7FEFF 		bl	pbuf_header
 1325              	.LVL156:
 1326              		.loc 2 592 0
 1327 02f2 2946     		mov	r1, r5
 1328 02f4 4846     		mov	r0, r9
 1329 02f6 FFF7FEFF 		bl	pbuf_cat
 1330              	.LVL157:
 1331              		.loc 2 593 0
 1332 02fa 3568     		ldr	r5, [r6]	@ unaligned
 1333              	.LVL158:
 1334              		.loc 2 587 0
 1335 02fc 002D     		cmp	r5, #0
 1336 02fe F2D1     		bne	.L127
 1337              	.LVL159:
 1338              	.L132:
 1339              		.loc 2 596 0
 1340 0300 3846     		mov	r0, r7
 1341 0302 2146     		mov	r1, r4
 1342 0304 FFF7FEFF 		bl	ip_reass_dequeue_datagram
 1343              	.LVL160:
 1344              		.loc 2 599 0
 1345 0308 4846     		mov	r0, r9
 1346 030a FFF7FEFF 		bl	pbuf_clen
 1347              	.LVL161:
 1348 030e B8F80030 		ldrh	r3, [r8]
 1349 0312 1B1A     		subs	r3, r3, r0
 1350              		.loc 2 602 0
 1351 0314 4846     		mov	r0, r9
 1352              		.loc 2 599 0
 1353 0316 A8F80030 		strh	r3, [r8]	@ movhi
 1354              		.loc 2 613 0
 1355 031a 07B0     		add	sp, sp, #28
 1356              		.cfi_remember_state
 1357              		.cfi_def_cfa_offset 36
 1358              		@ sp needed
 1359 031c BDE8F08F 		pop	{r4, r5, r6, r7, r8, r9, r10, fp, pc}
 1360              	.LVL162:
 1361              	.L108:
 1362              		.cfi_restore_state
 1363              	.LDL1:
 1364              	.LBB90:
ARM GAS  C:\Users\jo\AppData\Local\Temp\ccDwNN2l.s 			page 25


 1365              	.LBB86:
 1366              		.loc 2 463 0
 1367 0320 3046     		mov	r0, r6
 1368              	.LVL163:
 1369 0322 FFF7FEFF 		bl	pbuf_clen
 1370              	.LVL164:
 1371 0326 B8F80030 		ldrh	r3, [r8]
 1372 032a 1B1A     		subs	r3, r3, r0
 1373              		.loc 2 464 0
 1374 032c 3046     		mov	r0, r6
 1375              		.loc 2 463 0
 1376 032e A8F80030 		strh	r3, [r8]	@ movhi
 1377              		.loc 2 464 0
 1378 0332 FFF7FEFF 		bl	pbuf_free
 1379              	.LVL165:
 1380              	.L120:
 1381              	.LBE86:
 1382              	.LBE90:
 1383              		.loc 2 606 0
 1384 0336 0020     		movs	r0, #0
 1385              		.loc 2 613 0
 1386 0338 07B0     		add	sp, sp, #28
 1387              		.cfi_remember_state
 1388              		.cfi_def_cfa_offset 36
 1389              		@ sp needed
 1390 033a BDE8F08F 		pop	{r4, r5, r6, r7, r8, r9, r10, fp, pc}
 1391              	.LVL166:
 1392              	.L171:
 1393              		.cfi_restore_state
 1394              	.LBB91:
 1395              	.LBB73:
 1396              		.loc 2 276 0
 1397 033e 2846     		mov	r0, r5
 1398              	.LVL167:
 1399 0340 4946     		mov	r1, r9
 1400 0342 FFF7FEFF 		bl	ip_reass_remove_oldest_datagram
 1401              	.LVL168:
 1402 0346 8145     		cmp	r9, r0
 1403 0348 21DD     		ble	.L103
 1404              	.LVL169:
 1405              	.L104:
 1406              		.loc 2 282 0
 1407 034a BBF83C30 		ldrh	r3, [fp, #60]
 1408 034e 0133     		adds	r3, r3, #1
 1409 0350 ABF83C30 		strh	r3, [fp, #60]	@ movhi
 1410 0354 4EE7     		b	.L95
 1411              	.LVL170:
 1412              	.L107:
 1413              	.LBE73:
 1414              	.LBE91:
 1415              	.LBB92:
 1416              	.LBB87:
 1417              		.loc 2 360 0
 1418 0356 CAF80020 		str	r2, [r10]	@ unaligned
 1419              		.loc 2 372 0
 1420 035a 4FF00109 		mov	r9, #1
 1421              	.LVL171:
ARM GAS  C:\Users\jo\AppData\Local\Temp\ccDwNN2l.s 			page 26


 1422 035e 7E60     		str	r6, [r7, #4]
 1423              	.LVL172:
 1424 0360 6AE7     		b	.L116
 1425              	.LVL173:
 1426              	.L173:
 1427              		.loc 2 403 0
 1428 0362 1E4B     		ldr	r3, .L175
 1429 0364 0093     		str	r3, [sp]
 1430 0366 1E49     		ldr	r1, .L175+4
 1431 0368 204A     		ldr	r2, .L175+16
 1432              	.LVL174:
 1433 036a 1F48     		ldr	r0, .L175+12
 1434              	.LVL175:
 1435 036c 40F29313 		movw	r3, #403
 1436 0370 FFF7FEFF 		bl	chprintf.constprop.0
 1437              	.LVL176:
 1438              	.LBB79:
 1439              	.LBB80:
 1440              		.loc 3 414 0
 1441 0374 1D48     		ldr	r0, .L175+16
 1442 0376 FFF7FEFF 		bl	chSysHalt
 1443              	.LVL177:
 1444 037a EB88     		ldrh	r3, [r5, #6]	@ unaligned
 1445 037c BAF80400 		ldrh	r0, [r10, #4]	@ unaligned
 1446 0380 29E7     		b	.L134
 1447              	.LVL178:
 1448              	.L106:
 1449              	.LBE80:
 1450              	.LBE79:
 1451              		.loc 2 421 0
 1452 0382 BB7F     		ldrb	r3, [r7, #30]	@ zero_extendqisi2
 1453              		.loc 2 415 0
 1454 0384 7E60     		str	r6, [r7, #4]
 1455              	.LVL179:
 1456              		.loc 2 421 0
 1457 0386 DA07     		lsls	r2, r3, #31
 1458 0388 3FF55CAF 		bmi	.L117
 1459 038c D3E7     		b	.L120
 1460              	.LVL180:
 1461              	.L103:
 1462              	.LBE87:
 1463              	.LBE92:
 1464              	.LBB93:
 1465              	.LBB74:
 1466              		.loc 2 277 0
 1467 038e 0520     		movs	r0, #5
 1468 0390 FFF7FEFF 		bl	memp_malloc
 1469              	.LVL181:
 1470              		.loc 2 279 0
 1471 0394 0746     		mov	r7, r0
 1472 0396 0028     		cmp	r0, #0
 1473 0398 7FF499AE 		bne	.L130
 1474 039c D5E7     		b	.L104
 1475              	.LVL182:
 1476              	.L137:
 1477              	.LBE74:
 1478              	.LBE93:
ARM GAS  C:\Users\jo\AppData\Local\Temp\ccDwNN2l.s 			page 27


 1479              	.LBB94:
 1480              	.LBB88:
 1481              		.loc 2 432 0
 1482 039e 5546     		mov	r5, r10
 1483 03a0 6AE7     		b	.L121
 1484              	.LVL183:
 1485              	.L174:
 1486              		.loc 2 445 0
 1487 03a2 0E4E     		ldr	r6, .L175
 1488              	.LVL184:
 1489 03a4 0E49     		ldr	r1, .L175+4
 1490 03a6 124A     		ldr	r2, .L175+20
 1491 03a8 0096     		str	r6, [sp]
 1492 03aa 4FF4DF73 		mov	r3, #446
 1493 03ae 0E48     		ldr	r0, .L175+12
 1494 03b0 FFF7FEFF 		bl	chprintf.constprop.0
 1495              	.LVL185:
 1496              	.LBB81:
 1497              	.LBB82:
 1498              		.loc 3 414 0
 1499 03b4 0E48     		ldr	r0, .L175+20
 1500 03b6 FFF7FEFF 		bl	chSysHalt
 1501              	.LVL186:
 1502              	.LBE82:
 1503              	.LBE81:
 1504              		.loc 2 447 0
 1505 03ba 2B68     		ldr	r3, [r5]	@ unaligned
 1506 03bc 002B     		cmp	r3, #0
 1507 03be 3FF45EAF 		beq	.L125
 1508 03c2 0096     		str	r6, [sp]
 1509 03c4 0649     		ldr	r1, .L175+4
 1510 03c6 0B4A     		ldr	r2, .L175+24
 1511 03c8 0748     		ldr	r0, .L175+12
 1512 03ca 4FF4E073 		mov	r3, #448
 1513 03ce FFF7FEFF 		bl	chprintf.constprop.0
 1514              	.LVL187:
 1515              	.LBB83:
 1516              	.LBB84:
 1517              		.loc 3 414 0
 1518 03d2 0848     		ldr	r0, .L175+24
 1519 03d4 FFF7FEFF 		bl	chSysHalt
 1520              	.LVL188:
 1521 03d8 51E7     		b	.L125
 1522              	.L176:
 1523 03da 00BF     		.align	2
 1524              	.L175:
 1525 03dc 34000000 		.word	.LC2
 1526 03e0 00000000 		.word	.LC0
 1527 03e4 40010000 		.word	.LC12
 1528 03e8 00000000 		.word	itm_port
 1529 03ec EC000000 		.word	.LC9
 1530 03f0 0C010000 		.word	.LC10
 1531 03f4 1C010000 		.word	.LC11
 1532 03f8 00000000 		.word	lwip_stats
 1533 03fc 00000000 		.word	.LANCHOR1
 1534 0400 00000000 		.word	.LANCHOR0
 1535              	.LBE84:
ARM GAS  C:\Users\jo\AppData\Local\Temp\ccDwNN2l.s 			page 28


 1536              	.LBE83:
 1537              	.LBE88:
 1538              	.LBE94:
 1539              		.cfi_endproc
 1540              	.LFE262:
 1541              		.size	ip_reass, .-ip_reass
 1542 0404 AFF30080 		.section	.text.ip_frag,"ax",%progbits
 1542      AFF30080 
 1542      AFF30080 
 1543              		.align	2
 1544              		.p2align 4,,15
 1545              		.global	ip_frag
 1546              		.thumb
 1547              		.thumb_func
 1548              		.type	ip_frag, %function
 1549              	ip_frag:
 1550              	.LFB266:
 1551              		.loc 2 668 0
 1552              		.cfi_startproc
 1553              		@ args = 0, pretend = 0, frame = 48
 1554              		@ frame_needed = 0, uses_anonymous_args = 0
 1555              	.LVL189:
 1556 0000 2DE9F04F 		push	{r4, r5, r6, r7, r8, r9, r10, fp, lr}
 1557              		.cfi_def_cfa_offset 36
 1558              		.cfi_offset 4, -36
 1559              		.cfi_offset 5, -32
 1560              		.cfi_offset 6, -28
 1561              		.cfi_offset 7, -24
 1562              		.cfi_offset 8, -20
 1563              		.cfi_offset 9, -16
 1564              		.cfi_offset 10, -12
 1565              		.cfi_offset 11, -8
 1566              		.cfi_offset 14, -4
 1567 0004 8FB0     		sub	sp, sp, #60
 1568              		.cfi_def_cfa_offset 96
 1569              		.loc 2 709 0
 1570 0006 D0F804A0 		ldr	r10, [r0, #4]
 1571              		.loc 2 668 0
 1572 000a 0B91     		str	r1, [sp, #44]
 1573 000c 0546     		mov	r5, r0
 1574              		.loc 2 714 0
 1575 000e BAF80600 		ldrh	r0, [r10, #6]	@ unaligned
 1576              	.LVL190:
 1577              		.loc 2 681 0
 1578 0012 0C8C     		ldrh	r4, [r1, #32]
 1579              	.LVL191:
 1580              		.loc 2 668 0
 1581 0014 0C92     		str	r2, [sp, #48]
 1582              		.loc 2 714 0
 1583 0016 FFF7FEFF 		bl	lwip_ntohs
 1584              	.LVL192:
 1585              		.loc 2 716 0
 1586 001a 00F40053 		and	r3, r0, #8192
 1587 001e 9BB2     		uxth	r3, r3
 1588              		.loc 2 718 0
 1589 0020 B5F80890 		ldrh	r9, [r5, #8]
 1590              		.loc 2 716 0
ARM GAS  C:\Users\jo\AppData\Local\Temp\ccDwNN2l.s 			page 29


 1591 0024 0993     		str	r3, [sp, #36]
 1592              		.loc 2 715 0
 1593 0026 C0F30C03 		ubfx	r3, r0, #0, #13
 1594              		.loc 2 718 0
 1595 002a A9F11409 		sub	r9, r9, #20
 1596              		.loc 2 715 0
 1597 002e 0593     		str	r3, [sp, #20]
 1598              	.LVL193:
 1599              		.loc 2 720 0
 1600 0030 B4F11403 		subs	r3, r4, #20
 1601              		.loc 2 718 0
 1602 0034 1FFA89F2 		uxth	r2, r9
 1603              		.loc 2 720 0
 1604 0038 48BF     		it	mi
 1605 003a A4F10D03 		submi	r3, r4, #13
 1606 003e C3F3CF03 		ubfx	r3, r3, #3, #16
 1607              		.loc 2 718 0
 1608 0042 0392     		str	r2, [sp, #12]
 1609              	.LVL194:
 1610              		.loc 2 720 0
 1611 0044 0893     		str	r3, [sp, #32]
 1612              	.LVL195:
 1613              		.loc 2 722 0
 1614 0046 039B     		ldr	r3, [sp, #12]
 1615 0048 002B     		cmp	r3, #0
 1616 004a 00F0C380 		beq	.L190
 1617              		.loc 2 732 0
 1618 004e 089B     		ldr	r3, [sp, #32]
 1619              	.LBB95:
 1620              		.loc 2 795 0
 1621 0050 DFF89881 		ldr	r8, .L207+20
 1622              	.LBE95:
 1623              		.loc 2 732 0
 1624 0054 DB00     		lsls	r3, r3, #3
 1625 0056 A4F11302 		sub	r2, r4, #19
 1626 005a 9BB2     		uxth	r3, r3
 1627 005c 0A92     		str	r2, [sp, #40]
 1628 005e 0D93     		str	r3, [sp, #52]
 1629 0060 0024     		movs	r4, #0
 1630              	.LVL196:
 1631 0062 1426     		movs	r6, #20
 1632              	.LVL197:
 1633              	.L189:
 1634              		.loc 2 726 0
 1635 0064 059B     		ldr	r3, [sp, #20]
 1636 0066 099A     		ldr	r2, [sp, #36]
 1637 0068 C3F30C03 		ubfx	r3, r3, #0, #13
 1638 006c 1343     		orrs	r3, r3, r2
 1639 006e 0693     		str	r3, [sp, #24]
 1640              	.LVL198:
 1641              		.loc 2 727 0
 1642 0070 0A9A     		ldr	r2, [sp, #40]
 1643 0072 039B     		ldr	r3, [sp, #12]
 1644 0074 9342     		cmp	r3, r2
 1645 0076 C0F29080 		blt	.L191
 1646              		.loc 2 728 0
 1647 007a 069B     		ldr	r3, [sp, #24]
ARM GAS  C:\Users\jo\AppData\Local\Temp\ccDwNN2l.s 			page 30


 1648 007c 43F40053 		orr	r3, r3, #8192
 1649 0080 0693     		str	r3, [sp, #24]
 1650              	.LVL199:
 1651              		.loc 2 732 0
 1652 0082 0D9B     		ldr	r3, [sp, #52]
 1653 0084 0493     		str	r3, [sp, #16]
 1654              	.L181:
 1655              	.LVL200:
 1656              		.loc 2 759 0 discriminator 4
 1657 0086 0220     		movs	r0, #2
 1658 0088 1421     		movs	r1, #20
 1659 008a 0022     		movs	r2, #0
 1660 008c FFF7FEFF 		bl	pbuf_alloc
 1661              	.LVL201:
 1662              		.loc 2 760 0 discriminator 4
 1663 0090 0746     		mov	r7, r0
 1664 0092 0028     		cmp	r0, #0
 1665 0094 00F09C80 		beq	.L192
 1666              		.loc 2 763 0
 1667 0098 6B89     		ldrh	r3, [r5, #10]
 1668 009a 132B     		cmp	r3, #19
 1669 009c 40F28B80 		bls	.L203
 1670              	.LVL202:
 1671              	.L182:
 1672              		.loc 2 765 0
 1673 00a0 7B68     		ldr	r3, [r7, #4]
 1674 00a2 DAF80020 		ldr	r2, [r10]	@ unaligned
 1675 00a6 DAF80810 		ldr	r1, [r10, #8]	@ unaligned
 1676 00aa DAF80400 		ldr	r0, [r10, #4]	@ unaligned
 1677 00ae DAF80CE0 		ldr	lr, [r10, #12]	@ unaligned
 1678 00b2 C3F80CE0 		str	lr, [r3, #12]	@ unaligned
 1679 00b6 1A60     		str	r2, [r3]	@ unaligned
 1680 00b8 5860     		str	r0, [r3, #4]	@ unaligned
 1681 00ba 9960     		str	r1, [r3, #8]	@ unaligned
 1682 00bc DAF81020 		ldr	r2, [r10, #16]	@ unaligned
 1683 00c0 1A61     		str	r2, [r3, #16]	@ unaligned
 1684              		.loc 2 769 0
 1685 00c2 6A68     		ldr	r2, [r5, #4]
 1686              		.loc 2 770 0
 1687 00c4 6B89     		ldrh	r3, [r5, #10]
 1688              		.loc 2 766 0
 1689 00c6 7968     		ldr	r1, [r7, #4]
 1690 00c8 0791     		str	r1, [sp, #28]
 1691              	.LVL203:
 1692              		.loc 2 770 0
 1693 00ca 9B1B     		subs	r3, r3, r6
 1694              		.loc 2 769 0
 1695 00cc 1644     		add	r6, r6, r2
 1696              	.LVL204:
 1697              		.loc 2 773 0
 1698 00ce 049A     		ldr	r2, [sp, #16]
 1699              		.loc 2 769 0
 1700 00d0 6E60     		str	r6, [r5, #4]
 1701              		.loc 2 770 0
 1702 00d2 9BB2     		uxth	r3, r3
 1703 00d4 6B81     		strh	r3, [r5, #10]	@ movhi
 1704              	.LVL205:
ARM GAS  C:\Users\jo\AppData\Local\Temp\ccDwNN2l.s 			page 31


 1705              		.loc 2 773 0
 1706 00d6 62B3     		cbz	r2, .L183
 1707 00d8 1646     		mov	r6, r2
 1708 00da 1C46     		mov	r4, r3
 1709 00dc 02E0     		b	.L184
 1710              	.LVL206:
 1711              	.L204:
 1712              	.LBB98:
 1713              		.loc 2 778 0
 1714 00de 2D68     		ldr	r5, [r5]
 1715              	.LVL207:
 1716              	.LBE98:
 1717              		.loc 2 773 0
 1718 00e0 3EB3     		cbz	r6, .L183
 1719              	.LVL208:
 1720              	.L186:
 1721 00e2 6C89     		ldrh	r4, [r5, #10]
 1722              	.LVL209:
 1723              	.L184:
 1724              	.LBB99:
 1725              		.loc 2 775 0
 1726 00e4 B442     		cmp	r4, r6
 1727 00e6 28BF     		it	cs
 1728 00e8 3446     		movcs	r4, r6
 1729              	.LVL210:
 1730 00ea A4B2     		uxth	r4, r4
 1731              		.loc 2 777 0
 1732 00ec 002C     		cmp	r4, #0
 1733 00ee F6D0     		beq	.L204
 1734              	.LBB96:
 1735              	.LBB97:
 1736              		.loc 2 626 0
 1737 00f0 0620     		movs	r0, #6
 1738 00f2 FFF7FEFF 		bl	memp_malloc
 1739              	.LVL211:
 1740              	.LBE97:
 1741              	.LBE96:
 1742              		.loc 2 787 0
 1743 00f6 2146     		mov	r1, r4
 1744              		.loc 2 782 0
 1745 00f8 8146     		mov	r9, r0
 1746              		.loc 2 787 0
 1747 00fa 0222     		movs	r2, #2
 1748 00fc 0346     		mov	r3, r0
 1749              		.loc 2 782 0
 1750 00fe 0028     		cmp	r0, #0
 1751 0100 51D0     		beq	.L202
 1752              		.loc 2 787 0
 1753 0102 6868     		ldr	r0, [r5, #4]
 1754 0104 8DE81100 		stmia	sp, {r0, r4}
 1755 0108 0320     		movs	r0, #3
 1756 010a FFF7FEFF 		bl	pbuf_alloced_custom
 1757              	.LVL212:
 1758              		.loc 2 788 0
 1759 010e 8346     		mov	fp, r0
 1760 0110 0028     		cmp	r0, #0
 1761 0112 45D0     		beq	.L205
ARM GAS  C:\Users\jo\AppData\Local\Temp\ccDwNN2l.s 			page 32


 1762              		.loc 2 793 0
 1763 0114 2846     		mov	r0, r5
 1764              	.LVL213:
 1765              		.loc 2 801 0
 1766 0116 361B     		subs	r6, r6, r4
 1767              	.LVL214:
 1768              		.loc 2 793 0
 1769 0118 FFF7FEFF 		bl	pbuf_ref
 1770              	.LVL215:
 1771              		.loc 2 801 0
 1772 011c B6B2     		uxth	r6, r6
 1773              		.loc 2 794 0
 1774 011e C9F81450 		str	r5, [r9, #20]
 1775              		.loc 2 795 0
 1776 0122 C9F81080 		str	r8, [r9, #16]
 1777              		.loc 2 800 0
 1778 0126 5946     		mov	r1, fp
 1779 0128 3846     		mov	r0, r7
 1780 012a FFF7FEFF 		bl	pbuf_cat
 1781              	.LVL216:
 1782              		.loc 2 802 0
 1783 012e 002E     		cmp	r6, #0
 1784 0130 31D1     		bne	.L206
 1785              	.LVL217:
 1786              	.L183:
 1787              	.LBE99:
 1788              		.loc 2 811 0
 1789 0132 0698     		ldr	r0, [sp, #24]
 1790 0134 FFF7FEFF 		bl	lwip_htons
 1791              	.LVL218:
 1792              		.loc 2 812 0
 1793 0138 049B     		ldr	r3, [sp, #16]
 1794              		.loc 2 811 0
 1795 013a 079E     		ldr	r6, [sp, #28]
 1796              		.loc 2 812 0
 1797 013c 1433     		adds	r3, r3, #20
 1798              		.loc 2 811 0
 1799 013e F080     		strh	r0, [r6, #6]	@ unaligned
 1800              		.loc 2 812 0
 1801 0140 98B2     		uxth	r0, r3
 1802 0142 FFF7FEFF 		bl	lwip_htons
 1803              	.LVL219:
 1804              		.loc 2 813 0
 1805 0146 0023     		movs	r3, #0
 1806              		.loc 2 812 0
 1807 0148 7080     		strh	r0, [r6, #2]	@ unaligned
 1808              		.loc 2 813 0
 1809 014a B372     		strb	r3, [r6, #10]
 1810 014c F372     		strb	r3, [r6, #11]
 1811 014e 3046     		mov	r0, r6
 1812              		.loc 2 814 0
 1813 0150 1421     		movs	r1, #20
 1814 0152 FFF7FEFF 		bl	inet_chksum
 1815              	.LVL220:
 1816 0156 B146     		mov	r9, r6
 1817              		.loc 2 842 0
 1818 0158 0B9E     		ldr	r6, [sp, #44]
ARM GAS  C:\Users\jo\AppData\Local\Temp\ccDwNN2l.s 			page 33


 1819 015a 0C9A     		ldr	r2, [sp, #48]
 1820 015c 7369     		ldr	r3, [r6, #20]
 1821              		.loc 2 814 0
 1822 015e A9F80A00 		strh	r0, [r9, #10]	@ unaligned
 1823              		.loc 2 842 0
 1824 0162 3946     		mov	r1, r7
 1825 0164 3046     		mov	r0, r6
 1826 0166 9847     		blx	r3
 1827              	.LVL221:
 1828              		.loc 2 843 0
 1829 0168 1B4A     		ldr	r2, .L207
 1830 016a 138E     		ldrh	r3, [r2, #48]
 1831              		.loc 2 852 0
 1832 016c 3846     		mov	r0, r7
 1833              		.loc 2 843 0
 1834 016e 0133     		adds	r3, r3, #1
 1835 0170 1386     		strh	r3, [r2, #48]	@ movhi
 1836              		.loc 2 852 0
 1837 0172 FFF7FEFF 		bl	pbuf_free
 1838              	.LVL222:
 1839              		.loc 2 854 0
 1840 0176 039A     		ldr	r2, [sp, #12]
 1841 0178 049B     		ldr	r3, [sp, #16]
 1842              		.loc 2 855 0
 1843 017a 0899     		ldr	r1, [sp, #32]
 1844              		.loc 2 854 0
 1845 017c C3EB0209 		rsb	r9, r3, r2
 1846 0180 1FFA89F3 		uxth	r3, r9
 1847 0184 1A46     		mov	r2, r3
 1848 0186 0393     		str	r3, [sp, #12]
 1849              	.LVL223:
 1850              		.loc 2 855 0
 1851 0188 059B     		ldr	r3, [sp, #20]
 1852 018a 0B44     		add	r3, r3, r1
 1853 018c 9BB2     		uxth	r3, r3
 1854 018e 0593     		str	r3, [sp, #20]
 1855              	.LVL224:
 1856              		.loc 2 722 0
 1857 0190 02B3     		cbz	r2, .L190
 1858              		.loc 2 806 0
 1859 0192 2646     		mov	r6, r4
 1860 0194 66E7     		b	.L189
 1861              	.LVL225:
 1862              	.L206:
 1863              	.LBB100:
 1864              		.loc 2 803 0
 1865 0196 2D68     		ldr	r5, [r5]
 1866              	.LVL226:
 1867 0198 A3E7     		b	.L186
 1868              	.LVL227:
 1869              	.L191:
 1870              	.LBE100:
 1871 019a 039B     		ldr	r3, [sp, #12]
 1872 019c 0493     		str	r3, [sp, #16]
 1873 019e 72E7     		b	.L181
 1874              	.LVL228:
 1875              	.L205:
ARM GAS  C:\Users\jo\AppData\Local\Temp\ccDwNN2l.s 			page 34


 1876              	.LBB101:
 1877              		.loc 2 789 0
 1878 01a0 4846     		mov	r0, r9
 1879              	.LVL229:
 1880 01a2 FFF7FEFF 		bl	ip_frag_free_pbuf_custom_ref
 1881              	.LVL230:
 1882              	.L202:
 1883              		.loc 2 790 0
 1884 01a6 3846     		mov	r0, r7
 1885 01a8 FFF7FEFF 		bl	pbuf_free
 1886              	.LVL231:
 1887              		.loc 2 791 0
 1888 01ac FF20     		movs	r0, #255
 1889              	.LVL232:
 1890              	.L180:
 1891              	.LBE101:
 1892              		.loc 2 862 0
 1893 01ae 40B2     		sxtb	r0, r0
 1894 01b0 0FB0     		add	sp, sp, #60
 1895              		.cfi_remember_state
 1896              		.cfi_def_cfa_offset 36
 1897              		@ sp needed
 1898 01b2 BDE8F08F 		pop	{r4, r5, r6, r7, r8, r9, r10, fp, pc}
 1899              	.LVL233:
 1900              	.L203:
 1901              		.cfi_restore_state
 1902              		.loc 2 763 0 discriminator 1
 1903 01b6 094B     		ldr	r3, .L207+4
 1904 01b8 0093     		str	r3, [sp]
 1905 01ba 0949     		ldr	r1, .L207+8
 1906 01bc 094A     		ldr	r2, .L207+12
 1907 01be 0A48     		ldr	r0, .L207+16
 1908              	.LVL234:
 1909 01c0 4FF43F73 		mov	r3, #764
 1910 01c4 FFF7FEFF 		bl	chprintf.constprop.0
 1911              	.LVL235:
 1912              	.LBB102:
 1913              	.LBB103:
 1914              		.loc 3 414 0 discriminator 1
 1915 01c8 0648     		ldr	r0, .L207+12
 1916 01ca FFF7FEFF 		bl	chSysHalt
 1917              	.LVL236:
 1918 01ce 67E7     		b	.L182
 1919              	.LVL237:
 1920              	.L192:
 1921              	.LBE103:
 1922              	.LBE102:
 1923              		.loc 2 761 0
 1924 01d0 FF20     		movs	r0, #255
 1925              	.LVL238:
 1926 01d2 ECE7     		b	.L180
 1927              	.LVL239:
 1928              	.L190:
 1929              		.loc 2 861 0
 1930 01d4 0020     		movs	r0, #0
 1931 01d6 EAE7     		b	.L180
 1932              	.L208:
ARM GAS  C:\Users\jo\AppData\Local\Temp\ccDwNN2l.s 			page 35


 1933              		.align	2
 1934              	.L207:
 1935 01d8 00000000 		.word	lwip_stats
 1936 01dc 34000000 		.word	.LC2
 1937 01e0 00000000 		.word	.LC0
 1938 01e4 70010000 		.word	.LC13
 1939 01e8 00000000 		.word	itm_port
 1940 01ec 00000000 		.word	ipfrag_free_pbuf_custom
 1941              		.cfi_endproc
 1942              	.LFE266:
 1943              		.size	ip_frag, .-ip_frag
 1944              		.section	.bss.reassdatagrams,"aw",%nobits
 1945              		.align	2
 1946              		.set	.LANCHOR0,. + 0
 1947              		.type	reassdatagrams, %object
 1948              		.size	reassdatagrams, 4
 1949              	reassdatagrams:
 1950 0000 00000000 		.space	4
 1951              		.section	.bss.ip_reass_pbufcount,"aw",%nobits
 1952              		.align	1
 1953              		.set	.LANCHOR1,. + 0
 1954              		.type	ip_reass_pbufcount, %object
 1955              		.size	ip_reass_pbufcount, 2
 1956              	ip_reass_pbufcount:
 1957 0000 0000     		.space	2
 1958              		.section	.rodata.str1.4,"aMS",%progbits,1
 1959              		.align	2
 1960              	.LC0:
 1961 0000 41737365 		.ascii	"Assertion \"%s\" failed at line %d in %s\012\000"
 1961      7274696F 
 1961      6E202225 
 1961      73222066 
 1961      61696C65 
 1962              	.LC1:
 1963 0028 7020213D 		.ascii	"p != NULL\000"
 1963      204E554C 
 1963      4C00
 1964 0032 0000     		.space	2
 1965              	.LC2:
 1966 0034 2E2E2F2E 		.ascii	"../../../os/ext/lwip-1.4.1/src/core/ipv4/ip_frag.c\000"
 1966      2E2F2E2E 
 1966      2F6F732F 
 1966      6578742F 
 1966      6C776970 
 1967 0067 00       		.space	1
 1968              	.LC3:
 1969 0068 70637220 		.ascii	"pcr != NULL\000"
 1969      213D204E 
 1969      554C4C00 
 1970              	.LC4:
 1971 0074 73616E69 		.ascii	"sanity check linked list\000"
 1971      74792063 
 1971      6865636B 
 1971      206C696E 
 1971      6B656420 
 1972 008d 000000   		.space	3
 1973              	.LC5:
ARM GAS  C:\Users\jo\AppData\Local\Temp\ccDwNN2l.s 			page 36


 1974 0090 70726576 		.ascii	"prev != ipr\000"
 1974      20213D20 
 1974      69707200 
 1975              	.LC6:
 1976 009c 70726576 		.ascii	"prev->next == ipr\000"
 1976      2D3E6E65 
 1976      7874203D 
 1976      3D206970 
 1976      7200
 1977 00ae 0000     		.space	2
 1978              	.LC7:
 1979 00b0 70627566 		.ascii	"pbufs_freed + clen <= 0xffff\000"
 1979      735F6672 
 1979      65656420 
 1979      2B20636C 
 1979      656E203C 
 1980 00cd 000000   		.space	3
 1981              	.LC8:
 1982 00d0 69705F72 		.ascii	"ip_reass_pbufcount >= clen\000"
 1982      65617373 
 1982      5F706275 
 1982      66636F75 
 1982      6E74203E 
 1983 00eb 00       		.space	1
 1984              	.LC9:
 1985 00ec 63686563 		.ascii	"check fragments don't overlap\000"
 1985      6B206672 
 1985      61676D65 
 1985      6E747320 
 1985      646F6E27 
 1986 010a 0000     		.space	2
 1987              	.LC10:
 1988 010c 73616E69 		.ascii	"sanity check\000"
 1988      74792063 
 1988      6865636B 
 1988      00
 1989 0119 000000   		.space	3
 1990              	.LC11:
 1991 011c 76616C69 		.ascii	"validate_datagram:next_pbuf!=NULL\000"
 1991      64617465 
 1991      5F646174 
 1991      61677261 
 1991      6D3A6E65 
 1992 013e 0000     		.space	2
 1993              	.LC12:
 1994 0140 76616C69 		.ascii	"validate_datagram:datagram end!=datagram len\000"
 1994      64617465 
 1994      5F646174 
 1994      61677261 
 1994      6D3A6461 
 1995 016d 000000   		.space	3
 1996              	.LC13:
 1997 0170 74686973 		.ascii	"this needs a pbuf in one piece!\000"
 1997      206E6565 
 1997      64732061 
 1997      20706275 
 1997      6620696E 
ARM GAS  C:\Users\jo\AppData\Local\Temp\ccDwNN2l.s 			page 37


 1998              		.text
 1999              	.Letext0:
 2000              		.file 4 "c:\\program files\\gnu tools arm embedded\\4.9 2014q4\\lib\\gcc\\arm-none-eabi\\4.9.3\\in
 2001              		.file 5 "c:\\program files\\gnu tools arm embedded\\4.9 2014q4\\arm-none-eabi\\include\\machine\\_
 2002              		.file 6 "c:\\program files\\gnu tools arm embedded\\4.9 2014q4\\arm-none-eabi\\include\\stdint.h"
 2003              		.file 7 "../../../os/rt/ports/ARMCMx/compilers/GCC/chtypes.h"
 2004              		.file 8 "../../../os/rt/include/chsystypes.h"
 2005              		.file 9 "../../../os/rt/include/chschd.h"
 2006              		.file 10 "../../../os/rt/ports/ARMCMx/chcore.h"
 2007              		.file 11 "../../../os/rt/ports/ARMCMx/chcore_v7m.h"
 2008              		.file 12 "c:\\program files\\gnu tools arm embedded\\4.9 2014q4\\lib\\gcc\\arm-none-eabi\\4.9.3\\i
 2009              		.file 13 "<built-in>"
 2010              		.file 14 "../../../os/rt/include/chtm.h"
 2011              		.file 15 "../../../os/rt/include/chmtx.h"
 2012              		.file 16 "../../../os/rt/include/chstreams.h"
 2013              		.file 17 "./ITM_trace.h"
 2014              		.file 18 "../../../os/various/lwip_bindings/arch/cc.h"
 2015              		.file 19 "../../../os/ext/lwip-1.4.1/src/include/lwip/err.h"
 2016              		.file 20 "../../../os/ext/lwip-1.4.1/src/include/lwip/pbuf.h"
 2017              		.file 21 "../../../os/ext/lwip-1.4.1/src/include/ipv4/lwip/ip_addr.h"
 2018              		.file 22 "../../../os/ext/lwip-1.4.1/src/include/lwip/netif.h"
 2019              		.file 23 "../../../os/ext/lwip-1.4.1/src/include/ipv4/lwip/ip.h"
 2020              		.file 24 "../../../os/ext/lwip-1.4.1/src/include/ipv4/lwip/ip_frag.h"
 2021              		.file 25 "../../../os/ext/lwip-1.4.1/src/include/lwip/mem.h"
 2022              		.file 26 "../../../os/ext/lwip-1.4.1/src/include/lwip/memp.h"
 2023              		.file 27 "../../../os/ext/lwip-1.4.1/src/include/lwip/stats.h"
 2024              		.file 28 "../../../os/ext/CMSIS/include/core_cm4.h"
 2025              		.file 29 "../../../os/rt/include/chsys.h"
 2026              		.file 30 "../../../os/ext/lwip-1.4.1/src/include/ipv4/lwip/icmp.h"
 2027              		.file 31 "../../../os/ext/lwip-1.4.1/src/include/lwip/def.h"
 2028              		.file 32 "../../../os/ext/lwip-1.4.1/src/include/ipv4/lwip/inet_chksum.h"