ARM GAS  C:\Users\jo\AppData\Local\Temp\ccsCL547.s 			page 1


   1              		.syntax unified
   2              		.cpu cortex-m4
   3              		.eabi_attribute 27, 3
   4              		.eabi_attribute 28, 1
   5              		.fpu fpv4-sp-d16
   6              		.eabi_attribute 20, 1
   7              		.eabi_attribute 21, 1
   8              		.eabi_attribute 23, 3
   9              		.eabi_attribute 24, 1
  10              		.eabi_attribute 25, 1
  11              		.eabi_attribute 26, 1
  12              		.eabi_attribute 30, 2
  13              		.eabi_attribute 34, 1
  14              		.eabi_attribute 18, 4
  15              		.thumb
  16              		.file	"ITM_trace.c"
  17              		.text
  18              	.Ltext0:
  19              		.cfi_sections	.debug_frame
  20              		.section	.text.get,"ax",%progbits
  21              		.align	2
  22              		.p2align 4,,15
  23              		.thumb
  24              		.thumb_func
  25              		.type	get, %function
  26              	get:
  27              	.LFB256:
  28              		.file 1 "ITM_trace.c"
  29              		.loc 1 48 0
  30              		.cfi_startproc
  31              		@ args = 0, pretend = 0, frame = 0
  32              		@ frame_needed = 0, uses_anonymous_args = 0
  33              		@ link register save eliminated.
  34              	.LVL0:
  35              		.loc 1 53 0
  36 0000 0420     		movs	r0, #4
  37              	.LVL1:
  38 0002 7047     		bx	lr
  39              		.cfi_endproc
  40              	.LFE256:
  41              		.size	get, .-get
  42 0004 AFF30080 		.section	.text.reads,"ax",%progbits
  42      AFF30080 
  42      AFF30080 
  43              		.align	2
  44              		.p2align 4,,15
  45              		.thumb
  46              		.thumb_func
  47              		.type	reads, %function
  48              	reads:
  49              	.LFB258:
  50              		.loc 1 67 0
  51              		.cfi_startproc
  52              		@ args = 0, pretend = 0, frame = 0
  53              		@ frame_needed = 0, uses_anonymous_args = 0
  54              		@ link register save eliminated.
  55              	.LVL2:
ARM GAS  C:\Users\jo\AppData\Local\Temp\ccsCL547.s 			page 2


  56              		.loc 1 74 0
  57 0000 0020     		movs	r0, #0
  58              	.LVL3:
  59 0002 7047     		bx	lr
  60              		.cfi_endproc
  61              	.LFE258:
  62              		.size	reads, .-reads
  63 0004 AFF30080 		.section	.text.put,"ax",%progbits
  63      AFF30080 
  63      AFF30080 
  64              		.align	2
  65              		.p2align 4,,15
  66              		.thumb
  67              		.thumb_func
  68              		.type	put, %function
  69              	put:
  70              	.LFB255:
  71              		.loc 1 39 0
  72              		.cfi_startproc
  73              		@ args = 0, pretend = 0, frame = 0
  74              		@ frame_needed = 0, uses_anonymous_args = 0
  75              	.LVL4:
  76 0000 08B5     		push	{r3, lr}
  77              		.cfi_def_cfa_offset 8
  78              		.cfi_offset 3, -8
  79              		.cfi_offset 14, -4
  80              		.loc 1 43 0
  81 0002 0846     		mov	r0, r1
  82              	.LVL5:
  83 0004 FFF7FEFF 		bl	Debug_ITMDebugOutputChar
  84              	.LVL6:
  85              		.loc 1 46 0
  86 0008 0120     		movs	r0, #1
  87 000a 08BD     		pop	{r3, pc}
  88              		.cfi_endproc
  89              	.LFE255:
  90              		.size	put, .-put
  91 000c AFF30080 		.section	.text.writes,"ax",%progbits
  92              		.align	2
  93              		.p2align 4,,15
  94              		.thumb
  95              		.thumb_func
  96              		.type	writes, %function
  97              	writes:
  98              	.LFB257:
  99              		.loc 1 55 0
 100              		.cfi_startproc
 101              		@ args = 0, pretend = 0, frame = 0
 102              		@ frame_needed = 0, uses_anonymous_args = 0
 103              	.LVL7:
 104 0000 70B5     		push	{r4, r5, r6, lr}
 105              		.cfi_def_cfa_offset 16
 106              		.cfi_offset 4, -16
 107              		.cfi_offset 5, -12
 108              		.cfi_offset 6, -8
 109              		.cfi_offset 14, -4
 110              		.loc 1 58 0
ARM GAS  C:\Users\jo\AppData\Local\Temp\ccsCL547.s 			page 3


 111 0002 1646     		mov	r6, r2
 112 0004 3AB1     		cbz	r2, .L10
 113 0006 0D46     		mov	r5, r1
 114              	.LVL8:
 115 0008 1446     		mov	r4, r2
 116              	.LVL9:
 117              	.L7:
 118              	.LBB4:
 119              	.LBB5:
 120              		.loc 1 43 0
 121 000a 15F8010B 		ldrb	r0, [r5], #1	@ zero_extendqisi2
 122              	.LVL10:
 123 000e FFF7FEFF 		bl	Debug_ITMDebugOutputChar
 124              	.LVL11:
 125              	.LBE5:
 126              	.LBE4:
 127              		.loc 1 58 0
 128 0012 013C     		subs	r4, r4, #1
 129              	.LVL12:
 130 0014 F9D1     		bne	.L7
 131              	.LVL13:
 132              	.L10:
 133              		.loc 1 65 0
 134 0016 3046     		mov	r0, r6
 135 0018 70BD     		pop	{r4, r5, r6, pc}
 136              		.cfi_endproc
 137              	.LFE257:
 138              		.size	writes, .-writes
 139 001a 00BFAFF3 		.section	.text.itmObjectInit,"ax",%progbits
 139      0080
 140              		.align	2
 141              		.p2align 4,,15
 142              		.global	itmObjectInit
 143              		.thumb
 144              		.thumb_func
 145              		.type	itmObjectInit, %function
 146              	itmObjectInit:
 147              	.LFB259:
 148              		.loc 1 87 0
 149              		.cfi_startproc
 150              		@ args = 0, pretend = 0, frame = 0
 151              		@ frame_needed = 0, uses_anonymous_args = 0
 152              		@ link register save eliminated.
 153              	.LVL14:
 154              		.loc 1 88 0
 155 0000 014B     		ldr	r3, .L14
 156 0002 0360     		str	r3, [r0]
 157 0004 7047     		bx	lr
 158              	.L15:
 159 0006 00BF     		.align	2
 160              	.L14:
 161 0008 00000000 		.word	.LANCHOR0
 162              		.cfi_endproc
 163              	.LFE259:
 164              		.size	itmObjectInit, .-itmObjectInit
 165 000c AFF30080 		.section	.rodata.vmt,"a",%progbits
 166              		.align	2
ARM GAS  C:\Users\jo\AppData\Local\Temp\ccsCL547.s 			page 4


 167              		.set	.LANCHOR0,. + 0
 168              		.type	vmt, %object
 169              		.size	vmt, 16
 170              	vmt:
 171 0000 00000000 		.word	writes
 172 0004 00000000 		.word	reads
 173 0008 00000000 		.word	put
 174 000c 00000000 		.word	get
 175              		.text
 176              	.Letext0:
 177              		.file 2 "c:\\program files\\gnu tools arm embedded\\4.9 2014q4\\lib\\gcc\\arm-none-eabi\\4.9.3\\in
 178              		.file 3 "c:\\program files\\gnu tools arm embedded\\4.9 2014q4\\arm-none-eabi\\include\\machine\\_
 179              		.file 4 "c:\\program files\\gnu tools arm embedded\\4.9 2014q4\\arm-none-eabi\\include\\stdint.h"
 180              		.file 5 "../../../os/rt/ports/ARMCMx/compilers/GCC/chtypes.h"
 181              		.file 6 "../../../os/rt/include/chsystypes.h"
 182              		.file 7 "../../../os/rt/include/chschd.h"
 183              		.file 8 "../../../os/rt/ports/ARMCMx/chcore.h"
 184              		.file 9 "../../../os/rt/ports/ARMCMx/chcore_v7m.h"
 185              		.file 10 "../../../os/rt/include/chtm.h"
 186              		.file 11 "../../../os/rt/include/chmtx.h"
 187              		.file 12 "ITM_trace.h"
 188              		.file 13 "../../../os/ext/CMSIS/include/core_cm4.h"
 189              		.section	.debug_info,"",%progbits
 190              	.Ldebug_info0:
 191 0000 FF080000 		.4byte	0x8ff
 192 0004 0400     		.2byte	0x4
 193 0006 00000000 		.4byte	.Ldebug_abbrev0
 194 000a 04       		.byte	0x4
 195 000b 01       		.uleb128 0x1
 196 000c F5020000 		.4byte	.LASF103
 197 0010 01       		.byte	0x1
 198 0011 56050000 		.4byte	.LASF104
 199 0015 6F040000 		.4byte	.LASF105
 200 0019 00000000 		.4byte	.Ldebug_ranges0+0
 201 001d 00000000 		.4byte	0
 202 0021 00000000 		.4byte	.Ldebug_line0
 203 0025 02       		.uleb128 0x2
 204 0026 04       		.byte	0x4
 205 0027 05       		.byte	0x5
 206 0028 696E7400 		.ascii	"int\000"
 207 002c 03       		.uleb128 0x3
 208 002d 15000000 		.4byte	.LASF2
 209 0031 02       		.byte	0x2
 210 0032 D4       		.byte	0xd4
 211 0033 37000000 		.4byte	0x37
 212 0037 04       		.uleb128 0x4
 213 0038 04       		.byte	0x4
 214 0039 07       		.byte	0x7
 215 003a 5B010000 		.4byte	.LASF0
 216 003e 04       		.uleb128 0x4
 217 003f 01       		.byte	0x1
 218 0040 06       		.byte	0x6
 219 0041 E4000000 		.4byte	.LASF1
 220 0045 03       		.uleb128 0x3
 221 0046 45000000 		.4byte	.LASF3
 222 004a 03       		.byte	0x3
 223 004b 1D       		.byte	0x1d
ARM GAS  C:\Users\jo\AppData\Local\Temp\ccsCL547.s 			page 5


 224 004c 50000000 		.4byte	0x50
 225 0050 04       		.uleb128 0x4
 226 0051 01       		.byte	0x1
 227 0052 08       		.byte	0x8
 228 0053 B6020000 		.4byte	.LASF4
 229 0057 04       		.uleb128 0x4
 230 0058 02       		.byte	0x2
 231 0059 05       		.byte	0x5
 232 005a D6020000 		.4byte	.LASF5
 233 005e 04       		.uleb128 0x4
 234 005f 02       		.byte	0x2
 235 0060 07       		.byte	0x7
 236 0061 84010000 		.4byte	.LASF6
 237 0065 03       		.uleb128 0x3
 238 0066 DC010000 		.4byte	.LASF7
 239 006a 03       		.byte	0x3
 240 006b 3F       		.byte	0x3f
 241 006c 70000000 		.4byte	0x70
 242 0070 04       		.uleb128 0x4
 243 0071 04       		.byte	0x4
 244 0072 05       		.byte	0x5
 245 0073 11010000 		.4byte	.LASF8
 246 0077 03       		.uleb128 0x3
 247 0078 F2040000 		.4byte	.LASF9
 248 007c 03       		.byte	0x3
 249 007d 41       		.byte	0x41
 250 007e 82000000 		.4byte	0x82
 251 0082 04       		.uleb128 0x4
 252 0083 04       		.byte	0x4
 253 0084 07       		.byte	0x7
 254 0085 53040000 		.4byte	.LASF10
 255 0089 04       		.uleb128 0x4
 256 008a 08       		.byte	0x8
 257 008b 05       		.byte	0x5
 258 008c D6000000 		.4byte	.LASF11
 259 0090 03       		.uleb128 0x3
 260 0091 5E020000 		.4byte	.LASF12
 261 0095 03       		.byte	0x3
 262 0096 5B       		.byte	0x5b
 263 0097 9B000000 		.4byte	0x9b
 264 009b 04       		.uleb128 0x4
 265 009c 08       		.byte	0x8
 266 009d 07       		.byte	0x7
 267 009e 6A000000 		.4byte	.LASF13
 268 00a2 03       		.uleb128 0x3
 269 00a3 68050000 		.4byte	.LASF14
 270 00a7 04       		.byte	0x4
 271 00a8 15       		.byte	0x15
 272 00a9 45000000 		.4byte	0x45
 273 00ad 03       		.uleb128 0x3
 274 00ae AE020000 		.4byte	.LASF15
 275 00b2 04       		.byte	0x4
 276 00b3 2C       		.byte	0x2c
 277 00b4 65000000 		.4byte	0x65
 278 00b8 03       		.uleb128 0x3
 279 00b9 32040000 		.4byte	.LASF16
 280 00bd 04       		.byte	0x4
ARM GAS  C:\Users\jo\AppData\Local\Temp\ccsCL547.s 			page 6


 281 00be 2D       		.byte	0x2d
 282 00bf 77000000 		.4byte	0x77
 283 00c3 03       		.uleb128 0x3
 284 00c4 23000000 		.4byte	.LASF17
 285 00c8 04       		.byte	0x4
 286 00c9 39       		.byte	0x39
 287 00ca 90000000 		.4byte	0x90
 288 00ce 05       		.uleb128 0x5
 289 00cf AD000000 		.4byte	0xad
 290 00d3 03       		.uleb128 0x3
 291 00d4 24050000 		.4byte	.LASF18
 292 00d8 05       		.byte	0x5
 293 00d9 45       		.byte	0x45
 294 00da B8000000 		.4byte	0xb8
 295 00de 03       		.uleb128 0x3
 296 00df BA010000 		.4byte	.LASF19
 297 00e3 05       		.byte	0x5
 298 00e4 48       		.byte	0x48
 299 00e5 A2000000 		.4byte	0xa2
 300 00e9 03       		.uleb128 0x3
 301 00ea 1A010000 		.4byte	.LASF20
 302 00ee 05       		.byte	0x5
 303 00ef 49       		.byte	0x49
 304 00f0 A2000000 		.4byte	0xa2
 305 00f4 03       		.uleb128 0x3
 306 00f5 00000000 		.4byte	.LASF21
 307 00f9 05       		.byte	0x5
 308 00fa 4A       		.byte	0x4a
 309 00fb A2000000 		.4byte	0xa2
 310 00ff 03       		.uleb128 0x3
 311 0100 8A020000 		.4byte	.LASF22
 312 0104 05       		.byte	0x5
 313 0105 4C       		.byte	0x4c
 314 0106 B8000000 		.4byte	0xb8
 315 010a 03       		.uleb128 0x3
 316 010b A1010000 		.4byte	.LASF23
 317 010f 05       		.byte	0x5
 318 0110 4D       		.byte	0x4d
 319 0111 AD000000 		.4byte	0xad
 320 0115 03       		.uleb128 0x3
 321 0116 D0010000 		.4byte	.LASF24
 322 011a 05       		.byte	0x5
 323 011b 4F       		.byte	0x4f
 324 011c B8000000 		.4byte	0xb8
 325 0120 03       		.uleb128 0x3
 326 0121 D4040000 		.4byte	.LASF25
 327 0125 06       		.byte	0x6
 328 0126 33       		.byte	0x33
 329 0127 B8000000 		.4byte	0xb8
 330 012b 03       		.uleb128 0x3
 331 012c C4040000 		.4byte	.LASF26
 332 0130 06       		.byte	0x6
 333 0131 3F       		.byte	0x3f
 334 0132 36010000 		.4byte	0x136
 335 0136 06       		.uleb128 0x6
 336 0137 97010000 		.4byte	.LASF45
 337 013b 44       		.byte	0x44
ARM GAS  C:\Users\jo\AppData\Local\Temp\ccsCL547.s 			page 7


 338 013c 07       		.byte	0x7
 339 013d BE       		.byte	0xbe
 340 013e 23020000 		.4byte	0x223
 341 0142 07       		.uleb128 0x7
 342 0143 EE020000 		.4byte	.LASF27
 343 0147 07       		.byte	0x7
 344 0148 BF       		.byte	0xbf
 345 0149 DF050000 		.4byte	0x5df
 346 014d 00       		.byte	0
 347 014e 07       		.uleb128 0x7
 348 014f 83020000 		.4byte	.LASF28
 349 0153 07       		.byte	0x7
 350 0154 C1       		.byte	0xc1
 351 0155 DF050000 		.4byte	0x5df
 352 0159 04       		.byte	0x4
 353 015a 07       		.uleb128 0x7
 354 015b C9000000 		.4byte	.LASF29
 355 015f 07       		.byte	0x7
 356 0160 C3       		.byte	0xc3
 357 0161 FF000000 		.4byte	0xff
 358 0165 08       		.byte	0x8
 359 0166 07       		.uleb128 0x7
 360 0167 94050000 		.4byte	.LASF30
 361 016b 07       		.byte	0x7
 362 016c C4       		.byte	0xc4
 363 016d 4D040000 		.4byte	0x44d
 364 0171 0C       		.byte	0xc
 365 0172 07       		.uleb128 0x7
 366 0173 23010000 		.4byte	.LASF31
 367 0177 07       		.byte	0x7
 368 0178 C6       		.byte	0xc6
 369 0179 DF050000 		.4byte	0x5df
 370 017d 10       		.byte	0x10
 371 017e 07       		.uleb128 0x7
 372 017f 2D020000 		.4byte	.LASF32
 373 0183 07       		.byte	0x7
 374 0184 C7       		.byte	0xc7
 375 0185 DF050000 		.4byte	0x5df
 376 0189 14       		.byte	0x14
 377 018a 07       		.uleb128 0x7
 378 018b 48050000 		.4byte	.LASF33
 379 018f 07       		.byte	0x7
 380 0190 CE       		.byte	0xce
 381 0191 B4050000 		.4byte	0x5b4
 382 0195 18       		.byte	0x18
 383 0196 07       		.uleb128 0x7
 384 0197 C4020000 		.4byte	.LASF34
 385 019b 07       		.byte	0x7
 386 019c D9       		.byte	0xd9
 387 019d E9000000 		.4byte	0xe9
 388 01a1 1C       		.byte	0x1c
 389 01a2 07       		.uleb128 0x7
 390 01a3 0E040000 		.4byte	.LASF35
 391 01a7 07       		.byte	0x7
 392 01a8 DD       		.byte	0xdd
 393 01a9 DE000000 		.4byte	0xde
 394 01ad 1D       		.byte	0x1d
ARM GAS  C:\Users\jo\AppData\Local\Temp\ccsCL547.s 			page 8


 395 01ae 07       		.uleb128 0x7
 396 01af 4F050000 		.4byte	.LASF36
 397 01b3 07       		.byte	0x7
 398 01b4 E2       		.byte	0xe2
 399 01b5 F4000000 		.4byte	0xf4
 400 01b9 1E       		.byte	0x1e
 401 01ba 08       		.uleb128 0x8
 402 01bb 705F7500 		.ascii	"p_u\000"
 403 01bf 07       		.byte	0x7
 404 01c0 1401     		.2byte	0x114
 405 01c2 E5050000 		.4byte	0x5e5
 406 01c6 20       		.byte	0x20
 407 01c7 09       		.uleb128 0x9
 408 01c8 F7010000 		.4byte	.LASF37
 409 01cc 07       		.byte	0x7
 410 01cd 1901     		.2byte	0x119
 411 01cf 23020000 		.4byte	0x223
 412 01d3 24       		.byte	0x24
 413 01d4 09       		.uleb128 0x9
 414 01d5 79010000 		.4byte	.LASF38
 415 01d9 07       		.byte	0x7
 416 01da 1F01     		.2byte	0x11f
 417 01dc 47020000 		.4byte	0x247
 418 01e0 28       		.byte	0x28
 419 01e1 09       		.uleb128 0x9
 420 01e2 86050000 		.4byte	.LASF39
 421 01e6 07       		.byte	0x7
 422 01e7 2301     		.2byte	0x123
 423 01e9 0A010000 		.4byte	0x10a
 424 01ed 30       		.byte	0x30
 425 01ee 09       		.uleb128 0x9
 426 01ef 27040000 		.4byte	.LASF40
 427 01f3 07       		.byte	0x7
 428 01f4 2901     		.2byte	0x129
 429 01f6 15010000 		.4byte	0x115
 430 01fa 34       		.byte	0x34
 431 01fb 09       		.uleb128 0x9
 432 01fc CC020000 		.4byte	.LASF41
 433 0200 07       		.byte	0x7
 434 0201 3001     		.2byte	0x130
 435 0203 4E060000 		.4byte	0x64e
 436 0207 38       		.byte	0x38
 437 0208 09       		.uleb128 0x9
 438 0209 DE040000 		.4byte	.LASF42
 439 020d 07       		.byte	0x7
 440 020e 3401     		.2byte	0x134
 441 0210 FF000000 		.4byte	0xff
 442 0214 3C       		.byte	0x3c
 443 0215 09       		.uleb128 0x9
 444 0216 F0000000 		.4byte	.LASF43
 445 021a 07       		.byte	0x7
 446 021b 3A01     		.2byte	0x13a
 447 021d FA020000 		.4byte	0x2fa
 448 0221 40       		.byte	0x40
 449 0222 00       		.byte	0
 450 0223 03       		.uleb128 0x3
 451 0224 77050000 		.4byte	.LASF44
ARM GAS  C:\Users\jo\AppData\Local\Temp\ccsCL547.s 			page 9


 452 0228 06       		.byte	0x6
 453 0229 44       		.byte	0x44
 454 022a 2E020000 		.4byte	0x22e
 455 022e 06       		.uleb128 0x6
 456 022f 43040000 		.4byte	.LASF46
 457 0233 04       		.byte	0x4
 458 0234 07       		.byte	0x7
 459 0235 AC       		.byte	0xac
 460 0236 47020000 		.4byte	0x247
 461 023a 07       		.uleb128 0x7
 462 023b EE020000 		.4byte	.LASF27
 463 023f 07       		.byte	0x7
 464 0240 AD       		.byte	0xad
 465 0241 DF050000 		.4byte	0x5df
 466 0245 00       		.byte	0
 467 0246 00       		.byte	0
 468 0247 03       		.uleb128 0x3
 469 0248 38050000 		.4byte	.LASF47
 470 024c 06       		.byte	0x6
 471 024d 4B       		.byte	0x4b
 472 024e 52020000 		.4byte	0x252
 473 0252 06       		.uleb128 0x6
 474 0253 B8000000 		.4byte	.LASF48
 475 0257 08       		.byte	0x8
 476 0258 07       		.byte	0x7
 477 0259 B3       		.byte	0xb3
 478 025a 77020000 		.4byte	0x277
 479 025e 07       		.uleb128 0x7
 480 025f EE020000 		.4byte	.LASF27
 481 0263 07       		.byte	0x7
 482 0264 B4       		.byte	0xb4
 483 0265 DF050000 		.4byte	0x5df
 484 0269 00       		.byte	0
 485 026a 07       		.uleb128 0x7
 486 026b 83020000 		.4byte	.LASF28
 487 026f 07       		.byte	0x7
 488 0270 B5       		.byte	0xb5
 489 0271 DF050000 		.4byte	0x5df
 490 0275 04       		.byte	0x4
 491 0276 00       		.byte	0
 492 0277 03       		.uleb128 0x3
 493 0278 08000000 		.4byte	.LASF49
 494 027c 06       		.byte	0x6
 495 027d 52       		.byte	0x52
 496 027e 82020000 		.4byte	0x282
 497 0282 0A       		.uleb128 0xa
 498 0283 C2010000 		.4byte	.LASF50
 499 0287 1C       		.byte	0x1c
 500 0288 07       		.byte	0x7
 501 0289 7201     		.2byte	0x172
 502 028b DE020000 		.4byte	0x2de
 503 028f 09       		.uleb128 0x9
 504 0290 3B040000 		.4byte	.LASF51
 505 0294 07       		.byte	0x7
 506 0295 7301     		.2byte	0x173
 507 0297 47020000 		.4byte	0x247
 508 029b 00       		.byte	0
ARM GAS  C:\Users\jo\AppData\Local\Temp\ccsCL547.s 			page 10


 509 029c 09       		.uleb128 0x9
 510 029d E0020000 		.4byte	.LASF52
 511 02a1 07       		.byte	0x7
 512 02a2 7401     		.2byte	0x174
 513 02a4 FF000000 		.4byte	0xff
 514 02a8 08       		.byte	0x8
 515 02a9 09       		.uleb128 0x9
 516 02aa 35020000 		.4byte	.LASF53
 517 02ae 07       		.byte	0x7
 518 02af 7601     		.2byte	0x176
 519 02b1 4D040000 		.4byte	0x44d
 520 02b5 0C       		.byte	0xc
 521 02b6 09       		.uleb128 0x9
 522 02b7 2B010000 		.4byte	.LASF54
 523 02bb 07       		.byte	0x7
 524 02bc 7901     		.2byte	0x179
 525 02be DF050000 		.4byte	0x5df
 526 02c2 10       		.byte	0x10
 527 02c3 09       		.uleb128 0x9
 528 02c4 56020000 		.4byte	.LASF55
 529 02c8 07       		.byte	0x7
 530 02c9 7A01     		.2byte	0x17a
 531 02cb DF050000 		.4byte	0x5df
 532 02cf 14       		.byte	0x14
 533 02d0 09       		.uleb128 0x9
 534 02d1 4C020000 		.4byte	.LASF56
 535 02d5 07       		.byte	0x7
 536 02d6 7D01     		.2byte	0x17d
 537 02d8 DF050000 		.4byte	0x5df
 538 02dc 18       		.byte	0x18
 539 02dd 00       		.byte	0
 540 02de 03       		.uleb128 0x3
 541 02df E9040000 		.4byte	.LASF57
 542 02e3 06       		.byte	0x6
 543 02e4 57       		.byte	0x57
 544 02e5 E9020000 		.4byte	0x2e9
 545 02e9 0B       		.uleb128 0xb
 546 02ea 04       		.byte	0x4
 547 02eb EF020000 		.4byte	0x2ef
 548 02ef 0C       		.uleb128 0xc
 549 02f0 FA020000 		.4byte	0x2fa
 550 02f4 0D       		.uleb128 0xd
 551 02f5 FA020000 		.4byte	0x2fa
 552 02f9 00       		.byte	0
 553 02fa 0E       		.uleb128 0xe
 554 02fb 04       		.byte	0x4
 555 02fc 03       		.uleb128 0x3
 556 02fd 73020000 		.4byte	.LASF58
 557 0301 06       		.byte	0x6
 558 0302 5C       		.byte	0x5c
 559 0303 07030000 		.4byte	0x307
 560 0307 0A       		.uleb128 0xa
 561 0308 16040000 		.4byte	.LASF59
 562 030c 14       		.byte	0x14
 563 030d 07       		.byte	0x7
 564 030e 4D01     		.2byte	0x14d
 565 0310 56030000 		.4byte	0x356
ARM GAS  C:\Users\jo\AppData\Local\Temp\ccsCL547.s 			page 11


 566 0314 09       		.uleb128 0x9
 567 0315 68010000 		.4byte	.LASF60
 568 0319 07       		.byte	0x7
 569 031a 4E01     		.2byte	0x14e
 570 031c 54060000 		.4byte	0x654
 571 0320 00       		.byte	0
 572 0321 09       		.uleb128 0x9
 573 0322 3C010000 		.4byte	.LASF61
 574 0326 07       		.byte	0x7
 575 0327 4F01     		.2byte	0x14f
 576 0329 54060000 		.4byte	0x654
 577 032d 04       		.byte	0x4
 578 032e 09       		.uleb128 0x9
 579 032f 70010000 		.4byte	.LASF62
 580 0333 07       		.byte	0x7
 581 0334 5001     		.2byte	0x150
 582 0336 20010000 		.4byte	0x120
 583 033a 08       		.byte	0x8
 584 033b 09       		.uleb128 0x9
 585 033c 9A050000 		.4byte	.LASF63
 586 0340 07       		.byte	0x7
 587 0341 5101     		.2byte	0x151
 588 0343 DE020000 		.4byte	0x2de
 589 0347 0C       		.byte	0xc
 590 0348 09       		.uleb128 0x9
 591 0349 2C050000 		.4byte	.LASF64
 592 034d 07       		.byte	0x7
 593 034e 5301     		.2byte	0x153
 594 0350 FA020000 		.4byte	0x2fa
 595 0354 10       		.byte	0x10
 596 0355 00       		.byte	0
 597 0356 03       		.uleb128 0x3
 598 0357 95000000 		.4byte	.LASF65
 599 035b 06       		.byte	0x6
 600 035c 61       		.byte	0x61
 601 035d 61030000 		.4byte	0x361
 602 0361 0A       		.uleb128 0xa
 603 0362 0A020000 		.4byte	.LASF66
 604 0366 10       		.byte	0x10
 605 0367 07       		.byte	0x7
 606 0368 5D01     		.2byte	0x15d
 607 036a A3030000 		.4byte	0x3a3
 608 036e 09       		.uleb128 0x9
 609 036f 68010000 		.4byte	.LASF60
 610 0373 07       		.byte	0x7
 611 0374 5E01     		.2byte	0x15e
 612 0376 54060000 		.4byte	0x654
 613 037a 00       		.byte	0
 614 037b 09       		.uleb128 0x9
 615 037c 3C010000 		.4byte	.LASF61
 616 0380 07       		.byte	0x7
 617 0381 6001     		.2byte	0x160
 618 0383 54060000 		.4byte	0x654
 619 0387 04       		.byte	0x4
 620 0388 09       		.uleb128 0x9
 621 0389 70010000 		.4byte	.LASF62
 622 038d 07       		.byte	0x7
ARM GAS  C:\Users\jo\AppData\Local\Temp\ccsCL547.s 			page 12


 623 038e 6201     		.2byte	0x162
 624 0390 20010000 		.4byte	0x120
 625 0394 08       		.byte	0x8
 626 0395 09       		.uleb128 0x9
 627 0396 21020000 		.4byte	.LASF67
 628 039a 07       		.byte	0x7
 629 039b 6A01     		.2byte	0x16a
 630 039d 20010000 		.4byte	0x120
 631 03a1 0C       		.byte	0xc
 632 03a2 00       		.byte	0
 633 03a3 03       		.uleb128 0x3
 634 03a4 5B000000 		.4byte	.LASF68
 635 03a8 06       		.byte	0x6
 636 03a9 66       		.byte	0x66
 637 03aa AE030000 		.4byte	0x3ae
 638 03ae 0A       		.uleb128 0xa
 639 03af 98020000 		.4byte	.LASF69
 640 03b3 04       		.byte	0x4
 641 03b4 07       		.byte	0x7
 642 03b5 8401     		.2byte	0x184
 643 03b7 C9030000 		.4byte	0x3c9
 644 03bb 09       		.uleb128 0x9
 645 03bc 0B050000 		.4byte	.LASF70
 646 03c0 07       		.byte	0x7
 647 03c1 8C01     		.2byte	0x18c
 648 03c3 5A060000 		.4byte	0x65a
 649 03c7 00       		.byte	0
 650 03c8 00       		.byte	0
 651 03c9 03       		.uleb128 0x3
 652 03ca A7010000 		.4byte	.LASF71
 653 03ce 06       		.byte	0x6
 654 03cf 6B       		.byte	0x6b
 655 03d0 D4030000 		.4byte	0x3d4
 656 03d4 0F       		.uleb128 0xf
 657 03d5 07010000 		.4byte	.LASF72
 658 03d9 D801     		.2byte	0x1d8
 659 03db 07       		.byte	0x7
 660 03dc A401     		.2byte	0x1a4
 661 03de 30040000 		.4byte	0x430
 662 03e2 09       		.uleb128 0x9
 663 03e3 62050000 		.4byte	.LASF73
 664 03e7 07       		.byte	0x7
 665 03e8 A801     		.2byte	0x1a8
 666 03ea 77020000 		.4byte	0x277
 667 03ee 00       		.byte	0
 668 03ef 09       		.uleb128 0x9
 669 03f0 00010000 		.4byte	.LASF74
 670 03f4 07       		.byte	0x7
 671 03f5 AC01     		.2byte	0x1ac
 672 03f7 56030000 		.4byte	0x356
 673 03fb 1C       		.byte	0x1c
 674 03fc 08       		.uleb128 0x8
 675 03fd 64626700 		.ascii	"dbg\000"
 676 0401 07       		.byte	0x7
 677 0402 B001     		.2byte	0x1b0
 678 0404 A3030000 		.4byte	0x3a3
 679 0408 2C       		.byte	0x2c
ARM GAS  C:\Users\jo\AppData\Local\Temp\ccsCL547.s 			page 13


 680 0409 09       		.uleb128 0x9
 681 040a 8A000000 		.4byte	.LASF75
 682 040e 07       		.byte	0x7
 683 040f B401     		.2byte	0x1b4
 684 0411 2B010000 		.4byte	0x12b
 685 0415 30       		.byte	0x30
 686 0416 08       		.uleb128 0x8
 687 0417 746D00   		.ascii	"tm\000"
 688 041a 07       		.byte	0x7
 689 041b B901     		.2byte	0x1b9
 690 041d D4050000 		.4byte	0x5d4
 691 0421 74       		.byte	0x74
 692 0422 09       		.uleb128 0x9
 693 0423 4C010000 		.4byte	.LASF76
 694 0427 07       		.byte	0x7
 695 0428 C501     		.2byte	0x1c5
 696 042a 5F060000 		.4byte	0x65f
 697 042e 78       		.byte	0x78
 698 042f 00       		.byte	0
 699 0430 04       		.uleb128 0x4
 700 0431 04       		.byte	0x4
 701 0432 07       		.byte	0x7
 702 0433 01020000 		.4byte	.LASF77
 703 0437 03       		.uleb128 0x3
 704 0438 33010000 		.4byte	.LASF78
 705 043c 08       		.byte	0x8
 706 043d 85       		.byte	0x85
 707 043e FA020000 		.4byte	0x2fa
 708 0442 03       		.uleb128 0x3
 709 0443 E6010000 		.4byte	.LASF79
 710 0447 08       		.byte	0x8
 711 0448 8D       		.byte	0x8d
 712 0449 C3000000 		.4byte	0xc3
 713 044d 06       		.uleb128 0x6
 714 044e 1C050000 		.4byte	.LASF80
 715 0452 04       		.byte	0x4
 716 0453 08       		.byte	0x8
 717 0454 A9       		.byte	0xa9
 718 0455 66040000 		.4byte	0x466
 719 0459 10       		.uleb128 0x10
 720 045a 72313300 		.ascii	"r13\000"
 721 045e 08       		.byte	0x8
 722 045f AA       		.byte	0xaa
 723 0460 A7050000 		.4byte	0x5a7
 724 0464 00       		.byte	0
 725 0465 00       		.byte	0
 726 0466 06       		.uleb128 0x6
 727 0467 4F000000 		.4byte	.LASF81
 728 046b 64       		.byte	0x64
 729 046c 09       		.byte	0x9
 730 046d F4       		.byte	0xf4
 731 046e A7050000 		.4byte	0x5a7
 732 0472 10       		.uleb128 0x10
 733 0473 73313600 		.ascii	"s16\000"
 734 0477 09       		.byte	0x9
 735 0478 F6       		.byte	0xf6
 736 0479 37040000 		.4byte	0x437
ARM GAS  C:\Users\jo\AppData\Local\Temp\ccsCL547.s 			page 14


 737 047d 00       		.byte	0
 738 047e 10       		.uleb128 0x10
 739 047f 73313700 		.ascii	"s17\000"
 740 0483 09       		.byte	0x9
 741 0484 F7       		.byte	0xf7
 742 0485 37040000 		.4byte	0x437
 743 0489 04       		.byte	0x4
 744 048a 10       		.uleb128 0x10
 745 048b 73313800 		.ascii	"s18\000"
 746 048f 09       		.byte	0x9
 747 0490 F8       		.byte	0xf8
 748 0491 37040000 		.4byte	0x437
 749 0495 08       		.byte	0x8
 750 0496 10       		.uleb128 0x10
 751 0497 73313900 		.ascii	"s19\000"
 752 049b 09       		.byte	0x9
 753 049c F9       		.byte	0xf9
 754 049d 37040000 		.4byte	0x437
 755 04a1 0C       		.byte	0xc
 756 04a2 10       		.uleb128 0x10
 757 04a3 73323000 		.ascii	"s20\000"
 758 04a7 09       		.byte	0x9
 759 04a8 FA       		.byte	0xfa
 760 04a9 37040000 		.4byte	0x437
 761 04ad 10       		.byte	0x10
 762 04ae 10       		.uleb128 0x10
 763 04af 73323100 		.ascii	"s21\000"
 764 04b3 09       		.byte	0x9
 765 04b4 FB       		.byte	0xfb
 766 04b5 37040000 		.4byte	0x437
 767 04b9 14       		.byte	0x14
 768 04ba 10       		.uleb128 0x10
 769 04bb 73323200 		.ascii	"s22\000"
 770 04bf 09       		.byte	0x9
 771 04c0 FC       		.byte	0xfc
 772 04c1 37040000 		.4byte	0x437
 773 04c5 18       		.byte	0x18
 774 04c6 10       		.uleb128 0x10
 775 04c7 73323300 		.ascii	"s23\000"
 776 04cb 09       		.byte	0x9
 777 04cc FD       		.byte	0xfd
 778 04cd 37040000 		.4byte	0x437
 779 04d1 1C       		.byte	0x1c
 780 04d2 10       		.uleb128 0x10
 781 04d3 73323400 		.ascii	"s24\000"
 782 04d7 09       		.byte	0x9
 783 04d8 FE       		.byte	0xfe
 784 04d9 37040000 		.4byte	0x437
 785 04dd 20       		.byte	0x20
 786 04de 10       		.uleb128 0x10
 787 04df 73323500 		.ascii	"s25\000"
 788 04e3 09       		.byte	0x9
 789 04e4 FF       		.byte	0xff
 790 04e5 37040000 		.4byte	0x437
 791 04e9 24       		.byte	0x24
 792 04ea 08       		.uleb128 0x8
 793 04eb 73323600 		.ascii	"s26\000"
ARM GAS  C:\Users\jo\AppData\Local\Temp\ccsCL547.s 			page 15


 794 04ef 09       		.byte	0x9
 795 04f0 0001     		.2byte	0x100
 796 04f2 37040000 		.4byte	0x437
 797 04f6 28       		.byte	0x28
 798 04f7 08       		.uleb128 0x8
 799 04f8 73323700 		.ascii	"s27\000"
 800 04fc 09       		.byte	0x9
 801 04fd 0101     		.2byte	0x101
 802 04ff 37040000 		.4byte	0x437
 803 0503 2C       		.byte	0x2c
 804 0504 08       		.uleb128 0x8
 805 0505 73323800 		.ascii	"s28\000"
 806 0509 09       		.byte	0x9
 807 050a 0201     		.2byte	0x102
 808 050c 37040000 		.4byte	0x437
 809 0510 30       		.byte	0x30
 810 0511 08       		.uleb128 0x8
 811 0512 73323900 		.ascii	"s29\000"
 812 0516 09       		.byte	0x9
 813 0517 0301     		.2byte	0x103
 814 0519 37040000 		.4byte	0x437
 815 051d 34       		.byte	0x34
 816 051e 08       		.uleb128 0x8
 817 051f 73333000 		.ascii	"s30\000"
 818 0523 09       		.byte	0x9
 819 0524 0401     		.2byte	0x104
 820 0526 37040000 		.4byte	0x437
 821 052a 38       		.byte	0x38
 822 052b 08       		.uleb128 0x8
 823 052c 73333100 		.ascii	"s31\000"
 824 0530 09       		.byte	0x9
 825 0531 0501     		.2byte	0x105
 826 0533 37040000 		.4byte	0x437
 827 0537 3C       		.byte	0x3c
 828 0538 08       		.uleb128 0x8
 829 0539 723400   		.ascii	"r4\000"
 830 053c 09       		.byte	0x9
 831 053d 0701     		.2byte	0x107
 832 053f 37040000 		.4byte	0x437
 833 0543 40       		.byte	0x40
 834 0544 08       		.uleb128 0x8
 835 0545 723500   		.ascii	"r5\000"
 836 0548 09       		.byte	0x9
 837 0549 0801     		.2byte	0x108
 838 054b 37040000 		.4byte	0x437
 839 054f 44       		.byte	0x44
 840 0550 08       		.uleb128 0x8
 841 0551 723600   		.ascii	"r6\000"
 842 0554 09       		.byte	0x9
 843 0555 0901     		.2byte	0x109
 844 0557 37040000 		.4byte	0x437
 845 055b 48       		.byte	0x48
 846 055c 08       		.uleb128 0x8
 847 055d 723700   		.ascii	"r7\000"
 848 0560 09       		.byte	0x9
 849 0561 0A01     		.2byte	0x10a
 850 0563 37040000 		.4byte	0x437
ARM GAS  C:\Users\jo\AppData\Local\Temp\ccsCL547.s 			page 16


 851 0567 4C       		.byte	0x4c
 852 0568 08       		.uleb128 0x8
 853 0569 723800   		.ascii	"r8\000"
 854 056c 09       		.byte	0x9
 855 056d 0B01     		.2byte	0x10b
 856 056f 37040000 		.4byte	0x437
 857 0573 50       		.byte	0x50
 858 0574 08       		.uleb128 0x8
 859 0575 723900   		.ascii	"r9\000"
 860 0578 09       		.byte	0x9
 861 0579 0C01     		.2byte	0x10c
 862 057b 37040000 		.4byte	0x437
 863 057f 54       		.byte	0x54
 864 0580 08       		.uleb128 0x8
 865 0581 72313000 		.ascii	"r10\000"
 866 0585 09       		.byte	0x9
 867 0586 0D01     		.2byte	0x10d
 868 0588 37040000 		.4byte	0x437
 869 058c 58       		.byte	0x58
 870 058d 08       		.uleb128 0x8
 871 058e 72313100 		.ascii	"r11\000"
 872 0592 09       		.byte	0x9
 873 0593 0E01     		.2byte	0x10e
 874 0595 37040000 		.4byte	0x437
 875 0599 5C       		.byte	0x5c
 876 059a 08       		.uleb128 0x8
 877 059b 6C7200   		.ascii	"lr\000"
 878 059e 09       		.byte	0x9
 879 059f 0F01     		.2byte	0x10f
 880 05a1 37040000 		.4byte	0x437
 881 05a5 60       		.byte	0x60
 882 05a6 00       		.byte	0
 883 05a7 0B       		.uleb128 0xb
 884 05a8 04       		.byte	0x4
 885 05a9 66040000 		.4byte	0x466
 886 05ad 04       		.uleb128 0x4
 887 05ae 01       		.byte	0x1
 888 05af 08       		.byte	0x8
 889 05b0 6A040000 		.4byte	.LASF82
 890 05b4 0B       		.uleb128 0xb
 891 05b5 04       		.byte	0x4
 892 05b6 BA050000 		.4byte	0x5ba
 893 05ba 11       		.uleb128 0x11
 894 05bb AD050000 		.4byte	0x5ad
 895 05bf 12       		.uleb128 0x12
 896 05c0 04       		.byte	0x4
 897 05c1 0A       		.byte	0xa
 898 05c2 38       		.byte	0x38
 899 05c3 D4050000 		.4byte	0x5d4
 900 05c7 07       		.uleb128 0x7
 901 05c8 15050000 		.4byte	.LASF83
 902 05cc 0A       		.byte	0xa
 903 05cd 3C       		.byte	0x3c
 904 05ce D3000000 		.4byte	0xd3
 905 05d2 00       		.byte	0
 906 05d3 00       		.byte	0
 907 05d4 03       		.uleb128 0x3
ARM GAS  C:\Users\jo\AppData\Local\Temp\ccsCL547.s 			page 17


 908 05d5 3B020000 		.4byte	.LASF84
 909 05d9 0A       		.byte	0xa
 910 05da 3D       		.byte	0x3d
 911 05db BF050000 		.4byte	0x5bf
 912 05df 0B       		.uleb128 0xb
 913 05e0 04       		.byte	0x4
 914 05e1 2B010000 		.4byte	0x12b
 915 05e5 13       		.uleb128 0x13
 916 05e6 04       		.byte	0x4
 917 05e7 07       		.byte	0x7
 918 05e8 F6       		.byte	0xf6
 919 05e9 1D060000 		.4byte	0x61d
 920 05ed 14       		.uleb128 0x14
 921 05ee 1C000000 		.4byte	.LASF85
 922 05f2 07       		.byte	0x7
 923 05f3 FD       		.byte	0xfd
 924 05f4 0A010000 		.4byte	0x10a
 925 05f8 15       		.uleb128 0x15
 926 05f9 81000000 		.4byte	.LASF86
 927 05fd 07       		.byte	0x7
 928 05fe 0401     		.2byte	0x104
 929 0600 0A010000 		.4byte	0x10a
 930 0604 15       		.uleb128 0x15
 931 0605 70050000 		.4byte	.LASF87
 932 0609 07       		.byte	0x7
 933 060a 0B01     		.2byte	0x10b
 934 060c FA020000 		.4byte	0x2fa
 935 0610 15       		.uleb128 0x15
 936 0611 E7020000 		.4byte	.LASF88
 937 0615 07       		.byte	0x7
 938 0616 1201     		.2byte	0x112
 939 0618 15010000 		.4byte	0x115
 940 061c 00       		.byte	0
 941 061d 06       		.uleb128 0x6
 942 061e 92020000 		.4byte	.LASF89
 943 0622 10       		.byte	0x10
 944 0623 0B       		.byte	0xb
 945 0624 39       		.byte	0x39
 946 0625 4E060000 		.4byte	0x64e
 947 0629 07       		.uleb128 0x7
 948 062a F8000000 		.4byte	.LASF90
 949 062e 0B       		.byte	0xb
 950 062f 3A       		.byte	0x3a
 951 0630 47020000 		.4byte	0x247
 952 0634 00       		.byte	0
 953 0635 07       		.uleb128 0x7
 954 0636 8C050000 		.4byte	.LASF91
 955 063a 0B       		.byte	0xb
 956 063b 3C       		.byte	0x3c
 957 063c DF050000 		.4byte	0x5df
 958 0640 08       		.byte	0x8
 959 0641 07       		.uleb128 0x7
 960 0642 CD040000 		.4byte	.LASF92
 961 0646 0B       		.byte	0xb
 962 0647 3E       		.byte	0x3e
 963 0648 8F060000 		.4byte	0x68f
 964 064c 0C       		.byte	0xc
ARM GAS  C:\Users\jo\AppData\Local\Temp\ccsCL547.s 			page 18


 965 064d 00       		.byte	0
 966 064e 0B       		.uleb128 0xb
 967 064f 04       		.byte	0x4
 968 0650 1D060000 		.4byte	0x61d
 969 0654 0B       		.uleb128 0xb
 970 0655 04       		.byte	0x4
 971 0656 FC020000 		.4byte	0x2fc
 972 065a 05       		.uleb128 0x5
 973 065b B4050000 		.4byte	0x5b4
 974 065f 16       		.uleb128 0x16
 975 0660 42040000 		.4byte	0x442
 976 0664 6F060000 		.4byte	0x66f
 977 0668 17       		.uleb128 0x17
 978 0669 30040000 		.4byte	0x430
 979 066d 2B       		.byte	0x2b
 980 066e 00       		.byte	0
 981 066f 0B       		.uleb128 0xb
 982 0670 04       		.byte	0x4
 983 0671 75060000 		.4byte	0x675
 984 0675 18       		.uleb128 0x18
 985 0676 0A010000 		.4byte	0x10a
 986 067a 84060000 		.4byte	0x684
 987 067e 0D       		.uleb128 0xd
 988 067f FA020000 		.4byte	0x2fa
 989 0683 00       		.byte	0
 990 0684 03       		.uleb128 0x3
 991 0685 44010000 		.4byte	.LASF93
 992 0689 0B       		.byte	0xb
 993 068a 34       		.byte	0x34
 994 068b 1D060000 		.4byte	0x61d
 995 068f 0B       		.uleb128 0xb
 996 0690 04       		.byte	0x4
 997 0691 84060000 		.4byte	0x684
 998 0695 0B       		.uleb128 0xb
 999 0696 04       		.byte	0x4
 1000 0697 A2000000 		.4byte	0xa2
 1001 069b 18       		.uleb128 0x18
 1002 069c 2C000000 		.4byte	0x2c
 1003 06a0 B4060000 		.4byte	0x6b4
 1004 06a4 0D       		.uleb128 0xd
 1005 06a5 FA020000 		.4byte	0x2fa
 1006 06a9 0D       		.uleb128 0xd
 1007 06aa B4060000 		.4byte	0x6b4
 1008 06ae 0D       		.uleb128 0xd
 1009 06af 2C000000 		.4byte	0x2c
 1010 06b3 00       		.byte	0
 1011 06b4 0B       		.uleb128 0xb
 1012 06b5 04       		.byte	0x4
 1013 06b6 BA060000 		.4byte	0x6ba
 1014 06ba 11       		.uleb128 0x11
 1015 06bb A2000000 		.4byte	0xa2
 1016 06bf 0B       		.uleb128 0xb
 1017 06c0 04       		.byte	0x4
 1018 06c1 9B060000 		.4byte	0x69b
 1019 06c5 18       		.uleb128 0x18
 1020 06c6 2C000000 		.4byte	0x2c
 1021 06ca DE060000 		.4byte	0x6de
ARM GAS  C:\Users\jo\AppData\Local\Temp\ccsCL547.s 			page 19


 1022 06ce 0D       		.uleb128 0xd
 1023 06cf FA020000 		.4byte	0x2fa
 1024 06d3 0D       		.uleb128 0xd
 1025 06d4 95060000 		.4byte	0x695
 1026 06d8 0D       		.uleb128 0xd
 1027 06d9 2C000000 		.4byte	0x2c
 1028 06dd 00       		.byte	0
 1029 06de 0B       		.uleb128 0xb
 1030 06df 04       		.byte	0x4
 1031 06e0 C5060000 		.4byte	0x6c5
 1032 06e4 18       		.uleb128 0x18
 1033 06e5 0A010000 		.4byte	0x10a
 1034 06e9 F8060000 		.4byte	0x6f8
 1035 06ed 0D       		.uleb128 0xd
 1036 06ee FA020000 		.4byte	0x2fa
 1037 06f2 0D       		.uleb128 0xd
 1038 06f3 A2000000 		.4byte	0xa2
 1039 06f7 00       		.byte	0
 1040 06f8 0B       		.uleb128 0xb
 1041 06f9 04       		.byte	0x4
 1042 06fa E4060000 		.4byte	0x6e4
 1043 06fe 04       		.uleb128 0x4
 1044 06ff 01       		.byte	0x1
 1045 0700 02       		.byte	0x2
 1046 0701 A8020000 		.4byte	.LASF94
 1047 0705 06       		.uleb128 0x6
 1048 0706 B7040000 		.4byte	.LASF95
 1049 070a 10       		.byte	0x10
 1050 070b 0C       		.byte	0xc
 1051 070c 2E       		.byte	0x2e
 1052 070d 42070000 		.4byte	0x742
 1053 0711 07       		.uleb128 0x7
 1054 0712 F1010000 		.4byte	.LASF96
 1055 0716 0C       		.byte	0xc
 1056 0717 2F       		.byte	0x2f
 1057 0718 BF060000 		.4byte	0x6bf
 1058 071c 00       		.byte	0
 1059 071d 07       		.uleb128 0x7
 1060 071e 65040000 		.4byte	.LASF97
 1061 0722 0C       		.byte	0xc
 1062 0723 2F       		.byte	0x2f
 1063 0724 DE060000 		.4byte	0x6de
 1064 0728 04       		.byte	0x4
 1065 0729 10       		.uleb128 0x10
 1066 072a 70757400 		.ascii	"put\000"
 1067 072e 0C       		.byte	0xc
 1068 072f 2F       		.byte	0x2f
 1069 0730 F8060000 		.4byte	0x6f8
 1070 0734 08       		.byte	0x8
 1071 0735 10       		.uleb128 0x10
 1072 0736 67657400 		.ascii	"get\000"
 1073 073a 0C       		.byte	0xc
 1074 073b 2F       		.byte	0x2f
 1075 073c 6F060000 		.4byte	0x66f
 1076 0740 0C       		.byte	0xc
 1077 0741 00       		.byte	0
 1078 0742 12       		.uleb128 0x12
ARM GAS  C:\Users\jo\AppData\Local\Temp\ccsCL547.s 			page 20


 1079 0743 04       		.byte	0x4
 1080 0744 0C       		.byte	0xc
 1081 0745 39       		.byte	0x39
 1082 0746 57070000 		.4byte	0x757
 1083 074a 10       		.uleb128 0x10
 1084 074b 766D7400 		.ascii	"vmt\000"
 1085 074f 0C       		.byte	0xc
 1086 0750 3B       		.byte	0x3b
 1087 0751 57070000 		.4byte	0x757
 1088 0755 00       		.byte	0
 1089 0756 00       		.byte	0
 1090 0757 0B       		.uleb128 0xb
 1091 0758 04       		.byte	0x4
 1092 0759 5D070000 		.4byte	0x75d
 1093 075d 11       		.uleb128 0x11
 1094 075e 05070000 		.4byte	0x705
 1095 0762 03       		.uleb128 0x3
 1096 0763 69020000 		.4byte	.LASF98
 1097 0767 0C       		.byte	0xc
 1098 0768 3D       		.byte	0x3d
 1099 0769 42070000 		.4byte	0x742
 1100 076d 19       		.uleb128 0x19
 1101 076e 70757400 		.ascii	"put\000"
 1102 0772 01       		.byte	0x1
 1103 0773 27       		.byte	0x27
 1104 0774 0A010000 		.4byte	0x10a
 1105 0778 01       		.byte	0x1
 1106 0779 91070000 		.4byte	0x791
 1107 077d 1A       		.uleb128 0x1a
 1108 077e 697000   		.ascii	"ip\000"
 1109 0781 01       		.byte	0x1
 1110 0782 27       		.byte	0x27
 1111 0783 FA020000 		.4byte	0x2fa
 1112 0787 1A       		.uleb128 0x1a
 1113 0788 6200     		.ascii	"b\000"
 1114 078a 01       		.byte	0x1
 1115 078b 27       		.byte	0x27
 1116 078c A2000000 		.4byte	0xa2
 1117 0790 00       		.byte	0
 1118 0791 1B       		.uleb128 0x1b
 1119 0792 67657400 		.ascii	"get\000"
 1120 0796 01       		.byte	0x1
 1121 0797 30       		.byte	0x30
 1122 0798 0A010000 		.4byte	0x10a
 1123 079c 00000000 		.4byte	.LFB256
 1124 07a0 04000000 		.4byte	.LFE256-.LFB256
 1125 07a4 01       		.uleb128 0x1
 1126 07a5 9C       		.byte	0x9c
 1127 07a6 B9070000 		.4byte	0x7b9
 1128 07aa 1C       		.uleb128 0x1c
 1129 07ab 697000   		.ascii	"ip\000"
 1130 07ae 01       		.byte	0x1
 1131 07af 30       		.byte	0x30
 1132 07b0 FA020000 		.4byte	0x2fa
 1133 07b4 00000000 		.4byte	.LLST0
 1134 07b8 00       		.byte	0
 1135 07b9 1D       		.uleb128 0x1d
ARM GAS  C:\Users\jo\AppData\Local\Temp\ccsCL547.s 			page 21


 1136 07ba D0000000 		.4byte	.LASF99
 1137 07be 01       		.byte	0x1
 1138 07bf 43       		.byte	0x43
 1139 07c0 2C000000 		.4byte	0x2c
 1140 07c4 00000000 		.4byte	.LFB258
 1141 07c8 04000000 		.4byte	.LFE258-.LFB258
 1142 07cc 01       		.uleb128 0x1
 1143 07cd 9C       		.byte	0x9c
 1144 07ce F8070000 		.4byte	0x7f8
 1145 07d2 1C       		.uleb128 0x1c
 1146 07d3 697000   		.ascii	"ip\000"
 1147 07d6 01       		.byte	0x1
 1148 07d7 43       		.byte	0x43
 1149 07d8 FA020000 		.4byte	0x2fa
 1150 07dc 21000000 		.4byte	.LLST1
 1151 07e0 1E       		.uleb128 0x1e
 1152 07e1 627000   		.ascii	"bp\000"
 1153 07e4 01       		.byte	0x1
 1154 07e5 43       		.byte	0x43
 1155 07e6 95060000 		.4byte	0x695
 1156 07ea 01       		.uleb128 0x1
 1157 07eb 51       		.byte	0x51
 1158 07ec 1E       		.uleb128 0x1e
 1159 07ed 6E00     		.ascii	"n\000"
 1160 07ef 01       		.byte	0x1
 1161 07f0 43       		.byte	0x43
 1162 07f1 2C000000 		.4byte	0x2c
 1163 07f5 01       		.uleb128 0x1
 1164 07f6 52       		.byte	0x52
 1165 07f7 00       		.byte	0
 1166 07f8 1F       		.uleb128 0x1f
 1167 07f9 6D070000 		.4byte	0x76d
 1168 07fd 00000000 		.4byte	.LFB255
 1169 0801 0C000000 		.4byte	.LFE255-.LFB255
 1170 0805 01       		.uleb128 0x1
 1171 0806 9C       		.byte	0x9c
 1172 0807 27080000 		.4byte	0x827
 1173 080b 20       		.uleb128 0x20
 1174 080c 7D070000 		.4byte	0x77d
 1175 0810 42000000 		.4byte	.LLST2
 1176 0814 20       		.uleb128 0x20
 1177 0815 87070000 		.4byte	0x787
 1178 0819 63000000 		.4byte	.LLST3
 1179 081d 21       		.uleb128 0x21
 1180 081e 08000000 		.4byte	.LVL6
 1181 0822 F5080000 		.4byte	0x8f5
 1182 0826 00       		.byte	0
 1183 0827 1D       		.uleb128 0x1d
 1184 0828 B3010000 		.4byte	.LASF100
 1185 082c 01       		.byte	0x1
 1186 082d 37       		.byte	0x37
 1187 082e 2C000000 		.4byte	0x2c
 1188 0832 00000000 		.4byte	.LFB257
 1189 0836 1A000000 		.4byte	.LFE257-.LFB257
 1190 083a 01       		.uleb128 0x1
 1191 083b 9C       		.byte	0x9c
 1192 083c A4080000 		.4byte	0x8a4
ARM GAS  C:\Users\jo\AppData\Local\Temp\ccsCL547.s 			page 22


 1193 0840 1C       		.uleb128 0x1c
 1194 0841 697000   		.ascii	"ip\000"
 1195 0844 01       		.byte	0x1
 1196 0845 37       		.byte	0x37
 1197 0846 FA020000 		.4byte	0x2fa
 1198 084a 84000000 		.4byte	.LLST4
 1199 084e 1C       		.uleb128 0x1c
 1200 084f 627000   		.ascii	"bp\000"
 1201 0852 01       		.byte	0x1
 1202 0853 37       		.byte	0x37
 1203 0854 B4060000 		.4byte	0x6b4
 1204 0858 A5000000 		.4byte	.LLST5
 1205 085c 1C       		.uleb128 0x1c
 1206 085d 6E00     		.ascii	"n\000"
 1207 085f 01       		.byte	0x1
 1208 0860 37       		.byte	0x37
 1209 0861 2C000000 		.4byte	0x2c
 1210 0865 E6000000 		.4byte	.LLST6
 1211 0869 22       		.uleb128 0x22
 1212 086a 636E7400 		.ascii	"cnt\000"
 1213 086e 01       		.byte	0x1
 1214 086f 38       		.byte	0x38
 1215 0870 2C000000 		.4byte	0x2c
 1216 0874 04010000 		.4byte	.LLST7
 1217 0878 23       		.uleb128 0x23
 1218 0879 6D070000 		.4byte	0x76d
 1219 087d 0A000000 		.4byte	.LBB4
 1220 0881 08000000 		.4byte	.LBE4-.LBB4
 1221 0885 01       		.byte	0x1
 1222 0886 3B       		.byte	0x3b
 1223 0887 20       		.uleb128 0x20
 1224 0888 87070000 		.4byte	0x787
 1225 088c 3A010000 		.4byte	.LLST8
 1226 0890 20       		.uleb128 0x20
 1227 0891 7D070000 		.4byte	0x77d
 1228 0895 5A010000 		.4byte	.LLST9
 1229 0899 21       		.uleb128 0x21
 1230 089a 12000000 		.4byte	.LVL11
 1231 089e F5080000 		.4byte	0x8f5
 1232 08a2 00       		.byte	0
 1233 08a3 00       		.byte	0
 1234 08a4 24       		.uleb128 0x24
 1235 08a5 FD040000 		.4byte	.LASF106
 1236 08a9 01       		.byte	0x1
 1237 08aa 57       		.byte	0x57
 1238 08ab 00000000 		.4byte	.LFB259
 1239 08af 0C000000 		.4byte	.LFE259-.LFB259
 1240 08b3 01       		.uleb128 0x1
 1241 08b4 9C       		.byte	0x9c
 1242 08b5 C7080000 		.4byte	0x8c7
 1243 08b9 25       		.uleb128 0x25
 1244 08ba 33050000 		.4byte	.LASF101
 1245 08be 01       		.byte	0x1
 1246 08bf 57       		.byte	0x57
 1247 08c0 C7080000 		.4byte	0x8c7
 1248 08c4 01       		.uleb128 0x1
 1249 08c5 50       		.byte	0x50
ARM GAS  C:\Users\jo\AppData\Local\Temp\ccsCL547.s 			page 23


 1250 08c6 00       		.byte	0
 1251 08c7 0B       		.uleb128 0xb
 1252 08c8 04       		.byte	0x4
 1253 08c9 62070000 		.4byte	0x762
 1254 08cd 26       		.uleb128 0x26
 1255 08ce 766D7400 		.ascii	"vmt\000"
 1256 08d2 01       		.byte	0x1
 1257 08d3 4C       		.byte	0x4c
 1258 08d4 5D070000 		.4byte	0x75d
 1259 08d8 05       		.uleb128 0x5
 1260 08d9 03       		.byte	0x3
 1261 08da 00000000 		.4byte	vmt
 1262 08de 27       		.uleb128 0x27
 1263 08df AB000000 		.4byte	.LASF102
 1264 08e3 0D       		.byte	0xd
 1265 08e4 A706     		.2byte	0x6a7
 1266 08e6 CE000000 		.4byte	0xce
 1267 08ea 28       		.uleb128 0x28
 1268 08eb 636800   		.ascii	"ch\000"
 1269 08ee 07       		.byte	0x7
 1270 08ef EB01     		.2byte	0x1eb
 1271 08f1 C9030000 		.4byte	0x3c9
 1272 08f5 29       		.uleb128 0x29
 1273 08f6 2C000000 		.4byte	.LASF107
 1274 08fa 01       		.byte	0x1
 1275 08fb 22       		.byte	0x22
 1276 08fc 0D       		.uleb128 0xd
 1277 08fd AD050000 		.4byte	0x5ad
 1278 0901 00       		.byte	0
 1279 0902 00       		.byte	0
 1280              		.section	.debug_abbrev,"",%progbits
 1281              	.Ldebug_abbrev0:
 1282 0000 01       		.uleb128 0x1
 1283 0001 11       		.uleb128 0x11
 1284 0002 01       		.byte	0x1
 1285 0003 25       		.uleb128 0x25
 1286 0004 0E       		.uleb128 0xe
 1287 0005 13       		.uleb128 0x13
 1288 0006 0B       		.uleb128 0xb
 1289 0007 03       		.uleb128 0x3
 1290 0008 0E       		.uleb128 0xe
 1291 0009 1B       		.uleb128 0x1b
 1292 000a 0E       		.uleb128 0xe
 1293 000b 55       		.uleb128 0x55
 1294 000c 17       		.uleb128 0x17
 1295 000d 11       		.uleb128 0x11
 1296 000e 01       		.uleb128 0x1
 1297 000f 10       		.uleb128 0x10
 1298 0010 17       		.uleb128 0x17
 1299 0011 00       		.byte	0
 1300 0012 00       		.byte	0
 1301 0013 02       		.uleb128 0x2
 1302 0014 24       		.uleb128 0x24
 1303 0015 00       		.byte	0
 1304 0016 0B       		.uleb128 0xb
 1305 0017 0B       		.uleb128 0xb
 1306 0018 3E       		.uleb128 0x3e
ARM GAS  C:\Users\jo\AppData\Local\Temp\ccsCL547.s 			page 24


 1307 0019 0B       		.uleb128 0xb
 1308 001a 03       		.uleb128 0x3
 1309 001b 08       		.uleb128 0x8
 1310 001c 00       		.byte	0
 1311 001d 00       		.byte	0
 1312 001e 03       		.uleb128 0x3
 1313 001f 16       		.uleb128 0x16
 1314 0020 00       		.byte	0
 1315 0021 03       		.uleb128 0x3
 1316 0022 0E       		.uleb128 0xe
 1317 0023 3A       		.uleb128 0x3a
 1318 0024 0B       		.uleb128 0xb
 1319 0025 3B       		.uleb128 0x3b
 1320 0026 0B       		.uleb128 0xb
 1321 0027 49       		.uleb128 0x49
 1322 0028 13       		.uleb128 0x13
 1323 0029 00       		.byte	0
 1324 002a 00       		.byte	0
 1325 002b 04       		.uleb128 0x4
 1326 002c 24       		.uleb128 0x24
 1327 002d 00       		.byte	0
 1328 002e 0B       		.uleb128 0xb
 1329 002f 0B       		.uleb128 0xb
 1330 0030 3E       		.uleb128 0x3e
 1331 0031 0B       		.uleb128 0xb
 1332 0032 03       		.uleb128 0x3
 1333 0033 0E       		.uleb128 0xe
 1334 0034 00       		.byte	0
 1335 0035 00       		.byte	0
 1336 0036 05       		.uleb128 0x5
 1337 0037 35       		.uleb128 0x35
 1338 0038 00       		.byte	0
 1339 0039 49       		.uleb128 0x49
 1340 003a 13       		.uleb128 0x13
 1341 003b 00       		.byte	0
 1342 003c 00       		.byte	0
 1343 003d 06       		.uleb128 0x6
 1344 003e 13       		.uleb128 0x13
 1345 003f 01       		.byte	0x1
 1346 0040 03       		.uleb128 0x3
 1347 0041 0E       		.uleb128 0xe
 1348 0042 0B       		.uleb128 0xb
 1349 0043 0B       		.uleb128 0xb
 1350 0044 3A       		.uleb128 0x3a
 1351 0045 0B       		.uleb128 0xb
 1352 0046 3B       		.uleb128 0x3b
 1353 0047 0B       		.uleb128 0xb
 1354 0048 01       		.uleb128 0x1
 1355 0049 13       		.uleb128 0x13
 1356 004a 00       		.byte	0
 1357 004b 00       		.byte	0
 1358 004c 07       		.uleb128 0x7
 1359 004d 0D       		.uleb128 0xd
 1360 004e 00       		.byte	0
 1361 004f 03       		.uleb128 0x3
 1362 0050 0E       		.uleb128 0xe
 1363 0051 3A       		.uleb128 0x3a
ARM GAS  C:\Users\jo\AppData\Local\Temp\ccsCL547.s 			page 25


 1364 0052 0B       		.uleb128 0xb
 1365 0053 3B       		.uleb128 0x3b
 1366 0054 0B       		.uleb128 0xb
 1367 0055 49       		.uleb128 0x49
 1368 0056 13       		.uleb128 0x13
 1369 0057 38       		.uleb128 0x38
 1370 0058 0B       		.uleb128 0xb
 1371 0059 00       		.byte	0
 1372 005a 00       		.byte	0
 1373 005b 08       		.uleb128 0x8
 1374 005c 0D       		.uleb128 0xd
 1375 005d 00       		.byte	0
 1376 005e 03       		.uleb128 0x3
 1377 005f 08       		.uleb128 0x8
 1378 0060 3A       		.uleb128 0x3a
 1379 0061 0B       		.uleb128 0xb
 1380 0062 3B       		.uleb128 0x3b
 1381 0063 05       		.uleb128 0x5
 1382 0064 49       		.uleb128 0x49
 1383 0065 13       		.uleb128 0x13
 1384 0066 38       		.uleb128 0x38
 1385 0067 0B       		.uleb128 0xb
 1386 0068 00       		.byte	0
 1387 0069 00       		.byte	0
 1388 006a 09       		.uleb128 0x9
 1389 006b 0D       		.uleb128 0xd
 1390 006c 00       		.byte	0
 1391 006d 03       		.uleb128 0x3
 1392 006e 0E       		.uleb128 0xe
 1393 006f 3A       		.uleb128 0x3a
 1394 0070 0B       		.uleb128 0xb
 1395 0071 3B       		.uleb128 0x3b
 1396 0072 05       		.uleb128 0x5
 1397 0073 49       		.uleb128 0x49
 1398 0074 13       		.uleb128 0x13
 1399 0075 38       		.uleb128 0x38
 1400 0076 0B       		.uleb128 0xb
 1401 0077 00       		.byte	0
 1402 0078 00       		.byte	0
 1403 0079 0A       		.uleb128 0xa
 1404 007a 13       		.uleb128 0x13
 1405 007b 01       		.byte	0x1
 1406 007c 03       		.uleb128 0x3
 1407 007d 0E       		.uleb128 0xe
 1408 007e 0B       		.uleb128 0xb
 1409 007f 0B       		.uleb128 0xb
 1410 0080 3A       		.uleb128 0x3a
 1411 0081 0B       		.uleb128 0xb
 1412 0082 3B       		.uleb128 0x3b
 1413 0083 05       		.uleb128 0x5
 1414 0084 01       		.uleb128 0x1
 1415 0085 13       		.uleb128 0x13
 1416 0086 00       		.byte	0
 1417 0087 00       		.byte	0
 1418 0088 0B       		.uleb128 0xb
 1419 0089 0F       		.uleb128 0xf
 1420 008a 00       		.byte	0
ARM GAS  C:\Users\jo\AppData\Local\Temp\ccsCL547.s 			page 26


 1421 008b 0B       		.uleb128 0xb
 1422 008c 0B       		.uleb128 0xb
 1423 008d 49       		.uleb128 0x49
 1424 008e 13       		.uleb128 0x13
 1425 008f 00       		.byte	0
 1426 0090 00       		.byte	0
 1427 0091 0C       		.uleb128 0xc
 1428 0092 15       		.uleb128 0x15
 1429 0093 01       		.byte	0x1
 1430 0094 27       		.uleb128 0x27
 1431 0095 19       		.uleb128 0x19
 1432 0096 01       		.uleb128 0x1
 1433 0097 13       		.uleb128 0x13
 1434 0098 00       		.byte	0
 1435 0099 00       		.byte	0
 1436 009a 0D       		.uleb128 0xd
 1437 009b 05       		.uleb128 0x5
 1438 009c 00       		.byte	0
 1439 009d 49       		.uleb128 0x49
 1440 009e 13       		.uleb128 0x13
 1441 009f 00       		.byte	0
 1442 00a0 00       		.byte	0
 1443 00a1 0E       		.uleb128 0xe
 1444 00a2 0F       		.uleb128 0xf
 1445 00a3 00       		.byte	0
 1446 00a4 0B       		.uleb128 0xb
 1447 00a5 0B       		.uleb128 0xb
 1448 00a6 00       		.byte	0
 1449 00a7 00       		.byte	0
 1450 00a8 0F       		.uleb128 0xf
 1451 00a9 13       		.uleb128 0x13
 1452 00aa 01       		.byte	0x1
 1453 00ab 03       		.uleb128 0x3
 1454 00ac 0E       		.uleb128 0xe
 1455 00ad 0B       		.uleb128 0xb
 1456 00ae 05       		.uleb128 0x5
 1457 00af 3A       		.uleb128 0x3a
 1458 00b0 0B       		.uleb128 0xb
 1459 00b1 3B       		.uleb128 0x3b
 1460 00b2 05       		.uleb128 0x5
 1461 00b3 01       		.uleb128 0x1
 1462 00b4 13       		.uleb128 0x13
 1463 00b5 00       		.byte	0
 1464 00b6 00       		.byte	0
 1465 00b7 10       		.uleb128 0x10
 1466 00b8 0D       		.uleb128 0xd
 1467 00b9 00       		.byte	0
 1468 00ba 03       		.uleb128 0x3
 1469 00bb 08       		.uleb128 0x8
 1470 00bc 3A       		.uleb128 0x3a
 1471 00bd 0B       		.uleb128 0xb
 1472 00be 3B       		.uleb128 0x3b
 1473 00bf 0B       		.uleb128 0xb
 1474 00c0 49       		.uleb128 0x49
 1475 00c1 13       		.uleb128 0x13
 1476 00c2 38       		.uleb128 0x38
 1477 00c3 0B       		.uleb128 0xb
ARM GAS  C:\Users\jo\AppData\Local\Temp\ccsCL547.s 			page 27


 1478 00c4 00       		.byte	0
 1479 00c5 00       		.byte	0
 1480 00c6 11       		.uleb128 0x11
 1481 00c7 26       		.uleb128 0x26
 1482 00c8 00       		.byte	0
 1483 00c9 49       		.uleb128 0x49
 1484 00ca 13       		.uleb128 0x13
 1485 00cb 00       		.byte	0
 1486 00cc 00       		.byte	0
 1487 00cd 12       		.uleb128 0x12
 1488 00ce 13       		.uleb128 0x13
 1489 00cf 01       		.byte	0x1
 1490 00d0 0B       		.uleb128 0xb
 1491 00d1 0B       		.uleb128 0xb
 1492 00d2 3A       		.uleb128 0x3a
 1493 00d3 0B       		.uleb128 0xb
 1494 00d4 3B       		.uleb128 0x3b
 1495 00d5 0B       		.uleb128 0xb
 1496 00d6 01       		.uleb128 0x1
 1497 00d7 13       		.uleb128 0x13
 1498 00d8 00       		.byte	0
 1499 00d9 00       		.byte	0
 1500 00da 13       		.uleb128 0x13
 1501 00db 17       		.uleb128 0x17
 1502 00dc 01       		.byte	0x1
 1503 00dd 0B       		.uleb128 0xb
 1504 00de 0B       		.uleb128 0xb
 1505 00df 3A       		.uleb128 0x3a
 1506 00e0 0B       		.uleb128 0xb
 1507 00e1 3B       		.uleb128 0x3b
 1508 00e2 0B       		.uleb128 0xb
 1509 00e3 01       		.uleb128 0x1
 1510 00e4 13       		.uleb128 0x13
 1511 00e5 00       		.byte	0
 1512 00e6 00       		.byte	0
 1513 00e7 14       		.uleb128 0x14
 1514 00e8 0D       		.uleb128 0xd
 1515 00e9 00       		.byte	0
 1516 00ea 03       		.uleb128 0x3
 1517 00eb 0E       		.uleb128 0xe
 1518 00ec 3A       		.uleb128 0x3a
 1519 00ed 0B       		.uleb128 0xb
 1520 00ee 3B       		.uleb128 0x3b
 1521 00ef 0B       		.uleb128 0xb
 1522 00f0 49       		.uleb128 0x49
 1523 00f1 13       		.uleb128 0x13
 1524 00f2 00       		.byte	0
 1525 00f3 00       		.byte	0
 1526 00f4 15       		.uleb128 0x15
 1527 00f5 0D       		.uleb128 0xd
 1528 00f6 00       		.byte	0
 1529 00f7 03       		.uleb128 0x3
 1530 00f8 0E       		.uleb128 0xe
 1531 00f9 3A       		.uleb128 0x3a
 1532 00fa 0B       		.uleb128 0xb
 1533 00fb 3B       		.uleb128 0x3b
 1534 00fc 05       		.uleb128 0x5
ARM GAS  C:\Users\jo\AppData\Local\Temp\ccsCL547.s 			page 28


 1535 00fd 49       		.uleb128 0x49
 1536 00fe 13       		.uleb128 0x13
 1537 00ff 00       		.byte	0
 1538 0100 00       		.byte	0
 1539 0101 16       		.uleb128 0x16
 1540 0102 01       		.uleb128 0x1
 1541 0103 01       		.byte	0x1
 1542 0104 49       		.uleb128 0x49
 1543 0105 13       		.uleb128 0x13
 1544 0106 01       		.uleb128 0x1
 1545 0107 13       		.uleb128 0x13
 1546 0108 00       		.byte	0
 1547 0109 00       		.byte	0
 1548 010a 17       		.uleb128 0x17
 1549 010b 21       		.uleb128 0x21
 1550 010c 00       		.byte	0
 1551 010d 49       		.uleb128 0x49
 1552 010e 13       		.uleb128 0x13
 1553 010f 2F       		.uleb128 0x2f
 1554 0110 0B       		.uleb128 0xb
 1555 0111 00       		.byte	0
 1556 0112 00       		.byte	0
 1557 0113 18       		.uleb128 0x18
 1558 0114 15       		.uleb128 0x15
 1559 0115 01       		.byte	0x1
 1560 0116 27       		.uleb128 0x27
 1561 0117 19       		.uleb128 0x19
 1562 0118 49       		.uleb128 0x49
 1563 0119 13       		.uleb128 0x13
 1564 011a 01       		.uleb128 0x1
 1565 011b 13       		.uleb128 0x13
 1566 011c 00       		.byte	0
 1567 011d 00       		.byte	0
 1568 011e 19       		.uleb128 0x19
 1569 011f 2E       		.uleb128 0x2e
 1570 0120 01       		.byte	0x1
 1571 0121 03       		.uleb128 0x3
 1572 0122 08       		.uleb128 0x8
 1573 0123 3A       		.uleb128 0x3a
 1574 0124 0B       		.uleb128 0xb
 1575 0125 3B       		.uleb128 0x3b
 1576 0126 0B       		.uleb128 0xb
 1577 0127 27       		.uleb128 0x27
 1578 0128 19       		.uleb128 0x19
 1579 0129 49       		.uleb128 0x49
 1580 012a 13       		.uleb128 0x13
 1581 012b 20       		.uleb128 0x20
 1582 012c 0B       		.uleb128 0xb
 1583 012d 01       		.uleb128 0x1
 1584 012e 13       		.uleb128 0x13
 1585 012f 00       		.byte	0
 1586 0130 00       		.byte	0
 1587 0131 1A       		.uleb128 0x1a
 1588 0132 05       		.uleb128 0x5
 1589 0133 00       		.byte	0
 1590 0134 03       		.uleb128 0x3
 1591 0135 08       		.uleb128 0x8
ARM GAS  C:\Users\jo\AppData\Local\Temp\ccsCL547.s 			page 29


 1592 0136 3A       		.uleb128 0x3a
 1593 0137 0B       		.uleb128 0xb
 1594 0138 3B       		.uleb128 0x3b
 1595 0139 0B       		.uleb128 0xb
 1596 013a 49       		.uleb128 0x49
 1597 013b 13       		.uleb128 0x13
 1598 013c 00       		.byte	0
 1599 013d 00       		.byte	0
 1600 013e 1B       		.uleb128 0x1b
 1601 013f 2E       		.uleb128 0x2e
 1602 0140 01       		.byte	0x1
 1603 0141 03       		.uleb128 0x3
 1604 0142 08       		.uleb128 0x8
 1605 0143 3A       		.uleb128 0x3a
 1606 0144 0B       		.uleb128 0xb
 1607 0145 3B       		.uleb128 0x3b
 1608 0146 0B       		.uleb128 0xb
 1609 0147 27       		.uleb128 0x27
 1610 0148 19       		.uleb128 0x19
 1611 0149 49       		.uleb128 0x49
 1612 014a 13       		.uleb128 0x13
 1613 014b 11       		.uleb128 0x11
 1614 014c 01       		.uleb128 0x1
 1615 014d 12       		.uleb128 0x12
 1616 014e 06       		.uleb128 0x6
 1617 014f 40       		.uleb128 0x40
 1618 0150 18       		.uleb128 0x18
 1619 0151 9742     		.uleb128 0x2117
 1620 0153 19       		.uleb128 0x19
 1621 0154 01       		.uleb128 0x1
 1622 0155 13       		.uleb128 0x13
 1623 0156 00       		.byte	0
 1624 0157 00       		.byte	0
 1625 0158 1C       		.uleb128 0x1c
 1626 0159 05       		.uleb128 0x5
 1627 015a 00       		.byte	0
 1628 015b 03       		.uleb128 0x3
 1629 015c 08       		.uleb128 0x8
 1630 015d 3A       		.uleb128 0x3a
 1631 015e 0B       		.uleb128 0xb
 1632 015f 3B       		.uleb128 0x3b
 1633 0160 0B       		.uleb128 0xb
 1634 0161 49       		.uleb128 0x49
 1635 0162 13       		.uleb128 0x13
 1636 0163 02       		.uleb128 0x2
 1637 0164 17       		.uleb128 0x17
 1638 0165 00       		.byte	0
 1639 0166 00       		.byte	0
 1640 0167 1D       		.uleb128 0x1d
 1641 0168 2E       		.uleb128 0x2e
 1642 0169 01       		.byte	0x1
 1643 016a 03       		.uleb128 0x3
 1644 016b 0E       		.uleb128 0xe
 1645 016c 3A       		.uleb128 0x3a
 1646 016d 0B       		.uleb128 0xb
 1647 016e 3B       		.uleb128 0x3b
 1648 016f 0B       		.uleb128 0xb
ARM GAS  C:\Users\jo\AppData\Local\Temp\ccsCL547.s 			page 30


 1649 0170 27       		.uleb128 0x27
 1650 0171 19       		.uleb128 0x19
 1651 0172 49       		.uleb128 0x49
 1652 0173 13       		.uleb128 0x13
 1653 0174 11       		.uleb128 0x11
 1654 0175 01       		.uleb128 0x1
 1655 0176 12       		.uleb128 0x12
 1656 0177 06       		.uleb128 0x6
 1657 0178 40       		.uleb128 0x40
 1658 0179 18       		.uleb128 0x18
 1659 017a 9742     		.uleb128 0x2117
 1660 017c 19       		.uleb128 0x19
 1661 017d 01       		.uleb128 0x1
 1662 017e 13       		.uleb128 0x13
 1663 017f 00       		.byte	0
 1664 0180 00       		.byte	0
 1665 0181 1E       		.uleb128 0x1e
 1666 0182 05       		.uleb128 0x5
 1667 0183 00       		.byte	0
 1668 0184 03       		.uleb128 0x3
 1669 0185 08       		.uleb128 0x8
 1670 0186 3A       		.uleb128 0x3a
 1671 0187 0B       		.uleb128 0xb
 1672 0188 3B       		.uleb128 0x3b
 1673 0189 0B       		.uleb128 0xb
 1674 018a 49       		.uleb128 0x49
 1675 018b 13       		.uleb128 0x13
 1676 018c 02       		.uleb128 0x2
 1677 018d 18       		.uleb128 0x18
 1678 018e 00       		.byte	0
 1679 018f 00       		.byte	0
 1680 0190 1F       		.uleb128 0x1f
 1681 0191 2E       		.uleb128 0x2e
 1682 0192 01       		.byte	0x1
 1683 0193 31       		.uleb128 0x31
 1684 0194 13       		.uleb128 0x13
 1685 0195 11       		.uleb128 0x11
 1686 0196 01       		.uleb128 0x1
 1687 0197 12       		.uleb128 0x12
 1688 0198 06       		.uleb128 0x6
 1689 0199 40       		.uleb128 0x40
 1690 019a 18       		.uleb128 0x18
 1691 019b 9742     		.uleb128 0x2117
 1692 019d 19       		.uleb128 0x19
 1693 019e 01       		.uleb128 0x1
 1694 019f 13       		.uleb128 0x13
 1695 01a0 00       		.byte	0
 1696 01a1 00       		.byte	0
 1697 01a2 20       		.uleb128 0x20
 1698 01a3 05       		.uleb128 0x5
 1699 01a4 00       		.byte	0
 1700 01a5 31       		.uleb128 0x31
 1701 01a6 13       		.uleb128 0x13
 1702 01a7 02       		.uleb128 0x2
 1703 01a8 17       		.uleb128 0x17
 1704 01a9 00       		.byte	0
 1705 01aa 00       		.byte	0
ARM GAS  C:\Users\jo\AppData\Local\Temp\ccsCL547.s 			page 31


 1706 01ab 21       		.uleb128 0x21
 1707 01ac 898201   		.uleb128 0x4109
 1708 01af 00       		.byte	0
 1709 01b0 11       		.uleb128 0x11
 1710 01b1 01       		.uleb128 0x1
 1711 01b2 31       		.uleb128 0x31
 1712 01b3 13       		.uleb128 0x13
 1713 01b4 00       		.byte	0
 1714 01b5 00       		.byte	0
 1715 01b6 22       		.uleb128 0x22
 1716 01b7 34       		.uleb128 0x34
 1717 01b8 00       		.byte	0
 1718 01b9 03       		.uleb128 0x3
 1719 01ba 08       		.uleb128 0x8
 1720 01bb 3A       		.uleb128 0x3a
 1721 01bc 0B       		.uleb128 0xb
 1722 01bd 3B       		.uleb128 0x3b
 1723 01be 0B       		.uleb128 0xb
 1724 01bf 49       		.uleb128 0x49
 1725 01c0 13       		.uleb128 0x13
 1726 01c1 02       		.uleb128 0x2
 1727 01c2 17       		.uleb128 0x17
 1728 01c3 00       		.byte	0
 1729 01c4 00       		.byte	0
 1730 01c5 23       		.uleb128 0x23
 1731 01c6 1D       		.uleb128 0x1d
 1732 01c7 01       		.byte	0x1
 1733 01c8 31       		.uleb128 0x31
 1734 01c9 13       		.uleb128 0x13
 1735 01ca 11       		.uleb128 0x11
 1736 01cb 01       		.uleb128 0x1
 1737 01cc 12       		.uleb128 0x12
 1738 01cd 06       		.uleb128 0x6
 1739 01ce 58       		.uleb128 0x58
 1740 01cf 0B       		.uleb128 0xb
 1741 01d0 59       		.uleb128 0x59
 1742 01d1 0B       		.uleb128 0xb
 1743 01d2 00       		.byte	0
 1744 01d3 00       		.byte	0
 1745 01d4 24       		.uleb128 0x24
 1746 01d5 2E       		.uleb128 0x2e
 1747 01d6 01       		.byte	0x1
 1748 01d7 3F       		.uleb128 0x3f
 1749 01d8 19       		.uleb128 0x19
 1750 01d9 03       		.uleb128 0x3
 1751 01da 0E       		.uleb128 0xe
 1752 01db 3A       		.uleb128 0x3a
 1753 01dc 0B       		.uleb128 0xb
 1754 01dd 3B       		.uleb128 0x3b
 1755 01de 0B       		.uleb128 0xb
 1756 01df 27       		.uleb128 0x27
 1757 01e0 19       		.uleb128 0x19
 1758 01e1 11       		.uleb128 0x11
 1759 01e2 01       		.uleb128 0x1
 1760 01e3 12       		.uleb128 0x12
 1761 01e4 06       		.uleb128 0x6
 1762 01e5 40       		.uleb128 0x40
ARM GAS  C:\Users\jo\AppData\Local\Temp\ccsCL547.s 			page 32


 1763 01e6 18       		.uleb128 0x18
 1764 01e7 9742     		.uleb128 0x2117
 1765 01e9 19       		.uleb128 0x19
 1766 01ea 01       		.uleb128 0x1
 1767 01eb 13       		.uleb128 0x13
 1768 01ec 00       		.byte	0
 1769 01ed 00       		.byte	0
 1770 01ee 25       		.uleb128 0x25
 1771 01ef 05       		.uleb128 0x5
 1772 01f0 00       		.byte	0
 1773 01f1 03       		.uleb128 0x3
 1774 01f2 0E       		.uleb128 0xe
 1775 01f3 3A       		.uleb128 0x3a
 1776 01f4 0B       		.uleb128 0xb
 1777 01f5 3B       		.uleb128 0x3b
 1778 01f6 0B       		.uleb128 0xb
 1779 01f7 49       		.uleb128 0x49
 1780 01f8 13       		.uleb128 0x13
 1781 01f9 02       		.uleb128 0x2
 1782 01fa 18       		.uleb128 0x18
 1783 01fb 00       		.byte	0
 1784 01fc 00       		.byte	0
 1785 01fd 26       		.uleb128 0x26
 1786 01fe 34       		.uleb128 0x34
 1787 01ff 00       		.byte	0
 1788 0200 03       		.uleb128 0x3
 1789 0201 08       		.uleb128 0x8
 1790 0202 3A       		.uleb128 0x3a
 1791 0203 0B       		.uleb128 0xb
 1792 0204 3B       		.uleb128 0x3b
 1793 0205 0B       		.uleb128 0xb
 1794 0206 49       		.uleb128 0x49
 1795 0207 13       		.uleb128 0x13
 1796 0208 02       		.uleb128 0x2
 1797 0209 18       		.uleb128 0x18
 1798 020a 00       		.byte	0
 1799 020b 00       		.byte	0
 1800 020c 27       		.uleb128 0x27
 1801 020d 34       		.uleb128 0x34
 1802 020e 00       		.byte	0
 1803 020f 03       		.uleb128 0x3
 1804 0210 0E       		.uleb128 0xe
 1805 0211 3A       		.uleb128 0x3a
 1806 0212 0B       		.uleb128 0xb
 1807 0213 3B       		.uleb128 0x3b
 1808 0214 05       		.uleb128 0x5
 1809 0215 49       		.uleb128 0x49
 1810 0216 13       		.uleb128 0x13
 1811 0217 3F       		.uleb128 0x3f
 1812 0218 19       		.uleb128 0x19
 1813 0219 3C       		.uleb128 0x3c
 1814 021a 19       		.uleb128 0x19
 1815 021b 00       		.byte	0
 1816 021c 00       		.byte	0
 1817 021d 28       		.uleb128 0x28
 1818 021e 34       		.uleb128 0x34
 1819 021f 00       		.byte	0
ARM GAS  C:\Users\jo\AppData\Local\Temp\ccsCL547.s 			page 33


 1820 0220 03       		.uleb128 0x3
 1821 0221 08       		.uleb128 0x8
 1822 0222 3A       		.uleb128 0x3a
 1823 0223 0B       		.uleb128 0xb
 1824 0224 3B       		.uleb128 0x3b
 1825 0225 05       		.uleb128 0x5
 1826 0226 49       		.uleb128 0x49
 1827 0227 13       		.uleb128 0x13
 1828 0228 3F       		.uleb128 0x3f
 1829 0229 19       		.uleb128 0x19
 1830 022a 3C       		.uleb128 0x3c
 1831 022b 19       		.uleb128 0x19
 1832 022c 00       		.byte	0
 1833 022d 00       		.byte	0
 1834 022e 29       		.uleb128 0x29
 1835 022f 2E       		.uleb128 0x2e
 1836 0230 01       		.byte	0x1
 1837 0231 3F       		.uleb128 0x3f
 1838 0232 19       		.uleb128 0x19
 1839 0233 03       		.uleb128 0x3
 1840 0234 0E       		.uleb128 0xe
 1841 0235 3A       		.uleb128 0x3a
 1842 0236 0B       		.uleb128 0xb
 1843 0237 3B       		.uleb128 0x3b
 1844 0238 0B       		.uleb128 0xb
 1845 0239 27       		.uleb128 0x27
 1846 023a 19       		.uleb128 0x19
 1847 023b 3C       		.uleb128 0x3c
 1848 023c 19       		.uleb128 0x19
 1849 023d 00       		.byte	0
 1850 023e 00       		.byte	0
 1851 023f 00       		.byte	0
 1852              		.section	.debug_loc,"",%progbits
 1853              	.Ldebug_loc0:
 1854              	.LLST0:
 1855 0000 00000000 		.4byte	.LVL0
 1856 0004 02000000 		.4byte	.LVL1
 1857 0008 0100     		.2byte	0x1
 1858 000a 50       		.byte	0x50
 1859 000b 02000000 		.4byte	.LVL1
 1860 000f 04000000 		.4byte	.LFE256
 1861 0013 0400     		.2byte	0x4
 1862 0015 F3       		.byte	0xf3
 1863 0016 01       		.uleb128 0x1
 1864 0017 50       		.byte	0x50
 1865 0018 9F       		.byte	0x9f
 1866 0019 00000000 		.4byte	0
 1867 001d 00000000 		.4byte	0
 1868              	.LLST1:
 1869 0021 00000000 		.4byte	.LVL2
 1870 0025 02000000 		.4byte	.LVL3
 1871 0029 0100     		.2byte	0x1
 1872 002b 50       		.byte	0x50
 1873 002c 02000000 		.4byte	.LVL3
 1874 0030 04000000 		.4byte	.LFE258
 1875 0034 0400     		.2byte	0x4
 1876 0036 F3       		.byte	0xf3
ARM GAS  C:\Users\jo\AppData\Local\Temp\ccsCL547.s 			page 34


 1877 0037 01       		.uleb128 0x1
 1878 0038 50       		.byte	0x50
 1879 0039 9F       		.byte	0x9f
 1880 003a 00000000 		.4byte	0
 1881 003e 00000000 		.4byte	0
 1882              	.LLST2:
 1883 0042 00000000 		.4byte	.LVL4
 1884 0046 04000000 		.4byte	.LVL5
 1885 004a 0100     		.2byte	0x1
 1886 004c 50       		.byte	0x50
 1887 004d 04000000 		.4byte	.LVL5
 1888 0051 0C000000 		.4byte	.LFE255
 1889 0055 0400     		.2byte	0x4
 1890 0057 F3       		.byte	0xf3
 1891 0058 01       		.uleb128 0x1
 1892 0059 50       		.byte	0x50
 1893 005a 9F       		.byte	0x9f
 1894 005b 00000000 		.4byte	0
 1895 005f 00000000 		.4byte	0
 1896              	.LLST3:
 1897 0063 00000000 		.4byte	.LVL4
 1898 0067 07000000 		.4byte	.LVL6-1
 1899 006b 0100     		.2byte	0x1
 1900 006d 51       		.byte	0x51
 1901 006e 07000000 		.4byte	.LVL6-1
 1902 0072 0C000000 		.4byte	.LFE255
 1903 0076 0400     		.2byte	0x4
 1904 0078 F3       		.byte	0xf3
 1905 0079 01       		.uleb128 0x1
 1906 007a 51       		.byte	0x51
 1907 007b 9F       		.byte	0x9f
 1908 007c 00000000 		.4byte	0
 1909 0080 00000000 		.4byte	0
 1910              	.LLST4:
 1911 0084 00000000 		.4byte	.LVL7
 1912 0088 0A000000 		.4byte	.LVL9
 1913 008c 0100     		.2byte	0x1
 1914 008e 50       		.byte	0x50
 1915 008f 0A000000 		.4byte	.LVL9
 1916 0093 1A000000 		.4byte	.LFE257
 1917 0097 0400     		.2byte	0x4
 1918 0099 F3       		.byte	0xf3
 1919 009a 01       		.uleb128 0x1
 1920 009b 50       		.byte	0x50
 1921 009c 9F       		.byte	0x9f
 1922 009d 00000000 		.4byte	0
 1923 00a1 00000000 		.4byte	0
 1924              	.LLST5:
 1925 00a5 00000000 		.4byte	.LVL7
 1926 00a9 00000000 		.4byte	.LVL7
 1927 00ad 0100     		.2byte	0x1
 1928 00af 51       		.byte	0x51
 1929 00b0 00000000 		.4byte	.LVL7
 1930 00b4 08000000 		.4byte	.LVL8
 1931 00b8 0100     		.2byte	0x1
 1932 00ba 55       		.byte	0x55
 1933 00bb 0A000000 		.4byte	.LVL9
ARM GAS  C:\Users\jo\AppData\Local\Temp\ccsCL547.s 			page 35


 1934 00bf 0E000000 		.4byte	.LVL10
 1935 00c3 0100     		.2byte	0x1
 1936 00c5 55       		.byte	0x55
 1937 00c6 0E000000 		.4byte	.LVL10
 1938 00ca 12000000 		.4byte	.LVL11
 1939 00ce 0300     		.2byte	0x3
 1940 00d0 75       		.byte	0x75
 1941 00d1 7F       		.sleb128 -1
 1942 00d2 9F       		.byte	0x9f
 1943 00d3 12000000 		.4byte	.LVL11
 1944 00d7 16000000 		.4byte	.LVL13
 1945 00db 0100     		.2byte	0x1
 1946 00dd 55       		.byte	0x55
 1947 00de 00000000 		.4byte	0
 1948 00e2 00000000 		.4byte	0
 1949              	.LLST6:
 1950 00e6 00000000 		.4byte	.LVL7
 1951 00ea 0A000000 		.4byte	.LVL9
 1952 00ee 0100     		.2byte	0x1
 1953 00f0 52       		.byte	0x52
 1954 00f1 0A000000 		.4byte	.LVL9
 1955 00f5 1A000000 		.4byte	.LFE257
 1956 00f9 0100     		.2byte	0x1
 1957 00fb 56       		.byte	0x56
 1958 00fc 00000000 		.4byte	0
 1959 0100 00000000 		.4byte	0
 1960              	.LLST7:
 1961 0104 00000000 		.4byte	.LVL7
 1962 0108 0A000000 		.4byte	.LVL9
 1963 010c 0100     		.2byte	0x1
 1964 010e 52       		.byte	0x52
 1965 010f 0A000000 		.4byte	.LVL9
 1966 0113 12000000 		.4byte	.LVL11
 1967 0117 0100     		.2byte	0x1
 1968 0119 54       		.byte	0x54
 1969 011a 12000000 		.4byte	.LVL11
 1970 011e 14000000 		.4byte	.LVL12
 1971 0122 0300     		.2byte	0x3
 1972 0124 74       		.byte	0x74
 1973 0125 7F       		.sleb128 -1
 1974 0126 9F       		.byte	0x9f
 1975 0127 14000000 		.4byte	.LVL12
 1976 012b 16000000 		.4byte	.LVL13
 1977 012f 0100     		.2byte	0x1
 1978 0131 54       		.byte	0x54
 1979 0132 00000000 		.4byte	0
 1980 0136 00000000 		.4byte	0
 1981              	.LLST8:
 1982 013a 0A000000 		.4byte	.LVL9
 1983 013e 0E000000 		.4byte	.LVL10
 1984 0142 0200     		.2byte	0x2
 1985 0144 75       		.byte	0x75
 1986 0145 00       		.sleb128 0
 1987 0146 0E000000 		.4byte	.LVL10
 1988 014a 11000000 		.4byte	.LVL11-1
 1989 014e 0200     		.2byte	0x2
 1990 0150 75       		.byte	0x75
ARM GAS  C:\Users\jo\AppData\Local\Temp\ccsCL547.s 			page 36


 1991 0151 7F       		.sleb128 -1
 1992 0152 00000000 		.4byte	0
 1993 0156 00000000 		.4byte	0
 1994              	.LLST9:
 1995 015a 0A000000 		.4byte	.LVL9
 1996 015e 16000000 		.4byte	.LVL13
 1997 0162 0400     		.2byte	0x4
 1998 0164 F3       		.byte	0xf3
 1999 0165 01       		.uleb128 0x1
 2000 0166 50       		.byte	0x50
 2001 0167 9F       		.byte	0x9f
 2002 0168 00000000 		.4byte	0
 2003 016c 00000000 		.4byte	0
 2004              		.section	.debug_aranges,"",%progbits
 2005 0000 3C000000 		.4byte	0x3c
 2006 0004 0200     		.2byte	0x2
 2007 0006 00000000 		.4byte	.Ldebug_info0
 2008 000a 04       		.byte	0x4
 2009 000b 00       		.byte	0
 2010 000c 0000     		.2byte	0
 2011 000e 0000     		.2byte	0
 2012 0010 00000000 		.4byte	.LFB256
 2013 0014 04000000 		.4byte	.LFE256-.LFB256
 2014 0018 00000000 		.4byte	.LFB258
 2015 001c 04000000 		.4byte	.LFE258-.LFB258
 2016 0020 00000000 		.4byte	.LFB255
 2017 0024 0C000000 		.4byte	.LFE255-.LFB255
 2018 0028 00000000 		.4byte	.LFB257
 2019 002c 1A000000 		.4byte	.LFE257-.LFB257
 2020 0030 00000000 		.4byte	.LFB259
 2021 0034 0C000000 		.4byte	.LFE259-.LFB259
 2022 0038 00000000 		.4byte	0
 2023 003c 00000000 		.4byte	0
 2024              		.section	.debug_ranges,"",%progbits
 2025              	.Ldebug_ranges0:
 2026 0000 00000000 		.4byte	.LFB256
 2027 0004 04000000 		.4byte	.LFE256
 2028 0008 00000000 		.4byte	.LFB258
 2029 000c 04000000 		.4byte	.LFE258
 2030 0010 00000000 		.4byte	.LFB255
 2031 0014 0C000000 		.4byte	.LFE255
 2032 0018 00000000 		.4byte	.LFB257
 2033 001c 1A000000 		.4byte	.LFE257
 2034 0020 00000000 		.4byte	.LFB259
 2035 0024 0C000000 		.4byte	.LFE259
 2036 0028 00000000 		.4byte	0
 2037 002c 00000000 		.4byte	0
 2038              		.section	.debug_line,"",%progbits
 2039              	.Ldebug_line0:
 2040 0000 91020000 		.section	.debug_str,"MS",%progbits,1
 2040      02003102 
 2040      00000201 
 2040      FB0E0D00 
 2040      01010101 
 2041              	.LASF21:
 2042 0000 74726566 		.ascii	"trefs_t\000"
 2042      735F7400 
ARM GAS  C:\Users\jo\AppData\Local\Temp\ccsCL547.s 			page 37


 2043              	.LASF49:
 2044 0008 72656164 		.ascii	"ready_list_t\000"
 2044      795F6C69 
 2044      73745F74 
 2044      00
 2045              	.LASF2:
 2046 0015 73697A65 		.ascii	"size_t\000"
 2046      5F7400
 2047              	.LASF85:
 2048 001c 7264796D 		.ascii	"rdymsg\000"
 2048      736700
 2049              	.LASF17:
 2050 0023 75696E74 		.ascii	"uint64_t\000"
 2050      36345F74 
 2050      00
 2051              	.LASF107:
 2052 002c 44656275 		.ascii	"Debug_ITMDebugOutputChar\000"
 2052      675F4954 
 2052      4D446562 
 2052      75674F75 
 2052      74707574 
 2053              	.LASF3:
 2054 0045 5F5F7569 		.ascii	"__uint8_t\000"
 2054      6E74385F 
 2054      7400
 2055              	.LASF81:
 2056 004f 706F7274 		.ascii	"port_intctx\000"
 2056      5F696E74 
 2056      63747800 
 2057              	.LASF68:
 2058 005b 73797374 		.ascii	"system_debug_t\000"
 2058      656D5F64 
 2058      65627567 
 2058      5F7400
 2059              	.LASF13:
 2060 006a 6C6F6E67 		.ascii	"long long unsigned int\000"
 2060      206C6F6E 
 2060      6720756E 
 2060      7369676E 
 2060      65642069 
 2061              	.LASF86:
 2062 0081 65786974 		.ascii	"exitcode\000"
 2062      636F6465 
 2062      00
 2063              	.LASF75:
 2064 008a 6D61696E 		.ascii	"mainthread\000"
 2064      74687265 
 2064      616400
 2065              	.LASF65:
 2066 0095 76697274 		.ascii	"virtual_timers_list_t\000"
 2066      75616C5F 
 2066      74696D65 
 2066      72735F6C 
 2066      6973745F 
 2067              	.LASF102:
 2068 00ab 49544D5F 		.ascii	"ITM_RxBuffer\000"
 2068      52784275 
ARM GAS  C:\Users\jo\AppData\Local\Temp\ccsCL547.s 			page 38


 2068      66666572 
 2068      00
 2069              	.LASF48:
 2070 00b8 63685F74 		.ascii	"ch_threads_queue\000"
 2070      68726561 
 2070      64735F71 
 2070      75657565 
 2070      00
 2071              	.LASF29:
 2072 00c9 705F7072 		.ascii	"p_prio\000"
 2072      696F00
 2073              	.LASF99:
 2074 00d0 72656164 		.ascii	"reads\000"
 2074      7300
 2075              	.LASF11:
 2076 00d6 6C6F6E67 		.ascii	"long long int\000"
 2076      206C6F6E 
 2076      6720696E 
 2076      7400
 2077              	.LASF1:
 2078 00e4 7369676E 		.ascii	"signed char\000"
 2078      65642063 
 2078      68617200 
 2079              	.LASF43:
 2080 00f0 705F6D70 		.ascii	"p_mpool\000"
 2080      6F6F6C00 
 2081              	.LASF90:
 2082 00f8 6D5F7175 		.ascii	"m_queue\000"
 2082      65756500 
 2083              	.LASF74:
 2084 0100 76746C69 		.ascii	"vtlist\000"
 2084      737400
 2085              	.LASF72:
 2086 0107 63685F73 		.ascii	"ch_system\000"
 2086      79737465 
 2086      6D00
 2087              	.LASF8:
 2088 0111 6C6F6E67 		.ascii	"long int\000"
 2088      20696E74 
 2088      00
 2089              	.LASF20:
 2090 011a 74737461 		.ascii	"tstate_t\000"
 2090      74655F74 
 2090      00
 2091              	.LASF31:
 2092 0123 705F6E65 		.ascii	"p_newer\000"
 2092      77657200 
 2093              	.LASF54:
 2094 012b 725F6E65 		.ascii	"r_newer\000"
 2094      77657200 
 2095              	.LASF78:
 2096 0133 72656761 		.ascii	"regarm_t\000"
 2096      726D5F74 
 2096      00
 2097              	.LASF61:
 2098 013c 76745F70 		.ascii	"vt_prev\000"
 2098      72657600 
ARM GAS  C:\Users\jo\AppData\Local\Temp\ccsCL547.s 			page 39


 2099              	.LASF93:
 2100 0144 6D757465 		.ascii	"mutex_t\000"
 2100      785F7400 
 2101              	.LASF76:
 2102 014c 69646C65 		.ascii	"idle_thread_wa\000"
 2102      5F746872 
 2102      6561645F 
 2102      776100
 2103              	.LASF0:
 2104 015b 756E7369 		.ascii	"unsigned int\000"
 2104      676E6564 
 2104      20696E74 
 2104      00
 2105              	.LASF60:
 2106 0168 76745F6E 		.ascii	"vt_next\000"
 2106      65787400 
 2107              	.LASF62:
 2108 0170 76745F64 		.ascii	"vt_delta\000"
 2108      656C7461 
 2108      00
 2109              	.LASF38:
 2110 0179 705F6D73 		.ascii	"p_msgqueue\000"
 2110      67717565 
 2110      756500
 2111              	.LASF6:
 2112 0184 73686F72 		.ascii	"short unsigned int\000"
 2112      7420756E 
 2112      7369676E 
 2112      65642069 
 2112      6E7400
 2113              	.LASF45:
 2114 0197 63685F74 		.ascii	"ch_thread\000"
 2114      68726561 
 2114      6400
 2115              	.LASF23:
 2116 01a1 6D73675F 		.ascii	"msg_t\000"
 2116      7400
 2117              	.LASF71:
 2118 01a7 63685F73 		.ascii	"ch_system_t\000"
 2118      79737465 
 2118      6D5F7400 
 2119              	.LASF100:
 2120 01b3 77726974 		.ascii	"writes\000"
 2120      657300
 2121              	.LASF19:
 2122 01ba 746D6F64 		.ascii	"tmode_t\000"
 2122      655F7400 
 2123              	.LASF50:
 2124 01c2 63685F72 		.ascii	"ch_ready_list\000"
 2124      65616479 
 2124      5F6C6973 
 2124      7400
 2125              	.LASF24:
 2126 01d0 6576656E 		.ascii	"eventmask_t\000"
 2126      746D6173 
 2126      6B5F7400 
 2127              	.LASF7:
ARM GAS  C:\Users\jo\AppData\Local\Temp\ccsCL547.s 			page 40


 2128 01dc 5F5F696E 		.ascii	"__int32_t\000"
 2128      7433325F 
 2128      7400
 2129              	.LASF79:
 2130 01e6 73746B61 		.ascii	"stkalign_t\000"
 2130      6C69676E 
 2130      5F7400
 2131              	.LASF96:
 2132 01f1 77726974 		.ascii	"write\000"
 2132      6500
 2133              	.LASF37:
 2134 01f7 705F7761 		.ascii	"p_waiting\000"
 2134      6974696E 
 2134      6700
 2135              	.LASF77:
 2136 0201 73697A65 		.ascii	"sizetype\000"
 2136      74797065 
 2136      00
 2137              	.LASF66:
 2138 020a 63685F76 		.ascii	"ch_virtual_timers_list\000"
 2138      69727475 
 2138      616C5F74 
 2138      696D6572 
 2138      735F6C69 
 2139              	.LASF67:
 2140 0221 76745F6C 		.ascii	"vt_lasttime\000"
 2140      61737474 
 2140      696D6500 
 2141              	.LASF32:
 2142 022d 705F6F6C 		.ascii	"p_older\000"
 2142      64657200 
 2143              	.LASF53:
 2144 0235 725F6374 		.ascii	"r_ctx\000"
 2144      7800
 2145              	.LASF84:
 2146 023b 746D5F63 		.ascii	"tm_calibration_t\000"
 2146      616C6962 
 2146      72617469 
 2146      6F6E5F74 
 2146      00
 2147              	.LASF56:
 2148 024c 725F6375 		.ascii	"r_current\000"
 2148      7272656E 
 2148      7400
 2149              	.LASF55:
 2150 0256 725F6F6C 		.ascii	"r_older\000"
 2150      64657200 
 2151              	.LASF12:
 2152 025e 5F5F7569 		.ascii	"__uint64_t\000"
 2152      6E743634 
 2152      5F7400
 2153              	.LASF98:
 2154 0269 49544D53 		.ascii	"ITMStream\000"
 2154      74726561 
 2154      6D00
 2155              	.LASF58:
 2156 0273 76697274 		.ascii	"virtual_timer_t\000"
ARM GAS  C:\Users\jo\AppData\Local\Temp\ccsCL547.s 			page 41


 2156      75616C5F 
 2156      74696D65 
 2156      725F7400 
 2157              	.LASF28:
 2158 0283 705F7072 		.ascii	"p_prev\000"
 2158      657600
 2159              	.LASF22:
 2160 028a 74707269 		.ascii	"tprio_t\000"
 2160      6F5F7400 
 2161              	.LASF89:
 2162 0292 6D757465 		.ascii	"mutex\000"
 2162      7800
 2163              	.LASF69:
 2164 0298 63685F73 		.ascii	"ch_system_debug\000"
 2164      79737465 
 2164      6D5F6465 
 2164      62756700 
 2165              	.LASF94:
 2166 02a8 5F426F6F 		.ascii	"_Bool\000"
 2166      6C00
 2167              	.LASF15:
 2168 02ae 696E7433 		.ascii	"int32_t\000"
 2168      325F7400 
 2169              	.LASF4:
 2170 02b6 756E7369 		.ascii	"unsigned char\000"
 2170      676E6564 
 2170      20636861 
 2170      7200
 2171              	.LASF34:
 2172 02c4 705F7374 		.ascii	"p_state\000"
 2172      61746500 
 2173              	.LASF41:
 2174 02cc 705F6D74 		.ascii	"p_mtxlist\000"
 2174      786C6973 
 2174      7400
 2175              	.LASF5:
 2176 02d6 73686F72 		.ascii	"short int\000"
 2176      7420696E 
 2176      7400
 2177              	.LASF52:
 2178 02e0 725F7072 		.ascii	"r_prio\000"
 2178      696F00
 2179              	.LASF88:
 2180 02e7 65776D61 		.ascii	"ewmask\000"
 2180      736B00
 2181              	.LASF27:
 2182 02ee 705F6E65 		.ascii	"p_next\000"
 2182      787400
 2183              	.LASF103:
 2184 02f5 474E5520 		.ascii	"GNU C 4.9.3 20141119 (release) [ARM/embedded-4_9-br"
 2184      4320342E 
 2184      392E3320 
 2184      32303134 
 2184      31313139 
 2185 0328 616E6368 		.ascii	"anch revision 218278] -mcpu=cortex-m4 -mfloat-abi=h"
 2185      20726576 
 2185      6973696F 
ARM GAS  C:\Users\jo\AppData\Local\Temp\ccsCL547.s 			page 42


 2185      6E203231 
 2185      38323738 
 2186 035b 61726420 		.ascii	"ard -mfpu=fpv4-sp-d16 -mno-thumb-interwork -mthumb "
 2186      2D6D6670 
 2186      753D6670 
 2186      76342D73 
 2186      702D6431 
 2187 038e 2D676764 		.ascii	"-ggdb -O2 -fomit-frame-pointer -falign-functions=16"
 2187      62202D4F 
 2187      32202D66 
 2187      6F6D6974 
 2187      2D667261 
 2188 03c1 202D6666 		.ascii	" -ffunction-sections -fdata-sections -fno-common -f"
 2188      756E6374 
 2188      696F6E2D 
 2188      73656374 
 2188      696F6E73 
 2189 03f4 73696E67 		.ascii	"single-precision-constant\000"
 2189      6C652D70 
 2189      72656369 
 2189      73696F6E 
 2189      2D636F6E 
 2190              	.LASF35:
 2191 040e 705F666C 		.ascii	"p_flags\000"
 2191      61677300 
 2192              	.LASF59:
 2193 0416 63685F76 		.ascii	"ch_virtual_timer\000"
 2193      69727475 
 2193      616C5F74 
 2193      696D6572 
 2193      00
 2194              	.LASF40:
 2195 0427 705F6570 		.ascii	"p_epending\000"
 2195      656E6469 
 2195      6E6700
 2196              	.LASF16:
 2197 0432 75696E74 		.ascii	"uint32_t\000"
 2197      33325F74 
 2197      00
 2198              	.LASF51:
 2199 043b 725F7175 		.ascii	"r_queue\000"
 2199      65756500 
 2200              	.LASF46:
 2201 0443 63685F74 		.ascii	"ch_threads_list\000"
 2201      68726561 
 2201      64735F6C 
 2201      69737400 
 2202              	.LASF10:
 2203 0453 6C6F6E67 		.ascii	"long unsigned int\000"
 2203      20756E73 
 2203      69676E65 
 2203      6420696E 
 2203      7400
 2204              	.LASF97:
 2205 0465 72656164 		.ascii	"read\000"
 2205      00
 2206              	.LASF82:
ARM GAS  C:\Users\jo\AppData\Local\Temp\ccsCL547.s 			page 43


 2207 046a 63686172 		.ascii	"char\000"
 2207      00
 2208              	.LASF105:
 2209 046f 433A5C55 		.ascii	"C:\\Users\\jo\\Documents\\GitHub\\ChibiOS\\demos\\S"
 2209      73657273 
 2209      5C6A6F5C 
 2209      446F6375 
 2209      6D656E74 
 2210 049b 544D3332 		.ascii	"TM32\\RT-STM32F407-DISCOVERY\000"
 2210      5C52542D 
 2210      53544D33 
 2210      32463430 
 2210      372D4449 
 2211              	.LASF95:
 2212 04b7 49544D53 		.ascii	"ITMStreamVMT\000"
 2212      74726561 
 2212      6D564D54 
 2212      00
 2213              	.LASF26:
 2214 04c4 74687265 		.ascii	"thread_t\000"
 2214      61645F74 
 2214      00
 2215              	.LASF92:
 2216 04cd 6D5F6E65 		.ascii	"m_next\000"
 2216      787400
 2217              	.LASF25:
 2218 04d4 73797374 		.ascii	"systime_t\000"
 2218      696D655F 
 2218      7400
 2219              	.LASF42:
 2220 04de 705F7265 		.ascii	"p_realprio\000"
 2220      616C7072 
 2220      696F00
 2221              	.LASF57:
 2222 04e9 76746675 		.ascii	"vtfunc_t\000"
 2222      6E635F74 
 2222      00
 2223              	.LASF9:
 2224 04f2 5F5F7569 		.ascii	"__uint32_t\000"
 2224      6E743332 
 2224      5F7400
 2225              	.LASF106:
 2226 04fd 69746D4F 		.ascii	"itmObjectInit\000"
 2226      626A6563 
 2226      74496E69 
 2226      7400
 2227              	.LASF70:
 2228 050b 70616E69 		.ascii	"panic_msg\000"
 2228      635F6D73 
 2228      6700
 2229              	.LASF83:
 2230 0515 6F666673 		.ascii	"offset\000"
 2230      657400
 2231              	.LASF80:
 2232 051c 636F6E74 		.ascii	"context\000"
 2232      65787400 
 2233              	.LASF18:
ARM GAS  C:\Users\jo\AppData\Local\Temp\ccsCL547.s 			page 44


 2234 0524 7274636E 		.ascii	"rtcnt_t\000"
 2234      745F7400 
 2235              	.LASF64:
 2236 052c 76745F70 		.ascii	"vt_par\000"
 2236      617200
 2237              	.LASF101:
 2238 0533 7069746D 		.ascii	"pitm\000"
 2238      00
 2239              	.LASF47:
 2240 0538 74687265 		.ascii	"threads_queue_t\000"
 2240      6164735F 
 2240      71756575 
 2240      655F7400 
 2241              	.LASF33:
 2242 0548 705F6E61 		.ascii	"p_name\000"
 2242      6D6500
 2243              	.LASF36:
 2244 054f 705F7265 		.ascii	"p_refs\000"
 2244      667300
 2245              	.LASF104:
 2246 0556 49544D5F 		.ascii	"ITM_trace.c\000"
 2246      74726163 
 2246      652E6300 
 2247              	.LASF73:
 2248 0562 726C6973 		.ascii	"rlist\000"
 2248      7400
 2249              	.LASF14:
 2250 0568 75696E74 		.ascii	"uint8_t\000"
 2250      385F7400 
 2251              	.LASF87:
 2252 0570 77746F62 		.ascii	"wtobjp\000"
 2252      6A7000
 2253              	.LASF44:
 2254 0577 74687265 		.ascii	"threads_list_t\000"
 2254      6164735F 
 2254      6C697374 
 2254      5F7400
 2255              	.LASF39:
 2256 0586 705F6D73 		.ascii	"p_msg\000"
 2256      6700
 2257              	.LASF91:
 2258 058c 6D5F6F77 		.ascii	"m_owner\000"
 2258      6E657200 
 2259              	.LASF30:
 2260 0594 705F6374 		.ascii	"p_ctx\000"
 2260      7800
 2261              	.LASF63:
 2262 059a 76745F66 		.ascii	"vt_func\000"
 2262      756E6300 
 2263              		.ident	"GCC: (GNU Tools for ARM Embedded Processors) 4.9.3 20141119 (release) [ARM/embedded-4_9-br
ARM GAS  C:\Users\jo\AppData\Local\Temp\ccsCL547.s 			page 45


DEFINED SYMBOLS
                            *ABS*:00000000 ITM_trace.c
C:\Users\jo\AppData\Local\Temp\ccsCL547.s:21     .text.get:00000000 $t
C:\Users\jo\AppData\Local\Temp\ccsCL547.s:26     .text.get:00000000 get
C:\Users\jo\AppData\Local\Temp\ccsCL547.s:43     .text.reads:00000000 $t
C:\Users\jo\AppData\Local\Temp\ccsCL547.s:48     .text.reads:00000000 reads
C:\Users\jo\AppData\Local\Temp\ccsCL547.s:64     .text.put:00000000 $t
C:\Users\jo\AppData\Local\Temp\ccsCL547.s:69     .text.put:00000000 put
C:\Users\jo\AppData\Local\Temp\ccsCL547.s:92     .text.writes:00000000 $t
C:\Users\jo\AppData\Local\Temp\ccsCL547.s:97     .text.writes:00000000 writes
C:\Users\jo\AppData\Local\Temp\ccsCL547.s:140    .text.itmObjectInit:00000000 $t
C:\Users\jo\AppData\Local\Temp\ccsCL547.s:146    .text.itmObjectInit:00000000 itmObjectInit
C:\Users\jo\AppData\Local\Temp\ccsCL547.s:161    .text.itmObjectInit:00000008 $d
C:\Users\jo\AppData\Local\Temp\ccsCL547.s:166    .rodata.vmt:00000000 $d
C:\Users\jo\AppData\Local\Temp\ccsCL547.s:170    .rodata.vmt:00000000 vmt
                     .debug_frame:00000010 $d
C:\Users\jo\AppData\Local\Temp\ccsCL547.s:165    .text.itmObjectInit:0000000c $t

UNDEFINED SYMBOLS
Debug_ITMDebugOutputChar
