ARM GAS  C:\Users\jo\AppData\Local\Temp\ccMF9q4g.s 			page 1


   1              		.syntax unified
   2              		.cpu cortex-m4
   3              		.eabi_attribute 27, 3
   4              		.eabi_attribute 28, 1
   5              		.fpu fpv4-sp-d16
   6              		.eabi_attribute 20, 1
   7              		.eabi_attribute 21, 1
   8              		.eabi_attribute 23, 3
   9              		.eabi_attribute 24, 1
  10              		.eabi_attribute 25, 1
  11              		.eabi_attribute 26, 1
  12              		.eabi_attribute 30, 2
  13              		.eabi_attribute 34, 1
  14              		.eabi_attribute 18, 4
  15              		.thumb
  16              		.file	"lcfg_static.c"
  17              		.text
  18              	.Ltext0:
  19              		.cfi_sections	.debug_frame
  20              		.section	.text.chprintf.constprop.11,"ax",%progbits
  21              		.align	2
  22              		.p2align 4,,15
  23              		.thumb
  24              		.thumb_func
  25              		.type	chprintf.constprop.11, %function
  26              	chprintf.constprop.11:
  27              	.LFB318:
  28              		.file 1 "../../../os/hal/lib/streams/chprintf.h"
  29              		.loc 1 69 0
  30              		.cfi_startproc
  31              		@ args = 4, pretend = 12, frame = 8
  32              		@ frame_needed = 0, uses_anonymous_args = 1
  33              	.LVL0:
  34 0000 0EB4     		push	{r1, r2, r3}
  35              		.cfi_def_cfa_offset 12
  36              		.cfi_offset 1, -12
  37              		.cfi_offset 2, -8
  38              		.cfi_offset 3, -4
  39 0002 00B5     		push	{lr}
  40              		.cfi_def_cfa_offset 16
  41              		.cfi_offset 14, -16
  42 0004 82B0     		sub	sp, sp, #8
  43              		.cfi_def_cfa_offset 24
  44              		.loc 1 69 0
  45 0006 03AA     		add	r2, sp, #12
  46              		.loc 1 74 0
  47 0008 0548     		ldr	r0, .L3
  48              	.LVL1:
  49              		.loc 1 69 0
  50 000a 52F8041B 		ldr	r1, [r2], #4
  51              		.loc 1 73 0
  52 000e 0192     		str	r2, [sp, #4]
  53              		.loc 1 74 0
  54 0010 FFF7FEFF 		bl	chvprintf
  55              	.LVL2:
  56              		.loc 1 78 0
  57 0014 02B0     		add	sp, sp, #8
ARM GAS  C:\Users\jo\AppData\Local\Temp\ccMF9q4g.s 			page 2


  58              		.cfi_def_cfa_offset 16
  59              		@ sp needed
  60 0016 5DF804EB 		ldr	lr, [sp], #4
  61              		.cfi_restore 14
  62              		.cfi_def_cfa_offset 12
  63 001a 03B0     		add	sp, sp, #12
  64              		.cfi_restore 3
  65              		.cfi_restore 2
  66              		.cfi_restore 1
  67              		.cfi_def_cfa_offset 0
  68 001c 7047     		bx	lr
  69              	.L4:
  70 001e 00BF     		.align	2
  71              	.L3:
  72 0020 00000000 		.word	itm_port
  73              		.cfi_endproc
  74              	.LFE318:
  75              		.size	chprintf.constprop.11, .-chprintf.constprop.11
  76 0024 AFF30080 		.section	.text.lcfg_string_new,"ax",%progbits
  76      AFF30080 
  76      AFF30080 
  77              		.align	2
  78              		.p2align 4,,15
  79              		.global	lcfg_string_new
  80              		.thumb
  81              		.thumb_func
  82              		.type	lcfg_string_new, %function
  83              	lcfg_string_new:
  84              	.LFB258:
  85              		.file 2 "lcfg_static.c"
  86              		.loc 2 349 0
  87              		.cfi_startproc
  88              		@ args = 0, pretend = 0, frame = 0
  89              		@ frame_needed = 0, uses_anonymous_args = 0
  90 0000 10B5     		push	{r4, lr}
  91              		.cfi_def_cfa_offset 8
  92              		.cfi_offset 4, -8
  93              		.cfi_offset 14, -4
  94              		.loc 2 350 0
  95 0002 0C20     		movs	r0, #12
  96 0004 FFF7FEFF 		bl	malloc
  97              	.LVL3:
  98              		.loc 2 351 0
  99 0008 0446     		mov	r4, r0
 100 000a 48B1     		cbz	r0, .L10
 101              		.loc 2 353 0
 102 000c 0820     		movs	r0, #8
 103              	.LVL4:
 104              		.loc 2 354 0
 105 000e 0023     		movs	r3, #0
 106              		.loc 2 353 0
 107 0010 A060     		str	r0, [r4, #8]
 108              		.loc 2 354 0
 109 0012 6360     		str	r3, [r4, #4]
 110              		.loc 2 355 0
 111 0014 FFF7FEFF 		bl	malloc
 112              	.LVL5:
ARM GAS  C:\Users\jo\AppData\Local\Temp\ccMF9q4g.s 			page 3


 113 0018 2060     		str	r0, [r4]
 114              		.loc 2 357 0
 115 001a 40B1     		cbz	r0, .L11
 116              		.loc 2 360 0
 117 001c 2046     		mov	r0, r4
 118 001e 10BD     		pop	{r4, pc}
 119              	.LVL6:
 120              	.L10:
 121              	.LBB101:
 122              	.LBB102:
 123              		.loc 2 351 0
 124 0020 0648     		ldr	r0, .L12
 125              	.LVL7:
 126 0022 074A     		ldr	r2, .L12+4
 127 0024 074B     		ldr	r3, .L12+8
 128 0026 40F25F11 		movw	r1, #351
 129 002a FFF7FEFF 		bl	__assert_func
 130              	.LVL8:
 131              	.L11:
 132              	.LBE102:
 133              	.LBE101:
 134              		.loc 2 357 0 discriminator 1
 135 002e 0348     		ldr	r0, .L12
 136 0030 034A     		ldr	r2, .L12+4
 137 0032 054B     		ldr	r3, .L12+12
 138 0034 40F26511 		movw	r1, #357
 139 0038 FFF7FEFF 		bl	__assert_func
 140              	.LVL9:
 141              	.L13:
 142              		.align	2
 143              	.L12:
 144 003c 00000000 		.word	.LC18
 145 0040 00000000 		.word	.LANCHOR0
 146 0044 10000000 		.word	.LC19
 147 0048 14000000 		.word	.LC20
 148              		.cfi_endproc
 149              	.LFE258:
 150              		.size	lcfg_string_new, .-lcfg_string_new
 151 004c AFF30080 		.section	.text.lcfg_string_new_copy,"ax",%progbits
 152              		.align	2
 153              		.p2align 4,,15
 154              		.global	lcfg_string_new_copy
 155              		.thumb
 156              		.thumb_func
 157              		.type	lcfg_string_new_copy, %function
 158              	lcfg_string_new_copy:
 159              	.LFB259:
 160              		.loc 2 363 0
 161              		.cfi_startproc
 162              		@ args = 0, pretend = 0, frame = 0
 163              		@ frame_needed = 0, uses_anonymous_args = 0
 164              	.LVL10:
 165 0000 70B5     		push	{r4, r5, r6, lr}
 166              		.cfi_def_cfa_offset 16
 167              		.cfi_offset 4, -16
 168              		.cfi_offset 5, -12
 169              		.cfi_offset 6, -8
ARM GAS  C:\Users\jo\AppData\Local\Temp\ccMF9q4g.s 			page 4


 170              		.cfi_offset 14, -4
 171              		.loc 2 363 0
 172 0002 0546     		mov	r5, r0
 173              		.loc 2 364 0
 174 0004 0C20     		movs	r0, #12
 175              	.LVL11:
 176 0006 FFF7FEFF 		bl	malloc
 177              	.LVL12:
 178              		.loc 2 365 0
 179 000a 0446     		mov	r4, r0
 180 000c 60B1     		cbz	r0, .L17
 181              		.loc 2 368 0
 182 000e 6E68     		ldr	r6, [r5, #4]
 183              		.loc 2 367 0
 184 0010 A868     		ldr	r0, [r5, #8]
 185              	.LVL13:
 186 0012 A060     		str	r0, [r4, #8]
 187              		.loc 2 368 0
 188 0014 6660     		str	r6, [r4, #4]
 189              		.loc 2 369 0
 190 0016 FFF7FEFF 		bl	malloc
 191              	.LVL14:
 192              		.loc 2 371 0
 193 001a 3246     		mov	r2, r6
 194              		.loc 2 369 0
 195 001c 2060     		str	r0, [r4]
 196              		.loc 2 371 0
 197 001e 2968     		ldr	r1, [r5]
 198 0020 FFF7FEFF 		bl	memcpy
 199              	.LVL15:
 200              		.loc 2 374 0
 201 0024 2046     		mov	r0, r4
 202 0026 70BD     		pop	{r4, r5, r6, pc}
 203              	.LVL16:
 204              	.L17:
 205              	.LBB105:
 206              	.LBB106:
 207              		.loc 2 365 0
 208 0028 0348     		ldr	r0, .L18
 209              	.LVL17:
 210 002a 044A     		ldr	r2, .L18+4
 211 002c 044B     		ldr	r3, .L18+8
 212 002e 40F26D11 		movw	r1, #365
 213 0032 FFF7FEFF 		bl	__assert_func
 214              	.LVL18:
 215              	.L19:
 216 0036 00BF     		.align	2
 217              	.L18:
 218 0038 00000000 		.word	.LC18
 219 003c 00000000 		.word	.LANCHOR1
 220 0040 1C000000 		.word	.LC21
 221              	.LBE106:
 222              	.LBE105:
 223              		.cfi_endproc
 224              	.LFE259:
 225              		.size	lcfg_string_new_copy, .-lcfg_string_new_copy
 226 0044 AFF30080 		.section	.text.lcfg_string_cat_uint,"ax",%progbits
ARM GAS  C:\Users\jo\AppData\Local\Temp\ccMF9q4g.s 			page 5


 226      AFF30080 
 226      AFF30080 
 227              		.align	2
 228              		.p2align 4,,15
 229              		.global	lcfg_string_cat_uint
 230              		.thumb
 231              		.thumb_func
 232              		.type	lcfg_string_cat_uint, %function
 233              	lcfg_string_cat_uint:
 234              	.LFB260:
 235              		.loc 2 377 0
 236              		.cfi_startproc
 237              		@ args = 0, pretend = 0, frame = 0
 238              		@ frame_needed = 0, uses_anonymous_args = 0
 239              	.LVL19:
 240              		.loc 2 382 0
 241 0000 0929     		cmp	r1, #9
 242              		.loc 2 377 0
 243 0002 2DE9F041 		push	{r4, r5, r6, r7, r8, lr}
 244              		.cfi_def_cfa_offset 24
 245              		.cfi_offset 4, -24
 246              		.cfi_offset 5, -20
 247              		.cfi_offset 6, -16
 248              		.cfi_offset 7, -12
 249              		.cfi_offset 8, -8
 250              		.cfi_offset 14, -4
 251              		.loc 2 377 0
 252 0006 0F46     		mov	r7, r1
 253              	.LVL20:
 254 0008 0446     		mov	r4, r0
 255              		.loc 2 382 0
 256 000a 33D9     		bls	.L28
 257              		.loc 2 385 0
 258 000c 1B4A     		ldr	r2, .L33
 259              		.loc 2 382 0
 260 000e 0B46     		mov	r3, r1
 261 0010 0126     		movs	r6, #1
 262              	.LVL21:
 263              	.L22:
 264              		.loc 2 385 0
 265 0012 A2FB0313 		umull	r1, r3, r2, r3
 266              	.LVL22:
 267 0016 DB08     		lsrs	r3, r3, #3
 268              		.loc 2 382 0
 269 0018 092B     		cmp	r3, #9
 270              		.loc 2 384 0
 271 001a 06F10106 		add	r6, r6, #1
 272              	.LVL23:
 273              		.loc 2 382 0
 274 001e F8D8     		bhi	.L22
 275 0020 751E     		subs	r5, r6, #1
 276              	.LVL24:
 277              	.L21:
 278              		.loc 2 388 0
 279 0022 6168     		ldr	r1, [r4, #4]
 280              	.LVL25:
 281              	.LBB109:
ARM GAS  C:\Users\jo\AppData\Local\Temp\ccMF9q4g.s 			page 6


 282              	.LBB110:
 283              		.loc 2 341 0
 284 0024 A368     		ldr	r3, [r4, #8]
 285 0026 2068     		ldr	r0, [r4]
 286              	.LVL26:
 287 0028 01F10108 		add	r8, r1, #1
 288 002c B044     		add	r8, r8, r6
 289 002e 9845     		cmp	r8, r3
 290 0030 08D9     		bls	.L24
 291              	.LVL27:
 292              	.L25:
 293              		.loc 2 343 0
 294 0032 5900     		lsls	r1, r3, #1
 295 0034 A160     		str	r1, [r4, #8]
 296              		.loc 2 344 0
 297 0036 FFF7FEFF 		bl	realloc
 298              	.LVL28:
 299              		.loc 2 341 0
 300 003a A368     		ldr	r3, [r4, #8]
 301              		.loc 2 344 0
 302 003c 2060     		str	r0, [r4]
 303              		.loc 2 341 0
 304 003e 4345     		cmp	r3, r8
 305 0040 F7D3     		bcc	.L25
 306 0042 6168     		ldr	r1, [r4, #4]
 307              	.L24:
 308              	.LVL29:
 309              	.LBE110:
 310              	.LBE109:
 311              		.loc 2 393 0
 312 0044 DFF834E0 		ldr	lr, .L33
 313 0048 01E0     		b	.L27
 314              	.LVL30:
 315              	.L32:
 316 004a 94E80300 		ldmia	r4, {r0, r1}
 317              	.LVL31:
 318              	.L27:
 319              		.loc 2 393 0 is_stmt 0 discriminator 1
 320 004e AEFB0723 		umull	r2, r3, lr, r7
 321 0052 DB08     		lsrs	r3, r3, #3
 322 0054 03EB8302 		add	r2, r3, r3, lsl #2
 323              		.loc 2 394 0 is_stmt 1 discriminator 1
 324 0058 2844     		add	r0, r0, r5
 325              		.loc 2 393 0 discriminator 1
 326 005a A7EB4202 		sub	r2, r7, r2, lsl #1
 327 005e 3032     		adds	r2, r2, #48
 328              		.loc 2 394 0 discriminator 1
 329 0060 013D     		subs	r5, r5, #1
 330              	.LVL32:
 331 0062 4254     		strb	r2, [r0, r1]
 332              		.loc 2 397 0 discriminator 1
 333 0064 1F46     		mov	r7, r3
 334              	.LVL33:
 335 0066 002B     		cmp	r3, #0
 336 0068 EFD1     		bne	.L32
 337              		.loc 2 399 0
 338 006a 6068     		ldr	r0, [r4, #4]
ARM GAS  C:\Users\jo\AppData\Local\Temp\ccMF9q4g.s 			page 7


 339 006c 3044     		add	r0, r0, r6
 340 006e 6060     		str	r0, [r4, #4]
 341              		.loc 2 402 0
 342 0070 BDE8F081 		pop	{r4, r5, r6, r7, r8, pc}
 343              	.LVL34:
 344              	.L28:
 345              		.loc 2 382 0
 346 0074 0025     		movs	r5, #0
 347              		.loc 2 378 0
 348 0076 0126     		movs	r6, #1
 349 0078 D3E7     		b	.L21
 350              	.L34:
 351 007a 00BF     		.align	2
 352              	.L33:
 353 007c CDCCCCCC 		.word	-858993459
 354              		.cfi_endproc
 355              	.LFE260:
 356              		.size	lcfg_string_cat_uint, .-lcfg_string_cat_uint
 357              		.section	.text.lcfg_string_find,"ax",%progbits
 358              		.align	2
 359              		.p2align 4,,15
 360              		.global	lcfg_string_find
 361              		.thumb
 362              		.thumb_func
 363              		.type	lcfg_string_find, %function
 364              	lcfg_string_find:
 365              	.LFB261:
 366              		.loc 2 405 0
 367              		.cfi_startproc
 368              		@ args = 0, pretend = 0, frame = 0
 369              		@ frame_needed = 0, uses_anonymous_args = 0
 370              		@ link register save eliminated.
 371              	.LVL35:
 372 0000 10B4     		push	{r4}
 373              		.cfi_def_cfa_offset 4
 374              		.cfi_offset 4, -4
 375              		.loc 2 408 0
 376 0002 4468     		ldr	r4, [r0, #4]
 377 0004 6CB1     		cbz	r4, .L41
 378              		.loc 2 410 0
 379 0006 0368     		ldr	r3, [r0]
 380 0008 1A78     		ldrb	r2, [r3]	@ zero_extendqisi2
 381 000a 8A42     		cmp	r2, r1
 382 000c 18BF     		it	ne
 383 000e 0020     		movne	r0, #0
 384              	.LVL36:
 385 0010 04D1     		bne	.L39
 386 0012 0BE0     		b	.L47
 387              	.LVL37:
 388              	.L40:
 389 0014 13F8012F 		ldrb	r2, [r3, #1]!	@ zero_extendqisi2
 390 0018 8A42     		cmp	r2, r1
 391 001a 04D0     		beq	.L36
 392              	.LVL38:
 393              	.L39:
 394              		.loc 2 408 0 discriminator 2
 395 001c 0130     		adds	r0, r0, #1
ARM GAS  C:\Users\jo\AppData\Local\Temp\ccMF9q4g.s 			page 8


 396              	.LVL39:
 397 001e A042     		cmp	r0, r4
 398 0020 F8D1     		bne	.L40
 399              	.LVL40:
 400              	.L41:
 401              		.loc 2 416 0
 402 0022 4FF0FF30 		mov	r0, #-1
 403              	.L36:
 404              		.loc 2 417 0
 405 0026 5DF8044B 		ldr	r4, [sp], #4
 406              		.cfi_remember_state
 407              		.cfi_restore 4
 408              		.cfi_def_cfa_offset 0
 409 002a 7047     		bx	lr
 410              	.LVL41:
 411              	.L47:
 412              		.cfi_restore_state
 413              		.loc 2 408 0
 414 002c 0020     		movs	r0, #0
 415              		.loc 2 412 0
 416 002e FAE7     		b	.L36
 417              		.cfi_endproc
 418              	.LFE261:
 419              		.size	lcfg_string_find, .-lcfg_string_find
 420              		.section	.text.lcfg_string_rfind,"ax",%progbits
 421              		.align	2
 422              		.p2align 4,,15
 423              		.global	lcfg_string_rfind
 424              		.thumb
 425              		.thumb_func
 426              		.type	lcfg_string_rfind, %function
 427              	lcfg_string_rfind:
 428              	.LFB262:
 429              		.loc 2 420 0
 430              		.cfi_startproc
 431              		@ args = 0, pretend = 0, frame = 0
 432              		@ frame_needed = 0, uses_anonymous_args = 0
 433              		@ link register save eliminated.
 434              	.LVL42:
 435              		.loc 2 423 0
 436 0000 4368     		ldr	r3, [r0, #4]
 437              	.LVL43:
 438 0002 013B     		subs	r3, r3, #1
 439              	.LVL44:
 440 0004 0ED4     		bmi	.L54
 441              		.loc 2 425 0
 442 0006 0268     		ldr	r2, [r0]
 443 0008 D05C     		ldrb	r0, [r2, r3]	@ zero_extendqisi2
 444              	.LVL45:
 445 000a 8842     		cmp	r0, r1
 446 000c 1A44     		add	r2, r2, r3
 447 000e 04D1     		bne	.L52
 448 0010 06E0     		b	.L57
 449              	.LVL46:
 450              	.L53:
 451 0012 12F8010D 		ldrb	r0, [r2, #-1]!	@ zero_extendqisi2
 452 0016 8842     		cmp	r0, r1
ARM GAS  C:\Users\jo\AppData\Local\Temp\ccMF9q4g.s 			page 9


 453 0018 02D0     		beq	.L57
 454              	.LVL47:
 455              	.L52:
 456              		.loc 2 423 0 discriminator 2
 457 001a 13F1FF33 		adds	r3, r3, #-1
 458              	.LVL48:
 459 001e F8D2     		bcs	.L53
 460              	.LVL49:
 461              	.L57:
 462              		.loc 2 431 0
 463 0020 1846     		mov	r0, r3
 464 0022 7047     		bx	lr
 465              	.LVL50:
 466              	.L54:
 467 0024 4FF0FF30 		mov	r0, #-1
 468              	.LVL51:
 469              		.loc 2 432 0
 470 0028 7047     		bx	lr
 471              		.cfi_endproc
 472              	.LFE262:
 473              		.size	lcfg_string_rfind, .-lcfg_string_rfind
 474 002a 00BFAFF3 		.section	.text.lcfg_string_trunc,"ax",%progbits
 474      0080
 475              		.align	2
 476              		.p2align 4,,15
 477              		.global	lcfg_string_trunc
 478              		.thumb
 479              		.thumb_func
 480              		.type	lcfg_string_trunc, %function
 481              	lcfg_string_trunc:
 482              	.LFB263:
 483              		.loc 2 435 0
 484              		.cfi_startproc
 485              		@ args = 0, pretend = 0, frame = 0
 486              		@ frame_needed = 0, uses_anonymous_args = 0
 487              		@ link register save eliminated.
 488              	.LVL52:
 489              		.loc 2 436 0
 490 0000 4368     		ldr	r3, [r0, #4]
 491 0002 8B42     		cmp	r3, r1
 492              		.loc 2 438 0
 493 0004 88BF     		it	hi
 494 0006 4160     		strhi	r1, [r0, #4]
 495 0008 7047     		bx	lr
 496              		.cfi_endproc
 497              	.LFE263:
 498              		.size	lcfg_string_trunc, .-lcfg_string_trunc
 499 000a 00BFAFF3 		.section	.text.lcfg_string_cat_cstr,"ax",%progbits
 499      0080
 500              		.align	2
 501              		.p2align 4,,15
 502              		.global	lcfg_string_cat_cstr
 503              		.thumb
 504              		.thumb_func
 505              		.type	lcfg_string_cat_cstr, %function
 506              	lcfg_string_cat_cstr:
 507              	.LFB264:
ARM GAS  C:\Users\jo\AppData\Local\Temp\ccMF9q4g.s 			page 10


 508              		.loc 2 443 0
 509              		.cfi_startproc
 510              		@ args = 0, pretend = 0, frame = 0
 511              		@ frame_needed = 0, uses_anonymous_args = 0
 512              	.LVL53:
 513 0000 F8B5     		push	{r3, r4, r5, r6, r7, lr}
 514              		.cfi_def_cfa_offset 24
 515              		.cfi_offset 3, -24
 516              		.cfi_offset 4, -20
 517              		.cfi_offset 5, -16
 518              		.cfi_offset 6, -12
 519              		.cfi_offset 7, -8
 520              		.cfi_offset 14, -4
 521              		.loc 2 443 0
 522 0002 0446     		mov	r4, r0
 523              		.loc 2 444 0
 524 0004 0846     		mov	r0, r1
 525              	.LVL54:
 526              		.loc 2 443 0
 527 0006 0E46     		mov	r6, r1
 528              		.loc 2 444 0
 529 0008 FFF7FEFF 		bl	strlen
 530              	.LVL55:
 531              		.loc 2 446 0
 532 000c 6368     		ldr	r3, [r4, #4]
 533              	.LBB113:
 534              	.LBB114:
 535              		.loc 2 341 0
 536 000e A168     		ldr	r1, [r4, #8]
 537 0010 5F1C     		adds	r7, r3, #1
 538 0012 0744     		add	r7, r7, r0
 539 0014 B942     		cmp	r1, r7
 540              	.LBE114:
 541              	.LBE113:
 542              		.loc 2 444 0
 543 0016 0546     		mov	r5, r0
 544              	.LVL56:
 545 0018 2068     		ldr	r0, [r4]
 546              	.LVL57:
 547              	.LBB116:
 548              	.LBB115:
 549              		.loc 2 341 0
 550 001a 08D2     		bcs	.L62
 551              	.LVL58:
 552              	.L63:
 553              		.loc 2 343 0
 554 001c 4900     		lsls	r1, r1, #1
 555 001e A160     		str	r1, [r4, #8]
 556              		.loc 2 344 0
 557 0020 FFF7FEFF 		bl	realloc
 558              	.LVL59:
 559              		.loc 2 341 0
 560 0024 A168     		ldr	r1, [r4, #8]
 561              		.loc 2 344 0
 562 0026 2060     		str	r0, [r4]
 563              		.loc 2 341 0
 564 0028 B942     		cmp	r1, r7
ARM GAS  C:\Users\jo\AppData\Local\Temp\ccMF9q4g.s 			page 11


 565 002a F7D3     		bcc	.L63
 566 002c 6368     		ldr	r3, [r4, #4]
 567              	.L62:
 568              	.LBE115:
 569              	.LBE116:
 570              		.loc 2 448 0
 571 002e 1844     		add	r0, r0, r3
 572 0030 3146     		mov	r1, r6
 573 0032 2A46     		mov	r2, r5
 574 0034 FFF7FEFF 		bl	memcpy
 575              	.LVL60:
 576              		.loc 2 450 0
 577 0038 6068     		ldr	r0, [r4, #4]
 578 003a 2844     		add	r0, r0, r5
 579 003c 6060     		str	r0, [r4, #4]
 580              		.loc 2 453 0
 581 003e F8BD     		pop	{r3, r4, r5, r6, r7, pc}
 582              		.cfi_endproc
 583              	.LFE264:
 584              		.size	lcfg_string_cat_cstr, .-lcfg_string_cat_cstr
 585              		.section	.text.lcfg_string_set,"ax",%progbits
 586              		.align	2
 587              		.p2align 4,,15
 588              		.global	lcfg_string_set
 589              		.thumb
 590              		.thumb_func
 591              		.type	lcfg_string_set, %function
 592              	lcfg_string_set:
 593              	.LFB256:
 594              		.loc 2 330 0
 595              		.cfi_startproc
 596              		@ args = 0, pretend = 0, frame = 0
 597              		@ frame_needed = 0, uses_anonymous_args = 0
 598              		@ link register save eliminated.
 599              	.LVL61:
 600              	.LBB117:
 601              	.LBB118:
 602              		.loc 2 436 0
 603 0000 4368     		ldr	r3, [r0, #4]
 604 0002 0BB1     		cbz	r3, .L67
 605              		.loc 2 438 0
 606 0004 0023     		movs	r3, #0
 607 0006 4360     		str	r3, [r0, #4]
 608              	.L67:
 609              	.LBE118:
 610              	.LBE117:
 611              		.loc 2 332 0
 612 0008 FFF7FEBF 		b	lcfg_string_cat_cstr
 613              	.LVL62:
 614              		.cfi_endproc
 615              	.LFE256:
 616              		.size	lcfg_string_set, .-lcfg_string_set
 617 000c AFF30080 		.section	.text.lcfg_string_cat_char,"ax",%progbits
 618              		.align	2
 619              		.p2align 4,,15
 620              		.global	lcfg_string_cat_char
 621              		.thumb
ARM GAS  C:\Users\jo\AppData\Local\Temp\ccMF9q4g.s 			page 12


 622              		.thumb_func
 623              		.type	lcfg_string_cat_char, %function
 624              	lcfg_string_cat_char:
 625              	.LFB265:
 626              		.loc 2 456 0
 627              		.cfi_startproc
 628              		@ args = 0, pretend = 0, frame = 0
 629              		@ frame_needed = 0, uses_anonymous_args = 0
 630              	.LVL63:
 631              		.loc 2 457 0
 632 0000 4368     		ldr	r3, [r0, #4]
 633              	.LVL64:
 634              		.loc 2 456 0
 635 0002 70B5     		push	{r4, r5, r6, lr}
 636              		.cfi_def_cfa_offset 16
 637              		.cfi_offset 4, -16
 638              		.cfi_offset 5, -12
 639              		.cfi_offset 6, -8
 640              		.cfi_offset 14, -4
 641              		.loc 2 456 0
 642 0004 0E46     		mov	r6, r1
 643              	.LBB121:
 644              	.LBB122:
 645              		.loc 2 341 0
 646 0006 8168     		ldr	r1, [r0, #8]
 647              	.LVL65:
 648 0008 9D1C     		adds	r5, r3, #2
 649 000a A942     		cmp	r1, r5
 650              	.LBE122:
 651              	.LBE121:
 652              		.loc 2 456 0
 653 000c 0446     		mov	r4, r0
 654 000e 0068     		ldr	r0, [r0]
 655              	.LVL66:
 656              	.LBB124:
 657              	.LBB123:
 658              		.loc 2 341 0
 659 0010 08D2     		bcs	.L73
 660              	.LVL67:
 661              	.L74:
 662              		.loc 2 343 0
 663 0012 4900     		lsls	r1, r1, #1
 664 0014 A160     		str	r1, [r4, #8]
 665              		.loc 2 344 0
 666 0016 FFF7FEFF 		bl	realloc
 667              	.LVL68:
 668              		.loc 2 341 0
 669 001a A168     		ldr	r1, [r4, #8]
 670              		.loc 2 344 0
 671 001c 2060     		str	r0, [r4]
 672              		.loc 2 341 0
 673 001e A942     		cmp	r1, r5
 674 0020 F7D3     		bcc	.L74
 675 0022 6368     		ldr	r3, [r4, #4]
 676              	.L73:
 677              	.LBE123:
 678              	.LBE124:
ARM GAS  C:\Users\jo\AppData\Local\Temp\ccMF9q4g.s 			page 13


 679              		.loc 2 459 0
 680 0024 5A1C     		adds	r2, r3, #1
 681 0026 6260     		str	r2, [r4, #4]
 682 0028 C654     		strb	r6, [r0, r3]
 683              		.loc 2 462 0
 684 002a 6068     		ldr	r0, [r4, #4]
 685 002c 70BD     		pop	{r4, r5, r6, pc}
 686              		.cfi_endproc
 687              	.LFE265:
 688              		.size	lcfg_string_cat_char, .-lcfg_string_cat_char
 689 002e 00BF     		.section	.text.lcfg_string_cstr,"ax",%progbits
 690              		.align	2
 691              		.p2align 4,,15
 692              		.global	lcfg_string_cstr
 693              		.thumb
 694              		.thumb_func
 695              		.type	lcfg_string_cstr, %function
 696              	lcfg_string_cstr:
 697              	.LFB266:
 698              		.loc 2 465 0
 699              		.cfi_startproc
 700              		@ args = 0, pretend = 0, frame = 0
 701              		@ frame_needed = 0, uses_anonymous_args = 0
 702              		@ link register save eliminated.
 703              	.LVL69:
 704              		.loc 2 466 0
 705 0000 90E80C00 		ldmia	r0, {r2, r3}
 706 0004 0021     		movs	r1, #0
 707 0006 D154     		strb	r1, [r2, r3]
 708              		.loc 2 468 0
 709 0008 0068     		ldr	r0, [r0]
 710              	.LVL70:
 711 000a 7047     		bx	lr
 712              		.cfi_endproc
 713              	.LFE266:
 714              		.size	lcfg_string_cstr, .-lcfg_string_cstr
 715 000c AFF30080 		.section	.text.lcfg_string_len,"ax",%progbits
 716              		.align	2
 717              		.p2align 4,,15
 718              		.global	lcfg_string_len
 719              		.thumb
 720              		.thumb_func
 721              		.type	lcfg_string_len, %function
 722              	lcfg_string_len:
 723              	.LFB267:
 724              		.loc 2 471 0
 725              		.cfi_startproc
 726              		@ args = 0, pretend = 0, frame = 0
 727              		@ frame_needed = 0, uses_anonymous_args = 0
 728              		@ link register save eliminated.
 729              	.LVL71:
 730              		.loc 2 473 0
 731 0000 4068     		ldr	r0, [r0, #4]
 732              	.LVL72:
 733 0002 7047     		bx	lr
 734              		.cfi_endproc
 735              	.LFE267:
ARM GAS  C:\Users\jo\AppData\Local\Temp\ccMF9q4g.s 			page 14


 736              		.size	lcfg_string_len, .-lcfg_string_len
 737 0004 AFF30080 		.section	.text.lcfg_string_delete,"ax",%progbits
 737      AFF30080 
 737      AFF30080 
 738              		.align	2
 739              		.p2align 4,,15
 740              		.global	lcfg_string_delete
 741              		.thumb
 742              		.thumb_func
 743              		.type	lcfg_string_delete, %function
 744              	lcfg_string_delete:
 745              	.LFB268:
 746              		.loc 2 476 0
 747              		.cfi_startproc
 748              		@ args = 0, pretend = 0, frame = 0
 749              		@ frame_needed = 0, uses_anonymous_args = 0
 750              	.LVL73:
 751 0000 10B5     		push	{r4, lr}
 752              		.cfi_def_cfa_offset 8
 753              		.cfi_offset 4, -8
 754              		.cfi_offset 14, -4
 755              		.loc 2 476 0
 756 0002 0446     		mov	r4, r0
 757              		.loc 2 477 0
 758 0004 0068     		ldr	r0, [r0]
 759              	.LVL74:
 760 0006 FFF7FEFF 		bl	free
 761              	.LVL75:
 762              		.loc 2 478 0
 763 000a 2046     		mov	r0, r4
 764              		.loc 2 479 0
 765 000c BDE81040 		pop	{r4, lr}
 766              		.cfi_restore 14
 767              		.cfi_restore 4
 768              		.cfi_def_cfa_offset 0
 769              	.LVL76:
 770              		.loc 2 478 0
 771 0010 FFF7FEBF 		b	free
 772              	.LVL77:
 773              		.cfi_endproc
 774              	.LFE268:
 775              		.size	lcfg_string_delete, .-lcfg_string_delete
 776 0014 AFF30080 		.section	.text.lcfg_scanner_has_next,"ax",%progbits
 776      AFF30080 
 776      AFF30080 
 777              		.align	2
 778              		.p2align 4,,15
 779              		.global	lcfg_scanner_has_next
 780              		.thumb
 781              		.thumb_func
 782              		.type	lcfg_scanner_has_next, %function
 783              	lcfg_scanner_has_next:
 784              	.LFB275:
 785              		.loc 2 869 0
 786              		.cfi_startproc
 787              		@ args = 0, pretend = 0, frame = 0
 788              		@ frame_needed = 0, uses_anonymous_args = 0
ARM GAS  C:\Users\jo\AppData\Local\Temp\ccMF9q4g.s 			page 15


 789              		@ link register save eliminated.
 790              	.LVL78:
 791              		.loc 2 870 0
 792 0000 90F81801 		ldrb	r0, [r0, #280]	@ zero_extendqisi2
 793              	.LVL79:
 794              		.loc 2 871 0
 795 0004 0030     		adds	r0, r0, #0
 796 0006 18BF     		it	ne
 797 0008 0120     		movne	r0, #1
 798 000a 7047     		bx	lr
 799              		.cfi_endproc
 800              	.LFE275:
 801              		.size	lcfg_scanner_has_next, .-lcfg_scanner_has_next
 802 000c AFF30080 		.section	.text.lcfg_scanner_new,"ax",%progbits
 803              		.align	2
 804              		.p2align 4,,15
 805              		.global	lcfg_scanner_new
 806              		.thumb
 807              		.thumb_func
 808              		.type	lcfg_scanner_new, %function
 809              	lcfg_scanner_new:
 810              	.LFB277:
 811              		.loc 2 889 0
 812              		.cfi_startproc
 813              		@ args = 0, pretend = 0, frame = 0
 814              		@ frame_needed = 0, uses_anonymous_args = 0
 815              	.LVL80:
 816 0000 70B5     		push	{r4, r5, r6, lr}
 817              		.cfi_def_cfa_offset 16
 818              		.cfi_offset 4, -16
 819              		.cfi_offset 5, -12
 820              		.cfi_offset 6, -8
 821              		.cfi_offset 14, -4
 822              		.loc 2 889 0
 823 0002 0646     		mov	r6, r0
 824              		.loc 2 890 0
 825 0004 4FF49470 		mov	r0, #296
 826              	.LVL81:
 827              		.loc 2 889 0
 828 0008 0D46     		mov	r5, r1
 829              		.loc 2 890 0
 830 000a FFF7FEFF 		bl	malloc
 831              	.LVL82:
 832              		.loc 2 891 0
 833 000e 90B1     		cbz	r0, .L85
 834 0010 0446     		mov	r4, r0
 835              		.loc 2 893 0
 836 0012 0021     		movs	r1, #0
 837 0014 4FF49472 		mov	r2, #296
 838 0018 FFF7FEFF 		bl	memset
 839              	.LVL83:
 840              		.loc 2 898 0
 841 001c 0123     		movs	r3, #1
 842              		.loc 2 895 0
 843 001e 2660     		str	r6, [r4]
 844              		.loc 2 896 0
 845 0020 6560     		str	r5, [r4, #4]
ARM GAS  C:\Users\jo\AppData\Local\Temp\ccMF9q4g.s 			page 16


 846              		.loc 2 898 0
 847 0022 A4F81631 		strh	r3, [r4, #278]	@ movhi
 848 0026 A4F81431 		strh	r3, [r4, #276]	@ movhi
 849              		.loc 2 900 0
 850 002a FFF7FEFF 		bl	lcfg_string_new
 851              	.LVL84:
 852 002e C4F81C01 		str	r0, [r4, #284]
 853              		.loc 2 903 0
 854 0032 2046     		mov	r0, r4
 855 0034 70BD     		pop	{r4, r5, r6, pc}
 856              	.LVL85:
 857              	.L85:
 858              	.LBB127:
 859              	.LBB128:
 860              		.loc 2 891 0
 861 0036 0348     		ldr	r0, .L86
 862              	.LVL86:
 863 0038 034A     		ldr	r2, .L86+4
 864 003a 044B     		ldr	r3, .L86+8
 865 003c 40F27B31 		movw	r1, #891
 866 0040 FFF7FEFF 		bl	__assert_func
 867              	.LVL87:
 868              	.L87:
 869              		.align	2
 870              	.L86:
 871 0044 00000000 		.word	.LC18
 872 0048 00000000 		.word	.LANCHOR2
 873 004c 10000000 		.word	.LC19
 874              	.LBE128:
 875              	.LBE127:
 876              		.cfi_endproc
 877              	.LFE277:
 878              		.size	lcfg_scanner_new, .-lcfg_scanner_new
 879              		.section	.text.lcfg_scanner_delete,"ax",%progbits
 880              		.align	2
 881              		.p2align 4,,15
 882              		.global	lcfg_scanner_delete
 883              		.thumb
 884              		.thumb_func
 885              		.type	lcfg_scanner_delete, %function
 886              	lcfg_scanner_delete:
 887              	.LFB278:
 888              		.loc 2 906 0
 889              		.cfi_startproc
 890              		@ args = 0, pretend = 0, frame = 0
 891              		@ frame_needed = 0, uses_anonymous_args = 0
 892              	.LVL88:
 893 0000 38B5     		push	{r3, r4, r5, lr}
 894              		.cfi_def_cfa_offset 16
 895              		.cfi_offset 3, -16
 896              		.cfi_offset 4, -12
 897              		.cfi_offset 5, -8
 898              		.cfi_offset 14, -4
 899              		.loc 2 907 0
 900 0002 D0F81C51 		ldr	r5, [r0, #284]
 901              	.LVL89:
 902              		.loc 2 906 0
ARM GAS  C:\Users\jo\AppData\Local\Temp\ccMF9q4g.s 			page 17


 903 0006 0446     		mov	r4, r0
 904              	.LBB129:
 905              	.LBB130:
 906              		.loc 2 477 0
 907 0008 2868     		ldr	r0, [r5]
 908              	.LVL90:
 909 000a FFF7FEFF 		bl	free
 910              	.LVL91:
 911              		.loc 2 478 0
 912 000e 2846     		mov	r0, r5
 913 0010 FFF7FEFF 		bl	free
 914              	.LVL92:
 915              	.LBE130:
 916              	.LBE129:
 917              		.loc 2 908 0
 918 0014 2046     		mov	r0, r4
 919              		.loc 2 909 0
 920 0016 BDE83840 		pop	{r3, r4, r5, lr}
 921              		.cfi_restore 14
 922              		.cfi_restore 5
 923              		.cfi_restore 4
 924              		.cfi_restore 3
 925              		.cfi_def_cfa_offset 0
 926              	.LVL93:
 927              		.loc 2 908 0
 928 001a FFF7FEBF 		b	free
 929              	.LVL94:
 930              		.cfi_endproc
 931              	.LFE278:
 932              		.size	lcfg_scanner_delete, .-lcfg_scanner_delete
 933 001e 00BF     		.section	.text.strdup,"ax",%progbits
 934              		.align	2
 935              		.p2align 4,,15
 936              		.global	strdup
 937              		.thumb
 938              		.thumb_func
 939              		.type	strdup, %function
 940              	strdup:
 941              	.LFB279:
 942              		.loc 2 943 0
 943              		.cfi_startproc
 944              		@ args = 0, pretend = 0, frame = 0
 945              		@ frame_needed = 0, uses_anonymous_args = 0
 946              	.LVL95:
 947 0000 70B5     		push	{r4, r5, r6, lr}
 948              		.cfi_def_cfa_offset 16
 949              		.cfi_offset 4, -16
 950              		.cfi_offset 5, -12
 951              		.cfi_offset 6, -8
 952              		.cfi_offset 14, -4
 953              		.loc 2 943 0
 954 0002 0646     		mov	r6, r0
 955              		.loc 2 946 0
 956 0004 FFF7FEFF 		bl	strlen
 957              	.LVL96:
 958 0008 441C     		adds	r4, r0, #1
 959              	.LVL97:
ARM GAS  C:\Users\jo\AppData\Local\Temp\ccMF9q4g.s 			page 18


 960              		.loc 2 947 0
 961 000a 2046     		mov	r0, r4
 962 000c FFF7FEFF 		bl	malloc
 963              	.LVL98:
 964              		.loc 2 949 0
 965 0010 0546     		mov	r5, r0
 966 0012 18B1     		cbz	r0, .L91
 967              		.loc 2 951 0
 968 0014 3146     		mov	r1, r6
 969 0016 2246     		mov	r2, r4
 970 0018 FFF7FEFF 		bl	memcpy
 971              	.LVL99:
 972              	.L91:
 973              		.loc 2 955 0
 974 001c 2846     		mov	r0, r5
 975 001e 70BD     		pop	{r4, r5, r6, pc}
 976              		.cfi_endproc
 977              	.LFE279:
 978              		.size	strdup, .-strdup
 979              		.section	.text.lcfg_parser_add_value,"ax",%progbits
 980              		.align	2
 981              		.p2align 4,,15
 982              		.thumb
 983              		.thumb_func
 984              		.type	lcfg_parser_add_value, %function
 985              	lcfg_parser_add_value:
 986              	.LFB280:
 987              		.loc 2 977 0
 988              		.cfi_startproc
 989              		@ args = 0, pretend = 0, frame = 0
 990              		@ frame_needed = 0, uses_anonymous_args = 0
 991              	.LVL100:
 992 0000 2DE9F041 		push	{r4, r5, r6, r7, r8, lr}
 993              		.cfi_def_cfa_offset 24
 994              		.cfi_offset 4, -24
 995              		.cfi_offset 5, -20
 996              		.cfi_offset 6, -16
 997              		.cfi_offset 7, -12
 998              		.cfi_offset 8, -8
 999              		.cfi_offset 14, -4
 1000              		.loc 2 978 0
 1001 0004 4369     		ldr	r3, [r0, #20]
 1002 0006 0669     		ldr	r6, [r0, #16]
 1003 0008 9E42     		cmp	r6, r3
 1004              		.loc 2 977 0
 1005 000a 0446     		mov	r4, r0
 1006 000c 8846     		mov	r8, r1
 1007 000e 1746     		mov	r7, r2
 1008              		.loc 2 978 0
 1009 0010 11D0     		beq	.L101
 1010 0012 C568     		ldr	r5, [r0, #12]
 1011              	.LVL101:
 1012              	.L99:
 1013              		.loc 2 985 0
 1014 0014 4046     		mov	r0, r8
 1015 0016 FFF7FEFF 		bl	strdup
 1016              	.LVL102:
ARM GAS  C:\Users\jo\AppData\Local\Temp\ccMF9q4g.s 			page 19


 1017 001a 45F83600 		str	r0, [r5, r6, lsl #3]
 1018              		.loc 2 986 0
 1019 001e 3846     		mov	r0, r7
 1020 0020 FFF7FEFF 		bl	lcfg_string_new_copy
 1021              	.LVL103:
 1022              		.loc 2 988 0
 1023 0024 2369     		ldr	r3, [r4, #16]
 1024              		.loc 2 985 0
 1025 0026 05EBC605 		add	r5, r5, r6, lsl #3
 1026              		.loc 2 988 0
 1027 002a 0133     		adds	r3, r3, #1
 1028              		.loc 2 986 0
 1029 002c 6860     		str	r0, [r5, #4]
 1030              		.loc 2 988 0
 1031 002e 2361     		str	r3, [r4, #16]
 1032              		.loc 2 989 0
 1033 0030 1846     		mov	r0, r3
 1034 0032 BDE8F081 		pop	{r4, r5, r6, r7, r8, pc}
 1035              	.LVL104:
 1036              	.L101:
 1037              		.loc 2 980 0
 1038 0036 7300     		lsls	r3, r6, #1
 1039 0038 4361     		str	r3, [r0, #20]
 1040              		.loc 2 981 0
 1041 003a 3101     		lsls	r1, r6, #4
 1042              	.LVL105:
 1043 003c C068     		ldr	r0, [r0, #12]
 1044              	.LVL106:
 1045 003e FFF7FEFF 		bl	realloc
 1046              	.LVL107:
 1047 0042 E060     		str	r0, [r4, #12]
 1048              		.loc 2 982 0
 1049 0044 10B1     		cbz	r0, .L98
 1050 0046 0546     		mov	r5, r0
 1051 0048 2669     		ldr	r6, [r4, #16]
 1052 004a E3E7     		b	.L99
 1053              	.L98:
 1054              	.LVL108:
 1055              	.LBB133:
 1056              	.LBB134:
 1057 004c 0348     		ldr	r0, .L102
 1058 004e 044A     		ldr	r2, .L102+4
 1059 0050 044B     		ldr	r3, .L102+8
 1060 0052 40F2D631 		movw	r1, #982
 1061 0056 FFF7FEFF 		bl	__assert_func
 1062              	.LVL109:
 1063              	.L103:
 1064 005a 00BF     		.align	2
 1065              	.L102:
 1066 005c 00000000 		.word	.LC18
 1067 0060 00000000 		.word	.LANCHOR3
 1068 0064 24000000 		.word	.LC22
 1069              	.LBE134:
 1070              	.LBE133:
 1071              		.cfi_endproc
 1072              	.LFE280:
 1073              		.size	lcfg_parser_add_value, .-lcfg_parser_add_value
ARM GAS  C:\Users\jo\AppData\Local\Temp\ccMF9q4g.s 			page 20


 1074 0068 AFF30080 		.section	.text.lcfgx_tree_node_new,"ax",%progbits
 1074      AFF30080 
 1075              		.align	2
 1076              		.p2align 4,,15
 1077              		.thumb
 1078              		.thumb_func
 1079              		.type	lcfgx_tree_node_new, %function
 1080              	lcfgx_tree_node_new:
 1081              	.LFB294:
 1082              		.loc 2 1378 0
 1083              		.cfi_startproc
 1084              		@ args = 0, pretend = 0, frame = 0
 1085              		@ frame_needed = 0, uses_anonymous_args = 0
 1086              	.LVL110:
 1087 0000 70B5     		push	{r4, r5, r6, lr}
 1088              		.cfi_def_cfa_offset 16
 1089              		.cfi_offset 4, -16
 1090              		.cfi_offset 5, -12
 1091              		.cfi_offset 6, -8
 1092              		.cfi_offset 14, -4
 1093              		.loc 2 1378 0
 1094 0002 0646     		mov	r6, r0
 1095              		.loc 2 1379 0
 1096 0004 1420     		movs	r0, #20
 1097              	.LVL111:
 1098              		.loc 2 1378 0
 1099 0006 0D46     		mov	r5, r1
 1100              		.loc 2 1379 0
 1101 0008 FFF7FEFF 		bl	malloc
 1102              	.LVL112:
 1103 000c 0446     		mov	r4, r0
 1104              	.LVL113:
 1105              		.loc 2 1381 0
 1106 000e 0670     		strb	r6, [r0]
 1107              		.loc 2 1383 0
 1108 0010 3DB1     		cbz	r5, .L105
 1109              		.loc 2 1384 0
 1110 0012 2846     		mov	r0, r5
 1111              	.LVL114:
 1112 0014 FFF7FEFF 		bl	strdup
 1113              	.LVL115:
 1114              		.loc 2 1388 0
 1115 0018 0023     		movs	r3, #0
 1116              		.loc 2 1384 0
 1117 001a 6060     		str	r0, [r4, #4]
 1118              		.loc 2 1388 0
 1119 001c 2361     		str	r3, [r4, #16]
 1120              		.loc 2 1391 0
 1121 001e 2046     		mov	r0, r4
 1122 0020 70BD     		pop	{r4, r5, r6, pc}
 1123              	.LVL116:
 1124              	.L105:
 1125              		.loc 2 1388 0
 1126 0022 0023     		movs	r3, #0
 1127              		.loc 2 1386 0
 1128 0024 4560     		str	r5, [r0, #4]
 1129              		.loc 2 1388 0
ARM GAS  C:\Users\jo\AppData\Local\Temp\ccMF9q4g.s 			page 21


 1130 0026 2361     		str	r3, [r4, #16]
 1131              		.loc 2 1391 0
 1132 0028 2046     		mov	r0, r4
 1133              	.LVL117:
 1134 002a 70BD     		pop	{r4, r5, r6, pc}
 1135              		.cfi_endproc
 1136              	.LFE294:
 1137              		.size	lcfgx_tree_node_new, .-lcfgx_tree_node_new
 1138 002c AFF30080 		.section	.text.lcfgx_tree_visitor,"ax",%progbits
 1139              		.align	2
 1140              		.p2align 4,,15
 1141              		.global	lcfgx_tree_visitor
 1142              		.thumb
 1143              		.thumb_func
 1144              		.type	lcfgx_tree_visitor, %function
 1145              	lcfgx_tree_visitor:
 1146              	.LFB298:
 1147              		.loc 2 1488 0
 1148              		.cfi_startproc
 1149              		@ args = 0, pretend = 0, frame = 24
 1150              		@ frame_needed = 1, uses_anonymous_args = 0
 1151              	.LVL118:
 1152 0000 2DE9F04F 		push	{r4, r5, r6, r7, r8, r9, r10, fp, lr}
 1153              		.cfi_def_cfa_offset 36
 1154              		.cfi_offset 4, -36
 1155              		.cfi_offset 5, -32
 1156              		.cfi_offset 6, -28
 1157              		.cfi_offset 7, -24
 1158              		.cfi_offset 8, -20
 1159              		.cfi_offset 9, -16
 1160              		.cfi_offset 10, -12
 1161              		.cfi_offset 11, -8
 1162              		.cfi_offset 14, -4
 1163 0004 87B0     		sub	sp, sp, #28
 1164              		.cfi_def_cfa_offset 64
 1165 0006 00AF     		add	r7, sp, #0
 1166              		.cfi_def_cfa_register 7
 1167              		.loc 2 1488 0
 1168 0008 0446     		mov	r4, r0
 1169 000a 7960     		str	r1, [r7, #4]
 1170 000c BA60     		str	r2, [r7, #8]
 1171              	.LVL119:
 1172 000e 9946     		mov	r9, r3
 1173              		.loc 2 1490 0
 1174 0010 FFF7FEFF 		bl	strlen
 1175              	.LVL120:
 1176 0014 00F10803 		add	r3, r0, #8
 1177 0018 23F00703 		bic	r3, r3, #7
 1178 001c ADEB030D 		sub	sp, sp, r3
 1179              	.LVL121:
 1180              		.loc 2 1493 0
 1181 0020 421C     		adds	r2, r0, #1
 1182              	.LVL122:
 1183 0022 2146     		mov	r1, r4
 1184 0024 6846     		mov	r0, sp
 1185 0026 FFF7FEFF 		bl	strncpy
 1186              	.LVL123:
ARM GAS  C:\Users\jo\AppData\Local\Temp\ccMF9q4g.s 			page 22


 1187              		.loc 2 1490 0
 1188 002a 6846     		mov	r0, sp
 1189              	.LVL124:
 1190 002c 631E     		subs	r3, r4, #1
 1191              		.loc 2 1491 0
 1192 002e 0122     		movs	r2, #1
 1193              		.loc 2 1495 0
 1194 0030 02E0     		b	.L109
 1195              	.LVL125:
 1196              	.L111:
 1197              		.loc 2 1496 0
 1198 0032 2E2D     		cmp	r5, #46
 1199              		.loc 2 1497 0
 1200 0034 08BF     		it	eq
 1201 0036 0132     		addeq	r2, r2, #1
 1202              	.LVL126:
 1203              	.L109:
 1204              		.loc 2 1495 0
 1205 0038 13F8015F 		ldrb	r5, [r3, #1]!	@ zero_extendqisi2
 1206              	.LVL127:
 1207 003c 002D     		cmp	r5, #0
 1208 003e F8D1     		bne	.L111
 1209              	.LVL128:
 1210              		.loc 2 1499 0
 1211 0040 9300     		lsls	r3, r2, #2
 1212              	.LVL129:
 1213 0042 0A33     		adds	r3, r3, #10
 1214 0044 23F00703 		bic	r3, r3, #7
 1215              		.loc 2 1501 0
 1216 0048 07F11808 		add	r8, r7, #24
 1217              		.loc 2 1499 0
 1218 004c ADEB030D 		sub	sp, sp, r3
 1219 0050 EB46     		mov	fp, sp
 1220              	.LVL130:
 1221 0052 ADF10404 		sub	r4, sp, #4
 1222              		.loc 2 1501 0
 1223 0056 48F8045D 		str	r5, [r8, #-4]!
 1224              	.LVL131:
 1225 005a 03E0     		b	.L112
 1226              	.LVL132:
 1227              	.L113:
 1228              		.loc 2 1505 0
 1229 005c 44F8040F 		str	r0, [r4, #4]!
 1230 0060 0135     		adds	r5, r5, #1
 1231              	.LVL133:
 1232              		.loc 2 1504 0
 1233 0062 0020     		movs	r0, #0
 1234              	.LVL134:
 1235              	.L112:
 1236              		.loc 2 1504 0 is_stmt 0 discriminator 4
 1237 0064 3549     		ldr	r1, .L142
 1238 0066 4246     		mov	r2, r8
 1239 0068 FFF7FEFF 		bl	strtok_r
 1240              	.LVL135:
 1241 006c 0028     		cmp	r0, #0
 1242 006e F5D1     		bne	.L113
 1243 0070 09F10809 		add	r9, r9, #8
ARM GAS  C:\Users\jo\AppData\Local\Temp\ccMF9q4g.s 			page 23


 1244              	.LVL136:
 1245              	.LBB139:
 1246              	.LBB140:
 1247              		.loc 2 1468 0 is_stmt 1
 1248 0074 8246     		mov	r10, r0
 1249              	.LBE140:
 1250              	.LBE139:
 1251 0076 FD60     		str	r5, [r7, #12]
 1252 0078 D846     		mov	r8, fp
 1253              	.LVL137:
 1254              	.L123:
 1255              	.LBB148:
 1256              	.LBB144:
 1257              		.loc 2 1433 0
 1258 007a D9F80060 		ldr	r6, [r9]
 1259              	.LVL138:
 1260 007e 56B1     		cbz	r6, .L114
 1261 0080 D8F80040 		ldr	r4, [r8]
 1262 0084 01E0     		b	.L115
 1263              	.L136:
 1264 0086 3669     		ldr	r6, [r6, #16]
 1265              	.LVL139:
 1266 0088 2EB1     		cbz	r6, .L114
 1267              	.L115:
 1268              		.loc 2 1434 0
 1269 008a 2046     		mov	r0, r4
 1270 008c 7168     		ldr	r1, [r6, #4]
 1271 008e FFF7FEFF 		bl	strcmp
 1272              	.LVL140:
 1273 0092 0028     		cmp	r0, #0
 1274 0094 F7D1     		bne	.L136
 1275              	.L114:
 1276              		.loc 2 1437 0
 1277 0096 012D     		cmp	r5, #1
 1278 0098 06D0     		beq	.L137
 1279              		.loc 2 1464 0
 1280 009a 86B1     		cbz	r6, .L138
 1281              	.L120:
 1282              		.loc 2 1483 0
 1283 009c 013D     		subs	r5, r5, #1
 1284              	.LVL141:
 1285 009e 08F10408 		add	r8, r8, #4
 1286 00a2 06F10809 		add	r9, r6, #8
 1287 00a6 E8E7     		b	.L123
 1288              	.LVL142:
 1289              	.L137:
 1290 00a8 FB68     		ldr	r3, [r7, #12]
 1291 00aa 03F1804A 		add	r10, r3, #1073741824
 1292              	.LVL143:
 1293 00ae 0AF1FF3A 		add	r10, r10, #-1
 1294              		.loc 2 1440 0
 1295 00b2 C6B1     		cbz	r6, .L139
 1296              	.LVL144:
 1297              	.L117:
 1298              	.LBE144:
 1299              	.LBE148:
 1300              		.loc 2 1510 0
ARM GAS  C:\Users\jo\AppData\Local\Temp\ccMF9q4g.s 			page 24


 1301 00b4 0020     		movs	r0, #0
 1302 00b6 1C37     		adds	r7, r7, #28
 1303              		.cfi_remember_state
 1304              		.cfi_def_cfa_offset 36
 1305              	.LVL145:
 1306 00b8 BD46     		mov	sp, r7
 1307              		.cfi_def_cfa_register 13
 1308              		@ sp needed
 1309 00ba BDE8F08F 		pop	{r4, r5, r6, r7, r8, r9, r10, fp, pc}
 1310              	.LVL146:
 1311              	.L138:
 1312              		.cfi_restore_state
 1313              	.LBB149:
 1314              	.LBB145:
 1315              		.loc 2 1467 0
 1316 00be D8F80010 		ldr	r1, [r8]
 1317 00c2 0220     		movs	r0, #2
 1318 00c4 FFF7FEFF 		bl	lcfgx_tree_node_new
 1319              	.LVL147:
 1320              		.loc 2 1468 0
 1321 00c8 C0F808A0 		str	r10, [r0, #8]
 1322              		.loc 2 1469 0
 1323 00cc C0F810A0 		str	r10, [r0, #16]
 1324              		.loc 2 1470 0
 1325 00d0 D9F80010 		ldr	r1, [r9]
 1326              		.loc 2 1467 0
 1327 00d4 0646     		mov	r6, r0
 1328              	.LVL148:
 1329              		.loc 2 1470 0
 1330 00d6 09B9     		cbnz	r1, .L122
 1331 00d8 2AE0     		b	.L140
 1332              	.LVL149:
 1333              	.L125:
 1334              	.LBB141:
 1335              		.loc 2 1473 0
 1336 00da 1146     		mov	r1, r2
 1337              	.LVL150:
 1338              	.L122:
 1339 00dc 0A69     		ldr	r2, [r1, #16]
 1340 00de 002A     		cmp	r2, #0
 1341 00e0 FBD1     		bne	.L125
 1342              		.loc 2 1475 0
 1343 00e2 0E61     		str	r6, [r1, #16]
 1344 00e4 DAE7     		b	.L120
 1345              	.LVL151:
 1346              	.L139:
 1347              	.LBE141:
 1348              		.loc 2 1443 0
 1349 00e6 5BF82A10 		ldr	r1, [fp, r10, lsl #2]
 1350 00ea 3046     		mov	r0, r6
 1351 00ec FFF7FEFF 		bl	lcfgx_tree_node_new
 1352              	.LVL152:
 1353              		.loc 2 1445 0
 1354 00f0 BB68     		ldr	r3, [r7, #8]
 1355              		.loc 2 1444 0
 1356 00f2 C360     		str	r3, [r0, #12]
 1357              		.loc 2 1445 0
ARM GAS  C:\Users\jo\AppData\Local\Temp\ccMF9q4g.s 			page 25


 1358 00f4 5D1C     		adds	r5, r3, #1
 1359              		.loc 2 1443 0
 1360 00f6 0446     		mov	r4, r0
 1361              	.LVL153:
 1362              		.loc 2 1445 0
 1363 00f8 2846     		mov	r0, r5
 1364              	.LVL154:
 1365 00fa FFF7FEFF 		bl	malloc
 1366              	.LVL155:
 1367              		.loc 2 1446 0
 1368 00fe 2A46     		mov	r2, r5
 1369 0100 3146     		mov	r1, r6
 1370              		.loc 2 1445 0
 1371 0102 A060     		str	r0, [r4, #8]
 1372              		.loc 2 1446 0
 1373 0104 FFF7FEFF 		bl	memset
 1374              	.LVL156:
 1375              		.loc 2 1447 0
 1376 0108 BA68     		ldr	r2, [r7, #8]
 1377 010a 7968     		ldr	r1, [r7, #4]
 1378 010c A068     		ldr	r0, [r4, #8]
 1379 010e FFF7FEFF 		bl	memcpy
 1380              	.LVL157:
 1381              		.loc 2 1448 0
 1382 0112 2661     		str	r6, [r4, #16]
 1383              		.loc 2 1449 0
 1384 0114 D9F80020 		ldr	r2, [r9]
 1385 0118 0AB9     		cbnz	r2, .L119
 1386 011a 0CE0     		b	.L141
 1387              	.LVL158:
 1388              	.L124:
 1389              	.LBB142:
 1390              		.loc 2 1452 0
 1391 011c 1A46     		mov	r2, r3
 1392              	.LVL159:
 1393              	.L119:
 1394 011e 1369     		ldr	r3, [r2, #16]
 1395 0120 002B     		cmp	r3, #0
 1396 0122 FBD1     		bne	.L124
 1397              	.LBE142:
 1398              	.LBE145:
 1399              	.LBE149:
 1400              		.loc 2 1510 0
 1401 0124 0020     		movs	r0, #0
 1402 0126 1C37     		adds	r7, r7, #28
 1403              		.cfi_remember_state
 1404              		.cfi_def_cfa_offset 36
 1405              	.LBB150:
 1406              	.LBB146:
 1407              	.LBB143:
 1408              		.loc 2 1454 0
 1409 0128 1461     		str	r4, [r2, #16]
 1410              	.LBE143:
 1411              	.LBE146:
 1412              	.LBE150:
 1413              		.loc 2 1510 0
 1414 012a BD46     		mov	sp, r7
ARM GAS  C:\Users\jo\AppData\Local\Temp\ccMF9q4g.s 			page 26


 1415              		.cfi_def_cfa_register 13
 1416              		@ sp needed
 1417 012c BDE8F08F 		pop	{r4, r5, r6, r7, r8, r9, r10, fp, pc}
 1418              	.LVL160:
 1419              	.L140:
 1420              		.cfi_restore_state
 1421              	.LBB151:
 1422              	.LBB147:
 1423              		.loc 2 1478 0
 1424 0130 C9F80000 		str	r0, [r9]
 1425 0134 B2E7     		b	.L120
 1426              	.LVL161:
 1427              	.L141:
 1428              		.loc 2 1457 0
 1429 0136 C9F80040 		str	r4, [r9]
 1430 013a BBE7     		b	.L117
 1431              	.L143:
 1432              		.align	2
 1433              	.L142:
 1434 013c 30000000 		.word	.LC23
 1435              	.LBE147:
 1436              	.LBE151:
 1437              		.cfi_endproc
 1438              	.LFE298:
 1439              		.size	lcfgx_tree_visitor, .-lcfgx_tree_visitor
 1440              		.section	.text.lcfg_parser_new,"ax",%progbits
 1441              		.align	2
 1442              		.p2align 4,,15
 1443              		.global	lcfg_parser_new
 1444              		.thumb
 1445              		.thumb_func
 1446              		.type	lcfg_parser_new, %function
 1447              	lcfg_parser_new:
 1448              	.LFB281:
 1449              		.loc 2 992 0
 1450              		.cfi_startproc
 1451              		@ args = 0, pretend = 0, frame = 0
 1452              		@ frame_needed = 0, uses_anonymous_args = 0
 1453              	.LVL162:
 1454 0000 F8B5     		push	{r3, r4, r5, r6, r7, lr}
 1455              		.cfi_def_cfa_offset 24
 1456              		.cfi_offset 3, -24
 1457              		.cfi_offset 4, -20
 1458              		.cfi_offset 5, -16
 1459              		.cfi_offset 6, -12
 1460              		.cfi_offset 7, -8
 1461              		.cfi_offset 14, -4
 1462              		.loc 2 992 0
 1463 0002 0646     		mov	r6, r0
 1464              		.loc 2 993 0
 1465 0004 1820     		movs	r0, #24
 1466              	.LVL163:
 1467              		.loc 2 992 0
 1468 0006 0F46     		mov	r7, r1
 1469              		.loc 2 993 0
 1470 0008 FFF7FEFF 		bl	malloc
 1471              	.LVL164:
ARM GAS  C:\Users\jo\AppData\Local\Temp\ccMF9q4g.s 			page 27


 1472              		.loc 2 994 0
 1473 000c 0446     		mov	r4, r0
 1474 000e D8B1     		cbz	r0, .L148
 1475              		.loc 2 996 0
 1476 0010 0346     		mov	r3, r0
 1477 0012 0025     		movs	r5, #0
 1478 0014 43F8045B 		str	r5, [r3], #4
 1479 0018 0433     		adds	r3, r3, #4
 1480 001a 4560     		str	r5, [r0, #4]
 1481 001c 43F8045B 		str	r5, [r3], #4
 1482 0020 43F8045B 		str	r5, [r3], #4
 1483 0024 43F8045B 		str	r5, [r3], #4
 1484              		.loc 2 998 0
 1485 0028 3846     		mov	r0, r7
 1486              	.LVL165:
 1487              		.loc 2 996 0
 1488 002a 1D60     		str	r5, [r3]
 1489              		.loc 2 998 0
 1490 002c FFF7FEFF 		bl	strdup
 1491              	.LVL166:
 1492              		.loc 2 1002 0
 1493 0030 0823     		movs	r3, #8
 1494              		.loc 2 998 0
 1495 0032 6060     		str	r0, [r4, #4]
 1496              		.loc 2 1001 0
 1497 0034 2561     		str	r5, [r4, #16]
 1498              		.loc 2 999 0
 1499 0036 2660     		str	r6, [r4]
 1500              		.loc 2 1002 0
 1501 0038 6361     		str	r3, [r4, #20]
 1502              		.loc 2 1003 0
 1503 003a 4020     		movs	r0, #64
 1504 003c FFF7FEFF 		bl	malloc
 1505              	.LVL167:
 1506 0040 E060     		str	r0, [r4, #12]
 1507              		.loc 2 1004 0
 1508 0042 40B1     		cbz	r0, .L149
 1509              		.loc 2 1007 0
 1510 0044 2046     		mov	r0, r4
 1511 0046 F8BD     		pop	{r3, r4, r5, r6, r7, pc}
 1512              	.LVL168:
 1513              	.L148:
 1514              	.LBB154:
 1515              	.LBB155:
 1516              		.loc 2 994 0
 1517 0048 0648     		ldr	r0, .L150
 1518              	.LVL169:
 1519 004a 074A     		ldr	r2, .L150+4
 1520 004c 074B     		ldr	r3, .L150+8
 1521 004e 40F2E231 		movw	r1, #994
 1522 0052 FFF7FEFF 		bl	__assert_func
 1523              	.LVL170:
 1524              	.L149:
 1525              	.LBE155:
 1526              	.LBE154:
 1527              		.loc 2 1004 0 discriminator 1
 1528 0056 0348     		ldr	r0, .L150
ARM GAS  C:\Users\jo\AppData\Local\Temp\ccMF9q4g.s 			page 28


 1529 0058 034A     		ldr	r2, .L150+4
 1530 005a 054B     		ldr	r3, .L150+12
 1531 005c 4FF47B71 		mov	r1, #1004
 1532 0060 FFF7FEFF 		bl	__assert_func
 1533              	.LVL171:
 1534              	.L151:
 1535              		.align	2
 1536              	.L150:
 1537 0064 00000000 		.word	.LC18
 1538 0068 00000000 		.word	.LANCHOR4
 1539 006c 34000000 		.word	.LC24
 1540 0070 24000000 		.word	.LC22
 1541              		.cfi_endproc
 1542              	.LFE281:
 1543              		.size	lcfg_parser_new, .-lcfg_parser_new
 1544 0074 AFF30080 		.section	.text.lcfg_parser_get,"ax",%progbits
 1544      AFF30080 
 1544      AFF30080 
 1545              		.align	2
 1546              		.p2align 4,,15
 1547              		.global	lcfg_parser_get
 1548              		.thumb
 1549              		.thumb_func
 1550              		.type	lcfg_parser_get, %function
 1551              	lcfg_parser_get:
 1552              	.LFB285:
 1553              		.loc 2 1230 0
 1554              		.cfi_startproc
 1555              		@ args = 0, pretend = 0, frame = 0
 1556              		@ frame_needed = 0, uses_anonymous_args = 0
 1557              	.LVL172:
 1558 0000 2DE9F84F 		push	{r3, r4, r5, r6, r7, r8, r9, r10, fp, lr}
 1559              		.cfi_def_cfa_offset 40
 1560              		.cfi_offset 3, -40
 1561              		.cfi_offset 4, -36
 1562              		.cfi_offset 5, -32
 1563              		.cfi_offset 6, -28
 1564              		.cfi_offset 7, -24
 1565              		.cfi_offset 8, -20
 1566              		.cfi_offset 9, -16
 1567              		.cfi_offset 10, -12
 1568              		.cfi_offset 11, -8
 1569              		.cfi_offset 14, -4
 1570              		.loc 2 1233 0
 1571 0004 0769     		ldr	r7, [r0, #16]
 1572 0006 2FB3     		cbz	r7, .L156
 1573 0008 C668     		ldr	r6, [r0, #12]
 1574 000a 9946     		mov	r9, r3
 1575 000c 9246     		mov	r10, r2
 1576 000e 0D46     		mov	r5, r1
 1577 0010 8046     		mov	r8, r0
 1578 0012 0024     		movs	r4, #0
 1579 0014 B346     		mov	fp, r6
 1580 0016 03E0     		b	.L155
 1581              	.LVL173:
 1582              	.L154:
 1583              		.loc 2 1233 0 is_stmt 0 discriminator 2
ARM GAS  C:\Users\jo\AppData\Local\Temp\ccMF9q4g.s 			page 29


 1584 0018 BC42     		cmp	r4, r7
 1585 001a 0BF1080B 		add	fp, fp, #8
 1586 001e 19D0     		beq	.L156
 1587              	.LVL174:
 1588              	.L155:
 1589              		.loc 2 1235 0 is_stmt 1
 1590 0020 56F83400 		ldr	r0, [r6, r4, lsl #3]
 1591 0024 2946     		mov	r1, r5
 1592 0026 FFF7FEFF 		bl	strcmp
 1593              	.LVL175:
 1594 002a E300     		lsls	r3, r4, #3
 1595              		.loc 2 1233 0
 1596 002c 0134     		adds	r4, r4, #1
 1597              	.LVL176:
 1598              		.loc 2 1235 0
 1599 002e 0028     		cmp	r0, #0
 1600 0030 F2D1     		bne	.L154
 1601              		.loc 2 1237 0
 1602 0032 DBF80420 		ldr	r2, [fp, #4]
 1603              	.LVL177:
 1604              	.LBB156:
 1605              	.LBB157:
 1606              		.loc 2 466 0
 1607 0036 1468     		ldr	r4, [r2]
 1608              	.LVL178:
 1609 0038 5168     		ldr	r1, [r2, #4]
 1610 003a 6054     		strb	r0, [r4, r1]
 1611              		.loc 2 467 0
 1612 003c 1268     		ldr	r2, [r2]
 1613              	.LVL179:
 1614              	.LBE157:
 1615              	.LBE156:
 1616              		.loc 2 1237 0
 1617 003e CAF80020 		str	r2, [r10]
 1618              	.LVL180:
 1619              		.loc 2 1238 0
 1620 0042 D8F80C20 		ldr	r2, [r8, #12]
 1621              	.LBB158:
 1622              	.LBB159:
 1623              		.loc 2 472 0
 1624 0046 1344     		add	r3, r3, r2
 1625              	.LVL181:
 1626 0048 5B68     		ldr	r3, [r3, #4]
 1627 004a 5B68     		ldr	r3, [r3, #4]
 1628              	.LBE159:
 1629              	.LBE158:
 1630              		.loc 2 1238 0
 1631 004c C9F80030 		str	r3, [r9]
 1632              		.loc 2 1239 0
 1633 0050 BDE8F88F 		pop	{r3, r4, r5, r6, r7, r8, r9, r10, fp, pc}
 1634              	.LVL182:
 1635              	.L156:
 1636              		.loc 2 1243 0
 1637 0054 0120     		movs	r0, #1
 1638              		.loc 2 1244 0
 1639 0056 BDE8F88F 		pop	{r3, r4, r5, r6, r7, r8, r9, r10, fp, pc}
 1640              		.cfi_endproc
ARM GAS  C:\Users\jo\AppData\Local\Temp\ccMF9q4g.s 			page 30


 1641              	.LFE285:
 1642              		.size	lcfg_parser_get, .-lcfg_parser_get
 1643 005a 00BFAFF3 		.section	.text.lcfg_parser_delete,"ax",%progbits
 1643      0080
 1644              		.align	2
 1645              		.p2align 4,,15
 1646              		.global	lcfg_parser_delete
 1647              		.thumb
 1648              		.thumb_func
 1649              		.type	lcfg_parser_delete, %function
 1650              	lcfg_parser_delete:
 1651              	.LFB286:
 1652              		.loc 2 1248 0
 1653              		.cfi_startproc
 1654              		@ args = 0, pretend = 0, frame = 0
 1655              		@ frame_needed = 0, uses_anonymous_args = 0
 1656              	.LVL183:
 1657 0000 70B5     		push	{r4, r5, r6, lr}
 1658              		.cfi_def_cfa_offset 16
 1659              		.cfi_offset 4, -16
 1660              		.cfi_offset 5, -12
 1661              		.cfi_offset 6, -8
 1662              		.cfi_offset 14, -4
 1663              		.loc 2 1248 0
 1664 0002 0546     		mov	r5, r0
 1665              		.loc 2 1249 0
 1666 0004 8068     		ldr	r0, [r0, #8]
 1667              	.LVL184:
 1668 0006 08B1     		cbz	r0, .L160
 1669              		.loc 2 1251 0
 1670 0008 FFF7FEFF 		bl	lcfg_scanner_delete
 1671              	.LVL185:
 1672              	.L160:
 1673              		.loc 2 1256 0 discriminator 1
 1674 000c 2B69     		ldr	r3, [r5, #16]
 1675 000e 0024     		movs	r4, #0
 1676 0010 93B1     		cbz	r3, .L162
 1677              	.LVL186:
 1678              	.L161:
 1679              		.loc 2 1258 0 discriminator 3
 1680 0012 EB68     		ldr	r3, [r5, #12]
 1681 0014 53F83400 		ldr	r0, [r3, r4, lsl #3]
 1682 0018 FFF7FEFF 		bl	free
 1683              	.LVL187:
 1684              		.loc 2 1259 0 discriminator 3
 1685 001c EA68     		ldr	r2, [r5, #12]
 1686 001e E300     		lsls	r3, r4, #3
 1687 0020 1344     		add	r3, r3, r2
 1688              		.loc 2 1256 0 discriminator 3
 1689 0022 0134     		adds	r4, r4, #1
 1690              	.LVL188:
 1691              		.loc 2 1259 0 discriminator 3
 1692 0024 5E68     		ldr	r6, [r3, #4]
 1693              	.LVL189:
 1694              	.LBB160:
 1695              	.LBB161:
 1696              		.loc 2 477 0 discriminator 3
ARM GAS  C:\Users\jo\AppData\Local\Temp\ccMF9q4g.s 			page 31


 1697 0026 3068     		ldr	r0, [r6]
 1698 0028 FFF7FEFF 		bl	free
 1699              	.LVL190:
 1700              		.loc 2 478 0 discriminator 3
 1701 002c 3046     		mov	r0, r6
 1702 002e FFF7FEFF 		bl	free
 1703              	.LVL191:
 1704              	.LBE161:
 1705              	.LBE160:
 1706              		.loc 2 1256 0 discriminator 3
 1707 0032 2B69     		ldr	r3, [r5, #16]
 1708 0034 9C42     		cmp	r4, r3
 1709 0036 ECD3     		bcc	.L161
 1710              	.LVL192:
 1711              	.L162:
 1712              		.loc 2 1261 0
 1713 0038 E868     		ldr	r0, [r5, #12]
 1714 003a FFF7FEFF 		bl	free
 1715              	.LVL193:
 1716              		.loc 2 1262 0
 1717 003e 6868     		ldr	r0, [r5, #4]
 1718 0040 FFF7FEFF 		bl	free
 1719              	.LVL194:
 1720              		.loc 2 1263 0
 1721 0044 2846     		mov	r0, r5
 1722              		.loc 2 1264 0
 1723 0046 BDE87040 		pop	{r4, r5, r6, lr}
 1724              		.cfi_restore 14
 1725              		.cfi_restore 6
 1726              		.cfi_restore 5
 1727              		.cfi_restore 4
 1728              		.cfi_def_cfa_offset 0
 1729              	.LVL195:
 1730              		.loc 2 1263 0
 1731 004a FFF7FEBF 		b	free
 1732              	.LVL196:
 1733              		.cfi_endproc
 1734              	.LFE286:
 1735              		.size	lcfg_parser_delete, .-lcfg_parser_delete
 1736 004e 00BF     		.section	.text.lcfg_new,"ax",%progbits
 1737              		.align	2
 1738              		.p2align 4,,15
 1739              		.global	lcfg_new
 1740              		.thumb
 1741              		.thumb_func
 1742              		.type	lcfg_new, %function
 1743              	lcfg_new:
 1744              	.LFB287:
 1745              		.loc 2 1302 0
 1746              		.cfi_startproc
 1747              		@ args = 0, pretend = 0, frame = 0
 1748              		@ frame_needed = 0, uses_anonymous_args = 0
 1749              	.LVL197:
 1750 0000 38B5     		push	{r3, r4, r5, lr}
 1751              		.cfi_def_cfa_offset 16
 1752              		.cfi_offset 3, -16
 1753              		.cfi_offset 4, -12
ARM GAS  C:\Users\jo\AppData\Local\Temp\ccMF9q4g.s 			page 32


 1754              		.cfi_offset 5, -8
 1755              		.cfi_offset 14, -4
 1756              		.loc 2 1302 0
 1757 0002 0546     		mov	r5, r0
 1758              		.loc 2 1303 0
 1759 0004 4FF48270 		mov	r0, #260
 1760              	.LVL198:
 1761 0008 FFF7FEFF 		bl	malloc
 1762              	.LVL199:
 1763              		.loc 2 1304 0
 1764 000c 70B1     		cbz	r0, .L173
 1765 000e 0446     		mov	r4, r0
 1766              		.loc 2 1305 0
 1767 0010 0021     		movs	r1, #0
 1768 0012 4FF48272 		mov	r2, #260
 1769 0016 FFF7FEFF 		bl	memset
 1770              	.LVL200:
 1771              		.loc 2 1307 0
 1772 001a 2046     		mov	r0, r4
 1773 001c 2946     		mov	r1, r5
 1774 001e FFF7FEFF 		bl	lcfg_parser_new
 1775              	.LVL201:
 1776 0022 C4F80001 		str	r0, [r4, #256]
 1777              		.loc 2 1308 0
 1778 0026 40B1     		cbz	r0, .L174
 1779              		.loc 2 1311 0
 1780 0028 2046     		mov	r0, r4
 1781 002a 38BD     		pop	{r3, r4, r5, pc}
 1782              	.LVL202:
 1783              	.L173:
 1784              		.loc 2 1304 0 discriminator 1
 1785 002c 0648     		ldr	r0, .L175
 1786              	.LVL203:
 1787 002e 074A     		ldr	r2, .L175+4
 1788 0030 074B     		ldr	r3, .L175+8
 1789 0032 4FF4A361 		mov	r1, #1304
 1790 0036 FFF7FEFF 		bl	__assert_func
 1791              	.LVL204:
 1792              	.L174:
 1793              		.loc 2 1308 0 discriminator 1
 1794 003a 0348     		ldr	r0, .L175
 1795 003c 034A     		ldr	r2, .L175+4
 1796 003e 054B     		ldr	r3, .L175+12
 1797 0040 40F21C51 		movw	r1, #1308
 1798 0044 FFF7FEFF 		bl	__assert_func
 1799              	.LVL205:
 1800              	.L176:
 1801              		.align	2
 1802              	.L175:
 1803 0048 00000000 		.word	.LC18
 1804 004c 00000000 		.word	.LANCHOR5
 1805 0050 38000000 		.word	.LC25
 1806 0054 3C000000 		.word	.LC26
 1807              		.cfi_endproc
 1808              	.LFE287:
 1809              		.size	lcfg_new, .-lcfg_new
 1810 0058 AFF30080 		.section	.text.lcfg_delete,"ax",%progbits
ARM GAS  C:\Users\jo\AppData\Local\Temp\ccMF9q4g.s 			page 33


 1810      AFF30080 
 1811              		.align	2
 1812              		.p2align 4,,15
 1813              		.global	lcfg_delete
 1814              		.thumb
 1815              		.thumb_func
 1816              		.type	lcfg_delete, %function
 1817              	lcfg_delete:
 1818              	.LFB288:
 1819              		.loc 2 1314 0
 1820              		.cfi_startproc
 1821              		@ args = 0, pretend = 0, frame = 0
 1822              		@ frame_needed = 0, uses_anonymous_args = 0
 1823              	.LVL206:
 1824 0000 10B5     		push	{r4, lr}
 1825              		.cfi_def_cfa_offset 8
 1826              		.cfi_offset 4, -8
 1827              		.cfi_offset 14, -4
 1828              		.loc 2 1314 0
 1829 0002 0446     		mov	r4, r0
 1830              		.loc 2 1315 0
 1831 0004 D0F80001 		ldr	r0, [r0, #256]
 1832              	.LVL207:
 1833 0008 FFF7FEFF 		bl	lcfg_parser_delete
 1834              	.LVL208:
 1835              		.loc 2 1316 0
 1836 000c 2046     		mov	r0, r4
 1837              		.loc 2 1317 0
 1838 000e BDE81040 		pop	{r4, lr}
 1839              		.cfi_restore 14
 1840              		.cfi_restore 4
 1841              		.cfi_def_cfa_offset 0
 1842              	.LVL209:
 1843              		.loc 2 1316 0
 1844 0012 FFF7FEBF 		b	free
 1845              	.LVL210:
 1846              		.cfi_endproc
 1847              	.LFE288:
 1848              		.size	lcfg_delete, .-lcfg_delete
 1849 0016 00BFAFF3 		.section	.text.lcfg_error_get,"ax",%progbits
 1849      0080AFF3 
 1849      0080
 1850              		.align	2
 1851              		.p2align 4,,15
 1852              		.global	lcfg_error_get
 1853              		.thumb
 1854              		.thumb_func
 1855              		.type	lcfg_error_get, %function
 1856              	lcfg_error_get:
 1857              	.LFB289:
 1858              		.loc 2 1320 0
 1859              		.cfi_startproc
 1860              		@ args = 0, pretend = 0, frame = 0
 1861              		@ frame_needed = 0, uses_anonymous_args = 0
 1862              		@ link register save eliminated.
 1863              	.LVL211:
 1864              		.loc 2 1322 0
ARM GAS  C:\Users\jo\AppData\Local\Temp\ccMF9q4g.s 			page 34


 1865 0000 7047     		bx	lr
 1866              		.cfi_endproc
 1867              	.LFE289:
 1868              		.size	lcfg_error_get, .-lcfg_error_get
 1869 0002 00BFAFF3 		.section	.text.lcfg_value_get,"ax",%progbits
 1869      0080AFF3 
 1869      0080AFF3 
 1869      0080
 1870              		.align	2
 1871              		.p2align 4,,15
 1872              		.global	lcfg_value_get
 1873              		.thumb
 1874              		.thumb_func
 1875              		.type	lcfg_value_get, %function
 1876              	lcfg_value_get:
 1877              	.LFB292:
 1878              		.loc 2 1335 0
 1879              		.cfi_startproc
 1880              		@ args = 0, pretend = 0, frame = 0
 1881              		@ frame_needed = 0, uses_anonymous_args = 0
 1882              		@ link register save eliminated.
 1883              	.LVL212:
 1884              		.loc 2 1336 0
 1885 0000 D0F80001 		ldr	r0, [r0, #256]
 1886              	.LVL213:
 1887 0004 FFF7FEBF 		b	lcfg_parser_get
 1888              	.LVL214:
 1889              		.cfi_endproc
 1890              	.LFE292:
 1891              		.size	lcfg_value_get, .-lcfg_value_get
 1892 0008 AFF30080 		.section	.text.lcfg_error_set,"ax",%progbits
 1892      AFF30080 
 1893              		.align	2
 1894              		.p2align 4,,15
 1895              		.global	lcfg_error_set
 1896              		.thumb
 1897              		.thumb_func
 1898              		.type	lcfg_error_set, %function
 1899              	lcfg_error_set:
 1900              	.LFB293:
 1901              		.loc 2 1340 0
 1902              		.cfi_startproc
 1903              		@ args = 4, pretend = 12, frame = 8
 1904              		@ frame_needed = 0, uses_anonymous_args = 1
 1905              	.LVL215:
 1906 0000 0EB4     		push	{r1, r2, r3}
 1907              		.cfi_def_cfa_offset 12
 1908              		.cfi_offset 1, -12
 1909              		.cfi_offset 2, -8
 1910              		.cfi_offset 3, -4
 1911 0002 00B5     		push	{lr}
 1912              		.cfi_def_cfa_offset 16
 1913              		.cfi_offset 14, -16
 1914 0004 82B0     		sub	sp, sp, #8
 1915              		.cfi_def_cfa_offset 24
 1916              		.loc 2 1340 0
 1917 0006 03AB     		add	r3, sp, #12
ARM GAS  C:\Users\jo\AppData\Local\Temp\ccMF9q4g.s 			page 35


 1918              		.loc 2 1343 0
 1919 0008 FF21     		movs	r1, #255
 1920              		.loc 2 1340 0
 1921 000a 53F8042B 		ldr	r2, [r3], #4
 1922              		.loc 2 1342 0
 1923 000e 0193     		str	r3, [sp, #4]
 1924              		.loc 2 1343 0
 1925 0010 FFF7FEFF 		bl	vsnprintf
 1926              	.LVL216:
 1927              		.loc 2 1345 0
 1928 0014 02B0     		add	sp, sp, #8
 1929              		.cfi_def_cfa_offset 16
 1930              		@ sp needed
 1931 0016 5DF804EB 		ldr	lr, [sp], #4
 1932              		.cfi_restore 14
 1933              		.cfi_def_cfa_offset 12
 1934 001a 03B0     		add	sp, sp, #12
 1935              		.cfi_restore 3
 1936              		.cfi_restore 2
 1937              		.cfi_restore 1
 1938              		.cfi_def_cfa_offset 0
 1939 001c 7047     		bx	lr
 1940              		.cfi_endproc
 1941              	.LFE293:
 1942              		.size	lcfg_error_set, .-lcfg_error_set
 1943 001e 00BF     		.section	.text.lcfg_parser_accept,"ax",%progbits
 1944              		.align	2
 1945              		.p2align 4,,15
 1946              		.global	lcfg_parser_accept
 1947              		.thumb
 1948              		.thumb_func
 1949              		.type	lcfg_parser_accept, %function
 1950              	lcfg_parser_accept:
 1951              	.LFB284:
 1952              		.loc 2 1214 0
 1953              		.cfi_startproc
 1954              		@ args = 0, pretend = 0, frame = 0
 1955              		@ frame_needed = 0, uses_anonymous_args = 0
 1956              	.LVL217:
 1957 0000 2DE9F843 		push	{r3, r4, r5, r6, r7, r8, r9, lr}
 1958              		.cfi_def_cfa_offset 32
 1959              		.cfi_offset 3, -32
 1960              		.cfi_offset 4, -28
 1961              		.cfi_offset 5, -24
 1962              		.cfi_offset 6, -20
 1963              		.cfi_offset 7, -16
 1964              		.cfi_offset 8, -12
 1965              		.cfi_offset 9, -8
 1966              		.cfi_offset 14, -4
 1967              		.loc 2 1217 0
 1968 0004 0369     		ldr	r3, [r0, #16]
 1969 0006 23B3     		cbz	r3, .L187
 1970 0008 0024     		movs	r4, #0
 1971 000a 9046     		mov	r8, r2
 1972 000c 0F46     		mov	r7, r1
 1973 000e 0646     		mov	r6, r0
 1974              	.LBB172:
ARM GAS  C:\Users\jo\AppData\Local\Temp\ccMF9q4g.s 			page 36


 1975              	.LBB173:
 1976              		.loc 2 466 0
 1977 0010 A146     		mov	r9, r4
 1978 0012 02E0     		b	.L184
 1979              	.LVL218:
 1980              	.L186:
 1981              	.LBE173:
 1982              	.LBE172:
 1983              		.loc 2 1217 0 discriminator 2
 1984 0014 3369     		ldr	r3, [r6, #16]
 1985 0016 9C42     		cmp	r4, r3
 1986 0018 1BD2     		bcs	.L187
 1987              	.LVL219:
 1988              	.L184:
 1989              		.loc 2 1219 0
 1990 001a F268     		ldr	r2, [r6, #12]
 1991 001c E300     		lsls	r3, r4, #3
 1992 001e D118     		adds	r1, r2, r3
 1993 0020 52F83400 		ldr	r0, [r2, r4, lsl #3]
 1994 0024 4D68     		ldr	r5, [r1, #4]
 1995              	.LVL220:
 1996              	.LBB175:
 1997              	.LBB174:
 1998              		.loc 2 466 0
 1999 0026 95E80600 		ldmia	r5, {r1, r2}
 2000 002a 01F80290 		strb	r9, [r1, r2]
 2001              	.LVL221:
 2002              	.LBE174:
 2003              	.LBE175:
 2004              		.loc 2 1219 0
 2005 002e F268     		ldr	r2, [r6, #12]
 2006 0030 2968     		ldr	r1, [r5]
 2007              	.LBB176:
 2008              	.LBB177:
 2009              		.loc 2 472 0
 2010 0032 1344     		add	r3, r3, r2
 2011              	.LVL222:
 2012              	.LBE177:
 2013              	.LBE176:
 2014              		.loc 2 1217 0
 2015 0034 0134     		adds	r4, r4, #1
 2016              	.LVL223:
 2017              	.LBB179:
 2018              	.LBB178:
 2019              		.loc 2 472 0
 2020 0036 5A68     		ldr	r2, [r3, #4]
 2021              	.LBE178:
 2022              	.LBE179:
 2023              		.loc 2 1219 0
 2024 0038 4346     		mov	r3, r8
 2025 003a 5268     		ldr	r2, [r2, #4]
 2026 003c B847     		blx	r7
 2027              	.LVL224:
 2028 003e 0028     		cmp	r0, #0
 2029 0040 E8D0     		beq	.L186
 2030              	.LVL225:
 2031              	.LBB180:
ARM GAS  C:\Users\jo\AppData\Local\Temp\ccMF9q4g.s 			page 37


 2032              	.LBB181:
 2033              		.loc 2 1221 0
 2034 0042 3068     		ldr	r0, [r6]
 2035 0044 0449     		ldr	r1, .L191
 2036 0046 054A     		ldr	r2, .L191+4
 2037 0048 FFF7FEFF 		bl	lcfg_error_set
 2038              	.LVL226:
 2039 004c 0120     		movs	r0, #1
 2040 004e BDE8F883 		pop	{r3, r4, r5, r6, r7, r8, r9, pc}
 2041              	.LVL227:
 2042              	.L187:
 2043              	.LBE181:
 2044              	.LBE180:
 2045              		.loc 2 1226 0
 2046 0052 0020     		movs	r0, #0
 2047 0054 BDE8F883 		pop	{r3, r4, r5, r6, r7, r8, r9, pc}
 2048              	.L192:
 2049              		.align	2
 2050              	.L191:
 2051 0058 48000000 		.word	.LC27
 2052 005c 4C000000 		.word	.LC28
 2053              		.cfi_endproc
 2054              	.LFE284:
 2055              		.size	lcfg_parser_accept, .-lcfg_parser_accept
 2056              		.section	.text.lcfg_accept,"ax",%progbits
 2057              		.align	2
 2058              		.p2align 4,,15
 2059              		.global	lcfg_accept
 2060              		.thumb
 2061              		.thumb_func
 2062              		.type	lcfg_accept, %function
 2063              	lcfg_accept:
 2064              	.LFB291:
 2065              		.loc 2 1330 0
 2066              		.cfi_startproc
 2067              		@ args = 0, pretend = 0, frame = 0
 2068              		@ frame_needed = 0, uses_anonymous_args = 0
 2069              		@ link register save eliminated.
 2070              	.LVL228:
 2071              		.loc 2 1331 0
 2072 0000 D0F80001 		ldr	r0, [r0, #256]
 2073              	.LVL229:
 2074 0004 FFF7FEBF 		b	lcfg_parser_accept
 2075              	.LVL230:
 2076              		.cfi_endproc
 2077              	.LFE291:
 2078              		.size	lcfg_accept, .-lcfg_accept
 2079 0008 AFF30080 		.section	.text.lcfg_scanner_token_read,"ax",%progbits
 2079      AFF30080 
 2080              		.align	2
 2081              		.p2align 4,,15
 2082              		.thumb
 2083              		.thumb_func
 2084              		.type	lcfg_scanner_token_read, %function
 2085              	lcfg_scanner_token_read:
 2086              	.LFB273:
 2087              		.loc 2 642 0
ARM GAS  C:\Users\jo\AppData\Local\Temp\ccMF9q4g.s 			page 38


 2088              		.cfi_startproc
 2089              		@ args = 0, pretend = 0, frame = 48
 2090              		@ frame_needed = 0, uses_anonymous_args = 0
 2091              	.LVL231:
 2092 0000 2DE9F047 		push	{r4, r5, r6, r7, r8, r9, r10, lr}
 2093              		.cfi_def_cfa_offset 32
 2094              		.cfi_offset 4, -32
 2095              		.cfi_offset 5, -28
 2096              		.cfi_offset 6, -24
 2097              		.cfi_offset 7, -20
 2098              		.cfi_offset 8, -16
 2099              		.cfi_offset 9, -12
 2100              		.cfi_offset 10, -8
 2101              		.cfi_offset 14, -4
 2102              		.loc 2 645 0
 2103 0004 A14E     		ldr	r6, .L357
 2104              	.LBB209:
 2105              	.LBB210:
 2106              	.LBB211:
 2107              	.LBB212:
 2108              		.loc 2 607 0
 2109 0006 DFF8A882 		ldr	r8, .L357+36
 2110              	.LBE212:
 2111              	.LBE211:
 2112              	.LBE210:
 2113              	.LBE209:
 2114              		.loc 2 642 0
 2115 000a 0446     		mov	r4, r0
 2116              		.loc 2 645 0
 2117 000c 0FCE     		ldmia	r6!, {r0, r1, r2, r3}
 2118              	.LVL232:
 2119              		.loc 2 642 0
 2120 000e 8EB0     		sub	sp, sp, #56
 2121              		.cfi_def_cfa_offset 88
 2122              		.loc 2 645 0
 2123 0010 03AD     		add	r5, sp, #12
 2124 0012 0FC5     		stmia	r5!, {r0, r1, r2, r3}
 2125 0014 0FCE     		ldmia	r6!, {r0, r1, r2, r3}
 2126 0016 0FC5     		stmia	r5!, {r0, r1, r2, r3}
 2127 0018 96E80700 		ldmia	r6, {r0, r1, r2}
 2128 001c 85E80700 		stmia	r5, {r0, r1, r2}
 2129              	.LVL233:
 2130              		.loc 2 649 0
 2131 0020 0023     		movs	r3, #0
 2132              		.loc 2 646 0
 2133 0022 1E46     		mov	r6, r3
 2134              		.loc 2 649 0
 2135 0024 84F81831 		strb	r3, [r4, #280]
 2136              		.loc 2 644 0
 2137 0028 1F46     		mov	r7, r3
 2138              	.LVL234:
 2139              	.L195:
 2140              	.LBB226:
 2141              	.LBB223:
 2142              		.loc 2 592 0
 2143 002a D4F81051 		ldr	r5, [r4, #272]
 2144 002e 002D     		cmp	r5, #0
ARM GAS  C:\Users\jo\AppData\Local\Temp\ccMF9q4g.s 			page 39


 2145 0030 40F03482 		bne	.L273
 2146              	.LVL235:
 2147              	.LBB220:
 2148              	.LBB217:
 2149              		.loc 2 598 0
 2150 0034 D4F80C31 		ldr	r3, [r4, #268]
 2151 0038 1946     		mov	r1, r3
 2152 003a 002B     		cmp	r3, #0
 2153 003c 00F0B681 		beq	.L275
 2154 0040 D4F80821 		ldr	r2, [r4, #264]
 2155 0044 FF2A     		cmp	r2, #255
 2156 0046 00F0B181 		beq	.L275
 2157              		.loc 2 604 0
 2158 004a FE2B     		cmp	r3, #254
 2159 004c 03DC     		bgt	.L294
 2160 004e 9342     		cmp	r3, r2
 2161 0050 00F0D981 		beq	.L296
 2162 0054 1946     		mov	r1, r3
 2163              	.L294:
 2164              	.LVL236:
 2165              	.LBE217:
 2166              	.LBE220:
 2167              	.LBE223:
 2168              	.LBE226:
 2169              	.LBB227:
 2170              	.LBB228:
 2171              	.LBB229:
 2172              	.LBB230:
 2173              	.LBB231:
 2174              	.LBB232:
 2175              		.loc 2 598 0
 2176 0056 002B     		cmp	r3, #0
 2177 0058 40F0F781 		bne	.L297
 2178              	.L196:
 2179              	.LVL237:
 2180              	.LBB233:
 2181              	.LBB234:
 2182              		.loc 2 573 0
 2183 005c 04F10809 		add	r9, r4, #8
 2184 0060 4946     		mov	r1, r9
 2185 0062 6068     		ldr	r0, [r4, #4]
 2186 0064 FF22     		movs	r2, #255
 2187 0066 FFF7FEFF 		bl	read
 2188              	.LVL238:
 2189 006a 0028     		cmp	r0, #0
 2190 006c 0346     		mov	r3, r0
 2191 006e C4F80C01 		str	r0, [r4, #268]
 2192 0072 C0F2B583 		blt	.L337
 2193              		.loc 2 580 0
 2194 0076 0BBF     		itete	eq
 2195 0078 0122     		moveq	r2, #1
 2196              		.loc 2 584 0
 2197 007a 0022     		movne	r2, #0
 2198              		.loc 2 580 0
 2199 007c C4F81021 		streq	r2, [r4, #272]
 2200              		.loc 2 584 0
 2201 0080 C4F80821 		strne	r2, [r4, #264]
ARM GAS  C:\Users\jo\AppData\Local\Temp\ccMF9q4g.s 			page 40


 2202              	.L199:
 2203              	.LBE234:
 2204              	.LBE233:
 2205              		.loc 2 601 0
 2206 0084 4A46     		mov	r2, r9
 2207 0086 8249     		ldr	r1, .L357+4
 2208 0088 8248     		ldr	r0, .L357+8
 2209 008a FFF7FEFF 		bl	chprintf.constprop.11
 2210              	.LVL239:
 2211              		.loc 2 602 0
 2212 008e D4F81021 		ldr	r2, [r4, #272]
 2213 0092 814B     		ldr	r3, .L357+12
 2214 0094 8149     		ldr	r1, .L357+16
 2215 0096 7F48     		ldr	r0, .L357+8
 2216 0098 002A     		cmp	r2, #0
 2217 009a 14BF     		ite	ne
 2218 009c 4246     		movne	r2, r8
 2219 009e 1A46     		moveq	r2, r3
 2220 00a0 FFF7FEFF 		bl	chprintf.constprop.11
 2221              	.LVL240:
 2222              		.loc 2 604 0
 2223 00a4 D4F80C11 		ldr	r1, [r4, #268]
 2224 00a8 FE29     		cmp	r1, #254
 2225 00aa 04DC     		bgt	.L203
 2226 00ac D4F80821 		ldr	r2, [r4, #264]
 2227 00b0 9142     		cmp	r1, r2
 2228 00b2 00F0D581 		beq	.L338
 2229              	.LVL241:
 2230              	.L203:
 2231              	.LBE232:
 2232              	.LBE231:
 2233              	.LBE230:
 2234              		.loc 2 629 0
 2235 00b6 D4F81031 		ldr	r3, [r4, #272]
 2236 00ba 002B     		cmp	r3, #0
 2237 00bc 40F0F481 		bne	.L339
 2238 00c0 D4F80821 		ldr	r2, [r4, #264]
 2239              	.L290:
 2240              		.loc 2 635 0
 2241 00c4 2244     		add	r2, r2, r4
 2242 00c6 167A     		ldrb	r6, [r2, #8]	@ zero_extendqisi2
 2243              	.LVL242:
 2244              	.L206:
 2245              	.LBE229:
 2246              	.LBE228:
 2247              		.loc 2 656 0
 2248 00c8 7B1E     		subs	r3, r7, #1
 2249 00ca 082B     		cmp	r3, #8
 2250 00cc 00F2F280 		bhi	.L207
 2251 00d0 DFE813F0 		tbh	[pc, r3, lsl #1]
 2252              	.L209:
 2253 00d4 B700     		.2byte	(.L208-.L209)/2
 2254 00d6 AC00     		.2byte	(.L210-.L209)/2
 2255 00d8 A100     		.2byte	(.L211-.L209)/2
 2256 00da 9200     		.2byte	(.L212-.L209)/2
 2257 00dc 7900     		.2byte	(.L213-.L209)/2
 2258 00de 6600     		.2byte	(.L214-.L209)/2
ARM GAS  C:\Users\jo\AppData\Local\Temp\ccMF9q4g.s 			page 41


 2259 00e0 4500     		.2byte	(.L215-.L209)/2
 2260 00e2 0900     		.2byte	(.L216-.L209)/2
 2261 00e4 F001     		.2byte	(.L217-.L209)/2
 2262              		.p2align 1
 2263              	.L216:
 2264              		.loc 2 800 0
 2265 00e6 6E4F     		ldr	r7, .L357+20
 2266              	.LVL243:
 2267 00e8 751C     		adds	r5, r6, #1
 2268 00ea 3B68     		ldr	r3, [r7]
 2269 00ec 5A5D     		ldrb	r2, [r3, r5]	@ zero_extendqisi2
 2270 00ee 12F0440F 		tst	r2, #68
 2271 00f2 2B44     		add	r3, r3, r5
 2272 00f4 00F09282 		beq	.L340
 2273              	.L256:
 2274              		.loc 2 807 0
 2275 00f8 0925     		movs	r5, #9
 2276              		.loc 2 805 0
 2277 00fa 8DF80860 		strb	r6, [sp, #8]
 2278              	.LVL244:
 2279              		.loc 2 806 0
 2280 00fe 2F46     		mov	r7, r5
 2281              		.loc 2 653 0
 2282 0100 4FF00109 		mov	r9, #1
 2283              	.LVL245:
 2284              	.L229:
 2285              		.loc 2 823 0
 2286 0104 B4F91611 		ldrsh	r1, [r4, #278]
 2287 0108 1A78     		ldrb	r2, [r3]	@ zero_extendqisi2
 2288 010a B4F91431 		ldrsh	r3, [r4, #276]
 2289 010e 0091     		str	r1, [sp]
 2290 0110 0EA9     		add	r1, sp, #56
 2291 0112 01EB8505 		add	r5, r1, r5, lsl #2
 2292 0116 12F0970F 		tst	r2, #151
 2293 011a 55F82C2C 		ldr	r2, [r5, #-44]
 2294 011e 0192     		str	r2, [sp, #4]
 2295 0120 5C48     		ldr	r0, .L357+8
 2296 0122 6049     		ldr	r1, .L357+24
 2297 0124 14BF     		ite	ne
 2298 0126 3246     		movne	r2, r6
 2299 0128 2E22     		moveq	r2, #46
 2300 012a FFF7FEFF 		bl	chprintf.constprop.11
 2301              	.LVL246:
 2302              		.loc 2 826 0
 2303 012e B4F81421 		ldrh	r2, [r4, #276]
 2304              		.loc 2 827 0
 2305 0132 B4F81631 		ldrh	r3, [r4, #278]
 2306              		.loc 2 826 0
 2307 0136 A4F82021 		strh	r2, [r4, #288]	@ movhi
 2308              		.loc 2 827 0
 2309 013a A4F82231 		strh	r3, [r4, #290]	@ movhi
 2310              		.loc 2 829 0
 2311 013e B9F1000F 		cmp	r9, #0
 2312 0142 40F09681 		bne	.L341
 2313              	.LVL247:
 2314              	.L259:
 2315              		.loc 2 843 0
ARM GAS  C:\Users\jo\AppData\Local\Temp\ccMF9q4g.s 			page 42


 2316 0146 94F81831 		ldrb	r3, [r4, #280]	@ zero_extendqisi2
 2317 014a 002B     		cmp	r3, #0
 2318 014c 40F0A681 		bne	.L273
 2319              	.L353:
 2320              		.loc 2 843 0 is_stmt 0 discriminator 1
 2321 0150 0A2F     		cmp	r7, #10
 2322 0152 7FF46AAF 		bne	.L195
 2323              	.LVL248:
 2324              	.L333:
 2325              	.LBE227:
 2326              		.loc 2 856 0 is_stmt 1
 2327 0156 0120     		movs	r0, #1
 2328              		.loc 2 860 0
 2329 0158 0EB0     		add	sp, sp, #56
 2330              		.cfi_remember_state
 2331              		.cfi_def_cfa_offset 32
 2332              		@ sp needed
 2333 015a BDE8F087 		pop	{r4, r5, r6, r7, r8, r9, r10, pc}
 2334              	.LVL249:
 2335              	.L215:
 2336              		.cfi_restore_state
 2337              	.LBB285:
 2338              		.loc 2 771 0
 2339 015e 6E2E     		cmp	r6, #110
 2340 0160 00F07483 		beq	.L248
 2341 0164 40F2EB81 		bls	.L342
 2342 0168 742E     		cmp	r6, #116
 2343 016a 00F04883 		beq	.L253
 2344 016e 782E     		cmp	r6, #120
 2345 0170 00F09482 		beq	.L254
 2346 0174 722E     		cmp	r6, #114
 2347 0176 00F04F83 		beq	.L343
 2348              	.L247:
 2349              		.loc 2 795 0
 2350 017a B4F91621 		ldrsh	r2, [r4, #278]
 2351 017e B4F91431 		ldrsh	r3, [r4, #276]
 2352 0182 2068     		ldr	r0, [r4]
 2353 0184 4849     		ldr	r1, .L357+28
 2354 0186 0092     		str	r2, [sp]
 2355 0188 3246     		mov	r2, r6
 2356 018a FFF7FEFF 		bl	lcfg_error_set
 2357              	.LVL250:
 2358 018e 444B     		ldr	r3, .L357+20
 2359 0190 1A68     		ldr	r2, [r3]
 2360 0192 0A25     		movs	r5, #10
 2361 0194 731C     		adds	r3, r6, #1
 2362 0196 1344     		add	r3, r3, r2
 2363              		.loc 2 796 0
 2364 0198 2F46     		mov	r7, r5
 2365              		.loc 2 653 0
 2366 019a 4FF00109 		mov	r9, #1
 2367 019e B1E7     		b	.L229
 2368              	.LVL251:
 2369              	.L214:
 2370              		.loc 2 755 0
 2371 01a0 222E     		cmp	r6, #34
 2372 01a2 00F04882 		beq	.L344
ARM GAS  C:\Users\jo\AppData\Local\Temp\ccMF9q4g.s 			page 43


 2373              		.loc 2 760 0
 2374 01a6 5C2E     		cmp	r6, #92
 2375 01a8 00F0DF81 		beq	.L345
 2376              		.loc 2 766 0
 2377 01ac D4F81C01 		ldr	r0, [r4, #284]
 2378 01b0 3146     		mov	r1, r6
 2379 01b2 FFF7FEFF 		bl	lcfg_string_cat_char
 2380              	.LVL252:
 2381 01b6 3A4B     		ldr	r3, .L357+20
 2382 01b8 1A68     		ldr	r2, [r3]
 2383 01ba 731C     		adds	r3, r6, #1
 2384 01bc 1344     		add	r3, r3, r2
 2385 01be 0625     		movs	r5, #6
 2386              		.loc 2 653 0
 2387 01c0 4FF00109 		mov	r9, #1
 2388 01c4 9EE7     		b	.L229
 2389              	.L213:
 2390              		.loc 2 743 0
 2391 01c6 DFF8D890 		ldr	r9, .L357+20
 2392 01ca 06F1010A 		add	r10, r6, #1
 2393 01ce D9F80030 		ldr	r3, [r9]
 2394 01d2 13F80A20 		ldrb	r2, [r3, r10]	@ zero_extendqisi2
 2395 01d6 12F00702 		ands	r2, r2, #7
 2396 01da 5344     		add	r3, r3, r10
 2397 01dc 40F02481 		bne	.L243
 2398              		.loc 2 743 0 is_stmt 0 discriminator 1
 2399 01e0 2D2E     		cmp	r6, #45
 2400 01e2 00F02181 		beq	.L243
 2401              		.loc 2 743 0 discriminator 2
 2402 01e6 5F2E     		cmp	r6, #95
 2403 01e8 00F01E81 		beq	.L243
 2404              		.loc 2 750 0 is_stmt 1
 2405 01ec 1746     		mov	r7, r2
 2406              	.LVL253:
 2407              		.loc 2 749 0
 2408 01ee 0122     		movs	r2, #1
 2409              		.loc 2 751 0
 2410 01f0 B946     		mov	r9, r7
 2411              		.loc 2 749 0
 2412 01f2 84F81821 		strb	r2, [r4, #280]
 2413              	.LVL254:
 2414 01f6 85E7     		b	.L229
 2415              	.LVL255:
 2416              	.L212:
 2417              		.loc 2 733 0
 2418 01f8 2F2E     		cmp	r6, #47
 2419 01fa 294B     		ldr	r3, .L357+20
 2420 01fc 00F03A82 		beq	.L346
 2421              		.loc 2 737 0
 2422 0200 2A2E     		cmp	r6, #42
 2423 0202 00F04582 		beq	.L242
 2424 0206 1A68     		ldr	r2, [r3]
 2425 0208 0325     		movs	r5, #3
 2426 020a 731C     		adds	r3, r6, #1
 2427 020c 1344     		add	r3, r3, r2
 2428              		.loc 2 739 0
 2429 020e 2F46     		mov	r7, r5
ARM GAS  C:\Users\jo\AppData\Local\Temp\ccMF9q4g.s 			page 44


 2430              	.LVL256:
 2431              		.loc 2 653 0
 2432 0210 4FF00109 		mov	r9, #1
 2433 0214 76E7     		b	.L229
 2434              	.LVL257:
 2435              	.L211:
 2436              		.loc 2 727 0
 2437 0216 2A2E     		cmp	r6, #42
 2438 0218 214B     		ldr	r3, .L357+20
 2439 021a 00F02482 		beq	.L347
 2440 021e 1A68     		ldr	r2, [r3]
 2441 0220 731C     		adds	r3, r6, #1
 2442 0222 1344     		add	r3, r3, r2
 2443 0224 0325     		movs	r5, #3
 2444              		.loc 2 653 0
 2445 0226 4FF00109 		mov	r9, #1
 2446 022a 6BE7     		b	.L229
 2447              	.L210:
 2448              		.loc 2 721 0
 2449 022c 0A2E     		cmp	r6, #10
 2450 022e 1C4B     		ldr	r3, .L357+20
 2451 0230 00F01382 		beq	.L348
 2452 0234 1A68     		ldr	r2, [r3]
 2453 0236 731C     		adds	r3, r6, #1
 2454 0238 1344     		add	r3, r3, r2
 2455 023a 0225     		movs	r5, #2
 2456              		.loc 2 653 0
 2457 023c 4FF00109 		mov	r9, #1
 2458 0240 60E7     		b	.L229
 2459              	.L208:
 2460              		.loc 2 706 0
 2461 0242 2F2E     		cmp	r6, #47
 2462 0244 00F00182 		beq	.L349
 2463              		.loc 2 710 0
 2464 0248 2A2E     		cmp	r6, #42
 2465 024a 00F01982 		beq	.L350
 2466              		.loc 2 716 0
 2467 024e DFF85090 		ldr	r9, .L357+20
 2468 0252 B4F91421 		ldrsh	r2, [r4, #276]
 2469 0256 B4F91651 		ldrsh	r5, [r4, #278]
 2470 025a 1449     		ldr	r1, .L357+32
 2471 025c 2068     		ldr	r0, [r4]
 2472 025e 731C     		adds	r3, r6, #1
 2473 0260 1F46     		mov	r7, r3
 2474              	.LVL258:
 2475 0262 D9F80030 		ldr	r3, [r9]
 2476 0266 DB5D     		ldrb	r3, [r3, r7]	@ zero_extendqisi2
 2477 0268 0092     		str	r2, [sp]
 2478 026a 13F0970F 		tst	r3, #151
 2479 026e 14BF     		ite	ne
 2480 0270 3246     		movne	r2, r6
 2481 0272 2E22     		moveq	r2, #46
 2482 0274 0195     		str	r5, [sp, #4]
 2483              	.L332:
 2484 0276 3346     		mov	r3, r6
 2485 0278 FFF7FEFF 		bl	lcfg_error_set
 2486              	.LVL259:
ARM GAS  C:\Users\jo\AppData\Local\Temp\ccMF9q4g.s 			page 45


 2487 027c D9F80030 		ldr	r3, [r9]
 2488 0280 0A25     		movs	r5, #10
 2489 0282 3B44     		add	r3, r3, r7
 2490              		.loc 2 653 0
 2491 0284 4FF00109 		mov	r9, #1
 2492              		.loc 2 717 0
 2493 0288 2F46     		mov	r7, r5
 2494 028a 3BE7     		b	.L229
 2495              	.L358:
 2496              		.align	2
 2497              	.L357:
 2498 028c 00000000 		.word	.LANCHOR6
 2499 0290 A0000000 		.word	.LC33
 2500 0294 00000000 		.word	itm_port
 2501 0298 8C000000 		.word	.LC30
 2502 029c D4000000 		.word	.LC34
 2503 02a0 00000000 		.word	__ctype_ptr__
 2504 02a4 C4010000 		.word	.LC39
 2505 02a8 50010000 		.word	.LC37
 2506 02ac 08010000 		.word	.LC36
 2507 02b0 84000000 		.word	.LC29
 2508              	.LVL260:
 2509              	.L207:
 2510              		.loc 2 659 0
 2511 02b4 A6F10903 		sub	r3, r6, #9
 2512 02b8 742B     		cmp	r3, #116
 2513 02ba 00F27882 		bhi	.L218
 2514 02be DFE813F0 		tbh	[pc, r3, lsl #1]
 2515              	.L220:
 2516 02c2 0202     		.2byte	(.L219-.L220)/2
 2517 02c4 0202     		.2byte	(.L219-.L220)/2
 2518 02c6 7602     		.2byte	(.L218-.L220)/2
 2519 02c8 7602     		.2byte	(.L218-.L220)/2
 2520 02ca 0202     		.2byte	(.L219-.L220)/2
 2521 02cc 7602     		.2byte	(.L218-.L220)/2
 2522 02ce 7602     		.2byte	(.L218-.L220)/2
 2523 02d0 7602     		.2byte	(.L218-.L220)/2
 2524 02d2 7602     		.2byte	(.L218-.L220)/2
 2525 02d4 7602     		.2byte	(.L218-.L220)/2
 2526 02d6 7602     		.2byte	(.L218-.L220)/2
 2527 02d8 7602     		.2byte	(.L218-.L220)/2
 2528 02da 7602     		.2byte	(.L218-.L220)/2
 2529 02dc 7602     		.2byte	(.L218-.L220)/2
 2530 02de 7602     		.2byte	(.L218-.L220)/2
 2531 02e0 7602     		.2byte	(.L218-.L220)/2
 2532 02e2 7602     		.2byte	(.L218-.L220)/2
 2533 02e4 7602     		.2byte	(.L218-.L220)/2
 2534 02e6 7602     		.2byte	(.L218-.L220)/2
 2535 02e8 7602     		.2byte	(.L218-.L220)/2
 2536 02ea 7602     		.2byte	(.L218-.L220)/2
 2537 02ec 7602     		.2byte	(.L218-.L220)/2
 2538 02ee 7602     		.2byte	(.L218-.L220)/2
 2539 02f0 0202     		.2byte	(.L219-.L220)/2
 2540 02f2 7602     		.2byte	(.L218-.L220)/2
 2541 02f4 2302     		.2byte	(.L221-.L220)/2
 2542 02f6 7602     		.2byte	(.L218-.L220)/2
 2543 02f8 7602     		.2byte	(.L218-.L220)/2
ARM GAS  C:\Users\jo\AppData\Local\Temp\ccMF9q4g.s 			page 46


 2544 02fa 7602     		.2byte	(.L218-.L220)/2
 2545 02fc 7602     		.2byte	(.L218-.L220)/2
 2546 02fe 7602     		.2byte	(.L218-.L220)/2
 2547 0300 7602     		.2byte	(.L218-.L220)/2
 2548 0302 7602     		.2byte	(.L218-.L220)/2
 2549 0304 7602     		.2byte	(.L218-.L220)/2
 2550 0306 7602     		.2byte	(.L218-.L220)/2
 2551 0308 3302     		.2byte	(.L222-.L220)/2
 2552 030a 7602     		.2byte	(.L218-.L220)/2
 2553 030c 7602     		.2byte	(.L218-.L220)/2
 2554 030e 3D02     		.2byte	(.L223-.L220)/2
 2555 0310 7602     		.2byte	(.L218-.L220)/2
 2556 0312 7602     		.2byte	(.L218-.L220)/2
 2557 0314 7602     		.2byte	(.L218-.L220)/2
 2558 0316 7602     		.2byte	(.L218-.L220)/2
 2559 0318 7602     		.2byte	(.L218-.L220)/2
 2560 031a 7602     		.2byte	(.L218-.L220)/2
 2561 031c 7602     		.2byte	(.L218-.L220)/2
 2562 031e 7602     		.2byte	(.L218-.L220)/2
 2563 0320 7602     		.2byte	(.L218-.L220)/2
 2564 0322 7602     		.2byte	(.L218-.L220)/2
 2565 0324 7602     		.2byte	(.L218-.L220)/2
 2566 0326 7602     		.2byte	(.L218-.L220)/2
 2567 0328 7602     		.2byte	(.L218-.L220)/2
 2568 032a 4402     		.2byte	(.L224-.L220)/2
 2569 032c 7602     		.2byte	(.L218-.L220)/2
 2570 032e 7602     		.2byte	(.L218-.L220)/2
 2571 0330 7602     		.2byte	(.L218-.L220)/2
 2572 0332 7602     		.2byte	(.L218-.L220)/2
 2573 0334 7602     		.2byte	(.L218-.L220)/2
 2574 0336 7602     		.2byte	(.L218-.L220)/2
 2575 0338 7602     		.2byte	(.L218-.L220)/2
 2576 033a 7602     		.2byte	(.L218-.L220)/2
 2577 033c 7602     		.2byte	(.L218-.L220)/2
 2578 033e 7602     		.2byte	(.L218-.L220)/2
 2579 0340 7602     		.2byte	(.L218-.L220)/2
 2580 0342 7602     		.2byte	(.L218-.L220)/2
 2581 0344 7602     		.2byte	(.L218-.L220)/2
 2582 0346 7602     		.2byte	(.L218-.L220)/2
 2583 0348 7602     		.2byte	(.L218-.L220)/2
 2584 034a 7602     		.2byte	(.L218-.L220)/2
 2585 034c 7602     		.2byte	(.L218-.L220)/2
 2586 034e 7602     		.2byte	(.L218-.L220)/2
 2587 0350 7602     		.2byte	(.L218-.L220)/2
 2588 0352 7602     		.2byte	(.L218-.L220)/2
 2589 0354 7602     		.2byte	(.L218-.L220)/2
 2590 0356 7602     		.2byte	(.L218-.L220)/2
 2591 0358 7602     		.2byte	(.L218-.L220)/2
 2592 035a 7602     		.2byte	(.L218-.L220)/2
 2593 035c 7602     		.2byte	(.L218-.L220)/2
 2594 035e 7602     		.2byte	(.L218-.L220)/2
 2595 0360 7602     		.2byte	(.L218-.L220)/2
 2596 0362 7602     		.2byte	(.L218-.L220)/2
 2597 0364 7602     		.2byte	(.L218-.L220)/2
 2598 0366 4E02     		.2byte	(.L225-.L220)/2
 2599 0368 7602     		.2byte	(.L218-.L220)/2
 2600 036a 5802     		.2byte	(.L226-.L220)/2
ARM GAS  C:\Users\jo\AppData\Local\Temp\ccMF9q4g.s 			page 47


 2601 036c 7602     		.2byte	(.L218-.L220)/2
 2602 036e 7602     		.2byte	(.L218-.L220)/2
 2603 0370 7602     		.2byte	(.L218-.L220)/2
 2604 0372 7602     		.2byte	(.L218-.L220)/2
 2605 0374 7602     		.2byte	(.L218-.L220)/2
 2606 0376 7602     		.2byte	(.L218-.L220)/2
 2607 0378 7602     		.2byte	(.L218-.L220)/2
 2608 037a 7602     		.2byte	(.L218-.L220)/2
 2609 037c 7602     		.2byte	(.L218-.L220)/2
 2610 037e 7602     		.2byte	(.L218-.L220)/2
 2611 0380 7602     		.2byte	(.L218-.L220)/2
 2612 0382 7602     		.2byte	(.L218-.L220)/2
 2613 0384 7602     		.2byte	(.L218-.L220)/2
 2614 0386 7602     		.2byte	(.L218-.L220)/2
 2615 0388 7602     		.2byte	(.L218-.L220)/2
 2616 038a 7602     		.2byte	(.L218-.L220)/2
 2617 038c 7602     		.2byte	(.L218-.L220)/2
 2618 038e 7602     		.2byte	(.L218-.L220)/2
 2619 0390 7602     		.2byte	(.L218-.L220)/2
 2620 0392 7602     		.2byte	(.L218-.L220)/2
 2621 0394 7602     		.2byte	(.L218-.L220)/2
 2622 0396 7602     		.2byte	(.L218-.L220)/2
 2623 0398 7602     		.2byte	(.L218-.L220)/2
 2624 039a 7602     		.2byte	(.L218-.L220)/2
 2625 039c 7602     		.2byte	(.L218-.L220)/2
 2626 039e 7602     		.2byte	(.L218-.L220)/2
 2627 03a0 7602     		.2byte	(.L218-.L220)/2
 2628 03a2 7602     		.2byte	(.L218-.L220)/2
 2629 03a4 7602     		.2byte	(.L218-.L220)/2
 2630 03a6 6202     		.2byte	(.L227-.L220)/2
 2631 03a8 7602     		.2byte	(.L218-.L220)/2
 2632 03aa 6C02     		.2byte	(.L228-.L220)/2
 2633              	.LVL261:
 2634              		.p2align 1
 2635              	.L275:
 2636              	.LBE285:
 2637              	.LBB286:
 2638              	.LBB224:
 2639              	.LBB221:
 2640              	.LBB218:
 2641              	.LBB213:
 2642              	.LBB214:
 2643              		.loc 2 573 0
 2644 03ac 04F10809 		add	r9, r4, #8
 2645 03b0 4946     		mov	r1, r9
 2646 03b2 6068     		ldr	r0, [r4, #4]
 2647 03b4 FF22     		movs	r2, #255
 2648 03b6 FFF7FEFF 		bl	read
 2649              	.LVL262:
 2650 03ba 0028     		cmp	r0, #0
 2651 03bc 0346     		mov	r3, r0
 2652 03be C4F80C01 		str	r0, [r4, #268]
 2653 03c2 C0F21181 		blt	.L351
 2654              		.loc 2 580 0
 2655 03c6 0BBF     		itete	eq
 2656 03c8 0122     		moveq	r2, #1
 2657              		.loc 2 584 0
ARM GAS  C:\Users\jo\AppData\Local\Temp\ccMF9q4g.s 			page 48


 2658 03ca 0022     		movne	r2, #0
 2659              		.loc 2 580 0
 2660 03cc C4F81021 		streq	r2, [r4, #272]
 2661              		.loc 2 584 0
 2662 03d0 C4F80821 		strne	r2, [r4, #264]
 2663              	.L278:
 2664              	.LBE214:
 2665              	.LBE213:
 2666              		.loc 2 601 0
 2667 03d4 4A46     		mov	r2, r9
 2668 03d6 C049     		ldr	r1, .L359
 2669 03d8 C048     		ldr	r0, .L359+4
 2670 03da FFF7FEFF 		bl	chprintf.constprop.11
 2671              	.LVL263:
 2672              		.loc 2 602 0
 2673 03de C04B     		ldr	r3, .L359+8
 2674 03e0 D4F81021 		ldr	r2, [r4, #272]
 2675 03e4 BF49     		ldr	r1, .L359+12
 2676 03e6 BD48     		ldr	r0, .L359+4
 2677 03e8 002A     		cmp	r2, #0
 2678 03ea 14BF     		ite	ne
 2679 03ec 4246     		movne	r2, r8
 2680 03ee 1A46     		moveq	r2, r3
 2681 03f0 FFF7FEFF 		bl	chprintf.constprop.11
 2682              	.LVL264:
 2683              		.loc 2 604 0
 2684 03f4 D4F80C31 		ldr	r3, [r4, #268]
 2685 03f8 FE2B     		cmp	r3, #254
 2686 03fa 1946     		mov	r1, r3
 2687 03fc 20DC     		bgt	.L281
 2688 03fe D4F80821 		ldr	r2, [r4, #264]
 2689 0402 9342     		cmp	r3, r2
 2690 0404 07D1     		bne	.L282
 2691              	.LVL265:
 2692              	.L296:
 2693              		.loc 2 606 0
 2694 0406 0123     		movs	r3, #1
 2695 0408 C4F81031 		str	r3, [r4, #272]
 2696              		.loc 2 607 0
 2697 040c B348     		ldr	r0, .L359+4
 2698 040e B549     		ldr	r1, .L359+12
 2699 0410 B54A     		ldr	r2, .L359+16
 2700 0412 FFF7FEFF 		bl	chprintf.constprop.11
 2701              	.LVL266:
 2702              	.L282:
 2703              	.LBE218:
 2704              	.LBE221:
 2705              	.LBE224:
 2706              	.LBE286:
 2707              		.loc 2 651 0
 2708 0416 D4F81031 		ldr	r3, [r4, #272]
 2709 041a 002B     		cmp	r3, #0
 2710 041c 40F04982 		bne	.L284
 2711 0420 D4F80C31 		ldr	r3, [r4, #268]
 2712 0424 1946     		mov	r1, r3
 2713 0426 16E6     		b	.L294
 2714              	.LVL267:
ARM GAS  C:\Users\jo\AppData\Local\Temp\ccMF9q4g.s 			page 49


 2715              	.L243:
 2716              	.LBB287:
 2717              		.loc 2 745 0
 2718 0428 D4F81C01 		ldr	r0, [r4, #284]
 2719 042c 3146     		mov	r1, r6
 2720 042e FFF7FEFF 		bl	lcfg_string_cat_char
 2721              	.LVL268:
 2722 0432 D9F80030 		ldr	r3, [r9]
 2723 0436 0525     		movs	r5, #5
 2724 0438 5344     		add	r3, r3, r10
 2725              		.loc 2 653 0
 2726 043a 4FF00109 		mov	r9, #1
 2727              		.loc 2 745 0
 2728 043e 61E6     		b	.L229
 2729              	.LVL269:
 2730              	.L281:
 2731              	.LBE287:
 2732              		.loc 2 651 0
 2733 0440 D4F81021 		ldr	r2, [r4, #272]
 2734 0444 002A     		cmp	r2, #0
 2735 0446 40F03482 		bne	.L284
 2736              	.LVL270:
 2737              	.L297:
 2738              	.LBB288:
 2739              	.LBB246:
 2740              	.LBB243:
 2741              	.LBB241:
 2742              	.LBB239:
 2743              	.LBB237:
 2744              		.loc 2 598 0
 2745 044a D4F80821 		ldr	r2, [r4, #264]
 2746 044e FF2A     		cmp	r2, #255
 2747 0450 3FF404AE 		beq	.L196
 2748              		.loc 2 604 0
 2749 0454 FE2B     		cmp	r3, #254
 2750 0456 3FF735AE 		bgt	.L290
 2751 045a 9142     		cmp	r1, r2
 2752 045c 7FF42BAE 		bne	.L203
 2753              	.LVL271:
 2754              	.L338:
 2755              		.loc 2 606 0
 2756 0460 0123     		movs	r3, #1
 2757 0462 C4F81031 		str	r3, [r4, #272]
 2758              		.loc 2 607 0
 2759 0466 9F49     		ldr	r1, .L359+12
 2760 0468 9F4A     		ldr	r2, .L359+16
 2761 046a 9C48     		ldr	r0, .L359+4
 2762 046c FFF7FEFF 		bl	chprintf.constprop.11
 2763              	.LVL272:
 2764 0470 21E6     		b	.L203
 2765              	.LVL273:
 2766              	.L341:
 2767              	.LBE237:
 2768              	.LBE239:
 2769              	.LBE241:
 2770              	.LBE243:
 2771              	.LBE246:
ARM GAS  C:\Users\jo\AppData\Local\Temp\ccMF9q4g.s 			page 50


 2772              	.LBB247:
 2773              	.LBB248:
 2774              	.LBB249:
 2775              	.LBB250:
 2776              		.loc 2 592 0
 2777 0472 D4F81031 		ldr	r3, [r4, #272]
 2778 0476 002B     		cmp	r3, #0
 2779 0478 3ED0     		beq	.L260
 2780              	.LVL274:
 2781              	.L271:
 2782              	.LBE250:
 2783              	.LBE249:
 2784              		.loc 2 618 0
 2785 047a 2068     		ldr	r0, [r4]
 2786 047c 9B49     		ldr	r1, .L359+20
 2787 047e 9C4A     		ldr	r2, .L359+24
 2788 0480 FFF7FEFF 		bl	lcfg_error_set
 2789              	.LVL275:
 2790              	.LBE248:
 2791              	.LBE247:
 2792              		.loc 2 832 0
 2793 0484 0A2E     		cmp	r6, #10
 2794 0486 51D0     		beq	.L352
 2795              	.L272:
 2796              		.loc 2 839 0
 2797 0488 B4F81631 		ldrh	r3, [r4, #278]
 2798 048c 0133     		adds	r3, r3, #1
 2799 048e A4F81631 		strh	r3, [r4, #278]	@ movhi
 2800              		.loc 2 843 0
 2801 0492 94F81831 		ldrb	r3, [r4, #280]	@ zero_extendqisi2
 2802 0496 002B     		cmp	r3, #0
 2803 0498 3FF45AAE 		beq	.L353
 2804              	.LVL276:
 2805              	.L273:
 2806              	.LBE288:
 2807              		.loc 2 849 0
 2808 049c 002F     		cmp	r7, #0
 2809 049e 6CD1     		bne	.L285
 2810              	.L288:
 2811              		.loc 2 859 0
 2812 04a0 0020     		movs	r0, #0
 2813              		.loc 2 860 0
 2814 04a2 0EB0     		add	sp, sp, #56
 2815              		.cfi_remember_state
 2816              		.cfi_def_cfa_offset 32
 2817              		@ sp needed
 2818 04a4 BDE8F087 		pop	{r4, r5, r6, r7, r8, r9, r10, pc}
 2819              	.LVL277:
 2820              	.L339:
 2821              		.cfi_restore_state
 2822              	.LBB289:
 2823              	.LBB275:
 2824              	.LBB244:
 2825              		.loc 2 631 0
 2826 04a8 2068     		ldr	r0, [r4]
 2827 04aa 9049     		ldr	r1, .L359+20
 2828 04ac 914A     		ldr	r2, .L359+28
ARM GAS  C:\Users\jo\AppData\Local\Temp\ccMF9q4g.s 			page 51


 2829 04ae FFF7FEFF 		bl	lcfg_error_set
 2830              	.LVL278:
 2831 04b2 09E6     		b	.L206
 2832              	.L217:
 2833              	.LBE244:
 2834              	.LBE275:
 2835              		.loc 2 809 0
 2836 04b4 DFF84092 		ldr	r9, .L359+32
 2837 04b8 771C     		adds	r7, r6, #1
 2838              	.LVL279:
 2839 04ba D9F80030 		ldr	r3, [r9]
 2840 04be DB5D     		ldrb	r3, [r3, r7]	@ zero_extendqisi2
 2841 04c0 13F0440F 		tst	r3, #68
 2842 04c4 00F09F80 		beq	.L354
 2843              	.L257:
 2844              		.loc 2 815 0
 2845 04c8 0023     		movs	r3, #0
 2846              		.loc 2 816 0
 2847 04ca 1946     		mov	r1, r3
 2848 04cc 1022     		movs	r2, #16
 2849 04ce 02A8     		add	r0, sp, #8
 2850              		.loc 2 815 0
 2851 04d0 8DF80A30 		strb	r3, [sp, #10]
 2852              		.loc 2 816 0
 2853 04d4 D4F81C51 		ldr	r5, [r4, #284]
 2854              		.loc 2 814 0
 2855 04d8 8DF80960 		strb	r6, [sp, #9]
 2856              		.loc 2 816 0
 2857 04dc FFF7FEFF 		bl	strtoul
 2858              	.LVL280:
 2859 04e0 C1B2     		uxtb	r1, r0
 2860 04e2 2846     		mov	r0, r5
 2861 04e4 FFF7FEFF 		bl	lcfg_string_cat_char
 2862              	.LVL281:
 2863 04e8 D9F80030 		ldr	r3, [r9]
 2864              		.loc 2 818 0
 2865 04ec 0625     		movs	r5, #6
 2866 04ee 3B44     		add	r3, r3, r7
 2867              		.loc 2 653 0
 2868 04f0 4FF00109 		mov	r9, #1
 2869              		.loc 2 817 0
 2870 04f4 2F46     		mov	r7, r5
 2871              		.loc 2 818 0
 2872 04f6 05E6     		b	.L229
 2873              	.LVL282:
 2874              	.L260:
 2875              	.LBB276:
 2876              	.LBB271:
 2877              	.LBB267:
 2878              	.LBB263:
 2879              	.LBB251:
 2880              	.LBB252:
 2881              		.loc 2 598 0
 2882 04f8 D4F80C21 		ldr	r2, [r4, #268]
 2883 04fc 002A     		cmp	r2, #0
 2884 04fe 48D0     		beq	.L262
 2885 0500 D4F80831 		ldr	r3, [r4, #264]
ARM GAS  C:\Users\jo\AppData\Local\Temp\ccMF9q4g.s 			page 52


 2886 0504 FF2B     		cmp	r3, #255
 2887 0506 44D0     		beq	.L262
 2888              		.loc 2 604 0
 2889 0508 FE2A     		cmp	r2, #254
 2890 050a 08DC     		bgt	.L292
 2891              	.LVL283:
 2892              	.L291:
 2893 050c 9A42     		cmp	r2, r3
 2894 050e 00F0AA81 		beq	.L355
 2895              	.L269:
 2896              	.LBE252:
 2897              	.LBE251:
 2898              	.LBE263:
 2899              	.LBE267:
 2900              		.loc 2 616 0
 2901 0512 D4F81031 		ldr	r3, [r4, #272]
 2902 0516 002B     		cmp	r3, #0
 2903 0518 AFD1     		bne	.L271
 2904 051a D4F80831 		ldr	r3, [r4, #264]
 2905              	.L292:
 2906              		.loc 2 622 0
 2907 051e E218     		adds	r2, r4, r3
 2908 0520 0133     		adds	r3, r3, #1
 2909 0522 167A     		ldrb	r6, [r2, #8]	@ zero_extendqisi2
 2910              	.LVL284:
 2911 0524 C4F80831 		str	r3, [r4, #264]
 2912              	.LBE271:
 2913              	.LBE276:
 2914              		.loc 2 832 0
 2915 0528 0A2E     		cmp	r6, #10
 2916 052a ADD1     		bne	.L272
 2917              	.LVL285:
 2918              	.L352:
 2919              		.loc 2 834 0
 2920 052c B4F81431 		ldrh	r3, [r4, #276]
 2921              		.loc 2 835 0
 2922 0530 0122     		movs	r2, #1
 2923              		.loc 2 834 0
 2924 0532 1344     		add	r3, r3, r2
 2925 0534 A4F81431 		strh	r3, [r4, #276]	@ movhi
 2926              		.loc 2 835 0
 2927 0538 A4F81621 		strh	r2, [r4, #278]	@ movhi
 2928 053c 03E6     		b	.L259
 2929              	.LVL286:
 2930              	.L342:
 2931              		.loc 2 771 0
 2932 053e 302E     		cmp	r6, #48
 2933 0540 00F07781 		beq	.L250
 2934 0544 5C2E     		cmp	r6, #92
 2935 0546 00F0B180 		beq	.L251
 2936 054a 222E     		cmp	r6, #34
 2937 054c 7FF415AE 		bne	.L247
 2938              		.loc 2 774 0
 2939 0550 D4F81C01 		ldr	r0, [r4, #284]
 2940 0554 3146     		mov	r1, r6
 2941 0556 FFF7FEFF 		bl	lcfg_string_cat_char
 2942              	.LVL287:
ARM GAS  C:\Users\jo\AppData\Local\Temp\ccMF9q4g.s 			page 53


 2943              	.L331:
 2944 055a 674B     		ldr	r3, .L359+32
 2945 055c 1B68     		ldr	r3, [r3]
 2946              		.loc 2 775 0
 2947 055e 0625     		movs	r5, #6
 2948 0560 2333     		adds	r3, r3, #35
 2949              		.loc 2 770 0
 2950 0562 2F46     		mov	r7, r5
 2951              		.loc 2 653 0
 2952 0564 4FF00109 		mov	r9, #1
 2953              		.loc 2 775 0
 2954 0568 CCE5     		b	.L229
 2955              	.LVL288:
 2956              	.L345:
 2957 056a 634B     		ldr	r3, .L359+32
 2958 056c 1B68     		ldr	r3, [r3]
 2959              		.loc 2 760 0
 2960 056e 0725     		movs	r5, #7
 2961 0570 5D33     		adds	r3, r3, #93
 2962              		.loc 2 762 0
 2963 0572 2F46     		mov	r7, r5
 2964              	.LVL289:
 2965              		.loc 2 653 0
 2966 0574 4FF00109 		mov	r9, #1
 2967 0578 C4E5     		b	.L229
 2968              	.LVL290:
 2969              	.L285:
 2970              	.LBE289:
 2971              		.loc 2 851 0
 2972 057a 0A2F     		cmp	r7, #10
 2973 057c 3FF4EBAD 		beq	.L333
 2974              	.L287:
 2975              	.LVL291:
 2976              		.loc 2 853 0
 2977 0580 2068     		ldr	r0, [r4]
 2978 0582 5E49     		ldr	r1, .L359+36
 2979 0584 B4F91421 		ldrsh	r2, [r4, #276]
 2980 0588 B4F91631 		ldrsh	r3, [r4, #278]
 2981 058c FFF7FEFF 		bl	lcfg_error_set
 2982              	.LVL292:
 2983 0590 E1E5     		b	.L333
 2984              	.LVL293:
 2985              	.L262:
 2986              	.LBB290:
 2987              	.LBB277:
 2988              	.LBB272:
 2989              	.LBB268:
 2990              	.LBB264:
 2991              	.LBB260:
 2992              	.LBB257:
 2993              	.LBB253:
 2994              	.LBB254:
 2995              		.loc 2 573 0
 2996 0592 04F10805 		add	r5, r4, #8
 2997 0596 2946     		mov	r1, r5
 2998 0598 6068     		ldr	r0, [r4, #4]
 2999 059a FF22     		movs	r2, #255
ARM GAS  C:\Users\jo\AppData\Local\Temp\ccMF9q4g.s 			page 54


 3000 059c FFF7FEFF 		bl	read
 3001              	.LVL294:
 3002 05a0 0028     		cmp	r0, #0
 3003 05a2 0346     		mov	r3, r0
 3004 05a4 C4F80C01 		str	r0, [r4, #268]
 3005 05a8 C0F27481 		blt	.L356
 3006              		.loc 2 580 0
 3007 05ac 0BBF     		itete	eq
 3008 05ae 0122     		moveq	r2, #1
 3009              		.loc 2 584 0
 3010 05b0 0022     		movne	r2, #0
 3011              		.loc 2 580 0
 3012 05b2 C4F81021 		streq	r2, [r4, #272]
 3013              		.loc 2 584 0
 3014 05b6 C4F80821 		strne	r2, [r4, #264]
 3015              	.LVL295:
 3016              	.L265:
 3017              	.LBE254:
 3018              	.LBE253:
 3019              		.loc 2 601 0
 3020 05ba 2A46     		mov	r2, r5
 3021 05bc 4649     		ldr	r1, .L359
 3022 05be 4748     		ldr	r0, .L359+4
 3023 05c0 FFF7FEFF 		bl	chprintf.constprop.11
 3024              	.LVL296:
 3025              		.loc 2 602 0
 3026 05c4 D4F81021 		ldr	r2, [r4, #272]
 3027 05c8 454B     		ldr	r3, .L359+8
 3028 05ca 4448     		ldr	r0, .L359+4
 3029 05cc 4549     		ldr	r1, .L359+12
 3030 05ce 002A     		cmp	r2, #0
 3031 05d0 14BF     		ite	ne
 3032 05d2 4246     		movne	r2, r8
 3033 05d4 1A46     		moveq	r2, r3
 3034 05d6 FFF7FEFF 		bl	chprintf.constprop.11
 3035              	.LVL297:
 3036              		.loc 2 604 0
 3037 05da D4F80C21 		ldr	r2, [r4, #268]
 3038 05de FE2A     		cmp	r2, #254
 3039 05e0 97DC     		bgt	.L269
 3040 05e2 D4F80831 		ldr	r3, [r4, #264]
 3041 05e6 91E7     		b	.L291
 3042              	.LVL298:
 3043              	.L351:
 3044              	.LBE257:
 3045              	.LBE260:
 3046              	.LBE264:
 3047              	.LBE268:
 3048              	.LBE272:
 3049              	.LBE277:
 3050              	.LBE290:
 3051              	.LBB291:
 3052              	.LBB225:
 3053              	.LBB222:
 3054              	.LBB219:
 3055              	.LBB216:
 3056              	.LBB215:
ARM GAS  C:\Users\jo\AppData\Local\Temp\ccMF9q4g.s 			page 55


 3057              		.loc 2 575 0
 3058 05e8 D4F800A0 		ldr	r10, [r4]
 3059 05ec FFF7FEFF 		bl	__errno
 3060              	.LVL299:
 3061 05f0 0068     		ldr	r0, [r0]
 3062 05f2 FFF7FEFF 		bl	strerror
 3063              	.LVL300:
 3064 05f6 4249     		ldr	r1, .L359+40
 3065 05f8 0246     		mov	r2, r0
 3066 05fa 5046     		mov	r0, r10
 3067 05fc FFF7FEFF 		bl	lcfg_error_set
 3068              	.LVL301:
 3069 0600 D4F80C31 		ldr	r3, [r4, #268]
 3070 0604 E6E6     		b	.L278
 3071              	.LVL302:
 3072              	.L354:
 3073              	.LBE215:
 3074              	.LBE216:
 3075              	.LBE219:
 3076              	.LBE222:
 3077              	.LBE225:
 3078              	.LBE291:
 3079              	.LBB292:
 3080              		.loc 2 811 0
 3081 0606 B4F91621 		ldrsh	r2, [r4, #278]
 3082 060a 2068     		ldr	r0, [r4]
 3083 060c B4F91431 		ldrsh	r3, [r4, #276]
 3084 0610 3C49     		ldr	r1, .L359+44
 3085 0612 0092     		str	r2, [sp]
 3086 0614 3246     		mov	r2, r6
 3087 0616 FFF7FEFF 		bl	lcfg_error_set
 3088              	.LVL303:
 3089 061a 55E7     		b	.L257
 3090              	.LVL304:
 3091              	.L340:
 3092              		.loc 2 802 0
 3093 061c B4F91621 		ldrsh	r2, [r4, #278]
 3094 0620 B4F91431 		ldrsh	r3, [r4, #276]
 3095 0624 2068     		ldr	r0, [r4]
 3096 0626 3749     		ldr	r1, .L359+44
 3097 0628 0092     		str	r2, [sp]
 3098 062a 3246     		mov	r2, r6
 3099 062c FFF7FEFF 		bl	lcfg_error_set
 3100              	.LVL305:
 3101 0630 3B68     		ldr	r3, [r7]
 3102 0632 2B44     		add	r3, r3, r5
 3103 0634 60E5     		b	.L256
 3104              	.LVL306:
 3105              	.L344:
 3106 0636 304B     		ldr	r3, .L359+32
 3107 0638 1B68     		ldr	r3, [r3]
 3108              		.loc 2 757 0
 3109 063a 0322     		movs	r2, #3
 3110 063c 2333     		adds	r3, r3, #35
 3111 063e 84F81821 		strb	r2, [r4, #280]
 3112              	.LVL307:
 3113              		.loc 2 653 0
ARM GAS  C:\Users\jo\AppData\Local\Temp\ccMF9q4g.s 			page 56


 3114 0642 4FF00109 		mov	r9, #1
 3115              		.loc 2 758 0
 3116 0646 0027     		movs	r7, #0
 3117 0648 5CE5     		b	.L229
 3118              	.LVL308:
 3119              	.L349:
 3120 064a 2B4B     		ldr	r3, .L359+32
 3121 064c 1B68     		ldr	r3, [r3]
 3122              		.loc 2 706 0
 3123 064e 0225     		movs	r5, #2
 3124 0650 3033     		adds	r3, r3, #48
 3125              		.loc 2 708 0
 3126 0652 2F46     		mov	r7, r5
 3127              	.LVL309:
 3128              		.loc 2 653 0
 3129 0654 4FF00109 		mov	r9, #1
 3130 0658 54E5     		b	.L229
 3131              	.LVL310:
 3132              	.L348:
 3133 065a 1B68     		ldr	r3, [r3]
 3134 065c 4FF00109 		mov	r9, #1
 3135 0660 0B33     		adds	r3, r3, #11
 3136              		.loc 2 723 0
 3137 0662 0027     		movs	r7, #0
 3138              	.LVL311:
 3139 0664 4EE5     		b	.L229
 3140              	.LVL312:
 3141              	.L347:
 3142 0666 1B68     		ldr	r3, [r3]
 3143              		.loc 2 727 0
 3144 0668 0425     		movs	r5, #4
 3145 066a 2B33     		adds	r3, r3, #43
 3146              		.loc 2 729 0
 3147 066c 2F46     		mov	r7, r5
 3148              	.LVL313:
 3149              		.loc 2 653 0
 3150 066e 4FF00109 		mov	r9, #1
 3151 0672 47E5     		b	.L229
 3152              	.LVL314:
 3153              	.L346:
 3154 0674 1B68     		ldr	r3, [r3]
 3155 0676 4FF00109 		mov	r9, #1
 3156 067a 3033     		adds	r3, r3, #48
 3157              		.loc 2 735 0
 3158 067c 0027     		movs	r7, #0
 3159              	.LVL315:
 3160 067e 41E5     		b	.L229
 3161              	.LVL316:
 3162              	.L350:
 3163 0680 1D4B     		ldr	r3, .L359+32
 3164 0682 1B68     		ldr	r3, [r3]
 3165              		.loc 2 710 0
 3166 0684 0325     		movs	r5, #3
 3167 0686 2B33     		adds	r3, r3, #43
 3168              		.loc 2 712 0
 3169 0688 2F46     		mov	r7, r5
 3170              	.LVL317:
ARM GAS  C:\Users\jo\AppData\Local\Temp\ccMF9q4g.s 			page 57


 3171              		.loc 2 653 0
 3172 068a 4FF00109 		mov	r9, #1
 3173 068e 39E5     		b	.L229
 3174              	.LVL318:
 3175              	.L242:
 3176 0690 1B68     		ldr	r3, [r3]
 3177              		.loc 2 737 0
 3178 0692 0425     		movs	r5, #4
 3179 0694 2B33     		adds	r3, r3, #43
 3180              		.loc 2 653 0
 3181 0696 4FF00109 		mov	r9, #1
 3182 069a 33E5     		b	.L229
 3183              	.LVL319:
 3184              	.L254:
 3185 069c 164B     		ldr	r3, .L359+32
 3186 069e 1B68     		ldr	r3, [r3]
 3187              		.loc 2 771 0
 3188 06a0 0825     		movs	r5, #8
 3189 06a2 7933     		adds	r3, r3, #121
 3190              		.loc 2 792 0
 3191 06a4 2F46     		mov	r7, r5
 3192              		.loc 2 653 0
 3193 06a6 4FF00109 		mov	r9, #1
 3194 06aa 2BE5     		b	.L229
 3195              	.L251:
 3196              		.loc 2 789 0
 3197 06ac D4F81C01 		ldr	r0, [r4, #284]
 3198 06b0 3146     		mov	r1, r6
 3199 06b2 FFF7FEFF 		bl	lcfg_string_cat_char
 3200              	.LVL320:
 3201 06b6 104B     		ldr	r3, .L359+32
 3202 06b8 1B68     		ldr	r3, [r3]
 3203              		.loc 2 790 0
 3204 06ba 0625     		movs	r5, #6
 3205 06bc 5D33     		adds	r3, r3, #93
 3206              		.loc 2 770 0
 3207 06be 2F46     		mov	r7, r5
 3208              		.loc 2 653 0
 3209 06c0 4FF00109 		mov	r9, #1
 3210              		.loc 2 790 0
 3211 06c4 1EE5     		b	.L229
 3212              	.LVL321:
 3213              	.L219:
 3214 06c6 0C4B     		ldr	r3, .L359+32
 3215 06c8 1A68     		ldr	r2, [r3]
 3216 06ca 731C     		adds	r3, r6, #1
 3217 06cc 1344     		add	r3, r3, r2
 3218              		.loc 2 653 0
 3219 06ce 4FF00109 		mov	r9, #1
 3220              		.loc 2 659 0
 3221 06d2 0027     		movs	r7, #0
 3222              	.LVL322:
 3223 06d4 16E5     		b	.L229
 3224              	.L360:
 3225 06d6 00BF     		.align	2
 3226              	.L359:
 3227 06d8 A0000000 		.word	.LC33
ARM GAS  C:\Users\jo\AppData\Local\Temp\ccMF9q4g.s 			page 58


 3228 06dc 00000000 		.word	itm_port
 3229 06e0 8C000000 		.word	.LC30
 3230 06e4 D4000000 		.word	.LC34
 3231 06e8 84000000 		.word	.LC29
 3232 06ec 48000000 		.word	.LC27
 3233 06f0 F4010000 		.word	.LC40
 3234 06f4 F0000000 		.word	.LC35
 3235 06f8 00000000 		.word	__ctype_ptr__
 3236 06fc 0C020000 		.word	.LC41
 3237 0700 94000000 		.word	.LC32
 3238 0704 8C010000 		.word	.LC38
 3239              	.LVL323:
 3240              	.L221:
 3241              		.loc 2 689 0
 3242 0708 D4F81C21 		ldr	r2, [r4, #284]
 3243              	.LVL324:
 3244              	.LBB278:
 3245              	.LBB279:
 3246              		.loc 2 436 0
 3247 070c 5368     		ldr	r3, [r2, #4]
 3248 070e 002B     		cmp	r3, #0
 3249 0710 3FF423AF 		beq	.L331
 3250 0714 694B     		ldr	r3, .L361
 3251 0716 1B68     		ldr	r3, [r3]
 3252              		.loc 2 438 0
 3253 0718 0021     		movs	r1, #0
 3254 071a 0625     		movs	r5, #6
 3255 071c 2333     		adds	r3, r3, #35
 3256 071e 5160     		str	r1, [r2, #4]
 3257              	.LBE279:
 3258              	.LBE278:
 3259              		.loc 2 688 0
 3260 0720 2F46     		mov	r7, r5
 3261              		.loc 2 653 0
 3262 0722 4FF00109 		mov	r9, #1
 3263 0726 EDE4     		b	.L229
 3264              	.LVL325:
 3265              	.L222:
 3266 0728 644B     		ldr	r3, .L361
 3267 072a 1B68     		ldr	r3, [r3]
 3268              		.loc 2 682 0
 3269 072c 0622     		movs	r2, #6
 3270 072e 2D33     		adds	r3, r3, #45
 3271 0730 84F81821 		strb	r2, [r4, #280]
 3272              		.loc 2 653 0
 3273 0734 4FF00109 		mov	r9, #1
 3274              		.loc 2 683 0
 3275 0738 0027     		movs	r7, #0
 3276              	.LVL326:
 3277 073a E3E4     		b	.L229
 3278              	.LVL327:
 3279              	.L223:
 3280 073c 5F4B     		ldr	r3, .L361
 3281 073e 1B68     		ldr	r3, [r3]
 3282              		.loc 2 659 0
 3283 0740 0125     		movs	r5, #1
 3284 0742 3033     		adds	r3, r3, #48
ARM GAS  C:\Users\jo\AppData\Local\Temp\ccMF9q4g.s 			page 59


 3285              		.loc 2 653 0
 3286 0744 A946     		mov	r9, r5
 3287              		.loc 2 685 0
 3288 0746 2F46     		mov	r7, r5
 3289              	.LVL328:
 3290 0748 DCE4     		b	.L229
 3291              	.LVL329:
 3292              	.L224:
 3293 074a 5C4B     		ldr	r3, .L361
 3294 074c 1B68     		ldr	r3, [r3]
 3295              		.loc 2 667 0
 3296 074e 0222     		movs	r2, #2
 3297 0750 3E33     		adds	r3, r3, #62
 3298 0752 84F81821 		strb	r2, [r4, #280]
 3299              		.loc 2 653 0
 3300 0756 4FF00109 		mov	r9, #1
 3301              		.loc 2 668 0
 3302 075a 0027     		movs	r7, #0
 3303              	.LVL330:
 3304 075c D2E4     		b	.L229
 3305              	.LVL331:
 3306              	.L225:
 3307 075e 574B     		ldr	r3, .L361
 3308 0760 1B68     		ldr	r3, [r3]
 3309              		.loc 2 670 0
 3310 0762 0422     		movs	r2, #4
 3311 0764 5C33     		adds	r3, r3, #92
 3312 0766 84F81821 		strb	r2, [r4, #280]
 3313              		.loc 2 653 0
 3314 076a 4FF00109 		mov	r9, #1
 3315              		.loc 2 671 0
 3316 076e 0027     		movs	r7, #0
 3317              	.LVL332:
 3318 0770 C8E4     		b	.L229
 3319              	.LVL333:
 3320              	.L226:
 3321 0772 524B     		ldr	r3, .L361
 3322 0774 1B68     		ldr	r3, [r3]
 3323              		.loc 2 673 0
 3324 0776 0522     		movs	r2, #5
 3325 0778 5E33     		adds	r3, r3, #94
 3326 077a 84F81821 		strb	r2, [r4, #280]
 3327              		.loc 2 653 0
 3328 077e 4FF00109 		mov	r9, #1
 3329              		.loc 2 674 0
 3330 0782 0027     		movs	r7, #0
 3331              	.LVL334:
 3332 0784 BEE4     		b	.L229
 3333              	.LVL335:
 3334              	.L227:
 3335 0786 4D4B     		ldr	r3, .L361
 3336 0788 1B68     		ldr	r3, [r3]
 3337              		.loc 2 676 0
 3338 078a 0722     		movs	r2, #7
 3339 078c 7C33     		adds	r3, r3, #124
 3340 078e 84F81821 		strb	r2, [r4, #280]
 3341              		.loc 2 653 0
ARM GAS  C:\Users\jo\AppData\Local\Temp\ccMF9q4g.s 			page 60


 3342 0792 4FF00109 		mov	r9, #1
 3343              		.loc 2 677 0
 3344 0796 0027     		movs	r7, #0
 3345              	.LVL336:
 3346 0798 B4E4     		b	.L229
 3347              	.LVL337:
 3348              	.L228:
 3349 079a 484B     		ldr	r3, .L361
 3350 079c 1B68     		ldr	r3, [r3]
 3351              		.loc 2 679 0
 3352 079e 0822     		movs	r2, #8
 3353 07a0 7E33     		adds	r3, r3, #126
 3354 07a2 84F81821 		strb	r2, [r4, #280]
 3355              		.loc 2 653 0
 3356 07a6 4FF00109 		mov	r9, #1
 3357              		.loc 2 680 0
 3358 07aa 0027     		movs	r7, #0
 3359              	.LVL338:
 3360 07ac AAE4     		b	.L229
 3361              	.LVL339:
 3362              	.L218:
 3363              		.loc 2 692 0
 3364 07ae DFF80C91 		ldr	r9, .L361
 3365 07b2 771C     		adds	r7, r6, #1
 3366              	.LVL340:
 3367 07b4 D9F80030 		ldr	r3, [r9]
 3368 07b8 DB5D     		ldrb	r3, [r3, r7]	@ zero_extendqisi2
 3369 07ba 9A07     		lsls	r2, r3, #30
 3370 07bc 5CD0     		beq	.L231
 3371              		.loc 2 694 0
 3372 07be D4F81C01 		ldr	r0, [r4, #284]
 3373              	.LVL341:
 3374              	.LBB280:
 3375              	.LBB281:
 3376              		.loc 2 436 0
 3377 07c2 4368     		ldr	r3, [r0, #4]
 3378 07c4 0BB1     		cbz	r3, .L232
 3379              		.loc 2 438 0
 3380 07c6 0023     		movs	r3, #0
 3381 07c8 4360     		str	r3, [r0, #4]
 3382              	.L232:
 3383              	.LBE281:
 3384              	.LBE280:
 3385              		.loc 2 695 0
 3386 07ca 3146     		mov	r1, r6
 3387 07cc FFF7FEFF 		bl	lcfg_string_cat_char
 3388              	.LVL342:
 3389 07d0 D9F80030 		ldr	r3, [r9]
 3390 07d4 0525     		movs	r5, #5
 3391 07d6 3B44     		add	r3, r3, r7
 3392              		.loc 2 653 0
 3393 07d8 4FF00109 		mov	r9, #1
 3394              		.loc 2 696 0
 3395 07dc 2F46     		mov	r7, r5
 3396 07de 91E4     		b	.L229
 3397              	.LVL343:
 3398              	.L337:
ARM GAS  C:\Users\jo\AppData\Local\Temp\ccMF9q4g.s 			page 61


 3399              	.LBB282:
 3400              	.LBB245:
 3401              	.LBB242:
 3402              	.LBB240:
 3403              	.LBB238:
 3404              	.LBB236:
 3405              	.LBB235:
 3406              		.loc 2 575 0
 3407 07e0 D4F800A0 		ldr	r10, [r4]
 3408 07e4 FFF7FEFF 		bl	__errno
 3409              	.LVL344:
 3410 07e8 0068     		ldr	r0, [r0]
 3411 07ea FFF7FEFF 		bl	strerror
 3412              	.LVL345:
 3413 07ee 3449     		ldr	r1, .L361+4
 3414 07f0 0246     		mov	r2, r0
 3415 07f2 5046     		mov	r0, r10
 3416 07f4 FFF7FEFF 		bl	lcfg_error_set
 3417              	.LVL346:
 3418 07f8 D4F80C31 		ldr	r3, [r4, #268]
 3419 07fc 42E4     		b	.L199
 3420              	.LVL347:
 3421              	.L253:
 3422              	.LBE235:
 3423              	.LBE236:
 3424              	.LBE238:
 3425              	.LBE240:
 3426              	.LBE242:
 3427              	.LBE245:
 3428              	.LBE282:
 3429              		.loc 2 780 0
 3430 07fe D4F81C01 		ldr	r0, [r4, #284]
 3431 0802 0921     		movs	r1, #9
 3432 0804 FFF7FEFF 		bl	lcfg_string_cat_char
 3433              	.LVL348:
 3434 0808 2C4B     		ldr	r3, .L361
 3435 080a 1B68     		ldr	r3, [r3]
 3436              		.loc 2 781 0
 3437 080c 0625     		movs	r5, #6
 3438 080e 7533     		adds	r3, r3, #117
 3439              		.loc 2 770 0
 3440 0810 2F46     		mov	r7, r5
 3441              		.loc 2 653 0
 3442 0812 4FF00109 		mov	r9, #1
 3443              		.loc 2 781 0
 3444 0816 75E4     		b	.L229
 3445              	.L343:
 3446              		.loc 2 783 0
 3447 0818 D4F81C01 		ldr	r0, [r4, #284]
 3448 081c 0D21     		movs	r1, #13
 3449 081e FFF7FEFF 		bl	lcfg_string_cat_char
 3450              	.LVL349:
 3451 0822 264B     		ldr	r3, .L361
 3452 0824 1B68     		ldr	r3, [r3]
 3453              		.loc 2 784 0
 3454 0826 0625     		movs	r5, #6
 3455 0828 7333     		adds	r3, r3, #115
ARM GAS  C:\Users\jo\AppData\Local\Temp\ccMF9q4g.s 			page 62


 3456              		.loc 2 770 0
 3457 082a 2F46     		mov	r7, r5
 3458              		.loc 2 653 0
 3459 082c 4FF00109 		mov	r9, #1
 3460              		.loc 2 784 0
 3461 0830 68E4     		b	.L229
 3462              	.L250:
 3463              		.loc 2 786 0
 3464 0832 D4F81C01 		ldr	r0, [r4, #284]
 3465 0836 0021     		movs	r1, #0
 3466 0838 FFF7FEFF 		bl	lcfg_string_cat_char
 3467              	.LVL350:
 3468 083c 1F4B     		ldr	r3, .L361
 3469 083e 1B68     		ldr	r3, [r3]
 3470              		.loc 2 787 0
 3471 0840 0625     		movs	r5, #6
 3472 0842 3133     		adds	r3, r3, #49
 3473              		.loc 2 770 0
 3474 0844 2F46     		mov	r7, r5
 3475              		.loc 2 653 0
 3476 0846 4FF00109 		mov	r9, #1
 3477              		.loc 2 787 0
 3478 084a 5BE4     		b	.L229
 3479              	.L248:
 3480              		.loc 2 777 0
 3481 084c D4F81C01 		ldr	r0, [r4, #284]
 3482 0850 0A21     		movs	r1, #10
 3483 0852 FFF7FEFF 		bl	lcfg_string_cat_char
 3484              	.LVL351:
 3485 0856 194B     		ldr	r3, .L361
 3486 0858 1B68     		ldr	r3, [r3]
 3487              		.loc 2 778 0
 3488 085a 0625     		movs	r5, #6
 3489 085c 6F33     		adds	r3, r3, #111
 3490              		.loc 2 770 0
 3491 085e 2F46     		mov	r7, r5
 3492              		.loc 2 653 0
 3493 0860 4FF00109 		mov	r9, #1
 3494              		.loc 2 778 0
 3495 0864 4EE4     		b	.L229
 3496              	.LVL352:
 3497              	.L355:
 3498              	.LBB283:
 3499              	.LBB273:
 3500              	.LBB269:
 3501              	.LBB265:
 3502              	.LBB261:
 3503              	.LBB258:
 3504              		.loc 2 606 0
 3505 0866 0123     		movs	r3, #1
 3506 0868 C4F81031 		str	r3, [r4, #272]
 3507              		.loc 2 607 0
 3508 086c 1549     		ldr	r1, .L361+8
 3509 086e 164A     		ldr	r2, .L361+12
 3510 0870 1648     		ldr	r0, .L361+16
 3511 0872 FFF7FEFF 		bl	chprintf.constprop.11
 3512              	.LVL353:
ARM GAS  C:\Users\jo\AppData\Local\Temp\ccMF9q4g.s 			page 63


 3513 0876 4CE6     		b	.L269
 3514              	.LVL354:
 3515              	.L231:
 3516              	.LBE258:
 3517              	.LBE261:
 3518              	.LBE265:
 3519              	.LBE269:
 3520              	.LBE273:
 3521              	.LBE283:
 3522              		.loc 2 700 0
 3523 0878 B4F91421 		ldrsh	r2, [r4, #276]
 3524 087c B4F91611 		ldrsh	r1, [r4, #278]
 3525 0880 2068     		ldr	r0, [r4]
 3526 0882 0092     		str	r2, [sp]
 3527 0884 13F0970F 		tst	r3, #151
 3528 0888 0191     		str	r1, [sp, #4]
 3529 088a 14BF     		ite	ne
 3530 088c 3246     		movne	r2, r6
 3531 088e 2E22     		moveq	r2, #46
 3532 0890 0F49     		ldr	r1, .L361+20
 3533 0892 F0E4     		b	.L332
 3534              	.LVL355:
 3535              	.L356:
 3536              	.LBB284:
 3537              	.LBB274:
 3538              	.LBB270:
 3539              	.LBB266:
 3540              	.LBB262:
 3541              	.LBB259:
 3542              	.LBB256:
 3543              	.LBB255:
 3544              		.loc 2 575 0
 3545 0894 D4F80090 		ldr	r9, [r4]
 3546              	.LVL356:
 3547 0898 FFF7FEFF 		bl	__errno
 3548              	.LVL357:
 3549 089c 0068     		ldr	r0, [r0]
 3550 089e FFF7FEFF 		bl	strerror
 3551              	.LVL358:
 3552 08a2 0749     		ldr	r1, .L361+4
 3553 08a4 0246     		mov	r2, r0
 3554 08a6 4846     		mov	r0, r9
 3555 08a8 FFF7FEFF 		bl	lcfg_error_set
 3556              	.LVL359:
 3557 08ac D4F80C31 		ldr	r3, [r4, #268]
 3558 08b0 83E6     		b	.L265
 3559              	.LVL360:
 3560              	.L284:
 3561              	.LBE255:
 3562              	.LBE256:
 3563              	.LBE259:
 3564              	.LBE262:
 3565              	.LBE266:
 3566              	.LBE270:
 3567              	.LBE274:
 3568              	.LBE284:
 3569              	.LBE292:
ARM GAS  C:\Users\jo\AppData\Local\Temp\ccMF9q4g.s 			page 64


 3570              		.loc 2 849 0
 3571 08b2 002F     		cmp	r7, #0
 3572 08b4 3FF4F4AD 		beq	.L288
 3573 08b8 62E6     		b	.L287
 3574              	.L362:
 3575 08ba 00BF     		.align	2
 3576              	.L361:
 3577 08bc 00000000 		.word	__ctype_ptr__
 3578 08c0 94000000 		.word	.LC32
 3579 08c4 D4000000 		.word	.LC34
 3580 08c8 84000000 		.word	.LC29
 3581 08cc 00000000 		.word	itm_port
 3582 08d0 08010000 		.word	.LC36
 3583              		.cfi_endproc
 3584              	.LFE273:
 3585              		.size	lcfg_scanner_token_read, .-lcfg_scanner_token_read
 3586 08d4 AFF30080 		.section	.text.lcfg_scanner_init,"ax",%progbits
 3586      AFF30080 
 3586      AFF30080 
 3587              		.align	2
 3588              		.p2align 4,,15
 3589              		.global	lcfg_scanner_init
 3590              		.thumb
 3591              		.thumb_func
 3592              		.type	lcfg_scanner_init, %function
 3593              	lcfg_scanner_init:
 3594              	.LFB274:
 3595              		.loc 2 863 0
 3596              		.cfi_startproc
 3597              		@ args = 0, pretend = 0, frame = 0
 3598              		@ frame_needed = 0, uses_anonymous_args = 0
 3599              		@ link register save eliminated.
 3600              	.LVL361:
 3601              		.loc 2 865 0
 3602 0000 FFF7FEBF 		b	lcfg_scanner_token_read
 3603              	.LVL362:
 3604              		.cfi_endproc
 3605              	.LFE274:
 3606              		.size	lcfg_scanner_init, .-lcfg_scanner_init
 3607 0004 AFF30080 		.section	.text.lcfg_scanner_next_token,"ax",%progbits
 3607      AFF30080 
 3607      AFF30080 
 3608              		.align	2
 3609              		.p2align 4,,15
 3610              		.global	lcfg_scanner_next_token
 3611              		.thumb
 3612              		.thumb_func
 3613              		.type	lcfg_scanner_next_token, %function
 3614              	lcfg_scanner_next_token:
 3615              	.LFB276:
 3616              		.loc 2 874 0
 3617              		.cfi_startproc
 3618              		@ args = 0, pretend = 0, frame = 0
 3619              		@ frame_needed = 0, uses_anonymous_args = 0
 3620              	.LVL363:
 3621 0000 38B5     		push	{r3, r4, r5, lr}
 3622              		.cfi_def_cfa_offset 16
ARM GAS  C:\Users\jo\AppData\Local\Temp\ccMF9q4g.s 			page 65


 3623              		.cfi_offset 3, -16
 3624              		.cfi_offset 4, -12
 3625              		.cfi_offset 5, -8
 3626              		.cfi_offset 14, -4
 3627              		.loc 2 875 0
 3628 0002 90F81831 		ldrb	r3, [r0, #280]	@ zero_extendqisi2
 3629              		.loc 2 874 0
 3630 0006 0446     		mov	r4, r0
 3631              	.LVL364:
 3632              		.loc 2 875 0
 3633 0008 9BB1     		cbz	r3, .L368
 3634 000a 0D46     		mov	r5, r1
 3635              		.loc 2 881 0
 3636 000c D0F82031 		ldr	r3, [r0, #288]	@ unaligned
 3637 0010 D0F81811 		ldr	r1, [r0, #280]	@ unaligned
 3638              	.LVL365:
 3639 0014 D0F81C21 		ldr	r2, [r0, #284]	@ unaligned
 3640 0018 6A60     		str	r2, [r5, #4]	@ unaligned
 3641 001a AB60     		str	r3, [r5, #8]	@ unaligned
 3642 001c 2960     		str	r1, [r5]	@ unaligned
 3643              		.loc 2 882 0
 3644 001e D0F81C01 		ldr	r0, [r0, #284]
 3645              	.LVL366:
 3646 0022 FFF7FEFF 		bl	lcfg_string_new_copy
 3647              	.LVL367:
 3648 0026 6860     		str	r0, [r5, #4]
 3649              		.loc 2 885 0
 3650 0028 2046     		mov	r0, r4
 3651              		.loc 2 886 0
 3652 002a BDE83840 		pop	{r3, r4, r5, lr}
 3653              		.cfi_remember_state
 3654              		.cfi_restore 14
 3655              		.cfi_restore 5
 3656              		.cfi_restore 4
 3657              		.cfi_restore 3
 3658              		.cfi_def_cfa_offset 0
 3659              	.LVL368:
 3660              		.loc 2 885 0
 3661 002e FFF7FEBF 		b	lcfg_scanner_token_read
 3662              	.LVL369:
 3663              	.L368:
 3664              		.cfi_restore_state
 3665              	.LBB299:
 3666              	.LBB300:
 3667              		.loc 2 877 0
 3668 0032 0068     		ldr	r0, [r0]
 3669              	.LVL370:
 3670 0034 0249     		ldr	r1, .L370
 3671              	.LVL371:
 3672 0036 034A     		ldr	r2, .L370+4
 3673 0038 FFF7FEFF 		bl	lcfg_error_set
 3674              	.LVL372:
 3675              	.LBE300:
 3676              	.LBE299:
 3677              		.loc 2 886 0
 3678 003c 0120     		movs	r0, #1
 3679 003e 38BD     		pop	{r3, r4, r5, pc}
ARM GAS  C:\Users\jo\AppData\Local\Temp\ccMF9q4g.s 			page 66


 3680              	.LVL373:
 3681              	.L371:
 3682              		.align	2
 3683              	.L370:
 3684 0040 48000000 		.word	.LC27
 3685 0044 44020000 		.word	.LC42
 3686              		.cfi_endproc
 3687              	.LFE276:
 3688              		.size	lcfg_scanner_next_token, .-lcfg_scanner_next_token
 3689 0048 AFF30080 		.section	.text.lcfg_parser_run,"ax",%progbits
 3689      AFF30080 
 3690              		.align	2
 3691              		.p2align 4,,15
 3692              		.global	lcfg_parser_run
 3693              		.thumb
 3694              		.thumb_func
 3695              		.type	lcfg_parser_run, %function
 3696              	lcfg_parser_run:
 3697              	.LFB283:
 3698              		.loc 2 1195 0
 3699              		.cfi_startproc
 3700              		@ args = 0, pretend = 0, frame = 56
 3701              		@ frame_needed = 0, uses_anonymous_args = 0
 3702              	.LVL374:
 3703 0000 2DE9F04F 		push	{r4, r5, r6, r7, r8, r9, r10, fp, lr}
 3704              		.cfi_def_cfa_offset 36
 3705              		.cfi_offset 4, -36
 3706              		.cfi_offset 5, -32
 3707              		.cfi_offset 6, -28
 3708              		.cfi_offset 7, -24
 3709              		.cfi_offset 8, -20
 3710              		.cfi_offset 9, -16
 3711              		.cfi_offset 10, -12
 3712              		.cfi_offset 11, -8
 3713              		.cfi_offset 14, -4
 3714              		.loc 2 1196 0
 3715 0004 0021     		movs	r1, #0
 3716              		.loc 2 1195 0
 3717 0006 91B0     		sub	sp, sp, #68
 3718              		.cfi_def_cfa_offset 104
 3719              		.loc 2 1195 0
 3720 0008 0546     		mov	r5, r0
 3721              		.loc 2 1196 0
 3722 000a 4068     		ldr	r0, [r0, #4]
 3723              	.LVL375:
 3724 000c FFF7FEFF 		bl	open
 3725              	.LVL376:
 3726              		.loc 2 1199 0
 3727 0010 B0F10009 		subs	r9, r0, #0
 3728 0014 C0F22281 		blt	.L501
 3729              		.loc 2 1205 0
 3730 0018 4946     		mov	r1, r9
 3731 001a 2868     		ldr	r0, [r5]
 3732              	.LVL377:
 3733              	.LBB363:
 3734              	.LBB364:
 3735              		.loc 2 1013 0
ARM GAS  C:\Users\jo\AppData\Local\Temp\ccMF9q4g.s 			page 67


 3736 001c BA4E     		ldr	r6, .L522
 3737              	.LBE364:
 3738              	.LBE363:
 3739              		.loc 2 1205 0
 3740 001e FFF7FEFF 		bl	lcfg_scanner_new
 3741              	.LVL378:
 3742 0022 0746     		mov	r7, r0
 3743 0024 A860     		str	r0, [r5, #8]
 3744              	.LVL379:
 3745              	.LBB418:
 3746              	.LBB415:
 3747              		.loc 2 1013 0
 3748 0026 0FCE     		ldmia	r6!, {r0, r1, r2, r3}
 3749 0028 0AAC     		add	r4, sp, #40
 3750 002a 0FC4     		stmia	r4!, {r0, r1, r2, r3}
 3751 002c 96E80300 		ldmia	r6, {r0, r1}
 3752 0030 84E80300 		stmia	r4, {r0, r1}
 3753              	.LVL380:
 3754              	.LBB365:
 3755              	.LBB366:
 3756              		.loc 2 865 0
 3757 0034 3846     		mov	r0, r7
 3758 0036 FFF7FEFF 		bl	lcfg_scanner_token_read
 3759              	.LVL381:
 3760              	.LBE366:
 3761              	.LBE365:
 3762              		.loc 2 1054 0
 3763 003a 0646     		mov	r6, r0
 3764 003c 38B1     		cbz	r0, .L502
 3765              		.loc 2 1056 0
 3766 003e 0126     		movs	r6, #1
 3767              	.LVL382:
 3768              	.L375:
 3769              	.LBE415:
 3770              	.LBE418:
 3771              		.loc 2 1209 0
 3772 0040 4846     		mov	r0, r9
 3773 0042 FFF7FEFF 		bl	close
 3774              	.LVL383:
 3775              		.loc 2 1212 0
 3776 0046 3046     		mov	r0, r6
 3777 0048 11B0     		add	sp, sp, #68
 3778              		.cfi_remember_state
 3779              		.cfi_def_cfa_offset 36
 3780              		@ sp needed
 3781 004a BDE8F08F 		pop	{r4, r5, r6, r7, r8, r9, r10, fp, pc}
 3782              	.LVL384:
 3783              	.L502:
 3784              		.cfi_restore_state
 3785              	.LBB419:
 3786              	.LBB416:
 3787              		.loc 2 1061 0
 3788 004e 4020     		movs	r0, #64
 3789 0050 FFF7FEFF 		bl	malloc
 3790              	.LVL385:
 3791              		.loc 2 1063 0
 3792 0054 0670     		strb	r6, [r0]
ARM GAS  C:\Users\jo\AppData\Local\Temp\ccMF9q4g.s 			page 68


 3793              		.loc 2 1064 0
 3794 0056 4660     		str	r6, [r0, #4]
 3795              		.loc 2 1061 0
 3796 0058 0746     		mov	r7, r0
 3797              	.LVL386:
 3798 005a 0446     		mov	r4, r0
 3799              	.LVL387:
 3800              		.loc 2 1067 0
 3801 005c FFF7FEFF 		bl	lcfg_string_new
 3802              	.LVL388:
 3803 0060 8246     		mov	r10, r0
 3804 0062 0390     		str	r0, [sp, #12]
 3805              	.LVL389:
 3806              		.loc 2 1069 0
 3807 0064 A868     		ldr	r0, [r5, #8]
 3808              	.LVL390:
 3809 0066 90F81831 		ldrb	r3, [r0, #280]	@ zero_extendqisi2
 3810 006a 002B     		cmp	r3, #0
 3811 006c 00F02F82 		beq	.L376
 3812 0070 3B78     		ldrb	r3, [r7]	@ zero_extendqisi2
 3813 0072 052B     		cmp	r3, #5
 3814 0074 00F02B82 		beq	.L376
 3815 0078 0823     		movs	r3, #8
 3816              		.loc 2 1079 0
 3817 007a DFF8C882 		ldr	r8, .L522+60
 3818 007e 0596     		str	r6, [sp, #20]
 3819              		.loc 2 1069 0
 3820 0080 B346     		mov	fp, r6
 3821 0082 0293     		str	r3, [sp, #8]
 3822 0084 CDF81090 		str	r9, [sp, #16]
 3823 0088 3E46     		mov	r6, r7
 3824              	.LVL391:
 3825              	.L442:
 3826              		.loc 2 1071 0
 3827 008a 07A9     		add	r1, sp, #28
 3828 008c FFF7FEFF 		bl	lcfg_scanner_next_token
 3829              	.LVL392:
 3830 0090 0028     		cmp	r0, #0
 3831 0092 40F0CC81 		bne	.L503
 3832              		.loc 2 1079 0
 3833 0096 4FF40073 		mov	r3, #512
 3834 009a A8F81A30 		strh	r3, [r8, #26]	@ movhi
 3835              	.LVL393:
 3836              		.loc 2 1081 0
 3837 009e 2378     		ldrb	r3, [r4]	@ zero_extendqisi2
 3838 00a0 052B     		cmp	r3, #5
 3839 00a2 69D8     		bhi	.L378
 3840 00a4 DFE803F0 		tbb	[pc, r3]
 3841              	.L380:
 3842 00a8 4C       		.byte	(.L379-.L380)/2
 3843 00a9 36       		.byte	(.L381-.L380)/2
 3844 00aa 26       		.byte	(.L382-.L380)/2
 3845 00ab 0A       		.byte	(.L383-.L380)/2
 3846 00ac 4C       		.byte	(.L379-.L380)/2
 3847 00ad 03       		.byte	(.L384-.L380)/2
 3848              		.p2align 1
 3849              	.L384:
ARM GAS  C:\Users\jo\AppData\Local\Temp\ccMF9q4g.s 			page 69


 3850              		.loc 2 1168 0
 3851 00ae 9748     		ldr	r0, .L522+4
 3852 00b0 974A     		ldr	r2, .L522+8
 3853 00b2 984B     		ldr	r3, .L522+12
 3854 00b4 4FF49261 		mov	r1, #1168
 3855 00b8 FFF7FEFF 		bl	__assert_func
 3856              	.LVL394:
 3857              	.L383:
 3858              		.loc 2 1133 0
 3859 00bc 9DF81C30 		ldrb	r3, [sp, #28]	@ zero_extendqisi2
 3860 00c0 062B     		cmp	r3, #6
 3861 00c2 00F0AA80 		beq	.L496
 3862              		.loc 2 1134 0
 3863 00c6 032B     		cmp	r3, #3
 3864 00c8 00F06381 		beq	.L504
 3865              		.loc 2 1142 0
 3866 00cc 042B     		cmp	r3, #4
 3867 00ce 00F09381 		beq	.L505
 3868              		.loc 2 1149 0
 3869 00d2 072B     		cmp	r3, #7
 3870 00d4 00F0C081 		beq	.L506
 3871              		.loc 2 1156 0
 3872 00d8 052B     		cmp	r3, #5
 3873 00da 00F00681 		beq	.L507
 3874              		.loc 2 1163 0
 3875 00de 8E4A     		ldr	r2, .L522+16
 3876 00e0 BDF92610 		ldrsh	r1, [sp, #38]
 3877 00e4 52F82320 		ldr	r2, [r2, r3, lsl #2]
 3878 00e8 2868     		ldr	r0, [r5]
 3879 00ea BDF92430 		ldrsh	r3, [sp, #36]
 3880 00ee 0091     		str	r1, [sp]
 3881 00f0 8A49     		ldr	r1, .L522+20
 3882 00f2 1DE0     		b	.L498
 3883              	.L382:
 3884              		.loc 2 1111 0
 3885 00f4 9DF81C30 		ldrb	r3, [sp, #28]	@ zero_extendqisi2
 3886 00f8 032B     		cmp	r3, #3
 3887 00fa 00F0CA80 		beq	.L508
 3888              		.loc 2 1118 0
 3889 00fe 042B     		cmp	r3, #4
 3890 0100 7BD0     		beq	.L509
 3891              		.loc 2 1122 0
 3892 0102 072B     		cmp	r3, #7
 3893 0104 40F0BA80 		bne	.L410
 3894              		.loc 2 1124 0
 3895 0108 0423     		movs	r3, #4
 3896 010a 2370     		strb	r3, [r4]
 3897 010c 824F     		ldr	r7, .L522+16
 3898 010e 06EBCB04 		add	r4, r6, fp, lsl #3
 3899 0112 34E0     		b	.L388
 3900              	.L381:
 3901              		.loc 2 1102 0
 3902 0114 9DF81C30 		ldrb	r3, [sp, #28]	@ zero_extendqisi2
 3903 0118 022B     		cmp	r3, #2
 3904 011a 6FD0     		beq	.L497
 3905              		.loc 2 1106 0
 3906 011c 7E4A     		ldr	r2, .L522+16
ARM GAS  C:\Users\jo\AppData\Local\Temp\ccMF9q4g.s 			page 70


 3907 011e BDF92610 		ldrsh	r1, [sp, #38]
 3908 0122 52F82320 		ldr	r2, [r2, r3, lsl #2]
 3909 0126 2868     		ldr	r0, [r5]
 3910 0128 BDF92430 		ldrsh	r3, [sp, #36]
 3911 012c 0091     		str	r1, [sp]
 3912 012e 7C49     		ldr	r1, .L522+24
 3913              	.L498:
 3914              		.loc 2 1163 0
 3915 0130 794F     		ldr	r7, .L522+16
 3916 0132 FFF7FEFF 		bl	lcfg_error_set
 3917              	.LVL395:
 3918              		.loc 2 1164 0
 3919 0136 0523     		movs	r3, #5
 3920 0138 2370     		strb	r3, [r4]
 3921 013a 06EBCB04 		add	r4, r6, fp, lsl #3
 3922 013e 1EE0     		b	.L388
 3923              	.L379:
 3924              		.loc 2 1085 0
 3925 0140 9DF81C20 		ldrb	r2, [sp, #28]	@ zero_extendqisi2
 3926 0144 012A     		cmp	r2, #1
 3927 0146 6CD0     		beq	.L510
 3928              		.loc 2 1090 0
 3929 0148 042B     		cmp	r3, #4
 3930 014a 00F01481 		beq	.L511
 3931              		.loc 2 1097 0
 3932 014e 724B     		ldr	r3, .L522+16
 3933 0150 2868     		ldr	r0, [r5]
 3934 0152 53F82220 		ldr	r2, [r3, r2, lsl #2]
 3935 0156 BDF926E0 		ldrsh	lr, [sp, #38]
 3936 015a 7249     		ldr	r1, .L522+28
 3937 015c 1F46     		mov	r7, r3
 3938 015e BDF92430 		ldrsh	r3, [sp, #36]
 3939              	.L445:
 3940 0162 0191     		str	r1, [sp, #4]
 3941 0164 CDF800E0 		str	lr, [sp]
 3942 0168 6F49     		ldr	r1, .L522+32
 3943 016a FFF7FEFF 		bl	lcfg_error_set
 3944              	.LVL396:
 3945              		.loc 2 1098 0
 3946 016e 0523     		movs	r3, #5
 3947 0170 2370     		strb	r3, [r4]
 3948 0172 06EBCB04 		add	r4, r6, fp, lsl #3
 3949 0176 02E0     		b	.L388
 3950              	.L378:
 3951 0178 674F     		ldr	r7, .L522+16
 3952 017a 06EBCB04 		add	r4, r6, fp, lsl #3
 3953              	.L388:
 3954              	.LVL397:
 3955              		.loc 2 1172 0
 3956 017e DDF82090 		ldr	r9, [sp, #32]
 3957              	.LVL398:
 3958              	.LBB367:
 3959              	.LBB368:
 3960              		.loc 2 477 0
 3961 0182 D9F80000 		ldr	r0, [r9]
 3962 0186 FFF7FEFF 		bl	free
 3963              	.LVL399:
ARM GAS  C:\Users\jo\AppData\Local\Temp\ccMF9q4g.s 			page 71


 3964              		.loc 2 478 0
 3965 018a 4846     		mov	r0, r9
 3966 018c FFF7FEFF 		bl	free
 3967              	.LVL400:
 3968              	.LBE368:
 3969              	.LBE367:
 3970              		.loc 2 1174 0
 3971 0190 4FF40073 		mov	r3, #512
 3972 0194 A8F81830 		strh	r3, [r8, #24]	@ movhi
 3973              	.LVL401:
 3974              		.loc 2 1176 0
 3975 0198 9DF81C20 		ldrb	r2, [sp, #28]	@ zero_extendqisi2
 3976 019c 2378     		ldrb	r3, [r4]	@ zero_extendqisi2
 3977 019e 57F82220 		ldr	r2, [r7, r2, lsl #2]
 3978 01a2 6248     		ldr	r0, .L522+36
 3979 01a4 6249     		ldr	r1, .L522+40
 3980 01a6 10AF     		add	r7, sp, #64
 3981 01a8 07EB8303 		add	r3, r7, r3, lsl #2
 3982 01ac 53F8183C 		ldr	r3, [r3, #-24]
 3983 01b0 FFF7FEFF 		bl	chprintf.constprop.11
 3984              	.LVL402:
 3985              		.loc 2 1069 0
 3986 01b4 A868     		ldr	r0, [r5, #8]
 3987              	.LVL403:
 3988 01b6 90F81831 		ldrb	r3, [r0, #280]	@ zero_extendqisi2
 3989 01ba 1BB1     		cbz	r3, .L499
 3990 01bc 2378     		ldrb	r3, [r4]	@ zero_extendqisi2
 3991 01be 052B     		cmp	r3, #5
 3992 01c0 7FF463AF 		bne	.L442
 3993              	.L499:
 3994              	.LVL404:
 3995              	.LBB369:
 3996              	.LBB370:
 3997              		.loc 2 477 0
 3998 01c4 039F     		ldr	r7, [sp, #12]
 3999 01c6 DDF81090 		ldr	r9, [sp, #16]
 4000              	.LVL405:
 4001 01ca 3868     		ldr	r0, [r7]
 4002              	.LVL406:
 4003 01cc B046     		mov	r8, r6
 4004 01ce 059E     		ldr	r6, [sp, #20]
 4005              	.LVL407:
 4006 01d0 FFF7FEFF 		bl	free
 4007              	.LVL408:
 4008              		.loc 2 478 0
 4009 01d4 3846     		mov	r0, r7
 4010 01d6 FFF7FEFF 		bl	free
 4011              	.LVL409:
 4012              	.LBE370:
 4013              	.LBE369:
 4014              		.loc 2 1181 0
 4015 01da 2378     		ldrb	r3, [r4]	@ zero_extendqisi2
 4016 01dc 1BB9     		cbnz	r3, .L441
 4017 01de BBF1000F 		cmp	fp, #0
 4018 01e2 00F0B481 		beq	.L512
 4019              	.LVL410:
 4020              	.L441:
ARM GAS  C:\Users\jo\AppData\Local\Temp\ccMF9q4g.s 			page 72


 4021              		.loc 2 1188 0
 4022 01e6 4046     		mov	r0, r8
 4023 01e8 FFF7FEFF 		bl	free
 4024              	.LVL411:
 4025              		.loc 2 1189 0
 4026 01ec 2868     		ldr	r0, [r5]
 4027 01ee 5149     		ldr	r1, .L522+44
 4028 01f0 514A     		ldr	r2, .L522+48
 4029 01f2 FFF7FEFF 		bl	lcfg_error_set
 4030              	.LVL412:
 4031              		.loc 2 1190 0
 4032 01f6 0126     		movs	r6, #1
 4033 01f8 22E7     		b	.L375
 4034              	.LVL413:
 4035              	.L509:
 4036              		.loc 2 1120 0
 4037 01fa 0323     		movs	r3, #3
 4038              	.L497:
 4039 01fc 2370     		strb	r3, [r4]
 4040 01fe 464F     		ldr	r7, .L522+16
 4041 0200 06EBCB04 		add	r4, r6, fp, lsl #3
 4042 0204 BBE7     		b	.L388
 4043              	.LVL414:
 4044              	.L394:
 4045 0206 3B46     		mov	r3, r7
 4046              	.LVL415:
 4047 0208 04E0     		b	.L396
 4048              	.LVL416:
 4049              	.L398:
 4050              	.LBB372:
 4051              	.LBB373:
 4052              		.loc 2 425 0
 4053 020a 13F8011D 		ldrb	r1, [r3, #-1]!	@ zero_extendqisi2
 4054 020e 2E29     		cmp	r1, #46
 4055 0210 00F04A81 		beq	.L450
 4056              	.LVL417:
 4057              	.L396:
 4058              		.loc 2 423 0
 4059 0214 12F1FF32 		adds	r2, r2, #-1
 4060              	.LVL418:
 4061 0218 F7D2     		bcs	.L398
 4062              	.LVL419:
 4063              	.L496:
 4064 021a 06EBCB04 		add	r4, r6, fp, lsl #3
 4065 021e 3E4F     		ldr	r7, .L522+16
 4066 0220 ADE7     		b	.L388
 4067              	.L510:
 4068              	.LVL420:
 4069              	.LBE373:
 4070              	.LBE372:
 4071              		.loc 2 1087 0
 4072 0222 DAF80430 		ldr	r3, [r10, #4]
 4073 0226 002B     		cmp	r3, #0
 4074 0228 40F0A080 		bne	.L513
 4075              	.L386:
 4076 022c 089B     		ldr	r3, [sp, #32]
 4077              	.LVL421:
ARM GAS  C:\Users\jo\AppData\Local\Temp\ccMF9q4g.s 			page 73


 4078              	.LBB374:
 4079              	.LBB375:
 4080              		.loc 2 466 0
 4081 022e 93E80600 		ldmia	r3, {r1, r2}
 4082 0232 0020     		movs	r0, #0
 4083 0234 8854     		strb	r0, [r1, r2]
 4084              	.LBE375:
 4085              	.LBE374:
 4086              		.loc 2 1087 0
 4087 0236 5046     		mov	r0, r10
 4088 0238 1968     		ldr	r1, [r3]
 4089 023a FFF7FEFF 		bl	lcfg_string_cat_cstr
 4090              	.LVL422:
 4091              		.loc 2 1088 0
 4092 023e 029B     		ldr	r3, [sp, #8]
 4093 0240 0BF1010B 		add	fp, fp, #1
 4094              	.LVL423:
 4095 0244 9B45     		cmp	fp, r3
 4096 0246 00F08481 		beq	.L514
 4097              	.L387:
 4098              	.LVL424:
 4099 024a 06EBCB04 		add	r4, r6, fp, lsl #3
 4100 024e 0122     		movs	r2, #1
 4101 0250 0023     		movs	r3, #0
 4102 0252 06F83B20 		strb	r2, [r6, fp, lsl #3]
 4103 0256 304F     		ldr	r7, .L522+16
 4104 0258 6360     		str	r3, [r4, #4]
 4105 025a 90E7     		b	.L388
 4106              	.LVL425:
 4107              	.L501:
 4108              	.LBE416:
 4109              	.LBE419:
 4110              	.LBB420:
 4111              	.LBB421:
 4112              		.loc 2 1201 0
 4113 025c 2C68     		ldr	r4, [r5]
 4114 025e FFF7FEFF 		bl	__errno
 4115              	.LVL426:
 4116 0262 0068     		ldr	r0, [r0]
 4117 0264 FFF7FEFF 		bl	strerror
 4118              	.LVL427:
 4119 0268 3449     		ldr	r1, .L522+52
 4120 026a 0246     		mov	r2, r0
 4121 026c 2046     		mov	r0, r4
 4122 026e FFF7FEFF 		bl	lcfg_error_set
 4123              	.LVL428:
 4124 0272 0126     		movs	r6, #1
 4125              	.LBE421:
 4126              	.LBE420:
 4127              		.loc 2 1212 0
 4128 0274 3046     		mov	r0, r6
 4129 0276 11B0     		add	sp, sp, #68
 4130              		.cfi_remember_state
 4131              		.cfi_def_cfa_offset 36
 4132              		@ sp needed
 4133 0278 BDE8F08F 		pop	{r4, r5, r6, r7, r8, r9, r10, fp, pc}
 4134              	.LVL429:
ARM GAS  C:\Users\jo\AppData\Local\Temp\ccMF9q4g.s 			page 74


 4135              	.L410:
 4136              		.cfi_restore_state
 4137              	.LBB422:
 4138              	.LBB417:
 4139              		.loc 2 1128 0
 4140 027c 264A     		ldr	r2, .L522+16
 4141 027e BDF92610 		ldrsh	r1, [sp, #38]
 4142 0282 52F82320 		ldr	r2, [r2, r3, lsl #2]
 4143 0286 2868     		ldr	r0, [r5]
 4144 0288 BDF92430 		ldrsh	r3, [sp, #36]
 4145 028c 0091     		str	r1, [sp]
 4146 028e 2C49     		ldr	r1, .L522+56
 4147 0290 4EE7     		b	.L498
 4148              	.L508:
 4149              	.LVL430:
 4150              	.LBB376:
 4151              	.LBB377:
 4152              		.loc 2 466 0
 4153 0292 9AE80C00 		ldmia	r10, {r2, r3}
 4154 0296 0021     		movs	r1, #0
 4155 0298 D154     		strb	r1, [r2, r3]
 4156              	.LBE377:
 4157              	.LBE376:
 4158              		.loc 2 1113 0
 4159 029a 089A     		ldr	r2, [sp, #32]
 4160 029c DAF80010 		ldr	r1, [r10]
 4161 02a0 2846     		mov	r0, r5
 4162 02a2 FFF7FEFF 		bl	lcfg_parser_add_value
 4163              	.LVL431:
 4164              	.LBB378:
 4165              	.LBB379:
 4166              		.loc 2 423 0
 4167 02a6 DAF80440 		ldr	r4, [r10, #4]
 4168 02aa 621E     		subs	r2, r4, #1
 4169              	.LBE379:
 4170              	.LBE378:
 4171              		.loc 2 1115 0
 4172 02ac 0BF1FF3B 		add	fp, fp, #-1
 4173              	.LVL432:
 4174              	.LBB381:
 4175              	.LBB380:
 4176              		.loc 2 423 0
 4177 02b0 12D4     		bmi	.L401
 4178              		.loc 2 425 0
 4179 02b2 DAF80030 		ldr	r3, [r10]
 4180 02b6 995C     		ldrb	r1, [r3, r2]	@ zero_extendqisi2
 4181 02b8 2E29     		cmp	r1, #46
 4182 02ba 03EB0207 		add	r7, r3, r2
 4183 02be 00F0F380 		beq	.L450
 4184 02c2 3946     		mov	r1, r7
 4185 02c4 1346     		mov	r3, r2
 4186 02c6 04E0     		b	.L403
 4187              	.LVL433:
 4188              	.L405:
 4189 02c8 11F8010D 		ldrb	r0, [r1, #-1]!	@ zero_extendqisi2
 4190 02cc 2E28     		cmp	r0, #46
 4191 02ce 00F0F480 		beq	.L404
ARM GAS  C:\Users\jo\AppData\Local\Temp\ccMF9q4g.s 			page 75


 4192              	.LVL434:
 4193              	.L403:
 4194              		.loc 2 423 0
 4195 02d2 13F1FF33 		adds	r3, r3, #-1
 4196              	.LVL435:
 4197 02d6 F7D2     		bcs	.L405
 4198              	.LVL436:
 4199              	.L401:
 4200              	.LBE380:
 4201              	.LBE381:
 4202              	.LBB382:
 4203              	.LBB383:
 4204              		.loc 2 436 0
 4205 02d8 002C     		cmp	r4, #0
 4206 02da 9ED0     		beq	.L496
 4207              		.loc 2 438 0
 4208 02dc 0023     		movs	r3, #0
 4209 02de CAF80430 		str	r3, [r10, #4]
 4210 02e2 06EBCB04 		add	r4, r6, fp, lsl #3
 4211 02e6 0C4F     		ldr	r7, .L522+16
 4212 02e8 49E7     		b	.L388
 4213              	.LVL437:
 4214              	.L507:
 4215              	.LBE383:
 4216              	.LBE382:
 4217              	.LBB384:
 4218              	.LBB385:
 4219              		.loc 2 423 0
 4220 02ea DAF80440 		ldr	r4, [r10, #4]
 4221              	.LVL438:
 4222 02ee 621E     		subs	r2, r4, #1
 4223              	.LVL439:
 4224 02f0 32D4     		bmi	.L430
 4225              		.loc 2 425 0
 4226 02f2 DAF80030 		ldr	r3, [r10]
 4227 02f6 995C     		ldrb	r1, [r3, r2]	@ zero_extendqisi2
 4228 02f8 2E29     		cmp	r1, #46
 4229 02fa 03EB0207 		add	r7, r3, r2
 4230 02fe 00F0FD80 		beq	.L452
 4231 0302 3946     		mov	r1, r7
 4232 0304 1346     		mov	r3, r2
 4233 0306 24E0     		b	.L432
 4234              	.L523:
 4235              		.align	2
 4236              	.L522:
 4237 0308 2C000000 		.word	.LANCHOR6+44
 4238 030c 00000000 		.word	.LC18
 4239 0310 00000000 		.word	.LANCHOR8
 4240 0314 9C030000 		.word	.LC51
 4241 0318 00000000 		.word	.LANCHOR7
 4242 031c 48030000 		.word	.LC50
 4243 0320 C8020000 		.word	.LC48
 4244 0324 6C020000 		.word	.LC43
 4245 0328 84020000 		.word	.LC47
 4246 032c 00000000 		.word	itm_port
 4247 0330 A0030000 		.word	.LC52
 4248 0334 48000000 		.word	.LC27
ARM GAS  C:\Users\jo\AppData\Local\Temp\ccMF9q4g.s 			page 76


 4249 0338 C4030000 		.word	.LC53
 4250 033c 78020000 		.word	.LC45
 4251 0340 00030000 		.word	.LC49
 4252 0344 00200240 		.word	1073881088
 4253              	.LVL440:
 4254              	.L434:
 4255 0348 11F8010D 		ldrb	r0, [r1, #-1]!	@ zero_extendqisi2
 4256 034c 2E28     		cmp	r0, #46
 4257 034e 00F0CC80 		beq	.L433
 4258              	.LVL441:
 4259              	.L432:
 4260              		.loc 2 423 0
 4261 0352 13F1FF33 		adds	r3, r3, #-1
 4262              	.LVL442:
 4263 0356 F7D2     		bcs	.L434
 4264              	.LVL443:
 4265              	.L430:
 4266              	.LBE385:
 4267              	.LBE384:
 4268              	.LBB386:
 4269              	.LBB387:
 4270              		.loc 2 436 0
 4271 0358 14B1     		cbz	r4, .L437
 4272              		.loc 2 438 0
 4273 035a 0023     		movs	r3, #0
 4274 035c CAF80430 		str	r3, [r10, #4]
 4275              	.LVL444:
 4276              	.L437:
 4277              	.LBE387:
 4278              	.LBE386:
 4279              		.loc 2 1159 0
 4280 0360 0BF1FF3B 		add	fp, fp, #-1
 4281              	.LVL445:
 4282 0364 06EBCB04 		add	r4, r6, fp, lsl #3
 4283 0368 8A4F     		ldr	r7, .L524
 4284 036a 08E7     		b	.L388
 4285              	.LVL446:
 4286              	.L513:
 4287              		.loc 2 1087 0
 4288 036c 5046     		mov	r0, r10
 4289 036e 2E21     		movs	r1, #46
 4290 0370 FFF7FEFF 		bl	lcfg_string_cat_char
 4291              	.LVL447:
 4292 0374 5AE7     		b	.L386
 4293              	.LVL448:
 4294              	.L511:
 4295              		.loc 2 1090 0
 4296 0376 082A     		cmp	r2, #8
 4297 0378 00F0CA80 		beq	.L515
 4298              		.loc 2 1097 0
 4299 037c 854B     		ldr	r3, .L524
 4300 037e 2868     		ldr	r0, [r5]
 4301 0380 53F82220 		ldr	r2, [r3, r2, lsl #2]
 4302 0384 BDF926E0 		ldrsh	lr, [sp, #38]
 4303 0388 8349     		ldr	r1, .L524+4
 4304 038a 1F46     		mov	r7, r3
 4305 038c BDF92430 		ldrsh	r3, [sp, #36]
ARM GAS  C:\Users\jo\AppData\Local\Temp\ccMF9q4g.s 			page 77


 4306 0390 E7E6     		b	.L445
 4307              	.L504:
 4308              	.LVL449:
 4309              		.loc 2 1136 0
 4310 0392 DAF80430 		ldr	r3, [r10, #4]
 4311 0396 002B     		cmp	r3, #0
 4312 0398 40F0B580 		bne	.L516
 4313              	.L413:
 4314 039c 6168     		ldr	r1, [r4, #4]
 4315 039e 5046     		mov	r0, r10
 4316 03a0 FFF7FEFF 		bl	lcfg_string_cat_uint
 4317              	.LVL450:
 4318              	.LBB388:
 4319              	.LBB389:
 4320              		.loc 2 466 0
 4321 03a4 9AE80C00 		ldmia	r10, {r2, r3}
 4322 03a8 0021     		movs	r1, #0
 4323 03aa D154     		strb	r1, [r2, r3]
 4324              	.LBE389:
 4325              	.LBE388:
 4326              		.loc 2 1137 0
 4327 03ac 089A     		ldr	r2, [sp, #32]
 4328 03ae DAF80010 		ldr	r1, [r10]
 4329 03b2 2846     		mov	r0, r5
 4330 03b4 FFF7FEFF 		bl	lcfg_parser_add_value
 4331              	.LVL451:
 4332              	.LBB390:
 4333              	.LBB391:
 4334              		.loc 2 423 0
 4335 03b8 DAF80470 		ldr	r7, [r10, #4]
 4336              	.LVL452:
 4337 03bc 7A1E     		subs	r2, r7, #1
 4338              	.LVL453:
 4339 03be 10D4     		bmi	.L414
 4340              		.loc 2 425 0
 4341 03c0 DAF80030 		ldr	r3, [r10]
 4342 03c4 995C     		ldrb	r1, [r3, r2]	@ zero_extendqisi2
 4343 03c6 2E29     		cmp	r1, #46
 4344 03c8 03EB020E 		add	lr, r3, r2
 4345 03cc 67D0     		beq	.L451
 4346 03ce 7146     		mov	r1, lr
 4347 03d0 1346     		mov	r3, r2
 4348 03d2 03E0     		b	.L416
 4349              	.LVL454:
 4350              	.L418:
 4351 03d4 11F8010D 		ldrb	r0, [r1, #-1]!	@ zero_extendqisi2
 4352 03d8 2E28     		cmp	r0, #46
 4353 03da 58D0     		beq	.L417
 4354              	.LVL455:
 4355              	.L416:
 4356              		.loc 2 423 0
 4357 03dc 13F1FF33 		adds	r3, r3, #-1
 4358              	.LVL456:
 4359 03e0 F8D2     		bcs	.L418
 4360              	.LVL457:
 4361              	.L414:
 4362              	.LBE391:
ARM GAS  C:\Users\jo\AppData\Local\Temp\ccMF9q4g.s 			page 78


 4363              	.LBE390:
 4364              	.LBB392:
 4365              	.LBB393:
 4366              		.loc 2 436 0
 4367 03e2 17B1     		cbz	r7, .L421
 4368              		.loc 2 438 0
 4369 03e4 0023     		movs	r3, #0
 4370 03e6 CAF80430 		str	r3, [r10, #4]
 4371              	.LVL458:
 4372              	.L421:
 4373              	.LBE393:
 4374              	.LBE392:
 4375              		.loc 2 1140 0
 4376 03ea 6368     		ldr	r3, [r4, #4]
 4377 03ec 694F     		ldr	r7, .L524
 4378 03ee 0133     		adds	r3, r3, #1
 4379 03f0 6360     		str	r3, [r4, #4]
 4380 03f2 06EBCB04 		add	r4, r6, fp, lsl #3
 4381 03f6 C2E6     		b	.L388
 4382              	.LVL459:
 4383              	.L505:
 4384              		.loc 2 1144 0
 4385 03f8 DAF80430 		ldr	r3, [r10, #4]
 4386 03fc 002B     		cmp	r3, #0
 4387 03fe 40F0A180 		bne	.L517
 4388              	.L424:
 4389 0402 5046     		mov	r0, r10
 4390 0404 6168     		ldr	r1, [r4, #4]
 4391 0406 FFF7FEFF 		bl	lcfg_string_cat_uint
 4392              	.LVL460:
 4393              		.loc 2 1146 0
 4394 040a 6368     		ldr	r3, [r4, #4]
 4395 040c 0133     		adds	r3, r3, #1
 4396 040e 6360     		str	r3, [r4, #4]
 4397              		.loc 2 1147 0
 4398 0410 029B     		ldr	r3, [sp, #8]
 4399 0412 0BF1010B 		add	fp, fp, #1
 4400              	.LVL461:
 4401 0416 5B45     		cmp	r3, fp
 4402 0418 00F0AA80 		beq	.L518
 4403              	.L425:
 4404              	.LVL462:
 4405 041c 06EBCB04 		add	r4, r6, fp, lsl #3
 4406 0420 0322     		movs	r2, #3
 4407 0422 0023     		movs	r3, #0
 4408 0424 06F83B20 		strb	r2, [r6, fp, lsl #3]
 4409 0428 5A4F     		ldr	r7, .L524
 4410 042a 6360     		str	r3, [r4, #4]
 4411 042c A7E6     		b	.L388
 4412              	.LVL463:
 4413              	.L503:
 4414 042e 3046     		mov	r0, r6
 4415 0430 DDF81090 		ldr	r9, [sp, #16]
 4416              		.loc 2 1073 0
 4417 0434 FFF7FEFF 		bl	free
 4418              	.LVL464:
 4419              		.loc 2 1074 0
ARM GAS  C:\Users\jo\AppData\Local\Temp\ccMF9q4g.s 			page 79


 4420 0438 089C     		ldr	r4, [sp, #32]
 4421              	.LVL465:
 4422              	.LBB394:
 4423              	.LBB395:
 4424              		.loc 2 477 0
 4425 043a 2068     		ldr	r0, [r4]
 4426 043c FFF7FEFF 		bl	free
 4427              	.LVL466:
 4428              		.loc 2 478 0
 4429 0440 2046     		mov	r0, r4
 4430 0442 FFF7FEFF 		bl	free
 4431              	.LVL467:
 4432              	.LBE395:
 4433              	.LBE394:
 4434              	.LBB396:
 4435              	.LBB397:
 4436              		.loc 2 477 0
 4437 0446 039C     		ldr	r4, [sp, #12]
 4438              	.LVL468:
 4439 0448 2068     		ldr	r0, [r4]
 4440 044a FFF7FEFF 		bl	free
 4441              	.LVL469:
 4442              		.loc 2 478 0
 4443 044e 2046     		mov	r0, r4
 4444 0450 FFF7FEFF 		bl	free
 4445              	.LVL470:
 4446              	.LBE397:
 4447              	.LBE396:
 4448              		.loc 2 1076 0
 4449 0454 0126     		movs	r6, #1
 4450              	.LVL471:
 4451 0456 F3E5     		b	.L375
 4452              	.LVL472:
 4453              	.L506:
 4454              		.loc 2 1151 0
 4455 0458 DAF80430 		ldr	r3, [r10, #4]
 4456 045c 002B     		cmp	r3, #0
 4457 045e 40F08280 		bne	.L519
 4458              	.L427:
 4459 0462 5046     		mov	r0, r10
 4460 0464 6168     		ldr	r1, [r4, #4]
 4461 0466 FFF7FEFF 		bl	lcfg_string_cat_uint
 4462              	.LVL473:
 4463              		.loc 2 1153 0
 4464 046a 6368     		ldr	r3, [r4, #4]
 4465 046c 0133     		adds	r3, r3, #1
 4466 046e 6360     		str	r3, [r4, #4]
 4467              		.loc 2 1154 0
 4468 0470 029B     		ldr	r3, [sp, #8]
 4469 0472 0BF1010B 		add	fp, fp, #1
 4470              	.LVL474:
 4471 0476 5B45     		cmp	r3, fp
 4472 0478 00F08480 		beq	.L520
 4473              	.L428:
 4474              	.LVL475:
 4475 047c 06EBCB04 		add	r4, r6, fp, lsl #3
 4476 0480 0422     		movs	r2, #4
ARM GAS  C:\Users\jo\AppData\Local\Temp\ccMF9q4g.s 			page 80


 4477 0482 0023     		movs	r3, #0
 4478 0484 06F83B20 		strb	r2, [r6, fp, lsl #3]
 4479 0488 424F     		ldr	r7, .L524
 4480 048a 6360     		str	r3, [r4, #4]
 4481 048c 77E6     		b	.L388
 4482              	.LVL476:
 4483              	.L417:
 4484 048e 7346     		mov	r3, lr
 4485              	.LVL477:
 4486              	.L419:
 4487              	.LBB398:
 4488              	.LBB399:
 4489              		.loc 2 423 0
 4490 0490 12F1FF32 		adds	r2, r2, #-1
 4491              	.LVL478:
 4492 0494 A9D3     		bcc	.L421
 4493              		.loc 2 425 0
 4494 0496 13F8011D 		ldrb	r1, [r3, #-1]!	@ zero_extendqisi2
 4495 049a 2E29     		cmp	r1, #46
 4496 049c F8D1     		bne	.L419
 4497              	.LVL479:
 4498              	.L451:
 4499              	.LBE399:
 4500              	.LBE398:
 4501              	.LBB400:
 4502              	.LBB401:
 4503              		.loc 2 436 0
 4504 049e 9742     		cmp	r7, r2
 4505              		.loc 2 438 0
 4506 04a0 88BF     		it	hi
 4507 04a2 CAF80420 		strhi	r2, [r10, #4]
 4508 04a6 A0E7     		b	.L421
 4509              	.LVL480:
 4510              	.L450:
 4511              	.LBE401:
 4512              	.LBE400:
 4513              	.LBB402:
 4514              	.LBB403:
 4515              		.loc 2 436 0
 4516 04a8 9442     		cmp	r4, r2
 4517 04aa 7FF6B6AE 		bls	.L496
 4518              		.loc 2 438 0
 4519 04ae CAF80420 		str	r2, [r10, #4]
 4520 04b2 06EBCB04 		add	r4, r6, fp, lsl #3
 4521 04b6 374F     		ldr	r7, .L524
 4522 04b8 61E6     		b	.L388
 4523              	.LVL481:
 4524              	.L404:
 4525 04ba 3B46     		mov	r3, r7
 4526              	.LVL482:
 4527 04bc 03E0     		b	.L406
 4528              	.LVL483:
 4529              	.L408:
 4530              	.LBE403:
 4531              	.LBE402:
 4532              	.LBB404:
 4533              	.LBB405:
ARM GAS  C:\Users\jo\AppData\Local\Temp\ccMF9q4g.s 			page 81


 4534              		.loc 2 425 0
 4535 04be 13F8011D 		ldrb	r1, [r3, #-1]!	@ zero_extendqisi2
 4536 04c2 2E29     		cmp	r1, #46
 4537 04c4 F0D0     		beq	.L450
 4538              	.LVL484:
 4539              	.L406:
 4540              		.loc 2 423 0
 4541 04c6 12F1FF32 		adds	r2, r2, #-1
 4542              	.LVL485:
 4543 04ca F8D2     		bcs	.L408
 4544 04cc A5E6     		b	.L496
 4545              	.LVL486:
 4546              	.L376:
 4547              	.LBE405:
 4548              	.LBE404:
 4549              	.LBB406:
 4550              	.LBB371:
 4551              		.loc 2 477 0
 4552 04ce 039B     		ldr	r3, [sp, #12]
 4553 04d0 1868     		ldr	r0, [r3]
 4554              	.LVL487:
 4555 04d2 FFF7FEFF 		bl	free
 4556              	.LVL488:
 4557              		.loc 2 478 0
 4558 04d6 0398     		ldr	r0, [sp, #12]
 4559 04d8 FFF7FEFF 		bl	free
 4560              	.LVL489:
 4561              	.LBE371:
 4562              	.LBE406:
 4563              		.loc 2 1181 0
 4564 04dc 3B78     		ldrb	r3, [r7]	@ zero_extendqisi2
 4565 04de 002B     		cmp	r3, #0
 4566 04e0 4ED1     		bne	.L521
 4567              	.LVL490:
 4568              	.L453:
 4569              		.loc 2 1183 0
 4570 04e2 2046     		mov	r0, r4
 4571 04e4 FFF7FEFF 		bl	free
 4572              	.LVL491:
 4573 04e8 AAE5     		b	.L375
 4574              	.LVL492:
 4575              	.L433:
 4576 04ea 3B46     		mov	r3, r7
 4577              	.LVL493:
 4578              	.L435:
 4579              	.LBB407:
 4580              	.LBB408:
 4581              		.loc 2 423 0
 4582 04ec 12F1FF32 		adds	r2, r2, #-1
 4583              	.LVL494:
 4584 04f0 FFF436AF 		bcc	.L437
 4585              		.loc 2 425 0
 4586 04f4 13F8011D 		ldrb	r1, [r3, #-1]!	@ zero_extendqisi2
 4587 04f8 2E29     		cmp	r1, #46
 4588 04fa F7D1     		bne	.L435
 4589              	.LVL495:
 4590              	.L452:
ARM GAS  C:\Users\jo\AppData\Local\Temp\ccMF9q4g.s 			page 82


 4591              	.LBE408:
 4592              	.LBE407:
 4593              	.LBB409:
 4594              	.LBB410:
 4595              		.loc 2 436 0
 4596 04fc 9442     		cmp	r4, r2
 4597              		.loc 2 438 0
 4598 04fe 88BF     		it	hi
 4599 0500 CAF80420 		strhi	r2, [r10, #4]
 4600 0504 2CE7     		b	.L437
 4601              	.LVL496:
 4602              	.L516:
 4603              	.LBE410:
 4604              	.LBE409:
 4605              		.loc 2 1136 0
 4606 0506 5046     		mov	r0, r10
 4607 0508 2E21     		movs	r1, #46
 4608 050a FFF7FEFF 		bl	lcfg_string_cat_char
 4609              	.LVL497:
 4610 050e 45E7     		b	.L413
 4611              	.LVL498:
 4612              	.L515:
 4613              	.LBB411:
 4614              	.LBB412:
 4615              		.loc 2 423 0
 4616 0510 DAF80440 		ldr	r4, [r10, #4]
 4617 0514 621E     		subs	r2, r4, #1
 4618              	.LBE412:
 4619              	.LBE411:
 4620              		.loc 2 1092 0
 4621 0516 0BF1FF3B 		add	fp, fp, #-1
 4622              	.LVL499:
 4623              	.LBB414:
 4624              	.LBB413:
 4625              		.loc 2 423 0
 4626 051a 3FF5DDAE 		bmi	.L401
 4627              		.loc 2 425 0
 4628 051e DAF80030 		ldr	r3, [r10]
 4629 0522 995C     		ldrb	r1, [r3, r2]	@ zero_extendqisi2
 4630 0524 2E29     		cmp	r1, #46
 4631 0526 03EB0207 		add	r7, r3, r2
 4632 052a BDD0     		beq	.L450
 4633 052c 3946     		mov	r1, r7
 4634 052e 1346     		mov	r3, r2
 4635 0530 04E0     		b	.L393
 4636              	.LVL500:
 4637              	.L395:
 4638 0532 11F8010D 		ldrb	r0, [r1, #-1]!	@ zero_extendqisi2
 4639 0536 2E28     		cmp	r0, #46
 4640 0538 3FF465AE 		beq	.L394
 4641              	.LVL501:
 4642              	.L393:
 4643              		.loc 2 423 0
 4644 053c 13F1FF33 		adds	r3, r3, #-1
 4645              	.LVL502:
 4646 0540 F7D2     		bcs	.L395
 4647 0542 C9E6     		b	.L401
ARM GAS  C:\Users\jo\AppData\Local\Temp\ccMF9q4g.s 			page 83


 4648              	.LVL503:
 4649              	.L517:
 4650              	.LBE413:
 4651              	.LBE414:
 4652              		.loc 2 1144 0
 4653 0544 5046     		mov	r0, r10
 4654 0546 2E21     		movs	r1, #46
 4655 0548 FFF7FEFF 		bl	lcfg_string_cat_char
 4656              	.LVL504:
 4657 054c 59E7     		b	.L424
 4658              	.LVL505:
 4659              	.L512:
 4660              		.loc 2 1181 0
 4661 054e 4446     		mov	r4, r8
 4662 0550 C7E7     		b	.L453
 4663              	.LVL506:
 4664              	.L514:
 4665              		.loc 2 1088 0
 4666 0552 3046     		mov	r0, r6
 4667 0554 4FEA0B11 		lsl	r1, fp, #4
 4668 0558 FFF7FEFF 		bl	realloc
 4669              	.LVL507:
 4670 055c 4FEA4B03 		lsl	r3, fp, #1
 4671 0560 0646     		mov	r6, r0
 4672              	.LVL508:
 4673 0562 0293     		str	r3, [sp, #8]
 4674              	.LVL509:
 4675 0564 71E6     		b	.L387
 4676              	.LVL510:
 4677              	.L519:
 4678              		.loc 2 1151 0
 4679 0566 5046     		mov	r0, r10
 4680 0568 2E21     		movs	r1, #46
 4681 056a FFF7FEFF 		bl	lcfg_string_cat_char
 4682              	.LVL511:
 4683 056e 78E7     		b	.L427
 4684              	.LVL512:
 4685              	.L518:
 4686              		.loc 2 1147 0
 4687 0570 5B00     		lsls	r3, r3, #1
 4688 0572 3046     		mov	r0, r6
 4689 0574 D900     		lsls	r1, r3, #3
 4690 0576 0293     		str	r3, [sp, #8]
 4691              	.LVL513:
 4692 0578 FFF7FEFF 		bl	realloc
 4693              	.LVL514:
 4694 057c 0646     		mov	r6, r0
 4695              	.LVL515:
 4696 057e 4DE7     		b	.L425
 4697              	.LVL516:
 4698              	.L521:
 4699              		.loc 2 1181 0
 4700 0580 B846     		mov	r8, r7
 4701 0582 30E6     		b	.L441
 4702              	.LVL517:
 4703              	.L520:
 4704              		.loc 2 1154 0
ARM GAS  C:\Users\jo\AppData\Local\Temp\ccMF9q4g.s 			page 84


 4705 0584 5B00     		lsls	r3, r3, #1
 4706 0586 3046     		mov	r0, r6
 4707 0588 D900     		lsls	r1, r3, #3
 4708 058a 0293     		str	r3, [sp, #8]
 4709              	.LVL518:
 4710 058c FFF7FEFF 		bl	realloc
 4711              	.LVL519:
 4712 0590 0646     		mov	r6, r0
 4713              	.LVL520:
 4714 0592 73E7     		b	.L428
 4715              	.L525:
 4716              		.align	2
 4717              	.L524:
 4718 0594 00000000 		.word	.LANCHOR7
 4719 0598 70020000 		.word	.LC44
 4720              	.LBE417:
 4721              	.LBE422:
 4722              		.cfi_endproc
 4723              	.LFE283:
 4724              		.size	lcfg_parser_run, .-lcfg_parser_run
 4725 059c AFF30080 		.section	.text.lcfg_parse,"ax",%progbits
 4726              		.align	2
 4727              		.p2align 4,,15
 4728              		.global	lcfg_parse
 4729              		.thumb
 4730              		.thumb_func
 4731              		.type	lcfg_parse, %function
 4732              	lcfg_parse:
 4733              	.LFB290:
 4734              		.loc 2 1325 0
 4735              		.cfi_startproc
 4736              		@ args = 0, pretend = 0, frame = 0
 4737              		@ frame_needed = 0, uses_anonymous_args = 0
 4738              		@ link register save eliminated.
 4739              	.LVL521:
 4740              		.loc 2 1326 0
 4741 0000 D0F80001 		ldr	r0, [r0, #256]
 4742              	.LVL522:
 4743 0004 FFF7FEBF 		b	lcfg_parser_run
 4744              	.LVL523:
 4745              		.cfi_endproc
 4746              	.LFE290:
 4747              		.size	lcfg_parse, .-lcfg_parse
 4748 0008 AFF30080 		.section	.text.lcfgx_tree_dump,"ax",%progbits
 4748      AFF30080 
 4749              		.align	2
 4750              		.p2align 4,,15
 4751              		.global	lcfgx_tree_dump
 4752              		.thumb
 4753              		.thumb_func
 4754              		.type	lcfgx_tree_dump, %function
 4755              	lcfgx_tree_dump:
 4756              	.LFB295:
 4757              		.loc 2 1395 0
 4758              		.cfi_startproc
 4759              		@ args = 0, pretend = 0, frame = 0
 4760              		@ frame_needed = 0, uses_anonymous_args = 0
ARM GAS  C:\Users\jo\AppData\Local\Temp\ccMF9q4g.s 			page 85


 4761              	.LVL524:
 4762 0000 70B5     		push	{r4, r5, r6, lr}
 4763              		.cfi_def_cfa_offset 16
 4764              		.cfi_offset 4, -16
 4765              		.cfi_offset 5, -12
 4766              		.cfi_offset 6, -8
 4767              		.cfi_offset 14, -4
 4768              	.LBB423:
 4769              	.LBB424:
 4770              		.loc 2 1401 0
 4771 0002 0D1E     		subs	r5, r1, #0
 4772              	.LBE424:
 4773              	.LBE423:
 4774              		.loc 2 1395 0
 4775 0004 0646     		mov	r6, r0
 4776              	.LBB426:
 4777              	.LBB425:
 4778              		.loc 2 1401 0
 4779 0006 C8BF     		it	gt
 4780 0008 0024     		movgt	r4, #0
 4781 000a 05DD     		ble	.L531
 4782              	.LVL525:
 4783              	.L528:
 4784 000c 0134     		adds	r4, r4, #1
 4785              	.LVL526:
 4786              		.loc 2 1402 0
 4787 000e 2020     		movs	r0, #32
 4788 0010 FFF7FEFF 		bl	putchar
 4789              	.LVL527:
 4790              		.loc 2 1401 0
 4791 0014 AC42     		cmp	r4, r5
 4792 0016 F9D1     		bne	.L528
 4793              	.LVL528:
 4794              	.L531:
 4795              	.LBE425:
 4796              	.LBE426:
 4797              		.loc 2 1406 0
 4798 0018 7168     		ldr	r1, [r6, #4]
 4799 001a D1B1     		cbz	r1, .L547
 4800              		.loc 2 1407 0
 4801 001c 0F48     		ldr	r0, .L548
 4802 001e FFF7FEFF 		bl	printf
 4803              	.LVL529:
 4804              	.L532:
 4805              		.loc 2 1413 0
 4806 0022 3378     		ldrb	r3, [r6]	@ zero_extendqisi2
 4807 0024 7BB1     		cbz	r3, .L534
 4808 0026 022B     		cmp	r3, #2
 4809 0028 0CD8     		bhi	.L527
 4810              		.loc 2 1421 0
 4811 002a 0A20     		movs	r0, #10
 4812 002c FFF7FEFF 		bl	putchar
 4813              	.LVL530:
 4814              		.loc 2 1422 0
 4815 0030 B468     		ldr	r4, [r6, #8]
 4816              	.LVL531:
 4817              		.loc 2 1423 0
ARM GAS  C:\Users\jo\AppData\Local\Temp\ccMF9q4g.s 			page 86


 4818 0032 3CB1     		cbz	r4, .L527
 4819 0034 0235     		adds	r5, r5, #2
 4820              	.LVL532:
 4821              	.L537:
 4822              		.loc 2 1424 0 discriminator 2
 4823 0036 2046     		mov	r0, r4
 4824 0038 2946     		mov	r1, r5
 4825 003a FFF7FEFF 		bl	lcfgx_tree_dump
 4826              	.LVL533:
 4827              		.loc 2 1423 0 discriminator 2
 4828 003e 2469     		ldr	r4, [r4, #16]
 4829              	.LVL534:
 4830 0040 002C     		cmp	r4, #0
 4831 0042 F8D1     		bne	.L537
 4832              	.LVL535:
 4833              	.L527:
 4834 0044 70BD     		pop	{r4, r5, r6, pc}
 4835              	.LVL536:
 4836              	.L534:
 4837              		.loc 2 1416 0
 4838 0046 B168     		ldr	r1, [r6, #8]
 4839 0048 0548     		ldr	r0, .L548+4
 4840              		.loc 2 1427 0
 4841 004a BDE87040 		pop	{r4, r5, r6, lr}
 4842              		.cfi_remember_state
 4843              		.cfi_restore 14
 4844              		.cfi_restore 6
 4845              		.cfi_restore 5
 4846              		.cfi_restore 4
 4847              		.cfi_def_cfa_offset 0
 4848              	.LVL537:
 4849              		.loc 2 1416 0
 4850 004e FFF7FEBF 		b	printf
 4851              	.LVL538:
 4852              	.L547:
 4853              		.cfi_restore_state
 4854              		.loc 2 1409 0
 4855 0052 0449     		ldr	r1, .L548+8
 4856 0054 0148     		ldr	r0, .L548
 4857 0056 FFF7FEFF 		bl	printf
 4858              	.LVL539:
 4859 005a E2E7     		b	.L532
 4860              	.L549:
 4861              		.align	2
 4862              	.L548:
 4863 005c 48000000 		.word	.LC27
 4864 0060 FC030000 		.word	.LC55
 4865 0064 F4030000 		.word	.LC54
 4866              		.cfi_endproc
 4867              	.LFE295:
 4868              		.size	lcfgx_tree_dump, .-lcfgx_tree_dump
 4869 0068 AFF30080 		.section	.text.lcfgx_correct_type,"ax",%progbits
 4869      AFF30080 
 4870              		.align	2
 4871              		.p2align 4,,15
 4872              		.global	lcfgx_correct_type
 4873              		.thumb
ARM GAS  C:\Users\jo\AppData\Local\Temp\ccMF9q4g.s 			page 87


 4874              		.thumb_func
 4875              		.type	lcfgx_correct_type, %function
 4876              	lcfgx_correct_type:
 4877              	.LFB299:
 4878              		.loc 2 1515 0
 4879              		.cfi_startproc
 4880              		@ args = 0, pretend = 0, frame = 8
 4881              		@ frame_needed = 0, uses_anonymous_args = 0
 4882              	.LVL540:
 4883 0000 30B5     		push	{r4, r5, lr}
 4884              		.cfi_def_cfa_offset 12
 4885              		.cfi_offset 4, -12
 4886              		.cfi_offset 5, -8
 4887              		.cfi_offset 14, -4
 4888              		.loc 2 1516 0
 4889 0002 0378     		ldrb	r3, [r0]	@ zero_extendqisi2
 4890              		.loc 2 1515 0
 4891 0004 83B0     		sub	sp, sp, #12
 4892              		.cfi_def_cfa_offset 24
 4893              		.loc 2 1516 0
 4894 0006 23B1     		cbz	r3, .L550
 4895              	.LVL541:
 4896              		.loc 2 1520 0
 4897 0008 4268     		ldr	r2, [r0, #4]
 4898 000a F2B1     		cbz	r2, .L569
 4899              		.loc 2 1523 0
 4900 000c 013B     		subs	r3, r3, #1
 4901 000e 012B     		cmp	r3, #1
 4902 0010 01D9     		bls	.L557
 4903              	.LVL542:
 4904              	.L550:
 4905              		.loc 2 1537 0
 4906 0012 03B0     		add	sp, sp, #12
 4907              		.cfi_remember_state
 4908              		.cfi_def_cfa_offset 12
 4909              		@ sp needed
 4910 0014 30BD     		pop	{r4, r5, pc}
 4911              	.L557:
 4912              		.cfi_restore_state
 4913              		.loc 2 1524 0
 4914 0016 8468     		ldr	r4, [r0, #8]
 4915              	.LVL543:
 4916              		.loc 2 1526 0
 4917 0018 002C     		cmp	r4, #0
 4918 001a FAD0     		beq	.L550
 4919 001c 6268     		ldr	r2, [r4, #4]
 4920              	.L558:
 4921 001e 0546     		mov	r5, r0
 4922              		.loc 2 1531 0
 4923 0020 01A9     		add	r1, sp, #4
 4924 0022 1046     		mov	r0, r2
 4925              	.LVL544:
 4926 0024 0A22     		movs	r2, #10
 4927 0026 FFF7FEFF 		bl	strtol
 4928              	.LVL545:
 4929 002a 0028     		cmp	r0, #0
 4930 002c 05DB     		blt	.L555
ARM GAS  C:\Users\jo\AppData\Local\Temp\ccMF9q4g.s 			page 88


 4931              		.loc 2 1531 0 is_stmt 0 discriminator 1
 4932 002e 019B     		ldr	r3, [sp, #4]
 4933 0030 6268     		ldr	r2, [r4, #4]
 4934 0032 9A42     		cmp	r2, r3
 4935              		.loc 2 1532 0 is_stmt 1 discriminator 1
 4936 0034 1CBF     		itt	ne
 4937 0036 0123     		movne	r3, #1
 4938 0038 2B70     		strbne	r3, [r5]
 4939              	.LVL546:
 4940              	.L555:
 4941              		.loc 2 1536 0 discriminator 3
 4942 003a 2046     		mov	r0, r4
 4943 003c FFF7FEFF 		bl	lcfgx_correct_type
 4944              	.LVL547:
 4945              		.loc 2 1535 0 discriminator 3
 4946 0040 2469     		ldr	r4, [r4, #16]
 4947              	.LVL548:
 4948 0042 002C     		cmp	r4, #0
 4949 0044 F9D1     		bne	.L555
 4950              		.loc 2 1537 0
 4951 0046 03B0     		add	sp, sp, #12
 4952              		.cfi_remember_state
 4953              		.cfi_def_cfa_offset 12
 4954              		@ sp needed
 4955 0048 30BD     		pop	{r4, r5, pc}
 4956              	.LVL549:
 4957              	.L569:
 4958              		.cfi_restore_state
 4959              		.loc 2 1523 0
 4960 004a 013B     		subs	r3, r3, #1
 4961 004c 012B     		cmp	r3, #1
 4962 004e E2D9     		bls	.L557
 4963 0050 0446     		mov	r4, r0
 4964 0052 E4E7     		b	.L558
 4965              		.cfi_endproc
 4966              	.LFE299:
 4967              		.size	lcfgx_correct_type, .-lcfgx_correct_type
 4968 0054 AFF30080 		.section	.text.lcfgx_tree_new,"ax",%progbits
 4968      AFF30080 
 4968      AFF30080 
 4969              		.align	2
 4970              		.p2align 4,,15
 4971              		.global	lcfgx_tree_new
 4972              		.thumb
 4973              		.thumb_func
 4974              		.type	lcfgx_tree_new, %function
 4975              	lcfgx_tree_new:
 4976              	.LFB300:
 4977              		.loc 2 1540 0
 4978              		.cfi_startproc
 4979              		@ args = 0, pretend = 0, frame = 0
 4980              		@ frame_needed = 0, uses_anonymous_args = 0
 4981              	.LVL550:
 4982 0000 38B5     		push	{r3, r4, r5, lr}
 4983              		.cfi_def_cfa_offset 16
 4984              		.cfi_offset 3, -16
 4985              		.cfi_offset 4, -12
ARM GAS  C:\Users\jo\AppData\Local\Temp\ccMF9q4g.s 			page 89


 4986              		.cfi_offset 5, -8
 4987              		.cfi_offset 14, -4
 4988              		.loc 2 1541 0
 4989 0002 0021     		movs	r1, #0
 4990              		.loc 2 1540 0
 4991 0004 0546     		mov	r5, r0
 4992              		.loc 2 1541 0
 4993 0006 0220     		movs	r0, #2
 4994              	.LVL551:
 4995 0008 FFF7FEFF 		bl	lcfgx_tree_node_new
 4996              	.LVL552:
 4997              		.loc 2 1543 0
 4998 000c 0023     		movs	r3, #0
 4999              		.loc 2 1541 0
 5000 000e 0446     		mov	r4, r0
 5001              	.LVL553:
 5002              		.loc 2 1543 0
 5003 0010 8360     		str	r3, [r0, #8]
 5004              	.LVL554:
 5005              	.LBB427:
 5006              	.LBB428:
 5007              		.loc 2 1331 0
 5008 0012 0549     		ldr	r1, .L572
 5009 0014 D5F80001 		ldr	r0, [r5, #256]
 5010              	.LVL555:
 5011 0018 2246     		mov	r2, r4
 5012 001a FFF7FEFF 		bl	lcfg_parser_accept
 5013              	.LVL556:
 5014              	.LBE428:
 5015              	.LBE427:
 5016              		.loc 2 1546 0
 5017 001e 2046     		mov	r0, r4
 5018 0020 FFF7FEFF 		bl	lcfgx_correct_type
 5019              	.LVL557:
 5020              		.loc 2 1548 0
 5021 0024 2046     		mov	r0, r4
 5022 0026 38BD     		pop	{r3, r4, r5, pc}
 5023              	.LVL558:
 5024              	.L573:
 5025              		.align	2
 5026              	.L572:
 5027 0028 00000000 		.word	lcfgx_tree_visitor
 5028              		.cfi_endproc
 5029              	.LFE300:
 5030              		.size	lcfgx_tree_new, .-lcfgx_tree_new
 5031 002c AFF30080 		.section	.text.lcfgx_tree_delete,"ax",%progbits
 5032              		.align	2
 5033              		.p2align 4,,15
 5034              		.global	lcfgx_tree_delete
 5035              		.thumb
 5036              		.thumb_func
 5037              		.type	lcfgx_tree_delete, %function
 5038              	lcfgx_tree_delete:
 5039              	.LFB301:
 5040              		.loc 2 1551 0
 5041              		.cfi_startproc
 5042              		@ args = 0, pretend = 0, frame = 0
ARM GAS  C:\Users\jo\AppData\Local\Temp\ccMF9q4g.s 			page 90


 5043              		@ frame_needed = 0, uses_anonymous_args = 0
 5044              	.LVL559:
 5045 0000 38B5     		push	{r3, r4, r5, lr}
 5046              		.cfi_def_cfa_offset 16
 5047              		.cfi_offset 3, -16
 5048              		.cfi_offset 4, -12
 5049              		.cfi_offset 5, -8
 5050              		.cfi_offset 14, -4
 5051              		.loc 2 1553 0
 5052 0002 0378     		ldrb	r3, [r0]	@ zero_extendqisi2
 5053              		.loc 2 1551 0
 5054 0004 0546     		mov	r5, r0
 5055              	.LBB429:
 5056              		.loc 2 1557 0
 5057 0006 8068     		ldr	r0, [r0, #8]
 5058              	.LVL560:
 5059              	.LBE429:
 5060              		.loc 2 1553 0
 5061 0008 7BB1     		cbz	r3, .L575
 5062              	.LVL561:
 5063              	.LBB430:
 5064              		.loc 2 1557 0
 5065 000a 28B1     		cbz	r0, .L577
 5066              	.L578:
 5067              		.loc 2 1559 0
 5068 000c 0469     		ldr	r4, [r0, #16]
 5069              	.LVL562:
 5070              		.loc 2 1560 0
 5071 000e FFF7FEFF 		bl	lcfgx_tree_delete
 5072              	.LVL563:
 5073              		.loc 2 1557 0
 5074 0012 2046     		mov	r0, r4
 5075 0014 002C     		cmp	r4, #0
 5076 0016 F9D1     		bne	.L578
 5077              	.LVL564:
 5078              	.L577:
 5079              	.LBE430:
 5080              		.loc 2 1569 0
 5081 0018 6868     		ldr	r0, [r5, #4]
 5082 001a 08B1     		cbz	r0, .L580
 5083              		.loc 2 1570 0
 5084 001c FFF7FEFF 		bl	free
 5085              	.LVL565:
 5086              	.L580:
 5087              		.loc 2 1572 0
 5088 0020 2846     		mov	r0, r5
 5089              		.loc 2 1573 0
 5090 0022 BDE83840 		pop	{r3, r4, r5, lr}
 5091              		.cfi_remember_state
 5092              		.cfi_restore 14
 5093              		.cfi_restore 5
 5094              		.cfi_restore 4
 5095              		.cfi_restore 3
 5096              		.cfi_def_cfa_offset 0
 5097              	.LVL566:
 5098              		.loc 2 1572 0
 5099 0026 FFF7FEBF 		b	free
ARM GAS  C:\Users\jo\AppData\Local\Temp\ccMF9q4g.s 			page 91


 5100              	.LVL567:
 5101              	.L575:
 5102              		.cfi_restore_state
 5103              		.loc 2 1566 0
 5104 002a FFF7FEFF 		bl	free
 5105              	.LVL568:
 5106 002e F3E7     		b	.L577
 5107              		.cfi_endproc
 5108              	.LFE301:
 5109              		.size	lcfgx_tree_delete, .-lcfgx_tree_delete
 5110              		.section	.text.cfg_get_recursive,"ax",%progbits
 5111              		.align	2
 5112              		.p2align 4,,15
 5113              		.global	cfg_get_recursive
 5114              		.thumb
 5115              		.thumb_func
 5116              		.type	cfg_get_recursive, %function
 5117              	cfg_get_recursive:
 5118              	.LFB302:
 5119              		.loc 2 1583 0
 5120              		.cfi_startproc
 5121              		@ args = 0, pretend = 0, frame = 0
 5122              		@ frame_needed = 0, uses_anonymous_args = 0
 5123              	.LVL569:
 5124 0000 F8B5     		push	{r3, r4, r5, r6, r7, lr}
 5125              		.cfi_def_cfa_offset 24
 5126              		.cfi_offset 3, -24
 5127              		.cfi_offset 4, -20
 5128              		.cfi_offset 5, -16
 5129              		.cfi_offset 6, -12
 5130              		.cfi_offset 7, -8
 5131              		.cfi_offset 14, -4
 5132              		.loc 2 1583 0
 5133 0002 0446     		mov	r4, r0
 5134 0004 0E46     		mov	r6, r1
 5135              		.loc 2 1586 0
 5136 0006 A468     		ldr	r4, [r4, #8]
 5137              	.LVL570:
 5138 0008 171F     		subs	r7, r2, #4
 5139 000a 84B1     		cbz	r4, .L594
 5140              	.LVL571:
 5141              	.L601:
 5142 000c 57F8045F 		ldr	r5, [r7, #4]!
 5143 0010 01E0     		b	.L589
 5144              	.L600:
 5145              		.loc 2 1586 0 is_stmt 0 discriminator 2
 5146 0012 2469     		ldr	r4, [r4, #16]
 5147              	.LVL572:
 5148 0014 5CB1     		cbz	r4, .L594
 5149              	.L589:
 5150              		.loc 2 1588 0 is_stmt 1
 5151 0016 2846     		mov	r0, r5
 5152 0018 6168     		ldr	r1, [r4, #4]
 5153 001a FFF7FEFF 		bl	strcmp
 5154              	.LVL573:
 5155 001e 0028     		cmp	r0, #0
 5156 0020 F7D1     		bne	.L600
ARM GAS  C:\Users\jo\AppData\Local\Temp\ccMF9q4g.s 			page 92


 5157              		.loc 2 1594 0
 5158 0022 012E     		cmp	r6, #1
 5159 0024 03D0     		beq	.L594
 5160              		.loc 2 1586 0
 5161 0026 A468     		ldr	r4, [r4, #8]
 5162              	.LVL574:
 5163              		.loc 2 1597 0
 5164 0028 013E     		subs	r6, r6, #1
 5165              		.loc 2 1586 0
 5166 002a 002C     		cmp	r4, #0
 5167 002c EED1     		bne	.L601
 5168              	.L594:
 5169              		.loc 2 1601 0
 5170 002e 2046     		mov	r0, r4
 5171 0030 F8BD     		pop	{r3, r4, r5, r6, r7, pc}
 5172              		.cfi_endproc
 5173              	.LFE302:
 5174              		.size	cfg_get_recursive, .-cfg_get_recursive
 5175 0032 00BFAFF3 		.section	.text.lcfgx_get,"ax",%progbits
 5175      0080AFF3 
 5175      0080AFF3 
 5175      0080
 5176              		.align	2
 5177              		.p2align 4,,15
 5178              		.global	lcfgx_get
 5179              		.thumb
 5180              		.thumb_func
 5181              		.type	lcfgx_get, %function
 5182              	lcfgx_get:
 5183              	.LFB303:
 5184              		.loc 2 1605 0
 5185              		.cfi_startproc
 5186              		@ args = 0, pretend = 0, frame = 8
 5187              		@ frame_needed = 1, uses_anonymous_args = 0
 5188              	.LVL575:
 5189 0000 2DE9F04F 		push	{r4, r5, r6, r7, r8, r9, r10, fp, lr}
 5190              		.cfi_def_cfa_offset 36
 5191              		.cfi_offset 4, -36
 5192              		.cfi_offset 5, -32
 5193              		.cfi_offset 6, -28
 5194              		.cfi_offset 7, -24
 5195              		.cfi_offset 8, -20
 5196              		.cfi_offset 9, -16
 5197              		.cfi_offset 10, -12
 5198              		.cfi_offset 11, -8
 5199              		.cfi_offset 14, -4
 5200 0004 83B0     		sub	sp, sp, #12
 5201              		.cfi_def_cfa_offset 48
 5202 0006 0646     		mov	r6, r0
 5203 0008 00AF     		add	r7, sp, #0
 5204              		.cfi_def_cfa_register 7
 5205              		.loc 2 1606 0
 5206 000a 1046     		mov	r0, r2
 5207              	.LVL576:
 5208              		.loc 2 1605 0
 5209 000c 1446     		mov	r4, r2
 5210 000e 8A46     		mov	r10, r1
ARM GAS  C:\Users\jo\AppData\Local\Temp\ccMF9q4g.s 			page 93


 5211 0010 9946     		mov	r9, r3
 5212              		.loc 2 1606 0
 5213 0012 FFF7FEFF 		bl	strlen
 5214              	.LVL577:
 5215 0016 00F10803 		add	r3, r0, #8
 5216 001a 23F00703 		bic	r3, r3, #7
 5217 001e ADEB030D 		sub	sp, sp, r3
 5218              		.loc 2 1609 0
 5219 0022 421C     		adds	r2, r0, #1
 5220              	.LVL578:
 5221 0024 2146     		mov	r1, r4
 5222 0026 6846     		mov	r0, sp
 5223 0028 FFF7FEFF 		bl	strncpy
 5224              	.LVL579:
 5225              		.loc 2 1606 0
 5226 002c 6846     		mov	r0, sp
 5227              	.LVL580:
 5228 002e 621E     		subs	r2, r4, #1
 5229              		.loc 2 1607 0
 5230 0030 0121     		movs	r1, #1
 5231              		.loc 2 1611 0
 5232 0032 02E0     		b	.L603
 5233              	.LVL581:
 5234              	.L605:
 5235              		.loc 2 1612 0
 5236 0034 2E2B     		cmp	r3, #46
 5237              		.loc 2 1613 0
 5238 0036 08BF     		it	eq
 5239 0038 0131     		addeq	r1, r1, #1
 5240              	.LVL582:
 5241              	.L603:
 5242              		.loc 2 1611 0
 5243 003a 12F8013F 		ldrb	r3, [r2, #1]!	@ zero_extendqisi2
 5244              	.LVL583:
 5245 003e 002B     		cmp	r3, #0
 5246 0040 F8D1     		bne	.L605
 5247              	.LVL584:
 5248              		.loc 2 1615 0
 5249 0042 8900     		lsls	r1, r1, #2
 5250              	.LVL585:
 5251 0044 0A31     		adds	r1, r1, #10
 5252 0046 21F00701 		bic	r1, r1, #7
 5253              		.loc 2 1617 0
 5254 004a 07F10805 		add	r5, r7, #8
 5255              		.loc 2 1615 0
 5256 004e ADEB010D 		sub	sp, sp, r1
 5257 0052 E846     		mov	r8, sp
 5258              	.LVL586:
 5259 0054 ADF10404 		sub	r4, sp, #4
 5260              		.loc 2 1617 0
 5261 0058 45F8043D 		str	r3, [r5, #-4]!
 5262              	.LVL587:
 5263              		.loc 2 1618 0
 5264 005c 9B46     		mov	fp, r3
 5265 005e 04E0     		b	.L606
 5266              	.LVL588:
 5267              	.L607:
ARM GAS  C:\Users\jo\AppData\Local\Temp\ccMF9q4g.s 			page 94


 5268              		.loc 2 1621 0
 5269 0060 44F8040F 		str	r0, [r4, #4]!
 5270 0064 0BF1010B 		add	fp, fp, #1
 5271              	.LVL589:
 5272              		.loc 2 1620 0
 5273 0068 0020     		movs	r0, #0
 5274              	.LVL590:
 5275              	.L606:
 5276              		.loc 2 1620 0 is_stmt 0 discriminator 4
 5277 006a 1349     		ldr	r1, .L619
 5278 006c 2A46     		mov	r2, r5
 5279 006e FFF7FEFF 		bl	strtok_r
 5280              	.LVL591:
 5281 0072 0028     		cmp	r0, #0
 5282 0074 F4D1     		bne	.L607
 5283              		.loc 2 1626 0 is_stmt 1
 5284 0076 BBF1000F 		cmp	fp, #0
 5285 007a 08D1     		bne	.L616
 5286              	.LVL592:
 5287              		.loc 2 1631 0
 5288 007c 7EB1     		cbz	r6, .L610
 5289              	.LVL593:
 5290              	.L618:
 5291              		.loc 2 1634 0
 5292 007e 3378     		ldrb	r3, [r6]	@ zero_extendqisi2
 5293 0080 4B45     		cmp	r3, r9
 5294 0082 11D0     		beq	.L617
 5295              		.loc 2 1635 0
 5296 0084 0120     		movs	r0, #1
 5297              		.loc 2 1640 0
 5298 0086 0C37     		adds	r7, r7, #12
 5299              		.cfi_remember_state
 5300              		.cfi_def_cfa_offset 36
 5301 0088 BD46     		mov	sp, r7
 5302              		.cfi_def_cfa_register 13
 5303              		@ sp needed
 5304 008a BDE8F08F 		pop	{r4, r5, r6, r7, r8, r9, r10, fp, pc}
 5305              	.LVL594:
 5306              	.L616:
 5307              		.cfi_restore_state
 5308              		.loc 2 1629 0
 5309 008e 3046     		mov	r0, r6
 5310              	.LVL595:
 5311 0090 5946     		mov	r1, fp
 5312 0092 4246     		mov	r2, r8
 5313 0094 FFF7FEFF 		bl	cfg_get_recursive
 5314              	.LVL596:
 5315 0098 0646     		mov	r6, r0
 5316              	.LVL597:
 5317              		.loc 2 1631 0
 5318 009a 002E     		cmp	r6, #0
 5319 009c EFD1     		bne	.L618
 5320              	.LVL598:
 5321              	.L610:
 5322              		.loc 2 1632 0
 5323 009e 3046     		mov	r0, r6
 5324              		.loc 2 1640 0
ARM GAS  C:\Users\jo\AppData\Local\Temp\ccMF9q4g.s 			page 95


 5325 00a0 0C37     		adds	r7, r7, #12
 5326              		.cfi_remember_state
 5327              		.cfi_def_cfa_offset 36
 5328 00a2 BD46     		mov	sp, r7
 5329              		.cfi_def_cfa_register 13
 5330              		@ sp needed
 5331 00a4 BDE8F08F 		pop	{r4, r5, r6, r7, r8, r9, r10, fp, pc}
 5332              	.LVL599:
 5333              	.L617:
 5334              		.cfi_restore_state
 5335              		.loc 2 1639 0
 5336 00a8 0220     		movs	r0, #2
 5337              		.loc 2 1640 0
 5338 00aa 0C37     		adds	r7, r7, #12
 5339              		.cfi_def_cfa_offset 36
 5340              		.loc 2 1637 0
 5341 00ac CAF80060 		str	r6, [r10]
 5342              		.loc 2 1640 0
 5343 00b0 BD46     		mov	sp, r7
 5344              		.cfi_def_cfa_register 13
 5345              		@ sp needed
 5346 00b2 BDE8F08F 		pop	{r4, r5, r6, r7, r8, r9, r10, fp, pc}
 5347              	.LVL600:
 5348              	.L620:
 5349 00b6 00BF     		.align	2
 5350              	.L619:
 5351 00b8 30000000 		.word	.LC23
 5352              		.cfi_endproc
 5353              	.LFE303:
 5354              		.size	lcfgx_get, .-lcfgx_get
 5355 00bc AFF30080 		.section	.text.lcfgx_get_list,"ax",%progbits
 5356              		.align	2
 5357              		.p2align 4,,15
 5358              		.global	lcfgx_get_list
 5359              		.thumb
 5360              		.thumb_func
 5361              		.type	lcfgx_get_list, %function
 5362              	lcfgx_get_list:
 5363              	.LFB304:
 5364              		.loc 2 1643 0
 5365              		.cfi_startproc
 5366              		@ args = 0, pretend = 0, frame = 0
 5367              		@ frame_needed = 0, uses_anonymous_args = 0
 5368              		@ link register save eliminated.
 5369              	.LVL601:
 5370              		.loc 2 1644 0
 5371 0000 0123     		movs	r3, #1
 5372 0002 FFF7FEBF 		b	lcfgx_get
 5373              	.LVL602:
 5374              		.cfi_endproc
 5375              	.LFE304:
 5376              		.size	lcfgx_get_list, .-lcfgx_get_list
 5377 0006 00BFAFF3 		.section	.text.lcfgx_get_map,"ax",%progbits
 5377      0080AFF3 
 5377      0080
 5378              		.align	2
 5379              		.p2align 4,,15
ARM GAS  C:\Users\jo\AppData\Local\Temp\ccMF9q4g.s 			page 96


 5380              		.global	lcfgx_get_map
 5381              		.thumb
 5382              		.thumb_func
 5383              		.type	lcfgx_get_map, %function
 5384              	lcfgx_get_map:
 5385              	.LFB305:
 5386              		.loc 2 1648 0
 5387              		.cfi_startproc
 5388              		@ args = 0, pretend = 0, frame = 0
 5389              		@ frame_needed = 0, uses_anonymous_args = 0
 5390              		@ link register save eliminated.
 5391              	.LVL603:
 5392              		.loc 2 1649 0
 5393 0000 0223     		movs	r3, #2
 5394 0002 FFF7FEBF 		b	lcfgx_get
 5395              	.LVL604:
 5396              		.cfi_endproc
 5397              	.LFE305:
 5398              		.size	lcfgx_get_map, .-lcfgx_get_map
 5399 0006 00BFAFF3 		.section	.text.lcfgx_get_string,"ax",%progbits
 5399      0080AFF3 
 5399      0080
 5400              		.align	2
 5401              		.p2align 4,,15
 5402              		.global	lcfgx_get_string
 5403              		.thumb
 5404              		.thumb_func
 5405              		.type	lcfgx_get_string, %function
 5406              	lcfgx_get_string:
 5407              	.LFB306:
 5408              		.loc 2 1653 0
 5409              		.cfi_startproc
 5410              		@ args = 0, pretend = 0, frame = 0
 5411              		@ frame_needed = 0, uses_anonymous_args = 0
 5412              		@ link register save eliminated.
 5413              	.LVL605:
 5414              		.loc 2 1654 0
 5415 0000 0023     		movs	r3, #0
 5416 0002 FFF7FEBF 		b	lcfgx_get
 5417              	.LVL606:
 5418              		.cfi_endproc
 5419              	.LFE306:
 5420              		.size	lcfgx_get_string, .-lcfgx_get_string
 5421              		.global	lcfgx_path_access_strings
 5422              		.global	lcfg_token_map
 5423              		.section	.rodata
 5424              		.align	2
 5425              		.set	.LANCHOR6,. + 0
 5426              	.LC31:
 5427 0000 44040000 		.word	.LC0
 5428 0004 4C040000 		.word	.LC1
 5429 0008 58040000 		.word	.LC2
 5430 000c 64040000 		.word	.LC3
 5431 0010 74040000 		.word	.LC4
 5432 0014 84040000 		.word	.LC5
 5433 0018 94040000 		.word	.LC6
 5434 001c 9C040000 		.word	.LC7
ARM GAS  C:\Users\jo\AppData\Local\Temp\ccMF9q4g.s 			page 97


 5435 0020 A4040000 		.word	.LC8
 5436 0024 B8040000 		.word	.LC9
 5437 0028 3C040000 		.word	.LC10
 5438              	.LC46:
 5439 002c 08040000 		.word	.LC12
 5440 0030 14040000 		.word	.LC13
 5441 0034 20040000 		.word	.LC14
 5442 0038 2C040000 		.word	.LC15
 5443 003c 34040000 		.word	.LC16
 5444 0040 3C040000 		.word	.LC10
 5445              		.section	.rodata.__FUNCTION__.9289,"a",%progbits
 5446              		.align	2
 5447              		.set	.LANCHOR0,. + 0
 5448              		.type	__FUNCTION__.9289, %object
 5449              		.size	__FUNCTION__.9289, 16
 5450              	__FUNCTION__.9289:
 5451 0000 6C636667 		.ascii	"lcfg_string_new\000"
 5451      5F737472 
 5451      696E675F 
 5451      6E657700 
 5452              		.section	.rodata.__FUNCTION__.9540,"a",%progbits
 5453              		.align	2
 5454              		.set	.LANCHOR5,. + 0
 5455              		.type	__FUNCTION__.9540, %object
 5456              		.size	__FUNCTION__.9540, 9
 5457              	__FUNCTION__.9540:
 5458 0000 6C636667 		.ascii	"lcfg_new\000"
 5458      5F6E6577 
 5458      00
 5459 0009 000000   		.section	.rodata.__FUNCTION__.9499,"a",%progbits
 5460              		.align	2
 5461              		.set	.LANCHOR8,. + 0
 5462              		.type	__FUNCTION__.9499, %object
 5463              		.size	__FUNCTION__.9499, 18
 5464              	__FUNCTION__.9499:
 5465 0000 6C636667 		.ascii	"lcfg_parser_parse\000"
 5465      5F706172 
 5465      7365725F 
 5465      70617273 
 5465      6500
 5466 0012 0000     		.section	.rodata.__FUNCTION__.9466,"a",%progbits
 5467              		.align	2
 5468              		.set	.LANCHOR3,. + 0
 5469              		.type	__FUNCTION__.9466, %object
 5470              		.size	__FUNCTION__.9466, 22
 5471              	__FUNCTION__.9466:
 5472 0000 6C636667 		.ascii	"lcfg_parser_add_value\000"
 5472      5F706172 
 5472      7365725F 
 5472      6164645F 
 5472      76616C75 
 5473 0016 0000     		.section	.rodata.__FUNCTION__.9472,"a",%progbits
 5474              		.align	2
 5475              		.set	.LANCHOR4,. + 0
 5476              		.type	__FUNCTION__.9472, %object
 5477              		.size	__FUNCTION__.9472, 16
 5478              	__FUNCTION__.9472:
ARM GAS  C:\Users\jo\AppData\Local\Temp\ccMF9q4g.s 			page 98


 5479 0000 6C636667 		.ascii	"lcfg_parser_new\000"
 5479      5F706172 
 5479      7365725F 
 5479      6E657700 
 5480              		.section	.rodata.str1.4,"aMS",%progbits,1
 5481              		.align	2
 5482              	.LC18:
 5483 0000 6C636667 		.ascii	"lcfg_static.c\000"
 5483      5F737461 
 5483      7469632E 
 5483      6300
 5484 000e 0000     		.space	2
 5485              	.LC19:
 5486 0010 7300     		.ascii	"s\000"
 5487 0012 0000     		.space	2
 5488              	.LC20:
 5489 0014 732D3E73 		.ascii	"s->str\000"
 5489      747200
 5490 001b 00       		.space	1
 5491              	.LC21:
 5492 001c 735F6E65 		.ascii	"s_new\000"
 5492      7700
 5493 0022 0000     		.space	2
 5494              	.LC22:
 5495 0024 702D3E76 		.ascii	"p->values\000"
 5495      616C7565 
 5495      7300
 5496 002e 0000     		.space	2
 5497              	.LC23:
 5498 0030 2E00     		.ascii	".\000"
 5499 0032 0000     		.space	2
 5500              	.LC24:
 5501 0034 7000     		.ascii	"p\000"
 5502 0036 0000     		.space	2
 5503              	.LC25:
 5504 0038 6300     		.ascii	"c\000"
 5505 003a 0000     		.space	2
 5506              	.LC26:
 5507 003c 632D3E70 		.ascii	"c->parser\000"
 5507      61727365 
 5507      7200
 5508 0046 0000     		.space	2
 5509              	.LC27:
 5510 0048 257300   		.ascii	"%s\000"
 5511 004b 00       		.space	1
 5512              	.LC28:
 5513 004c 636F6E66 		.ascii	"configuration value traversal aborted upon user req"
 5513      69677572 
 5513      6174696F 
 5513      6E207661 
 5513      6C756520 
 5514 007f 75657374 		.ascii	"uest\000"
 5514      00
 5515              	.LC29:
 5516 0084 74727565 		.ascii	"true\000"
 5516      00
 5517 0089 000000   		.space	3
ARM GAS  C:\Users\jo\AppData\Local\Temp\ccMF9q4g.s 			page 99


 5518              	.LC30:
 5519 008c 66616C73 		.ascii	"false\000"
 5519      6500
 5520 0092 0000     		.space	2
 5521              	.LC32:
 5522 0094 72656164 		.ascii	"read(): %s\000"
 5522      28293A20 
 5522      257300
 5523 009f 00       		.space	1
 5524              	.LC33:
 5525 00a0 202A2A2A 		.ascii	" *** scanner: print buffer %s with file size %i\012"
 5525      20736361 
 5525      6E6E6572 
 5525      3A207072 
 5525      696E7420 
 5526 00d0 00       		.ascii	"\000"
 5527 00d1 000000   		.space	3
 5528              	.LC34:
 5529 00d4 202A2A2A 		.ascii	" *** scanner: s->eof %s\012\000"
 5529      20736361 
 5529      6E6E6572 
 5529      3A20732D 
 5529      3E656F66 
 5530 00ed 000000   		.space	3
 5531              	.LC35:
 5532 00f0 63616E6E 		.ascii	"cannot peek beyond eof\000"
 5532      6F742070 
 5532      65656B20 
 5532      6265796F 
 5532      6E642065 
 5533 0107 00       		.space	1
 5534              	.LC36:
 5535 0108 70617273 		.ascii	"parse error: invalid input character `%c' (0x%02x) "
 5535      65206572 
 5535      726F723A 
 5535      20696E76 
 5535      616C6964 
 5536 013b 6E656172 		.ascii	"near line %d, col %d\000"
 5536      206C696E 
 5536      65202564 
 5536      2C20636F 
 5536      6C202564 
 5537              	.LC37:
 5538 0150 696E7661 		.ascii	"invalid string escape sequence `%c' near line %d, c"
 5538      6C696420 
 5538      73747269 
 5538      6E672065 
 5538      73636170 
 5539 0183 6F6C2025 		.ascii	"ol %d\000"
 5539      6400
 5540 0189 000000   		.space	3
 5541              	.LC38:
 5542 018c 696E7661 		.ascii	"invalid hex escape sequence `%c' on line %d column "
 5542      6C696420 
 5542      68657820 
 5542      65736361 
 5542      70652073 
ARM GAS  C:\Users\jo\AppData\Local\Temp\ccMF9q4g.s 			page 100


 5543 01bf 256400   		.ascii	"%d\000"
 5544 01c2 0000     		.space	2
 5545              	.LC39:
 5546 01c4 72656164 		.ascii	"read %c at line %d column %d, new state is %s\012\000"
 5546      20256320 
 5546      6174206C 
 5546      696E6520 
 5546      25642063 
 5547 01f3 00       		.space	1
 5548              	.LC40:
 5549 01f4 63616E6E 		.ascii	"cannot read beyond eof\000"
 5549      6F742072 
 5549      65616420 
 5549      6265796F 
 5549      6E642065 
 5550 020b 00       		.space	1
 5551              	.LC41:
 5552 020c 70617273 		.ascii	"parse error: premature end of file near line %d, co"
 5552      65206572 
 5552      726F723A 
 5552      20707265 
 5552      6D617475 
 5553 023f 6C202564 		.ascii	"l %d\000"
 5553      00
 5554              	.LC42:
 5555 0244 63616E6E 		.ascii	"cannot access tokenstream beyond eof\000"
 5555      6F742061 
 5555      63636573 
 5555      7320746F 
 5555      6B656E73 
 5556 0269 000000   		.space	3
 5557              	.LC43:
 5558 026c 00       		.ascii	"\000"
 5559 026d 000000   		.space	3
 5560              	.LC44:
 5561 0270 206F7220 		.ascii	" or `}'\000"
 5561      607D2700 
 5562              	.LC45:
 5563 0278 6F70656E 		.ascii	"open(): %s\000"
 5563      28293A20 
 5563      257300
 5564 0283 00       		.space	1
 5565              	.LC47:
 5566 0284 696E7661 		.ascii	"invalid token (%s) near line %d column %d: expected"
 5566      6C696420 
 5566      746F6B65 
 5566      6E202825 
 5566      7329206E 
 5567 02b7 20696465 		.ascii	" identifier%s\000"
 5567      6E746966 
 5567      69657225 
 5567      7300
 5568 02c5 000000   		.space	3
 5569              	.LC48:
 5570 02c8 696E7661 		.ascii	"invalid token (%s) near line %d column %d: expected"
 5570      6C696420 
 5570      746F6B65 
ARM GAS  C:\Users\jo\AppData\Local\Temp\ccMF9q4g.s 			page 101


 5570      6E202825 
 5570      7329206E 
 5571 02fb 20603D27 		.ascii	" `='\000"
 5571      00
 5572              	.LC49:
 5573 0300 696E7661 		.ascii	"invalid token (%s) near line %d column %d: expected"
 5573      6C696420 
 5573      746F6B65 
 5573      6E202825 
 5573      7329206E 
 5574 0333 20737472 		.ascii	" string, `[' or `{'\000"
 5574      696E672C 
 5574      20605B27 
 5574      206F7220 
 5574      607B2700 
 5575 0347 00       		.space	1
 5576              	.LC50:
 5577 0348 696E7661 		.ascii	"invalid token (%s) near line %d column %d: expected"
 5577      6C696420 
 5577      746F6B65 
 5577      6E202825 
 5577      7329206E 
 5578 037b 20737472 		.ascii	" string, `[', `{', `,' or `]'\000"
 5578      696E672C 
 5578      20605B27 
 5578      2C20607B 
 5578      272C2060 
 5579 0399 000000   		.space	3
 5580              	.LC51:
 5581 039c 3000     		.ascii	"0\000"
 5582 039e 0000     		.space	2
 5583              	.LC52:
 5584 03a0 202A2A2A 		.ascii	" *** pda: read %s, state is now %s\012\000"
 5584      20706461 
 5584      3A207265 
 5584      61642025 
 5584      732C2073 
 5585              	.LC53:
 5586 03c4 756E6578 		.ascii	"unexpected end of file: unterminated list/map?\000"
 5586      70656374 
 5586      65642065 
 5586      6E64206F 
 5586      66206669 
 5587 03f3 00       		.space	1
 5588              	.LC54:
 5589 03f4 286E6F6E 		.ascii	"(none)\000"
 5589      652900
 5590 03fb 00       		.space	1
 5591              	.LC55:
 5592 03fc 203D2022 		.ascii	" = \"%s\"\012\000"
 5592      2573220A 
 5592      00
 5593 0405 000000   		.space	3
 5594              	.LC12:
 5595 0408 746F705F 		.ascii	"top_level\000"
 5595      6C657665 
 5595      6C00
ARM GAS  C:\Users\jo\AppData\Local\Temp\ccMF9q4g.s 			page 102


 5596 0412 0000     		.space	2
 5597              	.LC13:
 5598 0414 6578705F 		.ascii	"exp_equals\000"
 5598      65717561 
 5598      6C7300
 5599 041f 00       		.space	1
 5600              	.LC14:
 5601 0420 6578705F 		.ascii	"exp_value\000"
 5601      76616C75 
 5601      6500
 5602 042a 0000     		.space	2
 5603              	.LC15:
 5604 042c 696E5F6C 		.ascii	"in_list\000"
 5604      69737400 
 5605              	.LC16:
 5606 0434 696E5F6D 		.ascii	"in_map\000"
 5606      617000
 5607 043b 00       		.space	1
 5608              	.LC10:
 5609 043c 696E7661 		.ascii	"invalid\000"
 5609      6C696400 
 5610              	.LC0:
 5611 0444 73746172 		.ascii	"start\000"
 5611      7400
 5612 044a 0000     		.space	2
 5613              	.LC1:
 5614 044c 636F6D6D 		.ascii	"comm_start\000"
 5614      5F737461 
 5614      727400
 5615 0457 00       		.space	1
 5616              	.LC2:
 5617 0458 696E5F6F 		.ascii	"in_oneline\000"
 5617      6E656C69 
 5617      6E6500
 5618 0463 00       		.space	1
 5619              	.LC3:
 5620 0464 696E5F6D 		.ascii	"in_multiline\000"
 5620      756C7469 
 5620      6C696E65 
 5620      00
 5621 0471 000000   		.space	3
 5622              	.LC4:
 5623 0474 6D756C74 		.ascii	"multiline_end\000"
 5623      696C696E 
 5623      655F656E 
 5623      6400
 5624 0482 0000     		.space	2
 5625              	.LC5:
 5626 0484 696E5F69 		.ascii	"in_identifier\000"
 5626      64656E74 
 5626      69666965 
 5626      7200
 5627 0492 0000     		.space	2
 5628              	.LC6:
 5629 0494 696E5F73 		.ascii	"in_str\000"
 5629      747200
 5630 049b 00       		.space	1
ARM GAS  C:\Users\jo\AppData\Local\Temp\ccMF9q4g.s 			page 103


 5631              	.LC7:
 5632 049c 696E5F65 		.ascii	"in_esc\000"
 5632      736300
 5633 04a3 00       		.space	1
 5634              	.LC8:
 5635 04a4 6573635F 		.ascii	"esc_hex_exp_first\000"
 5635      6865785F 
 5635      6578705F 
 5635      66697273 
 5635      7400
 5636 04b6 0000     		.space	2
 5637              	.LC9:
 5638 04b8 6573635F 		.ascii	"esc_hex_exp_second\000"
 5638      6865785F 
 5638      6578705F 
 5638      7365636F 
 5638      6E6400
 5639 04cb 00       		.space	1
 5640              	.LC56:
 5641 04cc 4C434647 		.ascii	"LCFGX_PATH_NOT_FOUND\000"
 5641      585F5041 
 5641      54485F4E 
 5641      4F545F46 
 5641      4F554E44 
 5642 04e1 000000   		.space	3
 5643              	.LC57:
 5644 04e4 4C434647 		.ascii	"LCFGX_PATH_FOUND_WRONG_TYPE_BAD\000"
 5644      585F5041 
 5644      54485F46 
 5644      4F554E44 
 5644      5F57524F 
 5645              	.LC58:
 5646 0504 4C434647 		.ascii	"LCFGX_PATH_FOUND_TYPE_OK\000"
 5646      585F5041 
 5646      54485F46 
 5646      4F554E44 
 5646      5F545950 
 5647 051d 000000   		.space	3
 5648              	.LC59:
 5649 0520 6E756C6C 		.ascii	"null_token\000"
 5649      5F746F6B 
 5649      656E00
 5650 052b 00       		.space	1
 5651              	.LC60:
 5652 052c 545F4944 		.ascii	"T_IDENTIFIER\000"
 5652      454E5449 
 5652      46494552 
 5652      00
 5653 0539 000000   		.space	3
 5654              	.LC61:
 5655 053c 603D2700 		.ascii	"`='\000"
 5656              	.LC62:
 5657 0540 545F5354 		.ascii	"T_STRING\000"
 5657      52494E47 
 5657      00
 5658 0549 000000   		.space	3
 5659              	.LC63:
ARM GAS  C:\Users\jo\AppData\Local\Temp\ccMF9q4g.s 			page 104


 5660 054c 605B2700 		.ascii	"`['\000"
 5661              	.LC64:
 5662 0550 605D2700 		.ascii	"`]'\000"
 5663              	.LC65:
 5664 0554 602C2700 		.ascii	"`,'\000"
 5665              	.LC66:
 5666 0558 607B2700 		.ascii	"`{'\000"
 5667              	.LC67:
 5668 055c 607D2700 		.ascii	"`}'\000"
 5669              		.section	.rodata.__FUNCTION__.9294,"a",%progbits
 5670              		.align	2
 5671              		.set	.LANCHOR1,. + 0
 5672              		.type	__FUNCTION__.9294, %object
 5673              		.size	__FUNCTION__.9294, 21
 5674              	__FUNCTION__.9294:
 5675 0000 6C636667 		.ascii	"lcfg_string_new_copy\000"
 5675      5F737472 
 5675      696E675F 
 5675      6E65775F 
 5675      636F7079 
 5676 0015 000000   		.section	.data.lcfgx_path_access_strings,"aw",%progbits
 5677              		.align	2
 5678              		.type	lcfgx_path_access_strings, %object
 5679              		.size	lcfgx_path_access_strings, 12
 5680              	lcfgx_path_access_strings:
 5681 0000 CC040000 		.word	.LC56
 5682 0004 E4040000 		.word	.LC57
 5683 0008 04050000 		.word	.LC58
 5684              		.section	.rodata.__FUNCTION__.9443,"a",%progbits
 5685              		.align	2
 5686              		.set	.LANCHOR2,. + 0
 5687              		.type	__FUNCTION__.9443, %object
 5688              		.size	__FUNCTION__.9443, 17
 5689              	__FUNCTION__.9443:
 5690 0000 6C636667 		.ascii	"lcfg_scanner_new\000"
 5690      5F736361 
 5690      6E6E6572 
 5690      5F6E6577 
 5690      00
 5691 0011 000000   		.section	.data.lcfg_token_map,"aw",%progbits
 5692              		.align	2
 5693              		.set	.LANCHOR7,. + 0
 5694              		.type	lcfg_token_map, %object
 5695              		.size	lcfg_token_map, 36
 5696              	lcfg_token_map:
 5697 0000 20050000 		.word	.LC59
 5698 0004 2C050000 		.word	.LC60
 5699 0008 3C050000 		.word	.LC61
 5700 000c 40050000 		.word	.LC62
 5701 0010 4C050000 		.word	.LC63
 5702 0014 50050000 		.word	.LC64
 5703 0018 54050000 		.word	.LC65
 5704 001c 58050000 		.word	.LC66
 5705 0020 5C050000 		.word	.LC67
 5706              		.text
 5707              	.Letext0:
 5708              		.file 3 "c:\\program files\\gnu tools arm embedded\\4.9 2014q4\\lib\\gcc\\arm-none-eabi\\4.9.3\\in
ARM GAS  C:\Users\jo\AppData\Local\Temp\ccMF9q4g.s 			page 105


 5709              		.file 4 "c:\\program files\\gnu tools arm embedded\\4.9 2014q4\\arm-none-eabi\\include\\machine\\_
 5710              		.file 5 "c:\\program files\\gnu tools arm embedded\\4.9 2014q4\\lib\\gcc\\arm-none-eabi\\4.9.3\\in
 5711              		.file 6 "lcfg_static.h"
 5712              		.file 7 "<built-in>"
 5713              		.file 8 "c:\\program files\\gnu tools arm embedded\\4.9 2014q4\\arm-none-eabi\\include\\stdint.h"
 5714              		.file 9 "../../../os/rt/ports/ARMCMx/compilers/GCC/chtypes.h"
 5715              		.file 10 "../../../os/rt/include/chsystypes.h"
 5716              		.file 11 "../../../os/rt/include/chschd.h"
 5717              		.file 12 "../../../os/rt/ports/ARMCMx/chcore.h"
 5718              		.file 13 "../../../os/rt/ports/ARMCMx/chcore_v7m.h"
 5719              		.file 14 "../../../os/rt/include/chtm.h"
 5720              		.file 15 "../../../os/rt/include/chmtx.h"
 5721              		.file 16 "../../../os/rt/include/chstreams.h"
 5722              		.file 17 "../../../os/hal/ports/STM32/LLD/GPIOv2/pal_lld.h"
 5723              		.file 18 "ITM_trace.h"
 5724              		.file 19 "c:\\program files\\gnu tools arm embedded\\4.9 2014q4\\arm-none-eabi\\include\\string.h"
 5725              		.file 20 "c:\\program files\\gnu tools arm embedded\\4.9 2014q4\\arm-none-eabi\\include\\ctype.h"
 5726              		.file 21 "../../../os/ext/CMSIS/include/core_cm4.h"
 5727              		.file 22 "c:\\program files\\gnu tools arm embedded\\4.9 2014q4\\arm-none-eabi\\include\\assert.h"
 5728              		.file 23 "c:\\program files\\gnu tools arm embedded\\4.9 2014q4\\arm-none-eabi\\include\\stdlib.h"
 5729              		.file 24 "c:\\program files\\gnu tools arm embedded\\4.9 2014q4\\arm-none-eabi\\include\\stdio.h"
 5730              		.file 25 "c:\\program files\\gnu tools arm embedded\\4.9 2014q4\\arm-none-eabi\\include\\sys\\unis
 5731              		.file 26 "c:\\program files\\gnu tools arm embedded\\4.9 2014q4\\arm-none-eabi\\include\\sys\\_def
 5732              		.file 27 "c:\\program files\\gnu tools arm embedded\\4.9 2014q4\\arm-none-eabi\\include\\sys\\errn