ARM GAS  C:\Users\jo\AppData\Local\Temp\ccMF9q4g.s 			page 1


   1              		.syntax unified
   2              		.cpu cortex-m4
   3              		.eabi_attribute 27, 3
   4              		.eabi_attribute 28, 1
   5              		.fpu fpv4-sp-d16
   6              		.eabi_attribute 20, 1
   7              		.eabi_attribute 21, 1
   8              		.eabi_attribute 23, 3
   9              		.eabi_attribute 24, 1
  10              		.eabi_attribute 25, 1
  11              		.eabi_attribute 26, 1
  12              		.eabi_attribute 30, 2
  13              		.eabi_attribute 34, 1
  14              		.eabi_attribute 18, 4
  15              		.thumb
  16              		.file	"lcfg_static.c"
  17              		.text
  18              	.Ltext0:
  19              		.cfi_sections	.debug_frame
  20              		.section	.text.chprintf.constprop.11,"ax",%progbits
  21              		.align	2
  22              		.p2align 4,,15
  23              		.thumb
  24              		.thumb_func
  25              		.type	chprintf.constprop.11, %function
  26              	chprintf.constprop.11:
  27              	.LFB318:
  28              		.file 1 "../../../os/hal/lib/streams/chprintf.h"
  29              		.loc 1 69 0
  30              		.cfi_startproc
  31              		@ args = 4, pretend = 12, frame = 8
  32              		@ frame_needed = 0, uses_anonymous_args = 1
  33              	.LVL0:
  34 0000 0EB4     		push	{r1, r2, r3}
  35              		.cfi_def_cfa_offset 12
  36              		.cfi_offset 1, -12
  37              		.cfi_offset 2, -8
  38              		.cfi_offset 3, -4
  39 0002 00B5     		push	{lr}
  40              		.cfi_def_cfa_offset 16
  41              		.cfi_offset 14, -16
  42 0004 82B0     		sub	sp, sp, #8
  43              		.cfi_def_cfa_offset 24
  44              		.loc 1 69 0
  45 0006 03AA     		add	r2, sp, #12
  46              		.loc 1 74 0
  47 0008 0548     		ldr	r0, .L3
  48              	.LVL1:
  49              		.loc 1 69 0
  50 000a 52F8041B 		ldr	r1, [r2], #4
  51              		.loc 1 73 0
  52 000e 0192     		str	r2, [sp, #4]
  53              		.loc 1 74 0
  54 0010 FFF7FEFF 		bl	chvprintf
  55              	.LVL2:
  56              		.loc 1 78 0
  57 0014 02B0     		add	sp, sp, #8
ARM GAS  C:\Users\jo\AppData\Local\Temp\ccMF9q4g.s 			page 2


  58              		.cfi_def_cfa_offset 16
  59              		@ sp needed
  60 0016 5DF804EB 		ldr	lr, [sp], #4
  61              		.cfi_restore 14
  62              		.cfi_def_cfa_offset 12
  63 001a 03B0     		add	sp, sp, #12
  64              		.cfi_restore 3
  65              		.cfi_restore 2
  66              		.cfi_restore 1
  67              		.cfi_def_cfa_offset 0
  68 001c 7047     		bx	lr
  69              	.L4:
  70 001e 00BF     		.align	2
  71              	.L3:
  72 0020 00000000 		.word	itm_port
  73              		.cfi_endproc
  74              	.LFE318:
  75              		.size	chprintf.constprop.11, .-chprintf.constprop.11
  76 0024 AFF30080 		.section	.text.lcfg_string_new,"ax",%progbits
  76      AFF30080 
  76      AFF30080 
  77              		.align	2
  78              		.p2align 4,,15
  79              		.global	lcfg_string_new
  80              		.thumb
  81              		.thumb_func
  82              		.type	lcfg_string_new, %function
  83              	lcfg_string_new:
  84              	.LFB258:
  85              		.file 2 "lcfg_static.c"
  86              		.loc 2 349 0
  87              		.cfi_startproc
  88              		@ args = 0, pretend = 0, frame = 0
  89              		@ frame_needed = 0, uses_anonymous_args = 0
  90 0000 10B5     		push	{r4, lr}
  91              		.cfi_def_cfa_offset 8
  92              		.cfi_offset 4, -8
  93              		.cfi_offset 14, -4
  94              		.loc 2 350 0
  95 0002 0C20     		movs	r0, #12
  96 0004 FFF7FEFF 		bl	malloc
  97              	.LVL3:
  98              		.loc 2 351 0
  99 0008 0446     		mov	r4, r0
 100 000a 48B1     		cbz	r0, .L10
 101              		.loc 2 353 0
 102 000c 0820     		movs	r0, #8
 103              	.LVL4:
 104              		.loc 2 354 0
 105 000e 0023     		movs	r3, #0
 106              		.loc 2 353 0
 107 0010 A060     		str	r0, [r4, #8]
 108              		.loc 2 354 0
 109 0012 6360     		str	r3, [r4, #4]
 110              		.loc 2 355 0
 111 0014 FFF7FEFF 		bl	malloc
 112              	.LVL5:
ARM GAS  C:\Users\jo\AppData\Local\Temp\ccMF9q4g.s 			page 3


 113 0018 2060     		str	r0, [r4]
 114              		.loc 2 357 0
 115 001a 40B1     		cbz	r0, .L11
 116              		.loc 2 360 0
 117 001c 2046     		mov	r0, r4
 118 001e 10BD     		pop	{r4, pc}
 119              	.LVL6:
 120              	.L10:
 121              	.LBB101:
 122              	.LBB102:
 123              		.loc 2 351 0
 124 0020 0648     		ldr	r0, .L12
 125              	.LVL7:
 126 0022 074A     		ldr	r2, .L12+4
 127 0024 074B     		ldr	r3, .L12+8
 128 0026 40F25F11 		movw	r1, #351
 129 002a FFF7FEFF 		bl	__assert_func
 130              	.LVL8:
 131              	.L11:
 132              	.LBE102:
 133              	.LBE101:
 134              		.loc 2 357 0 discriminator 1
 135 002e 0348     		ldr	r0, .L12
 136 0030 034A     		ldr	r2, .L12+4
 137 0032 054B     		ldr	r3, .L12+12
 138 0034 40F26511 		movw	r1, #357
 139 0038 FFF7FEFF 		bl	__assert_func
 140              	.LVL9:
 141              	.L13:
 142              		.align	2
 143              	.L12:
 144 003c 00000000 		.word	.LC18
 145 0040 00000000 		.word	.LANCHOR0
 146 0044 10000000 		.word	.LC19
 147 0048 14000000 		.word	.LC20
 148              		.cfi_endproc
 149              	.LFE258:
 150              		.size	lcfg_string_new, .-lcfg_string_new
 151 004c AFF30080 		.section	.text.lcfg_string_new_copy,"ax",%progbits
 152              		.align	2
 153              		.p2align 4,,15
 154              		.global	lcfg_string_new_copy
 155              		.thumb
 156              		.thumb_func
 157              		.type	lcfg_string_new_copy, %function
 158              	lcfg_string_new_copy:
 159              	.LFB259:
 160              		.loc 2 363 0
 161              		.cfi_startproc
 162              		@ args = 0, pretend = 0, frame = 0
 163              		@ frame_needed = 0, uses_anonymous_args = 0
 164              	.LVL10:
 165 0000 70B5     		push	{r4, r5, r6, lr}
 166              		.cfi_def_cfa_offset 16
 167              		.cfi_offset 4, -16
 168              		.cfi_offset 5, -12
 169              		.cfi_offset 6, -8
ARM GAS  C:\Users\jo\AppData\Local\Temp\ccMF9q4g.s 			page 4


 170              		.cfi_offset 14, -4
 171              		.loc 2 363 0
 172 0002 0546     		mov	r5, r0
 173              		.loc 2 364 0
 174 0004 0C20     		movs	r0, #12
 175              	.LVL11:
 176 0006 FFF7FEFF 		bl	malloc
 177              	.LVL12:
 178              		.loc 2 365 0
 179 000a 0446     		mov	r4, r0
 180 000c 60B1     		cbz	r0, .L17
 181              		.loc 2 368 0
 182 000e 6E68     		ldr	r6, [r5, #4]
 183              		.loc 2 367 0
 184 0010 A868     		ldr	r0, [r5, #8]
 185              	.LVL13:
 186 0012 A060     		str	r0, [r4, #8]
 187              		.loc 2 368 0
 188 0014 6660     		str	r6, [r4, #4]
 189              		.loc 2 369 0
 190 0016 FFF7FEFF 		bl	malloc
 191              	.LVL14:
 192              		.loc 2 371 0
 193 001a 3246     		mov	r2, r6
 194              		.loc 2 369 0
 195 001c 2060     		str	r0, [r4]
 196              		.loc 2 371 0
 197 001e 2968     		ldr	r1, [r5]
 198 0020 FFF7FEFF 		bl	memcpy
 199              	.LVL15:
 200              		.loc 2 374 0
 201 0024 2046     		mov	r0, r4
 202 0026 70BD     		pop	{r4, r5, r6, pc}
 203              	.LVL16:
 204              	.L17:
 205              	.LBB105:
 206              	.LBB106:
 207              		.loc 2 365 0
 208 0028 0348     		ldr	r0, .L18
 209              	.LVL17:
 210 002a 044A     		ldr	r2, .L18+4
 211 002c 044B     		ldr	r3, .L18+8
 212 002e 40F26D11 		movw	r1, #365
 213 0032 FFF7FEFF 		bl	__assert_func
 214              	.LVL18:
 215              	.L19:
 216 0036 00BF     		.align	2
 217              	.L18:
 218 0038 00000000 		.word	.LC18
 219 003c 00000000 		.word	.LANCHOR1
 220 0040 1C000000 		.word	.LC21
 221              	.LBE106:
 222              	.LBE105:
 223              		.cfi_endproc
 224              	.LFE259:
 225              		.size	lcfg_string_new_copy, .-lcfg_string_new_copy
 226 0044 AFF30080 		.section	.text.lcfg_string_cat_uint,"ax",%progbits
ARM GAS  C:\Users\jo\AppData\Local\Temp\ccMF9q4g.s 			page 5


 226      AFF30080 
 226      AFF30080 
 227              		.align	2
 228              		.p2align 4,,15
 229              		.global	lcfg_string_cat_uint
 230              		.thumb
 231              		.thumb_func
 232              		.type	lcfg_string_cat_uint, %function
 233              	lcfg_string_cat_uint:
 234              	.LFB260:
 235              		.loc 2 377 0
 236              		.cfi_startproc
 237              		@ args = 0, pretend = 0, frame = 0
 238              		@ frame_needed = 0, uses_anonymous_args = 0
 239              	.LVL19:
 240              		.loc 2 382 0
 241 0000 0929     		cmp	r1, #9
 242              		.loc 2 377 0
 243 0002 2DE9F041 		push	{r4, r5, r6, r7, r8, lr}
 244              		.cfi_def_cfa_offset 24
 245              		.cfi_offset 4, -24
 246              		.cfi_offset 5, -20
 247              		.cfi_offset 6, -16
 248              		.cfi_offset 7, -12
 249              		.cfi_offset 8, -8
 250              		.cfi_offset 14, -4
 251              		.loc 2 377 0
 252 0006 0F46     		mov	r7, r1
 253              	.LVL20:
 254 0008 0446     		mov	r4, r0
 255              		.loc 2 382 0
 256 000a 33D9     		bls	.L28
 257              		.loc 2 385 0
 258 000c 1B4A     		ldr	r2, .L33
 259              		.loc 2 382 0
 260 000e 0B46     		mov	r3, r1
 261 0010 0126     		movs	r6, #1
 262              	.LVL21:
 263              	.L22:
 264              		.loc 2 385 0
 265 0012 A2FB0313 		umull	r1, r3, r2, r3
 266              	.LVL22:
 267 0016 DB08     		lsrs	r3, r3, #3
 268              		.loc 2 382 0
 269 0018 092B     		cmp	r3, #9
 270              		.loc 2 384 0
 271 001a 06F10106 		add	r6, r6, #1
 272              	.LVL23:
 273              		.loc 2 382 0
 274 001e F8D8     		bhi	.L22
 275 0020 751E     		subs	r5, r6, #1
 276              	.LVL24:
 277              	.L21:
 278              		.loc 2 388 0
 279 0022 6168     		ldr	r1, [r4, #4]
 280              	.LVL25:
 281              	.LBB109:
ARM GAS  C:\Users\jo\AppData\Local\Temp\ccMF9q4g.s 			page 6


 282              	.LBB110:
 283              		.loc 2 341 0
 284 0024 A368     		ldr	r3, [r4, #8]
 285 0026 2068     		ldr	r0, [r4]
 286              	.LVL26:
 287 0028 01F10108 		add	r8, r1, #1
 288 002c B044     		add	r8, r8, r6
 289 002e 9845     		cmp	r8, r3
 290 0030 08D9     		bls	.L24
 291              	.LVL27:
 292              	.L25:
 293              		.loc 2 343 0
 294 0032 5900     		lsls	r1, r3, #1
 295 0034 A160     		str	r1, [r4, #8]
 296              		.loc 2 344 0
 297 0036 FFF7FEFF 		bl	realloc
 298              	.LVL28:
 299              		.loc 2 341 0
 300 003a A368     		ldr	r3, [r4, #8]
 301              		.loc 2 344 0
 302 003c 2060     		str	r0, [r4]
 303              		.loc 2 341 0
 304 003e 4345     		cmp	r3, r8
 305 0040 F7D3     		bcc	.L25
 306 0042 6168     		ldr	r1, [r4, #4]
 307              	.L24:
 308              	.LVL29:
 309              	.LBE110:
 310              	.LBE109:
 311              		.loc 2 393 0
 312 0044 DFF834E0 		ldr	lr, .L33
 313 0048 01E0     		b	.L27
 314              	.LVL30:
 315              	.L32:
 316 004a 94E80300 		ldmia	r4, {r0, r1}
 317              	.LVL31:
 318              	.L27:
 319              		.loc 2 393 0 is_stmt 0 discriminator 1
 320 004e AEFB0723 		umull	r2, r3, lr, r7
 321 0052 DB08     		lsrs	r3, r3, #3
 322 0054 03EB8302 		add	r2, r3, r3, lsl #2
 323              		.loc 2 394 0 is_stmt 1 discriminator 1
 324 0058 2844     		add	r0, r0, r5
 325              		.loc 2 393 0 discriminator 1
 326 005a A7EB4202 		sub	r2, r7, r2, lsl #1
 327 005e 3032     		adds	r2, r2, #48
 328              		.loc 2 394 0 discriminator 1
 329 0060 013D     		subs	r5, r5, #1
 330              	.LVL32:
 331 0062 4254     		strb	r2, [r0, r1]
 332              		.loc 2 397 0 discriminator 1
 333 0064 1F46     		mov	r7, r3
 334              	.LVL33:
 335 0066 002B     		cmp	r3, #0
 336 0068 EFD1     		bne	.L32
 337              		.loc 2 399 0
 338 006a 6068     		ldr	r0, [r4, #4]
ARM GAS  C:\Users\jo\AppData\Local\Temp\ccMF9q4g.s 			page 7


 339 006c 3044     		add	r0, r0, r6
 340 006e 6060     		str	r0, [r4, #4]
 341              		.loc 2 402 0
 342 0070 BDE8F081 		pop	{r4, r5, r6, r7, r8, pc}
 343              	.LVL34:
 344              	.L28:
 345              		.loc 2 382 0
 346 0074 0025     		movs	r5, #0
 347              		.loc 2 378 0
 348 0076 0126     		movs	r6, #1
 349 0078 D3E7     		b	.L21
 350              	.L34:
 351 007a 00BF     		.align	2
 352              	.L33:
 353 007c CDCCCCCC 		.word	-858993459
 354              		.cfi_endproc
 355              	.LFE260:
 356              		.size	lcfg_string_cat_uint, .-lcfg_string_cat_uint
 357              		.section	.text.lcfg_string_find,"ax",%progbits
 358              		.align	2
 359              		.p2align 4,,15
 360              		.global	lcfg_string_find
 361              		.thumb
 362              		.thumb_func
 363              		.type	lcfg_string_find, %function
 364              	lcfg_string_find:
 365              	.LFB261:
 366              		.loc 2 405 0
 367              		.cfi_startproc
 368              		@ args = 0, pretend = 0, frame = 0
 369              		@ frame_needed = 0, uses_anonymous_args = 0
 370              		@ link register save eliminated.
 371              	.LVL35:
 372 0000 10B4     		push	{r4}
 373              		.cfi_def_cfa_offset 4
 374              		.cfi_offset 4, -4
 375              		.loc 2 408 0
 376 0002 4468     		ldr	r4, [r0, #4]
 377 0004 6CB1     		cbz	r4, .L41
 378              		.loc 2 410 0
 379 0006 0368     		ldr	r3, [r0]
 380 0008 1A78     		ldrb	r2, [r3]	@ zero_extendqisi2
 381 000a 8A42     		cmp	r2, r1
 382 000c 18BF     		it	ne
 383 000e 0020     		movne	r0, #0
 384              	.LVL36:
 385 0010 04D1     		bne	.L39
 386 0012 0BE0     		b	.L47
 387              	.LVL37:
 388              	.L40:
 389 0014 13F8012F 		ldrb	r2, [r3, #1]!	@ zero_extendqisi2
 390 0018 8A42     		cmp	r2, r1
 391 001a 04D0     		beq	.L36
 392              	.LVL38:
 393              	.L39:
 394              		.loc 2 408 0 discriminator 2
 395 001c 0130     		adds	r0, r0, #1
ARM GAS  C:\Users\jo\AppData\Local\Temp\ccMF9q4g.s 			page 8


 396              	.LVL39:
 397 001e A042     		cmp	r0, r4
 398 0020 F8D1     		bne	.L40
 399              	.LVL40:
 400              	.L41:
 401              		.loc 2 416 0
 402 0022 4FF0FF30 		mov	r0, #-1
 403              	.L36:
 404              		.loc 2 417 0
 405 0026 5DF8044B 		ldr	r4, [sp], #4
 406              		.cfi_remember_state
 407              		.cfi_restore 4
 408              		.cfi_def_cfa_offset 0
 409 002a 7047     		bx	lr
 410              	.LVL41:
 411              	.L47:
 412              		.cfi_restore_state
 413              		.loc 2 408 0
 414 002c 0020     		movs	r0, #0
 415              		.loc 2 412 0
 416 002e FAE7     		b	.L36
 417              		.cfi_endproc
 418              	.LFE261:
 419              		.size	lcfg_string_find, .-lcfg_string_find
 420              		.section	.text.lcfg_string_rfind,"ax",%progbits
 421              		.align	2
 422              		.p2align 4,,15
 423              		.global	lcfg_string_rfind
 424              		.thumb
 425              		.thumb_func
 426              		.type	lcfg_string_rfind, %function
 427              	lcfg_string_rfind:
 428              	.LFB262:
 429              		.loc 2 420 0
 430              		.cfi_startproc
 431              		@ args = 0, pretend = 0, frame = 0
 432              		@ frame_needed = 0, uses_anonymous_args = 0
 433              		@ link register save eliminated.
 434              	.LVL42:
 435              		.loc 2 423 0
 436 0000 4368     		ldr	r3, [r0, #4]
 437              	.LVL43:
 438 0002 013B     		subs	r3, r3, #1
 439              	.LVL44:
 440 0004 0ED4     		bmi	.L54
 441              		.loc 2 425 0
 442 0006 0268     		ldr	r2, [r0]
 443 0008 D05C     		ldrb	r0, [r2, r3]	@ zero_extendqisi2
 444              	.LVL45:
 445 000a 8842     		cmp	r0, r1
 446 000c 1A44     		add	r2, r2, r3
 447 000e 04D1     		bne	.L52
 448 0010 06E0     		b	.L57
 449              	.LVL46:
 450              	.L53:
 451 0012 12F8010D 		ldrb	r0, [r2, #-1]!	@ zero_extendqisi2
 452 0016 8842     		cmp	r0, r1
ARM GAS  C:\Users\jo\AppData\Local\Temp\ccMF9q4g.s 			page 9


 453 0018 02D0     		beq	.L57
 454              	.LVL47:
 455              	.L52:
 456              		.loc 2 423 0 discriminator 2
 457 001a 13F1FF33 		adds	r3, r3, #-1
 458              	.LVL48:
 459 001e F8D2     		bcs	.L53
 460              	.LVL49:
 461              	.L57:
 462              		.loc 2 431 0
 463 0020 1846     		mov	r0, r3
 464 0022 7047     		bx	lr
 465              	.LVL50:
 466              	.L54:
 467 0024 4FF0FF30 		mov	r0, #-1
 468              	.LVL51:
 469              		.loc 2 432 0
 470 0028 7047     		bx	lr
 471              		.cfi_endproc
 472              	.LFE262:
 473              		.size	lcfg_string_rfind, .-lcfg_string_rfind
 474 002a 00BFAFF3 		.section	.text.lcfg_string_trunc,"ax",%progbits
 474      0080
 475              		.align	2
 476              		.p2align 4,,15
 477              		.global	lcfg_string_trunc
 478              		.thumb
 479              		.thumb_func
 480              		.type	lcfg_string_trunc, %function
 481              	lcfg_string_trunc:
 482              	.LFB263:
 483              		.loc 2 435 0
 484              		.cfi_startproc
 485              		@ args = 0, pretend = 0, frame = 0
 486              		@ frame_needed = 0, uses_anonymous_args = 0
 487              		@ link register save eliminated.
 488              	.LVL52:
 489              		.loc 2 436 0
 490 0000 4368     		ldr	r3, [r0, #4]
 491 0002 8B42     		cmp	r3, r1
 492              		.loc 2 438 0
 493 0004 88BF     		it	hi
 494 0006 4160     		strhi	r1, [r0, #4]
 495 0008 7047     		bx	lr
 496              		.cfi_endproc
 497              	.LFE263:
 498              		.size	lcfg_string_trunc, .-lcfg_string_trunc
 499 000a 00BFAFF3 		.section	.text.lcfg_string_cat_cstr,"ax",%progbits
 499      0080
 500              		.align	2
 501              		.p2align 4,,15
 502              		.global	lcfg_string_cat_cstr
 503              		.thumb
 504              		.thumb_func
 505              		.type	lcfg_string_cat_cstr, %function
 506              	lcfg_string_cat_cstr:
 507              	.LFB264:
ARM GAS  C:\Users\jo\AppData\Local\Temp\ccMF9q4g.s 			page 10


 508              		.loc 2 443 0
 509              		.cfi_startproc
 510              		@ args = 0, pretend = 0, frame = 0
 511              		@ frame_needed = 0, uses_anonymous_args = 0
 512              	.LVL53:
 513 0000 F8B5     		push	{r3, r4, r5, r6, r7, lr}
 514              		.cfi_def_cfa_offset 24
 515              		.cfi_offset 3, -24
 516              		.cfi_offset 4, -20
 517              		.cfi_offset 5, -16
 518              		.cfi_offset 6, -12
 519              		.cfi_offset 7, -8
 520              		.cfi_offset 14, -4
 521              		.loc 2 443 0
 522 0002 0446     		mov	r4, r0
 523              		.loc 2 444 0
 524 0004 0846     		mov	r0, r1
 525              	.LVL54:
 526              		.loc 2 443 0
 527 0006 0E46     		mov	r6, r1
 528              		.loc 2 444 0
 529 0008 FFF7FEFF 		bl	strlen
 530              	.LVL55:
 531              		.loc 2 446 0
 532 000c 6368     		ldr	r3, [r4, #4]
 533              	.LBB113:
 534              	.LBB114:
 535              		.loc 2 341 0
 536 000e A168     		ldr	r1, [r4, #8]
 537 0010 5F1C     		adds	r7, r3, #1
 538 0012 0744     		add	r7, r7, r0
 539 0014 B942     		cmp	r1, r7
 540              	.LBE114:
 541              	.LBE113:
 542              		.loc 2 444 0
 543 0016 0546     		mov	r5, r0
 544              	.LVL56:
 545 0018 2068     		ldr	r0, [r4]
 546              	.LVL57:
 547              	.LBB116:
 548              	.LBB115:
 549              		.loc 2 341 0
 550 001a 08D2     		bcs	.L62
 551              	.LVL58:
 552              	.L63:
 553              		.loc 2 343 0
 554 001c 4900     		lsls	r1, r1, #1
 555 001e A160     		str	r1, [r4, #8]
 556              		.loc 2 344 0
 557 0020 FFF7FEFF 		bl	realloc
 558              	.LVL59:
 559              		.loc 2 341 0
 560 0024 A168     		ldr	r1, [r4, #8]
 561              		.loc 2 344 0
 562 0026 2060     		str	r0, [r4]
 563              		.loc 2 341 0
 564 0028 B942     		cmp	r1, r7
ARM GAS  C:\Users\jo\AppData\Local\Temp\ccMF9q4g.s 			page 11


 565 002a F7D3     		bcc	.L63
 566 002c 6368     		ldr	r3, [r4, #4]
 567              	.L62:
 568              	.LBE115:
 569              	.LBE116:
 570              		.loc 2 448 0
 571 002e 1844     		add	r0, r0, r3
 572 0030 3146     		mov	r1, r6
 573 0032 2A46     		mov	r2, r5
 574 0034 FFF7FEFF 		bl	memcpy
 575              	.LVL60:
 576              		.loc 2 450 0
 577 0038 6068     		ldr	r0, [r4, #4]
 578 003a 2844     		add	r0, r0, r5
 579 003c 6060     		str	r0, [r4, #4]
 580              		.loc 2 453 0
 581 003e F8BD     		pop	{r3, r4, r5, r6, r7, pc}
 582              		.cfi_endproc
 583              	.LFE264:
 584              		.size	lcfg_string_cat_cstr, .-lcfg_string_cat_cstr
 585              		.section	.text.lcfg_string_set,"ax",%progbits
 586              		.align	2
 587              		.p2align 4,,15
 588              		.global	lcfg_string_set
 589              		.thumb
 590              		.thumb_func
 591              		.type	lcfg_string_set, %function
 592              	lcfg_string_set:
 593              	.LFB256:
 594              		.loc 2 330 0
 595              		.cfi_startproc
 596              		@ args = 0, pretend = 0, frame = 0
 597              		@ frame_needed = 0, uses_anonymous_args = 0
 598              		@ link register save eliminated.
 599              	.LVL61:
 600              	.LBB117:
 601              	.LBB118:
 602              		.loc 2 436 0
 603 0000 4368     		ldr	r3, [r0, #4]
 604 0002 0BB1     		cbz	r3, .L67
 605              		.loc 2 438 0
 606 0004 0023     		movs	r3, #0
 607 0006 4360     		str	r3, [r0, #4]
 608              	.L67:
 609              	.LBE118:
 610              	.LBE117:
 611              		.loc 2 332 0
 612 0008 FFF7FEBF 		b	lcfg_string_cat_cstr
 613              	.LVL62:
 614              		.cfi_endproc
 615              	.LFE256:
 616              		.size	lcfg_string_set, .-lcfg_string_set
 617 000c AFF30080 		.section	.text.lcfg_string_cat_char,"ax",%progbits
 618              		.align	2
 619              		.p2align 4,,15
 620              		.global	lcfg_string_cat_char
 621              		.thumb
ARM GAS  C:\Users\jo\AppData\Local\Temp\ccMF9q4g.s 			page 12


 622              		.thumb_func
 623              		.type	lcfg_string_cat_char, %function
 624              	lcfg_string_cat_char:
 625              	.LFB265:
 626              		.loc 2 456 0
 627              		.cfi_startproc
 628              		@ args = 0, pretend = 0, frame = 0
 629              		@ frame_needed = 0, uses_anonymous_args = 0
 630              	.LVL63:
 631              		.loc 2 457 0
 632 0000 4368     		ldr	r3, [r0, #4]
 633              	.LVL64:
 634              		.loc 2 456 0
 635 0002 70B5     		push	{r4, r5, r6, lr}
 636              		.cfi_def_cfa_offset 16
 637              		.cfi_offset 4, -16
 638              		.cfi_offset 5, -12
 639              		.cfi_offset 6, -8
 640              		.cfi_offset 14, -4
 641              		.loc 2 456 0
 642 0004 0E46     		mov	r6, r1
 643              	.LBB121:
 644              	.LBB122:
 645              		.loc 2 341 0
 646 0006 8168     		ldr	r1, [r0, #8]
 647              	.LVL65:
 648 0008 9D1C     		adds	r5, r3, #2
 649 000a A942     		cmp	r1, r5
 650              	.LBE122:
 651              	.LBE121:
 652              		.loc 2 456 0
 653 000c 0446     		mov	r4, r0
 654 000e 0068     		ldr	r0, [r0]
 655              	.LVL66:
 656              	.LBB124:
 657              	.LBB123:
 658              		.loc 2 341 0
 659 0010 08D2     		bcs	.L73
 660              	.LVL67:
 661              	.L74:
 662              		.loc 2 343 0
 663 0012 4900     		lsls	r1, r1, #1
 664 0014 A160     		str	r1, [r4, #8]
 665              		.loc 2 344 0
 666 0016 FFF7FEFF 		bl	realloc
 667              	.LVL68:
 668              		.loc 2 341 0
 669 001a A168     		ldr	r1, [r4, #8]
 670              		.loc 2 344 0
 671 001c 2060     		str	r0, [r4]
 672              		.loc 2 341 0
 673 001e A942     		cmp	r1, r5
 674 0020 F7D3     		bcc	.L74
 675 0022 6368     		ldr	r3, [r4, #4]
 676              	.L73:
 677              	.LBE123:
 678              	.LBE124:
ARM GAS  C:\Users\jo\AppData\Local\Temp\ccMF9q4g.s 			page 13


 679              		.loc 2 459 0
 680 0024 5A1C     		adds	r2, r3, #1
 681 0026 6260     		str	r2, [r4, #4]
 682 0028 C654     		strb	r6, [r0, r3]
 683              		.loc 2 462 0
 684 002a 6068     		ldr	r0, [r4, #4]
 685 002c 70BD     		pop	{r4, r5, r6, pc}
 686              		.cfi_endproc
 687              	.LFE265:
 688              		.size	lcfg_string_cat_char, .-lcfg_string_cat_char
 689 002e 00BF     		.section	.text.lcfg_string_cstr,"ax",%progbits
 690              		.align	2
 691              		.p2align 4,,15
 692              		.global	lcfg_string_cstr
 693              		.thumb
 694              		.thumb_func
 695              		.type	lcfg_string_cstr, %function
 696              	lcfg_string_cstr:
 697              	.LFB266:
 698              		.loc 2 465 0
 699              		.cfi_startproc
 700              		@ args = 0, pretend = 0, frame = 0
 701              		@ frame_needed = 0, uses_anonymous_args = 0
 702              		@ link register save eliminated.
 703              	.LVL69:
 704              		.loc 2 466 0
 705 0000 90E80C00 		ldmia	r0, {r2, r3}
 706 0004 0021     		movs	r1, #0
 707 0006 D154     		strb	r1, [r2, r3]
 708              		.loc 2 468 0
 709 0008 0068     		ldr	r0, [r0]
 710              	.LVL70:
 711 000a 7047     		bx	lr
 712              		.cfi_endproc
 713              	.LFE266:
 714              		.size	lcfg_string_cstr, .-lcfg_string_cstr
 715 000c AFF30080 		.section	.text.lcfg_string_len,"ax",%progbits
 716              		.align	2
 717              		.p2align 4,,15
 718              		.global	lcfg_string_len
 719              		.thumb
 720              		.thumb_func
 721              		.type	lcfg_string_len, %function
 722              	lcfg_string_len:
 723              	.LFB267:
 724              		.loc 2 471 0
 725              		.cfi_startproc
 726              		@ args = 0, pretend = 0, frame = 0
 727              		@ frame_needed = 0, uses_anonymous_args = 0
 728              		@ link register save eliminated.
 729              	.LVL71:
 730              		.loc 2 473 0
 731 0000 4068     		ldr	r0, [r0, #4]
 732              	.LVL72:
 733 0002 7047     		bx	lr
 734              		.cfi_endproc
 735              	.LFE267:
ARM GAS  C:\Users\jo\AppData\Local\Temp\ccMF9q4g.s 			page 14


 736              		.size	lcfg_string_len, .-lcfg_string_len
 737 0004 AFF30080 		.section	.text.lcfg_string_delete,"ax",%progbits
 737      AFF30080 
 737      AFF30080 
 738              		.align	2
 739              		.p2align 4,,15
 740              		.global	lcfg_string_delete
 741              		.thumb
 742              		.thumb_func
 743              		.type	lcfg_string_delete, %function
 744              	lcfg_string_delete:
 745              	.LFB268:
 746              		.loc 2 476 0
 747              		.cfi_startproc
 748              		@ args = 0, pretend = 0, frame = 0
 749              		@ frame_needed = 0, uses_anonymous_args = 0
 750              	.LVL73:
 751 0000 10B5     		push	{r4, lr}
 752              		.cfi_def_cfa_offset 8
 753              		.cfi_offset 4, -8
 754              		.cfi_offset 14, -4
 755              		.loc 2 476 0
 756 0002 0446     		mov	r4, r0
 757              		.loc 2 477 0
 758 0004 0068     		ldr	r0, [r0]
 759              	.LVL74:
 760 0006 FFF7FEFF 		bl	free
 761              	.LVL75:
 762              		.loc 2 478 0
 763 000a 2046     		mov	r0, r4
 764              		.loc 2 479 0
 765 000c BDE81040 		pop	{r4, lr}
 766              		.cfi_restore 14
 767              		.cfi_restore 4
 768              		.cfi_def_cfa_offset 0
 769              	.LVL76:
 770              		.loc 2 478 0
 771 0010 FFF7FEBF 		b	free
 772              	.LVL77:
 773              		.cfi_endproc
 774              	.LFE268:
 775              		.size	lcfg_string_delete, .-lcfg_string_delete
 776 0014 AFF30080 		.section	.text.lcfg_scanner_has_next,"ax",%progbits
 776      AFF30080 
 776      AFF30080 
 777              		.align	2
 778              		.p2align 4,,15
 779              		.global	lcfg_scanner_has_next
 780              		.thumb
 781              		.thumb_func
 782              		.type	lcfg_scanner_has_next, %function
 783              	lcfg_scanner_has_next:
 784              	.LFB275:
 785              		.loc 2 869 0
 786              		.cfi_startproc
 787              		@ args = 0, pretend = 0, frame = 0
 788              		@ frame_needed = 0, uses_anonymous_args = 0
ARM GAS  C:\Users\jo\AppData\Local\Temp\ccMF9q4g.s 			page 15


 789              		@ link register save eliminated.
 790              	.LVL78:
 791              		.loc 2 870 0
 792 0000 90F81801 		ldrb	r0, [r0, #280]	@ zero_extendqisi2
 793              	.LVL79:
 794              		.loc 2 871 0
 795 0004 0030     		adds	r0, r0, #0
 796 0006 18BF     		it	ne
 797 0008 0120     		movne	r0, #1
 798 000a 7047     		bx	lr
 799              		.cfi_endproc
 800              	.LFE275:
 801              		.size	lcfg_scanner_has_next, .-lcfg_scanner_has_next
 802 000c AFF30080 		.section	.text.lcfg_scanner_new,"ax",%progbits
 803              		.align	2
 804              		.p2align 4,,15
 805              		.global	lcfg_scanner_new
 806              		.thumb
 807              		.thumb_func
 808              		.type	lcfg_scanner_new, %function
 809              	lcfg_scanner_new:
 810              	.LFB277:
 811              		.loc 2 889 0
 812              		.cfi_startproc
 813              		@ args = 0, pretend = 0, frame = 0
 814              		@ frame_needed = 0, uses_anonymous_args = 0
 815              	.LVL80:
 816 0000 70B5     		push	{r4, r5, r6, lr}
 817              		.cfi_def_cfa_offset 16
 818              		.cfi_offset 4, -16
 819              		.cfi_offset 5, -12
 820              		.cfi_offset 6, -8
 821              		.cfi_offset 14, -4
 822              		.loc 2 889 0
 823 0002 0646     		mov	r6, r0
 824              		.loc 2 890 0
 825 0004 4FF49470 		mov	r0, #296
 826              	.LVL81:
 827              		.loc 2 889 0
 828 0008 0D46     		mov	r5, r1
 829              		.loc 2 890 0
 830 000a FFF7FEFF 		bl	malloc
 831              	.LVL82:
 832              		.loc 2 891 0
 833 000e 90B1     		cbz	r0, .L85
 834 0010 0446     		mov	r4, r0
 835              		.loc 2 893 0
 836 0012 0021     		movs	r1, #0
 837 0014 4FF49472 		mov	r2, #296
 838 0018 FFF7FEFF 		bl	memset
 839              	.LVL83:
 840              		.loc 2 898 0
 841 001c 0123     		movs	r3, #1
 842              		.loc 2 895 0
 843 001e 2660     		str	r6, [r4]
 844              		.loc 2 896 0
 845 0020 6560     		str	r5, [r4, #4]
ARM GAS  C:\Users\jo\AppData\Local\Temp\ccMF9q4g.s 			page 16


 846              		.loc 2 898 0
 847 0022 A4F81631 		strh	r3, [r4, #278]	@ movhi
 848 0026 A4F81431 		strh	r3, [r4, #276]	@ movhi
 849              		.loc 2 900 0
 850 002a FFF7FEFF 		bl	lcfg_string_new
 851              	.LVL84:
 852 002e C4F81C01 		str	r0, [r4, #284]
 853              		.loc 2 903 0
 854 0032 2046     		mov	r0, r4
 855 0034 70BD     		pop	{r4, r5, r6, pc}
 856              	.LVL85:
 857              	.L85:
 858              	.LBB127:
 859              	.LBB128:
 860              		.loc 2 891 0
 861 0036 0348     		ldr	r0, .L86
 862              	.LVL86:
 863 0038 034A     		ldr	r2, .L86+4
 864 003a 044B     		ldr	r3, .L86+8
 865 003c 40F27B31 		movw	r1, #891
 866 0040 FFF7FEFF 		bl	__assert_func
 867              	.LVL87:
 868              	.L87:
 869              		.align	2
 870              	.L86:
 871 0044 00000000 		.word	.LC18
 872 0048 00000000 		.word	.LANCHOR2
 873 004c 10000000 		.word	.LC19
 874              	.LBE128:
 875              	.LBE127:
 876              		.cfi_endproc
 877              	.LFE277:
 878              		.size	lcfg_scanner_new, .-lcfg_scanner_new
 879              		.section	.text.lcfg_scanner_delete,"ax",%progbits
 880              		.align	2
 881              		.p2align 4,,15
 882              		.global	lcfg_scanner_delete
 883              		.thumb
 884              		.thumb_func
 885              		.type	lcfg_scanner_delete, %function
 886              	lcfg_scanner_delete:
 887              	.LFB278:
 888              		.loc 2 906 0
 889              		.cfi_startproc
 890              		@ args = 0, pretend = 0, frame = 0
 891              		@ frame_needed = 0, uses_anonymous_args = 0
 892              	.LVL88:
 893 0000 38B5     		push	{r3, r4, r5, lr}
 894              		.cfi_def_cfa_offset 16
 895              		.cfi_offset 3, -16
 896              		.cfi_offset 4, -12
 897              		.cfi_offset 5, -8
 898              		.cfi_offset 14, -4
 899              		.loc 2 907 0
 900 0002 D0F81C51 		ldr	r5, [r0, #284]
 901              	.LVL89:
 902              		.loc 2 906 0
ARM GAS  C:\Users\jo\AppData\Local\Temp\ccMF9q4g.s 			page 17


 903 0006 0446     		mov	r4, r0
 904              	.LBB129:
 905              	.LBB130:
 906              		.loc 2 477 0
 907 0008 2868     		ldr	r0, [r5]
 908              	.LVL90:
 909 000a FFF7FEFF 		bl	free
 910              	.LVL91:
 911              		.loc 2 478 0
 912 000e 2846     		mov	r0, r5
 913 0010 FFF7FEFF 		bl	free
 914              	.LVL92:
 915              	.LBE130:
 916              	.LBE129:
 917              		.loc 2 908 0
 918 0014 2046     		mov	r0, r4
 919              		.loc 2 909 0
 920 0016 BDE83840 		pop	{r3, r4, r5, lr}
 921              		.cfi_restore 14
 922              		.cfi_restore 5
 923              		.cfi_restore 4
 924              		.cfi_restore 3
 925              		.cfi_def_cfa_offset 0
 926              	.LVL93:
 927              		.loc 2 908 0
 928 001a FFF7FEBF 		b	free
 929              	.LVL94:
 930              		.cfi_endproc
 931              	.LFE278:
 932              		.size	lcfg_scanner_delete, .-lcfg_scanner_delete
 933 001e 00BF     		.section	.text.strdup,"ax",%progbits
 934              		.align	2
 935              		.p2align 4,,15
 936              		.global	strdup
 937              		.thumb
 938              		.thumb_func
 939              		.type	strdup, %function
 940              	strdup:
 941              	.LFB279:
 942              		.loc 2 943 0
 943              		.cfi_startproc
 944              		@ args = 0, pretend = 0, frame = 0
 945              		@ frame_needed = 0, uses_anonymous_args = 0
 946              	.LVL95:
 947 0000 70B5     		push	{r4, r5, r6, lr}
 948              		.cfi_def_cfa_offset 16
 949              		.cfi_offset 4, -16
 950              		.cfi_offset 5, -12
 951              		.cfi_offset 6, -8
 952              		.cfi_offset 14, -4
 953              		.loc 2 943 0
 954 0002 0646     		mov	r6, r0
 955              		.loc 2 946 0
 956 0004 FFF7FEFF 		bl	strlen
 957              	.LVL96:
 958 0008 441C     		adds	r4, r0, #1
 959              	.LVL97:
ARM GAS  C:\Users\jo\AppData\Local\Temp\ccMF9q4g.s 			page 18


 960              		.loc 2 947 0
 961 000a 2046     		mov	r0, r4
 962 000c FFF7FEFF 		bl	malloc
 963              	.LVL98:
 964              		.loc 2 949 0
 965 0010 0546     		mov	r5, r0
 966 0012 18B1     		cbz	r0, .L91
 967              		.loc 2 951 0
 968 0014 3146     		mov	r1, r6
 969 0016 2246     		mov	r2, r4
 970 0018 FFF7FEFF 		bl	memcpy
 971              	.LVL99:
 972              	.L91:
 973              		.loc 2 955 0
 974 001c 2846     		mov	r0, r5
 975 001e 70BD     		pop	{r4, r5, r6, pc}
 976              		.cfi_endproc
 977              	.LFE279:
 978              		.size	strdup, .-strdup
 979              		.section	.text.lcfg_parser_add_value,"ax",%progbits
 980              		.align	2
 981              		.p2align 4,,15
 982              		.thumb
 983              		.thumb_func
 984              		.type	lcfg_parser_add_value, %function
 985              	lcfg_parser_add_value:
 986              	.LFB280:
 987              		.loc 2 977 0
 988              		.cfi_startproc
 989              		@ args = 0, pretend = 0, frame = 0
 990              		@ frame_needed = 0, uses_anonymous_args = 0
 991              	.LVL100:
 992 0000 2DE9F041 		push	{r4, r5, r6, r7, r8, lr}
 993              		.cfi_def_cfa_offset 24
 994              		.cfi_offset 4, -24
 995              		.cfi_offset 5, -20
 996              		.cfi_offset 6, -16
 997              		.cfi_offset 7, -12
 998              		.cfi_offset 8, -8
 999              		.cfi_offset 14, -4
 1000              		.loc 2 978 0
 1001 0004 4369     		ldr	r3, [r0, #20]
 1002 0006 0669     		ldr	r6, [r0, #16]
 1003 0008 9E42     		cmp	r6, r3
 1004              		.loc 2 977 0
 1005 000a 0446     		mov	r4, r0
 1006 000c 8846     		mov	r8, r1
 1007 000e 1746     		mov	r7, r2
 1008              		.loc 2 978 0
 1009 0010 11D0     		beq	.L101
 1010 0012 C568     		ldr	r5, [r0, #12]
 1011              	.LVL101:
 1012              	.L99:
 1013              		.loc 2 985 0
 1014 0014 4046     		mov	r0, r8
 1015 0016 FFF7FEFF 		bl	strdup
 1016              	.LVL102:
ARM GAS  C:\Users\jo\AppData\Local\Temp\ccMF9q4g.s 			page 19


 1017 001a 45F83600 		str	r0, [r5, r6, lsl #3]
 1018              		.loc 2 986 0
 1019 001e 3846     		mov	r0, r7
 1020 0020 FFF7FEFF 		bl	lcfg_string_new_copy
 1021              	.LVL103:
 1022              		.loc 2 988 0
 1023 0024 2369     		ldr	r3, [r4, #16]
 1024              		.loc 2 985 0
 1025 0026 05EBC605 		add	r5, r5, r6, lsl #3
 1026              		.loc 2 988 0
 1027 002a 0133     		adds	r3, r3, #1
 1028              		.loc 2 986 0
 1029 002c 6860     		str	r0, [r5, #4]
 1030              		.loc 2 988 0
 1031 002e 2361     		str	r3, [r4, #16]
 1032              		.loc 2 989 0
 1033 0030 1846     		mov	r0, r3
 1034 0032 BDE8F081 		pop	{r4, r5, r6, r7, r8, pc}
 1035              	.LVL104:
 1036              	.L101:
 1037              		.loc 2 980 0
 1038 0036 7300     		lsls	r3, r6, #1
 1039 0038 4361     		str	r3, [r0, #20]
 1040              		.loc 2 981 0
 1041 003a 3101     		lsls	r1, r6, #4
 1042              	.LVL105:
 1043 003c C068     		ldr	r0, [r0, #12]
 1044              	.LVL106:
 1045 003e FFF7FEFF 		bl	realloc
 1046              	.LVL107:
 1047 0042 E060     		str	r0, [r4, #12]
 1048              		.loc 2 982 0
 1049 0044 10B1     		cbz	r0, .L98
 1050 0046 0546     		mov	r5, r0
 1051 0048 2669     		ldr	r6, [r4, #16]
 1052 004a E3E7     		b	.L99
 1053              	.L98:
 1054              	.LVL108:
 1055              	.LBB133:
 1056              	.LBB134:
 1057 004c 0348     		ldr	r0, .L102
 1058 004e 044A     		ldr	r2, .L102+4
 1059 0050 044B     		ldr	r3, .L102+8
 1060 0052 40F2D631 		movw	r1, #982
 1061 0056 FFF7FEFF 		bl	__assert_func
 1062              	.LVL109:
 1063              	.L103:
 1064 005a 00BF     		.align	2
 1065              	.L102:
 1066 005c 00000000 		.word	.LC18
 1067 0060 00000000 		.word	.LANCHOR3
 1068 0064 24000000 		.word	.LC22
 1069              	.LBE134:
 1070              	.LBE133:
 1071              		.cfi_endproc
 1072              	.LFE280:
 1073              		.size	lcfg_parser_add_value, .-lcfg_parser_add_value
ARM GAS  C:\Users\jo\AppData\Local\Temp\ccMF9q4g.s 			page 20


 1074 0068 AFF30080 		.section	.text.lcfgx_tree_node_new,"ax",%progbits
 1074      AFF30080 
 1075              		.align	2
 1076              		.p2align 4,,15
 1077              		.thumb
 1078              		.thumb_func
 1079              		.type	lcfgx_tree_node_new, %function
 1080              	lcfgx_tree_node_new:
 1081              	.LFB294:
 1082              		.loc 2 1378 0
 1083              		.cfi_startproc
 1084              		@ args = 0, pretend = 0, frame = 0
 1085              		@ frame_needed = 0, uses_anonymous_args = 0
 1086              	.LVL110:
 1087 0000 70B5     		push	{r4, r5, r6, lr}
 1088              		.cfi_def_cfa_offset 16
 1089              		.cfi_offset 4, -16
 1090              		.cfi_offset 5, -12
 1091              		.cfi_offset 6, -8
 1092              		.cfi_offset 14, -4
 1093              		.loc 2 1378 0
 1094 0002 0646     		mov	r6, r0
 1095              		.loc 2 1379 0
 1096 0004 1420     		movs	r0, #20
 1097              	.LVL111:
 1098              		.loc 2 1378 0
 1099 0006 0D46     		mov	r5, r1
 1100              		.loc 2 1379 0
 1101 0008 FFF7FEFF 		bl	malloc
 1102              	.LVL112:
 1103 000c 0446     		mov	r4, r0
 1104              	.LVL113:
 1105              		.loc 2 1381 0
 1106 000e 0670     		strb	r6, [r0]
 1107              		.loc 2 1383 0
 1108 0010 3DB1     		cbz	r5, .L105
 1109              		.loc 2 1384 0
 1110 0012 2846     		mov	r0, r5
 1111              	.LVL114:
 1112 0014 FFF7FEFF 		bl	strdup
 1113              	.LVL115:
 1114              		.loc 2 1388 0
 1115 0018 0023     		movs	r3, #0
 1116              		.loc 2 1384 0
 1117 001a 6060     		str	r0, [r4, #4]
 1118              		.loc 2 1388 0
 1119 001c 2361     		str	r3, [r4, #16]
 1120              		.loc 2 1391 0
 1121 001e 2046     		mov	r0, r4
 1122 0020 70BD     		pop	{r4, r5, r6, pc}
 1123              	.LVL116:
 1124              	.L105:
 1125              		.loc 2 1388 0
 1126 0022 0023     		movs	r3, #0
 1127              		.loc 2 1386 0
 1128 0024 4560     		str	r5, [r0, #4]
 1129              		.loc 2 1388 0
ARM GAS  C:\Users\jo\AppData\Local\Temp\ccMF9q4g.s 			page 21


 1130 0026 2361     		str	r3, [r4, #16]
 1131              		.loc 2 1391 0
 1132 0028 2046     		mov	r0, r4
 1133              	.LVL117:
 1134 002a 70BD     		pop	{r4, r5, r6, pc}
 1135              		.cfi_endproc
 1136              	.LFE294:
 1137              		.size	lcfgx_tree_node_new, .-lcfgx_tree_node_new
 1138 002c AFF30080 		.section	.text.lcfgx_tree_visitor,"ax",%progbits
 1139              		.align	2
 1140              		.p2align 4,,15
 1141              		.global	lcfgx_tree_visitor
 1142              		.thumb
 1143              		.thumb_func
 1144              		.type	lcfgx_tree_visitor, %function
 1145              	lcfgx_tree_visitor:
 1146              	.LFB298:
 1147              		.loc 2 1488 0
 1148              		.cfi_startproc
 1149              		@ args = 0, pretend = 0, frame = 24
 1150              		@ frame_needed = 1, uses_anonymous_args = 0
 1151              	.LVL118:
 1152 0000 2DE9F04F 		push	{r4, r5, r6, r7, r8, r9, r10, fp, lr}
 1153              		.cfi_def_cfa_offset 36
 1154              		.cfi_offset 4, -36
 1155              		.cfi_offset 5, -32
 1156              		.cfi_offset 6, -28
 1157              		.cfi_offset 7, -24
 1158              		.cfi_offset 8, -20
 1159              		.cfi_offset 9, -16
 1160              		.cfi_offset 10, -12
 1161              		.cfi_offset 11, -8
 1162              		.cfi_offset 14, -4
 1163 0004 87B0     		sub	sp, sp, #28
 1164              		.cfi_def_cfa_offset 64
 1165 0006 00AF     		add	r7, sp, #0
 1166              		.cfi_def_cfa_register 7
 1167              		.loc 2 1488 0
 1168 0008 0446     		mov	r4, r0
 1169 000a 7960     		str	r1, [r7, #4]
 1170 000c BA60     		str	r2, [r7, #8]
 1171              	.LVL119:
 1172 000e 9946     		mov	r9, r3
 1173              		.loc 2 1490 0
 1174 0010 FFF7FEFF 		bl	strlen
 1175              	.LVL120:
 1176 0014 00F10803 		add	r3, r0, #8
 1177 0018 23F00703 		bic	r3, r3, #7
 1178 001c ADEB030D 		sub	sp, sp, r3
 1179              	.LVL121:
 1180              		.loc 2 1493 0
 1181 0020 421C     		adds	r2, r0, #1
 1182              	.LVL122:
 1183 0022 2146     		mov	r1, r4
 1184 0024 6846     		mov	r0, sp
 1185 0026 FFF7FEFF 		bl	strncpy
 1186              	.LVL123:
ARM GAS  C:\Users\jo\AppData\Local\Temp\ccMF9q4g.s 			page 22


 1187              		.loc 2 1490 0
 1188 002a 6846     		mov	r0, sp
 1189              	.LVL124:
 1190 002c 631E     		subs	r3, r4, #1
 1191              		.loc 2 1491 0
 1192 002e 0122     		movs	r2, #1
 1193              		.loc 2 1495 0
 1194 0030 02E0     		b	.L109
 1195              	.LVL125:
 1196              	.L111:
 1197              		.loc 2 1496 0
 1198 0032 2E2D     		cmp	r5, #46
 1199              		.loc 2 1497 0
 1200 0034 08BF     		it	eq
 1201 0036 0132     		addeq	r2, r2, #1
 1202              	.LVL126:
 1203              	.L109:
 1204              		.loc 2 1495 0
 1205 0038 13F8015F 		ldrb	r5, [r3, #1]!	@ zero_extendqisi2
 1206              	.LVL127:
 1207 003c 002D     		cmp	r5, #0
 1208 003e F8D1     		bne	.L111
 1209              	.LVL128:
 1210              		.loc 2 1499 0
 1211 0040 9300     		lsls	r3, r2, #2
 1212              	.LVL129:
 1213 0042 0A33     		adds	r3, r3, #10
 1214 0044 23F00703 		bic	r3, r3, #7
 1215              		.loc 2 1501 0
 1216 0048 07F11808 		add	r8, r7, #24
 1217              		.loc 2 1499 0
 1218 004c ADEB030D 		sub	sp, sp, r3
 1219 0050 EB46     		mov	fp, sp
 1220              	.LVL130:
 1221 0052 ADF10404 		sub	r4, sp, #4
 1222              		.loc 2 1501 0
 1223 0056 48F8045D 		str	r5, [r8, #-4]!
 1224              	.LVL131:
 1225 005a 03E0     		b	.L112
 1226              	.LVL132:
 1227              	.L113:
 1228              		.loc 2 1505 0
 1229 005c 44F8040F 		str	r0, [r4, #4]!
 1230 0060 0135     		adds	r5, r5, #1
 1231              	.LVL133:
 1232              		.loc 2 1504 0
 1233 0062 0020     		movs	r0, #0
 1234              	.LVL134:
 1235              	.L112:
 1236              		.loc 2 1504 0 is_stmt 0 discriminator 4
 1237 0064 3549     		ldr	r1, .L142
 1238 0066 4246     		mov	r2, r8
 1239 0068 FFF7FEFF 		bl	strtok_r
 1240              	.LVL135:
 1241 006c 0028     		cmp	r0, #0
 1242 006e F5D1     		bne	.L113
 1243 0070 09F10809 		add	r9, r9, #8
ARM GAS  C:\Users\jo\AppData\Local\Temp\ccMF9q4g.s 			page 23


 1244              	.LVL136:
 1245              	.LBB139:
 1246              	.LBB140:
 1247              		.loc 2 1468 0 is_stmt 1
 1248 0074 8246     		mov	r10, r0
 1249              	.LBE140:
 1250              	.LBE139:
 1251 0076 FD60     		str	r5, [r7, #12]
 1252 0078 D846     		mov	r8, fp
 1253              	.LVL137:
 1254              	.L123:
 1255              	.LBB148:
 1256              	.LBB144:
 1257              		.loc 2 1433 0
 1258 007a D9F80060 		ldr	r6, [r9]
 1259              	.LVL138:
 1260 007e 56B1     		cbz	r6, .L114
 1261 0080 D8F80040 		ldr	r4, [r8]
 1262 0084 01E0     		b	.L115
 1263              	.L136:
 1264 0086 3669     		ldr	r6, [r6, #16]
 1265              	.LVL139:
 1266 0088 2EB1     		cbz	r6, .L114
 1267              	.L115:
 1268              		.loc 2 1434 0
 1269 008a 2046     		mov	r0, r4
 1270 008c 7168     		ldr	r1, [r6, #4]
 1271 008e FFF7FEFF 		bl	strcmp
 1272              	.LVL140:
 1273 0092 0028     		cmp	r0, #0
 1274 0094 F7D1     		bne	.L136
 1275              	.L114:
 1276              		.loc 2 1437 0
 1277 0096 012D     		cmp	r5, #1
 1278 0098 06D0     		beq	.L137
 1279              		.loc 2 1464 0
 1280 009a 86B1     		cbz	r6, .L138
 1281              	.L120:
 1282              		.loc 2 1483 0
 1283 009c 013D     		subs	r5, r5, #1
 1284              	.LVL141:
 1285 009e 08F10408 		add	r8, r8, #4
 1286 00a2 06F10809 		add	r9, r6, #8
 1287 00a6 E8E7     		b	.L123
 1288              	.LVL142:
 1289              	.L137:
 1290 00a8 FB68     		ldr	r3, [r7, #12]
 1291 00aa 03F1804A 		add	r10, r3, #1073741824
 1292              	.LVL143:
 1293 00ae 0AF1FF3A 		add	r10, r10, #-1
 1294              		.loc 2 1440 0
 1295 00b2 C6B1     		cbz	r6, .L139
 1296              	.LVL144:
 1297              	.L117:
 1298              	.LBE144:
 1299              	.LBE148:
 1300              		.loc 2 1510 0
ARM GAS  C:\Users\jo\AppData\Local\Temp\ccMF9q4g.s 			page 24


 1301 00b4 0020     		movs	r0, #0
 1302 00b6 1C37     		adds	r7, r7, #28
 1303              		.cfi_remember_state
 1304              		.cfi_def_cfa_offset 36
 1305              	.LVL145:
 1306 00b8 BD46     		mov	sp, r7
 1307              		.cfi_def_cfa_register 13
 1308              		@ sp needed
 1309 00ba BDE8F08F 		pop	{r4, r5, r6, r7, r8, r9, r10, fp, pc}
 1310              	.LVL146:
 1311              	.L138:
 1312              		.cfi_restore_state
 1313              	.LBB149:
 1314              	.LBB145:
 1315              		.loc 2 1467 0
 1316 00be D8F80010 		ldr	r1, [r8]
 1317 00c2 0220     		movs	r0, #2
 1318 00c4 FFF7FEFF 		bl	lcfgx_tree_node_new
 1319              	.LVL147:
 1320              		.loc 2 1468 0
 1321 00c8 C0F808A0 		str	r10, [r0, #8]
 1322              		.loc 2 1469 0
 1323 00cc C0F810A0 		str	r10, [r0, #16]
 1324              		.loc 2 1470 0
 1325 00d0 D9F80010 		ldr	r1, [r9]
 1326              		.loc 2 1467 0
 1327 00d4 0646     		mov	r6, r0
 1328              	.LVL148:
 1329              		.loc 2 1470 0
 1330 00d6 09B9     		cbnz	r1, .L122
 1331 00d8 2AE0     		b	.L140
 1332              	.LVL149:
 1333              	.L125:
 1334              	.LBB141:
 1335              		.loc 2 1473 0
 1336 00da 1146     		mov	r1, r2
 1337              	.LVL150:
 1338              	.L122:
 1339 00dc 0A69     		ldr	r2, [r1, #16]
 1340 00de 002A     		cmp	r2, #0
 1341 00e0 FBD1     		bne	.L125
 1342              		.loc 2 1475 0
 1343 00e2 0E61     		str	r6, [r1, #16]
 1344 00e4 DAE7     		b	.L120
 1345              	.LVL151:
 1346              	.L139:
 1347              	.LBE141:
 1348              		.loc 2 1443 0
 1349 00e6 5BF82A10 		ldr	r1, [fp, r10, lsl #2]
 1350 00ea 3046     		mov	r0, r6
 1351 00ec FFF7FEFF 		bl	lcfgx_tree_node_new
 1352              	.LVL152:
 1353              		.loc 2 1445 0
 1354 00f0 BB68     		ldr	r3, [r7, #8]
 1355              		.loc 2 1444 0
 1356 00f2 C360     		str	r3, [r0, #12]
 1357              		.loc 2 1445 0
ARM GAS  C:\Users\jo\AppData\Local\Temp\ccMF9q4g.s 			page 25


 1358 00f4 5D1C     		adds	r5, r3, #1
 1359              		.loc 2 1443 0
 1360 00f6 0446     		mov	r4, r0
 1361              	.LVL153:
 1362              		.loc 2 1445 0
 1363 00f8 2846     		mov	r0, r5
 1364              	.LVL154:
 1365 00fa FFF7FEFF 		bl	malloc
 1366              	.LVL155:
 1367              		.loc 2 1446 0
 1368 00fe 2A46     		mov	r2, r5
 1369 0100 3146     		mov	r1, r6
 1370              		.loc 2 1445 0
 1371 0102 A060     		str	r0, [r4, #8]
 1372              		.loc 2 1446 0
 1373 0104 FFF7FEFF 		bl	memset
 1374              	.LVL156:
 1375              		.loc 2 1447 0
 1376 0108 BA68     		ldr	r2, [r7, #8]
 1377 010a 7968     		ldr	r1, [r7, #4]
 1378 010c A068     		ldr	r0, [r4, #8]
 1379 010e FFF7FEFF 		bl	memcpy
 1380              	.LVL157:
 1381              		.loc 2 1448 0
 1382 0112 2661     		str	r6, [r4, #16]
 1383              		.loc 2 1449 0
 1384 0114 D9F80020 		ldr	r2, [r9]
 1385 0118 0AB9     		cbnz	r2, .L119
 1386 011a 0CE0     		b	.L141
 1387              	.LVL158:
 1388              	.L124:
 1389              	.LBB142:
 1390              		.loc 2 1452 0
 1391 011c 1A46     		mov	r2, r3
 1392              	.LVL159:
 1393              	.L119:
 1394 011e 1369     		ldr	r3, [r2, #16]
 1395 0120 002B     		cmp	r3, #0
 1396 0122 FBD1     		bne	.L124
 1397              	.LBE142:
 1398              	.LBE145:
 1399              	.LBE149:
 1400              		.loc 2 1510 0
 1401 0124 0020     		movs	r0, #0
 1402 0126 1C37     		adds	r7, r7, #28
 1403              		.cfi_remember_state
 1404              		.cfi_def_cfa_offset 36
 1405              	.LBB150:
 1406              	.LBB146:
 1407              	.LBB143:
 1408              		.loc 2 1454 0
 1409 0128 1461     		str	r4, [r2, #16]
 1410              	.LBE143:
 1411              	.LBE146:
 1412              	.LBE150:
 1413              		.loc 2 1510 0
 1414 012a BD46     		mov	sp, r7
ARM GAS  C:\Users\jo\AppData\Local\Temp\ccMF9q4g.s 			page 26


 1415              		.cfi_def_cfa_register 13
 1416              		@ sp needed
 1417 012c BDE8F08F 		pop	{r4, r5, r6, r7, r8, r9, r10, fp, pc}
 1418              	.LVL160:
 1419              	.L140:
 1420              		.cfi_restore_state
 1421              	.LBB151:
 1422              	.LBB147:
 1423              		.loc 2 1478 0
 1424 0130 C9F80000 		str	r0, [r9]
 1425 0134 B2E7     		b	.L120
 1426              	.LVL161:
 1427              	.L141:
 1428              		.loc 2 1457 0
 1429 0136 C9F80040 		str	r4, [r9]
 1430 013a BBE7     		b	.L117
 1431              	.L143:
 1432              		.align	2
 1433              	.L142:
 1434 013c 30000000 		.word	.LC23
 1435              	.LBE147:
 1436              	.LBE151:
 1437              		.cfi_endproc
 1438              	.LFE298:
 1439              		.size	lcfgx_tree_visitor, .-lcfgx_tree_visitor
 1440              		.section	.text.lcfg_parser_new,"ax",%progbits
 1441              		.align	2
 1442              		.p2align 4,,15
 1443              		.global	lcfg_parser_new
 1444              		.thumb
 1445              		.thumb_func
 1446              		.type	lcfg_parser_new, %function
 1447              	lcfg_parser_new:
 1448              	.LFB281:
 1449              		.loc 2 992 0
 1450              		.cfi_startproc
 1451              		@ args = 0, pretend = 0, frame = 0
 1452              		@ frame_needed = 0, uses_anonymous_args = 0
 1453              	.LVL162:
 1454 0000 F8B5     		push	{r3, r4, r5, r6, r7, lr}
 1455              		.cfi_def_cfa_offset 24
 1456              		.cfi_offset 3, -24
 1457              		.cfi_offset 4, -20
 1458              		.cfi_offset 5, -16
 1459              		.cfi_offset 6, -12
 1460              		.cfi_offset 7, -8
 1461              		.cfi_offset 14, -4
 1462              		.loc 2 992 0
 1463 0002 0646     		mov	r6, r0
 1464              		.loc 2 993 0
 1465 0004 1820     		movs	r0, #24
 1466              	.LVL163:
 1467              		.loc 2 992 0
 1468 0006 0F46     		mov	r7, r1
 1469              		.loc 2 993 0
 1470 0008 FFF7FEFF 		bl	malloc
 1471              	.LVL164:
ARM GAS  C:\Users\jo\AppData\Local\Temp\ccMF9q4g.s 			page 27


 1472              		.loc 2 994 0
 1473 000c 0446     		mov	r4, r0
 1474 000e D8B1     		cbz	r0, .L148
 1475              		.loc 2 996 0
 1476 0010 0346     		mov	r3, r0
 1477 0012 0025     		movs	r5, #0
 1478 0014 43F8045B 		str	r5, [r3], #4
 1479 0018 0433     		adds	r3, r3, #4
 1480 001a 4560     		str	r5, [r0, #4]
 1481 001c 43F8045B 		str	r5, [r3], #4
 1482 0020 43F8045B 		str	r5, [r3], #4
 1483 0024 43F8045B 		str	r5, [r3], #4
 1484              		.loc 2 998 0
 1485 0028 3846     		mov	r0, r7
 1486              	.LVL165:
 1487              		.loc 2 996 0
 1488 002a 1D60     		str	r5, [r3]
 1489              		.loc 2 998 0
 1490 002c FFF7FEFF 		bl	strdup
 1491              	.LVL166:
 1492              		.loc 2 1002 0
 1493 0030 0823     		movs	r3, #8
 1494              		.loc 2 998 0
 1495 0032 6060     		str	r0, [r4, #4]
 1496              		.loc 2 1001 0
 1497 0034 2561     		str	r5, [r4, #16]
 1498              		.loc 2 999 0
 1499 0036 2660     		str	r6, [r4]
 1500              		.loc 2 1002 0
 1501 0038 6361     		str	r3, [r4, #20]
 1502              		.loc 2 1003 0
 1503 003a 4020     		movs	r0, #64
 1504 003c FFF7FEFF 		bl	malloc
 1505              	.LVL167:
 1506 0040 E060     		str	r0, [r4, #12]
 1507              		.loc 2 1004 0
 1508 0042 40B1     		cbz	r0, .L149
 1509              		.loc 2 1007 0
 1510 0044 2046     		mov	r0, r4
 1511 0046 F8BD     		pop	{r3, r4, r5, r6, r7, pc}
 1512              	.LVL168:
 1513              	.L148:
 1514              	.LBB154:
 1515              	.LBB155:
 1516              		.loc 2 994 0
 1517 0048 0648     		ldr	r0, .L150
 1518              	.LVL169:
 1519 004a 074A     		ldr	r2, .L150+4
 1520 004c 074B     		ldr	r3, .L150+8
 1521 004e 40F2E231 		movw	r1, #994
 1522 0052 FFF7FEFF 		bl	__assert_func
 1523              	.LVL170:
 1524              	.L149:
 1525              	.LBE155:
 1526              	.LBE154:
 1527              		.loc 2 1004 0 discriminator 1
 1528 0056 0348     		ldr	r0, .L150
ARM GAS  C:\Users\jo\AppData\Local\Temp\ccMF9q4g.s 			page 28


 1529 0058 034A     		ldr	r2, .L150+4
 1530 005a 054B     		ldr	r3, .L150+12
 1531 005c 4FF47B71 		mov	r1, #1004
 1532 0060 FFF7FEFF 		bl	__assert_func
 1533              	.LVL171:
 1534              	.L151:
 1535              		.align	2
 1536              	.L150:
 1537 0064 00000000 		.word	.LC18
 1538 0068 00000000 		.word	.LANCHOR4
 1539 006c 34000000 		.word	.LC24
 1540 0070 24000000 		.word	.LC22
 1541              		.cfi_endproc
 1542              	.LFE281:
 1543              		.size	lcfg_parser_new, .-lcfg_parser_new
 1544 0074 AFF30080 		.section	.text.lcfg_parser_get,"ax",%progbits
 1544      AFF30080 
 1544      AFF30080 
 1545              		.align	2
 1546              		.p2align 4,,15
 1547              		.global	lcfg_parser_get
 1548              		.thumb
 1549              		.thumb_func
 1550              		.type	lcfg_parser_get, %function
 1551              	lcfg_parser_get:
 1552              	.LFB285:
 1553              		.loc 2 1230 0
 1554              		.cfi_startproc
 1555              		@ args = 0, pretend = 0, frame = 0
 1556              		@ frame_needed = 0, uses_anonymous_args = 0
 1557              	.LVL172:
 1558 0000 2DE9F84F 		push	{r3, r4, r5, r6, r7, r8, r9, r10, fp, lr}
 1559              		.cfi_def_cfa_offset 40
 1560              		.cfi_offset 3, -40
 1561              		.cfi_offset 4, -36
 1562              		.cfi_offset 5, -32
 1563              		.cfi_offset 6, -28
 1564              		.cfi_offset 7, -24
 1565              		.cfi_offset 8, -20
 1566              		.cfi_offset 9, -16
 1567              		.cfi_offset 10, -12
 1568              		.cfi_offset 11, -8
 1569              		.cfi_offset 14, -4
 1570              		.loc 2 1233 0
 1571 0004 0769     		ldr	r7, [r0, #16]
 1572 0006 2FB3     		cbz	r7, .L156
 1573 0008 C668     		ldr	r6, [r0, #12]
 1574 000a 9946     		mov	r9, r3
 1575 000c 9246     		mov	r10, r2
 1576 000e 0D46     		mov	r5, r1
 1577 0010 8046     		mov	r8, r0
 1578 0012 0024     		movs	r4, #0
 1579 0014 B346     		mov	fp, r6
 1580 0016 03E0     		b	.L155
 1581              	.LVL173:
 1582              	.L154:
 1583              		.loc 2 1233 0 is_stmt 0 discriminator 2
ARM GAS  C:\Users\jo\AppData\Local\Temp\ccMF9q4g.s 			page 29


 1584 0018 BC42     		cmp	r4, r7
 1585 001a 0BF1080B 		add	fp, fp, #8
 1586 001e 19D0     		beq	.L156
 1587              	.LVL174:
 1588              	.L155:
 1589              		.loc 2 1235 0 is_stmt 1
 1590 0020 56F83400 		ldr	r0, [r6, r4, lsl #3]
 1591 0024 2946     		mov	r1, r5
 1592 0026 FFF7FEFF 		bl	strcmp
 1593              	.LVL175:
 1594 002a E300     		lsls	r3, r4, #3
 1595              		.loc 2 1233 0
 1596 002c 0134     		adds	r4, r4, #1
 1597              	.LVL176:
 1598              		.loc 2 1235 0
 1599 002e 0028     		cmp	r0, #0
 1600 0030 F2D1     		bne	.L154
 1601              		.loc 2 1237 0
 1602 0032 DBF80420 		ldr	r2, [fp, #4]
 1603              	.LVL177:
 1604              	.LBB156:
 1605              	.LBB157:
 1606              		.loc 2 466 0
 1607 0036 1468     		ldr	r4, [r2]
 1608              	.LVL178:
 1609 0038 5168     		ldr	r1, [r2, #4]
 1610 003a 6054     		strb	r0, [r4, r1]
 1611              		.loc 2 467 0
 1612 003c 1268     		ldr	r2, [r2]
 1613              	.LVL179:
 1614              	.LBE157:
 1615              	.LBE156:
 1616              		.loc 2 1237 0
 1617 003e CAF80020 		str	r2, [r10]
 1618              	.LVL180:
 1619              		.loc 2 1238 0
 1620 0042 D8F80C20 		ldr	r2, [r8, #12]
 1621              	.LBB158:
 1622              	.LBB159:
 1623              		.loc 2 472 0
 1624 0046 1344     		add	r3, r3, r2
 1625              	.LVL181:
 1626 0048 5B68     		ldr	r3, [r3, #4]
 1627 004a 5B68     		ldr	r3, [r3, #4]
 1628              	.LBE159:
 1629              	.LBE158:
 1630              		.loc 2 1238 0
 1631 004c C9F80030 		str	r3, [r9]
 1632              		.loc 2 1239 0
 1633 0050 BDE8F88F 		pop	{r3, r4, r5, r6, r7, r8, r9, r10, fp, pc}
 1634              	.LVL182:
 1635              	.L156:
 1636              		.loc 2 1243 0
 1637 0054 0120     		movs	r0, #1
 1638              		.loc 2 1244 0
 1639 0056 BDE8F88F 		pop	{r3, r4, r5, r6, r7, r8, r9, r10, fp, pc}
 1640              		.cfi_endproc
ARM GAS  C:\Users\jo\AppData\Local\Temp\ccMF9q4g.s 			page 30


 1641              	.LFE285:
 1642              		.size	lcfg_parser_get, .-lcfg_parser_get
 1643 005a 00BFAFF3 		.section	.text.lcfg_parser_delete,"ax",%progbits
 1643      0080
 1644              		.align	2
 1645              		.p2align 4,,15
 1646              		.global	lcfg_parser_delete
 1647              		.thumb
 1648              		.thumb_func
 1649              		.type	lcfg_parser_delete, %function
 1650              	lcfg_parser_delete:
 1651              	.LFB286:
 1652              		.loc 2 1248 0
 1653              		.cfi_startproc
 1654              		@ args = 0, pretend = 0, frame = 0
 1655              		@ frame_needed = 0, uses_anonymous_args = 0
 1656              	.LVL183:
 1657 0000 70B5     		push	{r4, r5, r6, lr}
 1658              		.cfi_def_cfa_offset 16
 1659              		.cfi_offset 4, -16
 1660              		.cfi_offset 5, -12
 1661              		.cfi_offset 6, -8
 1662              		.cfi_offset 14, -4
 1663              		.loc 2 1248 0
 1664 0002 0546     		mov	r5, r0
 1665              		.loc 2 1249 0
 1666 0004 8068     		ldr	r0, [r0, #8]
 1667              	.LVL184:
 1668 0006 08B1     		cbz	r0, .L160
 1669              		.loc 2 1251 0
 1670 0008 FFF7FEFF 		bl	lcfg_scanner_delete
 1671              	.LVL185:
 1672              	.L160:
 1673              		.loc 2 1256 0 discriminator 1
 1674 000c 2B69     		ldr	r3, [r5, #16]
 1675 000e 0024     		movs	r4, #0
 1676 0010 93B1     		cbz	r3, .L162
 1677              	.LVL186:
 1678              	.L161:
 1679              		.loc 2 1258 0 discriminator 3
 1680 0012 EB68     		ldr	r3, [r5, #12]
 1681 0014 53F83400 		ldr	r0, [r3, r4, lsl #3]
 1682 0018 FFF7FEFF 		bl	free
 1683              	.LVL187:
 1684              		.loc 2 1259 0 discriminator 3
 1685 001c EA68     		ldr	r2, [r5, #12]
 1686 001e E300     		lsls	r3, r4, #3
 1687 0020 1344     		add	r3, r3, r2
 1688              		.loc 2 1256 0 discriminator 3
 1689 0022 0134     		adds	r4, r4, #1
 1690              	.LVL188:
 1691              		.loc 2 1259 0 discriminator 3
 1692 0024 5E68     		ldr	r6, [r3, #4]
 1693              	.LVL189:
 1694              	.LBB160:
 1695              	.LBB161:
 1696              		.loc 2 477 0 discriminator 3
ARM GAS  C:\Users\jo\AppData\Local\Temp\ccMF9q4g.s 			page 31


 1697 0026 3068     		ldr	r0, [r6]
 1698 0028 FFF7FEFF 		bl	free
 1699              	.LVL190:
 1700              		.loc 2 478 0 discriminator 3
 1701 002c 3046     		mov	r0, r6
 1702 002e FFF7FEFF 		bl	free
 1703              	.LVL191:
 1704              	.LBE161:
 1705              	.LBE160:
 1706              		.loc 2 1256 0 discriminator 3
 1707 0032 2B69     		ldr	r3, [r5, #16]
 1708 0034 9C42     		cmp	r4, r3
 1709 0036 ECD3     		bcc	.L161
 1710              	.LVL192:
 1711              	.L162:
 1712              		.loc 2 1261 0
 1713 0038 E868     		ldr	r0, [r5, #12]
 1714 003a FFF7FEFF 		bl	free
 1715              	.LVL193:
 1716              		.loc 2 1262 0
 1717 003e 6868     		ldr	r0, [r5, #4]
 1718 0040 FFF7FEFF 		bl	free
 1719              	.LVL194:
 1720              		.loc 2 1263 0
 1721 0044 2846     		mov	r0, r5
 1722              		.loc 2 1264 0
 1723 0046 BDE87040 		pop	{r4, r5, r6, lr}
 1724              		.cfi_restore 14
 1725              		.cfi_restore 6
 1726              		.cfi_restore 5
 1727              		.cfi_restore 4
 1728              		.cfi_def_cfa_offset 0
 1729              	.LVL195:
 1730              		.loc 2 1263 0
 1731 004a FFF7FEBF 		b	free
 1732              	.LVL196:
 1733              		.cfi_endproc
 1734              	.LFE286:
 1735              		.size	lcfg_parser_delete, .-lcfg_parser_delete
 1736 004e 00BF     		.section	.text.lcfg_new,"ax",%progbits
 1737              		.align	2
 1738              		.p2align 4,,15
 1739              		.global	lcfg_new
 1740              		.thumb
 1741              		.thumb_func
 1742              		.type	lcfg_new, %function
 1743              	lcfg_new:
 1744              	.LFB287:
 1745              		.loc 2 1302 0
 1746              		.cfi_startproc
 1747              		@ args = 0, pretend = 0, frame = 0
 1748              		@ frame_needed = 0, uses_anonymous_args = 0
 1749              	.LVL197:
 1750 0000 38B5     		push	{r3, r4, r5, lr}
 1751              		.cfi_def_cfa_offset 16
 1752              		.cfi_offset 3, -16
 1753              		.cfi_offset 4, -12
ARM GAS  C:\Users\jo\AppData\Local\Temp\ccMF9q4g.s 			page 32


 1754              		.cfi_offset 5, -8
 1755              		.cfi_offset 14, -4
 1756              		.loc 2 1302 0
 1757 0002 0546     		mov	r5, r0
 1758              		.loc 2 1303 0
 1759 0004 4FF48270 		mov	r0, #260
 1760              	.LVL198:
 1761 0008 FFF7FEFF 		bl	malloc
 1762              	.LVL199:
 1763              		.loc 2 1304 0
 1764 000c 70B1     		cbz	r0, .L173
 1765 000e 0446     		mov	r4, r0
 1766              		.loc 2 1305 0
 1767 0010 0021     		movs	r1, #0
 1768 0012 4FF48272 		mov	r2, #260
 1769 0016 FFF7FEFF 		bl	memset
 1770              	.LVL200:
 1771              		.loc 2 1307 0
 1772 001a 2046     		mov	r0, r4
 1773 001c 2946     		mov	r1, r5
 1774 001e FFF7FEFF 		bl	lcfg_parser_new
 1775              	.LVL201:
 1776 0022 C4F80001 		str	r0, [r4, #256]
 1777              		.loc 2 1308 0
 1778 0026 40B1     		cbz	r0, .L174
 1779              		.loc 2 1311 0
 1780 0028 2046     		mov	r0, r4
 1781 002a 38BD     		pop	{r3, r4, r5, pc}
 1782              	.LVL202:
 1783              	.L173:
 1784              		.loc 2 1304 0 discriminator 1
 1785 002c 0648     		ldr	r0, .L175
 1786              	.LVL203:
 1787 002e 074A     		ldr	r2, .L175+4
 1788 0030 074B     		ldr	r3, .L175+8
 1789 0032 4FF4A361 		mov	r1, #1304
 1790 0036 FFF7FEFF 		bl	__assert_func
 1791              	.LVL204:
 1792              	.L174:
 1793              		.loc 2 1308 0 discriminator 1
 1794 003a 0348     		ldr	r0, .L175
 1795 003c 034A     		ldr	r2, .L175+4
 1796 003e 054B     		ldr	r3, .L175+12
 1797 0040 40F21C51 		movw	r1, #1308
 1798 0044 FFF7FEFF 		bl	__assert_func
 1799              	.LVL205:
 1800              	.L176:
 1801              		.align	2
 1802              	.L175:
 1803 0048 00000000 		.word	.LC18
 1804 004c 00000000 		.word	.LANCHOR5
 1805 0050 38000000 		.word	.LC25
 1806 0054 3C000000 		.word	.LC26
 1807              		.cfi_endproc
 1808              	.LFE287:
 1809              		.size	lcfg_new, .-lcfg_new
 1810 0058 AFF30080 		.section	.text.lcfg_delete,"ax",%progbits
ARM GAS  C:\Users\jo\AppData\Local\Temp\ccMF9q4g.s 			page 33


 1810      AFF30080 
 1811              		.align	2
 1812              		.p2align 4,,15
 1813              		.global	lcfg_delete
 1814              		.thumb
 1815              		.thumb_func
 1816              		.type	lcfg_delete, %function
 1817              	lcfg_delete:
 1818              	.LFB288:
 1819              		.loc 2 1314 0
 1820              		.cfi_startproc
 1821              		@ args = 0, pretend = 0, frame = 0
 1822              		@ frame_needed = 0, uses_anonymous_args = 0
 1823              	.LVL206:
 1824 0000 10B5     		push	{r4, lr}
 1825              		.cfi_def_cfa_offset 8
 1826              		.cfi_offset 4, -8
 1827              		.cfi_offset 14, -4
 1828              		.loc 2 1314 0
 1829 0002 0446     		mov	r4, r0
 1830              		.loc 2 1315 0
 1831 0004 D0F80001 		ldr	r0, [r0, #256]
 1832              	.LVL207:
 1833 0008 FFF7FEFF 		bl	lcfg_parser_delete
 1834              	.LVL208:
 1835              		.loc 2 1316 0
 1836 000c 2046     		mov	r0, r4
 1837              		.loc 2 1317 0
 1838 000e BDE81040 		pop	{r4, lr}
 1839              		.cfi_restore 14
 1840              		.cfi_restore 4
 1841              		.cfi_def_cfa_offset 0
 1842              	.LVL209:
 1843              		.loc 2 1316 0
 1844 0012 FFF7FEBF 		b	free
 1845              	.LVL210:
 1846              		.cfi_endproc
 1847              	.LFE288:
 1848              		.size	lcfg_delete, .-lcfg_delete
 1849 0016 00BFAFF3 		.section	.text.lcfg_error_get,"ax",%progbits
 1849      0080AFF3 
 1849      0080
 1850              		.align	2
 1851              		.p2align 4,,15
 1852              		.global	lcfg_error_get
 1853              		.thumb
 1854              		.thumb_func
 1855              		.type	lcfg_error_get, %function
 1856              	lcfg_error_get:
 1857              	.LFB289:
 1858              		.loc 2 1320 0
 1859              		.cfi_startproc
 1860              		@ args = 0, pretend = 0, frame = 0
 1861              		@ frame_needed = 0, uses_anonymous_args = 0
 1862              		@ link register save eliminated.
 1863              	.LVL211:
 1864              		.loc 2 1322 0
ARM GAS  C:\Users\jo\AppData\Local\Temp\ccMF9q4g.s 			page 34


 1865 0000 7047     		bx	lr
 1866              		.cfi_endproc
 1867              	.LFE289:
 1868              		.size	lcfg_error_get, .-lcfg_error_get
 1869 0002 00BFAFF3 		.section	.text.lcfg_value_get,"ax",%progbits
 1869      0080AFF3 
 1869      0080AFF3 
 1869      0080
 1870              		.align	2
 1871              		.p2align 4,,15
 1872              		.global	lcfg_value_get
 1873              		.thumb
 1874              		.thumb_func
 1875              		.type	lcfg_value_get, %function
 1876              	lcfg_value_get:
 1877              	.LFB292:
 1878              		.loc 2 1335 0
 1879              		.cfi_startproc
 1880              		@ args = 0, pretend = 0, frame = 0
 1881              		@ frame_needed = 0, uses_anonymous_args = 0
 1882              		@ link register save eliminated.
 1883              	.LVL212:
 1884              		.loc 2 1336 0
 1885 0000 D0F80001 		ldr	r0, [r0, #256]
 1886              	.LVL213:
 1887 0004 FFF7FEBF 		b	lcfg_parser_get
 1888              	.LVL214:
 1889              		.cfi_endproc
 1890              	.LFE292:
 1891              		.size	lcfg_value_get, .-lcfg_value_get
 1892 0008 AFF30080 		.section	.text.lcfg_error_set,"ax",%progbits
 1892      AFF30080 
 1893              		.align	2
 1894              		.p2align 4,,15
 1895              		.global	lcfg_error_set
 1896              		.thumb
 1897              		.thumb_func
 1898              		.type	lcfg_error_set, %function
 1899              	lcfg_error_set:
 1900              	.LFB293:
 1901              		.loc 2 1340 0
 1902              		.cfi_startproc
 1903              		@ args = 4, pretend = 12, frame = 8
 1904              		@ frame_needed = 0, uses_anonymous_args = 1
 1905              	.LVL215:
 1906 0000 0EB4     		push	{r1, r2, r3}
 1907              		.cfi_def_cfa_offset 12
 1908              		.cfi_offset 1, -12
 1909              		.cfi_offset 2, -8
 1910              		.cfi_offset 3, -4
 1911 0002 00B5     		push	{lr}
 1912              		.cfi_def_cfa_offset 16
 1913              		.cfi_offset 14, -16
 1914 0004 82B0     		sub	sp, sp, #8
 1915              		.cfi_def_cfa_offset 24
 1916              		.loc 2 1340 0
 1917 0006 03AB     		add	r3, sp, #12
ARM GAS  C:\Users\jo\AppData\Local\Temp\ccMF9q4g.s 			page 35


 1918              		.loc 2 1343 0
 1919 0008 FF21     		movs	r1, #255
 1920              		.loc 2 1340 0
 1921 000a 53F8042B 		ldr	r2, [r3], #4
 1922              		.loc 2 1342 0
 1923 000e 0193     		str	r3, [sp, #4]
 1924              		.loc 2 1343 0
 1925 0010 FFF7FEFF 		bl	vsnprintf
 1926              	.LVL216:
 1927              		.loc 2 1345 0
 1928 0014 02B0     		add	sp, sp, #8
 1929              		.cfi_def_cfa_offset 16
 1930              		@ sp needed
 1931 0016 5DF804EB 		ldr	lr, [sp], #4
 1932              		.cfi_restore 14
 1933              		.cfi_def_cfa_offset 12
 1934 001a 03B0     		add	sp, sp, #12
 1935              		.cfi_restore 3
 1936              		.cfi_restore 2
 1937              		.cfi_restore 1
 1938              		.cfi_def_cfa_offset 0
 1939 001c 7047     		bx	lr
 1940              		.cfi_endproc
 1941              	.LFE293:
 1942              		.size	lcfg_error_set, .-lcfg_error_set
 1943 001e 00BF     		.section	.text.lcfg_parser_accept,"ax",%progbits
 1944              		.align	2
 1945              		.p2align 4,,15
 1946              		.global	lcfg_parser_accept
 1947              		.thumb
 1948              		.thumb_func
 1949              		.type	lcfg_parser_accept, %function
 1950              	lcfg_parser_accept:
 1951              	.LFB284:
 1952              		.loc 2 1214 0
 1953              		.cfi_startproc
 1954              		@ args = 0, pretend = 0, frame = 0
 1955              		@ frame_needed = 0, uses_anonymous_args = 0
 1956              	.LVL217:
 1957 0000 2DE9F843 		push	{r3, r4, r5, r6, r7, r8, r9, lr}
 1958              		.cfi_def_cfa_offset 32
 1959              		.cfi_offset 3, -32
 1960              		.cfi_offset 4, -28
 1961              		.cfi_offset 5, -24
 1962              		.cfi_offset 6, -20
 1963              		.cfi_offset 7, -16
 1964              		.cfi_offset 8, -12
 1965              		.cfi_offset 9, -8
 1966              		.cfi_offset 14, -4
 1967              		.loc 2 1217 0
 1968 0004 0369     		ldr	r3, [r0, #16]
 1969 0006 23B3     		cbz	r3, .L187
 1970 0008 0024     		movs	r4, #0
 1971 000a 9046     		mov	r8, r2
 1972 000c 0F46     		mov	r7, r1
 1973 000e 0646     		mov	r6, r0
 1974              	.LBB172:
ARM GAS  C:\Users\jo\AppData\Local\Temp\ccMF9q4g.s 			page 36


 1975              	.LBB173:
 1976              		.loc 2 466 0
 1977 0010 A146     		mov	r9, r4
 1978 0012 02E0     		b	.L184
 1979              	.LVL218:
 1980              	.L186:
 1981              	.LBE173:
 1982              	.LBE172:
 1983              		.loc 2 1217 0 discriminator 2
 1984 0014 3369     		ldr	r3, [r6, #16]
 1985 0016 9C42     		cmp	r4, r3
 1986 0018 1BD2     		bcs	.L187
 1987              	.LVL219:
 1988              	.L184:
 1989              		.loc 2 1219 0
 1990 001a F268     		ldr	r2, [r6, #12]
 1991 001c E300     		lsls	r3, r4, #3
 1992 001e D118     		adds	r1, r2, r3
 1993 0020 52F83400 		ldr	r0, [r2, r4, lsl #3]
 1994 0024 4D68     		ldr	r5, [r1, #4]
 1995              	.LVL220:
 1996              	.LBB175:
 1997              	.LBB174:
 1998              		.loc 2 466 0
 1999 0026 95E80600 		ldmia	r5, {r1, r2}
 2000 002a 01F80290 		strb	r9, [r1, r2]
 2001              	.LVL221:
 2002              	.LBE174:
 2003              	.LBE175:
 2004              		.loc 2 1219 0
 2005 002e F268     		ldr	r2, [r6, #12]
 2006 0030 2968     		ldr	r1, [r5]
 2007              	.LBB176:
 2008              	.LBB177:
 2009              		.loc 2 472 0
 2010 0032 1344     		add	r3, r3, r2
 2011              	.LVL222:
 2012              	.LBE177:
 2013              	.LBE176:
 2014              		.loc 2 1217 0
 2015 0034 0134     		adds	r4, r4, #1
 2016              	.LVL223:
 2017              	.LBB179:
 2018              	.LBB178:
 2019              		.loc 2 472 0
 2020 0036 5A68     		ldr	r2, [r3, #4]
 2021              	.LBE178:
 2022              	.LBE179:
 2023              		.loc 2 1219 0
 2024 0038 4346     		mov	r3, r8
 2025 003a 5268     		ldr	r2, [r2, #4]
 2026 003c B847     		blx	r7
 2027              	.LVL224:
 2028 003e 0028     		cmp	r0, #0
 2029 0040 E8D0     		beq	.L186
 2030              	.LVL225:
 2031              	.LBB180:
ARM GAS  C:\Users\jo\AppData\Local\Temp\ccMF9q4g.s 			page 37


 2032              	.LBB181:
 2033              		.loc 2 1221 0
 2034 0042 3068     		ldr	r0, [r6]
 2035 0044 0449     		ldr	r1, .L191
 2036 0046 054A     		ldr	r2, .L191+4
 2037 0048 FFF7FEFF 		bl	lcfg_error_set
 2038              	.LVL226:
 2039 004c 0120     		movs	r0, #1
 2040 004e BDE8F883 		pop	{r3, r4, r5, r6, r7, r8, r9, pc}
 2041              	.LVL227:
 2042              	.L187:
 2043              	.LBE181:
 2044              	.LBE180:
 2045              		.loc 2 1226 0
 2046 0052 0020     		movs	r0, #0
 2047 0054 BDE8F883 		pop	{r3, r4, r5, r6, r7, r8, r9, pc}
 2048              	.L192:
 2049              		.align	2
 2050              	.L191:
 2051 0058 48000000 		.word	.LC27
 2052 005c 4C000000 		.word	.LC28
 2053              		.cfi_endproc
 2054              	.LFE284:
 2055              		.size	lcfg_parser_accept, .-lcfg_parser_accept
 2056              		.section	.text.lcfg_accept,"ax",%progbits
 2057              		.align	2
 2058              		.p2align 4,,15
 2059              		.global	lcfg_accept
 2060              		.thumb
 2061              		.thumb_func
 2062              		.type	lcfg_accept, %function
 2063              	lcfg_accept:
 2064              	.LFB291:
 2065              		.loc 2 1330 0
 2066              		.cfi_startproc
 2067              		@ args = 0, pretend = 0, frame = 0
 2068              		@ frame_needed = 0, uses_anonymous_args = 0
 2069              		@ link register save eliminated.
 2070              	.LVL228:
 2071              		.loc 2 1331 0
 2072 0000 D0F80001 		ldr	r0, [r0, #256]
 2073              	.LVL229:
 2074 0004 FFF7FEBF 		b	lcfg_parser_accept
 2075              	.LVL230:
 2076              		.cfi_endproc
 2077              	.LFE291:
 2078              		.size	lcfg_accept, .-lcfg_accept
 2079 0008 AFF30080 		.section	.text.lcfg_scanner_token_read,"ax",%progbits
 2079      AFF30080 
 2080              		.align	2
 2081              		.p2align 4,,15
 2082              		.thumb
 2083              		.thumb_func
 2084              		.type	lcfg_scanner_token_read, %function
 2085              	lcfg_scanner_token_read:
 2086              	.LFB273:
 2087              		.loc 2 642 0
ARM GAS  C:\Users\jo\AppData\Local\Temp\ccMF9q4g.s 			page 38


 2088              		.cfi_startproc
 2089              		@ args = 0, pretend = 0, frame = 48
 2090              		@ frame_needed = 0, uses_anonymous_args = 0
 2091              	.LVL231:
 2092 0000 2DE9F047 		push	{r4, r5, r6, r7, r8, r9, r10, lr}
 2093              		.cfi_def_cfa_offset 32
 2094              		.cfi_offset 4, -32
 2095              		.cfi_offset 5, -28
 2096              		.cfi_offset 6, -24
 2097              		.cfi_offset 7, -20
 2098              		.cfi_offset 8, -16
 2099              		.cfi_offset 9, -12
 2100              		.cfi_offset 10, -8
 2101              		.cfi_offset 14, -4
 2102              		.loc 2 645 0
 2103 0004 A14E     		ldr	r6, .L357
 2104              	.LBB209:
 2105              	.LBB210:
 2106              	.LBB211:
 2107              	.LBB212:
 2108              		.loc 2 607 0
 2109 0006 DFF8A882 		ldr	r8, .L357+36
 2110              	.LBE212:
 2111              	.LBE211:
 2112              	.LBE210:
 2113              	.LBE209:
 2114              		.loc 2 642 0
 2115 000a 0446     		mov	r4, r0
 2116              		.loc 2 645 0
 2117 000c 0FCE     		ldmia	r6!, {r0, r1, r2, r3}
 2118              	.LVL232:
 2119              		.loc 2 642 0
 2120 000e 8EB0     		sub	sp, sp, #56
 2121              		.cfi_def_cfa_offset 88
 2122              		.loc 2 645 0
 2123 0010 03AD     		add	r5, sp, #12
 2124 0012 0FC5     		stmia	r5!, {r0, r1, r2, r3}
 2125 0014 0FCE     		ldmia	r6!, {r0, r1, r2, r3}
 2126 0016 0FC5     		stmia	r5!, {r0, r1, r2, r3}
 2127 0018 96E80700 		ldmia	r6, {r0, r1, r2}
 2128 001c 85E80700 		stmia	r5, {r0, r1, r2}
 2129              	.LVL233:
 2130              		.loc 2 649 0
 2131 0020 0023     		movs	r3, #0
 2132              		.loc 2 646 0
 2133 0022 1E46     		mov	r6, r3
 2134              		.loc 2 649 0
 2135 0024 84F81831 		strb	r3, [r4, #280]
 2136              		.loc 2 644 0
 2137 0028 1F46     		mov	r7, r3
 2138              	.LVL234:
 2139              	.L195:
 2140              	.LBB226:
 2141              	.LBB223:
 2142              		.loc 2 592 0
 2143 002a D4F81051 		ldr	r5, [r4, #272]
 2144 002e 002D     		cmp	r5, #0
ARM GAS  C:\Users\jo\AppData\Local\Temp\ccMF9q4g.s 			page 39


 2145 0030 40F03482 		bne	.L273
 2146              	.LVL235:
 2147              	.LBB220:
 2148              	.LBB217:
 2149              		.loc 2 598 0
 2150 0034 D4F80C31 		ldr	r3, [r4, #268]
 2151 0038 1946     		mov	r1, r3
 2152 003a 002B     		cmp	r3, #0
 2153 003c 00F0B681 		beq	.L275
 2154 0040 D4F80821 		ldr	r2, [r4, #264]
 2155 0044 FF2A     		cmp	r2, #255
 2156 0046 00F0B181 		beq	.L275
 2157              		.loc 2 604 0
 2158 004a FE2B     		cmp	r3, #254
 2159 004c 03DC     		bgt	.L294
 2160 004e 9342     		cmp	r3, r2
 2161 0050 00F0D981 		beq	.L296
 2162 0054 1946     		mov	r1, r3
 2163              	.L294:
 2164              	.LVL236:
 2165              	.LBE217:
 2166              	.LBE220:
 2167              	.LBE223:
 2168              	.LBE226:
 2169              	.LBB227:
 2170              	.LBB228:
 2171              	.LBB229:
 2172              	.LBB230:
 2173              	.LBB231:
 2174              	.LBB232:
 2175              		.loc 2 598 0
 2176 0056 002B     		cmp	r3, #0
 2177 0058 40F0F781 		bne	.L297
 2178              	.L196:
 2179              	.LVL237:
 2180              	.LBB233:
 2181              	.LBB234:
 2182              		.loc 2 573 0
 2183 005c 04F10809 		add	r9, r4, #8
 2184 0060 4946     		mov	r1, r9
 2185 0062 6068     		ldr	r0, [r4, #4]
 2186 0064 FF22     		movs	r2, #255
 2187 0066 FFF7FEFF 		bl	read
 2188              	.LVL238:
 2189 006a 0028     		cmp	r0, #0
 2190 006c 0346     		mov	r3, r0
 2191 006e C4F80C01 		str	r0, [r4, #268]
 2192 0072 C0F2B583 		blt	.L337
 2193              		.loc 2 580 0
 2194 0076 0BBF     		itete	eq
 2195 0078 0122     		moveq	r2, #1
 2196              		.loc 2 584 0
 2197 007a 0022     		movne	r2, #0
 2198              		.loc 2 580 0
 2199 007c C4F81021 		streq	r2, [r4, #272]
 2200              		.loc 2 584 0
 2201 0080 C4F80821 		strne	r2, [r4, #264]
ARM GAS  C:\Users\jo\AppData\Local\Temp\ccMF9q4g.s 			page 40


 2202              	.L199:
 2203              	.LBE234:
 2204              	.LBE233:
 2205              		.loc 2 601 0
 2206 0084 4A46     		mov	r2, r9
 2207 0086 8249     		ldr	r1, .L357+4
 2208 0088 8248     		ldr	r0, .L357+8
 2209 008a FFF7FEFF 		bl	chprintf.constprop.11
 2210              	.LVL239:
 2211              		.loc 2 602 0
 2212 008e D4F81021 		ldr	r2, [r4, #272]
 2213 0092 814B     		ldr	r3, .L357+12
 2214 0094 8149     		ldr	r1, .L357+16
 2215 0096 7F48     		ldr	r0, .L357+8
 2216 0098 002A     		cmp	r2, #0
 2217 009a 14BF     		ite	ne
 2218 009c 4246     		movne	r2, r8
 2219 009e 1A46     		moveq	r2, r3
 2220 00a0 FFF7FEFF 		bl	chprintf.constprop.11
 2221              	.LVL240:
 2222              		.loc 2 604 0
 2223 00a4 D4F80C11 		ldr	r1, [r4, #268]
 2224 00a8 FE29     		cmp	r1, #254
 2225 00aa 04DC     		bgt	.L203
 2226 00ac D4F80821 		ldr	r2, [r4, #264]
 2227 00b0 9142     		cmp	r1, r2
 2228 00b2 00F0D581 		beq	.L338
 2229              	.LVL241:
 2230              	.L203:
 2231              	.LBE232:
 2232              	.LBE231:
 2233              	.LBE230:
 2234              		.loc 2 629 0
 2235 00b6 D4F81031 		ldr	r3, [r4, #272]
 2236 00ba 002B     		cmp	r3, #0
 2237 00bc 40F0F481 		bne	.L339
 2238 00c0 D4F80821 		ldr	r2, [r4, #264]
 2239              	.L290:
 2240              		.loc 2 635 0
 2241 00c4 2244     		add	r2, r2, r4
 2242 00c6 167A     		ldrb	r6, [r2, #8]	@ zero_extendqisi2
 2243              	.LVL242:
 2244              	.L206:
 2245              	.LBE229:
 2246              	.LBE228:
 2247              		.loc 2 656 0
 2248 00c8 7B1E     		subs	r3, r7, #1
 2249 00ca 082B     		cmp	r3, #8
 2250 00cc 00F2F280 		bhi	.L207
 2251 00d0 DFE813F0 		tbh	[pc, r3, lsl #1]
 2252              	.L209:
 2253 00d4 B700     		.2byte	(.L208-.L209)/2
 2254 00d6 AC00     		.2byte	(.L210-.L209)/2
 2255 00d8 A100     		.2byte	(.L211-.L209)/2
 2256 00da 9200     		.2byte	(.L212-.L209)/2
 2257 00dc 7900     		.2byte	(.L213-.L209)/2
 2258 00de 6600     		.2byte	(.L214-.L209)/2
ARM GAS  C:\Users\jo\AppData\Local\Temp\ccMF9q4g.s 			page 41


 2259 00e0 4500     		.2byte	(.L215-.L209)/2
 2260 00e2 0900     		.2byte	(.L216-.L209)/2
 2261 00e4 F001     		.2byte	(.L217-.L209)/2
 2262              		.p2align 1
 2263              	.L216:
 2264              		.loc 2 800 0
 2265 00e6 6E4F     		ldr	r7, .L357+20
 2266              	.LVL243:
 2267 00e8 751C     		adds	r5, r6, #1
 2268 00ea 3B68     		ldr	r3, [r7]
 2269 00ec 5A5D     		ldrb	r2, [r3, r5]	@ zero_extendqisi2
 2270 00ee 12F0440F 		tst	r2, #68
 2271 00f2 2B44     		add	r3, r3, r5
 2272 00f4 00F09282 		beq	.L340
 2273              	.L256:
 2274              		.loc 2 807 0
 2275 00f8 0925     		movs	r5, #9
 2276              		.loc 2 805 0
 2277 00fa 8DF80860 		strb	r6, [sp, #8]
 2278              	.LVL244:
 2279              		.loc 2 806 0
 2280 00fe 2F46     		mov	r7, r5
 2281              		.loc 2 653 0
 2282 0100 4FF00109 		mov	r9, #1
 2283              	.LVL245:
 2284              	.L229:
 2285              		.loc 2 823 0
 2286 0104 B4F91611 		ldrsh	r1, [r4, #278]
 2287 0108 1A78     		ldrb	r2, [r3]	@ zero_extendqisi2
 2288 010a B4F91431 		ldrsh	r3, [r4, #276]
 2289 010e 0091     		str	r1, [sp]
 2290 0110 0EA9     		add	r1, sp, #56
 2291 0112 01EB8505 		add	r5, r1, r5, lsl #2
 2292 0116 12F0970F 		tst	r2, #151
 2293 011a 55F82C2C 		ldr	r2, [r5, #-44]
 2294 011e 0192     		str	r2, [sp, #4]
 2295 0120 5C48     		ldr	r0, .L357+8
 2296 0122 6049     		ldr	r1, .L357+24
 2297 0124 14BF     		ite	ne
 2298 0126 3246     		movne	r2, r6
 2299 0128 2E22     		moveq	r2, #46
 2300 012a FFF7FEFF 		bl	chprintf.constprop.11
 2301              	.LVL246:
 2302              		.loc 2 826 0
 2303 012e B4F81421 		ldrh	r2, [r4, #276]
 2304              		.loc 2 827 0
 2305 0132 B4F81631 		ldrh	r3, [r4, #278]
 2306              		.loc 2 826 0
 2307 0136 A4F82021 		strh	r2, [r4, #288]	@ movhi
 2308              		.loc 2 827 0
 2309 013a A4F82231 		strh	r3, [r4, #290]	@ movhi
 2310              		.loc 2 829 0
 2311 013e B9F1000F 		cmp	r9, #0
 2312 0142 40F09681 		bne	.L341
 2313              	.LVL247:
 2314              	.L259:
 2315              		.loc 2 843 0
ARM GAS  C:\Users\jo\AppData\Local\Temp\ccMF9q4g.s 			page 42


 2316 0146 94F81831 		ldrb	r3, [r4, #280]	@ zero_extendqisi2
 2317 014a 002B     		cmp	r3, #0
 2318 014c 40F0A681 		bne	.L273
 2319              	.L353:
 2320              		.loc 2 843 0 is_stmt 0 discriminator 1
 2321 0150 0A2F     		cmp	r7, #10
 2322 0152 7FF46AAF 		bne	.L195
 2323              	.LVL248:
 2324              	.L333:
 2325              	.LBE227:
 2326              		.loc 2 856 0 is_stmt 1
 2327 0156 0120     		movs	r0, #1
 2328              		.loc 2 860 0
 2329 0158 0EB0     		add	sp, sp, #56
 2330              		.cfi_remember_state
 2331              		.cfi_def_cfa_offset 32
 2332              		@ sp needed
 2333 015a BDE8F087 		pop	{r4, r5, r6, r7, r8, r9, r10, pc}
 2334              	.LVL249:
 2335              	.L215:
 2336              		.cfi_restore_state
 2337              	.LBB285:
 2338              		.loc 2 771 0
 2339 015e 6E2E     		cmp	r6, #110
 2340 0160 00F07483 		beq	.L248
 2341 0164 40F2EB81 		bls	.L342
 2342 0168 742E     		cmp	r6, #116
 2343 016a 00F04883 		beq	.L253
 2344 016e 782E     		cmp	r6, #120
 2345 0170 00F09482 		beq	.L254
 2346 0174 722E     		cmp	r6, #114
 2347 0176 00F04F83 		beq	.L343
 2348              	.L247:
 2349              		.loc 2 795 0
 2350 017a B4F91621 		ldrsh	r2, [r4, #278]
 2351 017e B4F91431 		ldrsh	r3, [r4, #276]
 2352 0182 2068     		ldr	r0, [r4]
 2353 0184 4849     		ldr	r1, .L357+28
 2354 0186 0092     		str	r2, [sp]
 2355 0188 3246     		mov	r2, r6
 2356 018a FFF7FEFF 		bl	lcfg_error_set
 2357              	.LVL250:
 2358 018e 444B     		ldr	r3, .L357+20
 2359 0190 1A68     		ldr	r2, [r3]
 2360 0192 0A25     		movs	r5, #10
 2361 0194 731C     		adds	r3, r6, #1
 2362 0196 1344     		add	r3, r3, r2
 2363              		.loc 2 796 0
 2364 0198 2F46     		mov	r7, r5
 2365              		.loc 2 653 0
 2366 019a 4FF00109 		mov	r9, #1
 2367 019e B1E7     		b	.L229
 2368              	.LVL251:
 2369              	.L214:
 2370              		.loc 2 755 0
 2371 01a0 222E     		cmp	r6, #34
 2372 01a2 00F04882 		beq	.L344
ARM GAS  C:\Users\jo\AppData\Local\Temp\ccMF9q4g.s 			page 43


 2373              		.loc 2 760 0
 2374 01a6 5C2E     		cmp	r6, #92
 2375 01a8 00F0DF81 		beq	.L345
 2376              		.loc 2 766 0
 2377 01ac D4F81C01 		ldr	r0, [r4, #284]
 2378 01b0 3146     		mov	r1, r6
 2379 01b2 FFF7FEFF 		bl	lcfg_string_cat_char
 2380              	.LVL252:
 2381 01b6 3A4B     		ldr	r3, .L357+20
 2382 01b8 1A68     		ldr	r2, [r3]
 2383 01ba 731C     		adds	r3, r6, #1
 2384 01bc 1344     		add	r3, r3, r2
 2385 01be 0625     		movs	r5, #6
 2386              		.loc 2 653 0
 2387 01c0 4FF00109 		mov	r9, #1
 2388 01c4 9EE7     		b	.L229
 2389              	.L213:
 2390              		.loc 2 743 0
 2391 01c6 DFF8D890 		ldr	r9, .L357+20
 2392 01ca 06F1010A 		add	r10, r6, #1
 2393 01ce D9F80030 		ldr	r3, [r9]
 2394 01d2 13F80A20 		ldrb	r2, [r3, r10]	@ zero_extendqisi2
 2395 01d6 12F00702 		ands	r2, r2, #7
 2396 01da 5344     		add	r3, r3, r10
 2397 01dc 40F02481 		bne	.L243
 2398              		.loc 2 743 0 is_stmt 0 discriminator 1
 2399 01e0 2D2E     		cmp	r6, #45
 2400 01e2 00F02181 		beq	.L243
 2401              		.loc 2 743 0 discriminator 2
 2402 01e6 5F2E     		cmp	r6, #95
 2403 01e8 00F01E81 		beq	.L243
 2404              		.loc 2 750 0 is_stmt 1
 2405 01ec 1746     		mov	r7, r2
 2406              	.LVL253:
 2407              		.loc 2 749 0
 2408 01ee 0122     		movs	r2, #1
 2409              		.loc 2 751 0
 2410 01f0 B946     		mov	r9, r7
 2411              		.loc 2 749 0
 2412 01f2 84F81821 		strb	r2, [r4, #280]
 2413              	.LVL254:
 2414 01f6 85E7     		b	.L229
 2415              	.LVL255:
 2416              	.L212:
 2417              		.loc 2 733 0
 2418 01f8 2F2E     		cmp	r6, #47
 2419 01fa 294B     		ldr	r3, .L357+20
 2420 01fc 00F03A82 		beq	.L346
 2421              		.loc 2 737 0
 2422 0200 2A2E     		cmp	r6, #42
 2423 0202 00F04582 		beq	.L242
 2424 0206 1A68     		ldr	r2, [r3]
 2425 0208 0325     		movs	r5, #3
 2426 020a 731C     		adds	r3, r6, #1
 2427 020c 1344     		add	r3, r3, r2
 2428              		.loc 2 739 0
 2429 020e 2F46     		mov	r7, r5
ARM GAS  C:\Users\jo\AppData\Local\Temp\ccMF9q4g.s 			page 44


 2430              	.LVL256:
 2431              		.loc 2 653 0
 2432 0210 4FF00109 		mov	r9, #1
 2433 0214 76E7     		b	.L229
 2434              	.LVL257:
 2435              	.L211:
 2436              		.loc 2 727 0
 2437 0216 2A2E     		cmp	r6, #42
 2438 0218 214B     		ldr	r3, .L357+20
 2439 021a 00F02482 		beq	.L347
 2440 021e 1A68     		ldr	r2, [r3]
 2441 0220 731C     		adds	r3, r6, #1
 2442 0222 1344     		add	r3, r3, r2
 2443 0224 0325     		movs	r5, #3
 2444              		.loc 2 653 0
 2445 0226 4FF00109 		mov	r9, #1
 2446 022a 6BE7     		b	.L229
 2447              	.L210:
 2448              		.loc 2 721 0
 2449 022c 0A2E     		cmp	r6, #10
 2450 022e 1C4B     		ldr	r3, .L357+20
 2451 0230 00F01382 		beq	.L348
 2452 0234 1A68     		ldr	r2, [r3]
 2453 0236 731C     		adds	r3, r6, #1
 2454 0238 1344     		add	r3, r3, r2
 2455 023a 0225     		movs	r5, #2
 2456              		.loc 2 653 0
 2457 023c 4FF00109 		mov	r9, #1
 2458 0240 60E7     		b	.L229
 2459              	.L208:
 2460              		.loc 2 706 0
 2461 0242 2F2E     		cmp	r6, #47
 2462 0244 00F00182 		beq	.L349
 2463              		.loc 2 710 0
 2464 0248 2A2E     		cmp	r6, #42
 2465 024a 00F01982 		beq	.L350
 2466              		.loc 2 716 0
 2467 024e DFF85090 		ldr	r9, .L357+20
 2468 0252 B4F91421 		ldrsh	r2, [r4, #276]
 2469 0256 B4F91651 		ldrsh	r5, [r4, #278]
 2470 025a 1449     		ldr	r1, .L357+32
 2471 025c 2068     		ldr	r0, [r4]
 2472 025e 731C     		adds	r3, r6, #1
 2473 0260 1F46     		mov	r7, r3
 2474              	.LVL258:
 2475 0262 D9F80030 		ldr	r3, [r9]
 2476 0266 DB5D     		ldrb	r3, [r3, r7]	@ zero_extendqisi2
 2477 0268 0092     		str	r2, [sp]
 2478 026a 13F0970F 		tst	r3, #151
 2479 026e 14BF     		ite	ne
 2480 0270 3246     		movne	r2, r6
 2481 0272 2E22     		moveq	r2, #46
 2482 0274 0195     		str	r5, [sp, #4]
 2483              	.L332:
 2484 0276 3346     		mov	r3, r6
 2485 0278 FFF7FEFF 		bl	lcfg_error_set
 2486              	.LVL259:
ARM GAS  C:\Users\jo\AppData\Local\Temp\ccMF9q4g.s 			page 45


 2487 027c D9F80030 		ldr	r3, [r9]
 2488 0280 0A25     		movs	r5, #10
 2489 0282 3B44     		add	r3, r3, r7
 2490              		.loc 2 653 0
 2491 0284 4FF00109 		mov	r9, #1
 2492              		.loc 2 717 0
 2493 0288 2F46     		mov	r7, r5
 2494 028a 3BE7     		b	.L229
 2495              	.L358:
 2496              		.align	2
 2497              	.L357:
 2498 028c 00000000 		.word	.LANCHOR6
 2499 0290 A0000000 		.word	.LC33
 2500 0294 00000000 		.word	itm_port
 2501 0298 8C000000 		.word	.LC30
 2502 029c D4000000 		.word	.LC34
 2503 02a0 00000000 		.word	__ctype_ptr__
 2504 02a4 C4010000 		.word	.LC39
 2505 02a8 50010000 		.word	.LC37
 2506 02ac 08010000 		.word	.LC36
 2507 02b0 84000000 		.word	.LC29
 2508              	.LVL260:
 2509              	.L207:
 2510              		.loc 2 659 0
 2511 02b4 A6F10903 		sub	r3, r6, #9
 2512 02b8 742B     		cmp	r3, #116
 2513 02ba 00F27882 		bhi	.L218
 2514 02be DFE813F0 		tbh	[pc, r3, lsl #1]
 2515              	.L220:
 2516 02c2 0202     		.2byte	(.L219-.L220)/2
 2517 02c4 0202     		.2byte	(.L219-.L220)/2
 2518 02c6 7602     		.2byte	(.L218-.L220)/2
 2519 02c8 7602     		.2byte	(.L218-.L220)/2
 2520 02ca 0202     		.2byte	(.L219-.L220)/2
 2521 02cc 7602     		.2byte	(.L218-.L220)/2
 2522 02ce 7602     		.2byte	(.L218-.L220)/2
 2523 02d0 7602     		.2byte	(.L218-.L220)/2
 2524 02d2 7602     		.2byte	(.L218-.L220)/2
 2525 02d4 7602     		.2byte	(.L218-.L220)/2
 2526 02d6 7602     		.2byte	(.L218-.L220)/2
 2527 02d8 7602     		.2byte	(.L218-.L220)/2
 2528 02da 7602     		.2byte	(.L218-.L220)/2
 2529 02dc 7602     		.2byte	(.L218-.L220)/2
 2530 02de 7602     		.2byte	(.L218-.L220)/2
 2531 02e0 7602     		.2byte	(.L218-.L220)/2
 2532 02e2 7602     		.2byte	(.L218-.L220)/2
 2533 02e4 7602     		.2byte	(.L218-.L220)/2
 2534 02e6 7602     		.2byte	(.L218-.L220)/2
 2535 02e8 7602     		.2byte	(.L218-.L220)/2
 2536 02ea 7602     		.2byte	(.L218-.L220)/2
 2537 02ec 7602     		.2byte	(.L218-.L220)/2
 2538 02ee 7602     		.2byte	(.L218-.L220)/2
 2539 02f0 0202     		.2byte	(.L219-.L220)/2
 2540 02f2 7602     		.2byte	(.L218-.L220)/2
 2541 02f4 2302     		.2byte	(.L221-.L220)/2
 2542 02f6 7602     		.2byte	(.L218-.L220)/2
 2543 02f8 7602     		.2byte	(.L218-.L220)/2
ARM GAS  C:\Users\jo\AppData\Local\Temp\ccMF9q4g.s 			page 46


 2544 02fa 7602     		.2byte	(.L218-.L220)/2
 2545 02fc 7602     		.2byte	(.L218-.L220)/2
 2546 02fe 7602     		.2byte	(.L218-.L220)/2
 2547 0300 7602     		.2byte	(.L218-.L220)/2
 2548 0302 7602     		.2byte	(.L218-.L220)/2
 2549 0304 7602     		.2byte	(.L218-.L220)/2
 2550 0306 7602     		.2byte	(.L218-.L220)/2
 2551 0308 3302     		.2byte	(.L222-.L220)/2
 2552 030a 7602     		.2byte	(.L218-.L220)/2
 2553 030c 7602     		.2byte	(.L218-.L220)/2
 2554 030e 3D02     		.2byte	(.L223-.L220)/2
 2555 0310 7602     		.2byte	(.L218-.L220)/2
 2556 0312 7602     		.2byte	(.L218-.L220)/2
 2557 0314 7602     		.2byte	(.L218-.L220)/2
 2558 0316 7602     		.2byte	(.L218-.L220)/2
 2559 0318 7602     		.2byte	(.L218-.L220)/2
 2560 031a 7602     		.2byte	(.L218-.L220)/2
 2561 031c 7602     		.2byte	(.L218-.L220)/2
 2562 031e 7602     		.2byte	(.L218-.L220)/2
 2563 0320 7602     		.2byte	(.L218-.L220)/2
 2564 0322 7602     		.2byte	(.L218-.L220)/2
 2565 0324 7602     		.2byte	(.L218-.L220)/2
 2566 0326 7602     		.2byte	(.L218-.L220)/2
 2567 0328 7602     		.2byte	(.L218-.L220)/2
 2568 032a 4402     		.2byte	(.L224-.L220)/2
 2569 032c 7602     		.2byte	(.L218-.L220)/2
 2570 032e 7602     		.2byte	(.L218-.L220)/2
 2571 0330 7602     		.2byte	(.L218-.L220)/2
 2572 0332 7602     		.2byte	(.L218-.L220)/2
 2573 0334 7602     		.2byte	(.L218-.L220)/2
 2574 0336 7602     		.2byte	(.L218-.L220)/2
 2575 0338 7602     		.2byte	(.L218-.L220)/2
 2576 033a 7602     		.2byte	(.L218-.L220)/2
 2577 033c 7602     		.2byte	(.L218-.L220)/2
 2578 033e 7602     		.2byte	(.L218-.L220)/2
 2579 0340 7602     		.2byte	(.L218-.L220)/2
 2580 0342 7602     		.2byte	(.L218-.L220)/2
 2581 0344 7602     		.2byte	(.L218-.L220)/2
 2582 0346 7602     		.2byte	(.L218-.L220)/2
 2583 0348 7602     		.2byte	(.L218-.L220)/2
 2584 034a 7602     		.2byte	(.L218-.L220)/2
 2585 034c 7602     		.2byte	(.L218-.L220)/2
 2586 034e 7602     		.2byte	(.L218-.L220)/2
 2587 0350 7602     		.2byte	(.L218-.L220)/2
 2588 0352 7602     		.2byte	(.L218-.L220)/2
 2589 0354 7602     		.2byte	(.L218-.L220)/2
 2590 0356 7602     		.2byte	(.L218-.L220)/2
 2591 0358 7602     		.2byte	(.L218-.L220)/2
 2592 035a 7602     		.2byte	(.L218-.L220)/2
 2593 035c 7602     		.2byte	(.L218-.L220)/2
 2594 035e 7602     		.2byte	(.L218-.L220)/2
 2595 0360 7602     		.2byte	(.L218-.L220)/2
 2596 0362 7602     		.2byte	(.L218-.L220)/2
 2597 0364 7602     		.2byte	(.L218-.L220)/2
 2598 0366 4E02     		.2byte	(.L225-.L220)/2
 2599 0368 7602     		.2byte	(.L218-.L220)/2
 2600 036a 5802     		.2byte	(.L226-.L220)/2
ARM GAS  C:\Users\jo\AppData\Local\Temp\ccMF9q4g.s 			page 47


 2601 036c 7602     		.2byte	(.L218-.L220)/2
 2602 036e 7602     		.2byte	(.L218-.L220)/2
 2603 0370 7602     		.2byte	(.L218-.L220)/2
 2604 0372 7602     		.2byte	(.L218-.L220)/2
 2605 0374 7602     		.2byte	(.L218-.L220)/2
 2606 0376 7602     		.2byte	(.L218-.L220)/2
 2607 0378 7602     		.2byte	(.L218-.L220)/2
 2608 037a 7602     		.2byte	(.L218-.L220)/2
 2609 037c 7602     		.2byte	(.L218-.L220)/2
 2610 037e 7602     		.2byte	(.L218-.L220)/2
 2611 0380 7602     		.2byte	(.L218-.L220)/2
 2612 0382 7602     		.2byte	(.L218-.L220)/2
 2613 0384 7602     		.2byte	(.L218-.L220)/2
 2614 0386 7602     		.2byte	(.L218-.L220)/2
 2615 0388 7602     		.2byte	(.L218-.L220)/2
 2616 038a 7602     		.2byte	(.L218-.L220)/2
 2617 038c 7602     		.2byte	(.L218-.L220)/2
 2618 038e 7602     		.2byte	(.L218-.L220)/2
 2619 0390 7602     		.2byte	(.L218-.L220)/2
 2620 0392 7602     		.2byte	(.L218-.L220)/2
 2621 0394 7602     		.2byte	(.L218-.L220)/2
 2622 0396 7602     		.2byte	(.L218-.L220)/2
 2623 0398 7602     		.2byte	(.L218-.L220)/2
 2624 039a 7602     		.2byte	(.L218-.L220)/2
 2625 039c 7602     		.2byte	(.L218-.L220)/2
 2626 039e 7602     		.2byte	(.L218-.L220)/2
 2627 03a0 7602     		.2byte	(.L218-.L220)/2
 2628 03a2 7602     		.2byte	(.L218-.L220)/2
 2629 03a4 7602     		.2byte	(.L218-.L220)/2
 2630 03a6 6202     		.2byte	(.L227-.L220)/2
 2631 03a8 7602     		.2byte	(.L218-.L220)/2
 2632 03aa 6C02     		.2byte	(.L228-.L220)/2
 2633              	.LVL261:
 2634              		.p2align 1
 2635              	.L275:
 2636              	.LBE285:
 2637              	.LBB286:
 2638              	.LBB224:
 2639              	.LBB221:
 2640              	.LBB218:
 2641              	.LBB213:
 2642              	.LBB214:
 2643              		.loc 2 573 0
 2644 03ac 04F10809 		add	r9, r4, #8
 2645 03b0 4946     		mov	r1, r9
 2646 03b2 6068     		ldr	r0, [r4, #4]
 2647 03b4 FF22     		movs	r2, #255
 2648 03b6 FFF7FEFF 		bl	read
 2649              	.LVL262:
 2650 03ba 0028     		cmp	r0, #0
 2651 03bc 0346     		mov	r3, r0
 2652 03be C4F80C01 		str	r0, [r4, #268]
 2653 03c2 C0F21181 		blt	.L351
 2654              		.loc 2 580 0
 2655 03c6 0BBF     		itete	eq
 2656 03c8 0122     		moveq	r2, #1
 2657              		.loc 2 584 0
ARM GAS  C:\Users\jo\AppData\Local\Temp\ccMF9q4g.s 			page 48


 2658 03ca 0022     		movne	r2, #0
 2659              		.loc 2 580 0
 2660 03cc C4F81021 		streq	r2, [r4, #272]
 2661              		.loc 2 584 0
 2662 03d0 C4F80821 		strne	r2, [r4, #264]
 2663              	.L278:
 2664              	.LBE214:
 2665              	.LBE213:
 2666              		.loc 2 601 0
 2667 03d4 4A46     		mov	r2, r9
 2668 03d6 C049     		ldr	r1, .L359
 2669 03d8 C048     		ldr	r0, .L359+4
 2670 03da FFF7FEFF 		bl	chprintf.constprop.11
 2671              	.LVL263:
 2672              		.loc 2 602 0
 2673 03de C04B     		ldr	r3, .L359+8
 2674 03e0 D4F81021 		ldr	r2, [r4, #272]
 2675 03e4 BF49     		ldr	r1, .L359+12
 2676 03e6 BD48     		ldr	r0, .L359+4
 2677 03e8 002A     		cmp	r2, #0
 2678 03ea 14BF     		ite	ne
 2679 03ec 4246     		movne	r2, r8
 2680 03ee 1A46     		moveq	r2, r3
 2681 03f0 FFF7FEFF 		bl	chprintf.constprop.11
 2682              	.LVL264:
 2683              		.loc 2 604 0
 2684 03f4 D4F80C31 		ldr	r3, [r4, #268]
 2685 03f8 FE2B     		cmp	r3, #254
 2686 03fa 1946     		mov	r1, r3
 2687 03fc 20DC     		bgt	.L281
 2688 03fe D4F80821 		ldr	r2, [r4, #264]
 2689 0402 9342     		cmp	r3, r2
 2690 0404 07D1     		bne	.L282
 2691              	.LVL265:
 2692              	.L296:
 2693              		.loc 2 606 0
 2694 0406 0123     		movs	r3, #1
 2695 0408 C4F81031 		str	r3, [r4, #272]
 2696              		.loc 2 607 0
 2697 040c B348     		ldr	r0, .L359+4
 2698 040e B549     		ldr	r1, .L359+12
 2699 0410 B54A     		ldr	r2, .L359+16
 2700 0412 FFF7FEFF 		bl	chprintf.constprop.11
 2701              	.LVL266:
 2702              	.L282:
 2703              	.LBE218:
 2704              	.LBE221:
 2705              	.LBE224:
 2706              	.LBE286:
 2707              		.loc 2 651 0
 2708 0416 D4F81031 		ldr	r3, [r4, #272]
 2709 041a 002B     		cmp	r3, #0
 2710 041c 40F04982 		bne	.L284
 2711 0420 D4F80C31 		ldr	r3, [r4, #268]
 2712 0424 1946     		mov	r1, r3
 2713 0426 16E6     		b	.L294
 2714              	.LVL267:
ARM GAS  C:\Users\jo\AppData\Local\Temp\ccMF9q4g.s 			page 49


 2715              	.L243:
 2716              	.LBB287:
 2717              		.loc 2 745 0
 2718 0428 D4F81C01 		ldr	r0, [r4, #284]
 2719 042c 3146     		mov	r1, r6
 2720 042e FFF7FEFF 		bl	lcfg_string_cat_char
 2721              	.LVL268:
 2722 0432 D9F80030 		ldr	r3, [r9]
 2723 0436 0525     		movs	r5, #5
 2724 0438 5344     		add	r3, r3, r10
 2725              		.loc 2 653 0
 2726 043a 4FF00109 		mov	r9, #1
 2727              		.loc 2 745 0
 2728 043e 61E6     		b	.L229
 2729              	.LVL269:
 2730              	.L281:
 2731              	.LBE287:
 2732              		.loc 2 651 0
 2733 0440 D4F81021 		ldr	r2, [r4, #272]
 2734 0444 002A     		cmp	r2, #0
 2735 0446 40F03482 		bne	.L284
 2736              	.LVL270:
 2737              	.L297:
 2738              	.LBB288:
 2739              	.LBB246:
 2740              	.LBB243:
 2741              	.LBB241:
 2742              	.LBB239:
 2743              	.LBB237:
 2744              		.loc 2 598 0
 2745 044a D4F80821 		ldr	r2, [r4, #264]
 2746 044e FF2A     		cmp	r2, #255
 2747 0450 3FF404AE 		beq	.L196
 2748              		.loc 2 604 0
 2749 0454 FE2B     		cmp	r3, #254
 2750 0456 3FF735AE 		bgt	.L290
 2751 045a 9142     		cmp	r1, r2
 2752 045c 7FF42BAE 		bne	.L203
 2753              	.LVL271:
 2754              	.L338:
 2755              		.loc 2 606 0
 2756 0460 0123     		movs	r3, #1
 2757 0462 C4F81031 		str	r3, [r4, #272]
 2758              		.loc 2 607 0
 2759 0466 9F49     		ldr	r1, .L359+12
 2760 0468 9F4A     		ldr	r2, .L359+16
 2761 046a 9C48     		ldr	r0, .L359+4
 2762 046c FFF7FEFF 		bl	chprintf.constprop.11
 2763              	.LVL272:
 2764 0470 21E6     		b	.L203
 2765              	.LVL273:
 2766              	.L341:
 2767              	.LBE237:
 2768              	.LBE239:
 2769              	.LBE241:
 2770              	.LBE243:
 2771              	.LBE246:
ARM GAS  C:\Users\jo\AppData\Local\Temp\ccMF9q4g.s 			page 50


 2772              	.LBB247:
 2773              	.LBB248:
 2774              	.LBB249:
 2775              	.LBB250:
 2776              		.loc 2 592 0
 2777 0472 D4F81031 		ldr	r3, [r4, #272]
 2778 0476 002B     		cmp	r3, #0
 2779 0478 3ED0     		beq	.L260
 2780              	.LVL274:
 2781              	.L271:
 2782              	.LBE250:
 2783              	.LBE249:
 2784              		.loc 2 618 0
 2785 047a 2068     		ldr	r0, [r4]
 2786 047c 9B49     		ldr	r1, .L359+20
 2787 047e 9C4A     		ldr	r2, .L359+24
 2788 0480 FFF7FEFF 		bl	lcfg_error_set
 2789              	.LVL275:
 2790              	.LBE248:
 2791              	.LBE247:
 2792              		.loc 2 832 0
 2793 0484 0A2E     		cmp	r6, #10
 2794 0486 51D0     		beq	.L352
 2795              	.L272:
 2796              		.loc 2 839 0
 2797 0488 B4F81631 		ldrh	r3, [r4, #278]
 2798 048c 0133     		adds	r3, r3, #1
 2799 048e A4F81631 		strh	r3, [r4, #278]	@ movhi
 2800              		.loc 2 843 0
 2801 0492 94F81831 		ldrb	r3, [r4, #280]	@ zero_extendqisi2
 2802 0496 002B     		cmp	r3, #0
 2803 0498 3FF45AAE 		beq	.L353
 2804              	.LVL276:
 2805              	.L273:
 2806              	.LBE288:
 2807              		.loc 2 849 0
 2808 049c 002F     		cmp	r7, #0
 2809 049e 6CD1     		bne	.L285
 2810              	.L288:
 2811              		.loc 2 859 0
 2812 04a0 0020     		movs	r0, #0
 2813              		.loc 2 860 0
 2814 04a2 0EB0     		add	sp, sp, #56
 2815              		.cfi_remember_state
 2816              		.cfi_def_cfa_offset 32
 2817              		@ sp needed
 2818 04a4 BDE8F087 		pop	{r4, r5, r6, r7, r8, r9, r10, pc}
 2819              	.LVL277:
 2820              	.L339:
 2821              		.cfi_restore_state
 2822              	.LBB289:
 2823              	.LBB275:
 2824              	.LBB244:
 2825              		.loc 2 631 0
 2826 04a8 2068     		ldr	r0, [r4]
 2827 04aa 9049     		ldr	r1, .L359+20
 2828 04ac 914A     		ldr	r2, .L359+28
ARM GAS  C:\Users\jo\AppData\Local\Temp\ccMF9q4g.s 			page 51


 2829 04ae FFF7FEFF 		bl	lcfg_error_set
 2830              	.LVL278:
 2831 04b2 09E6     		b	.L206
 2832              	.L217:
 2833              	.LBE244:
 2834              	.LBE275:
 2835              		.loc 2 809 0
 2836 04b4 DFF84092 		ldr	r9, .L359+32
 2837 04b8 771C     		adds	r7, r6, #1
 2838              	.LVL279:
 2839 04ba D9F80030 		ldr	r3, [r9]
 2840 04be DB5D     		ldrb	r3, [r3, r7]	@ zero_extendqisi2
 2841 04c0 13F0440F 		tst	r3, #68
 2842 04c4 00F09F80 		beq	.L354
 2843              	.L257:
 2844              		.loc 2 815 0
 2845 04c8 0023     		movs	r3, #0
 2846              		.loc 2 816 0
 2847 04ca 1946     		mov	r1, r3
 2848 04cc 1022     		movs	r2, #16
 2849 04ce 02A8     		add	r0, sp, #8
 2850              		.loc 2 815 0
 2851 04d0 8DF80A30 		strb	r3, [sp, #10]
 2852              		.loc 2 816 0
 2853 04d4 D4F81C51 		ldr	r5, [r4, #284]
 2854              		.loc 2 814 0
 2855 04d8 8DF80960 		strb	r6, [sp, #9]
 2856              		.loc 2 816 0
 2857 04dc FFF7FEFF 		bl	strtoul
 2858              	.LVL280:
 2859 04e0 C1B2     		uxtb	r1, r0
 2860 04e2 2846     		mov	r0, r5
 2861 04e4 FFF7FEFF 		bl	lcfg_string_cat_char
 2862              	.LVL281:
 2863 04e8 D9F80030 		ldr	r3, [r9]
 2864              		.loc 2 818 0
 2865 04ec 0625     		movs	r5, #6
 2866 04ee 3B44     		add	r3, r3, r7
 2867              		.loc 2 653 0
 2868 04f0 4FF00109 		mov	r9, #1
 2869              		.loc 2 817 0
 2870 04f4 2F46     		mov	r7, r5
 2871              		.loc 2 818 0
 2872 04f6 05E6     		b	.L229
 2873              	.LVL282:
 2874              	.L260:
 2875              	.LBB276:
 2876              	.LBB271:
 2877              	.LBB267:
 2878              	.LBB263:
 2879              	.LBB251:
 2880              	.LBB252:
 2881              		.loc 2 598 0
 2882 04f8 D4F80C21 		ldr	r2, [r4, #268]
 2883 04fc 002A     		cmp	r2, #0
 2884 04fe 48D0     		beq	.L262
 2885 0500 D4F80831 		ldr	r3, [r4, #264]
ARM GAS  C:\Users\jo\AppData\Local\Temp\ccMF9q4g.s 			page 52


 2886 0504 FF2B     		cmp	r3, #255
 2887 0506 44D0     		beq	.L262
 2888              		.loc 2 604 0
 2889 0508 FE2A     		cmp	r2, #254
 2890 050a 08DC     		bgt	.L292
 2891              	.LVL283:
 2892              	.L291:
 2893 050c 9A42     		cmp	r2, r3
 2894 050e 00F0AA81 		beq	.L355
 2895              	.L269:
 2896              	.LBE252:
 2897              	.LBE251:
 2898              	.LBE263:
 2899              	.LBE267:
 2900              		.loc 2 616 0
 2901 0512 D4F81031 		ldr	r3, [r4, #272]
 2902 0516 002B     		cmp	r3, #0
 2903 0518 AFD1     		bne	.L271
 2904 051a D4F80831 		ldr	r3, [r4, #264]
 2905              	.L292:
 2906              		.loc 2 622 0
 2907 051e E218     		adds	r2, r4, r3
 2908 0520 0133     		adds	r3, r3, #1
 2909 0522 167A     		ldrb	r6, [r2, #8]	@ zero_extendqisi2
 2910              	.LVL284:
 2911 0524 C4F80831 		str	r3, [r4, #264]
 2912              	.LBE271:
 2913              	.LBE276:
 2914              		.loc 2 832 0
 2915 0528 0A2E     		cmp	r6, #10
 2916 052a ADD1     		bne	.L272
 2917              	.LVL285:
 2918              	.L352:
 2919              		.loc 2 834 0
 2920 052c B4F81431 		ldrh	r3, [r4, #276]
 2921              		.loc 2 835 0
 2922 0530 0122     		movs	r2, #1
 2923              		.loc 2 834 0
 2924 0532 1344     		add	r3, r3, r2
 2925 0534 A4F81431 		strh	r3, [r4, #276]	@ movhi
 2926              		.loc 2 835 0
 2927 0538 A4F81621 		strh	r2, [r4, #278]	@ movhi
 2928 053c 03E6     		b	.L259
 2929              	.LVL286:
 2930              	.L342:
 2931              		.loc 2 771 0
 2932 053e 302E     		cmp	r6, #48
 2933 0540 00F07781 		beq	.L250
 2934 0544 5C2E     		cmp	r6, #92
 2935 0546 00F0B180 		beq	.L251
 2936 054a 222E     		cmp	r6, #34
 2937 054c 7FF415AE 		bne	.L247
 2938              		.loc 2 774 0
 2939 0550 D4F81C01 		ldr	r0, [r4, #284]
 2940 0554 3146     		mov	r1, r6
 2941 0556 FFF7FEFF 		bl	lcfg_string_cat_char
 2942              	.LVL287:
ARM GAS  C:\Users\jo\AppData\Local\Temp\ccMF9q4g.s 			page 53


 2943              	.L331:
 2944 055a 674B     		ldr	r3, .L359+32
 2945 055c 1B68     		ldr	r3, [r3]
 2946              		.loc 2 775 0
 2947 055e 0625     		movs	r5, #6
 2948 0560 2333     		adds	r3, r3, #35
 2949              		.loc 2 770 0
 2950 0562 2F46     		mov	r7, r5
 2951              		.loc 2 653 0
 2952 0564 4FF00109 		mov	r9, #1
 2953              		.loc 2 775 0
 2954 0568 CCE5     		b	.L229
 2955              	.LVL288:
 2956              	.L345:
 2957 056a 634B     		ldr	r3, .L359+32
 2958 056c 1B68     		ldr	r3, [r3]
 2959              		.loc 2 760 0
 2960 056e 0725     		movs	r5, #7
 2961 0570 5D33     		adds	r3, r3, #93
 2962              		.loc 2 762 0
 2963 0572 2F46     		mov	r7, r5
 2964              	.LVL289:
 2965              		.loc 2 653 0
 2966 0574 4FF00109 		mov	r9, #1
 2967 0578 C4E5     		b	.L229
 2968              	.LVL290:
 2969              	.L285:
 2970              	.LBE289:
 2971              		.loc 2 851 0
 2972 057a 0A2F     		cmp	r7, #10
 2973 057c 3FF4EBAD 		beq	.L333
 2974              	.L287:
 2975              	.LVL291:
 2976              		.loc 2 853 0
 2977 0580 2068     		ldr	r0, [r4]
 2978 0582 5E49     		ldr	r1, .L359+36
 2979 0584 B4F91421 		ldrsh	r2, [r4, #276]
 2980 0588 B4F91631 		ldrsh	r3, [r4, #278]
 2981 058c FFF7FEFF 		bl	lcfg_error_set
 2982              	.LVL292:
 2983 0590 E1E5     		b	.L333
 2984              	.LVL293:
 2985              	.L262:
 2986              	.LBB290:
 2987              	.LBB277:
 2988              	.LBB272:
 2989              	.LBB268:
 2990              	.LBB264:
 2991              	.LBB260:
 2992              	.LBB257:
 2993              	.LBB253:
 2994              	.LBB254:
 2995              		.loc 2 573 0
 2996 0592 04F10805 		add	r5, r4, #8
 2997 0596 2946     		mov	r1, r5
 2998 0598 6068     		ldr	r0, [r4, #4]
 2999 059a FF22     		movs	r2, #255
ARM GAS  C:\Users\jo\AppData\Local\Temp\ccMF9q4g.s 			page 54


 3000 059c FFF7FEFF 		bl	read
 3001              	.LVL294:
 3002 05a0 0028     		cmp	r0, #0
 3003 05a2 0346     		mov	r3, r0
 3004 05a4 C4F80C01 		str	r0, [r4, #268]
 3005 05a8 C0F27481 		blt	.L356
 3006              		.loc 2 580 0
 3007 05ac 0BBF     		itete	eq
 3008 05ae 0122     		moveq	r2, #1
 3009              		.loc 2 584 0
 3010 05b0 0022     		movne	r2, #0
 3011              		.loc 2 580 0
 3012 05b2 C4F81021 		streq	r2, [r4, #272]
 3013              		.loc 2 584 0
 3014 05b6 C4F80821 		strne	r2, [r4, #264]
 3015              	.LVL295:
 3016              	.L265:
 3017              	.LBE254:
 3018              	.LBE253:
 3019              		.loc 2 601 0
 3020 05ba 2A46     		mov	r2, r5
 3021 05bc 4649     		ldr	r1, .L359
 3022 05be 4748     		ldr	r0, .L359+4
 3023 05c0 FFF7FEFF 		bl	chprintf.constprop.11
 3024              	.LVL296:
 3025              		.loc 2 602 0
 3026 05c4 D4F81021 		ldr	r2, [r4, #272]
 3027 05c8 454B     		ldr	r3, .L359+8
 3028 05ca 4448     		ldr	r0, .L359+4
 3029 05cc 4549     		ldr	r1, .L359+12
 3030 05ce 002A     		cmp	r2, #0
 3031 05d0 14BF     		ite	ne
 3032 05d2 4246     		movne	r2, r8
 3033 05d4 1A46     		moveq	r2, r3
 3034 05d6 FFF7FEFF 		bl	chprintf.constprop.11
 3035              	.LVL297:
 3036              		.loc 2 604 0
 3037 05da D4F80C21 		ldr	r2, [r4, #268]
 3038 05de FE2A     		cmp	r2, #254
 3039 05e0 97DC     		bgt	.L269
 3040 05e2 D4F80831 		ldr	r3, [r4, #264]
 3041 05e6 91E7     		b	.L291
 3042              	.LVL298:
 3043              	.L351:
 3044              	.LBE257:
 3045              	.LBE260:
 3046              	.LBE264:
 3047              	.LBE268:
 3048              	.LBE272:
 3049              	.LBE277:
 3050              	.LBE290:
 3051              	.LBB291:
 3052              	.LBB225:
 3053              	.LBB222:
 3054              	.LBB219:
 3055              	.LBB216:
 3056              	.LBB215:
ARM GAS  C:\Users\jo\AppData\Local\Temp\ccMF9q4g.s 			page 55


 3057              		.loc 2 575 0
 3058 05e8 D4F800A0 		ldr	r10, [r4]
 3059 05ec FFF7FEFF 		bl	__errno
 3060              	.LVL299:
 3061 05f0 0068     		ldr	r0, [r0]
 3062 05f2 FFF7FEFF 		bl	strerror
 3063              	.LVL300:
 3064 05f6 4249     		ldr	r1, .L359+40
 3065 05f8 0246     		mov	r2, r0
 3066 05fa 5046     		mov	r0, r10
 3067 05fc FFF7FEFF 		bl	lcfg_error_set
 3068              	.LVL301:
 3069 0600 D4F80C31 		ldr	r3, [r4, #268]
 3070 0604 E6E6     		b	.L278
 3071              	.LVL302:
 3072              	.L354:
 3073              	.LBE215:
 3074              	.LBE216:
 3075              	.LBE219:
 3076              	.LBE222:
 3077              	.LBE225:
 3078              	.LBE291:
 3079              	.LBB292:
 3080              		.loc 2 811 0
 3081 0606 B4F91621 		ldrsh	r2, [r4, #278]
 3082 060a 2068     		ldr	r0, [r4]
 3083 060c B4F91431 		ldrsh	r3, [r4, #276]
 3084 0610 3C49     		ldr	r1, .L359+44
 3085 0612 0092     		str	r2, [sp]
 3086 0614 3246     		mov	r2, r6
 3087 0616 FFF7FEFF 		bl	lcfg_error_set
 3088              	.LVL303:
 3089 061a 55E7     		b	.L257
 3090              	.LVL304:
 3091              	.L340:
 3092              		.loc 2 802 0
 3093 061c B4F91621 		ldrsh	r2, [r4, #278]
 3094 0620 B4F91431 		ldrsh	r3, [r4, #276]
 3095 0624 2068     		ldr	r0, [r4]
 3096 0626 3749     		ldr	r1, .L359+44
 3097 0628 0092     		str	r2, [sp]
 3098 062a 3246     		mov	r2, r6
 3099 062c FFF7FEFF 		bl	lcfg_error_set
 3100              	.LVL305:
 3101 0630 3B68     		ldr	r3, [r7]
 3102 0632 2B44     		add	r3, r3, r5
 3103 0634 60E5     		b	.L256
 3104              	.LVL306:
 3105              	.L344:
 3106 0636 304B     		ldr	r3, .L359+32
 3107 0638 1B68     		ldr	r3, [r3]
 3108              		.loc 2 757 0
 3109 063a 0322     		movs	r2, #3
 3110 063c 2333     		adds	r3, r3, #35
 3111 063e 84F81821 		strb	r2, [r4, #280]
 3112              	.LVL307:
 3113              		.loc 2 653 0
ARM GAS  C:\Users\jo\AppData\Local\Temp\ccMF9q4g.s 			page 56


 3114 0642 4FF00109 		mov	r9, #1
 3115              		.loc 2 758 0
 3116 0646 0027     		movs	r7, #0
 3117 0648 5CE5     		b	.L229
 3118              	.LVL308:
 3119              	.L349:
 3120 064a 2B4B     		ldr	r3, .L359+32
 3121 064c 1B68     		ldr	r3, [r3]
 3122              		.loc 2 706 0
 3123 064e 0225     		movs	r5, #2
 3124 0650 3033     		adds	r3, r3, #48
 3125              		.loc 2 708 0
 3126 0652 2F46     		mov	r7, r5
 3127              	.LVL309:
 3128              		.loc 2 653 0
 3129 0654 4FF00109 		mov	r9, #1
 3130 0658 54E5     		b	.L229
 3131              	.LVL310:
 3132              	.L348:
 3133 065a 1B68     		ldr	r3, [r3]
 3134 065c 4FF00109 		mov	r9, #1
 3135 0660 0B33     		adds	r3, r3, #11
 3136              		.loc 2 723 0
 3137 0662 0027     		movs	r7, #0
 3138              	.LVL311:
 3139 0664 4EE5     		b	.L229
 3140              	.LVL312:
 3141              	.L347:
 3142 0666 1B68     		ldr	r3, [r3]
 3143              		.loc 2 727 0
 3144 0668 0425     		movs	r5, #4
 3145 066a 2B33     		adds	r3, r3, #43
 3146              		.loc 2 729 0
 3147 066c 2F46     		mov	r7, r5
 3148              	.LVL313:
 3149              		.loc 2 653 0
 3150 066e 4FF00109 		mov	r9, #1
 3151 0672 47E5     		b	.L229
 3152              	.LVL314:
 3153              	.L346:
 3154 0674 1B68     		ldr	r3, [r3]
 3155 0676 4FF00109 		mov	r9, #1
 3156 067a 3033     		adds	r3, r3, #48
 3157              		.loc 2 735 0
 3158 067c 0027     		movs	r7, #0
 3159              	.LVL315:
 3160 067e 41E5     		b	.L229
 3161              	.LVL316:
 3162              	.L350:
 3163 0680 1D4B     		ldr	r3, .L359+32
 3164 0682 1B68     		ldr	r3, [r3]
 3165              		.loc 2 710 0
 3166 0684 0325     		movs	r5, #3
 3167 0686 2B33     		adds	r3, r3, #43
 3168              		.loc 2 712 0
 3169 0688 2F46     		mov	r7, r5
 3170              	.LVL317:
ARM GAS  C:\Users\jo\AppData\Local\Temp\ccMF9q4g.s 			page 57


 3171              		.loc 2 653 0
 3172 068a 4FF00109 		mov	r9, #1
 3173 068e 39E5     		b	.L229
 3174              	.LVL318:
 3175              	.L242:
 3176 0690 1B68     		ldr	r3, [r3]
 3177              		.loc 2 737 0
 3178 0692 0425     		movs	r5, #4
 3179 0694 2B33     		adds	r3, r3, #43
 3180              		.loc 2 653 0
 3181 0696 4FF00109 		mov	r9, #1
 3182 069a 33E5     		b	.L229
 3183              	.LVL319:
 3184              	.L254:
 3185 069c 164B     		ldr	r3, .L359+32
 3186 069e 1B68     		ldr	r3, [r3]
 3187              		.loc 2 771 0
 3188 06a0 0825     		movs	r5, #8
 3189 06a2 7933     		adds	r3, r3, #121
 3190              		.loc 2 792 0
 3191 06a4 2F46     		mov	r7, r5
 3192              		.loc 2 653 0
 3193 06a6 4FF00109 		mov	r9, #1
 3194 06aa 2BE5     		b	.L229
 3195              	.L251:
 3196              		.loc 2 789 0
 3197 06ac D4F81C01 		ldr	r0, [r4, #284]
 3198 06b0 3146     		mov	r1, r6
 3199 06b2 FFF7FEFF 		bl	lcfg_string_cat_char
 3200              	.LVL320:
 3201 06b6 104B     		ldr	r3, .L359+32
 3202 06b8 1B68     		ldr	r3, [r3]
 3203              		.loc 2 790 0
 3204 06ba 0625     		movs	r5, #6
 3205 06bc 5D33     		adds	r3, r3, #93
 3206              		.loc 2 770 0
 3207 06be 2F46     		mov	r7, r5
 3208              		.loc 2 653 0
 3209 06c0 4FF00109 		mov	r9, #1
 3210              		.loc 2 790 0
 3211 06c4 1EE5     		b	.L229
 3212              	.LVL321:
 3213              	.L219:
 3214 06c6 0C4B     		ldr	r3, .L359+32
 3215 06c8 1A68     		ldr	r2, [r3]
 3216 06ca 731C     		adds	r3, r6, #1
 3217 06cc 1344     		add	r3, r3, r2
 3218              		.loc 2 653 0
 3219 06ce 4FF00109 		mov	r9, #1
 3220              		.loc 2 659 0
 3221 06d2 0027     		movs	r7, #0
 3222              	.LVL322:
 3223 06d4 16E5     		b	.L229
 3224              	.L360:
 3225 06d6 00BF     		.align	2
 3226              	.L359:
 3227 06d8 A0000000 		.word	.LC33
ARM GAS  C:\Users\jo\AppData\Local\Temp\ccMF9q4g.s 			page 58


 3228 06dc 00000000 		.word	itm_port
 3229 06e0 8C000000 		.word	.LC30
 3230 06e4 D4000000 		.word	.LC34
 3231 06e8 84000000 		.word	.LC29
 3232 06ec 48000000 		.word	.LC27
 3233 06f0 F4010000 		.word	.LC40
 3234 06f4 F0000000 		.word	.LC35
 3235 06f8 00000000 		.word	__ctype_ptr__
 3236 06fc 0C020000 		.word	.LC41
 3237 0700 94000000 		.word	.LC32
 3238 0704 8C010000 		.word	.LC38
 3239              	.LVL323:
 3240              	.L221:
 3241              		.loc 2 689 0
 3242 0708 D4F81C21 		ldr	r2, [r4, #284]
 3243              	.LVL324:
 3244              	.LBB278:
 3245              	.LBB279:
 3246              		.loc 2 436 0
 3247 070c 5368     		ldr	r3, [r2, #4]
 3248 070e 002B     		cmp	r3, #0
 3249 0710 3FF423AF 		beq	.L331
 3250 0714 694B     		ldr	r3, .L361
 3251 0716 1B68     		ldr	r3, [r3]
 3252              		.loc 2 438 0
 3253 0718 0021     		movs	r1, #0
 3254 071a 0625     		movs	r5, #6
 3255 071c 2333     		adds	r3, r3, #35
 3256 071e 5160     		str	r1, [r2, #4]
 3257              	.LBE279:
 3258              	.LBE278:
 3259              		.loc 2 688 0
 3260 0720 2F46     		mov	r7, r5
 3261              		.loc 2 653 0
 3262 0722 4FF00109 		mov	r9, #1
 3263 0726 EDE4     		b	.L229
 3264              	.LVL325:
 3265              	.L222:
 3266 0728 644B     		ldr	r3, .L361
 3267 072a 1B68     		ldr	r3, [r3]
 3268              		.loc 2 682 0
 3269 072c 0622     		movs	r2, #6
 3270 072e 2D33     		adds	r3, r3, #45
 3271 0730 84F81821 		strb	r2, [r4, #280]
 3272              		.loc 2 653 0
 3273 0734 4FF00109 		mov	r9, #1
 3274              		.loc 2 683 0
 3275 0738 0027     		movs	r7, #0
 3276              	.LVL326:
 3277 073a E3E4     		b	.L229
 3278              	.LVL327:
 3279              	.L223:
 3280 073c 5F4B     		ldr	r3, .L361
 3281 073e 1B68     		ldr	r3, [r3]
 3282              		.loc 2 659 0
 3283 0740 0125     		movs	r5, #1
 3284 0742 3033     		adds	r3, r3, #48
ARM GAS  C:\Users\jo\AppData\Local\Temp\ccMF9q4g.s 			page 59


 3285              		.loc 2 653 0
 3286 0744 A946     		mov	r9, r5
 3287              		.loc 2 685 0
 3288 0746 2F46     		mov	r7, r5
 3289              	.LVL328:
 3290 0748 DCE4     		b	.L229
 3291              	.LVL329:
 3292              	.L224:
 3293 074a 5C4B     		ldr	r3, .L361
 3294 074c 1B68     		ldr	r3, [r3]
 3295              		.loc 2 667 0
 3296 074e 0222     		movs	r2, #2
 3297 0750 3E33     		adds	r3, r3, #62
 3298 0752 84F81821 		strb	r2, [r4, #280]
 3299              		.loc 2 653 0
 3300 0756 4FF00109 		mov	r9, #1
 3301              		.loc 2 668 0
 3302 075a 0027     		movs	r7, #0
 3303              	.LVL330:
 3304 075c D2E4     		b	.L229
 3305              	.LVL331:
 3306              	.L225:
 3307 075e 574B     		ldr	r3, .L361
 3308 0760 1B68     		ldr	r3, [r3]
 3309              		.loc 2 670 0
 3310 0762 0422     		movs	r2, #4
 3311 0764 5C33     		adds	r3, r3, #92
 3312 0766 84F81821 		strb	r2, [r4, #280]
 3313              		.loc 2 653 0
 3314 076a 4FF00109 		mov	r9, #1
 3315              		.loc 2 671 0
 3316 076e 0027     		movs	r7, #0
 3317              	.LVL332:
 3318 0770 C8E4     		b	.L229
 3319              	.LVL333:
 3320              	.L226:
 3321 0772 524B     		ldr	r3, .L361
 3322 0774 1B68     		ldr	r3, [r3]
 3323              		.loc 2 673 0
 3324 0776 0522     		movs	r2, #5
 3325 0778 5E33     		adds	r3, r3, #94
 3326 077a 84F81821 		strb	r2, [r4, #280]
 3327              		.loc 2 653 0
 3328 077e 4FF00109 		mov	r9, #1
 3329              		.loc 2 674 0
 3330 0782 0027     		movs	r7, #0
 3331              	.LVL334:
 3332 0784 BEE4     		b	.L229
 3333              	.LVL335:
 3334              	.L227:
 3335 0786 4D4B     		ldr	r3, .L361
 3336 0788 1B68     		ldr	r3, [r3]
 3337              		.loc 2 676 0
 3338 078a 0722     		movs	r2, #7
 3339 078c 7C33     		adds	r3, r3, #124
 3340 078e 84F81821 		strb	r2, [r4, #280]
 3341              		.loc 2 653 0
ARM GAS  C:\Users\jo\AppData\Local\Temp\ccMF9q4g.s 			page 60


 3342 0792 4FF00109 		mov	r9, #1
 3343              		.loc 2 677 0
 3344 0796 0027     		movs	r7, #0
 3345              	.LVL336:
 3346 0798 B4E4     		b	.L229
 3347              	.LVL337:
 3348              	.L228:
 3349 079a 484B     		ldr	r3, .L361
 3350 079c 1B68     		ldr	r3, [r3]
 3351              		.loc 2 679 0
 3352 079e 0822     		movs	r2, #8
 3353 07a0 7E33     		adds	r3, r3, #126
 3354 07a2 84F81821 		strb	r2, [r4, #280]
 3355              		.loc 2 653 0
 3356 07a6 4FF00109 		mov	r9, #1
 3357              		.loc 2 680 0
 3358 07aa 0027     		movs	r7, #0
 3359              	.LVL338:
 3360 07ac AAE4     		b	.L229
 3361              	.LVL339:
 3362              	.L218:
 3363              		.loc 2 692 0
 3364 07ae DFF80C91 		ldr	r9, .L361
 3365 07b2 771C     		adds	r7, r6, #1
 3366              	.LVL340:
 3367 07b4 D9F80030 		ldr	r3, [r9]
 3368 07b8 DB5D     		ldrb	r3, [r3, r7]	@ zero_extendqisi2
 3369 07ba 9A07     		lsls	r2, r3, #30
 3370 07bc 5CD0     		beq	.L231
 3371              		.loc 2 694 0
 3372 07be D4F81C01 		ldr	r0, [r4, #284]
 3373              	.LVL341:
 3374              	.LBB280:
 3375              	.LBB281:
 3376              		.loc 2 436 0
 3377 07c2 4368     		ldr	r3, [r0, #4]
 3378 07c4 0BB1     		cbz	r3, .L232
 3379              		.loc 2 438 0
 3380 07c6 0023     		movs	r3, #0
 3381 07c8 4360     		str	r3, [r0, #4]
 3382              	.L232:
 3383              	.LBE281:
 3384              	.LBE280:
 3385              		.loc 2 695 0
 3386 07ca 3146     		mov	r1, r6
 3387 07cc FFF7FEFF 		bl	lcfg_string_cat_char
 3388              	.LVL342:
 3389 07d0 D9F80030 		ldr	r3, [r9]
 3390 07d4 0525     		movs	r5, #5
 3391 07d6 3B44     		add	r3, r3, r7
 3392              		.loc 2 653 0
 3393 07d8 4FF00109 		mov	r9, #1
 3394              		.loc 2 696 0
 3395 07dc 2F46     		mov	r7, r5
 3396 07de 91E4     		b	.L229
 3397              	.LVL343:
 3398              	.L337:
ARM GAS  C:\Users\jo\AppData\Local\Temp\ccMF9q4g.s 			page 61


 3399              	.LBB282:
 3400              	.LBB245:
 3401              	.LBB242:
 3402              	.LBB240:
 3403              	.LBB238:
 3404              	.LBB236:
 3405              	.LBB235:
 3406              		.loc 2 575 0
 3407 07e0 D4F800A0 		ldr	r10, [r4]
 3408 07e4 FFF7FEFF 		bl	__errno
 3409              	.LVL344:
 3410 07e8 0068     		ldr	r0, [r0]
 3411 07ea FFF7FEFF 		bl	strerror
 3412              	.LVL345:
 3413 07ee 3449     		ldr	r1, .L361+4
 3414 07f0 0246     		mov	r2, r0
 3415 07f2 5046     		mov	r0, r10
 3416 07f4 FFF7FEFF 		bl	lcfg_error_set
 3417              	.LVL346:
 3418 07f8 D4F80C31 		ldr	r3, [r4, #268]
 3419 07fc 42E4     		b	.L199
 3420              	.LVL347:
 3421              	.L253:
 3422              	.LBE235:
 3423              	.LBE236:
 3424              	.LBE238:
 3425              	.LBE240:
 3426              	.LBE242:
 3427              	.LBE245:
 3428              	.LBE282:
 3429              		.loc 2 780 0
 3430 07fe D4F81C01 		ldr	r0, [r4, #284]
 3431 0802 0921     		movs	r1, #9
 3432 0804 FFF7FEFF 		bl	lcfg_string_cat_char
 3433              	.LVL348:
 3434 0808 2C4B     		ldr	r3, .L361
 3435 080a 1B68     		ldr	r3, [r3]
 3436              		.loc 2 781 0
 3437 080c 0625     		movs	r5, #6
 3438 080e 7533     		adds	r3, r3, #117
 3439              		.loc 2 770 0
 3440 0810 2F46     		mov	r7, r5
 3441              		.loc 2 653 0
 3442 0812 4FF00109 		mov	r9, #1
 3443              		.loc 2 781 0
 3444 0816 75E4     		b	.L229
 3445              	.L343:
 3446              		.loc 2 783 0
 3447 0818 D4F81C01 		ldr	r0, [r4, #284]
 3448 081c 0D21     		movs	r1, #13
 3449 081e FFF7FEFF 		bl	lcfg_string_cat_char
 3450              	.LVL349:
 3451 0822 264B     		ldr	r3, .L361
 3452 0824 1B68     		ldr	r3, [r3]
 3453              		.loc 2 784 0
 3454 0826 0625     		movs	r5, #6
 3455 0828 7333     		adds	r3, r3, #115
ARM GAS  C:\Users\jo\AppData\Local\Temp\ccMF9q4g.s 			page 62


 3456              		.loc 2 770 0
 3457 082a 2F46     		mov	r7, r5
 3458              		.loc 2 653 0
 3459 082c 4FF00109 		mov	r9, #1
 3460              		.loc 2 784 0
 3461 0830 68E4     		b	.L229
 3462              	.L250:
 3463              		.loc 2 786 0
 3464 0832 D4F81C01 		ldr	r0, [r4, #284]
 3465 0836 0021     		movs	r1, #0
 3466 0838 FFF7FEFF 		bl	lcfg_string_cat_char
 3467              	.LVL350:
 3468 083c 1F4B     		ldr	r3, .L361
 3469 083e 1B68     		ldr	r3, [r3]
 3470              		.loc 2 787 0
 3471 0840 0625     		movs	r5, #6
 3472 0842 3133     		adds	r3, r3, #49
 3473              		.loc 2 770 0
 3474 0844 2F46     		mov	r7, r5
 3475              		.loc 2 653 0
 3476 0846 4FF00109 		mov	r9, #1
 3477              		.loc 2 787 0
 3478 084a 5BE4     		b	.L229
 3479              	.L248:
 3480              		.loc 2 777 0
 3481 084c D4F81C01 		ldr	r0, [r4, #284]
 3482 0850 0A21     		movs	r1, #10
 3483 0852 FFF7FEFF 		bl	lcfg_string_cat_char
 3484              	.LVL351:
 3485 0856 194B     		ldr	r3, .L361
 3486 0858 1B68     		ldr	r3, [r3]
 3487              		.loc 2 778 0
 3488 085a 0625     		movs	r5, #6
 3489 085c 6F33     		adds	r3, r3, #111
 3490              		.loc 2 770 0
 3491 085e 2F46     		mov	r7, r5
 3492              		.loc 2 653 0
 3493 0860 4FF00109 		mov	r9, #1
 3494              		.loc 2 778 0
 3495 0864 4EE4     		b	.L229
 3496              	.LVL352:
 3497              	.L355:
 3498              	.LBB283:
 3499              	.LBB273:
 3500              	.LBB269:
 3501              	.LBB265:
 3502              	.LBB261:
 3503              	.LBB258:
 3504              		.loc 2 606 0
 3505 0866 0123     		movs	r3, #1
 3506 0868 C4F81031 		str	r3, [r4, #272]
 3507              		.loc 2 607 0
 3508 086c 1549     		ldr	r1, .L361+8
 3509 086e 164A     		ldr	r2, .L361+12
 3510 0870 1648     		ldr	r0, .L361+16
 3511 0872 FFF7FEFF 		bl	chprintf.constprop.11
 3512              	.LVL353:
ARM GAS  C:\Users\jo\AppData\Local\Temp\ccMF9q4g.s 			page 63


 3513 0876 4CE6     		b	.L269
 3514              	.LVL354:
 3515              	.L231:
 3516              	.LBE258:
 3517              	.LBE261:
 3518              	.LBE265:
 3519              	.LBE269:
 3520              	.LBE273:
 3521              	.LBE283:
 3522              		.loc 2 700 0
 3523 0878 B4F91421 		ldrsh	r2, [r4, #276]
 3524 087c B4F91611 		ldrsh	r1, [r4, #278]
 3525 0880 2068     		ldr	r0, [r4]
 3526 0882 0092     		str	r2, [sp]
 3527 0884 13F0970F 		tst	r3, #151
 3528 0888 0191     		str	r1, [sp, #4]
 3529 088a 14BF     		ite	ne
 3530 088c 3246     		movne	r2, r6
 3531 088e 2E22     		moveq	r2, #46
 3532 0890 0F49     		ldr	r1, .L361+20
 3533 0892 F0E4     		b	.L332
 3534              	.LVL355:
 3535              	.L356:
 3536              	.LBB284:
 3537              	.LBB274:
 3538              	.LBB270:
 3539              	.LBB266:
 3540              	.LBB262:
 3541              	.LBB259:
 3542              	.LBB256:
 3543              	.LBB255:
 3544              		.loc 2 575 0
 3545 0894 D4F80090 		ldr	r9, [r4]
 3546              	.LVL356:
 3547 0898 FFF7FEFF 		bl	__errno
 3548              	.LVL357:
 3549 089c 0068     		ldr	r0, [r0]
 3550 089e FFF7FEFF 		bl	strerror
 3551              	.LVL358:
 3552 08a2 0749     		ldr	r1, .L361+4
 3553 08a4 0246     		mov	r2, r0
 3554 08a6 4846     		mov	r0, r9
 3555 08a8 FFF7FEFF 		bl	lcfg_error_set
 3556              	.LVL359:
 3557 08ac D4F80C31 		ldr	r3, [r4, #268]
 3558 08b0 83E6     		b	.L265
 3559              	.LVL360:
 3560              	.L284:
 3561              	.LBE255:
 3562              	.LBE256:
 3563              	.LBE259:
 3564              	.LBE262:
 3565              	.LBE266:
 3566              	.LBE270:
 3567              	.LBE274:
 3568              	.LBE284:
 3569              	.LBE292:
ARM GAS  C:\Users\jo\AppData\Local\Temp\ccMF9q4g.s 			page 64


 3570              		.loc 2 849 0
 3571 08b2 002F     		cmp	r7, #0
 3572 08b4 3FF4F4AD 		beq	.L288
 3573 08b8 62E6     		b	.L287
 3574              	.L362:
 3575 08ba 00BF     		.align	2
 3576              	.L361:
 3577 08bc 00000000 		.word	__ctype_ptr__
 3578 08c0 94000000 		.word	.LC32
 3579 08c4 D4000000 		.word	.LC34
 3580 08c8 84000000 		.word	.LC29
 3581 08cc 00000000 		.word	itm_port
 3582 08d0 08010000 		.word	.LC36
 3583              		.cfi_endproc
 3584              	.LFE273:
 3585              		.size	lcfg_scanner_token_read, .-lcfg_scanner_token_read
 3586 08d4 AFF30080 		.section	.text.lcfg_scanner_init,"ax",%progbits
 3586      AFF30080 
 3586      AFF30080 
 3587              		.align	2
 3588              		.p2align 4,,15
 3589              		.global	lcfg_scanner_init
 3590              		.thumb
 3591              		.thumb_func
 3592              		.type	lcfg_scanner_init, %function
 3593              	lcfg_scanner_init:
 3594              	.LFB274:
 3595              		.loc 2 863 0
 3596              		.cfi_startproc
 3597              		@ args = 0, pretend = 0, frame = 0
 3598              		@ frame_needed = 0, uses_anonymous_args = 0
 3599              		@ link register save eliminated.
 3600              	.LVL361:
 3601              		.loc 2 865 0
 3602 0000 FFF7FEBF 		b	lcfg_scanner_token_read
 3603              	.LVL362:
 3604              		.cfi_endproc
 3605              	.LFE274:
 3606              		.size	lcfg_scanner_init, .-lcfg_scanner_init
 3607 0004 AFF30080 		.section	.text.lcfg_scanner_next_token,"ax",%progbits
 3607      AFF30080 
 3607      AFF30080 
 3608              		.align	2
 3609              		.p2align 4,,15
 3610              		.global	lcfg_scanner_next_token
 3611              		.thumb
 3612              		.thumb_func
 3613              		.type	lcfg_scanner_next_token, %function
 3614              	lcfg_scanner_next_token:
 3615              	.LFB276:
 3616              		.loc 2 874 0
 3617              		.cfi_startproc
 3618              		@ args = 0, pretend = 0, frame = 0
 3619              		@ frame_needed = 0, uses_anonymous_args = 0
 3620              	.LVL363:
 3621 0000 38B5     		push	{r3, r4, r5, lr}
 3622              		.cfi_def_cfa_offset 16
ARM GAS  C:\Users\jo\AppData\Local\Temp\ccMF9q4g.s 			page 65


 3623              		.cfi_offset 3, -16
 3624              		.cfi_offset 4, -12
 3625              		.cfi_offset 5, -8
 3626              		.cfi_offset 14, -4
 3627              		.loc 2 875 0
 3628 0002 90F81831 		ldrb	r3, [r0, #280]	@ zero_extendqisi2
 3629              		.loc 2 874 0
 3630 0006 0446     		mov	r4, r0
 3631              	.LVL364:
 3632              		.loc 2 875 0
 3633 0008 9BB1     		cbz	r3, .L368
 3634 000a 0D46     		mov	r5, r1
 3635              		.loc 2 881 0
 3636 000c D0F82031 		ldr	r3, [r0, #288]	@ unaligned
 3637 0010 D0F81811 		ldr	r1, [r0, #280]	@ unaligned
 3638              	.LVL365:
 3639 0014 D0F81C21 		ldr	r2, [r0, #284]	@ unaligned
 3640 0018 6A60     		str	r2, [r5, #4]	@ unaligned
 3641 001a AB60     		str	r3, [r5, #8]	@ unaligned
 3642 001c 2960     		str	r1, [r5]	@ unaligned
 3643              		.loc 2 882 0
 3644 001e D0F81C01 		ldr	r0, [r0, #284]
 3645              	.LVL366:
 3646 0022 FFF7FEFF 		bl	lcfg_string_new_copy
 3647              	.LVL367:
 3648 0026 6860     		str	r0, [r5, #4]
 3649              		.loc 2 885 0
 3650 0028 2046     		mov	r0, r4
 3651              		.loc 2 886 0
 3652 002a BDE83840 		pop	{r3, r4, r5, lr}
 3653              		.cfi_remember_state
 3654              		.cfi_restore 14
 3655              		.cfi_restore 5
 3656              		.cfi_restore 4
 3657              		.cfi_restore 3
 3658              		.cfi_def_cfa_offset 0
 3659              	.LVL368:
 3660              		.loc 2 885 0
 3661 002e FFF7FEBF 		b	lcfg_scanner_token_read
 3662              	.LVL369:
 3663              	.L368:
 3664              		.cfi_restore_state
 3665              	.LBB299:
 3666              	.LBB300:
 3667              		.loc 2 877 0
 3668 0032 0068     		ldr	r0, [r0]
 3669              	.LVL370:
 3670 0034 0249     		ldr	r1, .L370
 3671              	.LVL371:
 3672 0036 034A     		ldr	r2, .L370+4
 3673 0038 FFF7FEFF 		bl	lcfg_error_set
 3674              	.LVL372:
 3675              	.LBE300:
 3676              	.LBE299:
 3677              		.loc 2 886 0
 3678 003c 0120     		movs	r0, #1
 3679 003e 38BD     		pop	{r3, r4, r5, pc}
ARM GAS  C:\Users\jo\AppData\Local\Temp\ccMF9q4g.s 			page 66


 3680              	.LVL373:
 3681              	.L371:
 3682              		.align	2
 3683              	.L370:
 3684 0040 48000000 		.word	.LC27
 3685 0044 44020000 		.word	.LC42
 3686              		.cfi_endproc
 3687              	.LFE276:
 3688              		.size	lcfg_scanner_next_token, .-lcfg_scanner_next_token
 3689 0048 AFF30080 		.section	.text.lcfg_parser_run,"ax",%progbits
 3689      AFF30080 
 3690              		.align	2
 3691              		.p2align 4,,15
 3692              		.global	lcfg_parser_run
 3693              		.thumb
 3694              		.thumb_func
 3695              		.type	lcfg_parser_run, %function
 3696              	lcfg_parser_run:
 3697              	.LFB283:
 3698              		.loc 2 1195 0
 3699              		.cfi_startproc
 3700              		@ args = 0, pretend = 0, frame = 56
 3701              		@ frame_needed = 0, uses_anonymous_args = 0
 3702              	.LVL374:
 3703 0000 2DE9F04F 		push	{r4, r5, r6, r7, r8, r9, r10, fp, lr}
 3704              		.cfi_def_cfa_offset 36
 3705              		.cfi_offset 4, -36
 3706              		.cfi_offset 5, -32
 3707              		.cfi_offset 6, -28
 3708              		.cfi_offset 7, -24
 3709              		.cfi_offset 8, -20
 3710              		.cfi_offset 9, -16
 3711              		.cfi_offset 10, -12
 3712              		.cfi_offset 11, -8
 3713              		.cfi_offset 14, -4
 3714              		.loc 2 1196 0
 3715 0004 0021     		movs	r1, #0
 3716              		.loc 2 1195 0
 3717 0006 91B0     		sub	sp, sp, #68
 3718              		.cfi_def_cfa_offset 104
 3719              		.loc 2 1195 0
 3720 0008 0546     		mov	r5, r0
 3721              		.loc 2 1196 0
 3722 000a 4068     		ldr	r0, [r0, #4]
 3723              	.LVL375:
 3724 000c FFF7FEFF 		bl	open
 3725              	.LVL376:
 3726              		.loc 2 1199 0
 3727 0010 B0F10009 		subs	r9, r0, #0
 3728 0014 C0F22281 		blt	.L501
 3729              		.loc 2 1205 0
 3730 0018 4946     		mov	r1, r9
 3731 001a 2868     		ldr	r0, [r5]
 3732              	.LVL377:
 3733              	.LBB363:
 3734              	.LBB364:
 3735              		.loc 2 1013 0
ARM GAS  C:\Users\jo\AppData\Local\Temp\ccMF9q4g.s 			page 67


 3736 001c BA4E     		ldr	r6, .L522
 3737              	.LBE364:
 3738              	.LBE363:
 3739              		.loc 2 1205 0
 3740 001e FFF7FEFF 		bl	lcfg_scanner_new
 3741              	.LVL378:
 3742 0022 0746     		mov	r7, r0
 3743 0024 A860     		str	r0, [r5, #8]
 3744              	.LVL379:
 3745              	.LBB418:
 3746              	.LBB415:
 3747              		.loc 2 1013 0
 3748 0026 0FCE     		ldmia	r6!, {r0, r1, r2, r3}
 3749 0028 0AAC     		add	r4, sp, #40
 3750 002a 0FC4     		stmia	r4!, {r0, r1, r2, r3}
 3751 002c 96E80300 		ldmia	r6, {r0, r1}
 3752 0030 84E80300 		stmia	r4, {r0, r1}
 3753              	.LVL380:
 3754              	.LBB365:
 3755              	.LBB366:
 3756              		.loc 2 865 0
 3757 0034 3846     		mov	r0, r7
 3758 0036 FFF7FEFF 		bl	lcfg_scanner_token_read
 3759              	.LVL381:
 3760              	.LBE366:
 3761              	.LBE365:
 3762              		.loc 2 1054 0
 3763 003a 0646     		mov	r6, r0
 3764 003c 38B1     		cbz	r0, .L502
 3765              		.loc 2 1056 0
 3766 003e 0126     		movs	r6, #1
 3767              	.LVL382:
 3768              	.L375:
 3769              	.LBE415:
 3770              	.LBE418:
 3771              		.loc 2 1209 0
 3772 0040 4846     		mov	r0, r9
 3773 0042 FFF7FEFF 		bl	close
 3774              	.LVL383:
 3775              		.loc 2 1212 0
 3776 0046 3046     		mov	r0, r6
 3777 0048 11B0     		add	sp, sp, #68
 3778              		.cfi_remember_state
 3779              		.cfi_def_cfa_offset 36
 3780              		@ sp needed
 3781 004a BDE8F08F 		pop	{r4, r5, r6, r7, r8, r9, r10, fp, pc}
 3782              	.LVL384:
 3783              	.L502:
 3784              		.cfi_restore_state
 3785              	.LBB419:
 3786              	.LBB416:
 3787              		.loc 2 1061 0
 3788 004e 4020     		movs	r0, #64
 3789 0050 FFF7FEFF 		bl	malloc
 3790              	.LVL385:
 3791              		.loc 2 1063 0
 3792 0054 0670     		strb	r6, [r0]
ARM GAS  C:\Users\jo\AppData\Local\Temp\ccMF9q4g.s 			page 68


 3793              		.loc 2 1064 0
 3794 0056 4660     		str	r6, [r0, #4]
 3795              		.loc 2 1061 0
 3796 0058 0746     		mov	r7, r0
 3797              	.LVL386:
 3798 005a 0446     		mov	r4, r0
 3799              	.LVL387:
 3800              		.loc 2 1067 0
 3801 005c FFF7FEFF 		bl	lcfg_string_new
 3802              	.LVL388:
 3803 0060 8246     		mov	r10, r0
 3804 0062 0390     		str	r0, [sp, #12]
 3805              	.LVL389:
 3806              		.loc 2 1069 0
 3807 0064 A868     		ldr	r0, [r5, #8]
 3808              	.LVL390:
 3809 0066 90F81831 		ldrb	r3, [r0, #280]	@ zero_extendqisi2
 3810 006a 002B     		cmp	r3, #0
 3811 006c 00F02F82 		beq	.L376
 3812 0070 3B78     		ldrb	r3, [r7]	@ zero_extendqisi2
 3813 0072 052B     		cmp	r3, #5
 3814 0074 00F02B82 		beq	.L376
 3815 0078 0823     		movs	r3, #8
 3816              		.loc 2 1079 0
 3817 007a DFF8C882 		ldr	r8, .L522+60
 3818 007e 0596     		str	r6, [sp, #20]
 3819              		.loc 2 1069 0
 3820 0080 B346     		mov	fp, r6
 3821 0082 0293     		str	r3, [sp, #8]
 3822 0084 CDF81090 		str	r9, [sp, #16]
 3823 0088 3E46     		mov	r6, r7
 3824              	.LVL391:
 3825              	.L442:
 3826              		.loc 2 1071 0
 3827 008a 07A9     		add	r1, sp, #28
 3828 008c FFF7FEFF 		bl	lcfg_scanner_next_token
 3829              	.LVL392:
 3830 0090 0028     		cmp	r0, #0
 3831 0092 40F0CC81 		bne	.L503
 3832              		.loc 2 1079 0
 3833 0096 4FF40073 		mov	r3, #512
 3834 009a A8F81A30 		strh	r3, [r8, #26]	@ movhi
 3835              	.LVL393:
 3836              		.loc 2 1081 0
 3837 009e 2378     		ldrb	r3, [r4]	@ zero_extendqisi2
 3838 00a0 052B     		cmp	r3, #5
 3839 00a2 69D8     		bhi	.L378
 3840 00a4 DFE803F0 		tbb	[pc, r3]
 3841              	.L380:
 3842 00a8 4C       		.byte	(.L379-.L380)/2
 3843 00a9 36       		.byte	(.L381-.L380)/2
 3844 00aa 26       		.byte	(.L382-.L380)/2
 3845 00ab 0A       		.byte	(.L383-.L380)/2
 3846 00ac 4C       		.byte	(.L379-.L380)/2
 3847 00ad 03       		.byte	(.L384-.L380)/2
 3848              		.p2align 1
 3849              	.L384:
ARM GAS  C:\Users\jo\AppData\Local\Temp\ccMF9q4g.s 			page 69


 3850              		.loc 2 1168 0
 3851 00ae 9748     		ldr	r0, .L522+4
 3852 00b0 974A     		ldr	r2, .L522+8
 3853 00b2 984B     		ldr	r3, .L522+12
 3854 00b4 4FF49261 		mov	r1, #1168
 3855 00b8 FFF7FEFF 		bl	__assert_func
 3856              	.LVL394:
 3857              	.L383:
 3858              		.loc 2 1133 0
 3859 00bc 9DF81C30 		ldrb	r3, [sp, #28]	@ zero_extendqisi2
 3860 00c0 062B     		cmp	r3, #6
 3861 00c2 00F0AA80 		beq	.L496
 3862              		.loc 2 1134 0
 3863 00c6 032B     		cmp	r3, #3
 3864 00c8 00F06381 		beq	.L504
 3865              		.loc 2 1142 0
 3866 00cc 042B     		cmp	r3, #4
 3867 00ce 00F09381 		beq	.L505
 3868              		.loc 2 1149 0
 3869 00d2 072B     		cmp	r3, #7
 3870 00d4 00F0C081 		beq	.L506
 3871              		.loc 2 1156 0
 3872 00d8 052B     		cmp	r3, #5
 3873 00da 00F00681 		beq	.L507
 3874              		.loc 2 1163 0
 3875 00de 8E4A     		ldr	r2, .L522+16
 3876 00e0 BDF92610 		ldrsh	r1, [sp, #38]
 3877 00e4 52F82320 		ldr	r2, [r2, r3, lsl #2]
 3878 00e8 2868     		ldr	r0, [r5]
 3879 00ea BDF92430 		ldrsh	r3, [sp, #36]
 3880 00ee 0091     		str	r1, [sp]
 3881 00f0 8A49     		ldr	r1, .L522+20
 3882 00f2 1DE0     		b	.L498
 3883              	.L382:
 3884              		.loc 2 1111 0
 3885 00f4 9DF81C30 		ldrb	r3, [sp, #28]	@ zero_extendqisi2
 3886 00f8 032B     		cmp	r3, #3
 3887 00fa 00F0CA80 		beq	.L508
 3888              		.loc 2 1118 0
 3889 00fe 042B     		cmp	r3, #4
 3890 0100 7BD0     		beq	.L509
 3891              		.loc 2 1122 0
 3892 0102 072B     		cmp	r3, #7
 3893 0104 40F0BA80 		bne	.L410
 3894              		.loc 2 1124 0
 3895 0108 0423     		movs	r3, #4
 3896 010a 2370     		strb	r3, [r4]
 3897 010c 824F     		ldr	r7, .L522+16
 3898 010e 06EBCB04 		add	r4, r6, fp, lsl #3
 3899 0112 34E0     		b	.L388
 3900              	.L381:
 3901              		.loc 2 1102 0
 3902 0114 9DF81C30 		ldrb	r3, [sp, #28]	@ zero_extendqisi2
 3903 0118 022B     		cmp	r3, #2
 3904 011a 6FD0     		beq	.L497
 3905              		.loc 2 1106 0
 3906 011c 7E4A     		ldr	r2, .L522+16
ARM GAS  C:\Users\jo\AppData\Local\Temp\ccMF9q4g.s 			page 70


 3907 011e BDF92610 		ldrsh	r1, [sp, #38]
 3908 0122 52F82320 		ldr	r2, [r2, r3, lsl #2]
 3909 0126 2868     		ldr	r0, [r5]
 3910 0128 BDF92430 		ldrsh	r3, [sp, #36]
 3911 012c 0091     		str	r1, [sp]
 3912 012e 7C49     		ldr	r1, .L522+24
 3913              	.L498:
 3914              		.loc 2 1163 0
 3915 0130 794F     		ldr	r7, .L522+16
 3916 0132 FFF7FEFF 		bl	lcfg_error_set
 3917              	.LVL395:
 3918              		.loc 2 1164 0
 3919 0136 0523     		movs	r3, #5
 3920 0138 2370     		strb	r3, [r4]
 3921 013a 06EBCB04 		add	r4, r6, fp, lsl #3
 3922 013e 1EE0     		b	.L388
 3923              	.L379:
 3924              		.loc 2 1085 0
 3925 0140 9DF81C20 		ldrb	r2, [sp, #28]	@ zero_extendqisi2
 3926 0144 012A     		cmp	r2, #1
 3927 0146 6CD0     		beq	.L510
 3928              		.loc 2 1090 0
 3929 0148 042B     		cmp	r3, #4
 3930 014a 00F01481 		beq	.L511
 3931              		.loc 2 1097 0
 3932 014e 724B     		ldr	r3, .L522+16
 3933 0150 2868     		ldr	r0, [r5]
 3934 0152 53F82220 		ldr	r2, [r3, r2, lsl #2]
 3935 0156 BDF926E0 		ldrsh	lr, [sp, #38]
 3936 015a 7249     		ldr	r1, .L522+28
 3937 015c 1F46     		mov	r7, r3
 3938 015e BDF92430 		ldrsh	r3, [sp, #36]
 3939              	.L445:
 3940 0162 0191     		str	r1, [sp, #4]
 3941 0164 CDF800E0 		str	lr, [sp]
 3942 0168 6F49     		ldr	r1, .L522+32
 3943 016a FFF7FEFF 		bl	lcfg_error_set
 3944              	.LVL396:
 3945              		.loc 2 1098 0
 3946 016e 0523     		movs	r3, #5
 3947 0170 2370     		strb	r3, [r4]
 3948 0172 06EBCB04 		add	r4, r6, fp, lsl #3
 3949 0176 02E0     		b	.L388
 3950              	.L378:
 3951 0178 674F     		ldr	r7, .L522+16
 3952 017a 06EBCB04 		add	r4, r6, fp, lsl #3
 3953              	.L388:
 3954              	.LVL397:
 3955              		.loc 2 1172 0
 3956 017e DDF82090 		ldr	r9, [sp, #32]
 3957              	.LVL398:
 3958              	.LBB367:
 3959              	.LBB368:
 3960              		.loc 2 477 0
 3961 0182 D9F80000 		ldr	r0, [r9]
 3962 0186 FFF7FEFF 		bl	free
 3963              	.LVL399:
ARM GAS  C:\Users\jo\AppData\Local\Temp\ccMF9q4g.s 			page 71


 3964              		.loc 2 478 0
 3965 018a 4846     		mov	r0, r9
 3966 018c FFF7FEFF 		bl	free
 3967              	.LVL400:
 3968              	.LBE368:
 3969              	.LBE367:
 3970              		.loc 2 1174 0
 3971 0190 4FF40073 		mov	r3, #512
 3972 0194 A8F81830 		strh	r3, [r8, #24]	@ movhi
 3973              	.LVL401:
 3974              		.loc 2 1176 0
 3975 0198 9DF81C20 		ldrb	r2, [sp, #28]	@ zero_extendqisi2
 3976 019c 2378     		ldrb	r3, [r4]	@ zero_extendqisi2
 3977 019e 57F82220 		ldr	r2, [r7, r2, lsl #2]
 3978 01a2 6248     		ldr	r0, .L522+36
 3979 01a4 6249     		ldr	r1, .L522+40
 3980 01a6 10AF     		add	r7, sp, #64
 3981 01a8 07EB8303 		add	r3, r7, r3, lsl #2
 3982 01ac 53F8183C 		ldr	r3, [r3, #-24]
 3983 01b0 FFF7FEFF 		bl	chprintf.constprop.11
 3984              	.LVL402:
 3985              		.loc 2 1069 0
 3986 01b4 A868     		ldr	r0, [r5, #8]
 3987              	.LVL403:
 3988 01b6 90F81831 		ldrb	r3, [r0, #280]	@ zero_extendqisi2
 3989 01ba 1BB1     		cbz	r3, .L499
 3990 01bc 2378     		ldrb	r3, [r4]	@ zero_extendqisi2
 3991 01be 052B     		cmp	r3, #5
 3992 01c0 7FF463AF 		bne	.L442
 3993              	.L499:
 3994              	.LVL404:
 3995              	.LBB369:
 3996              	.LBB370:
 3997              		.loc 2 477 0
 3998 01c4 039F     		ldr	r7, [sp, #12]
 3999 01c6 DDF81090 		ldr	r9, [sp, #16]
 4000              	.LVL405:
 4001 01ca 3868     		ldr	r0, [r7]
 4002              	.LVL406:
 4003 01cc B046     		mov	r8, r6
 4004 01ce 059E     		ldr	r6, [sp, #20]
 4005              	.LVL407:
 4006 01d0 FFF7FEFF 		bl	free
 4007              	.LVL408:
 4008              		.loc 2 478 0
 4009 01d4 3846     		mov	r0, r7
 4010 01d6 FFF7FEFF 		bl	free
 4011              	.LVL409:
 4012              	.LBE370:
 4013              	.LBE369:
 4014              		.loc 2 1181 0
 4015 01da 2378     		ldrb	r3, [r4]	@ zero_extendqisi2
 4016 01dc 1BB9     		cbnz	r3, .L441
 4017 01de BBF1000F 		cmp	fp, #0
 4018 01e2 00F0B481 		beq	.L512
 4019              	.LVL410:
 4020              	.L441:
ARM GAS  C:\Users\jo\AppData\Local\Temp\ccMF9q4g.s 			page 72


 4021              		.loc 2 1188 0
 4022 01e6 4046     		mov	r0, r8
 4023 01e8 FFF7FEFF 		bl	free
 4024              	.LVL411:
 4025              		.loc 2 1189 0
 4026 01ec 2868     		ldr	r0, [r5]
 4027 01ee 5149     		ldr	r1, .L522+44
 4028 01f0 514A     		ldr	r2, .L522+48
 4029 01f2 FFF7FEFF 		bl	lcfg_error_set
 4030              	.LVL412:
 4031              		.loc 2 1190 0
 4032 01f6 0126     		movs	r6, #1
 4033 01f8 22E7     		b	.L375
 4034              	.LVL413:
 4035              	.L509:
 4036              		.loc 2 1120 0
 4037 01fa 0323     		movs	r3, #3
 4038              	.L497:
 4039 01fc 2370     		strb	r3, [r4]
 4040 01fe 464F     		ldr	r7, .L522+16
 4041 0200 06EBCB04 		add	r4, r6, fp, lsl #3
 4042 0204 BBE7     		b	.L388
 4043              	.LVL414:
 4044              	.L394:
 4045 0206 3B46     		mov	r3, r7
 4046              	.LVL415:
 4047 0208 04E0     		b	.L396
 4048              	.LVL416:
 4049              	.L398:
 4050              	.LBB372:
 4051              	.LBB373:
 4052              		.loc 2 425 0
 4053 020a 13F8011D 		ldrb	r1, [r3, #-1]!	@ zero_extendqisi2
 4054 020e 2E29     		cmp	r1, #46
 4055 0210 00F04A81 		beq	.L450
 4056              	.LVL417:
 4057              	.L396:
 4058              		.loc 2 423 0
 4059 0214 12F1FF32 		adds	r2, r2, #-1
 4060              	.LVL418:
 4061 0218 F7D2     		bcs	.L398
 4062              	.LVL419:
 4063              	.L496:
 4064 021a 06EBCB04 		add	r4, r6, fp, lsl #3
 4065 021e 3E4F     		ldr	r7, .L522+16
 4066 0220 ADE7     		b	.L388
 4067              	.L510:
 4068              	.LVL420:
 4069              	.LBE373:
 4070              	.LBE372:
 4071              		.loc 2 1087 0
 4072 0222 DAF80430 		ldr	r3, [r10, #4]
 4073 0226 002B     		cmp	r3, #0
 4074 0228 40F0A080 		bne	.L513
 4075              	.L386:
 4076 022c 089B     		ldr	r3, [sp, #32]
 4077              	.LVL421:
ARM GAS  C:\Users\jo\AppData\Local\Temp\ccMF9q4g.s 			page 73


 4078              	.LBB374:
 4079              	.LBB375:
 4080              		.loc 2 466 0
 4081 022e 93E80600 		ldmia	r3, {r1, r2}
 4082 0232 0020     		movs	r0, #0
 4083 0234 8854     		strb	r0, [r1, r2]
 4084              	.LBE375:
 4085              	.LBE374:
 4086              		.loc 2 1087 0
 4087 0236 5046     		mov	r0, r10
 4088 0238 1968     		ldr	r1, [r3]
 4089 023a FFF7FEFF 		bl	lcfg_string_cat_cstr
 4090              	.LVL422:
 4091              		.loc 2 1088 0
 4092 023e 029B     		ldr	r3, [sp, #8]
 4093 0240 0BF1010B 		add	fp, fp, #1
 4094              	.LVL423:
 4095 0244 9B45     		cmp	fp, r3
 4096 0246 00F08481 		beq	.L514
 4097              	.L387:
 4098              	.LVL424:
 4099 024a 06EBCB04 		add	r4, r6, fp, lsl #3
 4100 024e 0122     		movs	r2, #1
 4101 0250 0023     		movs	r3, #0
 4102 0252 06F83B20 		strb	r2, [r6, fp, lsl #3]
 4103 0256 304F     		ldr	r7, .L522+16
 4104 0258 6360     		str	r3, [r4, #4]
 4105 025a 90E7     		b	.L388
 4106              	.LVL425:
 4107              	.L501:
 4108              	.LBE416:
 4109              	.LBE419:
 4110              	.LBB420:
 4111              	.LBB421:
 4112              		.loc 2 1201 0
 4113 025c 2C68     		ldr	r4, [r5]
 4114 025e FFF7FEFF 		bl	__errno
 4115              	.LVL426:
 4116 0262 0068     		ldr	r0, [r0]
 4117 0264 FFF7FEFF 		bl	strerror
 4118              	.LVL427:
 4119 0268 3449     		ldr	r1, .L522+52
 4120 026a 0246     		mov	r2, r0
 4121 026c 2046     		mov	r0, r4
 4122 026e FFF7FEFF 		bl	lcfg_error_set
 4123              	.LVL428:
 4124 0272 0126     		movs	r6, #1
 4125              	.LBE421:
 4126              	.LBE420:
 4127              		.loc 2 1212 0
 4128 0274 3046     		mov	r0, r6
 4129 0276 11B0     		add	sp, sp, #68
 4130              		.cfi_remember_state
 4131              		.cfi_def_cfa_offset 36
 4132              		@ sp needed
 4133 0278 BDE8F08F 		pop	{r4, r5, r6, r7, r8, r9, r10, fp, pc}
 4134              	.LVL429:
ARM GAS  C:\Users\jo\AppData\Local\Temp\ccMF9q4g.s 			page 74


 4135              	.L410:
 4136              		.cfi_restore_state
 4137              	.LBB422:
 4138              	.LBB417:
 4139              		.loc 2 1128 0
 4140 027c 264A     		ldr	r2, .L522+16
 4141 027e BDF92610 		ldrsh	r1, [sp, #38]
 4142 0282 52F82320 		ldr	r2, [r2, r3, lsl #2]
 4143 0286 2868     		ldr	r0, [r5]
 4144 0288 BDF92430 		ldrsh	r3, [sp, #36]
 4145 028c 0091     		str	r1, [sp]
 4146 028e 2C49     		ldr	r1, .L522+56
 4147 0290 4EE7     		b	.L498
 4148              	.L508:
 4149              	.LVL430:
 4150              	.LBB376:
 4151              	.LBB377:
 4152              		.loc 2 466 0
 4153 0292 9AE80C00 		ldmia	r10, {r2, r3}
 4154 0296 0021     		movs	r1, #0
 4155 0298 D154     		strb	r1, [r2, r3]
 4156              	.LBE377:
 4157              	.LBE376:
 4158              		.loc 2 1113 0
 4159 029a 089A     		ldr	r2, [sp, #32]
 4160 029c DAF80010 		ldr	r1, [r10]
 4161 02a0 2846     		mov	r0, r5
 4162 02a2 FFF7FEFF 		bl	lcfg_parser_add_value
 4163              	.LVL431:
 4164              	.LBB378:
 4165              	.LBB379:
 4166              		.loc 2 423 0
 4167 02a6 DAF80440 		ldr	r4, [r10, #4]
 4168 02aa 621E     		subs	r2, r4, #1
 4169              	.LBE379:
 4170              	.LBE378:
 4171              		.loc 2 1115 0
 4172 02ac 0BF1FF3B 		add	fp, fp, #-1
 4173              	.LVL432:
 4174              	.LBB381:
 4175              	.LBB380:
 4176              		.loc 2 423 0
 4177 02b0 12D4     		bmi	.L401
 4178              		.loc 2 425 0
 4179 02b2 DAF80030 		ldr	r3, [r10]
 4180 02b6 995C     		ldrb	r1, [r3, r2]	@ zero_extendqisi2
 4181 02b8 2E29     		cmp	r1, #46
 4182 02ba 03EB0207 		add	r7, r3, r2
 4183 02be 00F0F380 		beq	.L450
 4184 02c2 3946     		mov	r1, r7
 4185 02c4 1346     		mov	r3, r2
 4186 02c6 04E0     		b	.L403
 4187              	.LVL433:
 4188              	.L405:
 4189 02c8 11F8010D 		ldrb	r0, [r1, #-1]!	@ zero_extendqisi2
 4190 02cc 2E28     		cmp	r0, #46
 4191 02ce 00F0F480 		beq	.L404
ARM GAS  C:\Users\jo\AppData\Local\Temp\ccMF9q4g.s 			page 75


 4192              	.LVL434:
 4193              	.L403:
 4194              		.loc 2 423 0
 4195 02d2 13F1FF33 		adds	r3, r3, #-1
 4196              	.LVL435:
 4197 02d6 F7D2     		bcs	.L405
 4198              	.LVL436:
 4199              	.L401:
 4200              	.LBE380:
 4201              	.LBE381:
 4202              	.LBB382:
 4203              	.LBB383:
 4204              		.loc 2 436 0
 4205 02d8 002C     		cmp	r4, #0
 4206 02da 9ED0     		beq	.L496
 4207              		.loc 2 438 0
 4208 02dc 0023     		movs	r3, #0
 4209 02de CAF80430 		str	r3, [r10, #4]
 4210 02e2 06EBCB04 		add	r4, r6, fp, lsl #3
 4211 02e6 0C4F     		ldr	r7, .L522+16
 4212 02e8 49E7     		b	.L388
 4213              	.LVL437:
 4214              	.L507:
 4215              	.LBE383:
 4216              	.LBE382:
 4217              	.LBB384:
 4218              	.LBB385:
 4219              		.loc 2 423 0
 4220 02ea DAF80440 		ldr	r4, [r10, #4]
 4221              	.LVL438:
 4222 02ee 621E     		subs	r2, r4, #1
 4223              	.LVL439:
 4224 02f0 32D4     		bmi	.L430
 4225              		.loc 2 425 0
 4226 02f2 DAF80030 		ldr	r3, [r10]
 4227 02f6 995C     		ldrb	r1, [r3, r2]	@ zero_extendqisi2
 4228 02f8 2E29     		cmp	r1, #46
 4229 02fa 03EB0207 		add	r7, r3, r2
 4230 02fe 00F0FD80 		beq	.L452
 4231 0302 3946     		mov	r1, r7
 4232 0304 1346     		mov	r3, r2
 4233 0306 24E0     		b	.L432
 4234              	.L523:
 4235              		.align	2
 4236              	.L522:
 4237 0308 2C000000 		.word	.LANCHOR6+44
 4238 030c 00000000 		.word	.LC18
 4239 0310 00000000 		.word	.LANCHOR8
 4240 0314 9C030000 		.word	.LC51
 4241 0318 00000000 		.word	.LANCHOR7
 4242 031c 48030000 		.word	.LC50
 4243 0320 C8020000 		.word	.LC48
 4244 0324 6C020000 		.word	.LC43
 4245 0328 84020000 		.word	.LC47
 4246 032c 00000000 		.word	itm_port
 4247 0330 A0030000 		.word	.LC52
 4248 0334 48000000 		.word	.LC27
ARM GAS  C:\Users\jo\AppData\Local\Temp\ccMF9q4g.s 			page 76


 4249 0338 C4030000 		.word	.LC53
 4250 033c 78020000 		.word	.LC45
 4251 0340 00030000 		.word	.LC49
 4252 0344 00200240 		.word	1073881088
 4253              	.LVL440:
 4254              	.L434:
 4255 0348 11F8010D 		ldrb	r0, [r1, #-1]!	@ zero_extendqisi2
 4256 034c 2E28     		cmp	r0, #46
 4257 034e 00F0CC80 		beq	.L433
 4258              	.LVL441:
 4259              	.L432:
 4260              		.loc 2 423 0
 4261 0352 13F1FF33 		adds	r3, r3, #-1
 4262              	.LVL442:
 4263 0356 F7D2     		bcs	.L434
 4264              	.LVL443:
 4265              	.L430:
 4266              	.LBE385:
 4267              	.LBE384:
 4268              	.LBB386:
 4269              	.LBB387:
 4270              		.loc 2 436 0
 4271 0358 14B1     		cbz	r4, .L437
 4272              		.loc 2 438 0
 4273 035a 0023     		movs	r3, #0
 4274 035c CAF80430 		str	r3, [r10, #4]
 4275              	.LVL444:
 4276              	.L437:
 4277              	.LBE387:
 4278              	.LBE386:
 4279              		.loc 2 1159 0
 4280 0360 0BF1FF3B 		add	fp, fp, #-1
 4281              	.LVL445:
 4282 0364 06EBCB04 		add	r4, r6, fp, lsl #3
 4283 0368 8A4F     		ldr	r7, .L524
 4284 036a 08E7     		b	.L388
 4285              	.LVL446:
 4286              	.L513:
 4287              		.loc 2 1087 0
 4288 036c 5046     		mov	r0, r10
 4289 036e 2E21     		movs	r1, #46
 4290 0370 FFF7FEFF 		bl	lcfg_string_cat_char
 4291              	.LVL447:
 4292 0374 5AE7     		b	.L386
 4293              	.LVL448:
 4294              	.L511:
 4295              		.loc 2 1090 0
 4296 0376 082A     		cmp	r2, #8
 4297 0378 00F0CA80 		beq	.L515
 4298              		.loc 2 1097 0
 4299 037c 854B     		ldr	r3, .L524
 4300 037e 2868     		ldr	r0, [r5]
 4301 0380 53F82220 		ldr	r2, [r3, r2, lsl #2]
 4302 0384 BDF926E0 		ldrsh	lr, [sp, #38]
 4303 0388 8349     		ldr	r1, .L524+4
 4304 038a 1F46     		mov	r7, r3
 4305 038c BDF92430 		ldrsh	r3, [sp, #36]
ARM GAS  C:\Users\jo\AppData\Local\Temp\ccMF9q4g.s 			page 77


 4306 0390 E7E6     		b	.L445
 4307              	.L504:
 4308              	.LVL449:
 4309              		.loc 2 1136 0
 4310 0392 DAF80430 		ldr	r3, [r10, #4]
 4311 0396 002B     		cmp	r3, #0
 4312 0398 40F0B580 		bne	.L516
 4313              	.L413:
 4314 039c 6168     		ldr	r1, [r4, #4]
 4315 039e 5046     		mov	r0, r10
 4316 03a0 FFF7FEFF 		bl	lcfg_string_cat_uint
 4317              	.LVL450:
 4318              	.LBB388:
 4319              	.LBB389:
 4320              		.loc 2 466 0
 4321 03a4 9AE80C00 		ldmia	r10, {r2, r3}
 4322 03a8 0021     		movs	r1, #0
 4323 03aa D154     		strb	r1, [r2, r3]
 4324              	.LBE389:
 4325              	.LBE388:
 4326              		.loc 2 1137 0
 4327 03ac 089A     		ldr	r2, [sp, #32]
 4328 03ae DAF80010 		ldr	r1, [r10]
 4329 03b2 2846     		mov	r0, r5
 4330 03b4 FFF7FEFF 		bl	lcfg_parser_add_value
 4331              	.LVL451:
 4332              	.LBB390:
 4333              	.LBB391:
 4334              		.loc 2 423 0
 4335 03b8 DAF80470 		ldr	r7, [r10, #4]
 4336              	.LVL452:
 4337 03bc 7A1E     		subs	r2, r7, #1
 4338              	.LVL453:
 4339 03be 10D4     		bmi	.L414
 4340              		.loc 2 425 0
 4341 03c0 DAF80030 		ldr	r3, [r10]
 4342 03c4 995C     		ldrb	r1, [r3, r2]	@ zero_extendqisi2
 4343 03c6 2E29     		cmp	r1, #46
 4344 03c8 03EB020E 		add	lr, r3, r2
 4345 03cc 67D0     		beq	.L451
 4346 03ce 7146     		mov	r1, lr
 4347 03d0 1346     		mov	r3, r2
 4348 03d2 03E0     		b	.L416
 4349              	.LVL454:
 4350              	.L418:
 4351 03d4 11F8010D 		ldrb	r0, [r1, #-1]!	@ zero_extendqisi2
 4352 03d8 2E28     		cmp	r0, #46
 4353 03da 58D0     		beq	.L417
 4354              	.LVL455:
 4355              	.L416:
 4356              		.loc 2 423 0
 4357 03dc 13F1FF33 		adds	r3, r3, #-1
 4358              	.LVL456:
 4359 03e0 F8D2     		bcs	.L418
 4360              	.LVL457:
 4361              	.L414:
 4362              	.LBE391:
ARM GAS  C:\Users\jo\AppData\Local\Temp\ccMF9q4g.s 			page 78


 4363              	.LBE390:
 4364              	.LBB392:
 4365              	.LBB393:
 4366              		.loc 2 436 0
 4367 03e2 17B1     		cbz	r7, .L421
 4368              		.loc 2 438 0
 4369 03e4 0023     		movs	r3, #0
 4370 03e6 CAF80430 		str	r3, [r10, #4]
 4371              	.LVL458:
 4372              	.L421:
 4373              	.LBE393:
 4374              	.LBE392:
 4375              		.loc 2 1140 0
 4376 03ea 6368     		ldr	r3, [r4, #4]
 4377 03ec 694F     		ldr	r7, .L524
 4378 03ee 0133     		adds	r3, r3, #1
 4379 03f0 6360     		str	r3, [r4, #4]
 4380 03f2 06EBCB04 		add	r4, r6, fp, lsl #3
 4381 03f6 C2E6     		b	.L388
 4382              	.LVL459:
 4383              	.L505:
 4384              		.loc 2 1144 0
 4385 03f8 DAF80430 		ldr	r3, [r10, #4]
 4386 03fc 002B     		cmp	r3, #0
 4387 03fe 40F0A180 		bne	.L517
 4388              	.L424:
 4389 0402 5046     		mov	r0, r10
 4390 0404 6168     		ldr	r1, [r4, #4]
 4391 0406 FFF7FEFF 		bl	lcfg_string_cat_uint
 4392              	.LVL460:
 4393              		.loc 2 1146 0
 4394 040a 6368     		ldr	r3, [r4, #4]
 4395 040c 0133     		adds	r3, r3, #1
 4396 040e 6360     		str	r3, [r4, #4]
 4397              		.loc 2 1147 0
 4398 0410 029B     		ldr	r3, [sp, #8]
 4399 0412 0BF1010B 		add	fp, fp, #1
 4400              	.LVL461:
 4401 0416 5B45     		cmp	r3, fp
 4402 0418 00F0AA80 		beq	.L518
 4403              	.L425:
 4404              	.LVL462:
 4405 041c 06EBCB04 		add	r4, r6, fp, lsl #3
 4406 0420 0322     		movs	r2, #3
 4407 0422 0023     		movs	r3, #0
 4408 0424 06F83B20 		strb	r2, [r6, fp, lsl #3]
 4409 0428 5A4F     		ldr	r7, .L524
 4410 042a 6360     		str	r3, [r4, #4]
 4411 042c A7E6     		b	.L388
 4412              	.LVL463:
 4413              	.L503:
 4414 042e 3046     		mov	r0, r6
 4415 0430 DDF81090 		ldr	r9, [sp, #16]
 4416              		.loc 2 1073 0
 4417 0434 FFF7FEFF 		bl	free
 4418              	.LVL464:
 4419              		.loc 2 1074 0
ARM GAS  C:\Users\jo\AppData\Local\Temp\ccMF9q4g.s 			page 79


 4420 0438 089C     		ldr	r4, [sp, #32]
 4421              	.LVL465:
 4422              	.LBB394:
 4423              	.LBB395:
 4424              		.loc 2 477 0
 4425 043a 2068     		ldr	r0, [r4]
 4426 043c FFF7FEFF 		bl	free
 4427              	.LVL466:
 4428              		.loc 2 478 0
 4429 0440 2046     		mov	r0, r4
 4430 0442 FFF7FEFF 		bl	free
 4431              	.LVL467:
 4432              	.LBE395:
 4433              	.LBE394:
 4434              	.LBB396:
 4435              	.LBB397:
 4436              		.loc 2 477 0
 4437 0446 039C     		ldr	r4, [sp, #12]
 4438              	.LVL468:
 4439 0448 2068     		ldr	r0, [r4]
 4440 044a FFF7FEFF 		bl	free
 4441              	.LVL469:
 4442              		.loc 2 478 0
 4443 044e 2046     		mov	r0, r4
 4444 0450 FFF7FEFF 		bl	free
 4445              	.LVL470:
 4446              	.LBE397:
 4447              	.LBE396:
 4448              		.loc 2 1076 0
 4449 0454 0126     		movs	r6, #1
 4450              	.LVL471:
 4451 0456 F3E5     		b	.L375
 4452              	.LVL472:
 4453              	.L506:
 4454              		.loc 2 1151 0
 4455 0458 DAF80430 		ldr	r3, [r10, #4]
 4456 045c 002B     		cmp	r3, #0
 4457 045e 40F08280 		bne	.L519
 4458              	.L427:
 4459 0462 5046     		mov	r0, r10
 4460 0464 6168     		ldr	r1, [r4, #4]
 4461 0466 FFF7FEFF 		bl	lcfg_string_cat_uint
 4462              	.LVL473:
 4463              		.loc 2 1153 0
 4464 046a 6368     		ldr	r3, [r4, #4]
 4465 046c 0133     		adds	r3, r3, #1
 4466 046e 6360     		str	r3, [r4, #4]
 4467              		.loc 2 1154 0
 4468 0470 029B     		ldr	r3, [sp, #8]
 4469 0472 0BF1010B 		add	fp, fp, #1
 4470              	.LVL474:
 4471 0476 5B45     		cmp	r3, fp
 4472 0478 00F08480 		beq	.L520
 4473              	.L428:
 4474              	.LVL475:
 4475 047c 06EBCB04 		add	r4, r6, fp, lsl #3
 4476 0480 0422     		movs	r2, #4
ARM GAS  C:\Users\jo\AppData\Local\Temp\ccMF9q4g.s 			page 80


 4477 0482 0023     		movs	r3, #0
 4478 0484 06F83B20 		strb	r2, [r6, fp, lsl #3]
 4479 0488 424F     		ldr	r7, .L524
 4480 048a 6360     		str	r3, [r4, #4]
 4481 048c 77E6     		b	.L388
 4482              	.LVL476:
 4483              	.L417:
 4484 048e 7346     		mov	r3, lr
 4485              	.LVL477:
 4486              	.L419:
 4487              	.LBB398:
 4488              	.LBB399:
 4489              		.loc 2 423 0
 4490 0490 12F1FF32 		adds	r2, r2, #-1
 4491              	.LVL478:
 4492 0494 A9D3     		bcc	.L421
 4493              		.loc 2 425 0
 4494 0496 13F8011D 		ldrb	r1, [r3, #-1]!	@ zero_extendqisi2
 4495 049a 2E29     		cmp	r1, #46
 4496 049c F8D1     		bne	.L419
 4497              	.LVL479:
 4498              	.L451:
 4499              	.LBE399:
 4500              	.LBE398:
 4501              	.LBB400:
 4502              	.LBB401:
 4503              		.loc 2 436 0
 4504 049e 9742     		cmp	r7, r2
 4505              		.loc 2 438 0
 4506 04a0 88BF     		it	hi
 4507 04a2 CAF80420 		strhi	r2, [r10, #4]
 4508 04a6 A0E7     		b	.L421
 4509              	.LVL480:
 4510              	.L450:
 4511              	.LBE401:
 4512              	.LBE400:
 4513              	.LBB402:
 4514              	.LBB403:
 4515              		.loc 2 436 0
 4516 04a8 9442     		cmp	r4, r2
 4517 04aa 7FF6B6AE 		bls	.L496
 4518              		.loc 2 438 0
 4519 04ae CAF80420 		str	r2, [r10, #4]
 4520 04b2 06EBCB04 		add	r4, r6, fp, lsl #3
 4521 04b6 374F     		ldr	r7, .L524
 4522 04b8 61E6     		b	.L388
 4523              	.LVL481:
 4524              	.L404:
 4525 04ba 3B46     		mov	r3, r7
 4526              	.LVL482:
 4527 04bc 03E0     		b	.L406
 4528              	.LVL483:
 4529              	.L408:
 4530              	.LBE403:
 4531              	.LBE402:
 4532              	.LBB404:
 4533              	.LBB405:
ARM GAS  C:\Users\jo\AppData\Local\Temp\ccMF9q4g.s 			page 81


 4534              		.loc 2 425 0
 4535 04be 13F8011D 		ldrb	r1, [r3, #-1]!	@ zero_extendqisi2
 4536 04c2 2E29     		cmp	r1, #46
 4537 04c4 F0D0     		beq	.L450
 4538              	.LVL484:
 4539              	.L406:
 4540              		.loc 2 423 0
 4541 04c6 12F1FF32 		adds	r2, r2, #-1
 4542              	.LVL485:
 4543 04ca F8D2     		bcs	.L408
 4544 04cc A5E6     		b	.L496
 4545              	.LVL486:
 4546              	.L376:
 4547              	.LBE405:
 4548              	.LBE404:
 4549              	.LBB406:
 4550              	.LBB371:
 4551              		.loc 2 477 0
 4552 04ce 039B     		ldr	r3, [sp, #12]
 4553 04d0 1868     		ldr	r0, [r3]
 4554              	.LVL487:
 4555 04d2 FFF7FEFF 		bl	free
 4556              	.LVL488:
 4557              		.loc 2 478 0
 4558 04d6 0398     		ldr	r0, [sp, #12]
 4559 04d8 FFF7FEFF 		bl	free
 4560              	.LVL489:
 4561              	.LBE371:
 4562              	.LBE406:
 4563              		.loc 2 1181 0
 4564 04dc 3B78     		ldrb	r3, [r7]	@ zero_extendqisi2
 4565 04de 002B     		cmp	r3, #0
 4566 04e0 4ED1     		bne	.L521
 4567              	.LVL490:
 4568              	.L453:
 4569              		.loc 2 1183 0
 4570 04e2 2046     		mov	r0, r4
 4571 04e4 FFF7FEFF 		bl	free
 4572              	.LVL491:
 4573 04e8 AAE5     		b	.L375
 4574              	.LVL492:
 4575              	.L433:
 4576 04ea 3B46     		mov	r3, r7
 4577              	.LVL493:
 4578              	.L435:
 4579              	.LBB407:
 4580              	.LBB408:
 4581              		.loc 2 423 0
 4582 04ec 12F1FF32 		adds	r2, r2, #-1
 4583              	.LVL494:
 4584 04f0 FFF436AF 		bcc	.L437
 4585              		.loc 2 425 0
 4586 04f4 13F8011D 		ldrb	r1, [r3, #-1]!	@ zero_extendqisi2
 4587 04f8 2E29     		cmp	r1, #46
 4588 04fa F7D1     		bne	.L435
 4589              	.LVL495:
 4590              	.L452:
ARM GAS  C:\Users\jo\AppData\Local\Temp\ccMF9q4g.s 			page 82


 4591              	.LBE408:
 4592              	.LBE407:
 4593              	.LBB409:
 4594              	.LBB410:
 4595              		.loc 2 436 0
 4596 04fc 9442     		cmp	r4, r2
 4597              		.loc 2 438 0
 4598 04fe 88BF     		it	hi
 4599 0500 CAF80420 		strhi	r2, [r10, #4]
 4600 0504 2CE7     		b	.L437
 4601              	.LVL496:
 4602              	.L516:
 4603              	.LBE410:
 4604              	.LBE409:
 4605              		.loc 2 1136 0
 4606 0506 5046     		mov	r0, r10
 4607 0508 2E21     		movs	r1, #46
 4608 050a FFF7FEFF 		bl	lcfg_string_cat_char
 4609              	.LVL497:
 4610 050e 45E7     		b	.L413
 4611              	.LVL498:
 4612              	.L515:
 4613              	.LBB411:
 4614              	.LBB412:
 4615              		.loc 2 423 0
 4616 0510 DAF80440 		ldr	r4, [r10, #4]
 4617 0514 621E     		subs	r2, r4, #1
 4618              	.LBE412:
 4619              	.LBE411:
 4620              		.loc 2 1092 0
 4621 0516 0BF1FF3B 		add	fp, fp, #-1
 4622              	.LVL499:
 4623              	.LBB414:
 4624              	.LBB413:
 4625              		.loc 2 423 0
 4626 051a 3FF5DDAE 		bmi	.L401
 4627              		.loc 2 425 0
 4628 051e DAF80030 		ldr	r3, [r10]
 4629 0522 995C     		ldrb	r1, [r3, r2]	@ zero_extendqisi2
 4630 0524 2E29     		cmp	r1, #46
 4631 0526 03EB0207 		add	r7, r3, r2
 4632 052a BDD0     		beq	.L450
 4633 052c 3946     		mov	r1, r7
 4634 052e 1346     		mov	r3, r2
 4635 0530 04E0     		b	.L393
 4636              	.LVL500:
 4637              	.L395:
 4638 0532 11F8010D 		ldrb	r0, [r1, #-1]!	@ zero_extendqisi2
 4639 0536 2E28     		cmp	r0, #46
 4640 0538 3FF465AE 		beq	.L394
 4641              	.LVL501:
 4642              	.L393:
 4643              		.loc 2 423 0
 4644 053c 13F1FF33 		adds	r3, r3, #-1
 4645              	.LVL502:
 4646 0540 F7D2     		bcs	.L395
 4647 0542 C9E6     		b	.L401
ARM GAS  C:\Users\jo\AppData\Local\Temp\ccMF9q4g.s 			page 83


 4648              	.LVL503:
 4649              	.L517:
 4650              	.LBE413:
 4651              	.LBE414:
 4652              		.loc 2 1144 0
 4653 0544 5046     		mov	r0, r10
 4654 0546 2E21     		movs	r1, #46
 4655 0548 FFF7FEFF 		bl	lcfg_string_cat_char
 4656              	.LVL504:
 4657 054c 59E7     		b	.L424
 4658              	.LVL505:
 4659              	.L512:
 4660              		.loc 2 1181 0
 4661 054e 4446     		mov	r4, r8
 4662 0550 C7E7     		b	.L453
 4663              	.LVL506:
 4664              	.L514:
 4665              		.loc 2 1088 0
 4666 0552 3046     		mov	r0, r6
 4667 0554 4FEA0B11 		lsl	r1, fp, #4
 4668 0558 FFF7FEFF 		bl	realloc
 4669              	.LVL507:
 4670 055c 4FEA4B03 		lsl	r3, fp, #1
 4671 0560 0646     		mov	r6, r0
 4672              	.LVL508:
 4673 0562 0293     		str	r3, [sp, #8]
 4674              	.LVL509:
 4675 0564 71E6     		b	.L387
 4676              	.LVL510:
 4677              	.L519:
 4678              		.loc 2 1151 0
 4679 0566 5046     		mov	r0, r10
 4680 0568 2E21     		movs	r1, #46
 4681 056a FFF7FEFF 		bl	lcfg_string_cat_char
 4682              	.LVL511:
 4683 056e 78E7     		b	.L427
 4684              	.LVL512:
 4685              	.L518:
 4686              		.loc 2 1147 0
 4687 0570 5B00     		lsls	r3, r3, #1
 4688 0572 3046     		mov	r0, r6
 4689 0574 D900     		lsls	r1, r3, #3
 4690 0576 0293     		str	r3, [sp, #8]
 4691              	.LVL513:
 4692 0578 FFF7FEFF 		bl	realloc
 4693              	.LVL514:
 4694 057c 0646     		mov	r6, r0
 4695              	.LVL515:
 4696 057e 4DE7     		b	.L425
 4697              	.LVL516:
 4698              	.L521:
 4699              		.loc 2 1181 0
 4700 0580 B846     		mov	r8, r7
 4701 0582 30E6     		b	.L441
 4702              	.LVL517:
 4703              	.L520:
 4704              		.loc 2 1154 0
ARM GAS  C:\Users\jo\AppData\Local\Temp\ccMF9q4g.s 			page 84


 4705 0584 5B00     		lsls	r3, r3, #1
 4706 0586 3046     		mov	r0, r6
 4707 0588 D900     		lsls	r1, r3, #3
 4708 058a 0293     		str	r3, [sp, #8]
 4709              	.LVL518:
 4710 058c FFF7FEFF 		bl	realloc
 4711              	.LVL519:
 4712 0590 0646     		mov	r6, r0
 4713              	.LVL520:
 4714 0592 73E7     		b	.L428
 4715              	.L525:
 4716              		.align	2
 4717              	.L524:
 4718 0594 00000000 		.word	.LANCHOR7
 4719 0598 70020000 		.word	.LC44
 4720              	.LBE417:
 4721              	.LBE422:
 4722              		.cfi_endproc
 4723              	.LFE283:
 4724              		.size	lcfg_parser_run, .-lcfg_parser_run
 4725 059c AFF30080 		.section	.text.lcfg_parse,"ax",%progbits
 4726              		.align	2
 4727              		.p2align 4,,15
 4728              		.global	lcfg_parse
 4729              		.thumb
 4730              		.thumb_func
 4731              		.type	lcfg_parse, %function
 4732              	lcfg_parse:
 4733              	.LFB290:
 4734              		.loc 2 1325 0
 4735              		.cfi_startproc
 4736              		@ args = 0, pretend = 0, frame = 0
 4737              		@ frame_needed = 0, uses_anonymous_args = 0
 4738              		@ link register save eliminated.
 4739              	.LVL521:
 4740              		.loc 2 1326 0
 4741 0000 D0F80001 		ldr	r0, [r0, #256]
 4742              	.LVL522:
 4743 0004 FFF7FEBF 		b	lcfg_parser_run
 4744              	.LVL523:
 4745              		.cfi_endproc
 4746              	.LFE290:
 4747              		.size	lcfg_parse, .-lcfg_parse
 4748 0008 AFF30080 		.section	.text.lcfgx_tree_dump,"ax",%progbits
 4748      AFF30080 
 4749              		.align	2
 4750              		.p2align 4,,15
 4751              		.global	lcfgx_tree_dump
 4752              		.thumb
 4753              		.thumb_func
 4754              		.type	lcfgx_tree_dump, %function
 4755              	lcfgx_tree_dump:
 4756              	.LFB295:
 4757              		.loc 2 1395 0
 4758              		.cfi_startproc
 4759              		@ args = 0, pretend = 0, frame = 0
 4760              		@ frame_needed = 0, uses_anonymous_args = 0
ARM GAS  C:\Users\jo\AppData\Local\Temp\ccMF9q4g.s 			page 85


 4761              	.LVL524:
 4762 0000 70B5     		push	{r4, r5, r6, lr}
 4763              		.cfi_def_cfa_offset 16
 4764              		.cfi_offset 4, -16
 4765              		.cfi_offset 5, -12
 4766              		.cfi_offset 6, -8
 4767              		.cfi_offset 14, -4
 4768              	.LBB423:
 4769              	.LBB424:
 4770              		.loc 2 1401 0
 4771 0002 0D1E     		subs	r5, r1, #0
 4772              	.LBE424:
 4773              	.LBE423:
 4774              		.loc 2 1395 0
 4775 0004 0646     		mov	r6, r0
 4776              	.LBB426:
 4777              	.LBB425:
 4778              		.loc 2 1401 0
 4779 0006 C8BF     		it	gt
 4780 0008 0024     		movgt	r4, #0
 4781 000a 05DD     		ble	.L531
 4782              	.LVL525:
 4783              	.L528:
 4784 000c 0134     		adds	r4, r4, #1
 4785              	.LVL526:
 4786              		.loc 2 1402 0
 4787 000e 2020     		movs	r0, #32
 4788 0010 FFF7FEFF 		bl	putchar
 4789              	.LVL527:
 4790              		.loc 2 1401 0
 4791 0014 AC42     		cmp	r4, r5
 4792 0016 F9D1     		bne	.L528
 4793              	.LVL528:
 4794              	.L531:
 4795              	.LBE425:
 4796              	.LBE426:
 4797              		.loc 2 1406 0
 4798 0018 7168     		ldr	r1, [r6, #4]
 4799 001a D1B1     		cbz	r1, .L547
 4800              		.loc 2 1407 0
 4801 001c 0F48     		ldr	r0, .L548
 4802 001e FFF7FEFF 		bl	printf
 4803              	.LVL529:
 4804              	.L532:
 4805              		.loc 2 1413 0
 4806 0022 3378     		ldrb	r3, [r6]	@ zero_extendqisi2
 4807 0024 7BB1     		cbz	r3, .L534
 4808 0026 022B     		cmp	r3, #2
 4809 0028 0CD8     		bhi	.L527
 4810              		.loc 2 1421 0
 4811 002a 0A20     		movs	r0, #10
 4812 002c FFF7FEFF 		bl	putchar
 4813              	.LVL530:
 4814              		.loc 2 1422 0
 4815 0030 B468     		ldr	r4, [r6, #8]
 4816              	.LVL531:
 4817              		.loc 2 1423 0
ARM GAS  C:\Users\jo\AppData\Local\Temp\ccMF9q4g.s 			page 86


 4818 0032 3CB1     		cbz	r4, .L527
 4819 0034 0235     		adds	r5, r5, #2
 4820              	.LVL532:
 4821              	.L537:
 4822              		.loc 2 1424 0 discriminator 2
 4823 0036 2046     		mov	r0, r4
 4824 0038 2946     		mov	r1, r5
 4825 003a FFF7FEFF 		bl	lcfgx_tree_dump
 4826              	.LVL533:
 4827              		.loc 2 1423 0 discriminator 2
 4828 003e 2469     		ldr	r4, [r4, #16]
 4829              	.LVL534:
 4830 0040 002C     		cmp	r4, #0
 4831 0042 F8D1     		bne	.L537
 4832              	.LVL535:
 4833              	.L527:
 4834 0044 70BD     		pop	{r4, r5, r6, pc}
 4835              	.LVL536:
 4836              	.L534:
 4837              		.loc 2 1416 0
 4838 0046 B168     		ldr	r1, [r6, #8]
 4839 0048 0548     		ldr	r0, .L548+4
 4840              		.loc 2 1427 0
 4841 004a BDE87040 		pop	{r4, r5, r6, lr}
 4842              		.cfi_remember_state
 4843              		.cfi_restore 14
 4844              		.cfi_restore 6
 4845              		.cfi_restore 5
 4846              		.cfi_restore 4
 4847              		.cfi_def_cfa_offset 0
 4848              	.LVL537:
 4849              		.loc 2 1416 0
 4850 004e FFF7FEBF 		b	printf
 4851              	.LVL538:
 4852              	.L547:
 4853              		.cfi_restore_state
 4854              		.loc 2 1409 0
 4855 0052 0449     		ldr	r1, .L548+8
 4856 0054 0148     		ldr	r0, .L548
 4857 0056 FFF7FEFF 		bl	printf
 4858              	.LVL539:
 4859 005a E2E7     		b	.L532
 4860              	.L549:
 4861              		.align	2
 4862              	.L548:
 4863 005c 48000000 		.word	.LC27
 4864 0060 FC030000 		.word	.LC55
 4865 0064 F4030000 		.word	.LC54
 4866              		.cfi_endproc
 4867              	.LFE295:
 4868              		.size	lcfgx_tree_dump, .-lcfgx_tree_dump
 4869 0068 AFF30080 		.section	.text.lcfgx_correct_type,"ax",%progbits
 4869      AFF30080 
 4870              		.align	2
 4871              		.p2align 4,,15
 4872              		.global	lcfgx_correct_type
 4873              		.thumb
ARM GAS  C:\Users\jo\AppData\Local\Temp\ccMF9q4g.s 			page 87


 4874              		.thumb_func
 4875              		.type	lcfgx_correct_type, %function
 4876              	lcfgx_correct_type:
 4877              	.LFB299:
 4878              		.loc 2 1515 0
 4879              		.cfi_startproc
 4880              		@ args = 0, pretend = 0, frame = 8
 4881              		@ frame_needed = 0, uses_anonymous_args = 0
 4882              	.LVL540:
 4883 0000 30B5     		push	{r4, r5, lr}
 4884              		.cfi_def_cfa_offset 12
 4885              		.cfi_offset 4, -12
 4886              		.cfi_offset 5, -8
 4887              		.cfi_offset 14, -4
 4888              		.loc 2 1516 0
 4889 0002 0378     		ldrb	r3, [r0]	@ zero_extendqisi2
 4890              		.loc 2 1515 0
 4891 0004 83B0     		sub	sp, sp, #12
 4892              		.cfi_def_cfa_offset 24
 4893              		.loc 2 1516 0
 4894 0006 23B1     		cbz	r3, .L550
 4895              	.LVL541:
 4896              		.loc 2 1520 0
 4897 0008 4268     		ldr	r2, [r0, #4]
 4898 000a F2B1     		cbz	r2, .L569
 4899              		.loc 2 1523 0
 4900 000c 013B     		subs	r3, r3, #1
 4901 000e 012B     		cmp	r3, #1
 4902 0010 01D9     		bls	.L557
 4903              	.LVL542:
 4904              	.L550:
 4905              		.loc 2 1537 0
 4906 0012 03B0     		add	sp, sp, #12
 4907              		.cfi_remember_state
 4908              		.cfi_def_cfa_offset 12
 4909              		@ sp needed
 4910 0014 30BD     		pop	{r4, r5, pc}
 4911              	.L557:
 4912              		.cfi_restore_state
 4913              		.loc 2 1524 0
 4914 0016 8468     		ldr	r4, [r0, #8]
 4915              	.LVL543:
 4916              		.loc 2 1526 0
 4917 0018 002C     		cmp	r4, #0
 4918 001a FAD0     		beq	.L550
 4919 001c 6268     		ldr	r2, [r4, #4]
 4920              	.L558:
 4921 001e 0546     		mov	r5, r0
 4922              		.loc 2 1531 0
 4923 0020 01A9     		add	r1, sp, #4
 4924 0022 1046     		mov	r0, r2
 4925              	.LVL544:
 4926 0024 0A22     		movs	r2, #10
 4927 0026 FFF7FEFF 		bl	strtol
 4928              	.LVL545:
 4929 002a 0028     		cmp	r0, #0
 4930 002c 05DB     		blt	.L555
ARM GAS  C:\Users\jo\AppData\Local\Temp\ccMF9q4g.s 			page 88


 4931              		.loc 2 1531 0 is_stmt 0 discriminator 1
 4932 002e 019B     		ldr	r3, [sp, #4]
 4933 0030 6268     		ldr	r2, [r4, #4]
 4934 0032 9A42     		cmp	r2, r3
 4935              		.loc 2 1532 0 is_stmt 1 discriminator 1
 4936 0034 1CBF     		itt	ne
 4937 0036 0123     		movne	r3, #1
 4938 0038 2B70     		strbne	r3, [r5]
 4939              	.LVL546:
 4940              	.L555:
 4941              		.loc 2 1536 0 discriminator 3
 4942 003a 2046     		mov	r0, r4
 4943 003c FFF7FEFF 		bl	lcfgx_correct_type
 4944              	.LVL547:
 4945              		.loc 2 1535 0 discriminator 3
 4946 0040 2469     		ldr	r4, [r4, #16]
 4947              	.LVL548:
 4948 0042 002C     		cmp	r4, #0
 4949 0044 F9D1     		bne	.L555
 4950              		.loc 2 1537 0
 4951 0046 03B0     		add	sp, sp, #12
 4952              		.cfi_remember_state
 4953              		.cfi_def_cfa_offset 12
 4954              		@ sp needed
 4955 0048 30BD     		pop	{r4, r5, pc}
 4956              	.LVL549:
 4957              	.L569:
 4958              		.cfi_restore_state
 4959              		.loc 2 1523 0
 4960 004a 013B     		subs	r3, r3, #1
 4961 004c 012B     		cmp	r3, #1
 4962 004e E2D9     		bls	.L557
 4963 0050 0446     		mov	r4, r0
 4964 0052 E4E7     		b	.L558
 4965              		.cfi_endproc
 4966              	.LFE299:
 4967              		.size	lcfgx_correct_type, .-lcfgx_correct_type
 4968 0054 AFF30080 		.section	.text.lcfgx_tree_new,"ax",%progbits
 4968      AFF30080 
 4968      AFF30080 
 4969              		.align	2
 4970              		.p2align 4,,15
 4971              		.global	lcfgx_tree_new
 4972              		.thumb
 4973              		.thumb_func
 4974              		.type	lcfgx_tree_new, %function
 4975              	lcfgx_tree_new:
 4976              	.LFB300:
 4977              		.loc 2 1540 0
 4978              		.cfi_startproc
 4979              		@ args = 0, pretend = 0, frame = 0
 4980              		@ frame_needed = 0, uses_anonymous_args = 0
 4981              	.LVL550:
 4982 0000 38B5     		push	{r3, r4, r5, lr}
 4983              		.cfi_def_cfa_offset 16
 4984              		.cfi_offset 3, -16
 4985              		.cfi_offset 4, -12
ARM GAS  C:\Users\jo\AppData\Local\Temp\ccMF9q4g.s 			page 89


 4986              		.cfi_offset 5, -8
 4987              		.cfi_offset 14, -4
 4988              		.loc 2 1541 0
 4989 0002 0021     		movs	r1, #0
 4990              		.loc 2 1540 0
 4991 0004 0546     		mov	r5, r0
 4992              		.loc 2 1541 0
 4993 0006 0220     		movs	r0, #2
 4994              	.LVL551:
 4995 0008 FFF7FEFF 		bl	lcfgx_tree_node_new
 4996              	.LVL552:
 4997              		.loc 2 1543 0
 4998 000c 0023     		movs	r3, #0
 4999              		.loc 2 1541 0
 5000 000e 0446     		mov	r4, r0
 5001              	.LVL553:
 5002              		.loc 2 1543 0
 5003 0010 8360     		str	r3, [r0, #8]
 5004              	.LVL554:
 5005              	.LBB427:
 5006              	.LBB428:
 5007              		.loc 2 1331 0
 5008 0012 0549     		ldr	r1, .L572
 5009 0014 D5F80001 		ldr	r0, [r5, #256]
 5010              	.LVL555:
 5011 0018 2246     		mov	r2, r4
 5012 001a FFF7FEFF 		bl	lcfg_parser_accept
 5013              	.LVL556:
 5014              	.LBE428:
 5015              	.LBE427:
 5016              		.loc 2 1546 0
 5017 001e 2046     		mov	r0, r4
 5018 0020 FFF7FEFF 		bl	lcfgx_correct_type
 5019              	.LVL557:
 5020              		.loc 2 1548 0
 5021 0024 2046     		mov	r0, r4
 5022 0026 38BD     		pop	{r3, r4, r5, pc}
 5023              	.LVL558:
 5024              	.L573:
 5025              		.align	2
 5026              	.L572:
 5027 0028 00000000 		.word	lcfgx_tree_visitor
 5028              		.cfi_endproc
 5029              	.LFE300:
 5030              		.size	lcfgx_tree_new, .-lcfgx_tree_new
 5031 002c AFF30080 		.section	.text.lcfgx_tree_delete,"ax",%progbits
 5032              		.align	2
 5033              		.p2align 4,,15
 5034              		.global	lcfgx_tree_delete
 5035              		.thumb
 5036              		.thumb_func
 5037              		.type	lcfgx_tree_delete, %function
 5038              	lcfgx_tree_delete:
 5039              	.LFB301:
 5040              		.loc 2 1551 0
 5041              		.cfi_startproc
 5042              		@ args = 0, pretend = 0, frame = 0
ARM GAS  C:\Users\jo\AppData\Local\Temp\ccMF9q4g.s 			page 90


 5043              		@ frame_needed = 0, uses_anonymous_args = 0
 5044              	.LVL559:
 5045 0000 38B5     		push	{r3, r4, r5, lr}
 5046              		.cfi_def_cfa_offset 16
 5047              		.cfi_offset 3, -16
 5048              		.cfi_offset 4, -12
 5049              		.cfi_offset 5, -8
 5050              		.cfi_offset 14, -4
 5051              		.loc 2 1553 0
 5052 0002 0378     		ldrb	r3, [r0]	@ zero_extendqisi2
 5053              		.loc 2 1551 0
 5054 0004 0546     		mov	r5, r0
 5055              	.LBB429:
 5056              		.loc 2 1557 0
 5057 0006 8068     		ldr	r0, [r0, #8]
 5058              	.LVL560:
 5059              	.LBE429:
 5060              		.loc 2 1553 0
 5061 0008 7BB1     		cbz	r3, .L575
 5062              	.LVL561:
 5063              	.LBB430:
 5064              		.loc 2 1557 0
 5065 000a 28B1     		cbz	r0, .L577
 5066              	.L578:
 5067              		.loc 2 1559 0
 5068 000c 0469     		ldr	r4, [r0, #16]
 5069              	.LVL562:
 5070              		.loc 2 1560 0
 5071 000e FFF7FEFF 		bl	lcfgx_tree_delete
 5072              	.LVL563:
 5073              		.loc 2 1557 0
 5074 0012 2046     		mov	r0, r4
 5075 0014 002C     		cmp	r4, #0
 5076 0016 F9D1     		bne	.L578
 5077              	.LVL564:
 5078              	.L577:
 5079              	.LBE430:
 5080              		.loc 2 1569 0
 5081 0018 6868     		ldr	r0, [r5, #4]
 5082 001a 08B1     		cbz	r0, .L580
 5083              		.loc 2 1570 0
 5084 001c FFF7FEFF 		bl	free
 5085              	.LVL565:
 5086              	.L580:
 5087              		.loc 2 1572 0
 5088 0020 2846     		mov	r0, r5
 5089              		.loc 2 1573 0
 5090 0022 BDE83840 		pop	{r3, r4, r5, lr}
 5091              		.cfi_remember_state
 5092              		.cfi_restore 14
 5093              		.cfi_restore 5
 5094              		.cfi_restore 4
 5095              		.cfi_restore 3
 5096              		.cfi_def_cfa_offset 0
 5097              	.LVL566:
 5098              		.loc 2 1572 0
 5099 0026 FFF7FEBF 		b	free
ARM GAS  C:\Users\jo\AppData\Local\Temp\ccMF9q4g.s 			page 91


 5100              	.LVL567:
 5101              	.L575:
 5102              		.cfi_restore_state
 5103              		.loc 2 1566 0
 5104 002a FFF7FEFF 		bl	free
 5105              	.LVL568:
 5106 002e F3E7     		b	.L577
 5107              		.cfi_endproc
 5108              	.LFE301:
 5109              		.size	lcfgx_tree_delete, .-lcfgx_tree_delete
 5110              		.section	.text.cfg_get_recursive,"ax",%progbits
 5111              		.align	2
 5112              		.p2align 4,,15
 5113              		.global	cfg_get_recursive
 5114              		.thumb
 5115              		.thumb_func
 5116              		.type	cfg_get_recursive, %function
 5117              	cfg_get_recursive:
 5118              	.LFB302:
 5119              		.loc 2 1583 0
 5120              		.cfi_startproc
 5121              		@ args = 0, pretend = 0, frame = 0
 5122              		@ frame_needed = 0, uses_anonymous_args = 0
 5123              	.LVL569:
 5124 0000 F8B5     		push	{r3, r4, r5, r6, r7, lr}
 5125              		.cfi_def_cfa_offset 24
 5126              		.cfi_offset 3, -24
 5127              		.cfi_offset 4, -20
 5128              		.cfi_offset 5, -16
 5129              		.cfi_offset 6, -12
 5130              		.cfi_offset 7, -8
 5131              		.cfi_offset 14, -4
 5132              		.loc 2 1583 0
 5133 0002 0446     		mov	r4, r0
 5134 0004 0E46     		mov	r6, r1
 5135              		.loc 2 1586 0
 5136 0006 A468     		ldr	r4, [r4, #8]
 5137              	.LVL570:
 5138 0008 171F     		subs	r7, r2, #4
 5139 000a 84B1     		cbz	r4, .L594
 5140              	.LVL571:
 5141              	.L601:
 5142 000c 57F8045F 		ldr	r5, [r7, #4]!
 5143 0010 01E0     		b	.L589
 5144              	.L600:
 5145              		.loc 2 1586 0 is_stmt 0 discriminator 2
 5146 0012 2469     		ldr	r4, [r4, #16]
 5147              	.LVL572:
 5148 0014 5CB1     		cbz	r4, .L594
 5149              	.L589:
 5150              		.loc 2 1588 0 is_stmt 1
 5151 0016 2846     		mov	r0, r5
 5152 0018 6168     		ldr	r1, [r4, #4]
 5153 001a FFF7FEFF 		bl	strcmp
 5154              	.LVL573:
 5155 001e 0028     		cmp	r0, #0
 5156 0020 F7D1     		bne	.L600
ARM GAS  C:\Users\jo\AppData\Local\Temp\ccMF9q4g.s 			page 92


 5157              		.loc 2 1594 0
 5158 0022 012E     		cmp	r6, #1
 5159 0024 03D0     		beq	.L594
 5160              		.loc 2 1586 0
 5161 0026 A468     		ldr	r4, [r4, #8]
 5162              	.LVL574:
 5163              		.loc 2 1597 0
 5164 0028 013E     		subs	r6, r6, #1
 5165              		.loc 2 1586 0
 5166 002a 002C     		cmp	r4, #0
 5167 002c EED1     		bne	.L601
 5168              	.L594:
 5169              		.loc 2 1601 0
 5170 002e 2046     		mov	r0, r4
 5171 0030 F8BD     		pop	{r3, r4, r5, r6, r7, pc}
 5172              		.cfi_endproc
 5173              	.LFE302:
 5174              		.size	cfg_get_recursive, .-cfg_get_recursive
 5175 0032 00BFAFF3 		.section	.text.lcfgx_get,"ax",%progbits
 5175      0080AFF3 
 5175      0080AFF3 
 5175      0080
 5176              		.align	2
 5177              		.p2align 4,,15
 5178              		.global	lcfgx_get
 5179              		.thumb
 5180              		.thumb_func
 5181              		.type	lcfgx_get, %function
 5182              	lcfgx_get:
 5183              	.LFB303:
 5184              		.loc 2 1605 0
 5185              		.cfi_startproc
 5186              		@ args = 0, pretend = 0, frame = 8
 5187              		@ frame_needed = 1, uses_anonymous_args = 0
 5188              	.LVL575:
 5189 0000 2DE9F04F 		push	{r4, r5, r6, r7, r8, r9, r10, fp, lr}
 5190              		.cfi_def_cfa_offset 36
 5191              		.cfi_offset 4, -36
 5192              		.cfi_offset 5, -32
 5193              		.cfi_offset 6, -28
 5194              		.cfi_offset 7, -24
 5195              		.cfi_offset 8, -20
 5196              		.cfi_offset 9, -16
 5197              		.cfi_offset 10, -12
 5198              		.cfi_offset 11, -8
 5199              		.cfi_offset 14, -4
 5200 0004 83B0     		sub	sp, sp, #12
 5201              		.cfi_def_cfa_offset 48
 5202 0006 0646     		mov	r6, r0
 5203 0008 00AF     		add	r7, sp, #0
 5204              		.cfi_def_cfa_register 7
 5205              		.loc 2 1606 0
 5206 000a 1046     		mov	r0, r2
 5207              	.LVL576:
 5208              		.loc 2 1605 0
 5209 000c 1446     		mov	r4, r2
 5210 000e 8A46     		mov	r10, r1
ARM GAS  C:\Users\jo\AppData\Local\Temp\ccMF9q4g.s 			page 93


 5211 0010 9946     		mov	r9, r3
 5212              		.loc 2 1606 0
 5213 0012 FFF7FEFF 		bl	strlen
 5214              	.LVL577:
 5215 0016 00F10803 		add	r3, r0, #8
 5216 001a 23F00703 		bic	r3, r3, #7
 5217 001e ADEB030D 		sub	sp, sp, r3
 5218              		.loc 2 1609 0
 5219 0022 421C     		adds	r2, r0, #1
 5220              	.LVL578:
 5221 0024 2146     		mov	r1, r4
 5222 0026 6846     		mov	r0, sp
 5223 0028 FFF7FEFF 		bl	strncpy
 5224              	.LVL579:
 5225              		.loc 2 1606 0
 5226 002c 6846     		mov	r0, sp
 5227              	.LVL580:
 5228 002e 621E     		subs	r2, r4, #1
 5229              		.loc 2 1607 0
 5230 0030 0121     		movs	r1, #1
 5231              		.loc 2 1611 0
 5232 0032 02E0     		b	.L603
 5233              	.LVL581:
 5234              	.L605:
 5235              		.loc 2 1612 0
 5236 0034 2E2B     		cmp	r3, #46
 5237              		.loc 2 1613 0
 5238 0036 08BF     		it	eq
 5239 0038 0131     		addeq	r1, r1, #1
 5240              	.LVL582:
 5241              	.L603:
 5242              		.loc 2 1611 0
 5243 003a 12F8013F 		ldrb	r3, [r2, #1]!	@ zero_extendqisi2
 5244              	.LVL583:
 5245 003e 002B     		cmp	r3, #0
 5246 0040 F8D1     		bne	.L605
 5247              	.LVL584:
 5248              		.loc 2 1615 0
 5249 0042 8900     		lsls	r1, r1, #2
 5250              	.LVL585:
 5251 0044 0A31     		adds	r1, r1, #10
 5252 0046 21F00701 		bic	r1, r1, #7
 5253              		.loc 2 1617 0
 5254 004a 07F10805 		add	r5, r7, #8
 5255              		.loc 2 1615 0
 5256 004e ADEB010D 		sub	sp, sp, r1
 5257 0052 E846     		mov	r8, sp
 5258              	.LVL586:
 5259 0054 ADF10404 		sub	r4, sp, #4
 5260              		.loc 2 1617 0
 5261 0058 45F8043D 		str	r3, [r5, #-4]!
 5262              	.LVL587:
 5263              		.loc 2 1618 0
 5264 005c 9B46     		mov	fp, r3
 5265 005e 04E0     		b	.L606
 5266              	.LVL588:
 5267              	.L607:
ARM GAS  C:\Users\jo\AppData\Local\Temp\ccMF9q4g.s 			page 94


 5268              		.loc 2 1621 0
 5269 0060 44F8040F 		str	r0, [r4, #4]!
 5270 0064 0BF1010B 		add	fp, fp, #1
 5271              	.LVL589:
 5272              		.loc 2 1620 0
 5273 0068 0020     		movs	r0, #0
 5274              	.LVL590:
 5275              	.L606:
 5276              		.loc 2 1620 0 is_stmt 0 discriminator 4
 5277 006a 1349     		ldr	r1, .L619
 5278 006c 2A46     		mov	r2, r5
 5279 006e FFF7FEFF 		bl	strtok_r
 5280              	.LVL591:
 5281 0072 0028     		cmp	r0, #0
 5282 0074 F4D1     		bne	.L607
 5283              		.loc 2 1626 0 is_stmt 1
 5284 0076 BBF1000F 		cmp	fp, #0
 5285 007a 08D1     		bne	.L616
 5286              	.LVL592:
 5287              		.loc 2 1631 0
 5288 007c 7EB1     		cbz	r6, .L610
 5289              	.LVL593:
 5290              	.L618:
 5291              		.loc 2 1634 0
 5292 007e 3378     		ldrb	r3, [r6]	@ zero_extendqisi2
 5293 0080 4B45     		cmp	r3, r9
 5294 0082 11D0     		beq	.L617
 5295              		.loc 2 1635 0
 5296 0084 0120     		movs	r0, #1
 5297              		.loc 2 1640 0
 5298 0086 0C37     		adds	r7, r7, #12
 5299              		.cfi_remember_state
 5300              		.cfi_def_cfa_offset 36
 5301 0088 BD46     		mov	sp, r7
 5302              		.cfi_def_cfa_register 13
 5303              		@ sp needed
 5304 008a BDE8F08F 		pop	{r4, r5, r6, r7, r8, r9, r10, fp, pc}
 5305              	.LVL594:
 5306              	.L616:
 5307              		.cfi_restore_state
 5308              		.loc 2 1629 0
 5309 008e 3046     		mov	r0, r6
 5310              	.LVL595:
 5311 0090 5946     		mov	r1, fp
 5312 0092 4246     		mov	r2, r8
 5313 0094 FFF7FEFF 		bl	cfg_get_recursive
 5314              	.LVL596:
 5315 0098 0646     		mov	r6, r0
 5316              	.LVL597:
 5317              		.loc 2 1631 0
 5318 009a 002E     		cmp	r6, #0
 5319 009c EFD1     		bne	.L618
 5320              	.LVL598:
 5321              	.L610:
 5322              		.loc 2 1632 0
 5323 009e 3046     		mov	r0, r6
 5324              		.loc 2 1640 0
ARM GAS  C:\Users\jo\AppData\Local\Temp\ccMF9q4g.s 			page 95


 5325 00a0 0C37     		adds	r7, r7, #12
 5326              		.cfi_remember_state
 5327              		.cfi_def_cfa_offset 36
 5328 00a2 BD46     		mov	sp, r7
 5329              		.cfi_def_cfa_register 13
 5330              		@ sp needed
 5331 00a4 BDE8F08F 		pop	{r4, r5, r6, r7, r8, r9, r10, fp, pc}
 5332              	.LVL599:
 5333              	.L617:
 5334              		.cfi_restore_state
 5335              		.loc 2 1639 0
 5336 00a8 0220     		movs	r0, #2
 5337              		.loc 2 1640 0
 5338 00aa 0C37     		adds	r7, r7, #12
 5339              		.cfi_def_cfa_offset 36
 5340              		.loc 2 1637 0
 5341 00ac CAF80060 		str	r6, [r10]
 5342              		.loc 2 1640 0
 5343 00b0 BD46     		mov	sp, r7
 5344              		.cfi_def_cfa_register 13
 5345              		@ sp needed
 5346 00b2 BDE8F08F 		pop	{r4, r5, r6, r7, r8, r9, r10, fp, pc}
 5347              	.LVL600:
 5348              	.L620:
 5349 00b6 00BF     		.align	2
 5350              	.L619:
 5351 00b8 30000000 		.word	.LC23
 5352              		.cfi_endproc
 5353              	.LFE303:
 5354              		.size	lcfgx_get, .-lcfgx_get
 5355 00bc AFF30080 		.section	.text.lcfgx_get_list,"ax",%progbits
 5356              		.align	2
 5357              		.p2align 4,,15
 5358              		.global	lcfgx_get_list
 5359              		.thumb
 5360              		.thumb_func
 5361              		.type	lcfgx_get_list, %function
 5362              	lcfgx_get_list:
 5363              	.LFB304:
 5364              		.loc 2 1643 0
 5365              		.cfi_startproc
 5366              		@ args = 0, pretend = 0, frame = 0
 5367              		@ frame_needed = 0, uses_anonymous_args = 0
 5368              		@ link register save eliminated.
 5369              	.LVL601:
 5370              		.loc 2 1644 0
 5371 0000 0123     		movs	r3, #1
 5372 0002 FFF7FEBF 		b	lcfgx_get
 5373              	.LVL602:
 5374              		.cfi_endproc
 5375              	.LFE304:
 5376              		.size	lcfgx_get_list, .-lcfgx_get_list
 5377 0006 00BFAFF3 		.section	.text.lcfgx_get_map,"ax",%progbits
 5377      0080AFF3 
 5377      0080
 5378              		.align	2
 5379              		.p2align 4,,15
ARM GAS  C:\Users\jo\AppData\Local\Temp\ccMF9q4g.s 			page 96


 5380              		.global	lcfgx_get_map
 5381              		.thumb
 5382              		.thumb_func
 5383              		.type	lcfgx_get_map, %function
 5384              	lcfgx_get_map:
 5385              	.LFB305:
 5386              		.loc 2 1648 0
 5387              		.cfi_startproc
 5388              		@ args = 0, pretend = 0, frame = 0
 5389              		@ frame_needed = 0, uses_anonymous_args = 0
 5390              		@ link register save eliminated.
 5391              	.LVL603:
 5392              		.loc 2 1649 0
 5393 0000 0223     		movs	r3, #2
 5394 0002 FFF7FEBF 		b	lcfgx_get
 5395              	.LVL604:
 5396              		.cfi_endproc
 5397              	.LFE305:
 5398              		.size	lcfgx_get_map, .-lcfgx_get_map
 5399 0006 00BFAFF3 		.section	.text.lcfgx_get_string,"ax",%progbits
 5399      0080AFF3 
 5399      0080
 5400              		.align	2
 5401              		.p2align 4,,15
 5402              		.global	lcfgx_get_string
 5403              		.thumb
 5404              		.thumb_func
 5405              		.type	lcfgx_get_string, %function
 5406              	lcfgx_get_string:
 5407              	.LFB306:
 5408              		.loc 2 1653 0
 5409              		.cfi_startproc
 5410              		@ args = 0, pretend = 0, frame = 0
 5411              		@ frame_needed = 0, uses_anonymous_args = 0
 5412              		@ link register save eliminated.
 5413              	.LVL605:
 5414              		.loc 2 1654 0
 5415 0000 0023     		movs	r3, #0
 5416 0002 FFF7FEBF 		b	lcfgx_get
 5417              	.LVL606:
 5418              		.cfi_endproc
 5419              	.LFE306:
 5420              		.size	lcfgx_get_string, .-lcfgx_get_string
 5421              		.global	lcfgx_path_access_strings
 5422              		.global	lcfg_token_map
 5423              		.section	.rodata
 5424              		.align	2
 5425              		.set	.LANCHOR6,. + 0
 5426              	.LC31:
 5427 0000 44040000 		.word	.LC0
 5428 0004 4C040000 		.word	.LC1
 5429 0008 58040000 		.word	.LC2
 5430 000c 64040000 		.word	.LC3
 5431 0010 74040000 		.word	.LC4
 5432 0014 84040000 		.word	.LC5
 5433 0018 94040000 		.word	.LC6
 5434 001c 9C040000 		.word	.LC7
ARM GAS  C:\Users\jo\AppData\Local\Temp\ccMF9q4g.s 			page 97


 5435 0020 A4040000 		.word	.LC8
 5436 0024 B8040000 		.word	.LC9
 5437 0028 3C040000 		.word	.LC10
 5438              	.LC46:
 5439 002c 08040000 		.word	.LC12
 5440 0030 14040000 		.word	.LC13
 5441 0034 20040000 		.word	.LC14
 5442 0038 2C040000 		.word	.LC15
 5443 003c 34040000 		.word	.LC16
 5444 0040 3C040000 		.word	.LC10
 5445              		.section	.rodata.__FUNCTION__.9289,"a",%progbits
 5446              		.align	2
 5447              		.set	.LANCHOR0,. + 0
 5448              		.type	__FUNCTION__.9289, %object
 5449              		.size	__FUNCTION__.9289, 16
 5450              	__FUNCTION__.9289:
 5451 0000 6C636667 		.ascii	"lcfg_string_new\000"
 5451      5F737472 
 5451      696E675F 
 5451      6E657700 
 5452              		.section	.rodata.__FUNCTION__.9540,"a",%progbits
 5453              		.align	2
 5454              		.set	.LANCHOR5,. + 0
 5455              		.type	__FUNCTION__.9540, %object
 5456              		.size	__FUNCTION__.9540, 9
 5457              	__FUNCTION__.9540:
 5458 0000 6C636667 		.ascii	"lcfg_new\000"
 5458      5F6E6577 
 5458      00
 5459 0009 000000   		.section	.rodata.__FUNCTION__.9499,"a",%progbits
 5460              		.align	2
 5461              		.set	.LANCHOR8,. + 0
 5462              		.type	__FUNCTION__.9499, %object
 5463              		.size	__FUNCTION__.9499, 18
 5464              	__FUNCTION__.9499:
 5465 0000 6C636667 		.ascii	"lcfg_parser_parse\000"
 5465      5F706172 
 5465      7365725F 
 5465      70617273 
 5465      6500
 5466 0012 0000     		.section	.rodata.__FUNCTION__.9466,"a",%progbits
 5467              		.align	2
 5468              		.set	.LANCHOR3,. + 0
 5469              		.type	__FUNCTION__.9466, %object
 5470              		.size	__FUNCTION__.9466, 22
 5471              	__FUNCTION__.9466:
 5472 0000 6C636667 		.ascii	"lcfg_parser_add_value\000"
 5472      5F706172 
 5472      7365725F 
 5472      6164645F 
 5472      76616C75 
 5473 0016 0000     		.section	.rodata.__FUNCTION__.9472,"a",%progbits
 5474              		.align	2
 5475              		.set	.LANCHOR4,. + 0
 5476              		.type	__FUNCTION__.9472, %object
 5477              		.size	__FUNCTION__.9472, 16
 5478              	__FUNCTION__.9472:
ARM GAS  C:\Users\jo\AppData\Local\Temp\ccMF9q4g.s 			page 98


 5479 0000 6C636667 		.ascii	"lcfg_parser_new\000"
 5479      5F706172 
 5479      7365725F 
 5479      6E657700 
 5480              		.section	.rodata.str1.4,"aMS",%progbits,1
 5481              		.align	2
 5482              	.LC18:
 5483 0000 6C636667 		.ascii	"lcfg_static.c\000"
 5483      5F737461 
 5483      7469632E 
 5483      6300
 5484 000e 0000     		.space	2
 5485              	.LC19:
 5486 0010 7300     		.ascii	"s\000"
 5487 0012 0000     		.space	2
 5488              	.LC20:
 5489 0014 732D3E73 		.ascii	"s->str\000"
 5489      747200
 5490 001b 00       		.space	1
 5491              	.LC21:
 5492 001c 735F6E65 		.ascii	"s_new\000"
 5492      7700
 5493 0022 0000     		.space	2
 5494              	.LC22:
 5495 0024 702D3E76 		.ascii	"p->values\000"
 5495      616C7565 
 5495      7300
 5496 002e 0000     		.space	2
 5497              	.LC23:
 5498 0030 2E00     		.ascii	".\000"
 5499 0032 0000     		.space	2
 5500              	.LC24:
 5501 0034 7000     		.ascii	"p\000"
 5502 0036 0000     		.space	2
 5503              	.LC25:
 5504 0038 6300     		.ascii	"c\000"
 5505 003a 0000     		.space	2
 5506              	.LC26:
 5507 003c 632D3E70 		.ascii	"c->parser\000"
 5507      61727365 
 5507      7200
 5508 0046 0000     		.space	2
 5509              	.LC27:
 5510 0048 257300   		.ascii	"%s\000"
 5511 004b 00       		.space	1
 5512              	.LC28:
 5513 004c 636F6E66 		.ascii	"configuration value traversal aborted upon user req"
 5513      69677572 
 5513      6174696F 
 5513      6E207661 
 5513      6C756520 
 5514 007f 75657374 		.ascii	"uest\000"
 5514      00
 5515              	.LC29:
 5516 0084 74727565 		.ascii	"true\000"
 5516      00
 5517 0089 000000   		.space	3
ARM GAS  C:\Users\jo\AppData\Local\Temp\ccMF9q4g.s 			page 99


 5518              	.LC30:
 5519 008c 66616C73 		.ascii	"false\000"
 5519      6500
 5520 0092 0000     		.space	2
 5521              	.LC32:
 5522 0094 72656164 		.ascii	"read(): %s\000"
 5522      28293A20 
 5522      257300
 5523 009f 00       		.space	1
 5524              	.LC33:
 5525 00a0 202A2A2A 		.ascii	" *** scanner: print buffer %s with file size %i\012"
 5525      20736361 
 5525      6E6E6572 
 5525      3A207072 
 5525      696E7420 
 5526 00d0 00       		.ascii	"\000"
 5527 00d1 000000   		.space	3
 5528              	.LC34:
 5529 00d4 202A2A2A 		.ascii	" *** scanner: s->eof %s\012\000"
 5529      20736361 
 5529      6E6E6572 
 5529      3A20732D 
 5529      3E656F66 
 5530 00ed 000000   		.space	3
 5531              	.LC35:
 5532 00f0 63616E6E 		.ascii	"cannot peek beyond eof\000"
 5532      6F742070 
 5532      65656B20 
 5532      6265796F 
 5532      6E642065 
 5533 0107 00       		.space	1
 5534              	.LC36:
 5535 0108 70617273 		.ascii	"parse error: invalid input character `%c' (0x%02x) "
 5535      65206572 
 5535      726F723A 
 5535      20696E76 
 5535      616C6964 
 5536 013b 6E656172 		.ascii	"near line %d, col %d\000"
 5536      206C696E 
 5536      65202564 
 5536      2C20636F 
 5536      6C202564 
 5537              	.LC37:
 5538 0150 696E7661 		.ascii	"invalid string escape sequence `%c' near line %d, c"
 5538      6C696420 
 5538      73747269 
 5538      6E672065 
 5538      73636170 
 5539 0183 6F6C2025 		.ascii	"ol %d\000"
 5539      6400
 5540 0189 000000   		.space	3
 5541              	.LC38:
 5542 018c 696E7661 		.ascii	"invalid hex escape sequence `%c' on line %d column "
 5542      6C696420 
 5542      68657820 
 5542      65736361 
 5542      70652073 
ARM GAS  C:\Users\jo\AppData\Local\Temp\ccMF9q4g.s 			page 100


 5543 01bf 256400   		.ascii	"%d\000"
 5544 01c2 0000     		.space	2
 5545              	.LC39:
 5546 01c4 72656164 		.ascii	"read %c at line %d column %d, new state is %s\012\000"
 5546      20256320 
 5546      6174206C 
 5546      696E6520 
 5546      25642063 
 5547 01f3 00       		.space	1
 5548              	.LC40:
 5549 01f4 63616E6E 		.ascii	"cannot read beyond eof\000"
 5549      6F742072 
 5549      65616420 
 5549      6265796F 
 5549      6E642065 
 5550 020b 00       		.space	1
 5551              	.LC41:
 5552 020c 70617273 		.ascii	"parse error: premature end of file near line %d, co"
 5552      65206572 
 5552      726F723A 
 5552      20707265 
 5552      6D617475 
 5553 023f 6C202564 		.ascii	"l %d\000"
 5553      00
 5554              	.LC42:
 5555 0244 63616E6E 		.ascii	"cannot access tokenstream beyond eof\000"
 5555      6F742061 
 5555      63636573 
 5555      7320746F 
 5555      6B656E73 
 5556 0269 000000   		.space	3
 5557              	.LC43:
 5558 026c 00       		.ascii	"\000"
 5559 026d 000000   		.space	3
 5560              	.LC44:
 5561 0270 206F7220 		.ascii	" or `}'\000"
 5561      607D2700 
 5562              	.LC45:
 5563 0278 6F70656E 		.ascii	"open(): %s\000"
 5563      28293A20 
 5563      257300
 5564 0283 00       		.space	1
 5565              	.LC47:
 5566 0284 696E7661 		.ascii	"invalid token (%s) near line %d column %d: expected"
 5566      6C696420 
 5566      746F6B65 
 5566      6E202825 
 5566      7329206E 
 5567 02b7 20696465 		.ascii	" identifier%s\000"
 5567      6E746966 
 5567      69657225 
 5567      7300
 5568 02c5 000000   		.space	3
 5569              	.LC48:
 5570 02c8 696E7661 		.ascii	"invalid token (%s) near line %d column %d: expected"
 5570      6C696420 
 5570      746F6B65 
ARM GAS  C:\Users\jo\AppData\Local\Temp\ccMF9q4g.s 			page 101


 5570      6E202825 
 5570      7329206E 
 5571 02fb 20603D27 		.ascii	" `='\000"
 5571      00
 5572              	.LC49:
 5573 0300 696E7661 		.ascii	"invalid token (%s) near line %d column %d: expected"
 5573      6C696420 
 5573      746F6B65 
 5573      6E202825 
 5573      7329206E 
 5574 0333 20737472 		.ascii	" string, `[' or `{'\000"
 5574      696E672C 
 5574      20605B27 
 5574      206F7220 
 5574      607B2700 
 5575 0347 00       		.space	1
 5576              	.LC50:
 5577 0348 696E7661 		.ascii	"invalid token (%s) near line %d column %d: expected"
 5577      6C696420 
 5577      746F6B65 
 5577      6E202825 
 5577      7329206E 
 5578 037b 20737472 		.ascii	" string, `[', `{', `,' or `]'\000"
 5578      696E672C 
 5578      20605B27 
 5578      2C20607B 
 5578      272C2060 
 5579 0399 000000   		.space	3
 5580              	.LC51:
 5581 039c 3000     		.ascii	"0\000"
 5582 039e 0000     		.space	2
 5583              	.LC52:
 5584 03a0 202A2A2A 		.ascii	" *** pda: read %s, state is now %s\012\000"
 5584      20706461 
 5584      3A207265 
 5584      61642025 
 5584      732C2073 
 5585              	.LC53:
 5586 03c4 756E6578 		.ascii	"unexpected end of file: unterminated list/map?\000"
 5586      70656374 
 5586      65642065 
 5586      6E64206F 
 5586      66206669 
 5587 03f3 00       		.space	1
 5588              	.LC54:
 5589 03f4 286E6F6E 		.ascii	"(none)\000"
 5589      652900
 5590 03fb 00       		.space	1
 5591              	.LC55:
 5592 03fc 203D2022 		.ascii	" = \"%s\"\012\000"
 5592      2573220A 
 5592      00
 5593 0405 000000   		.space	3
 5594              	.LC12:
 5595 0408 746F705F 		.ascii	"top_level\000"
 5595      6C657665 
 5595      6C00
ARM GAS  C:\Users\jo\AppData\Local\Temp\ccMF9q4g.s 			page 102


 5596 0412 0000     		.space	2
 5597              	.LC13:
 5598 0414 6578705F 		.ascii	"exp_equals\000"
 5598      65717561 
 5598      6C7300
 5599 041f 00       		.space	1
 5600              	.LC14:
 5601 0420 6578705F 		.ascii	"exp_value\000"
 5601      76616C75 
 5601      6500
 5602 042a 0000     		.space	2
 5603              	.LC15:
 5604 042c 696E5F6C 		.ascii	"in_list\000"
 5604      69737400 
 5605              	.LC16:
 5606 0434 696E5F6D 		.ascii	"in_map\000"
 5606      617000
 5607 043b 00       		.space	1
 5608              	.LC10:
 5609 043c 696E7661 		.ascii	"invalid\000"
 5609      6C696400 
 5610              	.LC0:
 5611 0444 73746172 		.ascii	"start\000"
 5611      7400
 5612 044a 0000     		.space	2
 5613              	.LC1:
 5614 044c 636F6D6D 		.ascii	"comm_start\000"
 5614      5F737461 
 5614      727400
 5615 0457 00       		.space	1
 5616              	.LC2:
 5617 0458 696E5F6F 		.ascii	"in_oneline\000"
 5617      6E656C69 
 5617      6E6500
 5618 0463 00       		.space	1
 5619              	.LC3:
 5620 0464 696E5F6D 		.ascii	"in_multiline\000"
 5620      756C7469 
 5620      6C696E65 
 5620      00
 5621 0471 000000   		.space	3
 5622              	.LC4:
 5623 0474 6D756C74 		.ascii	"multiline_end\000"
 5623      696C696E 
 5623      655F656E 
 5623      6400
 5624 0482 0000     		.space	2
 5625              	.LC5:
 5626 0484 696E5F69 		.ascii	"in_identifier\000"
 5626      64656E74 
 5626      69666965 
 5626      7200
 5627 0492 0000     		.space	2
 5628              	.LC6:
 5629 0494 696E5F73 		.ascii	"in_str\000"
 5629      747200
 5630 049b 00       		.space	1
ARM GAS  C:\Users\jo\AppData\Local\Temp\ccMF9q4g.s 			page 103


 5631              	.LC7:
 5632 049c 696E5F65 		.ascii	"in_esc\000"
 5632      736300
 5633 04a3 00       		.space	1
 5634              	.LC8:
 5635 04a4 6573635F 		.ascii	"esc_hex_exp_first\000"
 5635      6865785F 
 5635      6578705F 
 5635      66697273 
 5635      7400
 5636 04b6 0000     		.space	2
 5637              	.LC9:
 5638 04b8 6573635F 		.ascii	"esc_hex_exp_second\000"
 5638      6865785F 
 5638      6578705F 
 5638      7365636F 
 5638      6E6400
 5639 04cb 00       		.space	1
 5640              	.LC56:
 5641 04cc 4C434647 		.ascii	"LCFGX_PATH_NOT_FOUND\000"
 5641      585F5041 
 5641      54485F4E 
 5641      4F545F46 
 5641      4F554E44 
 5642 04e1 000000   		.space	3
 5643              	.LC57:
 5644 04e4 4C434647 		.ascii	"LCFGX_PATH_FOUND_WRONG_TYPE_BAD\000"
 5644      585F5041 
 5644      54485F46 
 5644      4F554E44 
 5644      5F57524F 
 5645              	.LC58:
 5646 0504 4C434647 		.ascii	"LCFGX_PATH_FOUND_TYPE_OK\000"
 5646      585F5041 
 5646      54485F46 
 5646      4F554E44 
 5646      5F545950 
 5647 051d 000000   		.space	3
 5648              	.LC59:
 5649 0520 6E756C6C 		.ascii	"null_token\000"
 5649      5F746F6B 
 5649      656E00
 5650 052b 00       		.space	1
 5651              	.LC60:
 5652 052c 545F4944 		.ascii	"T_IDENTIFIER\000"
 5652      454E5449 
 5652      46494552 
 5652      00
 5653 0539 000000   		.space	3
 5654              	.LC61:
 5655 053c 603D2700 		.ascii	"`='\000"
 5656              	.LC62:
 5657 0540 545F5354 		.ascii	"T_STRING\000"
 5657      52494E47 
 5657      00
 5658 0549 000000   		.space	3
 5659              	.LC63:
ARM GAS  C:\Users\jo\AppData\Local\Temp\ccMF9q4g.s 			page 104


 5660 054c 605B2700 		.ascii	"`['\000"
 5661              	.LC64:
 5662 0550 605D2700 		.ascii	"`]'\000"
 5663              	.LC65:
 5664 0554 602C2700 		.ascii	"`,'\000"
 5665              	.LC66:
 5666 0558 607B2700 		.ascii	"`{'\000"
 5667              	.LC67:
 5668 055c 607D2700 		.ascii	"`}'\000"
 5669              		.section	.rodata.__FUNCTION__.9294,"a",%progbits
 5670              		.align	2
 5671              		.set	.LANCHOR1,. + 0
 5672              		.type	__FUNCTION__.9294, %object
 5673              		.size	__FUNCTION__.9294, 21
 5674              	__FUNCTION__.9294:
 5675 0000 6C636667 		.ascii	"lcfg_string_new_copy\000"
 5675      5F737472 
 5675      696E675F 
 5675      6E65775F 
 5675      636F7079 
 5676 0015 000000   		.section	.data.lcfgx_path_access_strings,"aw",%progbits
 5677              		.align	2
 5678              		.type	lcfgx_path_access_strings, %object
 5679              		.size	lcfgx_path_access_strings, 12
 5680              	lcfgx_path_access_strings:
 5681 0000 CC040000 		.word	.LC56
 5682 0004 E4040000 		.word	.LC57
 5683 0008 04050000 		.word	.LC58
 5684              		.section	.rodata.__FUNCTION__.9443,"a",%progbits
 5685              		.align	2
 5686              		.set	.LANCHOR2,. + 0
 5687              		.type	__FUNCTION__.9443, %object
 5688              		.size	__FUNCTION__.9443, 17
 5689              	__FUNCTION__.9443:
 5690 0000 6C636667 		.ascii	"lcfg_scanner_new\000"
 5690      5F736361 
 5690      6E6E6572 
 5690      5F6E6577 
 5690      00
 5691 0011 000000   		.section	.data.lcfg_token_map,"aw",%progbits
 5692              		.align	2
 5693              		.set	.LANCHOR7,. + 0
 5694              		.type	lcfg_token_map, %object
 5695              		.size	lcfg_token_map, 36
 5696              	lcfg_token_map:
 5697 0000 20050000 		.word	.LC59
 5698 0004 2C050000 		.word	.LC60
 5699 0008 3C050000 		.word	.LC61
 5700 000c 40050000 		.word	.LC62
 5701 0010 4C050000 		.word	.LC63
 5702 0014 50050000 		.word	.LC64
 5703 0018 54050000 		.word	.LC65
 5704 001c 58050000 		.word	.LC66
 5705 0020 5C050000 		.word	.LC67
 5706              		.text
 5707              	.Letext0:
 5708              		.file 3 "c:\\program files\\gnu tools arm embedded\\4.9 2014q4\\lib\\gcc\\arm-none-eabi\\4.9.3\\in
ARM GAS  C:\Users\jo\AppData\Local\Temp\ccMF9q4g.s 			page 105


 5709              		.file 4 "c:\\program files\\gnu tools arm embedded\\4.9 2014q4\\arm-none-eabi\\include\\machine\\_
 5710              		.file 5 "c:\\program files\\gnu tools arm embedded\\4.9 2014q4\\lib\\gcc\\arm-none-eabi\\4.9.3\\in
 5711              		.file 6 "lcfg_static.h"
 5712              		.file 7 "<built-in>"
 5713              		.file 8 "c:\\program files\\gnu tools arm embedded\\4.9 2014q4\\arm-none-eabi\\include\\stdint.h"
 5714              		.file 9 "../../../os/rt/ports/ARMCMx/compilers/GCC/chtypes.h"
 5715              		.file 10 "../../../os/rt/include/chsystypes.h"
 5716              		.file 11 "../../../os/rt/include/chschd.h"
 5717              		.file 12 "../../../os/rt/ports/ARMCMx/chcore.h"
 5718              		.file 13 "../../../os/rt/ports/ARMCMx/chcore_v7m.h"
 5719              		.file 14 "../../../os/rt/include/chtm.h"
 5720              		.file 15 "../../../os/rt/include/chmtx.h"
 5721              		.file 16 "../../../os/rt/include/chstreams.h"
 5722              		.file 17 "../../../os/hal/ports/STM32/LLD/GPIOv2/pal_lld.h"
 5723              		.file 18 "ITM_trace.h"
 5724              		.file 19 "c:\\program files\\gnu tools arm embedded\\4.9 2014q4\\arm-none-eabi\\include\\string.h"
 5725              		.file 20 "c:\\program files\\gnu tools arm embedded\\4.9 2014q4\\arm-none-eabi\\include\\ctype.h"
 5726              		.file 21 "../../../os/ext/CMSIS/include/core_cm4.h"
 5727              		.file 22 "c:\\program files\\gnu tools arm embedded\\4.9 2014q4\\arm-none-eabi\\include\\assert.h"
 5728              		.file 23 "c:\\program files\\gnu tools arm embedded\\4.9 2014q4\\arm-none-eabi\\include\\stdlib.h"
 5729              		.file 24 "c:\\program files\\gnu tools arm embedded\\4.9 2014q4\\arm-none-eabi\\include\\stdio.h"
 5730              		.file 25 "c:\\program files\\gnu tools arm embedded\\4.9 2014q4\\arm-none-eabi\\include\\sys\\unis
 5731              		.file 26 "c:\\program files\\gnu tools arm embedded\\4.9 2014q4\\arm-none-eabi\\include\\sys\\_def
 5732              		.file 27 "c:\\program files\\gnu tools arm embedded\\4.9 2014q4\\arm-none-eabi\\include\\sys\\errn
 5733              		.section	.debug_info,"",%progbits
 5734              	.Ldebug_info0:
 5735 0000 54380000 		.4byte	0x3854
 5736 0004 0400     		.2byte	0x4
 5737 0006 00000000 		.4byte	.Ldebug_abbrev0
 5738 000a 04       		.byte	0x4
 5739 000b 01       		.uleb128 0x1
 5740 000c 350C0000 		.4byte	.LASF283
 5741 0010 01       		.byte	0x1
 5742 0011 18090000 		.4byte	.LASF284
 5743 0015 F7000000 		.4byte	.LASF285
 5744 0019 F0020000 		.4byte	.Ldebug_ranges0+0x2f0
 5745 001d 00000000 		.4byte	0
 5746 0021 00000000 		.4byte	.Ldebug_line0
 5747 0025 02       		.uleb128 0x2
 5748 0026 04       		.byte	0x4
 5749 0027 05       		.byte	0x5
 5750 0028 696E7400 		.ascii	"int\000"
 5751 002c 03       		.uleb128 0x3
 5752 002d 1B000000 		.4byte	.LASF2
 5753 0031 03       		.byte	0x3
 5754 0032 D4       		.byte	0xd4
 5755 0033 37000000 		.4byte	0x37
 5756 0037 04       		.uleb128 0x4
 5757 0038 04       		.byte	0x4
 5758 0039 07       		.byte	0x7
 5759 003a 04080000 		.4byte	.LASF0
 5760 003e 04       		.uleb128 0x4
 5761 003f 01       		.byte	0x1
 5762 0040 06       		.byte	0x6
 5763 0041 F1020000 		.4byte	.LASF1
 5764 0045 03       		.uleb128 0x3
 5765 0046 22020000 		.4byte	.LASF3
ARM GAS  C:\Users\jo\AppData\Local\Temp\ccMF9q4g.s 			page 106


 5766 004a 04       		.byte	0x4
 5767 004b 1D       		.byte	0x1d
 5768 004c 50000000 		.4byte	0x50
 5769 0050 04       		.uleb128 0x4
 5770 0051 01       		.byte	0x1
 5771 0052 08       		.byte	0x8
 5772 0053 71030000 		.4byte	.LASF4
 5773 0057 04       		.uleb128 0x4
 5774 0058 02       		.byte	0x2
 5775 0059 05       		.byte	0x5
 5776 005a D50A0000 		.4byte	.LASF5
 5777 005e 03       		.uleb128 0x3
 5778 005f 44040000 		.4byte	.LASF6
 5779 0063 04       		.byte	0x4
 5780 0064 2B       		.byte	0x2b
 5781 0065 69000000 		.4byte	0x69
 5782 0069 04       		.uleb128 0x4
 5783 006a 02       		.byte	0x2
 5784 006b 07       		.byte	0x7
 5785 006c 610D0000 		.4byte	.LASF7
 5786 0070 03       		.uleb128 0x3
 5787 0071 CE0D0000 		.4byte	.LASF8
 5788 0075 04       		.byte	0x4
 5789 0076 3F       		.byte	0x3f
 5790 0077 7B000000 		.4byte	0x7b
 5791 007b 04       		.uleb128 0x4
 5792 007c 04       		.byte	0x4
 5793 007d 05       		.byte	0x5
 5794 007e 78020000 		.4byte	.LASF9
 5795 0082 03       		.uleb128 0x3
 5796 0083 D7060000 		.4byte	.LASF10
 5797 0087 04       		.byte	0x4
 5798 0088 41       		.byte	0x41
 5799 0089 8D000000 		.4byte	0x8d
 5800 008d 04       		.uleb128 0x4
 5801 008e 04       		.byte	0x4
 5802 008f 07       		.byte	0x7
 5803 0090 D7050000 		.4byte	.LASF11
 5804 0094 04       		.uleb128 0x4
 5805 0095 08       		.byte	0x8
 5806 0096 05       		.byte	0x5
 5807 0097 E2060000 		.4byte	.LASF12
 5808 009b 03       		.uleb128 0x3
 5809 009c CC050000 		.4byte	.LASF13
 5810 00a0 04       		.byte	0x4
 5811 00a1 5B       		.byte	0x5b
 5812 00a2 A6000000 		.4byte	0xa6
 5813 00a6 04       		.uleb128 0x4
 5814 00a7 08       		.byte	0x8
 5815 00a8 07       		.byte	0x7
 5816 00a9 37090000 		.4byte	.LASF14
 5817 00ad 04       		.uleb128 0x4
 5818 00ae 04       		.byte	0x4
 5819 00af 07       		.byte	0x7
 5820 00b0 22000000 		.4byte	.LASF15
 5821 00b4 05       		.uleb128 0x5
 5822 00b5 04       		.byte	0x4
ARM GAS  C:\Users\jo\AppData\Local\Temp\ccMF9q4g.s 			page 107


 5823 00b6 06       		.uleb128 0x6
 5824 00b7 04       		.byte	0x4
 5825 00b8 BC000000 		.4byte	0xbc
 5826 00bc 04       		.uleb128 0x4
 5827 00bd 01       		.byte	0x1
 5828 00be 08       		.byte	0x8
 5829 00bf 2F040000 		.4byte	.LASF16
 5830 00c3 06       		.uleb128 0x6
 5831 00c4 04       		.byte	0x4
 5832 00c5 C9000000 		.4byte	0xc9
 5833 00c9 07       		.uleb128 0x7
 5834 00ca BC000000 		.4byte	0xbc
 5835 00ce 03       		.uleb128 0x3
 5836 00cf 02040000 		.4byte	.LASF17
 5837 00d3 05       		.byte	0x5
 5838 00d4 28       		.byte	0x28
 5839 00d5 D9000000 		.4byte	0xd9
 5840 00d9 08       		.uleb128 0x8
 5841 00da E9050000 		.4byte	.LASF31
 5842 00de 04       		.byte	0x4
 5843 00df 07       		.byte	0x7
 5844 00e0 00       		.byte	0
 5845 00e1 F0000000 		.4byte	0xf0
 5846 00e5 09       		.uleb128 0x9
 5847 00e6 13060000 		.4byte	.LASF28
 5848 00ea B4000000 		.4byte	0xb4
 5849 00ee 00       		.byte	0
 5850 00ef 00       		.byte	0
 5851 00f0 03       		.uleb128 0x3
 5852 00f1 FB060000 		.4byte	.LASF18
 5853 00f5 05       		.byte	0x5
 5854 00f6 62       		.byte	0x62
 5855 00f7 CE000000 		.4byte	0xce
 5856 00fb 06       		.uleb128 0x6
 5857 00fc 04       		.byte	0x4
 5858 00fd 01010000 		.4byte	0x101
 5859 0101 0A       		.uleb128 0xa
 5860 0102 0B       		.uleb128 0xb
 5861 0103 92050000 		.4byte	.LASF22
 5862 0107 01       		.byte	0x1
 5863 0108 06       		.byte	0x6
 5864 0109 29       		.byte	0x29
 5865 010a 1B010000 		.4byte	0x11b
 5866 010e 0C       		.uleb128 0xc
 5867 010f EF010000 		.4byte	.LASF19
 5868 0113 00       		.sleb128 0
 5869 0114 0C       		.uleb128 0xc
 5870 0115 1D040000 		.4byte	.LASF20
 5871 0119 01       		.sleb128 1
 5872 011a 00       		.byte	0
 5873 011b 03       		.uleb128 0x3
 5874 011c B0070000 		.4byte	.LASF21
 5875 0120 06       		.byte	0x6
 5876 0121 2B       		.byte	0x2b
 5877 0122 26010000 		.4byte	0x126
 5878 0126 06       		.uleb128 0x6
 5879 0127 04       		.byte	0x4
ARM GAS  C:\Users\jo\AppData\Local\Temp\ccMF9q4g.s 			page 108


 5880 0128 2C010000 		.4byte	0x12c
 5881 012c 0D       		.uleb128 0xd
 5882 012d 02010000 		.4byte	0x102
 5883 0131 4A010000 		.4byte	0x14a
 5884 0135 0E       		.uleb128 0xe
 5885 0136 C3000000 		.4byte	0xc3
 5886 013a 0E       		.uleb128 0xe
 5887 013b B4000000 		.4byte	0xb4
 5888 013f 0E       		.uleb128 0xe
 5889 0140 2C000000 		.4byte	0x2c
 5890 0144 0E       		.uleb128 0xe
 5891 0145 B4000000 		.4byte	0xb4
 5892 0149 00       		.byte	0
 5893 014a 0B       		.uleb128 0xb
 5894 014b F0060000 		.4byte	.LASF23
 5895 014f 01       		.byte	0x1
 5896 0150 06       		.byte	0x6
 5897 0151 63       		.byte	0x63
 5898 0152 69010000 		.4byte	0x169
 5899 0156 0C       		.uleb128 0xc
 5900 0157 B9000000 		.4byte	.LASF24
 5901 015b 00       		.sleb128 0
 5902 015c 0C       		.uleb128 0xc
 5903 015d 09050000 		.4byte	.LASF25
 5904 0161 01       		.sleb128 1
 5905 0162 0C       		.uleb128 0xc
 5906 0163 160B0000 		.4byte	.LASF26
 5907 0167 02       		.sleb128 2
 5908 0168 00       		.byte	0
 5909 0169 0F       		.uleb128 0xf
 5910 016a 08       		.byte	0x8
 5911 016b 06       		.byte	0x6
 5912 016c 71       		.byte	0x71
 5913 016d 8A010000 		.4byte	0x18a
 5914 0171 10       		.uleb128 0x10
 5915 0172 250E0000 		.4byte	.LASF27
 5916 0176 06       		.byte	0x6
 5917 0177 73       		.byte	0x73
 5918 0178 B4000000 		.4byte	0xb4
 5919 017c 00       		.byte	0
 5920 017d 11       		.uleb128 0x11
 5921 017e 6C656E00 		.ascii	"len\000"
 5922 0182 06       		.byte	0x6
 5923 0183 74       		.byte	0x74
 5924 0184 2C000000 		.4byte	0x2c
 5925 0188 04       		.byte	0x4
 5926 0189 00       		.byte	0
 5927 018a 12       		.uleb128 0x12
 5928 018b 08       		.byte	0x8
 5929 018c 06       		.byte	0x6
 5930 018d 6F       		.byte	0x6f
 5931 018e A9010000 		.4byte	0x1a9
 5932 0192 13       		.uleb128 0x13
 5933 0193 EE070000 		.4byte	.LASF29
 5934 0197 06       		.byte	0x6
 5935 0198 75       		.byte	0x75
 5936 0199 69010000 		.4byte	0x169
ARM GAS  C:\Users\jo\AppData\Local\Temp\ccMF9q4g.s 			page 109


 5937 019d 13       		.uleb128 0x13
 5938 019e 480B0000 		.4byte	.LASF30
 5939 01a2 06       		.byte	0x6
 5940 01a3 76       		.byte	0x76
 5941 01a4 E6010000 		.4byte	0x1e6
 5942 01a8 00       		.byte	0
 5943 01a9 08       		.uleb128 0x8
 5944 01aa 81070000 		.4byte	.LASF32
 5945 01ae 14       		.byte	0x14
 5946 01af 06       		.byte	0x6
 5947 01b0 6A       		.byte	0x6a
 5948 01b1 E6010000 		.4byte	0x1e6
 5949 01b5 10       		.uleb128 0x10
 5950 01b6 A9010000 		.4byte	.LASF33
 5951 01ba 06       		.byte	0x6
 5952 01bb 6C       		.byte	0x6c
 5953 01bc 4A010000 		.4byte	0x14a
 5954 01c0 00       		.byte	0
 5955 01c1 11       		.uleb128 0x11
 5956 01c2 6B657900 		.ascii	"key\000"
 5957 01c6 06       		.byte	0x6
 5958 01c7 6D       		.byte	0x6d
 5959 01c8 B6000000 		.4byte	0xb6
 5960 01cc 04       		.byte	0x4
 5961 01cd 10       		.uleb128 0x10
 5962 01ce 17040000 		.4byte	.LASF34
 5963 01d2 06       		.byte	0x6
 5964 01d3 77       		.byte	0x77
 5965 01d4 8A010000 		.4byte	0x18a
 5966 01d8 08       		.byte	0x8
 5967 01d9 10       		.uleb128 0x10
 5968 01da 200E0000 		.4byte	.LASF35
 5969 01de 06       		.byte	0x6
 5970 01df 79       		.byte	0x79
 5971 01e0 E6010000 		.4byte	0x1e6
 5972 01e4 10       		.byte	0x10
 5973 01e5 00       		.byte	0
 5974 01e6 06       		.uleb128 0x6
 5975 01e7 04       		.byte	0x4
 5976 01e8 A9010000 		.4byte	0x1a9
 5977 01ec 0B       		.uleb128 0xb
 5978 01ed 21080000 		.4byte	.LASF36
 5979 01f1 01       		.byte	0x1
 5980 01f2 06       		.byte	0x6
 5981 01f3 81       		.byte	0x81
 5982 01f4 0B020000 		.4byte	0x20b
 5983 01f8 0C       		.uleb128 0xc
 5984 01f9 4C010000 		.4byte	.LASF37
 5985 01fd 00       		.sleb128 0
 5986 01fe 0C       		.uleb128 0xc
 5987 01ff E3090000 		.4byte	.LASF38
 5988 0203 01       		.sleb128 1
 5989 0204 0C       		.uleb128 0xc
 5990 0205 2C0A0000 		.4byte	.LASF39
 5991 0209 02       		.sleb128 2
 5992 020a 00       		.byte	0
 5993 020b 03       		.uleb128 0x3
ARM GAS  C:\Users\jo\AppData\Local\Temp\ccMF9q4g.s 			page 110


 5994 020c 04030000 		.4byte	.LASF40
 5995 0210 08       		.byte	0x8
 5996 0211 15       		.byte	0x15
 5997 0212 45000000 		.4byte	0x45
 5998 0216 03       		.uleb128 0x3
 5999 0217 5E090000 		.4byte	.LASF41
 6000 021b 08       		.byte	0x8
 6001 021c 21       		.byte	0x21
 6002 021d 5E000000 		.4byte	0x5e
 6003 0221 03       		.uleb128 0x3
 6004 0222 AC000000 		.4byte	.LASF42
 6005 0226 08       		.byte	0x8
 6006 0227 2C       		.byte	0x2c
 6007 0228 70000000 		.4byte	0x70
 6008 022c 03       		.uleb128 0x3
 6009 022d F90B0000 		.4byte	.LASF43
 6010 0231 08       		.byte	0x8
 6011 0232 2D       		.byte	0x2d
 6012 0233 82000000 		.4byte	0x82
 6013 0237 03       		.uleb128 0x3
 6014 0238 FD0A0000 		.4byte	.LASF44
 6015 023c 08       		.byte	0x8
 6016 023d 39       		.byte	0x39
 6017 023e 9B000000 		.4byte	0x9b
 6018 0242 14       		.uleb128 0x14
 6019 0243 21020000 		.4byte	0x221
 6020 0247 14       		.uleb128 0x14
 6021 0248 2C020000 		.4byte	0x22c
 6022 024c 03       		.uleb128 0x3
 6023 024d 11080000 		.4byte	.LASF45
 6024 0251 09       		.byte	0x9
 6025 0252 45       		.byte	0x45
 6026 0253 2C020000 		.4byte	0x22c
 6027 0257 03       		.uleb128 0x3
 6028 0258 710A0000 		.4byte	.LASF46
 6029 025c 09       		.byte	0x9
 6030 025d 48       		.byte	0x48
 6031 025e 0B020000 		.4byte	0x20b
 6032 0262 03       		.uleb128 0x3
 6033 0263 8F020000 		.4byte	.LASF47
 6034 0267 09       		.byte	0x9
 6035 0268 49       		.byte	0x49
 6036 0269 0B020000 		.4byte	0x20b
 6037 026d 03       		.uleb128 0x3
 6038 026e D80B0000 		.4byte	.LASF48
 6039 0272 09       		.byte	0x9
 6040 0273 4A       		.byte	0x4a
 6041 0274 0B020000 		.4byte	0x20b
 6042 0278 03       		.uleb128 0x3
 6043 0279 65000000 		.4byte	.LASF49
 6044 027d 09       		.byte	0x9
 6045 027e 4C       		.byte	0x4c
 6046 027f 2C020000 		.4byte	0x22c
 6047 0283 03       		.uleb128 0x3
 6048 0284 67090000 		.4byte	.LASF50
 6049 0288 09       		.byte	0x9
 6050 0289 4D       		.byte	0x4d
ARM GAS  C:\Users\jo\AppData\Local\Temp\ccMF9q4g.s 			page 111


 6051 028a 21020000 		.4byte	0x221
 6052 028e 03       		.uleb128 0x3
 6053 028f 25030000 		.4byte	.LASF51
 6054 0293 09       		.byte	0x9
 6055 0294 4F       		.byte	0x4f
 6056 0295 2C020000 		.4byte	0x22c
 6057 0299 03       		.uleb128 0x3
 6058 029a 31000000 		.4byte	.LASF52
 6059 029e 0A       		.byte	0xa
 6060 029f 33       		.byte	0x33
 6061 02a0 2C020000 		.4byte	0x22c
 6062 02a4 03       		.uleb128 0x3
 6063 02a5 A7080000 		.4byte	.LASF53
 6064 02a9 0A       		.byte	0xa
 6065 02aa 3F       		.byte	0x3f
 6066 02ab AF020000 		.4byte	0x2af
 6067 02af 08       		.uleb128 0x8
 6068 02b0 09060000 		.4byte	.LASF54
 6069 02b4 44       		.byte	0x44
 6070 02b5 0B       		.byte	0xb
 6071 02b6 BE       		.byte	0xbe
 6072 02b7 9C030000 		.4byte	0x39c
 6073 02bb 10       		.uleb128 0x10
 6074 02bc 81020000 		.4byte	.LASF55
 6075 02c0 0B       		.byte	0xb
 6076 02c1 BF       		.byte	0xbf
 6077 02c2 3D070000 		.4byte	0x73d
 6078 02c6 00       		.byte	0
 6079 02c7 10       		.uleb128 0x10
 6080 02c8 88020000 		.4byte	.LASF56
 6081 02cc 0B       		.byte	0xb
 6082 02cd C1       		.byte	0xc1
 6083 02ce 3D070000 		.4byte	0x73d
 6084 02d2 04       		.byte	0x4
 6085 02d3 10       		.uleb128 0x10
 6086 02d4 3D040000 		.4byte	.LASF57
 6087 02d8 0B       		.byte	0xb
 6088 02d9 C3       		.byte	0xc3
 6089 02da 78020000 		.4byte	0x278
 6090 02de 08       		.byte	0x8
 6091 02df 10       		.uleb128 0x10
 6092 02e0 5F000000 		.4byte	.LASF58
 6093 02e4 0B       		.byte	0xb
 6094 02e5 C4       		.byte	0xc4
 6095 02e6 BD050000 		.4byte	0x5bd
 6096 02ea 0C       		.byte	0xc
 6097 02eb 10       		.uleb128 0x10
 6098 02ec 70020000 		.4byte	.LASF59
 6099 02f0 0B       		.byte	0xb
 6100 02f1 C6       		.byte	0xc6
 6101 02f2 3D070000 		.4byte	0x73d
 6102 02f6 10       		.byte	0x10
 6103 02f7 10       		.uleb128 0x10
 6104 02f8 56090000 		.4byte	.LASF60
 6105 02fc 0B       		.byte	0xb
 6106 02fd C7       		.byte	0xc7
 6107 02fe 3D070000 		.4byte	0x73d
ARM GAS  C:\Users\jo\AppData\Local\Temp\ccMF9q4g.s 			page 112


 6108 0302 14       		.byte	0x14
 6109 0303 10       		.uleb128 0x10
 6110 0304 0C0E0000 		.4byte	.LASF61
 6111 0308 0B       		.byte	0xb
 6112 0309 CE       		.byte	0xce
 6113 030a C3000000 		.4byte	0xc3
 6114 030e 18       		.byte	0x18
 6115 030f 10       		.uleb128 0x10
 6116 0310 860E0000 		.4byte	.LASF62
 6117 0314 0B       		.byte	0xb
 6118 0315 D9       		.byte	0xd9
 6119 0316 62020000 		.4byte	0x262
 6120 031a 1C       		.byte	0x1c
 6121 031b 10       		.uleb128 0x10
 6122 031c D6070000 		.4byte	.LASF63
 6123 0320 0B       		.byte	0xb
 6124 0321 DD       		.byte	0xdd
 6125 0322 57020000 		.4byte	0x257
 6126 0326 1D       		.byte	0x1d
 6127 0327 10       		.uleb128 0x10
 6128 0328 33080000 		.4byte	.LASF64
 6129 032c 0B       		.byte	0xb
 6130 032d E2       		.byte	0xe2
 6131 032e 6D020000 		.4byte	0x26d
 6132 0332 1E       		.byte	0x1e
 6133 0333 15       		.uleb128 0x15
 6134 0334 705F7500 		.ascii	"p_u\000"
 6135 0338 0B       		.byte	0xb
 6136 0339 1401     		.2byte	0x114
 6137 033b 43070000 		.4byte	0x743
 6138 033f 20       		.byte	0x20
 6139 0340 16       		.uleb128 0x16
 6140 0341 C6070000 		.4byte	.LASF65
 6141 0345 0B       		.byte	0xb
 6142 0346 1901     		.2byte	0x119
 6143 0348 9C030000 		.4byte	0x39c
 6144 034c 24       		.byte	0x24
 6145 034d 16       		.uleb128 0x16
 6146 034e 9B000000 		.4byte	.LASF66
 6147 0352 0B       		.byte	0xb
 6148 0353 1F01     		.2byte	0x11f
 6149 0355 C0030000 		.4byte	0x3c0
 6150 0359 28       		.byte	0x28
 6151 035a 16       		.uleb128 0x16
 6152 035b 790E0000 		.4byte	.LASF67
 6153 035f 0B       		.byte	0xb
 6154 0360 2301     		.2byte	0x123
 6155 0362 83020000 		.4byte	0x283
 6156 0366 30       		.byte	0x30
 6157 0367 16       		.uleb128 0x16
 6158 0368 73050000 		.4byte	.LASF68
 6159 036c 0B       		.byte	0xb
 6160 036d 2901     		.2byte	0x129
 6161 036f 8E020000 		.4byte	0x28e
 6162 0373 34       		.byte	0x34
 6163 0374 16       		.uleb128 0x16
 6164 0375 A8020000 		.4byte	.LASF69
ARM GAS  C:\Users\jo\AppData\Local\Temp\ccMF9q4g.s 			page 113


 6165 0379 0B       		.byte	0xb
 6166 037a 3001     		.2byte	0x130
 6167 037c AC070000 		.4byte	0x7ac
 6168 0380 38       		.byte	0x38
 6169 0381 16       		.uleb128 0x16
 6170 0382 CA080000 		.4byte	.LASF70
 6171 0386 0B       		.byte	0xb
 6172 0387 3401     		.2byte	0x134
 6173 0389 78020000 		.4byte	0x278
 6174 038d 3C       		.byte	0x3c
 6175 038e 16       		.uleb128 0x16
 6176 038f 19080000 		.4byte	.LASF71
 6177 0393 0B       		.byte	0xb
 6178 0394 3A01     		.2byte	0x13a
 6179 0396 B4000000 		.4byte	0xb4
 6180 039a 40       		.byte	0x40
 6181 039b 00       		.byte	0
 6182 039c 03       		.uleb128 0x3
 6183 039d E00B0000 		.4byte	.LASF72
 6184 03a1 0A       		.byte	0xa
 6185 03a2 44       		.byte	0x44
 6186 03a3 A7030000 		.4byte	0x3a7
 6187 03a7 08       		.uleb128 0x8
 6188 03a8 76060000 		.4byte	.LASF73
 6189 03ac 04       		.byte	0x4
 6190 03ad 0B       		.byte	0xb
 6191 03ae AC       		.byte	0xac
 6192 03af C0030000 		.4byte	0x3c0
 6193 03b3 10       		.uleb128 0x10
 6194 03b4 81020000 		.4byte	.LASF55
 6195 03b8 0B       		.byte	0xb
 6196 03b9 AD       		.byte	0xad
 6197 03ba 3D070000 		.4byte	0x73d
 6198 03be 00       		.byte	0
 6199 03bf 00       		.byte	0
 6200 03c0 03       		.uleb128 0x3
 6201 03c1 98020000 		.4byte	.LASF74
 6202 03c5 0A       		.byte	0xa
 6203 03c6 4B       		.byte	0x4b
 6204 03c7 CB030000 		.4byte	0x3cb
 6205 03cb 08       		.uleb128 0x8
 6206 03cc 6D090000 		.4byte	.LASF75
 6207 03d0 08       		.byte	0x8
 6208 03d1 0B       		.byte	0xb
 6209 03d2 B3       		.byte	0xb3
 6210 03d3 F0030000 		.4byte	0x3f0
 6211 03d7 10       		.uleb128 0x10
 6212 03d8 81020000 		.4byte	.LASF55
 6213 03dc 0B       		.byte	0xb
 6214 03dd B4       		.byte	0xb4
 6215 03de 3D070000 		.4byte	0x73d
 6216 03e2 00       		.byte	0
 6217 03e3 10       		.uleb128 0x10
 6218 03e4 88020000 		.4byte	.LASF56
 6219 03e8 0B       		.byte	0xb
 6220 03e9 B5       		.byte	0xb5
 6221 03ea 3D070000 		.4byte	0x73d
ARM GAS  C:\Users\jo\AppData\Local\Temp\ccMF9q4g.s 			page 114


 6222 03ee 04       		.byte	0x4
 6223 03ef 00       		.byte	0
 6224 03f0 03       		.uleb128 0x3
 6225 03f1 5A060000 		.4byte	.LASF76
 6226 03f5 0A       		.byte	0xa
 6227 03f6 52       		.byte	0x52
 6228 03f7 FB030000 		.4byte	0x3fb
 6229 03fb 17       		.uleb128 0x17
 6230 03fc 7E050000 		.4byte	.LASF77
 6231 0400 1C       		.byte	0x1c
 6232 0401 0B       		.byte	0xb
 6233 0402 7201     		.2byte	0x172
 6234 0404 57040000 		.4byte	0x457
 6235 0408 16       		.uleb128 0x16
 6236 0409 120A0000 		.4byte	.LASF78
 6237 040d 0B       		.byte	0xb
 6238 040e 7301     		.2byte	0x173
 6239 0410 C0030000 		.4byte	0x3c0
 6240 0414 00       		.byte	0
 6241 0415 16       		.uleb128 0x16
 6242 0416 7F0E0000 		.4byte	.LASF79
 6243 041a 0B       		.byte	0xb
 6244 041b 7401     		.2byte	0x174
 6245 041d 78020000 		.4byte	0x278
 6246 0421 08       		.byte	0x8
 6247 0422 16       		.uleb128 0x16
 6248 0423 A6000000 		.4byte	.LASF80
 6249 0427 0B       		.byte	0xb
 6250 0428 7601     		.2byte	0x176
 6251 042a BD050000 		.4byte	0x5bd
 6252 042e 0C       		.byte	0xc
 6253 042f 16       		.uleb128 0x16
 6254 0430 C9030000 		.4byte	.LASF81
 6255 0434 0B       		.byte	0xb
 6256 0435 7901     		.2byte	0x179
 6257 0437 3D070000 		.4byte	0x73d
 6258 043b 10       		.byte	0x10
 6259 043c 16       		.uleb128 0x16
 6260 043d 930A0000 		.4byte	.LASF82
 6261 0441 0B       		.byte	0xb
 6262 0442 7A01     		.2byte	0x17a
 6263 0444 3D070000 		.4byte	0x73d
 6264 0448 14       		.byte	0x14
 6265 0449 16       		.uleb128 0x16
 6266 044a 94090000 		.4byte	.LASF83
 6267 044e 0B       		.byte	0xb
 6268 044f 7D01     		.2byte	0x17d
 6269 0451 3D070000 		.4byte	0x73d
 6270 0455 18       		.byte	0x18
 6271 0456 00       		.byte	0
 6272 0457 03       		.uleb128 0x3
 6273 0458 C6000000 		.4byte	.LASF84
 6274 045c 0A       		.byte	0xa
 6275 045d 57       		.byte	0x57
 6276 045e 62040000 		.4byte	0x462
 6277 0462 06       		.uleb128 0x6
 6278 0463 04       		.byte	0x4
ARM GAS  C:\Users\jo\AppData\Local\Temp\ccMF9q4g.s 			page 115


 6279 0464 68040000 		.4byte	0x468
 6280 0468 18       		.uleb128 0x18
 6281 0469 73040000 		.4byte	0x473
 6282 046d 0E       		.uleb128 0xe
 6283 046e B4000000 		.4byte	0xb4
 6284 0472 00       		.byte	0
 6285 0473 03       		.uleb128 0x3
 6286 0474 4A060000 		.4byte	.LASF85
 6287 0478 0A       		.byte	0xa
 6288 0479 5C       		.byte	0x5c
 6289 047a 7E040000 		.4byte	0x47e
 6290 047e 17       		.uleb128 0x17
 6291 047f F6080000 		.4byte	.LASF86
 6292 0483 14       		.byte	0x14
 6293 0484 0B       		.byte	0xb
 6294 0485 4D01     		.2byte	0x14d
 6295 0487 CD040000 		.4byte	0x4cd
 6296 048b 16       		.uleb128 0x16
 6297 048c 2D070000 		.4byte	.LASF87
 6298 0490 0B       		.byte	0xb
 6299 0491 4E01     		.2byte	0x14e
 6300 0493 B2070000 		.4byte	0x7b2
 6301 0497 00       		.byte	0
 6302 0498 16       		.uleb128 0x16
 6303 0499 35070000 		.4byte	.LASF88
 6304 049d 0B       		.byte	0xb
 6305 049e 4F01     		.2byte	0x14f
 6306 04a0 B2070000 		.4byte	0x7b2
 6307 04a4 04       		.byte	0x4
 6308 04a5 16       		.uleb128 0x16
 6309 04a6 E1080000 		.4byte	.LASF89
 6310 04aa 0B       		.byte	0xb
 6311 04ab 5001     		.2byte	0x150
 6312 04ad 99020000 		.4byte	0x299
 6313 04b1 08       		.byte	0x8
 6314 04b2 16       		.uleb128 0x16
 6315 04b3 49050000 		.4byte	.LASF90
 6316 04b7 0B       		.byte	0xb
 6317 04b8 5101     		.2byte	0x151
 6318 04ba 57040000 		.4byte	0x457
 6319 04be 0C       		.byte	0xc
 6320 04bf 16       		.uleb128 0x16
 6321 04c0 12020000 		.4byte	.LASF91
 6322 04c4 0B       		.byte	0xb
 6323 04c5 5301     		.2byte	0x153
 6324 04c7 B4000000 		.4byte	0xb4
 6325 04cb 10       		.byte	0x10
 6326 04cc 00       		.byte	0
 6327 04cd 03       		.uleb128 0x3
 6328 04ce 18060000 		.4byte	.LASF92
 6329 04d2 0A       		.byte	0xa
 6330 04d3 61       		.byte	0x61
 6331 04d4 D8040000 		.4byte	0x4d8
 6332 04d8 17       		.uleb128 0x17
 6333 04d9 D4000000 		.4byte	.LASF93
 6334 04dd 10       		.byte	0x10
 6335 04de 0B       		.byte	0xb
ARM GAS  C:\Users\jo\AppData\Local\Temp\ccMF9q4g.s 			page 116


 6336 04df 5D01     		.2byte	0x15d
 6337 04e1 1A050000 		.4byte	0x51a
 6338 04e5 16       		.uleb128 0x16
 6339 04e6 2D070000 		.4byte	.LASF87
 6340 04ea 0B       		.byte	0xb
 6341 04eb 5E01     		.2byte	0x15e
 6342 04ed B2070000 		.4byte	0x7b2
 6343 04f1 00       		.byte	0
 6344 04f2 16       		.uleb128 0x16
 6345 04f3 35070000 		.4byte	.LASF88
 6346 04f7 0B       		.byte	0xb
 6347 04f8 6001     		.2byte	0x160
 6348 04fa B2070000 		.4byte	0x7b2
 6349 04fe 04       		.byte	0x4
 6350 04ff 16       		.uleb128 0x16
 6351 0500 E1080000 		.4byte	.LASF89
 6352 0504 0B       		.byte	0xb
 6353 0505 6201     		.2byte	0x162
 6354 0507 99020000 		.4byte	0x299
 6355 050b 08       		.byte	0x8
 6356 050c 16       		.uleb128 0x16
 6357 050d 550D0000 		.4byte	.LASF94
 6358 0511 0B       		.byte	0xb
 6359 0512 6A01     		.2byte	0x16a
 6360 0514 99020000 		.4byte	0x299
 6361 0518 0C       		.byte	0xc
 6362 0519 00       		.byte	0
 6363 051a 03       		.uleb128 0x3
 6364 051b D1030000 		.4byte	.LASF95
 6365 051f 0A       		.byte	0xa
 6366 0520 66       		.byte	0x66
 6367 0521 25050000 		.4byte	0x525
 6368 0525 17       		.uleb128 0x17
 6369 0526 510B0000 		.4byte	.LASF96
 6370 052a 04       		.byte	0x4
 6371 052b 0B       		.byte	0xb
 6372 052c 8401     		.2byte	0x184
 6373 052e 40050000 		.4byte	0x540
 6374 0532 16       		.uleb128 0x16
 6375 0533 97030000 		.4byte	.LASF97
 6376 0537 0B       		.byte	0xb
 6377 0538 8C01     		.2byte	0x18c
 6378 053a B8070000 		.4byte	0x7b8
 6379 053e 00       		.byte	0
 6380 053f 00       		.byte	0
 6381 0540 03       		.uleb128 0x3
 6382 0541 740D0000 		.4byte	.LASF98
 6383 0545 0A       		.byte	0xa
 6384 0546 6B       		.byte	0x6b
 6385 0547 4B050000 		.4byte	0x54b
 6386 054b 19       		.uleb128 0x19
 6387 054c EF0B0000 		.4byte	.LASF99
 6388 0550 D801     		.2byte	0x1d8
 6389 0552 0B       		.byte	0xb
 6390 0553 A401     		.2byte	0x1a4
 6391 0555 A7050000 		.4byte	0x5a7
 6392 0559 16       		.uleb128 0x16
ARM GAS  C:\Users\jo\AppData\Local\Temp\ccMF9q4g.s 			page 117


 6393 055a 6B0A0000 		.4byte	.LASF100
 6394 055e 0B       		.byte	0xb
 6395 055f A801     		.2byte	0x1a8
 6396 0561 F0030000 		.4byte	0x3f0
 6397 0565 00       		.byte	0
 6398 0566 16       		.uleb128 0x16
 6399 0567 BB0B0000 		.4byte	.LASF101
 6400 056b 0B       		.byte	0xb
 6401 056c AC01     		.2byte	0x1ac
 6402 056e CD040000 		.4byte	0x4cd
 6403 0572 1C       		.byte	0x1c
 6404 0573 15       		.uleb128 0x15
 6405 0574 64626700 		.ascii	"dbg\000"
 6406 0578 0B       		.byte	0xb
 6407 0579 B001     		.2byte	0x1b0
 6408 057b 1A050000 		.4byte	0x51a
 6409 057f 2C       		.byte	0x2c
 6410 0580 16       		.uleb128 0x16
 6411 0581 D8090000 		.4byte	.LASF102
 6412 0585 0B       		.byte	0xb
 6413 0586 B401     		.2byte	0x1b4
 6414 0588 A4020000 		.4byte	0x2a4
 6415 058c 30       		.byte	0x30
 6416 058d 15       		.uleb128 0x15
 6417 058e 746D00   		.ascii	"tm\000"
 6418 0591 0B       		.byte	0xb
 6419 0592 B901     		.2byte	0x1b9
 6420 0594 32070000 		.4byte	0x732
 6421 0598 74       		.byte	0x74
 6422 0599 16       		.uleb128 0x16
 6423 059a F5070000 		.4byte	.LASF103
 6424 059e 0B       		.byte	0xb
 6425 059f C501     		.2byte	0x1c5
 6426 05a1 BD070000 		.4byte	0x7bd
 6427 05a5 78       		.byte	0x78
 6428 05a6 00       		.byte	0
 6429 05a7 03       		.uleb128 0x3
 6430 05a8 B2020000 		.4byte	.LASF104
 6431 05ac 0C       		.byte	0xc
 6432 05ad 85       		.byte	0x85
 6433 05ae B4000000 		.4byte	0xb4
 6434 05b2 03       		.uleb128 0x3
 6435 05b3 77040000 		.4byte	.LASF105
 6436 05b7 0C       		.byte	0xc
 6437 05b8 8D       		.byte	0x8d
 6438 05b9 37020000 		.4byte	0x237
 6439 05bd 08       		.uleb128 0x8
 6440 05be 31030000 		.4byte	.LASF106
 6441 05c2 04       		.byte	0x4
 6442 05c3 0C       		.byte	0xc
 6443 05c4 A9       		.byte	0xa9
 6444 05c5 D6050000 		.4byte	0x5d6
 6445 05c9 11       		.uleb128 0x11
 6446 05ca 72313300 		.ascii	"r13\000"
 6447 05ce 0C       		.byte	0xc
 6448 05cf AA       		.byte	0xaa
 6449 05d0 17070000 		.4byte	0x717
ARM GAS  C:\Users\jo\AppData\Local\Temp\ccMF9q4g.s 			page 118


 6450 05d4 00       		.byte	0
 6451 05d5 00       		.byte	0
 6452 05d6 08       		.uleb128 0x8
 6453 05d7 D5080000 		.4byte	.LASF107
 6454 05db 64       		.byte	0x64
 6455 05dc 0D       		.byte	0xd
 6456 05dd F4       		.byte	0xf4
 6457 05de 17070000 		.4byte	0x717
 6458 05e2 11       		.uleb128 0x11
 6459 05e3 73313600 		.ascii	"s16\000"
 6460 05e7 0D       		.byte	0xd
 6461 05e8 F6       		.byte	0xf6
 6462 05e9 A7050000 		.4byte	0x5a7
 6463 05ed 00       		.byte	0
 6464 05ee 11       		.uleb128 0x11
 6465 05ef 73313700 		.ascii	"s17\000"
 6466 05f3 0D       		.byte	0xd
 6467 05f4 F7       		.byte	0xf7
 6468 05f5 A7050000 		.4byte	0x5a7
 6469 05f9 04       		.byte	0x4
 6470 05fa 11       		.uleb128 0x11
 6471 05fb 73313800 		.ascii	"s18\000"
 6472 05ff 0D       		.byte	0xd
 6473 0600 F8       		.byte	0xf8
 6474 0601 A7050000 		.4byte	0x5a7
 6475 0605 08       		.byte	0x8
 6476 0606 11       		.uleb128 0x11
 6477 0607 73313900 		.ascii	"s19\000"
 6478 060b 0D       		.byte	0xd
 6479 060c F9       		.byte	0xf9
 6480 060d A7050000 		.4byte	0x5a7
 6481 0611 0C       		.byte	0xc
 6482 0612 11       		.uleb128 0x11
 6483 0613 73323000 		.ascii	"s20\000"
 6484 0617 0D       		.byte	0xd
 6485 0618 FA       		.byte	0xfa
 6486 0619 A7050000 		.4byte	0x5a7
 6487 061d 10       		.byte	0x10
 6488 061e 11       		.uleb128 0x11
 6489 061f 73323100 		.ascii	"s21\000"
 6490 0623 0D       		.byte	0xd
 6491 0624 FB       		.byte	0xfb
 6492 0625 A7050000 		.4byte	0x5a7
 6493 0629 14       		.byte	0x14
 6494 062a 11       		.uleb128 0x11
 6495 062b 73323200 		.ascii	"s22\000"
 6496 062f 0D       		.byte	0xd
 6497 0630 FC       		.byte	0xfc
 6498 0631 A7050000 		.4byte	0x5a7
 6499 0635 18       		.byte	0x18
 6500 0636 11       		.uleb128 0x11
 6501 0637 73323300 		.ascii	"s23\000"
 6502 063b 0D       		.byte	0xd
 6503 063c FD       		.byte	0xfd
 6504 063d A7050000 		.4byte	0x5a7
 6505 0641 1C       		.byte	0x1c
 6506 0642 11       		.uleb128 0x11
ARM GAS  C:\Users\jo\AppData\Local\Temp\ccMF9q4g.s 			page 119


 6507 0643 73323400 		.ascii	"s24\000"
 6508 0647 0D       		.byte	0xd
 6509 0648 FE       		.byte	0xfe
 6510 0649 A7050000 		.4byte	0x5a7
 6511 064d 20       		.byte	0x20
 6512 064e 11       		.uleb128 0x11
 6513 064f 73323500 		.ascii	"s25\000"
 6514 0653 0D       		.byte	0xd
 6515 0654 FF       		.byte	0xff
 6516 0655 A7050000 		.4byte	0x5a7
 6517 0659 24       		.byte	0x24
 6518 065a 15       		.uleb128 0x15
 6519 065b 73323600 		.ascii	"s26\000"
 6520 065f 0D       		.byte	0xd
 6521 0660 0001     		.2byte	0x100
 6522 0662 A7050000 		.4byte	0x5a7
 6523 0666 28       		.byte	0x28
 6524 0667 15       		.uleb128 0x15
 6525 0668 73323700 		.ascii	"s27\000"
 6526 066c 0D       		.byte	0xd
 6527 066d 0101     		.2byte	0x101
 6528 066f A7050000 		.4byte	0x5a7
 6529 0673 2C       		.byte	0x2c
 6530 0674 15       		.uleb128 0x15
 6531 0675 73323800 		.ascii	"s28\000"
 6532 0679 0D       		.byte	0xd
 6533 067a 0201     		.2byte	0x102
 6534 067c A7050000 		.4byte	0x5a7
 6535 0680 30       		.byte	0x30
 6536 0681 15       		.uleb128 0x15
 6537 0682 73323900 		.ascii	"s29\000"
 6538 0686 0D       		.byte	0xd
 6539 0687 0301     		.2byte	0x103
 6540 0689 A7050000 		.4byte	0x5a7
 6541 068d 34       		.byte	0x34
 6542 068e 15       		.uleb128 0x15
 6543 068f 73333000 		.ascii	"s30\000"
 6544 0693 0D       		.byte	0xd
 6545 0694 0401     		.2byte	0x104
 6546 0696 A7050000 		.4byte	0x5a7
 6547 069a 38       		.byte	0x38
 6548 069b 15       		.uleb128 0x15
 6549 069c 73333100 		.ascii	"s31\000"
 6550 06a0 0D       		.byte	0xd
 6551 06a1 0501     		.2byte	0x105
 6552 06a3 A7050000 		.4byte	0x5a7
 6553 06a7 3C       		.byte	0x3c
 6554 06a8 15       		.uleb128 0x15
 6555 06a9 723400   		.ascii	"r4\000"
 6556 06ac 0D       		.byte	0xd
 6557 06ad 0701     		.2byte	0x107
 6558 06af A7050000 		.4byte	0x5a7
 6559 06b3 40       		.byte	0x40
 6560 06b4 15       		.uleb128 0x15
 6561 06b5 723500   		.ascii	"r5\000"
 6562 06b8 0D       		.byte	0xd
 6563 06b9 0801     		.2byte	0x108
ARM GAS  C:\Users\jo\AppData\Local\Temp\ccMF9q4g.s 			page 120


 6564 06bb A7050000 		.4byte	0x5a7
 6565 06bf 44       		.byte	0x44
 6566 06c0 15       		.uleb128 0x15
 6567 06c1 723600   		.ascii	"r6\000"
 6568 06c4 0D       		.byte	0xd
 6569 06c5 0901     		.2byte	0x109
 6570 06c7 A7050000 		.4byte	0x5a7
 6571 06cb 48       		.byte	0x48
 6572 06cc 15       		.uleb128 0x15
 6573 06cd 723700   		.ascii	"r7\000"
 6574 06d0 0D       		.byte	0xd
 6575 06d1 0A01     		.2byte	0x10a
 6576 06d3 A7050000 		.4byte	0x5a7
 6577 06d7 4C       		.byte	0x4c
 6578 06d8 15       		.uleb128 0x15
 6579 06d9 723800   		.ascii	"r8\000"
 6580 06dc 0D       		.byte	0xd
 6581 06dd 0B01     		.2byte	0x10b
 6582 06df A7050000 		.4byte	0x5a7
 6583 06e3 50       		.byte	0x50
 6584 06e4 15       		.uleb128 0x15
 6585 06e5 723900   		.ascii	"r9\000"
 6586 06e8 0D       		.byte	0xd
 6587 06e9 0C01     		.2byte	0x10c
 6588 06eb A7050000 		.4byte	0x5a7
 6589 06ef 54       		.byte	0x54
 6590 06f0 15       		.uleb128 0x15
 6591 06f1 72313000 		.ascii	"r10\000"
 6592 06f5 0D       		.byte	0xd
 6593 06f6 0D01     		.2byte	0x10d
 6594 06f8 A7050000 		.4byte	0x5a7
 6595 06fc 58       		.byte	0x58
 6596 06fd 15       		.uleb128 0x15
 6597 06fe 72313100 		.ascii	"r11\000"
 6598 0702 0D       		.byte	0xd
 6599 0703 0E01     		.2byte	0x10e
 6600 0705 A7050000 		.4byte	0x5a7
 6601 0709 5C       		.byte	0x5c
 6602 070a 15       		.uleb128 0x15
 6603 070b 6C7200   		.ascii	"lr\000"
 6604 070e 0D       		.byte	0xd
 6605 070f 0F01     		.2byte	0x10f
 6606 0711 A7050000 		.4byte	0x5a7
 6607 0715 60       		.byte	0x60
 6608 0716 00       		.byte	0
 6609 0717 06       		.uleb128 0x6
 6610 0718 04       		.byte	0x4
 6611 0719 D6050000 		.4byte	0x5d6
 6612 071d 0F       		.uleb128 0xf
 6613 071e 04       		.byte	0x4
 6614 071f 0E       		.byte	0xe
 6615 0720 38       		.byte	0x38
 6616 0721 32070000 		.4byte	0x732
 6617 0725 10       		.uleb128 0x10
 6618 0726 76080000 		.4byte	.LASF108
 6619 072a 0E       		.byte	0xe
 6620 072b 3C       		.byte	0x3c
ARM GAS  C:\Users\jo\AppData\Local\Temp\ccMF9q4g.s 			page 121


 6621 072c 4C020000 		.4byte	0x24c
 6622 0730 00       		.byte	0
 6623 0731 00       		.byte	0
 6624 0732 03       		.uleb128 0x3
 6625 0733 9B0A0000 		.4byte	.LASF109
 6626 0737 0E       		.byte	0xe
 6627 0738 3D       		.byte	0x3d
 6628 0739 1D070000 		.4byte	0x71d
 6629 073d 06       		.uleb128 0x6
 6630 073e 04       		.byte	0x4
 6631 073f A4020000 		.4byte	0x2a4
 6632 0743 12       		.uleb128 0x12
 6633 0744 04       		.byte	0x4
 6634 0745 0B       		.byte	0xb
 6635 0746 F6       		.byte	0xf6
 6636 0747 7B070000 		.4byte	0x77b
 6637 074b 13       		.uleb128 0x13
 6638 074c 4E0D0000 		.4byte	.LASF110
 6639 0750 0B       		.byte	0xb
 6640 0751 FD       		.byte	0xfd
 6641 0752 83020000 		.4byte	0x283
 6642 0756 1A       		.uleb128 0x1a
 6643 0757 19020000 		.4byte	.LASF111
 6644 075b 0B       		.byte	0xb
 6645 075c 0401     		.2byte	0x104
 6646 075e 83020000 		.4byte	0x283
 6647 0762 1A       		.uleb128 0x1a
 6648 0763 62040000 		.4byte	.LASF112
 6649 0767 0B       		.byte	0xb
 6650 0768 0B01     		.2byte	0x10b
 6651 076a B4000000 		.4byte	0xb4
 6652 076e 1A       		.uleb128 0x1a
 6653 076f FD020000 		.4byte	.LASF113
 6654 0773 0B       		.byte	0xb
 6655 0774 1201     		.2byte	0x112
 6656 0776 8E020000 		.4byte	0x28e
 6657 077a 00       		.byte	0
 6658 077b 08       		.uleb128 0x8
 6659 077c 7B070000 		.4byte	.LASF114
 6660 0780 10       		.byte	0x10
 6661 0781 0F       		.byte	0xf
 6662 0782 39       		.byte	0x39
 6663 0783 AC070000 		.4byte	0x7ac
 6664 0787 10       		.uleb128 0x10
 6665 0788 14070000 		.4byte	.LASF115
 6666 078c 0F       		.byte	0xf
 6667 078d 3A       		.byte	0x3a
 6668 078e C0030000 		.4byte	0x3c0
 6669 0792 00       		.byte	0
 6670 0793 10       		.uleb128 0x10
 6671 0794 0A020000 		.4byte	.LASF116
 6672 0798 0F       		.byte	0xf
 6673 0799 3C       		.byte	0x3c
 6674 079a 3D070000 		.4byte	0x73d
 6675 079e 08       		.byte	0x8
 6676 079f 10       		.uleb128 0x10
 6677 07a0 2A0E0000 		.4byte	.LASF117
ARM GAS  C:\Users\jo\AppData\Local\Temp\ccMF9q4g.s 			page 122


 6678 07a4 0F       		.byte	0xf
 6679 07a5 3E       		.byte	0x3e
 6680 07a6 ED070000 		.4byte	0x7ed
 6681 07aa 0C       		.byte	0xc
 6682 07ab 00       		.byte	0
 6683 07ac 06       		.uleb128 0x6
 6684 07ad 04       		.byte	0x4
 6685 07ae 7B070000 		.4byte	0x77b
 6686 07b2 06       		.uleb128 0x6
 6687 07b3 04       		.byte	0x4
 6688 07b4 73040000 		.4byte	0x473
 6689 07b8 14       		.uleb128 0x14
 6690 07b9 C3000000 		.4byte	0xc3
 6691 07bd 1B       		.uleb128 0x1b
 6692 07be B2050000 		.4byte	0x5b2
 6693 07c2 CD070000 		.4byte	0x7cd
 6694 07c6 1C       		.uleb128 0x1c
 6695 07c7 AD000000 		.4byte	0xad
 6696 07cb 2B       		.byte	0x2b
 6697 07cc 00       		.byte	0
 6698 07cd 06       		.uleb128 0x6
 6699 07ce 04       		.byte	0x4
 6700 07cf D3070000 		.4byte	0x7d3
 6701 07d3 0D       		.uleb128 0xd
 6702 07d4 83020000 		.4byte	0x283
 6703 07d8 E2070000 		.4byte	0x7e2
 6704 07dc 0E       		.uleb128 0xe
 6705 07dd B4000000 		.4byte	0xb4
 6706 07e1 00       		.byte	0
 6707 07e2 03       		.uleb128 0x3
 6708 07e3 D00B0000 		.4byte	.LASF118
 6709 07e7 0F       		.byte	0xf
 6710 07e8 34       		.byte	0x34
 6711 07e9 7B070000 		.4byte	0x77b
 6712 07ed 06       		.uleb128 0x6
 6713 07ee 04       		.byte	0x4
 6714 07ef E2070000 		.4byte	0x7e2
 6715 07f3 06       		.uleb128 0x6
 6716 07f4 04       		.byte	0x4
 6717 07f5 0B020000 		.4byte	0x20b
 6718 07f9 08       		.uleb128 0x8
 6719 07fa 530A0000 		.4byte	.LASF119
 6720 07fe 10       		.byte	0x10
 6721 07ff 10       		.byte	0x10
 6722 0800 40       		.byte	0x40
 6723 0801 36080000 		.4byte	0x836
 6724 0805 10       		.uleb128 0x10
 6725 0806 F1000000 		.4byte	.LASF120
 6726 080a 10       		.byte	0x10
 6727 080b 41       		.byte	0x41
 6728 080c 5A080000 		.4byte	0x85a
 6729 0810 00       		.byte	0
 6730 0811 10       		.uleb128 0x10
 6731 0812 DE070000 		.4byte	.LASF121
 6732 0816 10       		.byte	0x10
 6733 0817 41       		.byte	0x41
 6734 0818 79080000 		.4byte	0x879
ARM GAS  C:\Users\jo\AppData\Local\Temp\ccMF9q4g.s 			page 123


 6735 081c 04       		.byte	0x4
 6736 081d 11       		.uleb128 0x11
 6737 081e 70757400 		.ascii	"put\000"
 6738 0822 10       		.byte	0x10
 6739 0823 41       		.byte	0x41
 6740 0824 93080000 		.4byte	0x893
 6741 0828 08       		.byte	0x8
 6742 0829 11       		.uleb128 0x11
 6743 082a 67657400 		.ascii	"get\000"
 6744 082e 10       		.byte	0x10
 6745 082f 41       		.byte	0x41
 6746 0830 CD070000 		.4byte	0x7cd
 6747 0834 0C       		.byte	0xc
 6748 0835 00       		.byte	0
 6749 0836 0D       		.uleb128 0xd
 6750 0837 2C000000 		.4byte	0x2c
 6751 083b 4F080000 		.4byte	0x84f
 6752 083f 0E       		.uleb128 0xe
 6753 0840 B4000000 		.4byte	0xb4
 6754 0844 0E       		.uleb128 0xe
 6755 0845 4F080000 		.4byte	0x84f
 6756 0849 0E       		.uleb128 0xe
 6757 084a 2C000000 		.4byte	0x2c
 6758 084e 00       		.byte	0
 6759 084f 06       		.uleb128 0x6
 6760 0850 04       		.byte	0x4
 6761 0851 55080000 		.4byte	0x855
 6762 0855 07       		.uleb128 0x7
 6763 0856 0B020000 		.4byte	0x20b
 6764 085a 06       		.uleb128 0x6
 6765 085b 04       		.byte	0x4
 6766 085c 36080000 		.4byte	0x836
 6767 0860 0D       		.uleb128 0xd
 6768 0861 2C000000 		.4byte	0x2c
 6769 0865 79080000 		.4byte	0x879
 6770 0869 0E       		.uleb128 0xe
 6771 086a B4000000 		.4byte	0xb4
 6772 086e 0E       		.uleb128 0xe
 6773 086f F3070000 		.4byte	0x7f3
 6774 0873 0E       		.uleb128 0xe
 6775 0874 2C000000 		.4byte	0x2c
 6776 0878 00       		.byte	0
 6777 0879 06       		.uleb128 0x6
 6778 087a 04       		.byte	0x4
 6779 087b 60080000 		.4byte	0x860
 6780 087f 0D       		.uleb128 0xd
 6781 0880 83020000 		.4byte	0x283
 6782 0884 93080000 		.4byte	0x893
 6783 0888 0E       		.uleb128 0xe
 6784 0889 B4000000 		.4byte	0xb4
 6785 088d 0E       		.uleb128 0xe
 6786 088e 0B020000 		.4byte	0x20b
 6787 0892 00       		.byte	0
 6788 0893 06       		.uleb128 0x6
 6789 0894 04       		.byte	0x4
 6790 0895 7F080000 		.4byte	0x87f
 6791 0899 0F       		.uleb128 0xf
ARM GAS  C:\Users\jo\AppData\Local\Temp\ccMF9q4g.s 			page 124


 6792 089a 04       		.byte	0x4
 6793 089b 10       		.byte	0x10
 6794 089c 49       		.byte	0x49
 6795 089d AE080000 		.4byte	0x8ae
 6796 08a1 11       		.uleb128 0x11
 6797 08a2 766D7400 		.ascii	"vmt\000"
 6798 08a6 10       		.byte	0x10
 6799 08a7 4B       		.byte	0x4b
 6800 08a8 AE080000 		.4byte	0x8ae
 6801 08ac 00       		.byte	0
 6802 08ad 00       		.byte	0
 6803 08ae 06       		.uleb128 0x6
 6804 08af 04       		.byte	0x4
 6805 08b0 B4080000 		.4byte	0x8b4
 6806 08b4 07       		.uleb128 0x7
 6807 08b5 F9070000 		.4byte	0x7f9
 6808 08b9 03       		.uleb128 0x3
 6809 08ba 67010000 		.4byte	.LASF122
 6810 08be 10       		.byte	0x10
 6811 08bf 4D       		.byte	0x4d
 6812 08c0 99080000 		.4byte	0x899
 6813 08c4 04       		.uleb128 0x4
 6814 08c5 01       		.byte	0x1
 6815 08c6 02       		.byte	0x2
 6816 08c7 11040000 		.4byte	.LASF123
 6817 08cb 0F       		.uleb128 0xf
 6818 08cc 04       		.byte	0x4
 6819 08cd 11       		.byte	0x11
 6820 08ce B3       		.byte	0xb3
 6821 08cf EC080000 		.4byte	0x8ec
 6822 08d3 11       		.uleb128 0x11
 6823 08d4 73657400 		.ascii	"set\000"
 6824 08d8 11       		.byte	0x11
 6825 08d9 B4       		.byte	0xb4
 6826 08da 16020000 		.4byte	0x216
 6827 08de 00       		.byte	0
 6828 08df 10       		.uleb128 0x10
 6829 08e0 8C050000 		.4byte	.LASF124
 6830 08e4 11       		.byte	0x11
 6831 08e5 B5       		.byte	0xb5
 6832 08e6 16020000 		.4byte	0x216
 6833 08ea 02       		.byte	0x2
 6834 08eb 00       		.byte	0
 6835 08ec 12       		.uleb128 0x12
 6836 08ed 04       		.byte	0x4
 6837 08ee 11       		.byte	0x11
 6838 08ef B1       		.byte	0xb1
 6839 08f0 07090000 		.4byte	0x907
 6840 08f4 1D       		.uleb128 0x1d
 6841 08f5 5700     		.ascii	"W\000"
 6842 08f7 11       		.byte	0x11
 6843 08f8 B2       		.byte	0xb2
 6844 08f9 2C020000 		.4byte	0x22c
 6845 08fd 1D       		.uleb128 0x1d
 6846 08fe 4800     		.ascii	"H\000"
 6847 0900 11       		.byte	0x11
 6848 0901 B6       		.byte	0xb6
ARM GAS  C:\Users\jo\AppData\Local\Temp\ccMF9q4g.s 			page 125


 6849 0902 CB080000 		.4byte	0x8cb
 6850 0906 00       		.byte	0
 6851 0907 0F       		.uleb128 0xf
 6852 0908 2C       		.byte	0x2c
 6853 0909 11       		.byte	0x11
 6854 090a A9       		.byte	0xa9
 6855 090b 94090000 		.4byte	0x994
 6856 090f 10       		.uleb128 0x10
 6857 0910 D0070000 		.4byte	.LASF125
 6858 0914 11       		.byte	0x11
 6859 0915 AB       		.byte	0xab
 6860 0916 47020000 		.4byte	0x247
 6861 091a 00       		.byte	0
 6862 091b 10       		.uleb128 0x10
 6863 091c 3B000000 		.4byte	.LASF126
 6864 0920 11       		.byte	0x11
 6865 0921 AC       		.byte	0xac
 6866 0922 47020000 		.4byte	0x247
 6867 0926 04       		.byte	0x4
 6868 0927 10       		.uleb128 0x10
 6869 0928 96060000 		.4byte	.LASF127
 6870 092c 11       		.byte	0x11
 6871 092d AD       		.byte	0xad
 6872 092e 47020000 		.4byte	0x247
 6873 0932 08       		.byte	0x8
 6874 0933 10       		.uleb128 0x10
 6875 0934 37020000 		.4byte	.LASF128
 6876 0938 11       		.byte	0x11
 6877 0939 AE       		.byte	0xae
 6878 093a 47020000 		.4byte	0x247
 6879 093e 0C       		.byte	0xc
 6880 093f 11       		.uleb128 0x11
 6881 0940 49445200 		.ascii	"IDR\000"
 6882 0944 11       		.byte	0x11
 6883 0945 AF       		.byte	0xaf
 6884 0946 47020000 		.4byte	0x247
 6885 094a 10       		.byte	0x10
 6886 094b 11       		.uleb128 0x11
 6887 094c 4F445200 		.ascii	"ODR\000"
 6888 0950 11       		.byte	0x11
 6889 0951 B0       		.byte	0xb0
 6890 0952 47020000 		.4byte	0x247
 6891 0956 14       		.byte	0x14
 6892 0957 10       		.uleb128 0x10
 6893 0958 9F0B0000 		.4byte	.LASF129
 6894 095c 11       		.byte	0x11
 6895 095d B7       		.byte	0xb7
 6896 095e 94090000 		.4byte	0x994
 6897 0962 18       		.byte	0x18
 6898 0963 10       		.uleb128 0x10
 6899 0964 67060000 		.4byte	.LASF130
 6900 0968 11       		.byte	0x11
 6901 0969 B8       		.byte	0xb8
 6902 096a 47020000 		.4byte	0x247
 6903 096e 1C       		.byte	0x1c
 6904 096f 10       		.uleb128 0x10
 6905 0970 BA090000 		.4byte	.LASF131
ARM GAS  C:\Users\jo\AppData\Local\Temp\ccMF9q4g.s 			page 126


 6906 0974 11       		.byte	0x11
 6907 0975 B9       		.byte	0xb9
 6908 0976 47020000 		.4byte	0x247
 6909 097a 20       		.byte	0x20
 6910 097b 10       		.uleb128 0x10
 6911 097c 9E090000 		.4byte	.LASF132
 6912 0980 11       		.byte	0x11
 6913 0981 BA       		.byte	0xba
 6914 0982 47020000 		.4byte	0x247
 6915 0986 24       		.byte	0x24
 6916 0987 11       		.uleb128 0x11
 6917 0988 42525200 		.ascii	"BRR\000"
 6918 098c 11       		.byte	0x11
 6919 098d BB       		.byte	0xbb
 6920 098e 47020000 		.4byte	0x247
 6921 0992 28       		.byte	0x28
 6922 0993 00       		.byte	0
 6923 0994 14       		.uleb128 0x14
 6924 0995 EC080000 		.4byte	0x8ec
 6925 0999 03       		.uleb128 0x3
 6926 099a 7F030000 		.4byte	.LASF133
 6927 099e 11       		.byte	0x11
 6928 099f BC       		.byte	0xbc
 6929 09a0 07090000 		.4byte	0x907
 6930 09a4 1E       		.uleb128 0x1e
 6931 09a5 FC040000 		.4byte	.LASF134
 6932 09a9 11       		.byte	0x11
 6933 09aa 0E01     		.2byte	0x10e
 6934 09ac 2C020000 		.4byte	0x22c
 6935 09b0 08       		.uleb128 0x8
 6936 09b1 020C0000 		.4byte	.LASF135
 6937 09b5 10       		.byte	0x10
 6938 09b6 12       		.byte	0x12
 6939 09b7 2E       		.byte	0x2e
 6940 09b8 ED090000 		.4byte	0x9ed
 6941 09bc 10       		.uleb128 0x10
 6942 09bd F1000000 		.4byte	.LASF120
 6943 09c1 12       		.byte	0x12
 6944 09c2 2F       		.byte	0x2f
 6945 09c3 5A080000 		.4byte	0x85a
 6946 09c7 00       		.byte	0
 6947 09c8 10       		.uleb128 0x10
 6948 09c9 DE070000 		.4byte	.LASF121
 6949 09cd 12       		.byte	0x12
 6950 09ce 2F       		.byte	0x2f
 6951 09cf 79080000 		.4byte	0x879
 6952 09d3 04       		.byte	0x4
 6953 09d4 11       		.uleb128 0x11
 6954 09d5 70757400 		.ascii	"put\000"
 6955 09d9 12       		.byte	0x12
 6956 09da 2F       		.byte	0x2f
 6957 09db 93080000 		.4byte	0x893
 6958 09df 08       		.byte	0x8
 6959 09e0 11       		.uleb128 0x11
 6960 09e1 67657400 		.ascii	"get\000"
 6961 09e5 12       		.byte	0x12
 6962 09e6 2F       		.byte	0x2f
ARM GAS  C:\Users\jo\AppData\Local\Temp\ccMF9q4g.s 			page 127


 6963 09e7 CD070000 		.4byte	0x7cd
 6964 09eb 0C       		.byte	0xc
 6965 09ec 00       		.byte	0
 6966 09ed 0F       		.uleb128 0xf
 6967 09ee 04       		.byte	0x4
 6968 09ef 12       		.byte	0x12
 6969 09f0 39       		.byte	0x39
 6970 09f1 020A0000 		.4byte	0xa02
 6971 09f5 11       		.uleb128 0x11
 6972 09f6 766D7400 		.ascii	"vmt\000"
 6973 09fa 12       		.byte	0x12
 6974 09fb 3B       		.byte	0x3b
 6975 09fc 020A0000 		.4byte	0xa02
 6976 0a00 00       		.byte	0
 6977 0a01 00       		.byte	0
 6978 0a02 06       		.uleb128 0x6
 6979 0a03 04       		.byte	0x4
 6980 0a04 080A0000 		.4byte	0xa08
 6981 0a08 07       		.uleb128 0x7
 6982 0a09 B0090000 		.4byte	0x9b0
 6983 0a0d 03       		.uleb128 0x3
 6984 0a0e 3F050000 		.4byte	.LASF136
 6985 0a12 12       		.byte	0x12
 6986 0a13 3D       		.byte	0x3d
 6987 0a14 ED090000 		.4byte	0x9ed
 6988 0a18 0B       		.uleb128 0xb
 6989 0a19 AE010000 		.4byte	.LASF137
 6990 0a1d 01       		.byte	0x1
 6991 0a1e 02       		.byte	0x2
 6992 0a1f 68       		.byte	0x68
 6993 0a20 5B0A0000 		.4byte	0xa5b
 6994 0a24 0C       		.uleb128 0xc
 6995 0a25 9D040000 		.4byte	.LASF138
 6996 0a29 00       		.sleb128 0
 6997 0a2a 0C       		.uleb128 0xc
 6998 0a2b BF090000 		.4byte	.LASF139
 6999 0a2f 01       		.sleb128 1
 7000 0a30 0C       		.uleb128 0xc
 7001 0a31 0F0C0000 		.4byte	.LASF140
 7002 0a35 02       		.sleb128 2
 7003 0a36 0C       		.uleb128 0xc
 7004 0a37 54070000 		.4byte	.LASF141
 7005 0a3b 03       		.sleb128 3
 7006 0a3c 0C       		.uleb128 0xc
 7007 0a3d BB0D0000 		.4byte	.LASF142
 7008 0a41 04       		.sleb128 4
 7009 0a42 0C       		.uleb128 0xc
 7010 0a43 44080000 		.4byte	.LASF143
 7011 0a47 05       		.sleb128 5
 7012 0a48 0C       		.uleb128 0xc
 7013 0a49 7D0B0000 		.4byte	.LASF144
 7014 0a4d 06       		.sleb128 6
 7015 0a4e 0C       		.uleb128 0xc
 7016 0a4f EC040000 		.4byte	.LASF145
 7017 0a53 07       		.sleb128 7
 7018 0a54 0C       		.uleb128 0xc
 7019 0a55 9A0D0000 		.4byte	.LASF146
ARM GAS  C:\Users\jo\AppData\Local\Temp\ccMF9q4g.s 			page 128


 7020 0a59 08       		.sleb128 8
 7021 0a5a 00       		.byte	0
 7022 0a5b 08       		.uleb128 0x8
 7023 0a5c E3070000 		.4byte	.LASF147
 7024 0a60 0C       		.byte	0xc
 7025 0a61 02       		.byte	0x2
 7026 0a62 77       		.byte	0x77
 7027 0a63 980A0000 		.4byte	0xa98
 7028 0a67 10       		.uleb128 0x10
 7029 0a68 A9010000 		.4byte	.LASF33
 7030 0a6c 02       		.byte	0x2
 7031 0a6d 79       		.byte	0x79
 7032 0a6e 180A0000 		.4byte	0xa18
 7033 0a72 00       		.byte	0
 7034 0a73 10       		.uleb128 0x10
 7035 0a74 EE070000 		.4byte	.LASF29
 7036 0a78 02       		.byte	0x2
 7037 0a79 7A       		.byte	0x7a
 7038 0a7a CD0A0000 		.4byte	0xacd
 7039 0a7e 04       		.byte	0x4
 7040 0a7f 10       		.uleb128 0x10
 7041 0a80 2E060000 		.4byte	.LASF148
 7042 0a84 02       		.byte	0x2
 7043 0a85 7B       		.byte	0x7b
 7044 0a86 57000000 		.4byte	0x57
 7045 0a8a 08       		.byte	0x8
 7046 0a8b 11       		.uleb128 0x11
 7047 0a8c 636F6C00 		.ascii	"col\000"
 7048 0a90 02       		.byte	0x2
 7049 0a91 7C       		.byte	0x7c
 7050 0a92 57000000 		.4byte	0x57
 7051 0a96 0A       		.byte	0xa
 7052 0a97 00       		.byte	0
 7053 0a98 17       		.uleb128 0x17
 7054 0a99 54070000 		.4byte	.LASF141
 7055 0a9d 0C       		.byte	0xc
 7056 0a9e 02       		.byte	0x2
 7057 0a9f 4201     		.2byte	0x142
 7058 0aa1 CD0A0000 		.4byte	0xacd
 7059 0aa5 15       		.uleb128 0x15
 7060 0aa6 73747200 		.ascii	"str\000"
 7061 0aaa 02       		.byte	0x2
 7062 0aab 4401     		.2byte	0x144
 7063 0aad B6000000 		.4byte	0xb6
 7064 0ab1 00       		.byte	0
 7065 0ab2 16       		.uleb128 0x16
 7066 0ab3 32090000 		.4byte	.LASF149
 7067 0ab7 02       		.byte	0x2
 7068 0ab8 4501     		.2byte	0x145
 7069 0aba 37000000 		.4byte	0x37
 7070 0abe 04       		.byte	0x4
 7071 0abf 16       		.uleb128 0x16
 7072 0ac0 34040000 		.4byte	.LASF150
 7073 0ac4 02       		.byte	0x2
 7074 0ac5 4601     		.2byte	0x146
 7075 0ac7 37000000 		.4byte	0x37
 7076 0acb 08       		.byte	0x8
ARM GAS  C:\Users\jo\AppData\Local\Temp\ccMF9q4g.s 			page 129


 7077 0acc 00       		.byte	0
 7078 0acd 06       		.uleb128 0x6
 7079 0ace 04       		.byte	0x4
 7080 0acf 980A0000 		.4byte	0xa98
 7081 0ad3 19       		.uleb128 0x19
 7082 0ad4 130E0000 		.4byte	.LASF151
 7083 0ad8 2801     		.2byte	0x128
 7084 0ada 02       		.byte	0x2
 7085 0adb 2902     		.2byte	0x229
 7086 0add 6A0B0000 		.4byte	0xb6a
 7087 0ae1 16       		.uleb128 0x16
 7088 0ae2 D80D0000 		.4byte	.LASF152
 7089 0ae6 02       		.byte	0x2
 7090 0ae7 2B02     		.2byte	0x22b
 7091 0ae9 940B0000 		.4byte	0xb94
 7092 0aed 00       		.byte	0
 7093 0aee 15       		.uleb128 0x15
 7094 0aef 666400   		.ascii	"fd\000"
 7095 0af2 02       		.byte	0x2
 7096 0af3 2D02     		.2byte	0x22d
 7097 0af5 25000000 		.4byte	0x25
 7098 0af9 04       		.byte	0x4
 7099 0afa 16       		.uleb128 0x16
 7100 0afb 59050000 		.4byte	.LASF153
 7101 0aff 02       		.byte	0x2
 7102 0b00 2E02     		.2byte	0x22e
 7103 0b02 9A0B0000 		.4byte	0xb9a
 7104 0b06 08       		.byte	0x8
 7105 0b07 1F       		.uleb128 0x1f
 7106 0b08 76080000 		.4byte	.LASF108
 7107 0b0c 02       		.byte	0x2
 7108 0b0d 2F02     		.2byte	0x22f
 7109 0b0f 25000000 		.4byte	0x25
 7110 0b13 0801     		.2byte	0x108
 7111 0b15 1F       		.uleb128 0x1f
 7112 0b16 32090000 		.4byte	.LASF149
 7113 0b1a 02       		.byte	0x2
 7114 0b1b 3002     		.2byte	0x230
 7115 0b1d 25000000 		.4byte	0x25
 7116 0b21 0C01     		.2byte	0x10c
 7117 0b23 20       		.uleb128 0x20
 7118 0b24 656F6600 		.ascii	"eof\000"
 7119 0b28 02       		.byte	0x2
 7120 0b29 3102     		.2byte	0x231
 7121 0b2b 25000000 		.4byte	0x25
 7122 0b2f 1001     		.2byte	0x110
 7123 0b31 1F       		.uleb128 0x1f
 7124 0b32 2E060000 		.4byte	.LASF148
 7125 0b36 02       		.byte	0x2
 7126 0b37 3302     		.2byte	0x233
 7127 0b39 57000000 		.4byte	0x57
 7128 0b3d 1401     		.2byte	0x114
 7129 0b3f 20       		.uleb128 0x20
 7130 0b40 636F6C00 		.ascii	"col\000"
 7131 0b44 02       		.byte	0x2
 7132 0b45 3402     		.2byte	0x234
 7133 0b47 57000000 		.4byte	0x57
ARM GAS  C:\Users\jo\AppData\Local\Temp\ccMF9q4g.s 			page 130


 7134 0b4b 1601     		.2byte	0x116
 7135 0b4d 1F       		.uleb128 0x1f
 7136 0b4e 610B0000 		.4byte	.LASF154
 7137 0b52 02       		.byte	0x2
 7138 0b53 3602     		.2byte	0x236
 7139 0b55 5B0A0000 		.4byte	0xa5b
 7140 0b59 1801     		.2byte	0x118
 7141 0b5b 1F       		.uleb128 0x1f
 7142 0b5c DD0D0000 		.4byte	.LASF155
 7143 0b60 02       		.byte	0x2
 7144 0b61 3702     		.2byte	0x237
 7145 0b63 25000000 		.4byte	0x25
 7146 0b67 2401     		.2byte	0x124
 7147 0b69 00       		.byte	0
 7148 0b6a 19       		.uleb128 0x19
 7149 0b6b D80D0000 		.4byte	.LASF152
 7150 0b6f 0401     		.2byte	0x104
 7151 0b71 02       		.byte	0x2
 7152 0b72 0F05     		.2byte	0x50f
 7153 0b74 940B0000 		.4byte	0xb94
 7154 0b78 16       		.uleb128 0x16
 7155 0b79 BB020000 		.4byte	.LASF156
 7156 0b7d 02       		.byte	0x2
 7157 0b7e 1105     		.2byte	0x511
 7158 0b80 9A0B0000 		.4byte	0xb9a
 7159 0b84 00       		.byte	0
 7160 0b85 1F       		.uleb128 0x1f
 7161 0b86 00000000 		.4byte	.LASF157
 7162 0b8a 02       		.byte	0x2
 7163 0b8b 1205     		.2byte	0x512
 7164 0b8d 3A0C0000 		.4byte	0xc3a
 7165 0b91 0001     		.2byte	0x100
 7166 0b93 00       		.byte	0
 7167 0b94 06       		.uleb128 0x6
 7168 0b95 04       		.byte	0x4
 7169 0b96 6A0B0000 		.4byte	0xb6a
 7170 0b9a 1B       		.uleb128 0x1b
 7171 0b9b BC000000 		.4byte	0xbc
 7172 0b9f AA0B0000 		.4byte	0xbaa
 7173 0ba3 1C       		.uleb128 0x1c
 7174 0ba4 AD000000 		.4byte	0xad
 7175 0ba8 FE       		.byte	0xfe
 7176 0ba9 00       		.byte	0
 7177 0baa 17       		.uleb128 0x17
 7178 0bab 3D070000 		.4byte	.LASF158
 7179 0baf 08       		.byte	0x8
 7180 0bb0 02       		.byte	0x2
 7181 0bb1 BE03     		.2byte	0x3be
 7182 0bb3 D20B0000 		.4byte	0xbd2
 7183 0bb7 15       		.uleb128 0x15
 7184 0bb8 6B657900 		.ascii	"key\000"
 7185 0bbc 02       		.byte	0x2
 7186 0bbd C003     		.2byte	0x3c0
 7187 0bbf B6000000 		.4byte	0xb6
 7188 0bc3 00       		.byte	0
 7189 0bc4 16       		.uleb128 0x16
 7190 0bc5 17040000 		.4byte	.LASF34
ARM GAS  C:\Users\jo\AppData\Local\Temp\ccMF9q4g.s 			page 131


 7191 0bc9 02       		.byte	0x2
 7192 0bca C103     		.2byte	0x3c1
 7193 0bcc CD0A0000 		.4byte	0xacd
 7194 0bd0 04       		.byte	0x4
 7195 0bd1 00       		.byte	0
 7196 0bd2 17       		.uleb128 0x17
 7197 0bd3 42000000 		.4byte	.LASF159
 7198 0bd7 18       		.byte	0x18
 7199 0bd8 02       		.byte	0x2
 7200 0bd9 C503     		.2byte	0x3c5
 7201 0bdb 2E0C0000 		.4byte	0xc2e
 7202 0bdf 16       		.uleb128 0x16
 7203 0be0 D80D0000 		.4byte	.LASF152
 7204 0be4 02       		.byte	0x2
 7205 0be5 C703     		.2byte	0x3c7
 7206 0be7 940B0000 		.4byte	0xb94
 7207 0beb 00       		.byte	0
 7208 0bec 16       		.uleb128 0x16
 7209 0bed 1C030000 		.4byte	.LASF160
 7210 0bf1 02       		.byte	0x2
 7211 0bf2 C803     		.2byte	0x3c8
 7212 0bf4 B6000000 		.4byte	0xb6
 7213 0bf8 04       		.byte	0x4
 7214 0bf9 16       		.uleb128 0x16
 7215 0bfa 0E0B0000 		.4byte	.LASF161
 7216 0bfe 02       		.byte	0x2
 7217 0bff C903     		.2byte	0x3c9
 7218 0c01 2E0C0000 		.4byte	0xc2e
 7219 0c05 08       		.byte	0x8
 7220 0c06 16       		.uleb128 0x16
 7221 0c07 4C0A0000 		.4byte	.LASF162
 7222 0c0b 02       		.byte	0x2
 7223 0c0c CB03     		.2byte	0x3cb
 7224 0c0e 340C0000 		.4byte	0xc34
 7225 0c12 0C       		.byte	0xc
 7226 0c13 16       		.uleb128 0x16
 7227 0c14 700B0000 		.4byte	.LASF163
 7228 0c18 02       		.byte	0x2
 7229 0c19 CC03     		.2byte	0x3cc
 7230 0c1b 37000000 		.4byte	0x37
 7231 0c1f 10       		.byte	0x10
 7232 0c20 16       		.uleb128 0x16
 7233 0c21 FA050000 		.4byte	.LASF164
 7234 0c25 02       		.byte	0x2
 7235 0c26 CD03     		.2byte	0x3cd
 7236 0c28 37000000 		.4byte	0x37
 7237 0c2c 14       		.byte	0x14
 7238 0c2d 00       		.byte	0
 7239 0c2e 06       		.uleb128 0x6
 7240 0c2f 04       		.byte	0x4
 7241 0c30 D30A0000 		.4byte	0xad3
 7242 0c34 06       		.uleb128 0x6
 7243 0c35 04       		.byte	0x4
 7244 0c36 AA0B0000 		.4byte	0xbaa
 7245 0c3a 06       		.uleb128 0x6
 7246 0c3b 04       		.byte	0x4
 7247 0c3c D20B0000 		.4byte	0xbd2
ARM GAS  C:\Users\jo\AppData\Local\Temp\ccMF9q4g.s 			page 132


 7248 0c40 21       		.uleb128 0x21
 7249 0c41 07090000 		.4byte	.LASF175
 7250 0c45 02       		.byte	0x2
 7251 0c46 5101     		.2byte	0x151
 7252 0c48 03       		.byte	0x3
 7253 0c49 640C0000 		.4byte	0xc64
 7254 0c4d 22       		.uleb128 0x22
 7255 0c4e 7300     		.ascii	"s\000"
 7256 0c50 02       		.byte	0x2
 7257 0c51 5101     		.2byte	0x151
 7258 0c53 CD0A0000 		.4byte	0xacd
 7259 0c57 23       		.uleb128 0x23
 7260 0c58 BE010000 		.4byte	.LASF165
 7261 0c5c 02       		.byte	0x2
 7262 0c5d 5101     		.2byte	0x151
 7263 0c5f 37000000 		.4byte	0x37
 7264 0c63 00       		.byte	0
 7265 0c64 24       		.uleb128 0x24
 7266 0c65 800D0000 		.4byte	.LASF168
 7267 0c69 02       		.byte	0x2
 7268 0c6a 5C01     		.2byte	0x15c
 7269 0c6c CD0A0000 		.4byte	0xacd
 7270 0c70 01       		.byte	0x1
 7271 0c71 8D0C0000 		.4byte	0xc8d
 7272 0c75 25       		.uleb128 0x25
 7273 0c76 7300     		.ascii	"s\000"
 7274 0c78 02       		.byte	0x2
 7275 0c79 5E01     		.2byte	0x15e
 7276 0c7b CD0A0000 		.4byte	0xacd
 7277 0c7f 26       		.uleb128 0x26
 7278 0c80 BC030000 		.4byte	.LASF166
 7279 0c84 9D0C0000 		.4byte	0xc9d
 7280 0c88 800D0000 		.4byte	.LASF168
 7281 0c8c 00       		.byte	0
 7282 0c8d 1B       		.uleb128 0x1b
 7283 0c8e BC000000 		.4byte	0xbc
 7284 0c92 9D0C0000 		.4byte	0xc9d
 7285 0c96 1C       		.uleb128 0x1c
 7286 0c97 AD000000 		.4byte	0xad
 7287 0c9b 0F       		.byte	0xf
 7288 0c9c 00       		.byte	0
 7289 0c9d 07       		.uleb128 0x7
 7290 0c9e 8D0C0000 		.4byte	0xc8d
 7291 0ca2 27       		.uleb128 0x27
 7292 0ca3 94010000 		.4byte	.LASF169
 7293 0ca7 02       		.byte	0x2
 7294 0ca8 6A01     		.2byte	0x16a
 7295 0caa CD0A0000 		.4byte	0xacd
 7296 0cae 01       		.byte	0x1
 7297 0caf D70C0000 		.4byte	0xcd7
 7298 0cb3 22       		.uleb128 0x22
 7299 0cb4 7300     		.ascii	"s\000"
 7300 0cb6 02       		.byte	0x2
 7301 0cb7 6A01     		.2byte	0x16a
 7302 0cb9 CD0A0000 		.4byte	0xacd
 7303 0cbd 28       		.uleb128 0x28
 7304 0cbe 70080000 		.4byte	.LASF167
ARM GAS  C:\Users\jo\AppData\Local\Temp\ccMF9q4g.s 			page 133


 7305 0cc2 02       		.byte	0x2
 7306 0cc3 6C01     		.2byte	0x16c
 7307 0cc5 CD0A0000 		.4byte	0xacd
 7308 0cc9 26       		.uleb128 0x26
 7309 0cca BC030000 		.4byte	.LASF166
 7310 0cce E70C0000 		.4byte	0xce7
 7311 0cd2 94010000 		.4byte	.LASF169
 7312 0cd6 00       		.byte	0
 7313 0cd7 1B       		.uleb128 0x1b
 7314 0cd8 BC000000 		.4byte	0xbc
 7315 0cdc E70C0000 		.4byte	0xce7
 7316 0ce0 1C       		.uleb128 0x1c
 7317 0ce1 AD000000 		.4byte	0xad
 7318 0ce5 14       		.byte	0x14
 7319 0ce6 00       		.byte	0
 7320 0ce7 07       		.uleb128 0x7
 7321 0ce8 D70C0000 		.4byte	0xcd7
 7322 0cec 29       		.uleb128 0x29
 7323 0ced 3E0E0000 		.4byte	.LASF170
 7324 0cf1 02       		.byte	0x2
 7325 0cf2 B201     		.2byte	0x1b2
 7326 0cf4 01       		.byte	0x1
 7327 0cf5 100D0000 		.4byte	0xd10
 7328 0cf9 22       		.uleb128 0x22
 7329 0cfa 7300     		.ascii	"s\000"
 7330 0cfc 02       		.byte	0x2
 7331 0cfd B201     		.2byte	0x1b2
 7332 0cff CD0A0000 		.4byte	0xacd
 7333 0d03 23       		.uleb128 0x23
 7334 0d04 41060000 		.4byte	.LASF171
 7335 0d08 02       		.byte	0x2
 7336 0d09 B201     		.2byte	0x1b2
 7337 0d0b 37000000 		.4byte	0x37
 7338 0d0f 00       		.byte	0
 7339 0d10 27       		.uleb128 0x27
 7340 0d11 3D020000 		.4byte	.LASF172
 7341 0d15 02       		.byte	0x2
 7342 0d16 7803     		.2byte	0x378
 7343 0d18 2E0C0000 		.4byte	0xc2e
 7344 0d1c 01       		.byte	0x1
 7345 0d1d 4E0D0000 		.4byte	0xd4e
 7346 0d21 22       		.uleb128 0x22
 7347 0d22 6300     		.ascii	"c\000"
 7348 0d24 02       		.byte	0x2
 7349 0d25 7803     		.2byte	0x378
 7350 0d27 940B0000 		.4byte	0xb94
 7351 0d2b 22       		.uleb128 0x22
 7352 0d2c 666400   		.ascii	"fd\000"
 7353 0d2f 02       		.byte	0x2
 7354 0d30 7803     		.2byte	0x378
 7355 0d32 25000000 		.4byte	0x25
 7356 0d36 25       		.uleb128 0x25
 7357 0d37 7300     		.ascii	"s\000"
 7358 0d39 02       		.byte	0x2
 7359 0d3a 7A03     		.2byte	0x37a
 7360 0d3c 2E0C0000 		.4byte	0xc2e
 7361 0d40 26       		.uleb128 0x26
ARM GAS  C:\Users\jo\AppData\Local\Temp\ccMF9q4g.s 			page 134


 7362 0d41 BC030000 		.4byte	.LASF166
 7363 0d45 5E0D0000 		.4byte	0xd5e
 7364 0d49 3D020000 		.4byte	.LASF172
 7365 0d4d 00       		.byte	0
 7366 0d4e 1B       		.uleb128 0x1b
 7367 0d4f BC000000 		.4byte	0xbc
 7368 0d53 5E0D0000 		.4byte	0xd5e
 7369 0d57 1C       		.uleb128 0x1c
 7370 0d58 AD000000 		.4byte	0xad
 7371 0d5c 10       		.byte	0x10
 7372 0d5d 00       		.byte	0
 7373 0d5e 07       		.uleb128 0x7
 7374 0d5f 4E0D0000 		.4byte	0xd4e
 7375 0d63 29       		.uleb128 0x29
 7376 0d64 4F040000 		.4byte	.LASF173
 7377 0d68 02       		.byte	0x2
 7378 0d69 DB01     		.2byte	0x1db
 7379 0d6b 01       		.byte	0x1
 7380 0d6c 7B0D0000 		.4byte	0xd7b
 7381 0d70 22       		.uleb128 0x22
 7382 0d71 7300     		.ascii	"s\000"
 7383 0d73 02       		.byte	0x2
 7384 0d74 DB01     		.2byte	0x1db
 7385 0d76 CD0A0000 		.4byte	0xacd
 7386 0d7a 00       		.byte	0
 7387 0d7b 2A       		.uleb128 0x2a
 7388 0d7c B3060000 		.4byte	.LASF174
 7389 0d80 02       		.byte	0x2
 7390 0d81 D003     		.2byte	0x3d0
 7391 0d83 25000000 		.4byte	0x25
 7392 0d87 01       		.byte	0x1
 7393 0d88 BC0D0000 		.4byte	0xdbc
 7394 0d8c 22       		.uleb128 0x22
 7395 0d8d 7000     		.ascii	"p\000"
 7396 0d8f 02       		.byte	0x2
 7397 0d90 D003     		.2byte	0x3d0
 7398 0d92 3A0C0000 		.4byte	0xc3a
 7399 0d96 22       		.uleb128 0x22
 7400 0d97 6B657900 		.ascii	"key\000"
 7401 0d9b 02       		.byte	0x2
 7402 0d9c D003     		.2byte	0x3d0
 7403 0d9e C3000000 		.4byte	0xc3
 7404 0da2 23       		.uleb128 0x23
 7405 0da3 17040000 		.4byte	.LASF34
 7406 0da7 02       		.byte	0x2
 7407 0da8 D003     		.2byte	0x3d0
 7408 0daa CD0A0000 		.4byte	0xacd
 7409 0dae 26       		.uleb128 0x26
 7410 0daf BC030000 		.4byte	.LASF166
 7411 0db3 CC0D0000 		.4byte	0xdcc
 7412 0db7 B3060000 		.4byte	.LASF174
 7413 0dbb 00       		.byte	0
 7414 0dbc 1B       		.uleb128 0x1b
 7415 0dbd BC000000 		.4byte	0xbc
 7416 0dc1 CC0D0000 		.4byte	0xdcc
 7417 0dc5 1C       		.uleb128 0x1c
 7418 0dc6 AD000000 		.4byte	0xad
ARM GAS  C:\Users\jo\AppData\Local\Temp\ccMF9q4g.s 			page 135


 7419 0dca 15       		.byte	0x15
 7420 0dcb 00       		.byte	0
 7421 0dcc 07       		.uleb128 0x7
 7422 0dcd BC0D0000 		.4byte	0xdbc
 7423 0dd1 21       		.uleb128 0x21
 7424 0dd2 EB0A0000 		.4byte	.LASF176
 7425 0dd6 02       		.byte	0x2
 7426 0dd7 9505     		.2byte	0x595
 7427 0dd9 01       		.byte	0x1
 7428 0dda 450E0000 		.4byte	0xe45
 7429 0dde 23       		.uleb128 0x23
 7430 0ddf EB000000 		.4byte	.LASF177
 7431 0de3 02       		.byte	0x2
 7432 0de4 9505     		.2byte	0x595
 7433 0de6 25000000 		.4byte	0x25
 7434 0dea 23       		.uleb128 0x23
 7435 0deb 61010000 		.4byte	.LASF178
 7436 0def 02       		.byte	0x2
 7437 0df0 9505     		.2byte	0x595
 7438 0df2 450E0000 		.4byte	0xe45
 7439 0df6 23       		.uleb128 0x23
 7440 0df7 250E0000 		.4byte	.LASF27
 7441 0dfb 02       		.byte	0x2
 7442 0dfc 9505     		.2byte	0x595
 7443 0dfe B4000000 		.4byte	0xb4
 7444 0e02 22       		.uleb128 0x22
 7445 0e03 6C656E00 		.ascii	"len\000"
 7446 0e07 02       		.byte	0x2
 7447 0e08 9505     		.2byte	0x595
 7448 0e0a 2C000000 		.4byte	0x2c
 7449 0e0e 23       		.uleb128 0x23
 7450 0e0f DC040000 		.4byte	.LASF179
 7451 0e13 02       		.byte	0x2
 7452 0e14 9505     		.2byte	0x595
 7453 0e16 E6010000 		.4byte	0x1e6
 7454 0e1a 25       		.uleb128 0x25
 7455 0e1b 6E00     		.ascii	"n\000"
 7456 0e1d 02       		.byte	0x2
 7457 0e1e 9705     		.2byte	0x597
 7458 0e20 E6010000 		.4byte	0x1e6
 7459 0e24 2B       		.uleb128 0x2b
 7460 0e25 360E0000 		.4byte	0xe36
 7461 0e29 25       		.uleb128 0x25
 7462 0e2a 656E6400 		.ascii	"end\000"
 7463 0e2e 02       		.byte	0x2
 7464 0e2f AB05     		.2byte	0x5ab
 7465 0e31 E6010000 		.4byte	0x1e6
 7466 0e35 00       		.byte	0
 7467 0e36 2C       		.uleb128 0x2c
 7468 0e37 25       		.uleb128 0x25
 7469 0e38 656E6400 		.ascii	"end\000"
 7470 0e3c 02       		.byte	0x2
 7471 0e3d C005     		.2byte	0x5c0
 7472 0e3f E6010000 		.4byte	0x1e6
 7473 0e43 00       		.byte	0
 7474 0e44 00       		.byte	0
 7475 0e45 06       		.uleb128 0x6
ARM GAS  C:\Users\jo\AppData\Local\Temp\ccMF9q4g.s 			page 136


 7476 0e46 04       		.byte	0x4
 7477 0e47 B6000000 		.4byte	0xb6
 7478 0e4b 27       		.uleb128 0x27
 7479 0e4c AC0A0000 		.4byte	.LASF180
 7480 0e50 02       		.byte	0x2
 7481 0e51 DF03     		.2byte	0x3df
 7482 0e53 3A0C0000 		.4byte	0xc3a
 7483 0e57 01       		.byte	0x1
 7484 0e58 8A0E0000 		.4byte	0xe8a
 7485 0e5c 22       		.uleb128 0x22
 7486 0e5d 6300     		.ascii	"c\000"
 7487 0e5f 02       		.byte	0x2
 7488 0e60 DF03     		.2byte	0x3df
 7489 0e62 940B0000 		.4byte	0xb94
 7490 0e66 23       		.uleb128 0x23
 7491 0e67 1C030000 		.4byte	.LASF160
 7492 0e6b 02       		.byte	0x2
 7493 0e6c DF03     		.2byte	0x3df
 7494 0e6e C3000000 		.4byte	0xc3
 7495 0e72 25       		.uleb128 0x25
 7496 0e73 7000     		.ascii	"p\000"
 7497 0e75 02       		.byte	0x2
 7498 0e76 E103     		.2byte	0x3e1
 7499 0e78 3A0C0000 		.4byte	0xc3a
 7500 0e7c 26       		.uleb128 0x26
 7501 0e7d BC030000 		.4byte	.LASF166
 7502 0e81 8A0E0000 		.4byte	0xe8a
 7503 0e85 AC0A0000 		.4byte	.LASF180
 7504 0e89 00       		.byte	0
 7505 0e8a 07       		.uleb128 0x7
 7506 0e8b 8D0C0000 		.4byte	0xc8d
 7507 0e8f 27       		.uleb128 0x27
 7508 0e90 4E000000 		.4byte	.LASF181
 7509 0e94 02       		.byte	0x2
 7510 0e95 D001     		.2byte	0x1d0
 7511 0e97 C3000000 		.4byte	0xc3
 7512 0e9b 01       		.byte	0x1
 7513 0e9c AB0E0000 		.4byte	0xeab
 7514 0ea0 22       		.uleb128 0x22
 7515 0ea1 7300     		.ascii	"s\000"
 7516 0ea3 02       		.byte	0x2
 7517 0ea4 D001     		.2byte	0x1d0
 7518 0ea6 CD0A0000 		.4byte	0xacd
 7519 0eaa 00       		.byte	0
 7520 0eab 27       		.uleb128 0x27
 7521 0eac 6B070000 		.4byte	.LASF182
 7522 0eb0 02       		.byte	0x2
 7523 0eb1 D601     		.2byte	0x1d6
 7524 0eb3 37000000 		.4byte	0x37
 7525 0eb7 01       		.byte	0x1
 7526 0eb8 C70E0000 		.4byte	0xec7
 7527 0ebc 22       		.uleb128 0x22
 7528 0ebd 7300     		.ascii	"s\000"
 7529 0ebf 02       		.byte	0x2
 7530 0ec0 D601     		.2byte	0x1d6
 7531 0ec2 CD0A0000 		.4byte	0xacd
 7532 0ec6 00       		.byte	0
ARM GAS  C:\Users\jo\AppData\Local\Temp\ccMF9q4g.s 			page 137


 7533 0ec7 2A       		.uleb128 0x2a
 7534 0ec8 85000000 		.4byte	.LASF183
 7535 0ecc 02       		.byte	0x2
 7536 0ecd 4E02     		.2byte	0x24e
 7537 0ecf 25000000 		.4byte	0x25
 7538 0ed3 03       		.byte	0x3
 7539 0ed4 E30E0000 		.4byte	0xee3
 7540 0ed8 22       		.uleb128 0x22
 7541 0ed9 7300     		.ascii	"s\000"
 7542 0edb 02       		.byte	0x2
 7543 0edc 4E02     		.2byte	0x24e
 7544 0ede 2E0C0000 		.4byte	0xc2e
 7545 0ee2 00       		.byte	0
 7546 0ee3 27       		.uleb128 0x27
 7547 0ee4 7E090000 		.4byte	.LASF184
 7548 0ee8 02       		.byte	0x2
 7549 0ee9 6403     		.2byte	0x364
 7550 0eeb 25000000 		.4byte	0x25
 7551 0eef 01       		.byte	0x1
 7552 0ef0 FF0E0000 		.4byte	0xeff
 7553 0ef4 22       		.uleb128 0x22
 7554 0ef5 7300     		.ascii	"s\000"
 7555 0ef7 02       		.byte	0x2
 7556 0ef8 6403     		.2byte	0x364
 7557 0efa 2E0C0000 		.4byte	0xc2e
 7558 0efe 00       		.byte	0
 7559 0eff 27       		.uleb128 0x27
 7560 0f00 6D000000 		.4byte	.LASF185
 7561 0f04 02       		.byte	0x2
 7562 0f05 6903     		.2byte	0x369
 7563 0f07 02010000 		.4byte	0x102
 7564 0f0b 01       		.byte	0x1
 7565 0f0c 250F0000 		.4byte	0xf25
 7566 0f10 22       		.uleb128 0x22
 7567 0f11 7300     		.ascii	"s\000"
 7568 0f13 02       		.byte	0x2
 7569 0f14 6903     		.2byte	0x369
 7570 0f16 2E0C0000 		.4byte	0xc2e
 7571 0f1a 22       		.uleb128 0x22
 7572 0f1b 7400     		.ascii	"t\000"
 7573 0f1d 02       		.byte	0x2
 7574 0f1e 6903     		.2byte	0x369
 7575 0f20 250F0000 		.4byte	0xf25
 7576 0f24 00       		.byte	0
 7577 0f25 06       		.uleb128 0x6
 7578 0f26 04       		.byte	0x4
 7579 0f27 5B0A0000 		.4byte	0xa5b
 7580 0f2b 27       		.uleb128 0x27
 7581 0f2c AC050000 		.4byte	.LASF186
 7582 0f30 02       		.byte	0x2
 7583 0f31 5E03     		.2byte	0x35e
 7584 0f33 02010000 		.4byte	0x102
 7585 0f37 01       		.byte	0x1
 7586 0f38 470F0000 		.4byte	0xf47
 7587 0f3c 22       		.uleb128 0x22
 7588 0f3d 7300     		.ascii	"s\000"
 7589 0f3f 02       		.byte	0x2
ARM GAS  C:\Users\jo\AppData\Local\Temp\ccMF9q4g.s 			page 138


 7590 0f40 5E03     		.2byte	0x35e
 7591 0f42 2E0C0000 		.4byte	0xc2e
 7592 0f46 00       		.byte	0
 7593 0f47 27       		.uleb128 0x27
 7594 0f48 C30A0000 		.4byte	.LASF187
 7595 0f4c 02       		.byte	0x2
 7596 0f4d A301     		.2byte	0x1a3
 7597 0f4f 25000000 		.4byte	0x25
 7598 0f53 01       		.byte	0x1
 7599 0f54 770F0000 		.4byte	0xf77
 7600 0f58 22       		.uleb128 0x22
 7601 0f59 7300     		.ascii	"s\000"
 7602 0f5b 02       		.byte	0x2
 7603 0f5c A301     		.2byte	0x1a3
 7604 0f5e CD0A0000 		.4byte	0xacd
 7605 0f62 22       		.uleb128 0x22
 7606 0f63 6300     		.ascii	"c\000"
 7607 0f65 02       		.byte	0x2
 7608 0f66 A301     		.2byte	0x1a3
 7609 0f68 BC000000 		.4byte	0xbc
 7610 0f6c 25       		.uleb128 0x25
 7611 0f6d 6900     		.ascii	"i\000"
 7612 0f6f 02       		.byte	0x2
 7613 0f70 A501     		.2byte	0x1a5
 7614 0f72 25000000 		.4byte	0x25
 7615 0f76 00       		.byte	0
 7616 0f77 27       		.uleb128 0x27
 7617 0f78 0C030000 		.4byte	.LASF188
 7618 0f7c 02       		.byte	0x2
 7619 0f7d AA04     		.2byte	0x4aa
 7620 0f7f 02010000 		.4byte	0x102
 7621 0f83 01       		.byte	0x1
 7622 0f84 AA0F0000 		.4byte	0xfaa
 7623 0f88 22       		.uleb128 0x22
 7624 0f89 7000     		.ascii	"p\000"
 7625 0f8b 02       		.byte	0x2
 7626 0f8c AA04     		.2byte	0x4aa
 7627 0f8e 3A0C0000 		.4byte	0xc3a
 7628 0f92 25       		.uleb128 0x25
 7629 0f93 666400   		.ascii	"fd\000"
 7630 0f96 02       		.byte	0x2
 7631 0f97 AC04     		.2byte	0x4ac
 7632 0f99 25000000 		.4byte	0x25
 7633 0f9d 28       		.uleb128 0x28
 7634 0f9e F3050000 		.4byte	.LASF189
 7635 0fa2 02       		.byte	0x2
 7636 0fa3 AD04     		.2byte	0x4ad
 7637 0fa5 02010000 		.4byte	0x102
 7638 0fa9 00       		.byte	0
 7639 0faa 27       		.uleb128 0x27
 7640 0fab 800A0000 		.4byte	.LASF190
 7641 0faf 02       		.byte	0x2
 7642 0fb0 BD04     		.2byte	0x4bd
 7643 0fb2 02010000 		.4byte	0x102
 7644 0fb6 01       		.byte	0x1
 7645 0fb7 E70F0000 		.4byte	0xfe7
 7646 0fbb 22       		.uleb128 0x22
ARM GAS  C:\Users\jo\AppData\Local\Temp\ccMF9q4g.s 			page 139


 7647 0fbc 7000     		.ascii	"p\000"
 7648 0fbe 02       		.byte	0x2
 7649 0fbf BD04     		.2byte	0x4bd
 7650 0fc1 3A0C0000 		.4byte	0xc3a
 7651 0fc5 22       		.uleb128 0x22
 7652 0fc6 666E00   		.ascii	"fn\000"
 7653 0fc9 02       		.byte	0x2
 7654 0fca BD04     		.2byte	0x4bd
 7655 0fcc 1B010000 		.4byte	0x11b
 7656 0fd0 23       		.uleb128 0x23
 7657 0fd1 900D0000 		.4byte	.LASF191
 7658 0fd5 02       		.byte	0x2
 7659 0fd6 BD04     		.2byte	0x4bd
 7660 0fd8 B4000000 		.4byte	0xb4
 7661 0fdc 25       		.uleb128 0x25
 7662 0fdd 6900     		.ascii	"i\000"
 7663 0fdf 02       		.byte	0x2
 7664 0fe0 BF04     		.2byte	0x4bf
 7665 0fe2 25000000 		.4byte	0x25
 7666 0fe6 00       		.byte	0
 7667 0fe7 27       		.uleb128 0x27
 7668 0fe8 5D020000 		.4byte	.LASF192
 7669 0fec 02       		.byte	0x2
 7670 0fed 3105     		.2byte	0x531
 7671 0fef 02010000 		.4byte	0x102
 7672 0ff3 01       		.byte	0x1
 7673 0ff4 1A100000 		.4byte	0x101a
 7674 0ff8 22       		.uleb128 0x22
 7675 0ff9 6300     		.ascii	"c\000"
 7676 0ffb 02       		.byte	0x2
 7677 0ffc 3105     		.2byte	0x531
 7678 0ffe 940B0000 		.4byte	0xb94
 7679 1002 22       		.uleb128 0x22
 7680 1003 666E00   		.ascii	"fn\000"
 7681 1006 02       		.byte	0x2
 7682 1007 3105     		.2byte	0x531
 7683 1009 1B010000 		.4byte	0x11b
 7684 100d 23       		.uleb128 0x23
 7685 100e 900D0000 		.4byte	.LASF191
 7686 1012 02       		.byte	0x2
 7687 1013 3105     		.2byte	0x531
 7688 1015 B4000000 		.4byte	0xb4
 7689 1019 00       		.byte	0
 7690 101a 2D       		.uleb128 0x2d
 7691 101b 36050000 		.4byte	.LASF193
 7692 101f 01       		.byte	0x1
 7693 1020 45       		.byte	0x45
 7694 1021 25000000 		.4byte	0x25
 7695 1025 03       		.byte	0x3
 7696 1026 57100000 		.4byte	0x1057
 7697 102a 2E       		.uleb128 0x2e
 7698 102b 63687000 		.ascii	"chp\000"
 7699 102f 01       		.byte	0x1
 7700 1030 45       		.byte	0x45
 7701 1031 57100000 		.4byte	0x1057
 7702 1035 2E       		.uleb128 0x2e
 7703 1036 666D7400 		.ascii	"fmt\000"
ARM GAS  C:\Users\jo\AppData\Local\Temp\ccMF9q4g.s 			page 140


 7704 103a 01       		.byte	0x1
 7705 103b 45       		.byte	0x45
 7706 103c C3000000 		.4byte	0xc3
 7707 1040 2F       		.uleb128 0x2f
 7708 1041 30       		.uleb128 0x30
 7709 1042 617000   		.ascii	"ap\000"
 7710 1045 01       		.byte	0x1
 7711 1046 46       		.byte	0x46
 7712 1047 F0000000 		.4byte	0xf0
 7713 104b 31       		.uleb128 0x31
 7714 104c 61030000 		.4byte	.LASF194
 7715 1050 01       		.byte	0x1
 7716 1051 47       		.byte	0x47
 7717 1052 25000000 		.4byte	0x25
 7718 1056 00       		.byte	0
 7719 1057 06       		.uleb128 0x6
 7720 1058 04       		.byte	0x4
 7721 1059 B9080000 		.4byte	0x8b9
 7722 105d 32       		.uleb128 0x32
 7723 105e 1A100000 		.4byte	0x101a
 7724 1062 00000000 		.4byte	.LFB318
 7725 1066 24000000 		.4byte	.LFE318-.LFB318
 7726 106a 01       		.uleb128 0x1
 7727 106b 9C       		.byte	0x9c
 7728 106c AE100000 		.4byte	0x10ae
 7729 1070 33       		.uleb128 0x33
 7730 1071 2A100000 		.4byte	0x102a
 7731 1075 00000000 		.4byte	.LLST0
 7732 1079 34       		.uleb128 0x34
 7733 107a 35100000 		.4byte	0x1035
 7734 107e 02       		.uleb128 0x2
 7735 107f 91       		.byte	0x91
 7736 1080 74       		.sleb128 -12
 7737 1081 2F       		.uleb128 0x2f
 7738 1082 35       		.uleb128 0x35
 7739 1083 41100000 		.4byte	0x1041
 7740 1087 02       		.uleb128 0x2
 7741 1088 91       		.byte	0x91
 7742 1089 6C       		.sleb128 -20
 7743 108a 35       		.uleb128 0x35
 7744 108b 4B100000 		.4byte	0x104b
 7745 108f 01       		.uleb128 0x1
 7746 1090 50       		.byte	0x50
 7747 1091 36       		.uleb128 0x36
 7748 1092 2A100000 		.4byte	0x102a
 7749 1096 37       		.uleb128 0x37
 7750 1097 14000000 		.4byte	.LVL2
 7751 109b 2E360000 		.4byte	0x362e
 7752 109f 38       		.uleb128 0x38
 7753 10a0 01       		.uleb128 0x1
 7754 10a1 52       		.byte	0x52
 7755 10a2 02       		.uleb128 0x2
 7756 10a3 91       		.byte	0x91
 7757 10a4 60       		.sleb128 -32
 7758 10a5 38       		.uleb128 0x38
 7759 10a6 01       		.uleb128 0x1
 7760 10a7 51       		.byte	0x51
ARM GAS  C:\Users\jo\AppData\Local\Temp\ccMF9q4g.s 			page 141


 7761 10a8 03       		.uleb128 0x3
 7762 10a9 91       		.byte	0x91
 7763 10aa 5C       		.sleb128 -36
 7764 10ab 06       		.byte	0x6
 7765 10ac 00       		.byte	0
 7766 10ad 00       		.byte	0
 7767 10ae 32       		.uleb128 0x32
 7768 10af 640C0000 		.4byte	0xc64
 7769 10b3 00000000 		.4byte	.LFB258
 7770 10b7 4C000000 		.4byte	.LFE258-.LFB258
 7771 10bb 01       		.uleb128 0x1
 7772 10bc 9C       		.byte	0x9c
 7773 10bd 72110000 		.4byte	0x1172
 7774 10c1 39       		.uleb128 0x39
 7775 10c2 750C0000 		.4byte	0xc75
 7776 10c6 21000000 		.4byte	.LLST1
 7777 10ca 35       		.uleb128 0x35
 7778 10cb 7F0C0000 		.4byte	0xc7f
 7779 10cf 05       		.uleb128 0x5
 7780 10d0 03       		.byte	0x3
 7781 10d1 00000000 		.4byte	__FUNCTION__.9289
 7782 10d5 3A       		.uleb128 0x3a
 7783 10d6 20000000 		.4byte	.LBB102
 7784 10da 0E000000 		.4byte	.LBE102-.LBB102
 7785 10de 1F110000 		.4byte	0x111f
 7786 10e2 3B       		.uleb128 0x3b
 7787 10e3 750C0000 		.4byte	0xc75
 7788 10e7 35       		.uleb128 0x35
 7789 10e8 7F0C0000 		.4byte	0xc7f
 7790 10ec 05       		.uleb128 0x5
 7791 10ed 03       		.byte	0x3
 7792 10ee 00000000 		.4byte	__FUNCTION__.9289
 7793 10f2 37       		.uleb128 0x37
 7794 10f3 2E000000 		.4byte	.LVL8
 7795 10f7 4D360000 		.4byte	0x364d
 7796 10fb 38       		.uleb128 0x38
 7797 10fc 01       		.uleb128 0x1
 7798 10fd 53       		.byte	0x53
 7799 10fe 05       		.uleb128 0x5
 7800 10ff 03       		.byte	0x3
 7801 1100 10000000 		.4byte	.LC19
 7802 1104 38       		.uleb128 0x38
 7803 1105 01       		.uleb128 0x1
 7804 1106 52       		.byte	0x52
 7805 1107 05       		.uleb128 0x5
 7806 1108 03       		.byte	0x3
 7807 1109 00000000 		.4byte	.LANCHOR0
 7808 110d 38       		.uleb128 0x38
 7809 110e 01       		.uleb128 0x1
 7810 110f 51       		.byte	0x51
 7811 1110 03       		.uleb128 0x3
 7812 1111 0A       		.byte	0xa
 7813 1112 5F01     		.2byte	0x15f
 7814 1114 38       		.uleb128 0x38
 7815 1115 01       		.uleb128 0x1
 7816 1116 50       		.byte	0x50
 7817 1117 05       		.uleb128 0x5
ARM GAS  C:\Users\jo\AppData\Local\Temp\ccMF9q4g.s 			page 142


 7818 1118 03       		.byte	0x3
 7819 1119 00000000 		.4byte	.LC18
 7820 111d 00       		.byte	0
 7821 111e 00       		.byte	0
 7822 111f 3C       		.uleb128 0x3c
 7823 1120 08000000 		.4byte	.LVL3
 7824 1124 6D360000 		.4byte	0x366d
 7825 1128 32110000 		.4byte	0x1132
 7826 112c 38       		.uleb128 0x38
 7827 112d 01       		.uleb128 0x1
 7828 112e 50       		.byte	0x50
 7829 112f 01       		.uleb128 0x1
 7830 1130 3C       		.byte	0x3c
 7831 1131 00       		.byte	0
 7832 1132 3C       		.uleb128 0x3c
 7833 1133 18000000 		.4byte	.LVL5
 7834 1137 6D360000 		.4byte	0x366d
 7835 113b 45110000 		.4byte	0x1145
 7836 113f 38       		.uleb128 0x38
 7837 1140 01       		.uleb128 0x1
 7838 1141 50       		.byte	0x50
 7839 1142 01       		.uleb128 0x1
 7840 1143 38       		.byte	0x38
 7841 1144 00       		.byte	0
 7842 1145 37       		.uleb128 0x37
 7843 1146 3C000000 		.4byte	.LVL9
 7844 114a 4D360000 		.4byte	0x364d
 7845 114e 38       		.uleb128 0x38
 7846 114f 01       		.uleb128 0x1
 7847 1150 53       		.byte	0x53
 7848 1151 05       		.uleb128 0x5
 7849 1152 03       		.byte	0x3
 7850 1153 14000000 		.4byte	.LC20
 7851 1157 38       		.uleb128 0x38
 7852 1158 01       		.uleb128 0x1
 7853 1159 52       		.byte	0x52
 7854 115a 05       		.uleb128 0x5
 7855 115b 03       		.byte	0x3
 7856 115c 00000000 		.4byte	.LANCHOR0
 7857 1160 38       		.uleb128 0x38
 7858 1161 01       		.uleb128 0x1
 7859 1162 51       		.byte	0x51
 7860 1163 03       		.uleb128 0x3
 7861 1164 0A       		.byte	0xa
 7862 1165 6501     		.2byte	0x165
 7863 1167 38       		.uleb128 0x38
 7864 1168 01       		.uleb128 0x1
 7865 1169 50       		.byte	0x50
 7866 116a 05       		.uleb128 0x5
 7867 116b 03       		.byte	0x3
 7868 116c 00000000 		.4byte	.LC18
 7869 1170 00       		.byte	0
 7870 1171 00       		.byte	0
 7871 1172 32       		.uleb128 0x32
 7872 1173 A20C0000 		.4byte	0xca2
 7873 1177 00000000 		.4byte	.LFB259
 7874 117b 44000000 		.4byte	.LFE259-.LFB259
ARM GAS  C:\Users\jo\AppData\Local\Temp\ccMF9q4g.s 			page 143


 7875 117f 01       		.uleb128 0x1
 7876 1180 9C       		.byte	0x9c
 7877 1181 2A120000 		.4byte	0x122a
 7878 1185 33       		.uleb128 0x33
 7879 1186 B30C0000 		.4byte	0xcb3
 7880 118a 55000000 		.4byte	.LLST2
 7881 118e 39       		.uleb128 0x39
 7882 118f BD0C0000 		.4byte	0xcbd
 7883 1193 73000000 		.4byte	.LLST3
 7884 1197 35       		.uleb128 0x35
 7885 1198 C90C0000 		.4byte	0xcc9
 7886 119c 05       		.uleb128 0x5
 7887 119d 03       		.byte	0x3
 7888 119e 00000000 		.4byte	__FUNCTION__.9294
 7889 11a2 3A       		.uleb128 0x3a
 7890 11a3 28000000 		.4byte	.LBB105
 7891 11a7 1C000000 		.4byte	.LBE105-.LBB105
 7892 11ab FD110000 		.4byte	0x11fd
 7893 11af 34       		.uleb128 0x34
 7894 11b0 B30C0000 		.4byte	0xcb3
 7895 11b4 01       		.uleb128 0x1
 7896 11b5 55       		.byte	0x55
 7897 11b6 3D       		.uleb128 0x3d
 7898 11b7 28000000 		.4byte	.LBB106
 7899 11bb 1C000000 		.4byte	.LBE106-.LBB106
 7900 11bf 3B       		.uleb128 0x3b
 7901 11c0 BD0C0000 		.4byte	0xcbd
 7902 11c4 35       		.uleb128 0x35
 7903 11c5 C90C0000 		.4byte	0xcc9
 7904 11c9 05       		.uleb128 0x5
 7905 11ca 03       		.byte	0x3
 7906 11cb 00000000 		.4byte	__FUNCTION__.9294
 7907 11cf 37       		.uleb128 0x37
 7908 11d0 36000000 		.4byte	.LVL18
 7909 11d4 4D360000 		.4byte	0x364d
 7910 11d8 38       		.uleb128 0x38
 7911 11d9 01       		.uleb128 0x1
 7912 11da 53       		.byte	0x53
 7913 11db 05       		.uleb128 0x5
 7914 11dc 03       		.byte	0x3
 7915 11dd 1C000000 		.4byte	.LC21
 7916 11e1 38       		.uleb128 0x38
 7917 11e2 01       		.uleb128 0x1
 7918 11e3 52       		.byte	0x52
 7919 11e4 05       		.uleb128 0x5
 7920 11e5 03       		.byte	0x3
 7921 11e6 00000000 		.4byte	.LANCHOR1
 7922 11ea 38       		.uleb128 0x38
 7923 11eb 01       		.uleb128 0x1
 7924 11ec 51       		.byte	0x51
 7925 11ed 03       		.uleb128 0x3
 7926 11ee 0A       		.byte	0xa
 7927 11ef 6D01     		.2byte	0x16d
 7928 11f1 38       		.uleb128 0x38
 7929 11f2 01       		.uleb128 0x1
 7930 11f3 50       		.byte	0x50
 7931 11f4 05       		.uleb128 0x5
ARM GAS  C:\Users\jo\AppData\Local\Temp\ccMF9q4g.s 			page 144


 7932 11f5 03       		.byte	0x3
 7933 11f6 00000000 		.4byte	.LC18
 7934 11fa 00       		.byte	0
 7935 11fb 00       		.byte	0
 7936 11fc 00       		.byte	0
 7937 11fd 3C       		.uleb128 0x3c
 7938 11fe 0A000000 		.4byte	.LVL12
 7939 1202 6D360000 		.4byte	0x366d
 7940 1206 10120000 		.4byte	0x1210
 7941 120a 38       		.uleb128 0x38
 7942 120b 01       		.uleb128 0x1
 7943 120c 50       		.byte	0x50
 7944 120d 01       		.uleb128 0x1
 7945 120e 3C       		.byte	0x3c
 7946 120f 00       		.byte	0
 7947 1210 3E       		.uleb128 0x3e
 7948 1211 1A000000 		.4byte	.LVL14
 7949 1215 6D360000 		.4byte	0x366d
 7950 1219 37       		.uleb128 0x37
 7951 121a 24000000 		.4byte	.LVL15
 7952 121e 82360000 		.4byte	0x3682
 7953 1222 38       		.uleb128 0x38
 7954 1223 01       		.uleb128 0x1
 7955 1224 52       		.byte	0x52
 7956 1225 02       		.uleb128 0x2
 7957 1226 76       		.byte	0x76
 7958 1227 00       		.sleb128 0
 7959 1228 00       		.byte	0
 7960 1229 00       		.byte	0
 7961 122a 3F       		.uleb128 0x3f
 7962 122b DC020000 		.4byte	.LASF196
 7963 122f 02       		.byte	0x2
 7964 1230 7801     		.2byte	0x178
 7965 1232 25000000 		.4byte	0x25
 7966 1236 00000000 		.4byte	.LFB260
 7967 123a 80000000 		.4byte	.LFE260-.LFB260
 7968 123e 01       		.uleb128 0x1
 7969 123f 9C       		.byte	0x9c
 7970 1240 C3120000 		.4byte	0x12c3
 7971 1244 40       		.uleb128 0x40
 7972 1245 7300     		.ascii	"s\000"
 7973 1247 02       		.byte	0x2
 7974 1248 7801     		.2byte	0x178
 7975 124a CD0A0000 		.4byte	0xacd
 7976 124e A7000000 		.4byte	.LLST4
 7977 1252 40       		.uleb128 0x40
 7978 1253 6900     		.ascii	"i\000"
 7979 1255 02       		.byte	0x2
 7980 1256 7801     		.2byte	0x178
 7981 1258 37000000 		.4byte	0x37
 7982 125c D0000000 		.4byte	.LLST5
 7983 1260 41       		.uleb128 0x41
 7984 1261 DF0A0000 		.4byte	.LASF195
 7985 1265 02       		.byte	0x2
 7986 1266 7A01     		.2byte	0x17a
 7987 1268 37000000 		.4byte	0x37
 7988 126c 1A010000 		.4byte	.LLST6
ARM GAS  C:\Users\jo\AppData\Local\Temp\ccMF9q4g.s 			page 145


 7989 1270 42       		.uleb128 0x42
 7990 1271 696900   		.ascii	"ii\000"
 7991 1274 02       		.byte	0x2
 7992 1275 7B01     		.2byte	0x17b
 7993 1277 37000000 		.4byte	0x37
 7994 127b 45010000 		.4byte	.LLST7
 7995 127f 42       		.uleb128 0x42
 7996 1280 6300     		.ascii	"c\000"
 7997 1282 02       		.byte	0x2
 7998 1283 7C01     		.2byte	0x17c
 7999 1285 BC000000 		.4byte	0xbc
 8000 1289 84010000 		.4byte	.LLST8
 8001 128d 43       		.uleb128 0x43
 8002 128e 400C0000 		.4byte	0xc40
 8003 1292 24000000 		.4byte	.LBB109
 8004 1296 20000000 		.4byte	.LBE109-.LBB109
 8005 129a 02       		.byte	0x2
 8006 129b 8401     		.2byte	0x184
 8007 129d 33       		.uleb128 0x33
 8008 129e 4D0C0000 		.4byte	0xc4d
 8009 12a2 9D010000 		.4byte	.LLST9
 8010 12a6 33       		.uleb128 0x33
 8011 12a7 4D0C0000 		.4byte	0xc4d
 8012 12ab 9D010000 		.4byte	.LLST9
 8013 12af 33       		.uleb128 0x33
 8014 12b0 570C0000 		.4byte	0xc57
 8015 12b4 BB010000 		.4byte	.LLST11
 8016 12b8 3E       		.uleb128 0x3e
 8017 12b9 3A000000 		.4byte	.LVL28
 8018 12bd 9F360000 		.4byte	0x369f
 8019 12c1 00       		.byte	0
 8020 12c2 00       		.byte	0
 8021 12c3 3F       		.uleb128 0x3f
 8022 12c4 8C040000 		.4byte	.LASF197
 8023 12c8 02       		.byte	0x2
 8024 12c9 9401     		.2byte	0x194
 8025 12cb 25000000 		.4byte	0x25
 8026 12cf 00000000 		.4byte	.LFB261
 8027 12d3 30000000 		.4byte	.LFE261-.LFB261
 8028 12d7 01       		.uleb128 0x1
 8029 12d8 9C       		.byte	0x9c
 8030 12d9 06130000 		.4byte	0x1306
 8031 12dd 40       		.uleb128 0x40
 8032 12de 7300     		.ascii	"s\000"
 8033 12e0 02       		.byte	0x2
 8034 12e1 9401     		.2byte	0x194
 8035 12e3 CD0A0000 		.4byte	0xacd
 8036 12e7 D3010000 		.4byte	.LLST12
 8037 12eb 44       		.uleb128 0x44
 8038 12ec 6300     		.ascii	"c\000"
 8039 12ee 02       		.byte	0x2
 8040 12ef 9401     		.2byte	0x194
 8041 12f1 BC000000 		.4byte	0xbc
 8042 12f5 01       		.uleb128 0x1
 8043 12f6 51       		.byte	0x51
 8044 12f7 42       		.uleb128 0x42
 8045 12f8 6900     		.ascii	"i\000"
ARM GAS  C:\Users\jo\AppData\Local\Temp\ccMF9q4g.s 			page 146


 8046 12fa 02       		.byte	0x2
 8047 12fb 9601     		.2byte	0x196
 8048 12fd 25000000 		.4byte	0x25
 8049 1301 F4010000 		.4byte	.LLST13
 8050 1305 00       		.byte	0
 8051 1306 32       		.uleb128 0x32
 8052 1307 470F0000 		.4byte	0xf47
 8053 130b 00000000 		.4byte	.LFB262
 8054 130f 2A000000 		.4byte	.LFE262-.LFB262
 8055 1313 01       		.uleb128 0x1
 8056 1314 9C       		.byte	0x9c
 8057 1315 33130000 		.4byte	0x1333
 8058 1319 33       		.uleb128 0x33
 8059 131a 580F0000 		.4byte	0xf58
 8060 131e 1F020000 		.4byte	.LLST14
 8061 1322 34       		.uleb128 0x34
 8062 1323 620F0000 		.4byte	0xf62
 8063 1327 01       		.uleb128 0x1
 8064 1328 51       		.byte	0x51
 8065 1329 39       		.uleb128 0x39
 8066 132a 6C0F0000 		.4byte	0xf6c
 8067 132e 59020000 		.4byte	.LLST15
 8068 1332 00       		.byte	0
 8069 1333 32       		.uleb128 0x32
 8070 1334 EC0C0000 		.4byte	0xcec
 8071 1338 00000000 		.4byte	.LFB263
 8072 133c 0A000000 		.4byte	.LFE263-.LFB263
 8073 1340 01       		.uleb128 0x1
 8074 1341 9C       		.byte	0x9c
 8075 1342 55130000 		.4byte	0x1355
 8076 1346 34       		.uleb128 0x34
 8077 1347 F90C0000 		.4byte	0xcf9
 8078 134b 01       		.uleb128 0x1
 8079 134c 50       		.byte	0x50
 8080 134d 34       		.uleb128 0x34
 8081 134e 030D0000 		.4byte	0xd03
 8082 1352 01       		.uleb128 0x1
 8083 1353 51       		.byte	0x51
 8084 1354 00       		.byte	0
 8085 1355 3F       		.uleb128 0x3f
 8086 1356 B4040000 		.4byte	.LASF198
 8087 135a 02       		.byte	0x2
 8088 135b BA01     		.2byte	0x1ba
 8089 135d 25000000 		.4byte	0x25
 8090 1361 00000000 		.4byte	.LFB264
 8091 1365 40000000 		.4byte	.LFE264-.LFB264
 8092 1369 01       		.uleb128 0x1
 8093 136a 9C       		.byte	0x9c
 8094 136b FD130000 		.4byte	0x13fd
 8095 136f 40       		.uleb128 0x40
 8096 1370 7300     		.ascii	"s\000"
 8097 1372 02       		.byte	0x2
 8098 1373 BA01     		.2byte	0x1ba
 8099 1375 CD0A0000 		.4byte	0xacd
 8100 1379 A9020000 		.4byte	.LLST16
 8101 137d 45       		.uleb128 0x45
 8102 137e FE010000 		.4byte	.LASF199
ARM GAS  C:\Users\jo\AppData\Local\Temp\ccMF9q4g.s 			page 147


 8103 1382 02       		.byte	0x2
 8104 1383 BA01     		.2byte	0x1ba
 8105 1385 C3000000 		.4byte	0xc3
 8106 1389 C7020000 		.4byte	.LLST17
 8107 138d 42       		.uleb128 0x42
 8108 138e 6C656E00 		.ascii	"len\000"
 8109 1392 02       		.byte	0x2
 8110 1393 BC01     		.2byte	0x1bc
 8111 1395 2C000000 		.4byte	0x2c
 8112 1399 E5020000 		.4byte	.LLST18
 8113 139d 46       		.uleb128 0x46
 8114 139e 400C0000 		.4byte	0xc40
 8115 13a2 0E000000 		.4byte	.LBB113
 8116 13a6 00000000 		.4byte	.Ldebug_ranges0+0
 8117 13aa 02       		.byte	0x2
 8118 13ab BE01     		.2byte	0x1be
 8119 13ad D2130000 		.4byte	0x13d2
 8120 13b1 34       		.uleb128 0x34
 8121 13b2 4D0C0000 		.4byte	0xc4d
 8122 13b6 01       		.uleb128 0x1
 8123 13b7 54       		.byte	0x54
 8124 13b8 34       		.uleb128 0x34
 8125 13b9 4D0C0000 		.4byte	0xc4d
 8126 13bd 01       		.uleb128 0x1
 8127 13be 54       		.byte	0x54
 8128 13bf 33       		.uleb128 0x33
 8129 13c0 570C0000 		.4byte	0xc57
 8130 13c4 03030000 		.4byte	.LLST19
 8131 13c8 3E       		.uleb128 0x3e
 8132 13c9 24000000 		.4byte	.LVL59
 8133 13cd 9F360000 		.4byte	0x369f
 8134 13d1 00       		.byte	0
 8135 13d2 3C       		.uleb128 0x3c
 8136 13d3 0C000000 		.4byte	.LVL55
 8137 13d7 B9360000 		.4byte	0x36b9
 8138 13db E6130000 		.4byte	0x13e6
 8139 13df 38       		.uleb128 0x38
 8140 13e0 01       		.uleb128 0x1
 8141 13e1 50       		.byte	0x50
 8142 13e2 02       		.uleb128 0x2
 8143 13e3 76       		.byte	0x76
 8144 13e4 00       		.sleb128 0
 8145 13e5 00       		.byte	0
 8146 13e6 37       		.uleb128 0x37
 8147 13e7 38000000 		.4byte	.LVL60
 8148 13eb 82360000 		.4byte	0x3682
 8149 13ef 38       		.uleb128 0x38
 8150 13f0 01       		.uleb128 0x1
 8151 13f1 52       		.byte	0x52
 8152 13f2 02       		.uleb128 0x2
 8153 13f3 75       		.byte	0x75
 8154 13f4 00       		.sleb128 0
 8155 13f5 38       		.uleb128 0x38
 8156 13f6 01       		.uleb128 0x1
 8157 13f7 51       		.byte	0x51
 8158 13f8 02       		.uleb128 0x2
 8159 13f9 76       		.byte	0x76
ARM GAS  C:\Users\jo\AppData\Local\Temp\ccMF9q4g.s 			page 148


 8160 13fa 00       		.sleb128 0
 8161 13fb 00       		.byte	0
 8162 13fc 00       		.byte	0
 8163 13fd 3F       		.uleb128 0x3f
 8164 13fe AB0D0000 		.4byte	.LASF200
 8165 1402 02       		.byte	0x2
 8166 1403 4901     		.2byte	0x149
 8167 1405 25000000 		.4byte	0x25
 8168 1409 00000000 		.4byte	.LFB256
 8169 140d 0C000000 		.4byte	.LFE256-.LFB256
 8170 1411 01       		.uleb128 0x1
 8171 1412 9C       		.byte	0x9c
 8172 1413 63140000 		.4byte	0x1463
 8173 1417 40       		.uleb128 0x40
 8174 1418 7300     		.ascii	"s\000"
 8175 141a 02       		.byte	0x2
 8176 141b 4901     		.2byte	0x149
 8177 141d CD0A0000 		.4byte	0xacd
 8178 1421 2B030000 		.4byte	.LLST20
 8179 1425 45       		.uleb128 0x45
 8180 1426 FE010000 		.4byte	.LASF199
 8181 142a 02       		.byte	0x2
 8182 142b 4901     		.2byte	0x149
 8183 142d C3000000 		.4byte	0xc3
 8184 1431 4C030000 		.4byte	.LLST21
 8185 1435 47       		.uleb128 0x47
 8186 1436 EC0C0000 		.4byte	0xcec
 8187 143a 00000000 		.4byte	.LBB117
 8188 143e 08000000 		.4byte	.LBE117-.LBB117
 8189 1442 02       		.byte	0x2
 8190 1443 4B01     		.2byte	0x14b
 8191 1445 59140000 		.4byte	0x1459
 8192 1449 48       		.uleb128 0x48
 8193 144a 030D0000 		.4byte	0xd03
 8194 144e 00       		.byte	0
 8195 144f 33       		.uleb128 0x33
 8196 1450 F90C0000 		.4byte	0xcf9
 8197 1454 2B030000 		.4byte	.LLST20
 8198 1458 00       		.byte	0
 8199 1459 49       		.uleb128 0x49
 8200 145a 0C000000 		.4byte	.LVL62
 8201 145e 55130000 		.4byte	0x1355
 8202 1462 00       		.byte	0
 8203 1463 3F       		.uleb128 0x3f
 8204 1464 9E060000 		.4byte	.LASF201
 8205 1468 02       		.byte	0x2
 8206 1469 C701     		.2byte	0x1c7
 8207 146b 25000000 		.4byte	0x25
 8208 146f 00000000 		.4byte	.LFB265
 8209 1473 2E000000 		.4byte	.LFE265-.LFB265
 8210 1477 01       		.uleb128 0x1
 8211 1478 9C       		.byte	0x9c
 8212 1479 CF140000 		.4byte	0x14cf
 8213 147d 40       		.uleb128 0x40
 8214 147e 7300     		.ascii	"s\000"
 8215 1480 02       		.byte	0x2
 8216 1481 C701     		.2byte	0x1c7
ARM GAS  C:\Users\jo\AppData\Local\Temp\ccMF9q4g.s 			page 149


 8217 1483 CD0A0000 		.4byte	0xacd
 8218 1487 6D030000 		.4byte	.LLST23
 8219 148b 40       		.uleb128 0x40
 8220 148c 6300     		.ascii	"c\000"
 8221 148e 02       		.byte	0x2
 8222 148f C701     		.2byte	0x1c7
 8223 1491 BC000000 		.4byte	0xbc
 8224 1495 8B030000 		.4byte	.LLST24
 8225 1499 4A       		.uleb128 0x4a
 8226 149a 400C0000 		.4byte	0xc40
 8227 149e 06000000 		.4byte	.LBB121
 8228 14a2 18000000 		.4byte	.Ldebug_ranges0+0x18
 8229 14a6 02       		.byte	0x2
 8230 14a7 C901     		.2byte	0x1c9
 8231 14a9 33       		.uleb128 0x33
 8232 14aa 4D0C0000 		.4byte	0xc4d
 8233 14ae AC030000 		.4byte	.LLST25
 8234 14b2 33       		.uleb128 0x33
 8235 14b3 4D0C0000 		.4byte	0xc4d
 8236 14b7 AC030000 		.4byte	.LLST25
 8237 14bb 33       		.uleb128 0x33
 8238 14bc 570C0000 		.4byte	0xc57
 8239 14c0 CA030000 		.4byte	.LLST27
 8240 14c4 3E       		.uleb128 0x3e
 8241 14c5 1A000000 		.4byte	.LVL68
 8242 14c9 9F360000 		.4byte	0x369f
 8243 14cd 00       		.byte	0
 8244 14ce 00       		.byte	0
 8245 14cf 32       		.uleb128 0x32
 8246 14d0 8F0E0000 		.4byte	0xe8f
 8247 14d4 00000000 		.4byte	.LFB266
 8248 14d8 0C000000 		.4byte	.LFE266-.LFB266
 8249 14dc 01       		.uleb128 0x1
 8250 14dd 9C       		.byte	0x9c
 8251 14de EC140000 		.4byte	0x14ec
 8252 14e2 33       		.uleb128 0x33
 8253 14e3 A00E0000 		.4byte	0xea0
 8254 14e7 EC030000 		.4byte	.LLST28
 8255 14eb 00       		.byte	0
 8256 14ec 32       		.uleb128 0x32
 8257 14ed AB0E0000 		.4byte	0xeab
 8258 14f1 00000000 		.4byte	.LFB267
 8259 14f5 04000000 		.4byte	.LFE267-.LFB267
 8260 14f9 01       		.uleb128 0x1
 8261 14fa 9C       		.byte	0x9c
 8262 14fb 09150000 		.4byte	0x1509
 8263 14ff 33       		.uleb128 0x33
 8264 1500 BC0E0000 		.4byte	0xebc
 8265 1504 0D040000 		.4byte	.LLST29
 8266 1508 00       		.byte	0
 8267 1509 32       		.uleb128 0x32
 8268 150a 630D0000 		.4byte	0xd63
 8269 150e 00000000 		.4byte	.LFB268
 8270 1512 14000000 		.4byte	.LFE268-.LFB268
 8271 1516 01       		.uleb128 0x1
 8272 1517 9C       		.byte	0x9c
 8273 1518 40150000 		.4byte	0x1540
ARM GAS  C:\Users\jo\AppData\Local\Temp\ccMF9q4g.s 			page 150


 8274 151c 33       		.uleb128 0x33
 8275 151d 700D0000 		.4byte	0xd70
 8276 1521 2E040000 		.4byte	.LLST30
 8277 1525 3E       		.uleb128 0x3e
 8278 1526 0A000000 		.4byte	.LVL75
 8279 152a CE360000 		.4byte	0x36ce
 8280 152e 4B       		.uleb128 0x4b
 8281 152f 14000000 		.4byte	.LVL77
 8282 1533 CE360000 		.4byte	0x36ce
 8283 1537 38       		.uleb128 0x38
 8284 1538 01       		.uleb128 0x1
 8285 1539 50       		.byte	0x50
 8286 153a 03       		.uleb128 0x3
 8287 153b F3       		.byte	0xf3
 8288 153c 01       		.uleb128 0x1
 8289 153d 50       		.byte	0x50
 8290 153e 00       		.byte	0
 8291 153f 00       		.byte	0
 8292 1540 32       		.uleb128 0x32
 8293 1541 E30E0000 		.4byte	0xee3
 8294 1545 00000000 		.4byte	.LFB275
 8295 1549 0C000000 		.4byte	.LFE275-.LFB275
 8296 154d 01       		.uleb128 0x1
 8297 154e 9C       		.byte	0x9c
 8298 154f 5D150000 		.4byte	0x155d
 8299 1553 33       		.uleb128 0x33
 8300 1554 F40E0000 		.4byte	0xef4
 8301 1558 65040000 		.4byte	.LLST31
 8302 155c 00       		.byte	0
 8303 155d 32       		.uleb128 0x32
 8304 155e 100D0000 		.4byte	0xd10
 8305 1562 00000000 		.4byte	.LFB277
 8306 1566 50000000 		.4byte	.LFE277-.LFB277
 8307 156a 01       		.uleb128 0x1
 8308 156b 9C       		.byte	0x9c
 8309 156c 37160000 		.4byte	0x1637
 8310 1570 33       		.uleb128 0x33
 8311 1571 210D0000 		.4byte	0xd21
 8312 1575 86040000 		.4byte	.LLST32
 8313 1579 33       		.uleb128 0x33
 8314 157a 2B0D0000 		.4byte	0xd2b
 8315 157e A4040000 		.4byte	.LLST33
 8316 1582 39       		.uleb128 0x39
 8317 1583 360D0000 		.4byte	0xd36
 8318 1587 C2040000 		.4byte	.LLST34
 8319 158b 35       		.uleb128 0x35
 8320 158c 400D0000 		.4byte	0xd40
 8321 1590 05       		.uleb128 0x5
 8322 1591 03       		.byte	0x3
 8323 1592 00000000 		.4byte	__FUNCTION__.9443
 8324 1596 3A       		.uleb128 0x3a
 8325 1597 36000000 		.4byte	.LBB127
 8326 159b 1A000000 		.4byte	.LBE127-.LBB127
 8327 159f F8150000 		.4byte	0x15f8
 8328 15a3 34       		.uleb128 0x34
 8329 15a4 210D0000 		.4byte	0xd21
 8330 15a8 01       		.uleb128 0x1
ARM GAS  C:\Users\jo\AppData\Local\Temp\ccMF9q4g.s 			page 151


 8331 15a9 56       		.byte	0x56
 8332 15aa 34       		.uleb128 0x34
 8333 15ab 2B0D0000 		.4byte	0xd2b
 8334 15af 01       		.uleb128 0x1
 8335 15b0 55       		.byte	0x55
 8336 15b1 3D       		.uleb128 0x3d
 8337 15b2 36000000 		.4byte	.LBB128
 8338 15b6 1A000000 		.4byte	.LBE128-.LBB128
 8339 15ba 3B       		.uleb128 0x3b
 8340 15bb 360D0000 		.4byte	0xd36
 8341 15bf 35       		.uleb128 0x35
 8342 15c0 400D0000 		.4byte	0xd40
 8343 15c4 05       		.uleb128 0x5
 8344 15c5 03       		.byte	0x3
 8345 15c6 00000000 		.4byte	__FUNCTION__.9443
 8346 15ca 37       		.uleb128 0x37
 8347 15cb 44000000 		.4byte	.LVL87
 8348 15cf 4D360000 		.4byte	0x364d
 8349 15d3 38       		.uleb128 0x38
 8350 15d4 01       		.uleb128 0x1
 8351 15d5 53       		.byte	0x53
 8352 15d6 05       		.uleb128 0x5
 8353 15d7 03       		.byte	0x3
 8354 15d8 10000000 		.4byte	.LC19
 8355 15dc 38       		.uleb128 0x38
 8356 15dd 01       		.uleb128 0x1
 8357 15de 52       		.byte	0x52
 8358 15df 05       		.uleb128 0x5
 8359 15e0 03       		.byte	0x3
 8360 15e1 00000000 		.4byte	.LANCHOR2
 8361 15e5 38       		.uleb128 0x38
 8362 15e6 01       		.uleb128 0x1
 8363 15e7 51       		.byte	0x51
 8364 15e8 03       		.uleb128 0x3
 8365 15e9 0A       		.byte	0xa
 8366 15ea 7B03     		.2byte	0x37b
 8367 15ec 38       		.uleb128 0x38
 8368 15ed 01       		.uleb128 0x1
 8369 15ee 50       		.byte	0x50
 8370 15ef 05       		.uleb128 0x5
 8371 15f0 03       		.byte	0x3
 8372 15f1 00000000 		.4byte	.LC18
 8373 15f5 00       		.byte	0
 8374 15f6 00       		.byte	0
 8375 15f7 00       		.byte	0
 8376 15f8 3C       		.uleb128 0x3c
 8377 15f9 0E000000 		.4byte	.LVL82
 8378 15fd 6D360000 		.4byte	0x366d
 8379 1601 0D160000 		.4byte	0x160d
 8380 1605 38       		.uleb128 0x38
 8381 1606 01       		.uleb128 0x1
 8382 1607 50       		.byte	0x50
 8383 1608 03       		.uleb128 0x3
 8384 1609 0A       		.byte	0xa
 8385 160a 2801     		.2byte	0x128
 8386 160c 00       		.byte	0
 8387 160d 3C       		.uleb128 0x3c
ARM GAS  C:\Users\jo\AppData\Local\Temp\ccMF9q4g.s 			page 152


 8388 160e 1C000000 		.4byte	.LVL83
 8389 1612 DF360000 		.4byte	0x36df
 8390 1616 2D160000 		.4byte	0x162d
 8391 161a 38       		.uleb128 0x38
 8392 161b 01       		.uleb128 0x1
 8393 161c 52       		.byte	0x52
 8394 161d 03       		.uleb128 0x3
 8395 161e 0A       		.byte	0xa
 8396 161f 2801     		.2byte	0x128
 8397 1621 38       		.uleb128 0x38
 8398 1622 01       		.uleb128 0x1
 8399 1623 51       		.byte	0x51
 8400 1624 01       		.uleb128 0x1
 8401 1625 30       		.byte	0x30
 8402 1626 38       		.uleb128 0x38
 8403 1627 01       		.uleb128 0x1
 8404 1628 50       		.byte	0x50
 8405 1629 02       		.uleb128 0x2
 8406 162a 74       		.byte	0x74
 8407 162b 00       		.sleb128 0
 8408 162c 00       		.byte	0
 8409 162d 3E       		.uleb128 0x3e
 8410 162e 2E000000 		.4byte	.LVL84
 8411 1632 640C0000 		.4byte	0xc64
 8412 1636 00       		.byte	0
 8413 1637 4C       		.uleb128 0x4c
 8414 1638 07000000 		.4byte	.LASF211
 8415 163c 02       		.byte	0x2
 8416 163d 8903     		.2byte	0x389
 8417 163f 00000000 		.4byte	.LFB278
 8418 1643 1E000000 		.4byte	.LFE278-.LFB278
 8419 1647 01       		.uleb128 0x1
 8420 1648 9C       		.byte	0x9c
 8421 1649 A4160000 		.4byte	0x16a4
 8422 164d 40       		.uleb128 0x40
 8423 164e 7300     		.ascii	"s\000"
 8424 1650 02       		.byte	0x2
 8425 1651 8903     		.2byte	0x389
 8426 1653 2E0C0000 		.4byte	0xc2e
 8427 1657 EB040000 		.4byte	.LLST35
 8428 165b 47       		.uleb128 0x47
 8429 165c 630D0000 		.4byte	0xd63
 8430 1660 08000000 		.4byte	.LBB129
 8431 1664 0C000000 		.4byte	.LBE129-.LBB129
 8432 1668 02       		.byte	0x2
 8433 1669 8B03     		.2byte	0x38b
 8434 166b 92160000 		.4byte	0x1692
 8435 166f 33       		.uleb128 0x33
 8436 1670 700D0000 		.4byte	0xd70
 8437 1674 22050000 		.4byte	.LLST36
 8438 1678 3E       		.uleb128 0x3e
 8439 1679 0E000000 		.4byte	.LVL91
 8440 167d CE360000 		.4byte	0x36ce
 8441 1681 37       		.uleb128 0x37
 8442 1682 14000000 		.4byte	.LVL92
 8443 1686 CE360000 		.4byte	0x36ce
 8444 168a 38       		.uleb128 0x38
ARM GAS  C:\Users\jo\AppData\Local\Temp\ccMF9q4g.s 			page 153


 8445 168b 01       		.uleb128 0x1
 8446 168c 50       		.byte	0x50
 8447 168d 02       		.uleb128 0x2
 8448 168e 75       		.byte	0x75
 8449 168f 00       		.sleb128 0
 8450 1690 00       		.byte	0
 8451 1691 00       		.byte	0
 8452 1692 4B       		.uleb128 0x4b
 8453 1693 1E000000 		.4byte	.LVL94
 8454 1697 CE360000 		.4byte	0x36ce
 8455 169b 38       		.uleb128 0x38
 8456 169c 01       		.uleb128 0x1
 8457 169d 50       		.byte	0x50
 8458 169e 03       		.uleb128 0x3
 8459 169f F3       		.byte	0xf3
 8460 16a0 01       		.uleb128 0x1
 8461 16a1 50       		.byte	0x50
 8462 16a2 00       		.byte	0
 8463 16a3 00       		.byte	0
 8464 16a4 4D       		.uleb128 0x4d
 8465 16a5 790A0000 		.4byte	.LASF202
 8466 16a9 13       		.byte	0x13
 8467 16aa 50       		.byte	0x50
 8468 16ab B6000000 		.4byte	0xb6
 8469 16af 00000000 		.4byte	.LFB279
 8470 16b3 20000000 		.4byte	.LFE279-.LFB279
 8471 16b7 01       		.uleb128 0x1
 8472 16b8 9C       		.byte	0x9c
 8473 16b9 2E170000 		.4byte	0x172e
 8474 16bd 40       		.uleb128 0x40
 8475 16be 7300     		.ascii	"s\000"
 8476 16c0 02       		.byte	0x2
 8477 16c1 AE03     		.2byte	0x3ae
 8478 16c3 C3000000 		.4byte	0xc3
 8479 16c7 35050000 		.4byte	.LLST37
 8480 16cb 41       		.uleb128 0x41
 8481 16cc 60070000 		.4byte	.LASF203
 8482 16d0 02       		.byte	0x2
 8483 16d1 B003     		.2byte	0x3b0
 8484 16d3 B6000000 		.4byte	0xb6
 8485 16d7 53050000 		.4byte	.LLST38
 8486 16db 4E       		.uleb128 0x4e
 8487 16dc 6C656E00 		.ascii	"len\000"
 8488 16e0 02       		.byte	0x2
 8489 16e1 B203     		.2byte	0x3b2
 8490 16e3 2C000000 		.4byte	0x2c
 8491 16e7 01       		.uleb128 0x1
 8492 16e8 54       		.byte	0x54
 8493 16e9 3C       		.uleb128 0x3c
 8494 16ea 08000000 		.4byte	.LVL96
 8495 16ee B9360000 		.4byte	0x36b9
 8496 16f2 FD160000 		.4byte	0x16fd
 8497 16f6 38       		.uleb128 0x38
 8498 16f7 01       		.uleb128 0x1
 8499 16f8 50       		.byte	0x50
 8500 16f9 02       		.uleb128 0x2
 8501 16fa 76       		.byte	0x76
ARM GAS  C:\Users\jo\AppData\Local\Temp\ccMF9q4g.s 			page 154


 8502 16fb 00       		.sleb128 0
 8503 16fc 00       		.byte	0
 8504 16fd 3C       		.uleb128 0x3c
 8505 16fe 10000000 		.4byte	.LVL98
 8506 1702 6D360000 		.4byte	0x366d
 8507 1706 11170000 		.4byte	0x1711
 8508 170a 38       		.uleb128 0x38
 8509 170b 01       		.uleb128 0x1
 8510 170c 50       		.byte	0x50
 8511 170d 02       		.uleb128 0x2
 8512 170e 74       		.byte	0x74
 8513 170f 00       		.sleb128 0
 8514 1710 00       		.byte	0
 8515 1711 37       		.uleb128 0x37
 8516 1712 1C000000 		.4byte	.LVL99
 8517 1716 82360000 		.4byte	0x3682
 8518 171a 38       		.uleb128 0x38
 8519 171b 01       		.uleb128 0x1
 8520 171c 52       		.byte	0x52
 8521 171d 02       		.uleb128 0x2
 8522 171e 74       		.byte	0x74
 8523 171f 00       		.sleb128 0
 8524 1720 38       		.uleb128 0x38
 8525 1721 01       		.uleb128 0x1
 8526 1722 51       		.byte	0x51
 8527 1723 02       		.uleb128 0x2
 8528 1724 76       		.byte	0x76
 8529 1725 00       		.sleb128 0
 8530 1726 38       		.uleb128 0x38
 8531 1727 01       		.uleb128 0x1
 8532 1728 50       		.byte	0x50
 8533 1729 02       		.uleb128 0x2
 8534 172a 75       		.byte	0x75
 8535 172b 00       		.sleb128 0
 8536 172c 00       		.byte	0
 8537 172d 00       		.byte	0
 8538 172e 32       		.uleb128 0x32
 8539 172f 7B0D0000 		.4byte	0xd7b
 8540 1733 00000000 		.4byte	.LFB280
 8541 1737 68000000 		.4byte	.LFE280-.LFB280
 8542 173b 01       		.uleb128 0x1
 8543 173c 9C       		.byte	0x9c
 8544 173d 06180000 		.4byte	0x1806
 8545 1741 33       		.uleb128 0x33
 8546 1742 8C0D0000 		.4byte	0xd8c
 8547 1746 71050000 		.4byte	.LLST39
 8548 174a 33       		.uleb128 0x33
 8549 174b 960D0000 		.4byte	0xd96
 8550 174f A5050000 		.4byte	.LLST40
 8551 1753 33       		.uleb128 0x33
 8552 1754 A20D0000 		.4byte	0xda2
 8553 1758 D9050000 		.4byte	.LLST41
 8554 175c 35       		.uleb128 0x35
 8555 175d AE0D0000 		.4byte	0xdae
 8556 1761 05       		.uleb128 0x5
 8557 1762 03       		.byte	0x3
 8558 1763 00000000 		.4byte	__FUNCTION__.9466
ARM GAS  C:\Users\jo\AppData\Local\Temp\ccMF9q4g.s 			page 155


 8559 1767 3A       		.uleb128 0x3a
 8560 1768 4C000000 		.4byte	.LBB133
 8561 176c 1C000000 		.4byte	.LBE133-.LBB133
 8562 1770 CB170000 		.4byte	0x17cb
 8563 1774 34       		.uleb128 0x34
 8564 1775 8C0D0000 		.4byte	0xd8c
 8565 1779 01       		.uleb128 0x1
 8566 177a 54       		.byte	0x54
 8567 177b 34       		.uleb128 0x34
 8568 177c 960D0000 		.4byte	0xd96
 8569 1780 01       		.uleb128 0x1
 8570 1781 58       		.byte	0x58
 8571 1782 34       		.uleb128 0x34
 8572 1783 A20D0000 		.4byte	0xda2
 8573 1787 01       		.uleb128 0x1
 8574 1788 57       		.byte	0x57
 8575 1789 3D       		.uleb128 0x3d
 8576 178a 4C000000 		.4byte	.LBB134
 8577 178e 1C000000 		.4byte	.LBE134-.LBB134
 8578 1792 35       		.uleb128 0x35
 8579 1793 AE0D0000 		.4byte	0xdae
 8580 1797 05       		.uleb128 0x5
 8581 1798 03       		.byte	0x3
 8582 1799 00000000 		.4byte	__FUNCTION__.9466
 8583 179d 37       		.uleb128 0x37
 8584 179e 5A000000 		.4byte	.LVL109
 8585 17a2 4D360000 		.4byte	0x364d
 8586 17a6 38       		.uleb128 0x38
 8587 17a7 01       		.uleb128 0x1
 8588 17a8 53       		.byte	0x53
 8589 17a9 05       		.uleb128 0x5
 8590 17aa 03       		.byte	0x3
 8591 17ab 24000000 		.4byte	.LC22
 8592 17af 38       		.uleb128 0x38
 8593 17b0 01       		.uleb128 0x1
 8594 17b1 52       		.byte	0x52
 8595 17b2 05       		.uleb128 0x5
 8596 17b3 03       		.byte	0x3
 8597 17b4 00000000 		.4byte	.LANCHOR3
 8598 17b8 38       		.uleb128 0x38
 8599 17b9 01       		.uleb128 0x1
 8600 17ba 51       		.byte	0x51
 8601 17bb 03       		.uleb128 0x3
 8602 17bc 0A       		.byte	0xa
 8603 17bd D603     		.2byte	0x3d6
 8604 17bf 38       		.uleb128 0x38
 8605 17c0 01       		.uleb128 0x1
 8606 17c1 50       		.byte	0x50
 8607 17c2 05       		.uleb128 0x5
 8608 17c3 03       		.byte	0x3
 8609 17c4 00000000 		.4byte	.LC18
 8610 17c8 00       		.byte	0
 8611 17c9 00       		.byte	0
 8612 17ca 00       		.byte	0
 8613 17cb 3C       		.uleb128 0x3c
 8614 17cc 1A000000 		.4byte	.LVL102
 8615 17d0 A4160000 		.4byte	0x16a4
ARM GAS  C:\Users\jo\AppData\Local\Temp\ccMF9q4g.s 			page 156


 8616 17d4 DF170000 		.4byte	0x17df
 8617 17d8 38       		.uleb128 0x38
 8618 17d9 01       		.uleb128 0x1
 8619 17da 50       		.byte	0x50
 8620 17db 02       		.uleb128 0x2
 8621 17dc 78       		.byte	0x78
 8622 17dd 00       		.sleb128 0
 8623 17de 00       		.byte	0
 8624 17df 3C       		.uleb128 0x3c
 8625 17e0 24000000 		.4byte	.LVL103
 8626 17e4 A20C0000 		.4byte	0xca2
 8627 17e8 F3170000 		.4byte	0x17f3
 8628 17ec 38       		.uleb128 0x38
 8629 17ed 01       		.uleb128 0x1
 8630 17ee 50       		.byte	0x50
 8631 17ef 02       		.uleb128 0x2
 8632 17f0 77       		.byte	0x77
 8633 17f1 00       		.sleb128 0
 8634 17f2 00       		.byte	0
 8635 17f3 37       		.uleb128 0x37
 8636 17f4 42000000 		.4byte	.LVL107
 8637 17f8 9F360000 		.4byte	0x369f
 8638 17fc 38       		.uleb128 0x38
 8639 17fd 01       		.uleb128 0x1
 8640 17fe 51       		.byte	0x51
 8641 17ff 04       		.uleb128 0x4
 8642 1800 76       		.byte	0x76
 8643 1801 00       		.sleb128 0
 8644 1802 34       		.byte	0x34
 8645 1803 24       		.byte	0x24
 8646 1804 00       		.byte	0
 8647 1805 00       		.byte	0
 8648 1806 4F       		.uleb128 0x4f
 8649 1807 D4010000 		.4byte	.LASF221
 8650 180b 02       		.byte	0x2
 8651 180c 6105     		.2byte	0x561
 8652 180e E6010000 		.4byte	0x1e6
 8653 1812 00000000 		.4byte	.LFB294
 8654 1816 2C000000 		.4byte	.LFE294-.LFB294
 8655 181a 01       		.uleb128 0x1
 8656 181b 9C       		.byte	0x9c
 8657 181c 74180000 		.4byte	0x1874
 8658 1820 45       		.uleb128 0x45
 8659 1821 A9010000 		.4byte	.LASF33
 8660 1825 02       		.byte	0x2
 8661 1826 6105     		.2byte	0x561
 8662 1828 4A010000 		.4byte	0x14a
 8663 182c 0D060000 		.4byte	.LLST42
 8664 1830 40       		.uleb128 0x40
 8665 1831 6B657900 		.ascii	"key\000"
 8666 1835 02       		.byte	0x2
 8667 1836 6105     		.2byte	0x561
 8668 1838 C3000000 		.4byte	0xc3
 8669 183c 2E060000 		.4byte	.LLST43
 8670 1840 41       		.uleb128 0x41
 8671 1841 DC040000 		.4byte	.LASF179
 8672 1845 02       		.byte	0x2
ARM GAS  C:\Users\jo\AppData\Local\Temp\ccMF9q4g.s 			page 157


 8673 1846 6305     		.2byte	0x563
 8674 1848 E6010000 		.4byte	0x1e6
 8675 184c 4C060000 		.4byte	.LLST44
 8676 1850 3C       		.uleb128 0x3c
 8677 1851 0C000000 		.4byte	.LVL112
 8678 1855 6D360000 		.4byte	0x366d
 8679 1859 63180000 		.4byte	0x1863
 8680 185d 38       		.uleb128 0x38
 8681 185e 01       		.uleb128 0x1
 8682 185f 50       		.byte	0x50
 8683 1860 01       		.uleb128 0x1
 8684 1861 44       		.byte	0x44
 8685 1862 00       		.byte	0
 8686 1863 37       		.uleb128 0x37
 8687 1864 18000000 		.4byte	.LVL115
 8688 1868 A4160000 		.4byte	0x16a4
 8689 186c 38       		.uleb128 0x38
 8690 186d 01       		.uleb128 0x1
 8691 186e 50       		.byte	0x50
 8692 186f 02       		.uleb128 0x2
 8693 1870 75       		.byte	0x75
 8694 1871 00       		.sleb128 0
 8695 1872 00       		.byte	0
 8696 1873 00       		.byte	0
 8697 1874 3F       		.uleb128 0x3f
 8698 1875 60050000 		.4byte	.LASF204
 8699 1879 02       		.byte	0x2
 8700 187a CF05     		.2byte	0x5cf
 8701 187c 02010000 		.4byte	0x102
 8702 1880 00000000 		.4byte	.LFB298
 8703 1884 40010000 		.4byte	.LFE298-.LFB298
 8704 1888 01       		.uleb128 0x1
 8705 1889 9C       		.byte	0x9c
 8706 188a 901A0000 		.4byte	0x1a90
 8707 188e 40       		.uleb128 0x40
 8708 188f 6B657900 		.ascii	"key\000"
 8709 1893 02       		.byte	0x2
 8710 1894 CF05     		.2byte	0x5cf
 8711 1896 C3000000 		.4byte	0xc3
 8712 189a 80060000 		.4byte	.LLST45
 8713 189e 45       		.uleb128 0x45
 8714 189f 250E0000 		.4byte	.LASF27
 8715 18a3 02       		.byte	0x2
 8716 18a4 CF05     		.2byte	0x5cf
 8717 18a6 B4000000 		.4byte	0xb4
 8718 18aa AB060000 		.4byte	.LLST46
 8719 18ae 40       		.uleb128 0x40
 8720 18af 6C656E00 		.ascii	"len\000"
 8721 18b3 02       		.byte	0x2
 8722 18b4 CF05     		.2byte	0x5cf
 8723 18b6 2C000000 		.4byte	0x2c
 8724 18ba E2060000 		.4byte	.LLST47
 8725 18be 45       		.uleb128 0x45
 8726 18bf 900D0000 		.4byte	.LASF191
 8727 18c3 02       		.byte	0x2
 8728 18c4 CF05     		.2byte	0x5cf
 8729 18c6 B4000000 		.4byte	0xb4
ARM GAS  C:\Users\jo\AppData\Local\Temp\ccMF9q4g.s 			page 158


 8730 18ca 19070000 		.4byte	.LLST48
 8731 18ce 41       		.uleb128 0x41
 8732 18cf B4000000 		.4byte	.LASF205
 8733 18d3 02       		.byte	0x2
 8734 18d4 D105     		.2byte	0x5d1
 8735 18d6 E6010000 		.4byte	0x1e6
 8736 18da 52070000 		.4byte	.LLST49
 8737 18de 50       		.uleb128 0x50
 8738 18df A31A0000 		.4byte	0x1aa3
 8739 18e3 8B070000 		.4byte	.LLST50
 8740 18e7 41       		.uleb128 0x41
 8741 18e8 CF000000 		.4byte	.LASF206
 8742 18ec 02       		.byte	0x2
 8743 18ed D205     		.2byte	0x5d2
 8744 18ef 901A0000 		.4byte	0x1a90
 8745 18f3 AB070000 		.4byte	.LLST51
 8746 18f7 41       		.uleb128 0x41
 8747 18f8 26050000 		.4byte	.LASF207
 8748 18fc 02       		.byte	0x2
 8749 18fd D305     		.2byte	0x5d3
 8750 18ff 25000000 		.4byte	0x25
 8751 1903 BF070000 		.4byte	.LLST52
 8752 1907 50       		.uleb128 0x50
 8753 1908 BB1A0000 		.4byte	0x1abb
 8754 190c DE070000 		.4byte	.LLST53
 8755 1910 51       		.uleb128 0x51
 8756 1911 61010000 		.4byte	.LASF178
 8757 1915 02       		.byte	0x2
 8758 1916 DB05     		.2byte	0x5db
 8759 1918 A81A0000 		.4byte	0x1aa8
 8760 191c 02       		.uleb128 0x2
 8761 191d 7B       		.byte	0x7b
 8762 191e 00       		.sleb128 0
 8763 191f 41       		.uleb128 0x41
 8764 1920 1B0C0000 		.4byte	.LASF208
 8765 1924 02       		.byte	0x2
 8766 1925 DC05     		.2byte	0x5dc
 8767 1927 B6000000 		.4byte	0xb6
 8768 192b F3070000 		.4byte	.LLST54
 8769 192f 51       		.uleb128 0x51
 8770 1930 4E090000 		.4byte	.LASF209
 8771 1934 02       		.byte	0x2
 8772 1935 DD05     		.2byte	0x5dd
 8773 1937 B6000000 		.4byte	0xb6
 8774 193b 02       		.uleb128 0x2
 8775 193c 91       		.byte	0x91
 8776 193d 54       		.sleb128 -44
 8777 193e 41       		.uleb128 0x41
 8778 193f EB000000 		.4byte	.LASF177
 8779 1943 02       		.byte	0x2
 8780 1944 DE05     		.2byte	0x5de
 8781 1946 25000000 		.4byte	0x25
 8782 194a 32080000 		.4byte	.LLST55
 8783 194e 46       		.uleb128 0x46
 8784 194f D10D0000 		.4byte	0xdd1
 8785 1953 74000000 		.4byte	.LBB139
 8786 1957 30000000 		.4byte	.Ldebug_ranges0+0x30
ARM GAS  C:\Users\jo\AppData\Local\Temp\ccMF9q4g.s 			page 159


 8787 195b 02       		.byte	0x2
 8788 195c E305     		.2byte	0x5e3
 8789 195e 481A0000 		.4byte	0x1a48
 8790 1962 33       		.uleb128 0x33
 8791 1963 0E0E0000 		.4byte	0xe0e
 8792 1967 51080000 		.4byte	.LLST56
 8793 196b 33       		.uleb128 0x33
 8794 196c 020E0000 		.4byte	0xe02
 8795 1970 64080000 		.4byte	.LLST57
 8796 1974 33       		.uleb128 0x33
 8797 1975 F60D0000 		.4byte	0xdf6
 8798 1979 84080000 		.4byte	.LLST58
 8799 197d 34       		.uleb128 0x34
 8800 197e EA0D0000 		.4byte	0xdea
 8801 1982 01       		.uleb128 0x1
 8802 1983 5B       		.byte	0x5b
 8803 1984 33       		.uleb128 0x33
 8804 1985 DE0D0000 		.4byte	0xdde
 8805 1989 A4080000 		.4byte	.LLST59
 8806 198d 52       		.uleb128 0x52
 8807 198e 30000000 		.4byte	.Ldebug_ranges0+0x30
 8808 1992 39       		.uleb128 0x39
 8809 1993 1A0E0000 		.4byte	0xe1a
 8810 1997 CF080000 		.4byte	.LLST60
 8811 199b 3A       		.uleb128 0x3a
 8812 199c DA000000 		.4byte	.LBB141
 8813 19a0 0C000000 		.4byte	.LBE141-.LBB141
 8814 19a4 B2190000 		.4byte	0x19b2
 8815 19a8 39       		.uleb128 0x39
 8816 19a9 370E0000 		.4byte	0xe37
 8817 19ad 2F090000 		.4byte	.LLST61
 8818 19b1 00       		.byte	0
 8819 19b2 53       		.uleb128 0x53
 8820 19b3 60000000 		.4byte	.Ldebug_ranges0+0x60
 8821 19b7 C5190000 		.4byte	0x19c5
 8822 19bb 39       		.uleb128 0x39
 8823 19bc 290E0000 		.4byte	0xe29
 8824 19c0 42090000 		.4byte	.LLST62
 8825 19c4 00       		.byte	0
 8826 19c5 3C       		.uleb128 0x3c
 8827 19c6 92000000 		.4byte	.LVL140
 8828 19ca FC360000 		.4byte	0x36fc
 8829 19ce D9190000 		.4byte	0x19d9
 8830 19d2 38       		.uleb128 0x38
 8831 19d3 01       		.uleb128 0x1
 8832 19d4 50       		.byte	0x50
 8833 19d5 02       		.uleb128 0x2
 8834 19d6 74       		.byte	0x74
 8835 19d7 00       		.sleb128 0
 8836 19d8 00       		.byte	0
 8837 19d9 3C       		.uleb128 0x3c
 8838 19da C8000000 		.4byte	.LVL147
 8839 19de 06180000 		.4byte	0x1806
 8840 19e2 EC190000 		.4byte	0x19ec
 8841 19e6 38       		.uleb128 0x38
 8842 19e7 01       		.uleb128 0x1
 8843 19e8 50       		.byte	0x50
ARM GAS  C:\Users\jo\AppData\Local\Temp\ccMF9q4g.s 			page 160


 8844 19e9 01       		.uleb128 0x1
 8845 19ea 32       		.byte	0x32
 8846 19eb 00       		.byte	0
 8847 19ec 3C       		.uleb128 0x3c
 8848 19ed F0000000 		.4byte	.LVL152
 8849 19f1 06180000 		.4byte	0x1806
 8850 19f5 001A0000 		.4byte	0x1a00
 8851 19f9 38       		.uleb128 0x38
 8852 19fa 01       		.uleb128 0x1
 8853 19fb 50       		.byte	0x50
 8854 19fc 02       		.uleb128 0x2
 8855 19fd 76       		.byte	0x76
 8856 19fe 00       		.sleb128 0
 8857 19ff 00       		.byte	0
 8858 1a00 3C       		.uleb128 0x3c
 8859 1a01 FE000000 		.4byte	.LVL155
 8860 1a05 6D360000 		.4byte	0x366d
 8861 1a09 141A0000 		.4byte	0x1a14
 8862 1a0d 38       		.uleb128 0x38
 8863 1a0e 01       		.uleb128 0x1
 8864 1a0f 50       		.byte	0x50
 8865 1a10 02       		.uleb128 0x2
 8866 1a11 75       		.byte	0x75
 8867 1a12 00       		.sleb128 0
 8868 1a13 00       		.byte	0
 8869 1a14 3C       		.uleb128 0x3c
 8870 1a15 08010000 		.4byte	.LVL156
 8871 1a19 DF360000 		.4byte	0x36df
 8872 1a1d 2E1A0000 		.4byte	0x1a2e
 8873 1a21 38       		.uleb128 0x38
 8874 1a22 01       		.uleb128 0x1
 8875 1a23 52       		.byte	0x52
 8876 1a24 02       		.uleb128 0x2
 8877 1a25 75       		.byte	0x75
 8878 1a26 00       		.sleb128 0
 8879 1a27 38       		.uleb128 0x38
 8880 1a28 01       		.uleb128 0x1
 8881 1a29 51       		.byte	0x51
 8882 1a2a 02       		.uleb128 0x2
 8883 1a2b 76       		.byte	0x76
 8884 1a2c 00       		.sleb128 0
 8885 1a2d 00       		.byte	0
 8886 1a2e 37       		.uleb128 0x37
 8887 1a2f 12010000 		.4byte	.LVL157
 8888 1a33 82360000 		.4byte	0x3682
 8889 1a37 38       		.uleb128 0x38
 8890 1a38 01       		.uleb128 0x1
 8891 1a39 52       		.byte	0x52
 8892 1a3a 03       		.uleb128 0x3
 8893 1a3b 91       		.byte	0x91
 8894 1a3c 78       		.sleb128 -8
 8895 1a3d 06       		.byte	0x6
 8896 1a3e 38       		.uleb128 0x38
 8897 1a3f 01       		.uleb128 0x1
 8898 1a40 51       		.byte	0x51
 8899 1a41 03       		.uleb128 0x3
 8900 1a42 91       		.byte	0x91
ARM GAS  C:\Users\jo\AppData\Local\Temp\ccMF9q4g.s 			page 161


 8901 1a43 74       		.sleb128 -12
 8902 1a44 06       		.byte	0x6
 8903 1a45 00       		.byte	0
 8904 1a46 00       		.byte	0
 8905 1a47 00       		.byte	0
 8906 1a48 3C       		.uleb128 0x3c
 8907 1a49 14000000 		.4byte	.LVL120
 8908 1a4d B9360000 		.4byte	0x36b9
 8909 1a51 5C1A0000 		.4byte	0x1a5c
 8910 1a55 38       		.uleb128 0x38
 8911 1a56 01       		.uleb128 0x1
 8912 1a57 50       		.byte	0x50
 8913 1a58 02       		.uleb128 0x2
 8914 1a59 74       		.byte	0x74
 8915 1a5a 00       		.sleb128 0
 8916 1a5b 00       		.byte	0
 8917 1a5c 3C       		.uleb128 0x3c
 8918 1a5d 2A000000 		.4byte	.LVL123
 8919 1a61 16370000 		.4byte	0x3716
 8920 1a65 761A0000 		.4byte	0x1a76
 8921 1a69 38       		.uleb128 0x38
 8922 1a6a 01       		.uleb128 0x1
 8923 1a6b 51       		.byte	0x51
 8924 1a6c 02       		.uleb128 0x2
 8925 1a6d 74       		.byte	0x74
 8926 1a6e 00       		.sleb128 0
 8927 1a6f 38       		.uleb128 0x38
 8928 1a70 01       		.uleb128 0x1
 8929 1a71 50       		.byte	0x50
 8930 1a72 02       		.uleb128 0x2
 8931 1a73 7D       		.byte	0x7d
 8932 1a74 00       		.sleb128 0
 8933 1a75 00       		.byte	0
 8934 1a76 37       		.uleb128 0x37
 8935 1a77 6C000000 		.4byte	.LVL135
 8936 1a7b 35370000 		.4byte	0x3735
 8937 1a7f 38       		.uleb128 0x38
 8938 1a80 01       		.uleb128 0x1
 8939 1a81 52       		.byte	0x52
 8940 1a82 02       		.uleb128 0x2
 8941 1a83 78       		.byte	0x78
 8942 1a84 00       		.sleb128 0
 8943 1a85 38       		.uleb128 0x38
 8944 1a86 01       		.uleb128 0x1
 8945 1a87 51       		.byte	0x51
 8946 1a88 05       		.uleb128 0x5
 8947 1a89 03       		.byte	0x3
 8948 1a8a 30000000 		.4byte	.LC23
 8949 1a8e 00       		.byte	0
 8950 1a8f 00       		.byte	0
 8951 1a90 1B       		.uleb128 0x1b
 8952 1a91 BC000000 		.4byte	0xbc
 8953 1a95 A31A0000 		.4byte	0x1aa3
 8954 1a99 54       		.uleb128 0x54
 8955 1a9a AD000000 		.4byte	0xad
 8956 1a9e DE180000 		.4byte	0x18de
 8957 1aa2 00       		.byte	0
ARM GAS  C:\Users\jo\AppData\Local\Temp\ccMF9q4g.s 			page 162


 8958 1aa3 07       		.uleb128 0x7
 8959 1aa4 AD000000 		.4byte	0xad
 8960 1aa8 1B       		.uleb128 0x1b
 8961 1aa9 B6000000 		.4byte	0xb6
 8962 1aad BB1A0000 		.4byte	0x1abb
 8963 1ab1 54       		.uleb128 0x54
 8964 1ab2 AD000000 		.4byte	0xad
 8965 1ab6 07190000 		.4byte	0x1907
 8966 1aba 00       		.byte	0
 8967 1abb 07       		.uleb128 0x7
 8968 1abc AD000000 		.4byte	0xad
 8969 1ac0 32       		.uleb128 0x32
 8970 1ac1 4B0E0000 		.4byte	0xe4b
 8971 1ac5 00000000 		.4byte	.LFB281
 8972 1ac9 74000000 		.4byte	.LFE281-.LFB281
 8973 1acd 01       		.uleb128 0x1
 8974 1ace 9C       		.byte	0x9c
 8975 1acf C71B0000 		.4byte	0x1bc7
 8976 1ad3 33       		.uleb128 0x33
 8977 1ad4 5C0E0000 		.4byte	0xe5c
 8978 1ad8 55090000 		.4byte	.LLST63
 8979 1adc 33       		.uleb128 0x33
 8980 1add 660E0000 		.4byte	0xe66
 8981 1ae1 73090000 		.4byte	.LLST64
 8982 1ae5 39       		.uleb128 0x39
 8983 1ae6 720E0000 		.4byte	0xe72
 8984 1aea 91090000 		.4byte	.LLST65
 8985 1aee 35       		.uleb128 0x35
 8986 1aef 7C0E0000 		.4byte	0xe7c
 8987 1af3 05       		.uleb128 0x5
 8988 1af4 03       		.byte	0x3
 8989 1af5 00000000 		.4byte	__FUNCTION__.9472
 8990 1af9 3A       		.uleb128 0x3a
 8991 1afa 48000000 		.4byte	.LBB154
 8992 1afe 0E000000 		.4byte	.LBE154-.LBB154
 8993 1b02 5F1B0000 		.4byte	0x1b5f
 8994 1b06 33       		.uleb128 0x33
 8995 1b07 5C0E0000 		.4byte	0xe5c
 8996 1b0b C5090000 		.4byte	.LLST66
 8997 1b0f 33       		.uleb128 0x33
 8998 1b10 660E0000 		.4byte	0xe66
 8999 1b14 D8090000 		.4byte	.LLST67
 9000 1b18 3D       		.uleb128 0x3d
 9001 1b19 48000000 		.4byte	.LBB155
 9002 1b1d 0E000000 		.4byte	.LBE155-.LBB155
 9003 1b21 3B       		.uleb128 0x3b
 9004 1b22 720E0000 		.4byte	0xe72
 9005 1b26 35       		.uleb128 0x35
 9006 1b27 7C0E0000 		.4byte	0xe7c
 9007 1b2b 05       		.uleb128 0x5
 9008 1b2c 03       		.byte	0x3
 9009 1b2d 00000000 		.4byte	__FUNCTION__.9472
 9010 1b31 37       		.uleb128 0x37
 9011 1b32 56000000 		.4byte	.LVL170
 9012 1b36 4D360000 		.4byte	0x364d
 9013 1b3a 38       		.uleb128 0x38
 9014 1b3b 01       		.uleb128 0x1
ARM GAS  C:\Users\jo\AppData\Local\Temp\ccMF9q4g.s 			page 163


 9015 1b3c 53       		.byte	0x53
 9016 1b3d 05       		.uleb128 0x5
 9017 1b3e 03       		.byte	0x3
 9018 1b3f 34000000 		.4byte	.LC24
 9019 1b43 38       		.uleb128 0x38
 9020 1b44 01       		.uleb128 0x1
 9021 1b45 52       		.byte	0x52
 9022 1b46 05       		.uleb128 0x5
 9023 1b47 03       		.byte	0x3
 9024 1b48 00000000 		.4byte	.LANCHOR4
 9025 1b4c 38       		.uleb128 0x38
 9026 1b4d 01       		.uleb128 0x1
 9027 1b4e 51       		.byte	0x51
 9028 1b4f 03       		.uleb128 0x3
 9029 1b50 0A       		.byte	0xa
 9030 1b51 E203     		.2byte	0x3e2
 9031 1b53 38       		.uleb128 0x38
 9032 1b54 01       		.uleb128 0x1
 9033 1b55 50       		.byte	0x50
 9034 1b56 05       		.uleb128 0x5
 9035 1b57 03       		.byte	0x3
 9036 1b58 00000000 		.4byte	.LC18
 9037 1b5c 00       		.byte	0
 9038 1b5d 00       		.byte	0
 9039 1b5e 00       		.byte	0
 9040 1b5f 3C       		.uleb128 0x3c
 9041 1b60 0C000000 		.4byte	.LVL164
 9042 1b64 6D360000 		.4byte	0x366d
 9043 1b68 721B0000 		.4byte	0x1b72
 9044 1b6c 38       		.uleb128 0x38
 9045 1b6d 01       		.uleb128 0x1
 9046 1b6e 50       		.byte	0x50
 9047 1b6f 01       		.uleb128 0x1
 9048 1b70 48       		.byte	0x48
 9049 1b71 00       		.byte	0
 9050 1b72 3C       		.uleb128 0x3c
 9051 1b73 30000000 		.4byte	.LVL166
 9052 1b77 A4160000 		.4byte	0x16a4
 9053 1b7b 861B0000 		.4byte	0x1b86
 9054 1b7f 38       		.uleb128 0x38
 9055 1b80 01       		.uleb128 0x1
 9056 1b81 50       		.byte	0x50
 9057 1b82 02       		.uleb128 0x2
 9058 1b83 77       		.byte	0x77
 9059 1b84 00       		.sleb128 0
 9060 1b85 00       		.byte	0
 9061 1b86 3C       		.uleb128 0x3c
 9062 1b87 40000000 		.4byte	.LVL167
 9063 1b8b 6D360000 		.4byte	0x366d
 9064 1b8f 9A1B0000 		.4byte	0x1b9a
 9065 1b93 38       		.uleb128 0x38
 9066 1b94 01       		.uleb128 0x1
 9067 1b95 50       		.byte	0x50
 9068 1b96 02       		.uleb128 0x2
 9069 1b97 08       		.byte	0x8
 9070 1b98 40       		.byte	0x40
 9071 1b99 00       		.byte	0
ARM GAS  C:\Users\jo\AppData\Local\Temp\ccMF9q4g.s 			page 164


 9072 1b9a 37       		.uleb128 0x37
 9073 1b9b 64000000 		.4byte	.LVL171
 9074 1b9f 4D360000 		.4byte	0x364d
 9075 1ba3 38       		.uleb128 0x38
 9076 1ba4 01       		.uleb128 0x1
 9077 1ba5 53       		.byte	0x53
 9078 1ba6 05       		.uleb128 0x5
 9079 1ba7 03       		.byte	0x3
 9080 1ba8 24000000 		.4byte	.LC22
 9081 1bac 38       		.uleb128 0x38
 9082 1bad 01       		.uleb128 0x1
 9083 1bae 52       		.byte	0x52
 9084 1baf 05       		.uleb128 0x5
 9085 1bb0 03       		.byte	0x3
 9086 1bb1 00000000 		.4byte	.LANCHOR4
 9087 1bb5 38       		.uleb128 0x38
 9088 1bb6 01       		.uleb128 0x1
 9089 1bb7 51       		.byte	0x51
 9090 1bb8 03       		.uleb128 0x3
 9091 1bb9 0A       		.byte	0xa
 9092 1bba EC03     		.2byte	0x3ec
 9093 1bbc 38       		.uleb128 0x38
 9094 1bbd 01       		.uleb128 0x1
 9095 1bbe 50       		.byte	0x50
 9096 1bbf 05       		.uleb128 0x5
 9097 1bc0 03       		.byte	0x3
 9098 1bc1 00000000 		.4byte	.LC18
 9099 1bc5 00       		.byte	0
 9100 1bc6 00       		.byte	0
 9101 1bc7 3F       		.uleb128 0x3f
 9102 1bc8 86060000 		.4byte	.LASF210
 9103 1bcc 02       		.byte	0x2
 9104 1bcd CD04     		.2byte	0x4cd
 9105 1bcf 02010000 		.4byte	0x102
 9106 1bd3 00000000 		.4byte	.LFB285
 9107 1bd7 5A000000 		.4byte	.LFE285-.LFB285
 9108 1bdb 01       		.uleb128 0x1
 9109 1bdc 9C       		.byte	0x9c
 9110 1bdd 7A1C0000 		.4byte	0x1c7a
 9111 1be1 40       		.uleb128 0x40
 9112 1be2 7000     		.ascii	"p\000"
 9113 1be4 02       		.byte	0x2
 9114 1be5 CD04     		.2byte	0x4cd
 9115 1be7 3A0C0000 		.4byte	0xc3a
 9116 1beb EB090000 		.4byte	.LLST68
 9117 1bef 40       		.uleb128 0x40
 9118 1bf0 6B657900 		.ascii	"key\000"
 9119 1bf4 02       		.byte	0x2
 9120 1bf5 CD04     		.2byte	0x4cd
 9121 1bf7 C3000000 		.4byte	0xc3
 9122 1bfb 170A0000 		.4byte	.LLST69
 9123 1bff 45       		.uleb128 0x45
 9124 1c00 250E0000 		.4byte	.LASF27
 9125 1c04 02       		.byte	0x2
 9126 1c05 CD04     		.2byte	0x4cd
 9127 1c07 7A1C0000 		.4byte	0x1c7a
 9128 1c0b 430A0000 		.4byte	.LLST70
ARM GAS  C:\Users\jo\AppData\Local\Temp\ccMF9q4g.s 			page 165


 9129 1c0f 40       		.uleb128 0x40
 9130 1c10 6C656E00 		.ascii	"len\000"
 9131 1c14 02       		.byte	0x2
 9132 1c15 CD04     		.2byte	0x4cd
 9133 1c17 801C0000 		.4byte	0x1c80
 9134 1c1b 6F0A0000 		.4byte	.LLST71
 9135 1c1f 42       		.uleb128 0x42
 9136 1c20 6900     		.ascii	"i\000"
 9137 1c22 02       		.byte	0x2
 9138 1c23 CF04     		.2byte	0x4cf
 9139 1c25 25000000 		.4byte	0x25
 9140 1c29 9B0A0000 		.4byte	.LLST72
 9141 1c2d 47       		.uleb128 0x47
 9142 1c2e 8F0E0000 		.4byte	0xe8f
 9143 1c32 36000000 		.4byte	.LBB156
 9144 1c36 08000000 		.4byte	.LBE156-.LBB156
 9145 1c3a 02       		.byte	0x2
 9146 1c3b D504     		.2byte	0x4d5
 9147 1c3d 4B1C0000 		.4byte	0x1c4b
 9148 1c41 33       		.uleb128 0x33
 9149 1c42 A00E0000 		.4byte	0xea0
 9150 1c46 BA0A0000 		.4byte	.LLST73
 9151 1c4a 00       		.byte	0
 9152 1c4b 47       		.uleb128 0x47
 9153 1c4c AB0E0000 		.4byte	0xeab
 9154 1c50 46000000 		.4byte	.LBB158
 9155 1c54 06000000 		.4byte	.LBE158-.LBB158
 9156 1c58 02       		.byte	0x2
 9157 1c59 D604     		.2byte	0x4d6
 9158 1c5b 691C0000 		.4byte	0x1c69
 9159 1c5f 33       		.uleb128 0x33
 9160 1c60 BC0E0000 		.4byte	0xebc
 9161 1c64 CD0A0000 		.4byte	.LLST74
 9162 1c68 00       		.byte	0
 9163 1c69 37       		.uleb128 0x37
 9164 1c6a 2A000000 		.4byte	.LVL175
 9165 1c6e FC360000 		.4byte	0x36fc
 9166 1c72 38       		.uleb128 0x38
 9167 1c73 01       		.uleb128 0x1
 9168 1c74 51       		.byte	0x51
 9169 1c75 02       		.uleb128 0x2
 9170 1c76 75       		.byte	0x75
 9171 1c77 00       		.sleb128 0
 9172 1c78 00       		.byte	0
 9173 1c79 00       		.byte	0
 9174 1c7a 06       		.uleb128 0x6
 9175 1c7b 04       		.byte	0x4
 9176 1c7c B4000000 		.4byte	0xb4
 9177 1c80 06       		.uleb128 0x6
 9178 1c81 04       		.byte	0x4
 9179 1c82 2C000000 		.4byte	0x2c
 9180 1c86 4C       		.uleb128 0x4c
 9181 1c87 C9040000 		.4byte	.LASF212
 9182 1c8b 02       		.byte	0x2
 9183 1c8c DF04     		.2byte	0x4df
 9184 1c8e 00000000 		.4byte	.LFB286
 9185 1c92 4E000000 		.4byte	.LFE286-.LFB286
ARM GAS  C:\Users\jo\AppData\Local\Temp\ccMF9q4g.s 			page 166


 9186 1c96 01       		.uleb128 0x1
 9187 1c97 9C       		.byte	0x9c
 9188 1c98 251D0000 		.4byte	0x1d25
 9189 1c9c 40       		.uleb128 0x40
 9190 1c9d 7000     		.ascii	"p\000"
 9191 1c9f 02       		.byte	0x2
 9192 1ca0 DF04     		.2byte	0x4df
 9193 1ca2 3A0C0000 		.4byte	0xc3a
 9194 1ca6 E70A0000 		.4byte	.LLST75
 9195 1caa 42       		.uleb128 0x42
 9196 1cab 6900     		.ascii	"i\000"
 9197 1cad 02       		.byte	0x2
 9198 1cae E604     		.2byte	0x4e6
 9199 1cb0 25000000 		.4byte	0x25
 9200 1cb4 1E0B0000 		.4byte	.LLST76
 9201 1cb8 47       		.uleb128 0x47
 9202 1cb9 630D0000 		.4byte	0xd63
 9203 1cbd 26000000 		.4byte	.LBB160
 9204 1cc1 0C000000 		.4byte	.LBE160-.LBB160
 9205 1cc5 02       		.byte	0x2
 9206 1cc6 EB04     		.2byte	0x4eb
 9207 1cc8 EF1C0000 		.4byte	0x1cef
 9208 1ccc 33       		.uleb128 0x33
 9209 1ccd 700D0000 		.4byte	0xd70
 9210 1cd1 550B0000 		.4byte	.LLST77
 9211 1cd5 3E       		.uleb128 0x3e
 9212 1cd6 2C000000 		.4byte	.LVL190
 9213 1cda CE360000 		.4byte	0x36ce
 9214 1cde 37       		.uleb128 0x37
 9215 1cdf 32000000 		.4byte	.LVL191
 9216 1ce3 CE360000 		.4byte	0x36ce
 9217 1ce7 38       		.uleb128 0x38
 9218 1ce8 01       		.uleb128 0x1
 9219 1ce9 50       		.byte	0x50
 9220 1cea 02       		.uleb128 0x2
 9221 1ceb 76       		.byte	0x76
 9222 1cec 00       		.sleb128 0
 9223 1ced 00       		.byte	0
 9224 1cee 00       		.byte	0
 9225 1cef 3E       		.uleb128 0x3e
 9226 1cf0 0C000000 		.4byte	.LVL185
 9227 1cf4 37160000 		.4byte	0x1637
 9228 1cf8 3E       		.uleb128 0x3e
 9229 1cf9 1C000000 		.4byte	.LVL187
 9230 1cfd CE360000 		.4byte	0x36ce
 9231 1d01 3E       		.uleb128 0x3e
 9232 1d02 3E000000 		.4byte	.LVL193
 9233 1d06 CE360000 		.4byte	0x36ce
 9234 1d0a 3E       		.uleb128 0x3e
 9235 1d0b 44000000 		.4byte	.LVL194
 9236 1d0f CE360000 		.4byte	0x36ce
 9237 1d13 4B       		.uleb128 0x4b
 9238 1d14 4E000000 		.4byte	.LVL196
 9239 1d18 CE360000 		.4byte	0x36ce
 9240 1d1c 38       		.uleb128 0x38
 9241 1d1d 01       		.uleb128 0x1
 9242 1d1e 50       		.byte	0x50
ARM GAS  C:\Users\jo\AppData\Local\Temp\ccMF9q4g.s 			page 167


 9243 1d1f 03       		.uleb128 0x3
 9244 1d20 F3       		.byte	0xf3
 9245 1d21 01       		.uleb128 0x1
 9246 1d22 50       		.byte	0x50
 9247 1d23 00       		.byte	0
 9248 1d24 00       		.byte	0
 9249 1d25 3F       		.uleb128 0x3f
 9250 1d26 D3020000 		.4byte	.LASF213
 9251 1d2a 02       		.byte	0x2
 9252 1d2b 1505     		.2byte	0x515
 9253 1d2d 940B0000 		.4byte	0xb94
 9254 1d31 00000000 		.4byte	.LFB287
 9255 1d35 58000000 		.4byte	.LFE287-.LFB287
 9256 1d39 01       		.uleb128 0x1
 9257 1d3a 9C       		.byte	0x9c
 9258 1d3b 181E0000 		.4byte	0x1e18
 9259 1d3f 45       		.uleb128 0x45
 9260 1d40 1C030000 		.4byte	.LASF160
 9261 1d44 02       		.byte	0x2
 9262 1d45 1505     		.2byte	0x515
 9263 1d47 C3000000 		.4byte	0xc3
 9264 1d4b 680B0000 		.4byte	.LLST78
 9265 1d4f 42       		.uleb128 0x42
 9266 1d50 6300     		.ascii	"c\000"
 9267 1d52 02       		.byte	0x2
 9268 1d53 1705     		.2byte	0x517
 9269 1d55 940B0000 		.4byte	0xb94
 9270 1d59 860B0000 		.4byte	.LLST79
 9271 1d5d 55       		.uleb128 0x55
 9272 1d5e BC030000 		.4byte	.LASF166
 9273 1d62 281E0000 		.4byte	0x1e28
 9274 1d66 05       		.uleb128 0x5
 9275 1d67 03       		.byte	0x3
 9276 1d68 00000000 		.4byte	__FUNCTION__.9540
 9277 1d6c 3C       		.uleb128 0x3c
 9278 1d6d 0C000000 		.4byte	.LVL199
 9279 1d71 6D360000 		.4byte	0x366d
 9280 1d75 811D0000 		.4byte	0x1d81
 9281 1d79 38       		.uleb128 0x38
 9282 1d7a 01       		.uleb128 0x1
 9283 1d7b 50       		.byte	0x50
 9284 1d7c 03       		.uleb128 0x3
 9285 1d7d 0A       		.byte	0xa
 9286 1d7e 0401     		.2byte	0x104
 9287 1d80 00       		.byte	0
 9288 1d81 3C       		.uleb128 0x3c
 9289 1d82 1A000000 		.4byte	.LVL200
 9290 1d86 DF360000 		.4byte	0x36df
 9291 1d8a A11D0000 		.4byte	0x1da1
 9292 1d8e 38       		.uleb128 0x38
 9293 1d8f 01       		.uleb128 0x1
 9294 1d90 52       		.byte	0x52
 9295 1d91 03       		.uleb128 0x3
 9296 1d92 0A       		.byte	0xa
 9297 1d93 0401     		.2byte	0x104
 9298 1d95 38       		.uleb128 0x38
 9299 1d96 01       		.uleb128 0x1
ARM GAS  C:\Users\jo\AppData\Local\Temp\ccMF9q4g.s 			page 168


 9300 1d97 51       		.byte	0x51
 9301 1d98 01       		.uleb128 0x1
 9302 1d99 30       		.byte	0x30
 9303 1d9a 38       		.uleb128 0x38
 9304 1d9b 01       		.uleb128 0x1
 9305 1d9c 50       		.byte	0x50
 9306 1d9d 02       		.uleb128 0x2
 9307 1d9e 74       		.byte	0x74
 9308 1d9f 00       		.sleb128 0
 9309 1da0 00       		.byte	0
 9310 1da1 3C       		.uleb128 0x3c
 9311 1da2 22000000 		.4byte	.LVL201
 9312 1da6 4B0E0000 		.4byte	0xe4b
 9313 1daa BB1D0000 		.4byte	0x1dbb
 9314 1dae 38       		.uleb128 0x38
 9315 1daf 01       		.uleb128 0x1
 9316 1db0 51       		.byte	0x51
 9317 1db1 02       		.uleb128 0x2
 9318 1db2 75       		.byte	0x75
 9319 1db3 00       		.sleb128 0
 9320 1db4 38       		.uleb128 0x38
 9321 1db5 01       		.uleb128 0x1
 9322 1db6 50       		.byte	0x50
 9323 1db7 02       		.uleb128 0x2
 9324 1db8 74       		.byte	0x74
 9325 1db9 00       		.sleb128 0
 9326 1dba 00       		.byte	0
 9327 1dbb 3C       		.uleb128 0x3c
 9328 1dbc 3A000000 		.4byte	.LVL204
 9329 1dc0 4D360000 		.4byte	0x364d
 9330 1dc4 EB1D0000 		.4byte	0x1deb
 9331 1dc8 38       		.uleb128 0x38
 9332 1dc9 01       		.uleb128 0x1
 9333 1dca 53       		.byte	0x53
 9334 1dcb 05       		.uleb128 0x5
 9335 1dcc 03       		.byte	0x3
 9336 1dcd 38000000 		.4byte	.LC25
 9337 1dd1 38       		.uleb128 0x38
 9338 1dd2 01       		.uleb128 0x1
 9339 1dd3 52       		.byte	0x52
 9340 1dd4 05       		.uleb128 0x5
 9341 1dd5 03       		.byte	0x3
 9342 1dd6 00000000 		.4byte	.LANCHOR5
 9343 1dda 38       		.uleb128 0x38
 9344 1ddb 01       		.uleb128 0x1
 9345 1ddc 51       		.byte	0x51
 9346 1ddd 03       		.uleb128 0x3
 9347 1dde 0A       		.byte	0xa
 9348 1ddf 1805     		.2byte	0x518
 9349 1de1 38       		.uleb128 0x38
 9350 1de2 01       		.uleb128 0x1
 9351 1de3 50       		.byte	0x50
 9352 1de4 05       		.uleb128 0x5
 9353 1de5 03       		.byte	0x3
 9354 1de6 00000000 		.4byte	.LC18
 9355 1dea 00       		.byte	0
 9356 1deb 37       		.uleb128 0x37
ARM GAS  C:\Users\jo\AppData\Local\Temp\ccMF9q4g.s 			page 169


 9357 1dec 48000000 		.4byte	.LVL205
 9358 1df0 4D360000 		.4byte	0x364d
 9359 1df4 38       		.uleb128 0x38
 9360 1df5 01       		.uleb128 0x1
 9361 1df6 53       		.byte	0x53
 9362 1df7 05       		.uleb128 0x5
 9363 1df8 03       		.byte	0x3
 9364 1df9 3C000000 		.4byte	.LC26
 9365 1dfd 38       		.uleb128 0x38
 9366 1dfe 01       		.uleb128 0x1
 9367 1dff 52       		.byte	0x52
 9368 1e00 05       		.uleb128 0x5
 9369 1e01 03       		.byte	0x3
 9370 1e02 00000000 		.4byte	.LANCHOR5
 9371 1e06 38       		.uleb128 0x38
 9372 1e07 01       		.uleb128 0x1
 9373 1e08 51       		.byte	0x51
 9374 1e09 03       		.uleb128 0x3
 9375 1e0a 0A       		.byte	0xa
 9376 1e0b 1C05     		.2byte	0x51c
 9377 1e0d 38       		.uleb128 0x38
 9378 1e0e 01       		.uleb128 0x1
 9379 1e0f 50       		.byte	0x50
 9380 1e10 05       		.uleb128 0x5
 9381 1e11 03       		.byte	0x3
 9382 1e12 00000000 		.4byte	.LC18
 9383 1e16 00       		.byte	0
 9384 1e17 00       		.byte	0
 9385 1e18 1B       		.uleb128 0x1b
 9386 1e19 BC000000 		.4byte	0xbc
 9387 1e1d 281E0000 		.4byte	0x1e28
 9388 1e21 1C       		.uleb128 0x1c
 9389 1e22 AD000000 		.4byte	0xad
 9390 1e26 08       		.byte	0x8
 9391 1e27 00       		.byte	0
 9392 1e28 07       		.uleb128 0x7
 9393 1e29 181E0000 		.4byte	0x1e18
 9394 1e2d 4C       		.uleb128 0x4c
 9395 1e2e EA080000 		.4byte	.LASF214
 9396 1e32 02       		.byte	0x2
 9397 1e33 2105     		.2byte	0x521
 9398 1e35 00000000 		.4byte	.LFB288
 9399 1e39 16000000 		.4byte	.LFE288-.LFB288
 9400 1e3d 01       		.uleb128 0x1
 9401 1e3e 9C       		.byte	0x9c
 9402 1e3f 6C1E0000 		.4byte	0x1e6c
 9403 1e43 40       		.uleb128 0x40
 9404 1e44 6300     		.ascii	"c\000"
 9405 1e46 02       		.byte	0x2
 9406 1e47 2105     		.2byte	0x521
 9407 1e49 940B0000 		.4byte	0xb94
 9408 1e4d BA0B0000 		.4byte	.LLST80
 9409 1e51 3E       		.uleb128 0x3e
 9410 1e52 0C000000 		.4byte	.LVL208
 9411 1e56 861C0000 		.4byte	0x1c86
 9412 1e5a 4B       		.uleb128 0x4b
 9413 1e5b 16000000 		.4byte	.LVL210
ARM GAS  C:\Users\jo\AppData\Local\Temp\ccMF9q4g.s 			page 170


 9414 1e5f CE360000 		.4byte	0x36ce
 9415 1e63 38       		.uleb128 0x38
 9416 1e64 01       		.uleb128 0x1
 9417 1e65 50       		.byte	0x50
 9418 1e66 03       		.uleb128 0x3
 9419 1e67 F3       		.byte	0xf3
 9420 1e68 01       		.uleb128 0x1
 9421 1e69 50       		.byte	0x50
 9422 1e6a 00       		.byte	0
 9423 1e6b 00       		.byte	0
 9424 1e6c 3F       		.uleb128 0x3f
 9425 1e6d 200B0000 		.4byte	.LASF215
 9426 1e71 02       		.byte	0x2
 9427 1e72 2705     		.2byte	0x527
 9428 1e74 C3000000 		.4byte	0xc3
 9429 1e78 00000000 		.4byte	.LFB289
 9430 1e7c 02000000 		.4byte	.LFE289-.LFB289
 9431 1e80 01       		.uleb128 0x1
 9432 1e81 9C       		.byte	0x9c
 9433 1e82 931E0000 		.4byte	0x1e93
 9434 1e86 44       		.uleb128 0x44
 9435 1e87 6300     		.ascii	"c\000"
 9436 1e89 02       		.byte	0x2
 9437 1e8a 2705     		.2byte	0x527
 9438 1e8c 940B0000 		.4byte	0xb94
 9439 1e90 01       		.uleb128 0x1
 9440 1e91 50       		.byte	0x50
 9441 1e92 00       		.byte	0
 9442 1e93 3F       		.uleb128 0x3f
 9443 1e94 AC0B0000 		.4byte	.LASF216
 9444 1e98 02       		.byte	0x2
 9445 1e99 3605     		.2byte	0x536
 9446 1e9b 02010000 		.4byte	0x102
 9447 1e9f 00000000 		.4byte	.LFB292
 9448 1ea3 08000000 		.4byte	.LFE292-.LFB292
 9449 1ea7 01       		.uleb128 0x1
 9450 1ea8 9C       		.byte	0x9c
 9451 1ea9 0B1F0000 		.4byte	0x1f0b
 9452 1ead 40       		.uleb128 0x40
 9453 1eae 6300     		.ascii	"c\000"
 9454 1eb0 02       		.byte	0x2
 9455 1eb1 3605     		.2byte	0x536
 9456 1eb3 940B0000 		.4byte	0xb94
 9457 1eb7 F10B0000 		.4byte	.LLST81
 9458 1ebb 40       		.uleb128 0x40
 9459 1ebc 6B657900 		.ascii	"key\000"
 9460 1ec0 02       		.byte	0x2
 9461 1ec1 3605     		.2byte	0x536
 9462 1ec3 C3000000 		.4byte	0xc3
 9463 1ec7 120C0000 		.4byte	.LLST82
 9464 1ecb 45       		.uleb128 0x45
 9465 1ecc 250E0000 		.4byte	.LASF27
 9466 1ed0 02       		.byte	0x2
 9467 1ed1 3605     		.2byte	0x536
 9468 1ed3 7A1C0000 		.4byte	0x1c7a
 9469 1ed7 330C0000 		.4byte	.LLST83
 9470 1edb 40       		.uleb128 0x40
ARM GAS  C:\Users\jo\AppData\Local\Temp\ccMF9q4g.s 			page 171


 9471 1edc 6C656E00 		.ascii	"len\000"
 9472 1ee0 02       		.byte	0x2
 9473 1ee1 3605     		.2byte	0x536
 9474 1ee3 801C0000 		.4byte	0x1c80
 9475 1ee7 540C0000 		.4byte	.LLST84
 9476 1eeb 4B       		.uleb128 0x4b
 9477 1eec 08000000 		.4byte	.LVL214
 9478 1ef0 C71B0000 		.4byte	0x1bc7
 9479 1ef4 38       		.uleb128 0x38
 9480 1ef5 01       		.uleb128 0x1
 9481 1ef6 53       		.byte	0x53
 9482 1ef7 03       		.uleb128 0x3
 9483 1ef8 F3       		.byte	0xf3
 9484 1ef9 01       		.uleb128 0x1
 9485 1efa 53       		.byte	0x53
 9486 1efb 38       		.uleb128 0x38
 9487 1efc 01       		.uleb128 0x1
 9488 1efd 52       		.byte	0x52
 9489 1efe 03       		.uleb128 0x3
 9490 1eff F3       		.byte	0xf3
 9491 1f00 01       		.uleb128 0x1
 9492 1f01 52       		.byte	0x52
 9493 1f02 38       		.uleb128 0x38
 9494 1f03 01       		.uleb128 0x1
 9495 1f04 51       		.byte	0x51
 9496 1f05 03       		.uleb128 0x3
 9497 1f06 F3       		.byte	0xf3
 9498 1f07 01       		.uleb128 0x1
 9499 1f08 51       		.byte	0x51
 9500 1f09 00       		.byte	0
 9501 1f0a 00       		.byte	0
 9502 1f0b 4C       		.uleb128 0x4c
 9503 1f0c E0030000 		.4byte	.LASF217
 9504 1f10 02       		.byte	0x2
 9505 1f11 3B05     		.2byte	0x53b
 9506 1f13 00000000 		.4byte	.LFB293
 9507 1f17 1E000000 		.4byte	.LFE293-.LFB293
 9508 1f1b 01       		.uleb128 0x1
 9509 1f1c 9C       		.byte	0x9c
 9510 1f1d 721F0000 		.4byte	0x1f72
 9511 1f21 40       		.uleb128 0x40
 9512 1f22 6300     		.ascii	"c\000"
 9513 1f24 02       		.byte	0x2
 9514 1f25 3B05     		.2byte	0x53b
 9515 1f27 940B0000 		.4byte	0xb94
 9516 1f2b 750C0000 		.4byte	.LLST85
 9517 1f2f 44       		.uleb128 0x44
 9518 1f30 666D7400 		.ascii	"fmt\000"
 9519 1f34 02       		.byte	0x2
 9520 1f35 3B05     		.2byte	0x53b
 9521 1f37 C3000000 		.4byte	0xc3
 9522 1f3b 02       		.uleb128 0x2
 9523 1f3c 91       		.byte	0x91
 9524 1f3d 74       		.sleb128 -12
 9525 1f3e 2F       		.uleb128 0x2f
 9526 1f3f 4E       		.uleb128 0x4e
 9527 1f40 617000   		.ascii	"ap\000"
ARM GAS  C:\Users\jo\AppData\Local\Temp\ccMF9q4g.s 			page 172


 9528 1f43 02       		.byte	0x2
 9529 1f44 3D05     		.2byte	0x53d
 9530 1f46 F0000000 		.4byte	0xf0
 9531 1f4a 02       		.uleb128 0x2
 9532 1f4b 91       		.byte	0x91
 9533 1f4c 6C       		.sleb128 -20
 9534 1f4d 37       		.uleb128 0x37
 9535 1f4e 14000000 		.4byte	.LVL216
 9536 1f52 54370000 		.4byte	0x3754
 9537 1f56 38       		.uleb128 0x38
 9538 1f57 01       		.uleb128 0x1
 9539 1f58 53       		.byte	0x53
 9540 1f59 02       		.uleb128 0x2
 9541 1f5a 91       		.byte	0x91
 9542 1f5b 60       		.sleb128 -32
 9543 1f5c 38       		.uleb128 0x38
 9544 1f5d 01       		.uleb128 0x1
 9545 1f5e 52       		.byte	0x52
 9546 1f5f 03       		.uleb128 0x3
 9547 1f60 91       		.byte	0x91
 9548 1f61 5C       		.sleb128 -36
 9549 1f62 06       		.byte	0x6
 9550 1f63 38       		.uleb128 0x38
 9551 1f64 01       		.uleb128 0x1
 9552 1f65 51       		.byte	0x51
 9553 1f66 02       		.uleb128 0x2
 9554 1f67 08       		.byte	0x8
 9555 1f68 FF       		.byte	0xff
 9556 1f69 38       		.uleb128 0x38
 9557 1f6a 01       		.uleb128 0x1
 9558 1f6b 50       		.byte	0x50
 9559 1f6c 03       		.uleb128 0x3
 9560 1f6d F3       		.byte	0xf3
 9561 1f6e 01       		.uleb128 0x1
 9562 1f6f 50       		.byte	0x50
 9563 1f70 00       		.byte	0
 9564 1f71 00       		.byte	0
 9565 1f72 32       		.uleb128 0x32
 9566 1f73 AA0F0000 		.4byte	0xfaa
 9567 1f77 00000000 		.4byte	.LFB284
 9568 1f7b 60000000 		.4byte	.LFE284-.LFB284
 9569 1f7f 01       		.uleb128 0x1
 9570 1f80 9C       		.byte	0x9c
 9571 1f81 46200000 		.4byte	0x2046
 9572 1f85 33       		.uleb128 0x33
 9573 1f86 BB0F0000 		.4byte	0xfbb
 9574 1f8a 960C0000 		.4byte	.LLST86
 9575 1f8e 33       		.uleb128 0x33
 9576 1f8f C50F0000 		.4byte	0xfc5
 9577 1f93 C20C0000 		.4byte	.LLST87
 9578 1f97 33       		.uleb128 0x33
 9579 1f98 D00F0000 		.4byte	0xfd0
 9580 1f9c EE0C0000 		.4byte	.LLST88
 9581 1fa0 39       		.uleb128 0x39
 9582 1fa1 DC0F0000 		.4byte	0xfdc
 9583 1fa5 1A0D0000 		.4byte	.LLST89
 9584 1fa9 46       		.uleb128 0x46
ARM GAS  C:\Users\jo\AppData\Local\Temp\ccMF9q4g.s 			page 173


 9585 1faa 8F0E0000 		.4byte	0xe8f
 9586 1fae 10000000 		.4byte	.LBB172
 9587 1fb2 78000000 		.4byte	.Ldebug_ranges0+0x78
 9588 1fb6 02       		.byte	0x2
 9589 1fb7 C304     		.2byte	0x4c3
 9590 1fb9 C71F0000 		.4byte	0x1fc7
 9591 1fbd 33       		.uleb128 0x33
 9592 1fbe A00E0000 		.4byte	0xea0
 9593 1fc2 510D0000 		.4byte	.LLST90
 9594 1fc6 00       		.byte	0
 9595 1fc7 46       		.uleb128 0x46
 9596 1fc8 AB0E0000 		.4byte	0xeab
 9597 1fcc 32000000 		.4byte	.LBB176
 9598 1fd0 90000000 		.4byte	.Ldebug_ranges0+0x90
 9599 1fd4 02       		.byte	0x2
 9600 1fd5 C304     		.2byte	0x4c3
 9601 1fd7 E51F0000 		.4byte	0x1fe5
 9602 1fdb 33       		.uleb128 0x33
 9603 1fdc BC0E0000 		.4byte	0xebc
 9604 1fe0 6F0D0000 		.4byte	.LLST91
 9605 1fe4 00       		.byte	0
 9606 1fe5 3A       		.uleb128 0x3a
 9607 1fe6 42000000 		.4byte	.LBB180
 9608 1fea 10000000 		.4byte	.LBE180-.LBB180
 9609 1fee 39200000 		.4byte	0x2039
 9610 1ff2 33       		.uleb128 0x33
 9611 1ff3 C50F0000 		.4byte	0xfc5
 9612 1ff7 B10D0000 		.4byte	.LLST92
 9613 1ffb 33       		.uleb128 0x33
 9614 1ffc D00F0000 		.4byte	0xfd0
 9615 2000 C40D0000 		.4byte	.LLST93
 9616 2004 33       		.uleb128 0x33
 9617 2005 BB0F0000 		.4byte	0xfbb
 9618 2009 D70D0000 		.4byte	.LLST94
 9619 200d 3D       		.uleb128 0x3d
 9620 200e 42000000 		.4byte	.LBB181
 9621 2012 10000000 		.4byte	.LBE181-.LBB181
 9622 2016 3B       		.uleb128 0x3b
 9623 2017 DC0F0000 		.4byte	0xfdc
 9624 201b 37       		.uleb128 0x37
 9625 201c 4C000000 		.4byte	.LVL226
 9626 2020 0B1F0000 		.4byte	0x1f0b
 9627 2024 38       		.uleb128 0x38
 9628 2025 01       		.uleb128 0x1
 9629 2026 52       		.byte	0x52
 9630 2027 05       		.uleb128 0x5
 9631 2028 03       		.byte	0x3
 9632 2029 4C000000 		.4byte	.LC28
 9633 202d 38       		.uleb128 0x38
 9634 202e 01       		.uleb128 0x1
 9635 202f 51       		.byte	0x51
 9636 2030 05       		.uleb128 0x5
 9637 2031 03       		.byte	0x3
 9638 2032 48000000 		.4byte	.LC27
 9639 2036 00       		.byte	0
 9640 2037 00       		.byte	0
 9641 2038 00       		.byte	0
ARM GAS  C:\Users\jo\AppData\Local\Temp\ccMF9q4g.s 			page 174


 9642 2039 56       		.uleb128 0x56
 9643 203a 3E000000 		.4byte	.LVL224
 9644 203e 38       		.uleb128 0x38
 9645 203f 01       		.uleb128 0x1
 9646 2040 53       		.byte	0x53
 9647 2041 02       		.uleb128 0x2
 9648 2042 78       		.byte	0x78
 9649 2043 00       		.sleb128 0
 9650 2044 00       		.byte	0
 9651 2045 00       		.byte	0
 9652 2046 32       		.uleb128 0x32
 9653 2047 E70F0000 		.4byte	0xfe7
 9654 204b 00000000 		.4byte	.LFB291
 9655 204f 08000000 		.4byte	.LFE291-.LFB291
 9656 2053 01       		.uleb128 0x1
 9657 2054 9C       		.byte	0x9c
 9658 2055 8D200000 		.4byte	0x208d
 9659 2059 33       		.uleb128 0x33
 9660 205a F80F0000 		.4byte	0xff8
 9661 205e EA0D0000 		.4byte	.LLST95
 9662 2062 33       		.uleb128 0x33
 9663 2063 02100000 		.4byte	0x1002
 9664 2067 0B0E0000 		.4byte	.LLST96
 9665 206b 33       		.uleb128 0x33
 9666 206c 0D100000 		.4byte	0x100d
 9667 2070 2C0E0000 		.4byte	.LLST97
 9668 2074 4B       		.uleb128 0x4b
 9669 2075 08000000 		.4byte	.LVL230
 9670 2079 AA0F0000 		.4byte	0xfaa
 9671 207d 38       		.uleb128 0x38
 9672 207e 01       		.uleb128 0x1
 9673 207f 52       		.byte	0x52
 9674 2080 03       		.uleb128 0x3
 9675 2081 F3       		.byte	0xf3
 9676 2082 01       		.uleb128 0x1
 9677 2083 52       		.byte	0x52
 9678 2084 38       		.uleb128 0x38
 9679 2085 01       		.uleb128 0x1
 9680 2086 51       		.byte	0x51
 9681 2087 03       		.uleb128 0x3
 9682 2088 F3       		.byte	0xf3
 9683 2089 01       		.uleb128 0x1
 9684 208a 51       		.byte	0x51
 9685 208b 00       		.byte	0
 9686 208c 00       		.byte	0
 9687 208d 2A       		.uleb128 0x2a
 9688 208e 880B0000 		.4byte	.LASF218
 9689 2092 02       		.byte	0x2
 9690 2093 7302     		.2byte	0x273
 9691 2095 02010000 		.4byte	0x102
 9692 2099 01       		.byte	0x1
 9693 209a B3200000 		.4byte	0x20b3
 9694 209e 22       		.uleb128 0x22
 9695 209f 7300     		.ascii	"s\000"
 9696 20a1 02       		.byte	0x2
 9697 20a2 7302     		.2byte	0x273
 9698 20a4 2E0C0000 		.4byte	0xc2e
ARM GAS  C:\Users\jo\AppData\Local\Temp\ccMF9q4g.s 			page 175


 9699 20a8 22       		.uleb128 0x22
 9700 20a9 6300     		.ascii	"c\000"
 9701 20ab 02       		.byte	0x2
 9702 20ac 7302     		.2byte	0x273
 9703 20ae B6000000 		.4byte	0xb6
 9704 20b2 00       		.byte	0
 9705 20b3 2A       		.uleb128 0x2a
 9706 20b4 600E0000 		.4byte	.LASF219
 9707 20b8 02       		.byte	0x2
 9708 20b9 3B02     		.2byte	0x23b
 9709 20bb 02010000 		.4byte	0x102
 9710 20bf 01       		.byte	0x1
 9711 20c0 CF200000 		.4byte	0x20cf
 9712 20c4 22       		.uleb128 0x22
 9713 20c5 7300     		.ascii	"s\000"
 9714 20c7 02       		.byte	0x2
 9715 20c8 3B02     		.2byte	0x23b
 9716 20ca 2E0C0000 		.4byte	0xc2e
 9717 20ce 00       		.byte	0
 9718 20cf 2A       		.uleb128 0x2a
 9719 20d0 A3090000 		.4byte	.LASF220
 9720 20d4 02       		.byte	0x2
 9721 20d5 6602     		.2byte	0x266
 9722 20d7 02010000 		.4byte	0x102
 9723 20db 01       		.byte	0x1
 9724 20dc F5200000 		.4byte	0x20f5
 9725 20e0 22       		.uleb128 0x22
 9726 20e1 7300     		.ascii	"s\000"
 9727 20e3 02       		.byte	0x2
 9728 20e4 6602     		.2byte	0x266
 9729 20e6 2E0C0000 		.4byte	0xc2e
 9730 20ea 22       		.uleb128 0x22
 9731 20eb 6300     		.ascii	"c\000"
 9732 20ed 02       		.byte	0x2
 9733 20ee 6602     		.2byte	0x266
 9734 20f0 B6000000 		.4byte	0xb6
 9735 20f4 00       		.byte	0
 9736 20f5 4F       		.uleb128 0x4f
 9737 20f6 58080000 		.4byte	.LASF222
 9738 20fa 02       		.byte	0x2
 9739 20fb 8102     		.2byte	0x281
 9740 20fd 02010000 		.4byte	0x102
 9741 2101 00000000 		.4byte	.LFB273
 9742 2105 D4080000 		.4byte	.LFE273-.LFB273
 9743 2109 01       		.uleb128 0x1
 9744 210a 9C       		.byte	0x9c
 9745 210b A3260000 		.4byte	0x26a3
 9746 210f 40       		.uleb128 0x40
 9747 2110 7300     		.ascii	"s\000"
 9748 2112 02       		.byte	0x2
 9749 2113 8102     		.2byte	0x281
 9750 2115 2E0C0000 		.4byte	0xc2e
 9751 2119 4D0E0000 		.4byte	.LLST98
 9752 211d 57       		.uleb128 0x57
 9753 211e C9060000 		.4byte	.LASF223
 9754 2122 01       		.byte	0x1
 9755 2123 02       		.byte	0x2
ARM GAS  C:\Users\jo\AppData\Local\Temp\ccMF9q4g.s 			page 176


 9756 2124 8302     		.2byte	0x283
 9757 2126 6D210000 		.4byte	0x216d
 9758 212a 0C       		.uleb128 0xc
 9759 212b 2B000000 		.4byte	.LASF224
 9760 212f 00       		.sleb128 0
 9761 2130 0C       		.uleb128 0xc
 9762 2131 E1040000 		.4byte	.LASF225
 9763 2135 01       		.sleb128 1
 9764 2136 0C       		.uleb128 0xc
 9765 2137 8C030000 		.4byte	.LASF226
 9766 213b 02       		.sleb128 2
 9767 213c 0C       		.uleb128 0xc
 9768 213d 87010000 		.4byte	.LASF227
 9769 2141 03       		.sleb128 3
 9770 2142 0C       		.uleb128 0xc
 9771 2143 BE050000 		.4byte	.LASF228
 9772 2147 04       		.sleb128 4
 9773 2148 0C       		.uleb128 0xc
 9774 2149 33060000 		.4byte	.LASF229
 9775 214d 05       		.sleb128 5
 9776 214e 0C       		.uleb128 0xc
 9777 214f 310E0000 		.4byte	.LASF230
 9778 2153 06       		.sleb128 6
 9779 2154 0C       		.uleb128 0xc
 9780 2155 03020000 		.4byte	.LASF231
 9781 2159 07       		.sleb128 7
 9782 215a 0C       		.uleb128 0xc
 9783 215b F20D0000 		.4byte	.LASF232
 9784 215f 08       		.sleb128 8
 9785 2160 0C       		.uleb128 0xc
 9786 2161 EF030000 		.4byte	.LASF233
 9787 2165 09       		.sleb128 9
 9788 2166 0C       		.uleb128 0xc
 9789 2167 040E0000 		.4byte	.LASF234
 9790 216b 0A       		.sleb128 10
 9791 216c 00       		.byte	0
 9792 216d 41       		.uleb128 0x41
 9793 216e 81010000 		.4byte	.LASF235
 9794 2172 02       		.byte	0x2
 9795 2173 8402     		.2byte	0x284
 9796 2175 1D210000 		.4byte	0x211d
 9797 2179 6B0E0000 		.4byte	.LLST99
 9798 217d 51       		.uleb128 0x51
 9799 217e 2F0B0000 		.4byte	.LASF236
 9800 2182 02       		.byte	0x2
 9801 2183 8502     		.2byte	0x285
 9802 2185 A3260000 		.4byte	0x26a3
 9803 2189 03       		.uleb128 0x3
 9804 218a 91       		.byte	0x91
 9805 218b B47F     		.sleb128 -76
 9806 218d 42       		.uleb128 0x42
 9807 218e 6300     		.ascii	"c\000"
 9808 2190 02       		.byte	0x2
 9809 2191 8602     		.2byte	0x286
 9810 2193 BC000000 		.4byte	0xbc
 9811 2197 66100000 		.4byte	.LLST100
 9812 219b 4E       		.uleb128 0x4e
ARM GAS  C:\Users\jo\AppData\Local\Temp\ccMF9q4g.s 			page 177


 9813 219c 68657800 		.ascii	"hex\000"
 9814 21a0 02       		.byte	0x2
 9815 21a1 8702     		.2byte	0x287
 9816 21a3 B3260000 		.4byte	0x26b3
 9817 21a7 03       		.uleb128 0x3
 9818 21a8 91       		.byte	0x91
 9819 21a9 B07F     		.sleb128 -80
 9820 21ab 46       		.uleb128 0x46
 9821 21ac C70E0000 		.4byte	0xec7
 9822 21b0 06000000 		.4byte	.LBB209
 9823 21b4 A8000000 		.4byte	.Ldebug_ranges0+0xa8
 9824 21b8 02       		.byte	0x2
 9825 21b9 8B02     		.2byte	0x28b
 9826 21bb 86220000 		.4byte	0x2286
 9827 21bf 34       		.uleb128 0x34
 9828 21c0 D80E0000 		.4byte	0xed8
 9829 21c4 01       		.uleb128 0x1
 9830 21c5 54       		.byte	0x54
 9831 21c6 52       		.uleb128 0x52
 9832 21c7 D0000000 		.4byte	.Ldebug_ranges0+0xd0
 9833 21cb 33       		.uleb128 0x33
 9834 21cc D80E0000 		.4byte	0xed8
 9835 21d0 85100000 		.4byte	.LLST101
 9836 21d4 46       		.uleb128 0x46
 9837 21d5 B3200000 		.4byte	0x20b3
 9838 21d9 AC030000 		.4byte	.LBB213
 9839 21dd F8000000 		.4byte	.Ldebug_ranges0+0xf8
 9840 21e1 02       		.byte	0x2
 9841 21e2 5802     		.2byte	0x258
 9842 21e4 37220000 		.4byte	0x2237
 9843 21e8 33       		.uleb128 0x33
 9844 21e9 C4200000 		.4byte	0x20c4
 9845 21ed B9100000 		.4byte	.LLST102
 9846 21f1 3C       		.uleb128 0x3c
 9847 21f2 BA030000 		.4byte	.LVL262
 9848 21f6 79370000 		.4byte	0x3779
 9849 21fa 0B220000 		.4byte	0x220b
 9850 21fe 38       		.uleb128 0x38
 9851 21ff 01       		.uleb128 0x1
 9852 2200 52       		.byte	0x52
 9853 2201 02       		.uleb128 0x2
 9854 2202 08       		.byte	0x8
 9855 2203 FF       		.byte	0xff
 9856 2204 38       		.uleb128 0x38
 9857 2205 01       		.uleb128 0x1
 9858 2206 51       		.byte	0x51
 9859 2207 02       		.uleb128 0x2
 9860 2208 79       		.byte	0x79
 9861 2209 00       		.sleb128 0
 9862 220a 00       		.byte	0
 9863 220b 3E       		.uleb128 0x3e
 9864 220c F0050000 		.4byte	.LVL299
 9865 2210 98370000 		.4byte	0x3798
 9866 2214 3E       		.uleb128 0x3e
 9867 2215 F6050000 		.4byte	.LVL300
 9868 2219 A9370000 		.4byte	0x37a9
 9869 221d 37       		.uleb128 0x37
ARM GAS  C:\Users\jo\AppData\Local\Temp\ccMF9q4g.s 			page 178


 9870 221e 00060000 		.4byte	.LVL301
 9871 2222 0B1F0000 		.4byte	0x1f0b
 9872 2226 38       		.uleb128 0x38
 9873 2227 01       		.uleb128 0x1
 9874 2228 51       		.byte	0x51
 9875 2229 05       		.uleb128 0x5
 9876 222a 03       		.byte	0x3
 9877 222b 94000000 		.4byte	.LC32
 9878 222f 38       		.uleb128 0x38
 9879 2230 01       		.uleb128 0x1
 9880 2231 50       		.byte	0x50
 9881 2232 02       		.uleb128 0x2
 9882 2233 7A       		.byte	0x7a
 9883 2234 00       		.sleb128 0
 9884 2235 00       		.byte	0
 9885 2236 00       		.byte	0
 9886 2237 3C       		.uleb128 0x3c
 9887 2238 DE030000 		.4byte	.LVL263
 9888 223c 5D100000 		.4byte	0x105d
 9889 2240 54220000 		.4byte	0x2254
 9890 2244 38       		.uleb128 0x38
 9891 2245 01       		.uleb128 0x1
 9892 2246 52       		.byte	0x52
 9893 2247 02       		.uleb128 0x2
 9894 2248 79       		.byte	0x79
 9895 2249 00       		.sleb128 0
 9896 224a 38       		.uleb128 0x38
 9897 224b 01       		.uleb128 0x1
 9898 224c 51       		.byte	0x51
 9899 224d 05       		.uleb128 0x5
 9900 224e 03       		.byte	0x3
 9901 224f A0000000 		.4byte	.LC33
 9902 2253 00       		.byte	0
 9903 2254 3C       		.uleb128 0x3c
 9904 2255 F4030000 		.4byte	.LVL264
 9905 2259 5D100000 		.4byte	0x105d
 9906 225d 6B220000 		.4byte	0x226b
 9907 2261 38       		.uleb128 0x38
 9908 2262 01       		.uleb128 0x1
 9909 2263 51       		.byte	0x51
 9910 2264 05       		.uleb128 0x5
 9911 2265 03       		.byte	0x3
 9912 2266 D4000000 		.4byte	.LC34
 9913 226a 00       		.byte	0
 9914 226b 37       		.uleb128 0x37
 9915 226c 16040000 		.4byte	.LVL266
 9916 2270 5D100000 		.4byte	0x105d
 9917 2274 38       		.uleb128 0x38
 9918 2275 01       		.uleb128 0x1
 9919 2276 52       		.byte	0x52
 9920 2277 02       		.uleb128 0x2
 9921 2278 78       		.byte	0x78
 9922 2279 00       		.sleb128 0
 9923 227a 38       		.uleb128 0x38
 9924 227b 01       		.uleb128 0x1
 9925 227c 51       		.byte	0x51
 9926 227d 05       		.uleb128 0x5
ARM GAS  C:\Users\jo\AppData\Local\Temp\ccMF9q4g.s 			page 179


 9927 227e 03       		.byte	0x3
 9928 227f D4000000 		.4byte	.LC34
 9929 2283 00       		.byte	0
 9930 2284 00       		.byte	0
 9931 2285 00       		.byte	0
 9932 2286 53       		.uleb128 0x53
 9933 2287 10010000 		.4byte	.Ldebug_ranges0+0x110
 9934 228b 8F260000 		.4byte	0x268f
 9935 228f 41       		.uleb128 0x41
 9936 2290 C1020000 		.4byte	.LASF237
 9937 2294 02       		.byte	0x2
 9938 2295 8D02     		.2byte	0x28d
 9939 2297 25000000 		.4byte	0x25
 9940 229b E2100000 		.4byte	.LLST103
 9941 229f 46       		.uleb128 0x46
 9942 22a0 8D200000 		.4byte	0x208d
 9943 22a4 56000000 		.4byte	.LBB228
 9944 22a8 50010000 		.4byte	.Ldebug_ranges0+0x150
 9945 22ac 02       		.byte	0x2
 9946 22ad 8E02     		.2byte	0x28e
 9947 22af BF230000 		.4byte	0x23bf
 9948 22b3 33       		.uleb128 0x33
 9949 22b4 A8200000 		.4byte	0x20a8
 9950 22b8 99110000 		.4byte	.LLST104
 9951 22bc 33       		.uleb128 0x33
 9952 22bd 9E200000 		.4byte	0x209e
 9953 22c1 11120000 		.4byte	.LLST105
 9954 22c5 46       		.uleb128 0x46
 9955 22c6 C70E0000 		.4byte	0xec7
 9956 22ca 56000000 		.4byte	.LBB230
 9957 22ce 78010000 		.4byte	.Ldebug_ranges0+0x178
 9958 22d2 02       		.byte	0x2
 9959 22d3 7502     		.2byte	0x275
 9960 22d5 A2230000 		.4byte	0x23a2
 9961 22d9 33       		.uleb128 0x33
 9962 22da D80E0000 		.4byte	0xed8
 9963 22de 11120000 		.4byte	.LLST105
 9964 22e2 52       		.uleb128 0x52
 9965 22e3 78010000 		.4byte	.Ldebug_ranges0+0x178
 9966 22e7 33       		.uleb128 0x33
 9967 22e8 D80E0000 		.4byte	0xed8
 9968 22ec 11120000 		.4byte	.LLST105
 9969 22f0 46       		.uleb128 0x46
 9970 22f1 B3200000 		.4byte	0x20b3
 9971 22f5 5C000000 		.4byte	.LBB233
 9972 22f9 98010000 		.4byte	.Ldebug_ranges0+0x198
 9973 22fd 02       		.byte	0x2
 9974 22fe 5802     		.2byte	0x258
 9975 2300 53230000 		.4byte	0x2353
 9976 2304 33       		.uleb128 0x33
 9977 2305 C4200000 		.4byte	0x20c4
 9978 2309 24120000 		.4byte	.LLST108
 9979 230d 3C       		.uleb128 0x3c
 9980 230e 6A000000 		.4byte	.LVL238
 9981 2312 79370000 		.4byte	0x3779
 9982 2316 27230000 		.4byte	0x2327
 9983 231a 38       		.uleb128 0x38
ARM GAS  C:\Users\jo\AppData\Local\Temp\ccMF9q4g.s 			page 180


 9984 231b 01       		.uleb128 0x1
 9985 231c 52       		.byte	0x52
 9986 231d 02       		.uleb128 0x2
 9987 231e 08       		.byte	0x8
 9988 231f FF       		.byte	0xff
 9989 2320 38       		.uleb128 0x38
 9990 2321 01       		.uleb128 0x1
 9991 2322 51       		.byte	0x51
 9992 2323 02       		.uleb128 0x2
 9993 2324 79       		.byte	0x79
 9994 2325 00       		.sleb128 0
 9995 2326 00       		.byte	0
 9996 2327 3E       		.uleb128 0x3e
 9997 2328 E8070000 		.4byte	.LVL344
 9998 232c 98370000 		.4byte	0x3798
 9999 2330 3E       		.uleb128 0x3e
 10000 2331 EE070000 		.4byte	.LVL345
 10001 2335 A9370000 		.4byte	0x37a9
 10002 2339 37       		.uleb128 0x37
 10003 233a F8070000 		.4byte	.LVL346
 10004 233e 0B1F0000 		.4byte	0x1f0b
 10005 2342 38       		.uleb128 0x38
 10006 2343 01       		.uleb128 0x1
 10007 2344 51       		.byte	0x51
 10008 2345 05       		.uleb128 0x5
 10009 2346 03       		.byte	0x3
 10010 2347 94000000 		.4byte	.LC32
 10011 234b 38       		.uleb128 0x38
 10012 234c 01       		.uleb128 0x1
 10013 234d 50       		.byte	0x50
 10014 234e 02       		.uleb128 0x2
 10015 234f 7A       		.byte	0x7a
 10016 2350 00       		.sleb128 0
 10017 2351 00       		.byte	0
 10018 2352 00       		.byte	0
 10019 2353 3C       		.uleb128 0x3c
 10020 2354 8E000000 		.4byte	.LVL239
 10021 2358 5D100000 		.4byte	0x105d
 10022 235c 70230000 		.4byte	0x2370
 10023 2360 38       		.uleb128 0x38
 10024 2361 01       		.uleb128 0x1
 10025 2362 52       		.byte	0x52
 10026 2363 02       		.uleb128 0x2
 10027 2364 79       		.byte	0x79
 10028 2365 00       		.sleb128 0
 10029 2366 38       		.uleb128 0x38
 10030 2367 01       		.uleb128 0x1
 10031 2368 51       		.byte	0x51
 10032 2369 05       		.uleb128 0x5
 10033 236a 03       		.byte	0x3
 10034 236b A0000000 		.4byte	.LC33
 10035 236f 00       		.byte	0
 10036 2370 3C       		.uleb128 0x3c
 10037 2371 A4000000 		.4byte	.LVL240
 10038 2375 5D100000 		.4byte	0x105d
 10039 2379 87230000 		.4byte	0x2387
 10040 237d 38       		.uleb128 0x38
ARM GAS  C:\Users\jo\AppData\Local\Temp\ccMF9q4g.s 			page 181


 10041 237e 01       		.uleb128 0x1
 10042 237f 51       		.byte	0x51
 10043 2380 05       		.uleb128 0x5
 10044 2381 03       		.byte	0x3
 10045 2382 D4000000 		.4byte	.LC34
 10046 2386 00       		.byte	0
 10047 2387 37       		.uleb128 0x37
 10048 2388 70040000 		.4byte	.LVL272
 10049 238c 5D100000 		.4byte	0x105d
 10050 2390 38       		.uleb128 0x38
 10051 2391 01       		.uleb128 0x1
 10052 2392 52       		.byte	0x52
 10053 2393 02       		.uleb128 0x2
 10054 2394 78       		.byte	0x78
 10055 2395 00       		.sleb128 0
 10056 2396 38       		.uleb128 0x38
 10057 2397 01       		.uleb128 0x1
 10058 2398 51       		.byte	0x51
 10059 2399 05       		.uleb128 0x5
 10060 239a 03       		.byte	0x3
 10061 239b D4000000 		.4byte	.LC34
 10062 239f 00       		.byte	0
 10063 23a0 00       		.byte	0
 10064 23a1 00       		.byte	0
 10065 23a2 37       		.uleb128 0x37
 10066 23a3 B2040000 		.4byte	.LVL278
 10067 23a7 0B1F0000 		.4byte	0x1f0b
 10068 23ab 38       		.uleb128 0x38
 10069 23ac 01       		.uleb128 0x1
 10070 23ad 52       		.byte	0x52
 10071 23ae 05       		.uleb128 0x5
 10072 23af 03       		.byte	0x3
 10073 23b0 F0000000 		.4byte	.LC35
 10074 23b4 38       		.uleb128 0x38
 10075 23b5 01       		.uleb128 0x1
 10076 23b6 51       		.byte	0x51
 10077 23b7 05       		.uleb128 0x5
 10078 23b8 03       		.byte	0x3
 10079 23b9 48000000 		.4byte	.LC27
 10080 23bd 00       		.byte	0
 10081 23be 00       		.byte	0
 10082 23bf 46       		.uleb128 0x46
 10083 23c0 CF200000 		.4byte	0x20cf
 10084 23c4 72040000 		.4byte	.LBB247
 10085 23c8 B0010000 		.4byte	.Ldebug_ranges0+0x1b0
 10086 23cc 02       		.byte	0x2
 10087 23cd 3F03     		.2byte	0x33f
 10088 23cf DF240000 		.4byte	0x24df
 10089 23d3 33       		.uleb128 0x33
 10090 23d4 EA200000 		.4byte	0x20ea
 10091 23d8 42120000 		.4byte	.LLST109
 10092 23dc 33       		.uleb128 0x33
 10093 23dd E0200000 		.4byte	0x20e0
 10094 23e1 9A120000 		.4byte	.LLST110
 10095 23e5 46       		.uleb128 0x46
 10096 23e6 C70E0000 		.4byte	0xec7
 10097 23ea 72040000 		.4byte	.LBB249
ARM GAS  C:\Users\jo\AppData\Local\Temp\ccMF9q4g.s 			page 182


 10098 23ee E0010000 		.4byte	.Ldebug_ranges0+0x1e0
 10099 23f2 02       		.byte	0x2
 10100 23f3 6802     		.2byte	0x268
 10101 23f5 C2240000 		.4byte	0x24c2
 10102 23f9 33       		.uleb128 0x33
 10103 23fa D80E0000 		.4byte	0xed8
 10104 23fe 9A120000 		.4byte	.LLST110
 10105 2402 52       		.uleb128 0x52
 10106 2403 10020000 		.4byte	.Ldebug_ranges0+0x210
 10107 2407 33       		.uleb128 0x33
 10108 2408 D80E0000 		.4byte	0xed8
 10109 240c D9120000 		.4byte	.LLST112
 10110 2410 46       		.uleb128 0x46
 10111 2411 B3200000 		.4byte	0x20b3
 10112 2415 92050000 		.4byte	.LBB253
 10113 2419 38020000 		.4byte	.Ldebug_ranges0+0x238
 10114 241d 02       		.byte	0x2
 10115 241e 5802     		.2byte	0x258
 10116 2420 73240000 		.4byte	0x2473
 10117 2424 33       		.uleb128 0x33
 10118 2425 C4200000 		.4byte	0x20c4
 10119 2429 0D130000 		.4byte	.LLST113
 10120 242d 3C       		.uleb128 0x3c
 10121 242e A0050000 		.4byte	.LVL294
 10122 2432 79370000 		.4byte	0x3779
 10123 2436 47240000 		.4byte	0x2447
 10124 243a 38       		.uleb128 0x38
 10125 243b 01       		.uleb128 0x1
 10126 243c 52       		.byte	0x52
 10127 243d 02       		.uleb128 0x2
 10128 243e 08       		.byte	0x8
 10129 243f FF       		.byte	0xff
 10130 2440 38       		.uleb128 0x38
 10131 2441 01       		.uleb128 0x1
 10132 2442 51       		.byte	0x51
 10133 2443 02       		.uleb128 0x2
 10134 2444 75       		.byte	0x75
 10135 2445 00       		.sleb128 0
 10136 2446 00       		.byte	0
 10137 2447 3E       		.uleb128 0x3e
 10138 2448 9C080000 		.4byte	.LVL357
 10139 244c 98370000 		.4byte	0x3798
 10140 2450 3E       		.uleb128 0x3e
 10141 2451 A2080000 		.4byte	.LVL358
 10142 2455 A9370000 		.4byte	0x37a9
 10143 2459 37       		.uleb128 0x37
 10144 245a AC080000 		.4byte	.LVL359
 10145 245e 0B1F0000 		.4byte	0x1f0b
 10146 2462 38       		.uleb128 0x38
 10147 2463 01       		.uleb128 0x1
 10148 2464 51       		.byte	0x51
 10149 2465 05       		.uleb128 0x5
 10150 2466 03       		.byte	0x3
 10151 2467 94000000 		.4byte	.LC32
 10152 246b 38       		.uleb128 0x38
 10153 246c 01       		.uleb128 0x1
 10154 246d 50       		.byte	0x50
ARM GAS  C:\Users\jo\AppData\Local\Temp\ccMF9q4g.s 			page 183


 10155 246e 02       		.uleb128 0x2
 10156 246f 79       		.byte	0x79
 10157 2470 00       		.sleb128 0
 10158 2471 00       		.byte	0
 10159 2472 00       		.byte	0
 10160 2473 3C       		.uleb128 0x3c
 10161 2474 C4050000 		.4byte	.LVL296
 10162 2478 5D100000 		.4byte	0x105d
 10163 247c 90240000 		.4byte	0x2490
 10164 2480 38       		.uleb128 0x38
 10165 2481 01       		.uleb128 0x1
 10166 2482 52       		.byte	0x52
 10167 2483 02       		.uleb128 0x2
 10168 2484 75       		.byte	0x75
 10169 2485 00       		.sleb128 0
 10170 2486 38       		.uleb128 0x38
 10171 2487 01       		.uleb128 0x1
 10172 2488 51       		.byte	0x51
 10173 2489 05       		.uleb128 0x5
 10174 248a 03       		.byte	0x3
 10175 248b A0000000 		.4byte	.LC33
 10176 248f 00       		.byte	0
 10177 2490 3C       		.uleb128 0x3c
 10178 2491 DA050000 		.4byte	.LVL297
 10179 2495 5D100000 		.4byte	0x105d
 10180 2499 A7240000 		.4byte	0x24a7
 10181 249d 38       		.uleb128 0x38
 10182 249e 01       		.uleb128 0x1
 10183 249f 51       		.byte	0x51
 10184 24a0 05       		.uleb128 0x5
 10185 24a1 03       		.byte	0x3
 10186 24a2 D4000000 		.4byte	.LC34
 10187 24a6 00       		.byte	0
 10188 24a7 37       		.uleb128 0x37
 10189 24a8 76080000 		.4byte	.LVL353
 10190 24ac 5D100000 		.4byte	0x105d
 10191 24b0 38       		.uleb128 0x38
 10192 24b1 01       		.uleb128 0x1
 10193 24b2 52       		.byte	0x52
 10194 24b3 02       		.uleb128 0x2
 10195 24b4 78       		.byte	0x78
 10196 24b5 00       		.sleb128 0
 10197 24b6 38       		.uleb128 0x38
 10198 24b7 01       		.uleb128 0x1
 10199 24b8 51       		.byte	0x51
 10200 24b9 05       		.uleb128 0x5
 10201 24ba 03       		.byte	0x3
 10202 24bb D4000000 		.4byte	.LC34
 10203 24bf 00       		.byte	0
 10204 24c0 00       		.byte	0
 10205 24c1 00       		.byte	0
 10206 24c2 37       		.uleb128 0x37
 10207 24c3 84040000 		.4byte	.LVL275
 10208 24c7 0B1F0000 		.4byte	0x1f0b
 10209 24cb 38       		.uleb128 0x38
 10210 24cc 01       		.uleb128 0x1
 10211 24cd 52       		.byte	0x52
ARM GAS  C:\Users\jo\AppData\Local\Temp\ccMF9q4g.s 			page 184


 10212 24ce 05       		.uleb128 0x5
 10213 24cf 03       		.byte	0x3
 10214 24d0 F4010000 		.4byte	.LC40
 10215 24d4 38       		.uleb128 0x38
 10216 24d5 01       		.uleb128 0x1
 10217 24d6 51       		.byte	0x51
 10218 24d7 05       		.uleb128 0x5
 10219 24d8 03       		.byte	0x3
 10220 24d9 48000000 		.4byte	.LC27
 10221 24dd 00       		.byte	0
 10222 24de 00       		.byte	0
 10223 24df 47       		.uleb128 0x47
 10224 24e0 EC0C0000 		.4byte	0xcec
 10225 24e4 0C070000 		.4byte	.LBB278
 10226 24e8 14000000 		.4byte	.LBE278-.LBB278
 10227 24ec 02       		.byte	0x2
 10228 24ed B102     		.2byte	0x2b1
 10229 24ef 06250000 		.4byte	0x2506
 10230 24f3 33       		.uleb128 0x33
 10231 24f4 030D0000 		.4byte	0xd03
 10232 24f8 2B130000 		.4byte	.LLST114
 10233 24fc 33       		.uleb128 0x33
 10234 24fd F90C0000 		.4byte	0xcf9
 10235 2501 3F130000 		.4byte	.LLST115
 10236 2505 00       		.byte	0
 10237 2506 47       		.uleb128 0x47
 10238 2507 EC0C0000 		.4byte	0xcec
 10239 250b C2070000 		.4byte	.LBB280
 10240 250f 08000000 		.4byte	.LBE280-.LBB280
 10241 2513 02       		.byte	0x2
 10242 2514 B602     		.2byte	0x2b6
 10243 2516 2D250000 		.4byte	0x252d
 10244 251a 33       		.uleb128 0x33
 10245 251b 030D0000 		.4byte	0xd03
 10246 251f 52130000 		.4byte	.LLST116
 10247 2523 33       		.uleb128 0x33
 10248 2524 F90C0000 		.4byte	0xcf9
 10249 2528 66130000 		.4byte	.LLST117
 10250 252c 00       		.byte	0
 10251 252d 3C       		.uleb128 0x3c
 10252 252e 2E010000 		.4byte	.LVL246
 10253 2532 5D100000 		.4byte	0x105d
 10254 2536 44250000 		.4byte	0x2544
 10255 253a 38       		.uleb128 0x38
 10256 253b 01       		.uleb128 0x1
 10257 253c 51       		.byte	0x51
 10258 253d 05       		.uleb128 0x5
 10259 253e 03       		.byte	0x3
 10260 253f C4010000 		.4byte	.LC39
 10261 2543 00       		.byte	0
 10262 2544 3C       		.uleb128 0x3c
 10263 2545 8E010000 		.4byte	.LVL250
 10264 2549 0B1F0000 		.4byte	0x1f0b
 10265 254d 61250000 		.4byte	0x2561
 10266 2551 38       		.uleb128 0x38
 10267 2552 01       		.uleb128 0x1
 10268 2553 52       		.byte	0x52
ARM GAS  C:\Users\jo\AppData\Local\Temp\ccMF9q4g.s 			page 185


 10269 2554 02       		.uleb128 0x2
 10270 2555 76       		.byte	0x76
 10271 2556 00       		.sleb128 0
 10272 2557 38       		.uleb128 0x38
 10273 2558 01       		.uleb128 0x1
 10274 2559 51       		.byte	0x51
 10275 255a 05       		.uleb128 0x5
 10276 255b 03       		.byte	0x3
 10277 255c 50010000 		.4byte	.LC37
 10278 2560 00       		.byte	0
 10279 2561 3C       		.uleb128 0x3c
 10280 2562 B6010000 		.4byte	.LVL252
 10281 2566 63140000 		.4byte	0x1463
 10282 256a 75250000 		.4byte	0x2575
 10283 256e 38       		.uleb128 0x38
 10284 256f 01       		.uleb128 0x1
 10285 2570 51       		.byte	0x51
 10286 2571 02       		.uleb128 0x2
 10287 2572 76       		.byte	0x76
 10288 2573 00       		.sleb128 0
 10289 2574 00       		.byte	0
 10290 2575 3C       		.uleb128 0x3c
 10291 2576 7C020000 		.4byte	.LVL259
 10292 257a 0B1F0000 		.4byte	0x1f0b
 10293 257e 89250000 		.4byte	0x2589
 10294 2582 38       		.uleb128 0x38
 10295 2583 01       		.uleb128 0x1
 10296 2584 53       		.byte	0x53
 10297 2585 02       		.uleb128 0x2
 10298 2586 76       		.byte	0x76
 10299 2587 00       		.sleb128 0
 10300 2588 00       		.byte	0
 10301 2589 3C       		.uleb128 0x3c
 10302 258a 32040000 		.4byte	.LVL268
 10303 258e 63140000 		.4byte	0x1463
 10304 2592 9D250000 		.4byte	0x259d
 10305 2596 38       		.uleb128 0x38
 10306 2597 01       		.uleb128 0x1
 10307 2598 51       		.byte	0x51
 10308 2599 02       		.uleb128 0x2
 10309 259a 76       		.byte	0x76
 10310 259b 00       		.sleb128 0
 10311 259c 00       		.byte	0
 10312 259d 3C       		.uleb128 0x3c
 10313 259e E0040000 		.4byte	.LVL280
 10314 25a2 BE370000 		.4byte	0x37be
 10315 25a6 BC250000 		.4byte	0x25bc
 10316 25aa 38       		.uleb128 0x38
 10317 25ab 01       		.uleb128 0x1
 10318 25ac 52       		.byte	0x52
 10319 25ad 01       		.uleb128 0x1
 10320 25ae 40       		.byte	0x40
 10321 25af 38       		.uleb128 0x38
 10322 25b0 01       		.uleb128 0x1
 10323 25b1 51       		.byte	0x51
 10324 25b2 01       		.uleb128 0x1
 10325 25b3 30       		.byte	0x30
ARM GAS  C:\Users\jo\AppData\Local\Temp\ccMF9q4g.s 			page 186


 10326 25b4 38       		.uleb128 0x38
 10327 25b5 01       		.uleb128 0x1
 10328 25b6 50       		.byte	0x50
 10329 25b7 03       		.uleb128 0x3
 10330 25b8 91       		.byte	0x91
 10331 25b9 B07F     		.sleb128 -80
 10332 25bb 00       		.byte	0
 10333 25bc 3C       		.uleb128 0x3c
 10334 25bd E8040000 		.4byte	.LVL281
 10335 25c1 63140000 		.4byte	0x1463
 10336 25c5 D0250000 		.4byte	0x25d0
 10337 25c9 38       		.uleb128 0x38
 10338 25ca 01       		.uleb128 0x1
 10339 25cb 50       		.byte	0x50
 10340 25cc 02       		.uleb128 0x2
 10341 25cd 75       		.byte	0x75
 10342 25ce 00       		.sleb128 0
 10343 25cf 00       		.byte	0
 10344 25d0 3C       		.uleb128 0x3c
 10345 25d1 5A050000 		.4byte	.LVL287
 10346 25d5 63140000 		.4byte	0x1463
 10347 25d9 E4250000 		.4byte	0x25e4
 10348 25dd 38       		.uleb128 0x38
 10349 25de 01       		.uleb128 0x1
 10350 25df 51       		.byte	0x51
 10351 25e0 02       		.uleb128 0x2
 10352 25e1 76       		.byte	0x76
 10353 25e2 00       		.sleb128 0
 10354 25e3 00       		.byte	0
 10355 25e4 3C       		.uleb128 0x3c
 10356 25e5 1A060000 		.4byte	.LVL303
 10357 25e9 0B1F0000 		.4byte	0x1f0b
 10358 25ed 01260000 		.4byte	0x2601
 10359 25f1 38       		.uleb128 0x38
 10360 25f2 01       		.uleb128 0x1
 10361 25f3 52       		.byte	0x52
 10362 25f4 02       		.uleb128 0x2
 10363 25f5 76       		.byte	0x76
 10364 25f6 00       		.sleb128 0
 10365 25f7 38       		.uleb128 0x38
 10366 25f8 01       		.uleb128 0x1
 10367 25f9 51       		.byte	0x51
 10368 25fa 05       		.uleb128 0x5
 10369 25fb 03       		.byte	0x3
 10370 25fc 8C010000 		.4byte	.LC38
 10371 2600 00       		.byte	0
 10372 2601 3C       		.uleb128 0x3c
 10373 2602 30060000 		.4byte	.LVL305
 10374 2606 0B1F0000 		.4byte	0x1f0b
 10375 260a 1E260000 		.4byte	0x261e
 10376 260e 38       		.uleb128 0x38
 10377 260f 01       		.uleb128 0x1
 10378 2610 52       		.byte	0x52
 10379 2611 02       		.uleb128 0x2
 10380 2612 76       		.byte	0x76
 10381 2613 00       		.sleb128 0
 10382 2614 38       		.uleb128 0x38
ARM GAS  C:\Users\jo\AppData\Local\Temp\ccMF9q4g.s 			page 187


 10383 2615 01       		.uleb128 0x1
 10384 2616 51       		.byte	0x51
 10385 2617 05       		.uleb128 0x5
 10386 2618 03       		.byte	0x3
 10387 2619 8C010000 		.4byte	.LC38
 10388 261d 00       		.byte	0
 10389 261e 3C       		.uleb128 0x3c
 10390 261f B6060000 		.4byte	.LVL320
 10391 2623 63140000 		.4byte	0x1463
 10392 2627 32260000 		.4byte	0x2632
 10393 262b 38       		.uleb128 0x38
 10394 262c 01       		.uleb128 0x1
 10395 262d 51       		.byte	0x51
 10396 262e 02       		.uleb128 0x2
 10397 262f 76       		.byte	0x76
 10398 2630 00       		.sleb128 0
 10399 2631 00       		.byte	0
 10400 2632 3C       		.uleb128 0x3c
 10401 2633 D0070000 		.4byte	.LVL342
 10402 2637 63140000 		.4byte	0x1463
 10403 263b 46260000 		.4byte	0x2646
 10404 263f 38       		.uleb128 0x38
 10405 2640 01       		.uleb128 0x1
 10406 2641 51       		.byte	0x51
 10407 2642 02       		.uleb128 0x2
 10408 2643 76       		.byte	0x76
 10409 2644 00       		.sleb128 0
 10410 2645 00       		.byte	0
 10411 2646 3C       		.uleb128 0x3c
 10412 2647 08080000 		.4byte	.LVL348
 10413 264b 63140000 		.4byte	0x1463
 10414 264f 59260000 		.4byte	0x2659
 10415 2653 38       		.uleb128 0x38
 10416 2654 01       		.uleb128 0x1
 10417 2655 51       		.byte	0x51
 10418 2656 01       		.uleb128 0x1
 10419 2657 39       		.byte	0x39
 10420 2658 00       		.byte	0
 10421 2659 3C       		.uleb128 0x3c
 10422 265a 22080000 		.4byte	.LVL349
 10423 265e 63140000 		.4byte	0x1463
 10424 2662 6C260000 		.4byte	0x266c
 10425 2666 38       		.uleb128 0x38
 10426 2667 01       		.uleb128 0x1
 10427 2668 51       		.byte	0x51
 10428 2669 01       		.uleb128 0x1
 10429 266a 3D       		.byte	0x3d
 10430 266b 00       		.byte	0
 10431 266c 3C       		.uleb128 0x3c
 10432 266d 3C080000 		.4byte	.LVL350
 10433 2671 63140000 		.4byte	0x1463
 10434 2675 7F260000 		.4byte	0x267f
 10435 2679 38       		.uleb128 0x38
 10436 267a 01       		.uleb128 0x1
 10437 267b 51       		.byte	0x51
 10438 267c 01       		.uleb128 0x1
 10439 267d 30       		.byte	0x30
ARM GAS  C:\Users\jo\AppData\Local\Temp\ccMF9q4g.s 			page 188


 10440 267e 00       		.byte	0
 10441 267f 37       		.uleb128 0x37
 10442 2680 56080000 		.4byte	.LVL351
 10443 2684 63140000 		.4byte	0x1463
 10444 2688 38       		.uleb128 0x38
 10445 2689 01       		.uleb128 0x1
 10446 268a 51       		.byte	0x51
 10447 268b 01       		.uleb128 0x1
 10448 268c 3A       		.byte	0x3a
 10449 268d 00       		.byte	0
 10450 268e 00       		.byte	0
 10451 268f 37       		.uleb128 0x37
 10452 2690 90050000 		.4byte	.LVL292
 10453 2694 0B1F0000 		.4byte	0x1f0b
 10454 2698 38       		.uleb128 0x38
 10455 2699 01       		.uleb128 0x1
 10456 269a 51       		.byte	0x51
 10457 269b 05       		.uleb128 0x5
 10458 269c 03       		.byte	0x3
 10459 269d 0C020000 		.4byte	.LC41
 10460 26a1 00       		.byte	0
 10461 26a2 00       		.byte	0
 10462 26a3 1B       		.uleb128 0x1b
 10463 26a4 C3000000 		.4byte	0xc3
 10464 26a8 B3260000 		.4byte	0x26b3
 10465 26ac 1C       		.uleb128 0x1c
 10466 26ad AD000000 		.4byte	0xad
 10467 26b1 0A       		.byte	0xa
 10468 26b2 00       		.byte	0
 10469 26b3 1B       		.uleb128 0x1b
 10470 26b4 BC000000 		.4byte	0xbc
 10471 26b8 C3260000 		.4byte	0x26c3
 10472 26bc 1C       		.uleb128 0x1c
 10473 26bd AD000000 		.4byte	0xad
 10474 26c1 02       		.byte	0x2
 10475 26c2 00       		.byte	0
 10476 26c3 32       		.uleb128 0x32
 10477 26c4 2B0F0000 		.4byte	0xf2b
 10478 26c8 00000000 		.4byte	.LFB274
 10479 26cc 04000000 		.4byte	.LFE274-.LFB274
 10480 26d0 01       		.uleb128 0x1
 10481 26d1 9C       		.byte	0x9c
 10482 26d2 F1260000 		.4byte	0x26f1
 10483 26d6 33       		.uleb128 0x33
 10484 26d7 3C0F0000 		.4byte	0xf3c
 10485 26db 79130000 		.4byte	.LLST118
 10486 26df 4B       		.uleb128 0x4b
 10487 26e0 04000000 		.4byte	.LVL362
 10488 26e4 F5200000 		.4byte	0x20f5
 10489 26e8 38       		.uleb128 0x38
 10490 26e9 01       		.uleb128 0x1
 10491 26ea 50       		.byte	0x50
 10492 26eb 03       		.uleb128 0x3
 10493 26ec F3       		.byte	0xf3
 10494 26ed 01       		.uleb128 0x1
 10495 26ee 50       		.byte	0x50
 10496 26ef 00       		.byte	0
ARM GAS  C:\Users\jo\AppData\Local\Temp\ccMF9q4g.s 			page 189


 10497 26f0 00       		.byte	0
 10498 26f1 32       		.uleb128 0x32
 10499 26f2 FF0E0000 		.4byte	0xeff
 10500 26f6 00000000 		.4byte	.LFB276
 10501 26fa 48000000 		.4byte	.LFE276-.LFB276
 10502 26fe 01       		.uleb128 0x1
 10503 26ff 9C       		.byte	0x9c
 10504 2700 6D270000 		.4byte	0x276d
 10505 2704 33       		.uleb128 0x33
 10506 2705 100F0000 		.4byte	0xf10
 10507 2709 9A130000 		.4byte	.LLST119
 10508 270d 33       		.uleb128 0x33
 10509 270e 1A0F0000 		.4byte	0xf1a
 10510 2712 F5130000 		.4byte	.LLST120
 10511 2716 3A       		.uleb128 0x3a
 10512 2717 32000000 		.4byte	.LBB299
 10513 271b 0A000000 		.4byte	.LBE299-.LBB299
 10514 271f 52270000 		.4byte	0x2752
 10515 2723 33       		.uleb128 0x33
 10516 2724 1A0F0000 		.4byte	0xf1a
 10517 2728 3A140000 		.4byte	.LLST121
 10518 272c 33       		.uleb128 0x33
 10519 272d 100F0000 		.4byte	0xf10
 10520 2731 5B140000 		.4byte	.LLST122
 10521 2735 37       		.uleb128 0x37
 10522 2736 3C000000 		.4byte	.LVL372
 10523 273a 0B1F0000 		.4byte	0x1f0b
 10524 273e 38       		.uleb128 0x38
 10525 273f 01       		.uleb128 0x1
 10526 2740 52       		.byte	0x52
 10527 2741 05       		.uleb128 0x5
 10528 2742 03       		.byte	0x3
 10529 2743 44020000 		.4byte	.LC42
 10530 2747 38       		.uleb128 0x38
 10531 2748 01       		.uleb128 0x1
 10532 2749 51       		.byte	0x51
 10533 274a 05       		.uleb128 0x5
 10534 274b 03       		.byte	0x3
 10535 274c 48000000 		.4byte	.LC27
 10536 2750 00       		.byte	0
 10537 2751 00       		.byte	0
 10538 2752 3E       		.uleb128 0x3e
 10539 2753 26000000 		.4byte	.LVL367
 10540 2757 A20C0000 		.4byte	0xca2
 10541 275b 4B       		.uleb128 0x4b
 10542 275c 32000000 		.4byte	.LVL369
 10543 2760 F5200000 		.4byte	0x20f5
 10544 2764 38       		.uleb128 0x38
 10545 2765 01       		.uleb128 0x1
 10546 2766 50       		.byte	0x50
 10547 2767 03       		.uleb128 0x3
 10548 2768 F3       		.byte	0xf3
 10549 2769 01       		.uleb128 0x1
 10550 276a 50       		.byte	0x50
 10551 276b 00       		.byte	0
 10552 276c 00       		.byte	0
 10553 276d 2A       		.uleb128 0x2a
ARM GAS  C:\Users\jo\AppData\Local\Temp\ccMF9q4g.s 			page 190


 10554 276e 1A0A0000 		.4byte	.LASF238
 10555 2772 02       		.byte	0x2
 10556 2773 F203     		.2byte	0x3f2
 10557 2775 02010000 		.4byte	0x102
 10558 2779 01       		.byte	0x1
 10559 277a 34280000 		.4byte	0x2834
 10560 277e 22       		.uleb128 0x22
 10561 277f 7000     		.ascii	"p\000"
 10562 2781 02       		.byte	0x2
 10563 2782 F203     		.2byte	0x3f2
 10564 2784 3A0C0000 		.4byte	0xc3a
 10565 2788 57       		.uleb128 0x57
 10566 2789 81010000 		.4byte	.LASF235
 10567 278d 01       		.byte	0x1
 10568 278e 02       		.byte	0x2
 10569 278f F403     		.2byte	0x3f4
 10570 2791 BA270000 		.4byte	0x27ba
 10571 2795 0C       		.uleb128 0xc
 10572 2796 9D080000 		.4byte	.LASF239
 10573 279a 00       		.sleb128 0
 10574 279b 0C       		.uleb128 0xc
 10575 279c 2C020000 		.4byte	.LASF240
 10576 27a0 01       		.sleb128 1
 10577 27a1 0C       		.uleb128 0xc
 10578 27a2 82040000 		.4byte	.LASF241
 10579 27a6 02       		.sleb128 2
 10580 27a7 0C       		.uleb128 0xc
 10581 27a8 060B0000 		.4byte	.LASF242
 10582 27ac 03       		.sleb128 3
 10583 27ad 0C       		.uleb128 0xc
 10584 27ae 69020000 		.4byte	.LASF243
 10585 27b2 04       		.sleb128 4
 10586 27b3 0C       		.uleb128 0xc
 10587 27b4 040E0000 		.4byte	.LASF234
 10588 27b8 05       		.sleb128 5
 10589 27b9 00       		.byte	0
 10590 27ba 28       		.uleb128 0x28
 10591 27bb 2F0B0000 		.4byte	.LASF236
 10592 27bf 02       		.byte	0x2
 10593 27c0 F503     		.2byte	0x3f5
 10594 27c2 34280000 		.4byte	0x2834
 10595 27c6 17       		.uleb128 0x17
 10596 27c7 4B030000 		.4byte	.LASF244
 10597 27cb 08       		.byte	0x8
 10598 27cc 02       		.byte	0x2
 10599 27cd F703     		.2byte	0x3f7
 10600 27cf EC270000 		.4byte	0x27ec
 10601 27d3 15       		.uleb128 0x15
 10602 27d4 7300     		.ascii	"s\000"
 10603 27d6 02       		.byte	0x2
 10604 27d7 F903     		.2byte	0x3f9
 10605 27d9 88270000 		.4byte	0x2788
 10606 27dd 00       		.byte	0
 10607 27de 16       		.uleb128 0x16
 10608 27df 3F010000 		.4byte	.LASF245
 10609 27e3 02       		.byte	0x2
 10610 27e4 FA03     		.2byte	0x3fa
ARM GAS  C:\Users\jo\AppData\Local\Temp\ccMF9q4g.s 			page 191


 10611 27e6 25000000 		.4byte	0x25
 10612 27ea 04       		.byte	0x4
 10613 27eb 00       		.byte	0
 10614 27ec 28       		.uleb128 0x28
 10615 27ed 1C070000 		.4byte	.LASF246
 10616 27f1 02       		.byte	0x2
 10617 27f2 2304     		.2byte	0x423
 10618 27f4 25000000 		.4byte	0x25
 10619 27f8 25       		.uleb128 0x25
 10620 27f9 73736900 		.ascii	"ssi\000"
 10621 27fd 02       		.byte	0x2
 10622 27fe 2404     		.2byte	0x424
 10623 2800 25000000 		.4byte	0x25
 10624 2804 28       		.uleb128 0x28
 10625 2805 26090000 		.4byte	.LASF247
 10626 2809 02       		.byte	0x2
 10627 280a 2504     		.2byte	0x425
 10628 280c 44280000 		.4byte	0x2844
 10629 2810 25       		.uleb128 0x25
 10630 2811 7400     		.ascii	"t\000"
 10631 2813 02       		.byte	0x2
 10632 2814 2A04     		.2byte	0x42a
 10633 2816 5B0A0000 		.4byte	0xa5b
 10634 281a 28       		.uleb128 0x28
 10635 281b C7010000 		.4byte	.LASF248
 10636 281f 02       		.byte	0x2
 10637 2820 2B04     		.2byte	0x42b
 10638 2822 CD0A0000 		.4byte	0xacd
 10639 2826 26       		.uleb128 0x26
 10640 2827 BC030000 		.4byte	.LASF166
 10641 282b 5A280000 		.4byte	0x285a
 10642 282f 1A0A0000 		.4byte	.LASF238
 10643 2833 00       		.byte	0
 10644 2834 1B       		.uleb128 0x1b
 10645 2835 C3000000 		.4byte	0xc3
 10646 2839 44280000 		.4byte	0x2844
 10647 283d 1C       		.uleb128 0x1c
 10648 283e AD000000 		.4byte	0xad
 10649 2842 05       		.byte	0x5
 10650 2843 00       		.byte	0
 10651 2844 06       		.uleb128 0x6
 10652 2845 04       		.byte	0x4
 10653 2846 C6270000 		.4byte	0x27c6
 10654 284a 1B       		.uleb128 0x1b
 10655 284b BC000000 		.4byte	0xbc
 10656 284f 5A280000 		.4byte	0x285a
 10657 2853 1C       		.uleb128 0x1c
 10658 2854 AD000000 		.4byte	0xad
 10659 2858 11       		.byte	0x11
 10660 2859 00       		.byte	0
 10661 285a 07       		.uleb128 0x7
 10662 285b 4A280000 		.4byte	0x284a
 10663 285f 32       		.uleb128 0x32
 10664 2860 770F0000 		.4byte	0xf77
 10665 2864 00000000 		.4byte	.LFB283
 10666 2868 9C050000 		.4byte	.LFE283-.LFB283
 10667 286c 01       		.uleb128 0x1
ARM GAS  C:\Users\jo\AppData\Local\Temp\ccMF9q4g.s 			page 192


 10668 286d 9C       		.byte	0x9c
 10669 286e A52F0000 		.4byte	0x2fa5
 10670 2872 33       		.uleb128 0x33
 10671 2873 880F0000 		.4byte	0xf88
 10672 2877 87140000 		.4byte	.LLST123
 10673 287b 39       		.uleb128 0x39
 10674 287c 920F0000 		.4byte	0xf92
 10675 2880 A5140000 		.4byte	.LLST124
 10676 2884 3B       		.uleb128 0x3b
 10677 2885 9D0F0000 		.4byte	0xf9d
 10678 2889 46       		.uleb128 0x46
 10679 288a 6D270000 		.4byte	0x276d
 10680 288e 1C000000 		.4byte	.LBB363
 10681 2892 50020000 		.4byte	.Ldebug_ranges0+0x250
 10682 2896 02       		.byte	0x2
 10683 2897 B704     		.2byte	0x4b7
 10684 2899 172F0000 		.4byte	0x2f17
 10685 289d 33       		.uleb128 0x33
 10686 289e 7E270000 		.4byte	0x277e
 10687 28a2 05150000 		.4byte	.LLST125
 10688 28a6 52       		.uleb128 0x52
 10689 28a7 50020000 		.4byte	.Ldebug_ranges0+0x250
 10690 28ab 35       		.uleb128 0x35
 10691 28ac BA270000 		.4byte	0x27ba
 10692 28b0 02       		.uleb128 0x2
 10693 28b1 91       		.byte	0x91
 10694 28b2 40       		.sleb128 -64
 10695 28b3 39       		.uleb128 0x39
 10696 28b4 EC270000 		.4byte	0x27ec
 10697 28b8 23150000 		.4byte	.LLST126
 10698 28bc 39       		.uleb128 0x39
 10699 28bd F8270000 		.4byte	0x27f8
 10700 28c1 E5150000 		.4byte	.LLST127
 10701 28c5 39       		.uleb128 0x39
 10702 28c6 04280000 		.4byte	0x2804
 10703 28ca B7160000 		.4byte	.LLST128
 10704 28ce 35       		.uleb128 0x35
 10705 28cf 10280000 		.4byte	0x2810
 10706 28d3 03       		.uleb128 0x3
 10707 28d4 91       		.byte	0x91
 10708 28d5 B47F     		.sleb128 -76
 10709 28d7 39       		.uleb128 0x39
 10710 28d8 1A280000 		.4byte	0x281a
 10711 28dc 7A170000 		.4byte	.LLST129
 10712 28e0 35       		.uleb128 0x35
 10713 28e1 26280000 		.4byte	0x2826
 10714 28e5 05       		.uleb128 0x5
 10715 28e6 03       		.byte	0x3
 10716 28e7 00000000 		.4byte	__FUNCTION__.9499
 10717 28eb 47       		.uleb128 0x47
 10718 28ec 2B0F0000 		.4byte	0xf2b
 10719 28f0 34000000 		.4byte	.LBB365
 10720 28f4 06000000 		.4byte	.LBE365-.LBB365
 10721 28f8 02       		.byte	0x2
 10722 28f9 1E04     		.2byte	0x41e
 10723 28fb 19290000 		.4byte	0x2919
 10724 28ff 33       		.uleb128 0x33
ARM GAS  C:\Users\jo\AppData\Local\Temp\ccMF9q4g.s 			page 193


 10725 2900 3C0F0000 		.4byte	0xf3c
 10726 2904 A3170000 		.4byte	.LLST130
 10727 2908 37       		.uleb128 0x37
 10728 2909 3A000000 		.4byte	.LVL381
 10729 290d F5200000 		.4byte	0x20f5
 10730 2911 38       		.uleb128 0x38
 10731 2912 01       		.uleb128 0x1
 10732 2913 50       		.byte	0x50
 10733 2914 02       		.uleb128 0x2
 10734 2915 77       		.byte	0x77
 10735 2916 00       		.sleb128 0
 10736 2917 00       		.byte	0
 10737 2918 00       		.byte	0
 10738 2919 47       		.uleb128 0x47
 10739 291a 630D0000 		.4byte	0xd63
 10740 291e 82010000 		.4byte	.LBB367
 10741 2922 0E000000 		.4byte	.LBE367-.LBB367
 10742 2926 02       		.byte	0x2
 10743 2927 9404     		.2byte	0x494
 10744 2929 50290000 		.4byte	0x2950
 10745 292d 33       		.uleb128 0x33
 10746 292e 700D0000 		.4byte	0xd70
 10747 2932 C1170000 		.4byte	.LLST131
 10748 2936 3E       		.uleb128 0x3e
 10749 2937 8A010000 		.4byte	.LVL399
 10750 293b CE360000 		.4byte	0x36ce
 10751 293f 37       		.uleb128 0x37
 10752 2940 90010000 		.4byte	.LVL400
 10753 2944 CE360000 		.4byte	0x36ce
 10754 2948 38       		.uleb128 0x38
 10755 2949 01       		.uleb128 0x1
 10756 294a 50       		.byte	0x50
 10757 294b 02       		.uleb128 0x2
 10758 294c 79       		.byte	0x79
 10759 294d 00       		.sleb128 0
 10760 294e 00       		.byte	0
 10761 294f 00       		.byte	0
 10762 2950 46       		.uleb128 0x46
 10763 2951 630D0000 		.4byte	0xd63
 10764 2955 C4010000 		.4byte	.LBB369
 10765 2959 78020000 		.4byte	.Ldebug_ranges0+0x278
 10766 295d 02       		.byte	0x2
 10767 295e 9B04     		.2byte	0x49b
 10768 2960 A8290000 		.4byte	0x29a8
 10769 2964 33       		.uleb128 0x33
 10770 2965 700D0000 		.4byte	0xd70
 10771 2969 D4170000 		.4byte	.LLST132
 10772 296d 3E       		.uleb128 0x3e
 10773 296e D4010000 		.4byte	.LVL408
 10774 2972 CE360000 		.4byte	0x36ce
 10775 2976 3C       		.uleb128 0x3c
 10776 2977 DA010000 		.4byte	.LVL409
 10777 297b CE360000 		.4byte	0x36ce
 10778 297f 8C290000 		.4byte	0x298c
 10779 2983 38       		.uleb128 0x38
 10780 2984 01       		.uleb128 0x1
 10781 2985 50       		.byte	0x50
ARM GAS  C:\Users\jo\AppData\Local\Temp\ccMF9q4g.s 			page 194


 10782 2986 04       		.uleb128 0x4
 10783 2987 91       		.byte	0x91
 10784 2988 A47F     		.sleb128 -92
 10785 298a 06       		.byte	0x6
 10786 298b 00       		.byte	0
 10787 298c 3E       		.uleb128 0x3e
 10788 298d D6040000 		.4byte	.LVL488
 10789 2991 CE360000 		.4byte	0x36ce
 10790 2995 37       		.uleb128 0x37
 10791 2996 DC040000 		.4byte	.LVL489
 10792 299a CE360000 		.4byte	0x36ce
 10793 299e 38       		.uleb128 0x38
 10794 299f 01       		.uleb128 0x1
 10795 29a0 50       		.byte	0x50
 10796 29a1 04       		.uleb128 0x4
 10797 29a2 91       		.byte	0x91
 10798 29a3 A47F     		.sleb128 -92
 10799 29a5 06       		.byte	0x6
 10800 29a6 00       		.byte	0
 10801 29a7 00       		.byte	0
 10802 29a8 47       		.uleb128 0x47
 10803 29a9 470F0000 		.4byte	0xf47
 10804 29ad 0A020000 		.4byte	.LBB372
 10805 29b1 18000000 		.4byte	.LBE372-.LBB372
 10806 29b5 02       		.byte	0x2
 10807 29b6 4504     		.2byte	0x445
 10808 29b8 DA290000 		.4byte	0x29da
 10809 29bc 36       		.uleb128 0x36
 10810 29bd 620F0000 		.4byte	0xf62
 10811 29c1 36       		.uleb128 0x36
 10812 29c2 580F0000 		.4byte	0xf58
 10813 29c6 3D       		.uleb128 0x3d
 10814 29c7 0A020000 		.4byte	.LBB373
 10815 29cb 18000000 		.4byte	.LBE373-.LBB373
 10816 29cf 39       		.uleb128 0x39
 10817 29d0 6C0F0000 		.4byte	0xf6c
 10818 29d4 0E180000 		.4byte	.LLST133
 10819 29d8 00       		.byte	0
 10820 29d9 00       		.byte	0
 10821 29da 47       		.uleb128 0x47
 10822 29db 8F0E0000 		.4byte	0xe8f
 10823 29df 2E020000 		.4byte	.LBB374
 10824 29e3 08000000 		.4byte	.LBE374-.LBB374
 10825 29e7 02       		.byte	0x2
 10826 29e8 3F04     		.2byte	0x43f
 10827 29ea F8290000 		.4byte	0x29f8
 10828 29ee 33       		.uleb128 0x33
 10829 29ef A00E0000 		.4byte	0xea0
 10830 29f3 46180000 		.4byte	.LLST134
 10831 29f7 00       		.byte	0
 10832 29f8 47       		.uleb128 0x47
 10833 29f9 8F0E0000 		.4byte	0xe8f
 10834 29fd 92020000 		.4byte	.LBB376
 10835 2a01 08000000 		.4byte	.LBE376-.LBB376
 10836 2a05 02       		.byte	0x2
 10837 2a06 5904     		.2byte	0x459
 10838 2a08 162A0000 		.4byte	0x2a16
ARM GAS  C:\Users\jo\AppData\Local\Temp\ccMF9q4g.s 			page 195


 10839 2a0c 33       		.uleb128 0x33
 10840 2a0d A00E0000 		.4byte	0xea0
 10841 2a11 59180000 		.4byte	.LLST135
 10842 2a15 00       		.byte	0
 10843 2a16 46       		.uleb128 0x46
 10844 2a17 470F0000 		.4byte	0xf47
 10845 2a1b A6020000 		.4byte	.LBB378
 10846 2a1f 90020000 		.4byte	.Ldebug_ranges0+0x290
 10847 2a23 02       		.byte	0x2
 10848 2a24 5C04     		.2byte	0x45c
 10849 2a26 4C2A0000 		.4byte	0x2a4c
 10850 2a2a 33       		.uleb128 0x33
 10851 2a2b 620F0000 		.4byte	0xf62
 10852 2a2f 77180000 		.4byte	.LLST136
 10853 2a33 33       		.uleb128 0x33
 10854 2a34 580F0000 		.4byte	0xf58
 10855 2a38 99180000 		.4byte	.LLST137
 10856 2a3c 52       		.uleb128 0x52
 10857 2a3d 90020000 		.4byte	.Ldebug_ranges0+0x290
 10858 2a41 39       		.uleb128 0x39
 10859 2a42 6C0F0000 		.4byte	0xf6c
 10860 2a46 B7180000 		.4byte	.LLST138
 10861 2a4a 00       		.byte	0
 10862 2a4b 00       		.byte	0
 10863 2a4c 47       		.uleb128 0x47
 10864 2a4d EC0C0000 		.4byte	0xcec
 10865 2a51 D8020000 		.4byte	.LBB382
 10866 2a55 12000000 		.4byte	.LBE382-.LBB382
 10867 2a59 02       		.byte	0x2
 10868 2a5a 5C04     		.2byte	0x45c
 10869 2a5c 6F2A0000 		.4byte	0x2a6f
 10870 2a60 33       		.uleb128 0x33
 10871 2a61 030D0000 		.4byte	0xd03
 10872 2a65 FC180000 		.4byte	.LLST139
 10873 2a69 36       		.uleb128 0x36
 10874 2a6a F90C0000 		.4byte	0xcf9
 10875 2a6e 00       		.byte	0
 10876 2a6f 47       		.uleb128 0x47
 10877 2a70 470F0000 		.4byte	0xf47
 10878 2a74 EA020000 		.4byte	.LBB384
 10879 2a78 6E000000 		.4byte	.LBE384-.LBB384
 10880 2a7c 02       		.byte	0x2
 10881 2a7d 8604     		.2byte	0x486
 10882 2a7f A92A0000 		.4byte	0x2aa9
 10883 2a83 33       		.uleb128 0x33
 10884 2a84 620F0000 		.4byte	0xf62
 10885 2a88 10190000 		.4byte	.LLST140
 10886 2a8c 33       		.uleb128 0x33
 10887 2a8d 580F0000 		.4byte	0xf58
 10888 2a91 32190000 		.4byte	.LLST141
 10889 2a95 3D       		.uleb128 0x3d
 10890 2a96 EA020000 		.4byte	.LBB385
 10891 2a9a 6E000000 		.4byte	.LBE385-.LBB385
 10892 2a9e 39       		.uleb128 0x39
 10893 2a9f 6C0F0000 		.4byte	0xf6c
 10894 2aa3 50190000 		.4byte	.LLST142
 10895 2aa7 00       		.byte	0
ARM GAS  C:\Users\jo\AppData\Local\Temp\ccMF9q4g.s 			page 196


 10896 2aa8 00       		.byte	0
 10897 2aa9 47       		.uleb128 0x47
 10898 2aaa EC0C0000 		.4byte	0xcec
 10899 2aae 58030000 		.4byte	.LBB386
 10900 2ab2 08000000 		.4byte	.LBE386-.LBB386
 10901 2ab6 02       		.byte	0x2
 10902 2ab7 8604     		.2byte	0x486
 10903 2ab9 CC2A0000 		.4byte	0x2acc
 10904 2abd 33       		.uleb128 0x33
 10905 2abe 030D0000 		.4byte	0xd03
 10906 2ac2 A2190000 		.4byte	.LLST143
 10907 2ac6 36       		.uleb128 0x36
 10908 2ac7 F90C0000 		.4byte	0xcf9
 10909 2acb 00       		.byte	0
 10910 2acc 47       		.uleb128 0x47
 10911 2acd 8F0E0000 		.4byte	0xe8f
 10912 2ad1 A4030000 		.4byte	.LBB388
 10913 2ad5 08000000 		.4byte	.LBE388-.LBB388
 10914 2ad9 02       		.byte	0x2
 10915 2ada 7104     		.2byte	0x471
 10916 2adc EA2A0000 		.4byte	0x2aea
 10917 2ae0 33       		.uleb128 0x33
 10918 2ae1 A00E0000 		.4byte	0xea0
 10919 2ae5 B6190000 		.4byte	.LLST144
 10920 2ae9 00       		.byte	0
 10921 2aea 47       		.uleb128 0x47
 10922 2aeb 470F0000 		.4byte	0xf47
 10923 2aef B8030000 		.4byte	.LBB390
 10924 2af3 2A000000 		.4byte	.LBE390-.LBB390
 10925 2af7 02       		.byte	0x2
 10926 2af8 7204     		.2byte	0x472
 10927 2afa 242B0000 		.4byte	0x2b24
 10928 2afe 33       		.uleb128 0x33
 10929 2aff 620F0000 		.4byte	0xf62
 10930 2b03 D4190000 		.4byte	.LLST145
 10931 2b07 33       		.uleb128 0x33
 10932 2b08 580F0000 		.4byte	0xf58
 10933 2b0c F6190000 		.4byte	.LLST146
 10934 2b10 3D       		.uleb128 0x3d
 10935 2b11 B8030000 		.4byte	.LBB391
 10936 2b15 2A000000 		.4byte	.LBE391-.LBB391
 10937 2b19 39       		.uleb128 0x39
 10938 2b1a 6C0F0000 		.4byte	0xf6c
 10939 2b1e 141A0000 		.4byte	.LLST147
 10940 2b22 00       		.byte	0
 10941 2b23 00       		.byte	0
 10942 2b24 47       		.uleb128 0x47
 10943 2b25 EC0C0000 		.4byte	0xcec
 10944 2b29 E2030000 		.4byte	.LBB392
 10945 2b2d 08000000 		.4byte	.LBE392-.LBB392
 10946 2b31 02       		.byte	0x2
 10947 2b32 7204     		.2byte	0x472
 10948 2b34 472B0000 		.4byte	0x2b47
 10949 2b38 33       		.uleb128 0x33
 10950 2b39 030D0000 		.4byte	0xd03
 10951 2b3d 661A0000 		.4byte	.LLST148
 10952 2b41 36       		.uleb128 0x36
ARM GAS  C:\Users\jo\AppData\Local\Temp\ccMF9q4g.s 			page 197


 10953 2b42 F90C0000 		.4byte	0xcf9
 10954 2b46 00       		.byte	0
 10955 2b47 47       		.uleb128 0x47
 10956 2b48 630D0000 		.4byte	0xd63
 10957 2b4c 3A040000 		.4byte	.LBB394
 10958 2b50 0C000000 		.4byte	.LBE394-.LBB394
 10959 2b54 02       		.byte	0x2
 10960 2b55 3204     		.2byte	0x432
 10961 2b57 7E2B0000 		.4byte	0x2b7e
 10962 2b5b 33       		.uleb128 0x33
 10963 2b5c 700D0000 		.4byte	0xd70
 10964 2b60 7A1A0000 		.4byte	.LLST149
 10965 2b64 3E       		.uleb128 0x3e
 10966 2b65 40040000 		.4byte	.LVL466
 10967 2b69 CE360000 		.4byte	0x36ce
 10968 2b6d 37       		.uleb128 0x37
 10969 2b6e 46040000 		.4byte	.LVL467
 10970 2b72 CE360000 		.4byte	0x36ce
 10971 2b76 38       		.uleb128 0x38
 10972 2b77 01       		.uleb128 0x1
 10973 2b78 50       		.byte	0x50
 10974 2b79 02       		.uleb128 0x2
 10975 2b7a 74       		.byte	0x74
 10976 2b7b 00       		.sleb128 0
 10977 2b7c 00       		.byte	0
 10978 2b7d 00       		.byte	0
 10979 2b7e 47       		.uleb128 0x47
 10980 2b7f 630D0000 		.4byte	0xd63
 10981 2b83 46040000 		.4byte	.LBB396
 10982 2b87 0E000000 		.4byte	.LBE396-.LBB396
 10983 2b8b 02       		.byte	0x2
 10984 2b8c 3304     		.2byte	0x433
 10985 2b8e B72B0000 		.4byte	0x2bb7
 10986 2b92 33       		.uleb128 0x33
 10987 2b93 700D0000 		.4byte	0xd70
 10988 2b97 8D1A0000 		.4byte	.LLST150
 10989 2b9b 3E       		.uleb128 0x3e
 10990 2b9c 4E040000 		.4byte	.LVL469
 10991 2ba0 CE360000 		.4byte	0x36ce
 10992 2ba4 37       		.uleb128 0x37
 10993 2ba5 54040000 		.4byte	.LVL470
 10994 2ba9 CE360000 		.4byte	0x36ce
 10995 2bad 38       		.uleb128 0x38
 10996 2bae 01       		.uleb128 0x1
 10997 2baf 50       		.byte	0x50
 10998 2bb0 04       		.uleb128 0x4
 10999 2bb1 91       		.byte	0x91
 11000 2bb2 A47F     		.sleb128 -92
 11001 2bb4 06       		.byte	0x6
 11002 2bb5 00       		.byte	0
 11003 2bb6 00       		.byte	0
 11004 2bb7 47       		.uleb128 0x47
 11005 2bb8 470F0000 		.4byte	0xf47
 11006 2bbc 90040000 		.4byte	.LBB398
 11007 2bc0 0E000000 		.4byte	.LBE398-.LBB398
 11008 2bc4 02       		.byte	0x2
 11009 2bc5 7204     		.2byte	0x472
ARM GAS  C:\Users\jo\AppData\Local\Temp\ccMF9q4g.s 			page 198


 11010 2bc7 E92B0000 		.4byte	0x2be9
 11011 2bcb 36       		.uleb128 0x36
 11012 2bcc 620F0000 		.4byte	0xf62
 11013 2bd0 36       		.uleb128 0x36
 11014 2bd1 580F0000 		.4byte	0xf58
 11015 2bd5 3D       		.uleb128 0x3d
 11016 2bd6 90040000 		.4byte	.LBB399
 11017 2bda 0E000000 		.4byte	.LBE399-.LBB399
 11018 2bde 39       		.uleb128 0x39
 11019 2bdf 6C0F0000 		.4byte	0xf6c
 11020 2be3 A21A0000 		.4byte	.LLST151
 11021 2be7 00       		.byte	0
 11022 2be8 00       		.byte	0
 11023 2be9 47       		.uleb128 0x47
 11024 2bea EC0C0000 		.4byte	0xcec
 11025 2bee 9E040000 		.4byte	.LBB400
 11026 2bf2 0A000000 		.4byte	.LBE400-.LBB400
 11027 2bf6 02       		.byte	0x2
 11028 2bf7 7204     		.2byte	0x472
 11029 2bf9 0C2C0000 		.4byte	0x2c0c
 11030 2bfd 33       		.uleb128 0x33
 11031 2bfe 030D0000 		.4byte	0xd03
 11032 2c02 C21A0000 		.4byte	.LLST152
 11033 2c06 36       		.uleb128 0x36
 11034 2c07 F90C0000 		.4byte	0xcf9
 11035 2c0b 00       		.byte	0
 11036 2c0c 47       		.uleb128 0x47
 11037 2c0d EC0C0000 		.4byte	0xcec
 11038 2c11 A8040000 		.4byte	.LBB402
 11039 2c15 16000000 		.4byte	.LBE402-.LBB402
 11040 2c19 02       		.byte	0x2
 11041 2c1a 5C04     		.2byte	0x45c
 11042 2c1c 2F2C0000 		.4byte	0x2c2f
 11043 2c20 33       		.uleb128 0x33
 11044 2c21 030D0000 		.4byte	0xd03
 11045 2c25 D51A0000 		.4byte	.LLST153
 11046 2c29 36       		.uleb128 0x36
 11047 2c2a F90C0000 		.4byte	0xcf9
 11048 2c2e 00       		.byte	0
 11049 2c2f 47       		.uleb128 0x47
 11050 2c30 470F0000 		.4byte	0xf47
 11051 2c34 BE040000 		.4byte	.LBB404
 11052 2c38 10000000 		.4byte	.LBE404-.LBB404
 11053 2c3c 02       		.byte	0x2
 11054 2c3d 5C04     		.2byte	0x45c
 11055 2c3f 612C0000 		.4byte	0x2c61
 11056 2c43 36       		.uleb128 0x36
 11057 2c44 620F0000 		.4byte	0xf62
 11058 2c48 36       		.uleb128 0x36
 11059 2c49 580F0000 		.4byte	0xf58
 11060 2c4d 3D       		.uleb128 0x3d
 11061 2c4e BE040000 		.4byte	.LBB405
 11062 2c52 10000000 		.4byte	.LBE405-.LBB405
 11063 2c56 39       		.uleb128 0x39
 11064 2c57 6C0F0000 		.4byte	0xf6c
 11065 2c5b E81A0000 		.4byte	.LLST154
 11066 2c5f 00       		.byte	0
ARM GAS  C:\Users\jo\AppData\Local\Temp\ccMF9q4g.s 			page 199


 11067 2c60 00       		.byte	0
 11068 2c61 47       		.uleb128 0x47
 11069 2c62 470F0000 		.4byte	0xf47
 11070 2c66 EC040000 		.4byte	.LBB407
 11071 2c6a 10000000 		.4byte	.LBE407-.LBB407
 11072 2c6e 02       		.byte	0x2
 11073 2c6f 8604     		.2byte	0x486
 11074 2c71 932C0000 		.4byte	0x2c93
 11075 2c75 36       		.uleb128 0x36
 11076 2c76 620F0000 		.4byte	0xf62
 11077 2c7a 36       		.uleb128 0x36
 11078 2c7b 580F0000 		.4byte	0xf58
 11079 2c7f 3D       		.uleb128 0x3d
 11080 2c80 EC040000 		.4byte	.LBB408
 11081 2c84 10000000 		.4byte	.LBE408-.LBB408
 11082 2c88 39       		.uleb128 0x39
 11083 2c89 6C0F0000 		.4byte	0xf6c
 11084 2c8d 201B0000 		.4byte	.LLST155
 11085 2c91 00       		.byte	0
 11086 2c92 00       		.byte	0
 11087 2c93 47       		.uleb128 0x47
 11088 2c94 EC0C0000 		.4byte	0xcec
 11089 2c98 FC040000 		.4byte	.LBB409
 11090 2c9c 0A000000 		.4byte	.LBE409-.LBB409
 11091 2ca0 02       		.byte	0x2
 11092 2ca1 8604     		.2byte	0x486
 11093 2ca3 B62C0000 		.4byte	0x2cb6
 11094 2ca7 33       		.uleb128 0x33
 11095 2ca8 030D0000 		.4byte	0xd03
 11096 2cac 401B0000 		.4byte	.LLST156
 11097 2cb0 36       		.uleb128 0x36
 11098 2cb1 F90C0000 		.4byte	0xcf9
 11099 2cb5 00       		.byte	0
 11100 2cb6 46       		.uleb128 0x46
 11101 2cb7 470F0000 		.4byte	0xf47
 11102 2cbb 10050000 		.4byte	.LBB411
 11103 2cbf A8020000 		.4byte	.Ldebug_ranges0+0x2a8
 11104 2cc3 02       		.byte	0x2
 11105 2cc4 4504     		.2byte	0x445
 11106 2cc6 EC2C0000 		.4byte	0x2cec
 11107 2cca 33       		.uleb128 0x33
 11108 2ccb 620F0000 		.4byte	0xf62
 11109 2ccf 531B0000 		.4byte	.LLST157
 11110 2cd3 33       		.uleb128 0x33
 11111 2cd4 580F0000 		.4byte	0xf58
 11112 2cd8 751B0000 		.4byte	.LLST158
 11113 2cdc 52       		.uleb128 0x52
 11114 2cdd A8020000 		.4byte	.Ldebug_ranges0+0x2a8
 11115 2ce1 39       		.uleb128 0x39
 11116 2ce2 6C0F0000 		.4byte	0xf6c
 11117 2ce6 931B0000 		.4byte	.LLST159
 11118 2cea 00       		.byte	0
 11119 2ceb 00       		.byte	0
 11120 2cec 3C       		.uleb128 0x3c
 11121 2ced 54000000 		.4byte	.LVL385
 11122 2cf1 6D360000 		.4byte	0x366d
 11123 2cf5 002D0000 		.4byte	0x2d00
ARM GAS  C:\Users\jo\AppData\Local\Temp\ccMF9q4g.s 			page 200


 11124 2cf9 38       		.uleb128 0x38
 11125 2cfa 01       		.uleb128 0x1
 11126 2cfb 50       		.byte	0x50
 11127 2cfc 02       		.uleb128 0x2
 11128 2cfd 08       		.byte	0x8
 11129 2cfe 40       		.byte	0x40
 11130 2cff 00       		.byte	0
 11131 2d00 3E       		.uleb128 0x3e
 11132 2d01 60000000 		.4byte	.LVL388
 11133 2d05 640C0000 		.4byte	0xc64
 11134 2d09 3C       		.uleb128 0x3c
 11135 2d0a 90000000 		.4byte	.LVL392
 11136 2d0e FF0E0000 		.4byte	0xeff
 11137 2d12 1E2D0000 		.4byte	0x2d1e
 11138 2d16 38       		.uleb128 0x38
 11139 2d17 01       		.uleb128 0x1
 11140 2d18 51       		.byte	0x51
 11141 2d19 03       		.uleb128 0x3
 11142 2d1a 91       		.byte	0x91
 11143 2d1b B47F     		.sleb128 -76
 11144 2d1d 00       		.byte	0
 11145 2d1e 3C       		.uleb128 0x3c
 11146 2d1f BC000000 		.4byte	.LVL394
 11147 2d23 4D360000 		.4byte	0x364d
 11148 2d27 4E2D0000 		.4byte	0x2d4e
 11149 2d2b 38       		.uleb128 0x38
 11150 2d2c 01       		.uleb128 0x1
 11151 2d2d 53       		.byte	0x53
 11152 2d2e 05       		.uleb128 0x5
 11153 2d2f 03       		.byte	0x3
 11154 2d30 9C030000 		.4byte	.LC51
 11155 2d34 38       		.uleb128 0x38
 11156 2d35 01       		.uleb128 0x1
 11157 2d36 52       		.byte	0x52
 11158 2d37 05       		.uleb128 0x5
 11159 2d38 03       		.byte	0x3
 11160 2d39 00000000 		.4byte	.LANCHOR8
 11161 2d3d 38       		.uleb128 0x38
 11162 2d3e 01       		.uleb128 0x1
 11163 2d3f 51       		.byte	0x51
 11164 2d40 03       		.uleb128 0x3
 11165 2d41 0A       		.byte	0xa
 11166 2d42 9004     		.2byte	0x490
 11167 2d44 38       		.uleb128 0x38
 11168 2d45 01       		.uleb128 0x1
 11169 2d46 50       		.byte	0x50
 11170 2d47 05       		.uleb128 0x5
 11171 2d48 03       		.byte	0x3
 11172 2d49 00000000 		.4byte	.LC18
 11173 2d4d 00       		.byte	0
 11174 2d4e 3E       		.uleb128 0x3e
 11175 2d4f 36010000 		.4byte	.LVL395
 11176 2d53 0B1F0000 		.4byte	0x1f0b
 11177 2d57 3C       		.uleb128 0x3c
 11178 2d58 6E010000 		.4byte	.LVL396
 11179 2d5c 0B1F0000 		.4byte	0x1f0b
 11180 2d60 6E2D0000 		.4byte	0x2d6e
ARM GAS  C:\Users\jo\AppData\Local\Temp\ccMF9q4g.s 			page 201


 11181 2d64 38       		.uleb128 0x38
 11182 2d65 01       		.uleb128 0x1
 11183 2d66 51       		.byte	0x51
 11184 2d67 05       		.uleb128 0x5
 11185 2d68 03       		.byte	0x3
 11186 2d69 84020000 		.4byte	.LC47
 11187 2d6d 00       		.byte	0
 11188 2d6e 3C       		.uleb128 0x3c
 11189 2d6f B4010000 		.4byte	.LVL402
 11190 2d73 5D100000 		.4byte	0x105d
 11191 2d77 852D0000 		.4byte	0x2d85
 11192 2d7b 38       		.uleb128 0x38
 11193 2d7c 01       		.uleb128 0x1
 11194 2d7d 51       		.byte	0x51
 11195 2d7e 05       		.uleb128 0x5
 11196 2d7f 03       		.byte	0x3
 11197 2d80 A0030000 		.4byte	.LC52
 11198 2d84 00       		.byte	0
 11199 2d85 3C       		.uleb128 0x3c
 11200 2d86 EC010000 		.4byte	.LVL411
 11201 2d8a CE360000 		.4byte	0x36ce
 11202 2d8e 992D0000 		.4byte	0x2d99
 11203 2d92 38       		.uleb128 0x38
 11204 2d93 01       		.uleb128 0x1
 11205 2d94 50       		.byte	0x50
 11206 2d95 02       		.uleb128 0x2
 11207 2d96 78       		.byte	0x78
 11208 2d97 00       		.sleb128 0
 11209 2d98 00       		.byte	0
 11210 2d99 3C       		.uleb128 0x3c
 11211 2d9a F6010000 		.4byte	.LVL412
 11212 2d9e 0B1F0000 		.4byte	0x1f0b
 11213 2da2 B92D0000 		.4byte	0x2db9
 11214 2da6 38       		.uleb128 0x38
 11215 2da7 01       		.uleb128 0x1
 11216 2da8 52       		.byte	0x52
 11217 2da9 05       		.uleb128 0x5
 11218 2daa 03       		.byte	0x3
 11219 2dab C4030000 		.4byte	.LC53
 11220 2daf 38       		.uleb128 0x38
 11221 2db0 01       		.uleb128 0x1
 11222 2db1 51       		.byte	0x51
 11223 2db2 05       		.uleb128 0x5
 11224 2db3 03       		.byte	0x3
 11225 2db4 48000000 		.4byte	.LC27
 11226 2db8 00       		.byte	0
 11227 2db9 3C       		.uleb128 0x3c
 11228 2dba 3E020000 		.4byte	.LVL422
 11229 2dbe 55130000 		.4byte	0x1355
 11230 2dc2 CD2D0000 		.4byte	0x2dcd
 11231 2dc6 38       		.uleb128 0x38
 11232 2dc7 01       		.uleb128 0x1
 11233 2dc8 50       		.byte	0x50
 11234 2dc9 02       		.uleb128 0x2
 11235 2dca 7A       		.byte	0x7a
 11236 2dcb 00       		.sleb128 0
 11237 2dcc 00       		.byte	0
ARM GAS  C:\Users\jo\AppData\Local\Temp\ccMF9q4g.s 			page 202


 11238 2dcd 3C       		.uleb128 0x3c
 11239 2dce A6020000 		.4byte	.LVL431
 11240 2dd2 7B0D0000 		.4byte	0xd7b
 11241 2dd6 E12D0000 		.4byte	0x2de1
 11242 2dda 38       		.uleb128 0x38
 11243 2ddb 01       		.uleb128 0x1
 11244 2ddc 50       		.byte	0x50
 11245 2ddd 02       		.uleb128 0x2
 11246 2dde 75       		.byte	0x75
 11247 2ddf 00       		.sleb128 0
 11248 2de0 00       		.byte	0
 11249 2de1 3C       		.uleb128 0x3c
 11250 2de2 74030000 		.4byte	.LVL447
 11251 2de6 63140000 		.4byte	0x1463
 11252 2dea FB2D0000 		.4byte	0x2dfb
 11253 2dee 38       		.uleb128 0x38
 11254 2def 01       		.uleb128 0x1
 11255 2df0 51       		.byte	0x51
 11256 2df1 02       		.uleb128 0x2
 11257 2df2 08       		.byte	0x8
 11258 2df3 2E       		.byte	0x2e
 11259 2df4 38       		.uleb128 0x38
 11260 2df5 01       		.uleb128 0x1
 11261 2df6 50       		.byte	0x50
 11262 2df7 02       		.uleb128 0x2
 11263 2df8 7A       		.byte	0x7a
 11264 2df9 00       		.sleb128 0
 11265 2dfa 00       		.byte	0
 11266 2dfb 3C       		.uleb128 0x3c
 11267 2dfc A4030000 		.4byte	.LVL450
 11268 2e00 2A120000 		.4byte	0x122a
 11269 2e04 0F2E0000 		.4byte	0x2e0f
 11270 2e08 38       		.uleb128 0x38
 11271 2e09 01       		.uleb128 0x1
 11272 2e0a 50       		.byte	0x50
 11273 2e0b 02       		.uleb128 0x2
 11274 2e0c 7A       		.byte	0x7a
 11275 2e0d 00       		.sleb128 0
 11276 2e0e 00       		.byte	0
 11277 2e0f 3C       		.uleb128 0x3c
 11278 2e10 B8030000 		.4byte	.LVL451
 11279 2e14 7B0D0000 		.4byte	0xd7b
 11280 2e18 232E0000 		.4byte	0x2e23
 11281 2e1c 38       		.uleb128 0x38
 11282 2e1d 01       		.uleb128 0x1
 11283 2e1e 50       		.byte	0x50
 11284 2e1f 02       		.uleb128 0x2
 11285 2e20 75       		.byte	0x75
 11286 2e21 00       		.sleb128 0
 11287 2e22 00       		.byte	0
 11288 2e23 3C       		.uleb128 0x3c
 11289 2e24 0A040000 		.4byte	.LVL460
 11290 2e28 2A120000 		.4byte	0x122a
 11291 2e2c 372E0000 		.4byte	0x2e37
 11292 2e30 38       		.uleb128 0x38
 11293 2e31 01       		.uleb128 0x1
 11294 2e32 50       		.byte	0x50
ARM GAS  C:\Users\jo\AppData\Local\Temp\ccMF9q4g.s 			page 203


 11295 2e33 02       		.uleb128 0x2
 11296 2e34 7A       		.byte	0x7a
 11297 2e35 00       		.sleb128 0
 11298 2e36 00       		.byte	0
 11299 2e37 3C       		.uleb128 0x3c
 11300 2e38 38040000 		.4byte	.LVL464
 11301 2e3c CE360000 		.4byte	0x36ce
 11302 2e40 4B2E0000 		.4byte	0x2e4b
 11303 2e44 38       		.uleb128 0x38
 11304 2e45 01       		.uleb128 0x1
 11305 2e46 50       		.byte	0x50
 11306 2e47 02       		.uleb128 0x2
 11307 2e48 76       		.byte	0x76
 11308 2e49 00       		.sleb128 0
 11309 2e4a 00       		.byte	0
 11310 2e4b 3C       		.uleb128 0x3c
 11311 2e4c 6A040000 		.4byte	.LVL473
 11312 2e50 2A120000 		.4byte	0x122a
 11313 2e54 5F2E0000 		.4byte	0x2e5f
 11314 2e58 38       		.uleb128 0x38
 11315 2e59 01       		.uleb128 0x1
 11316 2e5a 50       		.byte	0x50
 11317 2e5b 02       		.uleb128 0x2
 11318 2e5c 7A       		.byte	0x7a
 11319 2e5d 00       		.sleb128 0
 11320 2e5e 00       		.byte	0
 11321 2e5f 3C       		.uleb128 0x3c
 11322 2e60 E8040000 		.4byte	.LVL491
 11323 2e64 CE360000 		.4byte	0x36ce
 11324 2e68 732E0000 		.4byte	0x2e73
 11325 2e6c 38       		.uleb128 0x38
 11326 2e6d 01       		.uleb128 0x1
 11327 2e6e 50       		.byte	0x50
 11328 2e6f 02       		.uleb128 0x2
 11329 2e70 74       		.byte	0x74
 11330 2e71 00       		.sleb128 0
 11331 2e72 00       		.byte	0
 11332 2e73 3C       		.uleb128 0x3c
 11333 2e74 0E050000 		.4byte	.LVL497
 11334 2e78 63140000 		.4byte	0x1463
 11335 2e7c 8D2E0000 		.4byte	0x2e8d
 11336 2e80 38       		.uleb128 0x38
 11337 2e81 01       		.uleb128 0x1
 11338 2e82 51       		.byte	0x51
 11339 2e83 02       		.uleb128 0x2
 11340 2e84 08       		.byte	0x8
 11341 2e85 2E       		.byte	0x2e
 11342 2e86 38       		.uleb128 0x38
 11343 2e87 01       		.uleb128 0x1
 11344 2e88 50       		.byte	0x50
 11345 2e89 02       		.uleb128 0x2
 11346 2e8a 7A       		.byte	0x7a
 11347 2e8b 00       		.sleb128 0
 11348 2e8c 00       		.byte	0
 11349 2e8d 3C       		.uleb128 0x3c
 11350 2e8e 4C050000 		.4byte	.LVL504
 11351 2e92 63140000 		.4byte	0x1463
ARM GAS  C:\Users\jo\AppData\Local\Temp\ccMF9q4g.s 			page 204


 11352 2e96 A72E0000 		.4byte	0x2ea7
 11353 2e9a 38       		.uleb128 0x38
 11354 2e9b 01       		.uleb128 0x1
 11355 2e9c 51       		.byte	0x51
 11356 2e9d 02       		.uleb128 0x2
 11357 2e9e 08       		.byte	0x8
 11358 2e9f 2E       		.byte	0x2e
 11359 2ea0 38       		.uleb128 0x38
 11360 2ea1 01       		.uleb128 0x1
 11361 2ea2 50       		.byte	0x50
 11362 2ea3 02       		.uleb128 0x2
 11363 2ea4 7A       		.byte	0x7a
 11364 2ea5 00       		.sleb128 0
 11365 2ea6 00       		.byte	0
 11366 2ea7 3C       		.uleb128 0x3c
 11367 2ea8 5C050000 		.4byte	.LVL507
 11368 2eac 9F360000 		.4byte	0x369f
 11369 2eb0 C32E0000 		.4byte	0x2ec3
 11370 2eb4 38       		.uleb128 0x38
 11371 2eb5 01       		.uleb128 0x1
 11372 2eb6 51       		.byte	0x51
 11373 2eb7 04       		.uleb128 0x4
 11374 2eb8 7B       		.byte	0x7b
 11375 2eb9 00       		.sleb128 0
 11376 2eba 34       		.byte	0x34
 11377 2ebb 24       		.byte	0x24
 11378 2ebc 38       		.uleb128 0x38
 11379 2ebd 01       		.uleb128 0x1
 11380 2ebe 50       		.byte	0x50
 11381 2ebf 02       		.uleb128 0x2
 11382 2ec0 76       		.byte	0x76
 11383 2ec1 00       		.sleb128 0
 11384 2ec2 00       		.byte	0
 11385 2ec3 3C       		.uleb128 0x3c
 11386 2ec4 6E050000 		.4byte	.LVL511
 11387 2ec8 63140000 		.4byte	0x1463
 11388 2ecc DD2E0000 		.4byte	0x2edd
 11389 2ed0 38       		.uleb128 0x38
 11390 2ed1 01       		.uleb128 0x1
 11391 2ed2 51       		.byte	0x51
 11392 2ed3 02       		.uleb128 0x2
 11393 2ed4 08       		.byte	0x8
 11394 2ed5 2E       		.byte	0x2e
 11395 2ed6 38       		.uleb128 0x38
 11396 2ed7 01       		.uleb128 0x1
 11397 2ed8 50       		.byte	0x50
 11398 2ed9 02       		.uleb128 0x2
 11399 2eda 7A       		.byte	0x7a
 11400 2edb 00       		.sleb128 0
 11401 2edc 00       		.byte	0
 11402 2edd 3C       		.uleb128 0x3c
 11403 2ede 7C050000 		.4byte	.LVL514
 11404 2ee2 9F360000 		.4byte	0x369f
 11405 2ee6 FB2E0000 		.4byte	0x2efb
 11406 2eea 38       		.uleb128 0x38
 11407 2eeb 01       		.uleb128 0x1
 11408 2eec 51       		.byte	0x51
ARM GAS  C:\Users\jo\AppData\Local\Temp\ccMF9q4g.s 			page 205


 11409 2eed 06       		.uleb128 0x6
 11410 2eee 91       		.byte	0x91
 11411 2eef A07F     		.sleb128 -96
 11412 2ef1 06       		.byte	0x6
 11413 2ef2 33       		.byte	0x33
 11414 2ef3 24       		.byte	0x24
 11415 2ef4 38       		.uleb128 0x38
 11416 2ef5 01       		.uleb128 0x1
 11417 2ef6 50       		.byte	0x50
 11418 2ef7 02       		.uleb128 0x2
 11419 2ef8 76       		.byte	0x76
 11420 2ef9 00       		.sleb128 0
 11421 2efa 00       		.byte	0
 11422 2efb 37       		.uleb128 0x37
 11423 2efc 90050000 		.4byte	.LVL519
 11424 2f00 9F360000 		.4byte	0x369f
 11425 2f04 38       		.uleb128 0x38
 11426 2f05 01       		.uleb128 0x1
 11427 2f06 51       		.byte	0x51
 11428 2f07 06       		.uleb128 0x6
 11429 2f08 91       		.byte	0x91
 11430 2f09 A07F     		.sleb128 -96
 11431 2f0b 06       		.byte	0x6
 11432 2f0c 33       		.byte	0x33
 11433 2f0d 24       		.byte	0x24
 11434 2f0e 38       		.uleb128 0x38
 11435 2f0f 01       		.uleb128 0x1
 11436 2f10 50       		.byte	0x50
 11437 2f11 02       		.uleb128 0x2
 11438 2f12 76       		.byte	0x76
 11439 2f13 00       		.sleb128 0
 11440 2f14 00       		.byte	0
 11441 2f15 00       		.byte	0
 11442 2f16 00       		.byte	0
 11443 2f17 3A       		.uleb128 0x3a
 11444 2f18 5C020000 		.4byte	.LBB420
 11445 2f1c 18000000 		.4byte	.LBE420-.LBB420
 11446 2f20 6D2F0000 		.4byte	0x2f6d
 11447 2f24 33       		.uleb128 0x33
 11448 2f25 880F0000 		.4byte	0xf88
 11449 2f29 D81B0000 		.4byte	.LLST160
 11450 2f2d 3D       		.uleb128 0x3d
 11451 2f2e 5C020000 		.4byte	.LBB421
 11452 2f32 18000000 		.4byte	.LBE421-.LBB421
 11453 2f36 3B       		.uleb128 0x3b
 11454 2f37 920F0000 		.4byte	0xf92
 11455 2f3b 3B       		.uleb128 0x3b
 11456 2f3c 9D0F0000 		.4byte	0xf9d
 11457 2f40 3E       		.uleb128 0x3e
 11458 2f41 62020000 		.4byte	.LVL426
 11459 2f45 98370000 		.4byte	0x3798
 11460 2f49 3E       		.uleb128 0x3e
 11461 2f4a 68020000 		.4byte	.LVL427
 11462 2f4e A9370000 		.4byte	0x37a9
 11463 2f52 37       		.uleb128 0x37
 11464 2f53 72020000 		.4byte	.LVL428
 11465 2f57 0B1F0000 		.4byte	0x1f0b
ARM GAS  C:\Users\jo\AppData\Local\Temp\ccMF9q4g.s 			page 206


 11466 2f5b 38       		.uleb128 0x38
 11467 2f5c 01       		.uleb128 0x1
 11468 2f5d 51       		.byte	0x51
 11469 2f5e 05       		.uleb128 0x5
 11470 2f5f 03       		.byte	0x3
 11471 2f60 78020000 		.4byte	.LC45
 11472 2f64 38       		.uleb128 0x38
 11473 2f65 01       		.uleb128 0x1
 11474 2f66 50       		.byte	0x50
 11475 2f67 02       		.uleb128 0x2
 11476 2f68 74       		.byte	0x74
 11477 2f69 00       		.sleb128 0
 11478 2f6a 00       		.byte	0
 11479 2f6b 00       		.byte	0
 11480 2f6c 00       		.byte	0
 11481 2f6d 3C       		.uleb128 0x3c
 11482 2f6e 10000000 		.4byte	.LVL376
 11483 2f72 DD370000 		.4byte	0x37dd
 11484 2f76 802F0000 		.4byte	0x2f80
 11485 2f7a 38       		.uleb128 0x38
 11486 2f7b 01       		.uleb128 0x1
 11487 2f7c 51       		.byte	0x51
 11488 2f7d 01       		.uleb128 0x1
 11489 2f7e 30       		.byte	0x30
 11490 2f7f 00       		.byte	0
 11491 2f80 3C       		.uleb128 0x3c
 11492 2f81 22000000 		.4byte	.LVL378
 11493 2f85 100D0000 		.4byte	0xd10
 11494 2f89 942F0000 		.4byte	0x2f94
 11495 2f8d 38       		.uleb128 0x38
 11496 2f8e 01       		.uleb128 0x1
 11497 2f8f 51       		.byte	0x51
 11498 2f90 02       		.uleb128 0x2
 11499 2f91 79       		.byte	0x79
 11500 2f92 00       		.sleb128 0
 11501 2f93 00       		.byte	0
 11502 2f94 37       		.uleb128 0x37
 11503 2f95 46000000 		.4byte	.LVL383
 11504 2f99 F8370000 		.4byte	0x37f8
 11505 2f9d 38       		.uleb128 0x38
 11506 2f9e 01       		.uleb128 0x1
 11507 2f9f 50       		.byte	0x50
 11508 2fa0 02       		.uleb128 0x2
 11509 2fa1 79       		.byte	0x79
 11510 2fa2 00       		.sleb128 0
 11511 2fa3 00       		.byte	0
 11512 2fa4 00       		.byte	0
 11513 2fa5 3F       		.uleb128 0x3f
 11514 2fa6 E70D0000 		.4byte	.LASF249
 11515 2faa 02       		.byte	0x2
 11516 2fab 2C05     		.2byte	0x52c
 11517 2fad 02010000 		.4byte	0x102
 11518 2fb1 00000000 		.4byte	.LFB290
 11519 2fb5 08000000 		.4byte	.LFE290-.LFB290
 11520 2fb9 01       		.uleb128 0x1
 11521 2fba 9C       		.byte	0x9c
 11522 2fbb D72F0000 		.4byte	0x2fd7
ARM GAS  C:\Users\jo\AppData\Local\Temp\ccMF9q4g.s 			page 207


 11523 2fbf 40       		.uleb128 0x40
 11524 2fc0 6300     		.ascii	"c\000"
 11525 2fc2 02       		.byte	0x2
 11526 2fc3 2C05     		.2byte	0x52c
 11527 2fc5 940B0000 		.4byte	0xb94
 11528 2fc9 EB1B0000 		.4byte	.LLST161
 11529 2fcd 49       		.uleb128 0x49
 11530 2fce 08000000 		.4byte	.LVL523
 11531 2fd2 770F0000 		.4byte	0xf77
 11532 2fd6 00       		.byte	0
 11533 2fd7 4C       		.uleb128 0x4c
 11534 2fd8 500E0000 		.4byte	.LASF250
 11535 2fdc 02       		.byte	0x2
 11536 2fdd 7205     		.2byte	0x572
 11537 2fdf 00000000 		.4byte	.LFB295
 11538 2fe3 68000000 		.4byte	.LFE295-.LFB295
 11539 2fe7 01       		.uleb128 0x1
 11540 2fe8 9C       		.byte	0x9c
 11541 2fe9 F1300000 		.4byte	0x30f1
 11542 2fed 45       		.uleb128 0x45
 11543 2fee DC040000 		.4byte	.LASF179
 11544 2ff2 02       		.byte	0x2
 11545 2ff3 7205     		.2byte	0x572
 11546 2ff5 E6010000 		.4byte	0x1e6
 11547 2ff9 0C1C0000 		.4byte	.LLST162
 11548 2ffd 45       		.uleb128 0x45
 11549 2ffe 65070000 		.4byte	.LASF251
 11550 3002 02       		.byte	0x2
 11551 3003 7205     		.2byte	0x572
 11552 3005 25000000 		.4byte	0x25
 11553 3009 431C0000 		.4byte	.LLST163
 11554 300d 58       		.uleb128 0x58
 11555 300e 737000   		.ascii	"sp\000"
 11556 3011 02       		.byte	0x2
 11557 3012 7505     		.2byte	0x575
 11558 3014 01       		.byte	0x1
 11559 3015 2E300000 		.4byte	0x302e
 11560 3019 22       		.uleb128 0x22
 11561 301a 6E00     		.ascii	"n\000"
 11562 301c 02       		.byte	0x2
 11563 301d 7505     		.2byte	0x575
 11564 301f 25000000 		.4byte	0x25
 11565 3023 25       		.uleb128 0x25
 11566 3024 6900     		.ascii	"i\000"
 11567 3026 02       		.byte	0x2
 11568 3027 7705     		.2byte	0x577
 11569 3029 25000000 		.4byte	0x25
 11570 302d 00       		.byte	0
 11571 302e 42       		.uleb128 0x42
 11572 302f 6E00     		.ascii	"n\000"
 11573 3031 02       		.byte	0x2
 11574 3032 8305     		.2byte	0x583
 11575 3034 E6010000 		.4byte	0x1e6
 11576 3038 A01C0000 		.4byte	.LLST164
 11577 303c 46       		.uleb128 0x46
 11578 303d 0D300000 		.4byte	0x300d
 11579 3041 02000000 		.4byte	.LBB423
ARM GAS  C:\Users\jo\AppData\Local\Temp\ccMF9q4g.s 			page 208


 11580 3045 C0020000 		.4byte	.Ldebug_ranges0+0x2c0
 11581 3049 02       		.byte	0x2
 11582 304a 7D05     		.2byte	0x57d
 11583 304c 79300000 		.4byte	0x3079
 11584 3050 33       		.uleb128 0x33
 11585 3051 19300000 		.4byte	0x3019
 11586 3055 431C0000 		.4byte	.LLST163
 11587 3059 52       		.uleb128 0x52
 11588 305a C0020000 		.4byte	.Ldebug_ranges0+0x2c0
 11589 305e 39       		.uleb128 0x39
 11590 305f 23300000 		.4byte	0x3023
 11591 3063 B31C0000 		.4byte	.LLST166
 11592 3067 37       		.uleb128 0x37
 11593 3068 14000000 		.4byte	.LVL527
 11594 306c 0D380000 		.4byte	0x380d
 11595 3070 38       		.uleb128 0x38
 11596 3071 01       		.uleb128 0x1
 11597 3072 50       		.byte	0x50
 11598 3073 02       		.uleb128 0x2
 11599 3074 08       		.byte	0x8
 11600 3075 20       		.byte	0x20
 11601 3076 00       		.byte	0
 11602 3077 00       		.byte	0
 11603 3078 00       		.byte	0
 11604 3079 3C       		.uleb128 0x3c
 11605 307a 22000000 		.4byte	.LVL529
 11606 307e 26380000 		.4byte	0x3826
 11607 3082 90300000 		.4byte	0x3090
 11608 3086 38       		.uleb128 0x38
 11609 3087 01       		.uleb128 0x1
 11610 3088 50       		.byte	0x50
 11611 3089 05       		.uleb128 0x5
 11612 308a 03       		.byte	0x3
 11613 308b 48000000 		.4byte	.LC27
 11614 308f 00       		.byte	0
 11615 3090 3C       		.uleb128 0x3c
 11616 3091 30000000 		.4byte	.LVL530
 11617 3095 0D380000 		.4byte	0x380d
 11618 3099 A3300000 		.4byte	0x30a3
 11619 309d 38       		.uleb128 0x38
 11620 309e 01       		.uleb128 0x1
 11621 309f 50       		.byte	0x50
 11622 30a0 01       		.uleb128 0x1
 11623 30a1 3A       		.byte	0x3a
 11624 30a2 00       		.byte	0
 11625 30a3 3C       		.uleb128 0x3c
 11626 30a4 3E000000 		.4byte	.LVL533
 11627 30a8 D72F0000 		.4byte	0x2fd7
 11628 30ac BD300000 		.4byte	0x30bd
 11629 30b0 38       		.uleb128 0x38
 11630 30b1 01       		.uleb128 0x1
 11631 30b2 51       		.byte	0x51
 11632 30b3 02       		.uleb128 0x2
 11633 30b4 75       		.byte	0x75
 11634 30b5 00       		.sleb128 0
 11635 30b6 38       		.uleb128 0x38
 11636 30b7 01       		.uleb128 0x1
ARM GAS  C:\Users\jo\AppData\Local\Temp\ccMF9q4g.s 			page 209


 11637 30b8 50       		.byte	0x50
 11638 30b9 02       		.uleb128 0x2
 11639 30ba 74       		.byte	0x74
 11640 30bb 00       		.sleb128 0
 11641 30bc 00       		.byte	0
 11642 30bd 59       		.uleb128 0x59
 11643 30be 52000000 		.4byte	.LVL538
 11644 30c2 26380000 		.4byte	0x3826
 11645 30c6 D4300000 		.4byte	0x30d4
 11646 30ca 38       		.uleb128 0x38
 11647 30cb 01       		.uleb128 0x1
 11648 30cc 50       		.byte	0x50
 11649 30cd 05       		.uleb128 0x5
 11650 30ce 03       		.byte	0x3
 11651 30cf FC030000 		.4byte	.LC55
 11652 30d3 00       		.byte	0
 11653 30d4 37       		.uleb128 0x37
 11654 30d5 5A000000 		.4byte	.LVL539
 11655 30d9 26380000 		.4byte	0x3826
 11656 30dd 38       		.uleb128 0x38
 11657 30de 01       		.uleb128 0x1
 11658 30df 51       		.byte	0x51
 11659 30e0 05       		.uleb128 0x5
 11660 30e1 03       		.byte	0x3
 11661 30e2 F4030000 		.4byte	.LC54
 11662 30e6 38       		.uleb128 0x38
 11663 30e7 01       		.uleb128 0x1
 11664 30e8 50       		.byte	0x50
 11665 30e9 05       		.uleb128 0x5
 11666 30ea 03       		.byte	0x3
 11667 30eb 48000000 		.4byte	.LC27
 11668 30ef 00       		.byte	0
 11669 30f0 00       		.byte	0
 11670 30f1 4C       		.uleb128 0x4c
 11671 30f2 A1030000 		.4byte	.LASF252
 11672 30f6 02       		.byte	0x2
 11673 30f7 EA05     		.2byte	0x5ea
 11674 30f9 00000000 		.4byte	.LFB299
 11675 30fd 54000000 		.4byte	.LFE299-.LFB299
 11676 3101 01       		.uleb128 0x1
 11677 3102 9C       		.byte	0x9c
 11678 3103 6D310000 		.4byte	0x316d
 11679 3107 45       		.uleb128 0x45
 11680 3108 DC040000 		.4byte	.LASF179
 11681 310c 02       		.byte	0x2
 11682 310d EA05     		.2byte	0x5ea
 11683 310f E6010000 		.4byte	0x1e6
 11684 3113 EA1C0000 		.4byte	.LLST167
 11685 3117 42       		.uleb128 0x42
 11686 3118 6E00     		.ascii	"n\000"
 11687 311a 02       		.byte	0x2
 11688 311b EF05     		.2byte	0x5ef
 11689 311d E6010000 		.4byte	0x1e6
 11690 3121 131D0000 		.4byte	.LLST168
 11691 3125 4E       		.uleb128 0x4e
 11692 3126 656E6400 		.ascii	"end\000"
 11693 312a 02       		.byte	0x2
ARM GAS  C:\Users\jo\AppData\Local\Temp\ccMF9q4g.s 			page 210


 11694 312b FA05     		.2byte	0x5fa
 11695 312d B6000000 		.4byte	0xb6
 11696 3131 02       		.uleb128 0x2
 11697 3132 91       		.byte	0x91
 11698 3133 6C       		.sleb128 -20
 11699 3134 42       		.uleb128 0x42
 11700 3135 697400   		.ascii	"it\000"
 11701 3138 02       		.byte	0x2
 11702 3139 FE05     		.2byte	0x5fe
 11703 313b E6010000 		.4byte	0x1e6
 11704 313f 3D1D0000 		.4byte	.LLST169
 11705 3143 3C       		.uleb128 0x3c
 11706 3144 2A000000 		.4byte	.LVL545
 11707 3148 3C380000 		.4byte	0x383c
 11708 314c 5C310000 		.4byte	0x315c
 11709 3150 38       		.uleb128 0x38
 11710 3151 01       		.uleb128 0x1
 11711 3152 52       		.byte	0x52
 11712 3153 01       		.uleb128 0x1
 11713 3154 3A       		.byte	0x3a
 11714 3155 38       		.uleb128 0x38
 11715 3156 01       		.uleb128 0x1
 11716 3157 51       		.byte	0x51
 11717 3158 02       		.uleb128 0x2
 11718 3159 91       		.byte	0x91
 11719 315a 6C       		.sleb128 -20
 11720 315b 00       		.byte	0
 11721 315c 37       		.uleb128 0x37
 11722 315d 40000000 		.4byte	.LVL547
 11723 3161 F1300000 		.4byte	0x30f1
 11724 3165 38       		.uleb128 0x38
 11725 3166 01       		.uleb128 0x1
 11726 3167 50       		.byte	0x50
 11727 3168 02       		.uleb128 0x2
 11728 3169 74       		.byte	0x74
 11729 316a 00       		.sleb128 0
 11730 316b 00       		.byte	0
 11731 316c 00       		.byte	0
 11732 316d 3F       		.uleb128 0x3f
 11733 316e 260C0000 		.4byte	.LASF253
 11734 3172 02       		.byte	0x2
 11735 3173 0306     		.2byte	0x603
 11736 3175 E6010000 		.4byte	0x1e6
 11737 3179 00000000 		.4byte	.LFB300
 11738 317d 2C000000 		.4byte	.LFE300-.LFB300
 11739 3181 01       		.uleb128 0x1
 11740 3182 9C       		.byte	0x9c
 11741 3183 1A320000 		.4byte	0x321a
 11742 3187 40       		.uleb128 0x40
 11743 3188 6300     		.ascii	"c\000"
 11744 318a 02       		.byte	0x2
 11745 318b 0306     		.2byte	0x603
 11746 318d 940B0000 		.4byte	0xb94
 11747 3191 501D0000 		.4byte	.LLST170
 11748 3195 41       		.uleb128 0x41
 11749 3196 B4000000 		.4byte	.LASF205
 11750 319a 02       		.byte	0x2
ARM GAS  C:\Users\jo\AppData\Local\Temp\ccMF9q4g.s 			page 211


 11751 319b 0506     		.2byte	0x605
 11752 319d E6010000 		.4byte	0x1e6
 11753 31a1 7C1D0000 		.4byte	.LLST171
 11754 31a5 47       		.uleb128 0x47
 11755 31a6 E70F0000 		.4byte	0xfe7
 11756 31aa 12000000 		.4byte	.LBB427
 11757 31ae 0C000000 		.4byte	.LBE427-.LBB427
 11758 31b2 02       		.byte	0x2
 11759 31b3 0906     		.2byte	0x609
 11760 31b5 F1310000 		.4byte	0x31f1
 11761 31b9 33       		.uleb128 0x33
 11762 31ba 0D100000 		.4byte	0x100d
 11763 31be A51D0000 		.4byte	.LLST172
 11764 31c2 34       		.uleb128 0x34
 11765 31c3 02100000 		.4byte	0x1002
 11766 31c7 06       		.uleb128 0x6
 11767 31c8 03       		.byte	0x3
 11768 31c9 00000000 		.4byte	lcfgx_tree_visitor
 11769 31cd 9F       		.byte	0x9f
 11770 31ce 33       		.uleb128 0x33
 11771 31cf F80F0000 		.4byte	0xff8
 11772 31d3 CE1D0000 		.4byte	.LLST173
 11773 31d7 37       		.uleb128 0x37
 11774 31d8 1E000000 		.4byte	.LVL556
 11775 31dc AA0F0000 		.4byte	0xfaa
 11776 31e0 38       		.uleb128 0x38
 11777 31e1 01       		.uleb128 0x1
 11778 31e2 52       		.byte	0x52
 11779 31e3 02       		.uleb128 0x2
 11780 31e4 74       		.byte	0x74
 11781 31e5 00       		.sleb128 0
 11782 31e6 38       		.uleb128 0x38
 11783 31e7 01       		.uleb128 0x1
 11784 31e8 51       		.byte	0x51
 11785 31e9 05       		.uleb128 0x5
 11786 31ea 03       		.byte	0x3
 11787 31eb 00000000 		.4byte	lcfgx_tree_visitor
 11788 31ef 00       		.byte	0
 11789 31f0 00       		.byte	0
 11790 31f1 3C       		.uleb128 0x3c
 11791 31f2 0C000000 		.4byte	.LVL552
 11792 31f6 06180000 		.4byte	0x1806
 11793 31fa 09320000 		.4byte	0x3209
 11794 31fe 38       		.uleb128 0x38
 11795 31ff 01       		.uleb128 0x1
 11796 3200 51       		.byte	0x51
 11797 3201 01       		.uleb128 0x1
 11798 3202 30       		.byte	0x30
 11799 3203 38       		.uleb128 0x38
 11800 3204 01       		.uleb128 0x1
 11801 3205 50       		.byte	0x50
 11802 3206 01       		.uleb128 0x1
 11803 3207 32       		.byte	0x32
 11804 3208 00       		.byte	0
 11805 3209 37       		.uleb128 0x37
 11806 320a 24000000 		.4byte	.LVL557
 11807 320e F1300000 		.4byte	0x30f1
ARM GAS  C:\Users\jo\AppData\Local\Temp\ccMF9q4g.s 			page 212


 11808 3212 38       		.uleb128 0x38
 11809 3213 01       		.uleb128 0x1
 11810 3214 50       		.byte	0x50
 11811 3215 02       		.uleb128 0x2
 11812 3216 74       		.byte	0x74
 11813 3217 00       		.sleb128 0
 11814 3218 00       		.byte	0
 11815 3219 00       		.byte	0
 11816 321a 4C       		.uleb128 0x4c
 11817 321b 14050000 		.4byte	.LASF254
 11818 321f 02       		.byte	0x2
 11819 3220 0E06     		.2byte	0x60e
 11820 3222 00000000 		.4byte	.LFB301
 11821 3226 30000000 		.4byte	.LFE301-.LFB301
 11822 322a 01       		.uleb128 0x1
 11823 322b 9C       		.byte	0x9c
 11824 322c 97320000 		.4byte	0x3297
 11825 3230 40       		.uleb128 0x40
 11826 3231 6E00     		.ascii	"n\000"
 11827 3233 02       		.byte	0x2
 11828 3234 0E06     		.2byte	0x60e
 11829 3236 E6010000 		.4byte	0x1e6
 11830 323a EF1D0000 		.4byte	.LLST174
 11831 323e 53       		.uleb128 0x53
 11832 323f D8020000 		.4byte	.Ldebug_ranges0+0x2d8
 11833 3243 6F320000 		.4byte	0x326f
 11834 3247 42       		.uleb128 0x42
 11835 3248 6D00     		.ascii	"m\000"
 11836 324a 02       		.byte	0x2
 11837 324b 1306     		.2byte	0x613
 11838 324d E6010000 		.4byte	0x1e6
 11839 3251 311E0000 		.4byte	.LLST175
 11840 3255 41       		.uleb128 0x41
 11841 3256 200E0000 		.4byte	.LASF35
 11842 325a 02       		.byte	0x2
 11843 325b 1306     		.2byte	0x613
 11844 325d E6010000 		.4byte	0x1e6
 11845 3261 4F1E0000 		.4byte	.LLST176
 11846 3265 3E       		.uleb128 0x3e
 11847 3266 12000000 		.4byte	.LVL563
 11848 326a 1A320000 		.4byte	0x321a
 11849 326e 00       		.byte	0
 11850 326f 3E       		.uleb128 0x3e
 11851 3270 20000000 		.4byte	.LVL565
 11852 3274 CE360000 		.4byte	0x36ce
 11853 3278 59       		.uleb128 0x59
 11854 3279 2A000000 		.4byte	.LVL567
 11855 327d CE360000 		.4byte	0x36ce
 11856 3281 8D320000 		.4byte	0x328d
 11857 3285 38       		.uleb128 0x38
 11858 3286 01       		.uleb128 0x1
 11859 3287 50       		.byte	0x50
 11860 3288 03       		.uleb128 0x3
 11861 3289 F3       		.byte	0xf3
 11862 328a 01       		.uleb128 0x1
 11863 328b 50       		.byte	0x50
 11864 328c 00       		.byte	0
ARM GAS  C:\Users\jo\AppData\Local\Temp\ccMF9q4g.s 			page 213


 11865 328d 3E       		.uleb128 0x3e
 11866 328e 2E000000 		.4byte	.LVL568
 11867 3292 CE360000 		.4byte	0x36ce
 11868 3296 00       		.byte	0
 11869 3297 3F       		.uleb128 0x3f
 11870 3298 39030000 		.4byte	.LASF255
 11871 329c 02       		.byte	0x2
 11872 329d 2E06     		.2byte	0x62e
 11873 329f E6010000 		.4byte	0x1e6
 11874 32a3 00000000 		.4byte	.LFB302
 11875 32a7 32000000 		.4byte	.LFE302-.LFB302
 11876 32ab 01       		.uleb128 0x1
 11877 32ac 9C       		.byte	0x9c
 11878 32ad FF320000 		.4byte	0x32ff
 11879 32b1 45       		.uleb128 0x45
 11880 32b2 DC040000 		.4byte	.LASF179
 11881 32b6 02       		.byte	0x2
 11882 32b7 2E06     		.2byte	0x62e
 11883 32b9 E6010000 		.4byte	0x1e6
 11884 32bd 621E0000 		.4byte	.LLST177
 11885 32c1 45       		.uleb128 0x45
 11886 32c2 EB000000 		.4byte	.LASF177
 11887 32c6 02       		.byte	0x2
 11888 32c7 2E06     		.2byte	0x62e
 11889 32c9 25000000 		.4byte	0x25
 11890 32cd 831E0000 		.4byte	.LLST178
 11891 32d1 45       		.uleb128 0x45
 11892 32d2 61010000 		.4byte	.LASF178
 11893 32d6 02       		.byte	0x2
 11894 32d7 2E06     		.2byte	0x62e
 11895 32d9 450E0000 		.4byte	0xe45
 11896 32dd A41E0000 		.4byte	.LLST179
 11897 32e1 4E       		.uleb128 0x4e
 11898 32e2 697400   		.ascii	"it\000"
 11899 32e5 02       		.byte	0x2
 11900 32e6 3006     		.2byte	0x630
 11901 32e8 E6010000 		.4byte	0x1e6
 11902 32ec 01       		.uleb128 0x1
 11903 32ed 54       		.byte	0x54
 11904 32ee 37       		.uleb128 0x37
 11905 32ef 1E000000 		.4byte	.LVL573
 11906 32f3 FC360000 		.4byte	0x36fc
 11907 32f7 38       		.uleb128 0x38
 11908 32f8 01       		.uleb128 0x1
 11909 32f9 50       		.byte	0x50
 11910 32fa 02       		.uleb128 0x2
 11911 32fb 75       		.byte	0x75
 11912 32fc 00       		.sleb128 0
 11913 32fd 00       		.byte	0
 11914 32fe 00       		.byte	0
 11915 32ff 3F       		.uleb128 0x3f
 11916 3300 C9020000 		.4byte	.LASF256
 11917 3304 02       		.byte	0x2
 11918 3305 4406     		.2byte	0x644
 11919 3307 EC010000 		.4byte	0x1ec
 11920 330b 00000000 		.4byte	.LFB303
 11921 330f BC000000 		.4byte	.LFE303-.LFB303
ARM GAS  C:\Users\jo\AppData\Local\Temp\ccMF9q4g.s 			page 214


 11922 3313 01       		.uleb128 0x1
 11923 3314 9C       		.byte	0x9c
 11924 3315 40340000 		.4byte	0x3440
 11925 3319 45       		.uleb128 0x45
 11926 331a B4000000 		.4byte	.LASF205
 11927 331e 02       		.byte	0x2
 11928 331f 4406     		.2byte	0x644
 11929 3321 E6010000 		.4byte	0x1e6
 11930 3325 C51E0000 		.4byte	.LLST180
 11931 3329 40       		.uleb128 0x40
 11932 332a 6E00     		.ascii	"n\000"
 11933 332c 02       		.byte	0x2
 11934 332d 4406     		.2byte	0x644
 11935 332f 40340000 		.4byte	0x3440
 11936 3333 0A1F0000 		.4byte	.LLST181
 11937 3337 40       		.uleb128 0x40
 11938 3338 6B657900 		.ascii	"key\000"
 11939 333c 02       		.byte	0x2
 11940 333d 4406     		.2byte	0x644
 11941 333f C3000000 		.4byte	0xc3
 11942 3343 361F0000 		.4byte	.LLST182
 11943 3347 45       		.uleb128 0x45
 11944 3348 A9010000 		.4byte	.LASF33
 11945 334c 02       		.byte	0x2
 11946 334d 4406     		.2byte	0x644
 11947 334f 4A010000 		.4byte	0x14a
 11948 3353 611F0000 		.4byte	.LLST183
 11949 3357 50       		.uleb128 0x50
 11950 3358 59340000 		.4byte	0x3459
 11951 335c 821F0000 		.4byte	.LLST184
 11952 3360 41       		.uleb128 0x41
 11953 3361 CF000000 		.4byte	.LASF206
 11954 3365 02       		.byte	0x2
 11955 3366 4606     		.2byte	0x646
 11956 3368 46340000 		.4byte	0x3446
 11957 336c A21F0000 		.4byte	.LLST185
 11958 3370 41       		.uleb128 0x41
 11959 3371 26050000 		.4byte	.LASF207
 11960 3375 02       		.byte	0x2
 11961 3376 4706     		.2byte	0x647
 11962 3378 25000000 		.4byte	0x25
 11963 337c B61F0000 		.4byte	.LLST186
 11964 3380 50       		.uleb128 0x50
 11965 3381 71340000 		.4byte	0x3471
 11966 3385 D51F0000 		.4byte	.LLST187
 11967 3389 41       		.uleb128 0x41
 11968 338a 61010000 		.4byte	.LASF178
 11969 338e 02       		.byte	0x2
 11970 338f 4F06     		.2byte	0x64f
 11971 3391 5E340000 		.4byte	0x345e
 11972 3395 EA1F0000 		.4byte	.LLST188
 11973 3399 41       		.uleb128 0x41
 11974 339a 1B0C0000 		.4byte	.LASF208
 11975 339e 02       		.byte	0x2
 11976 339f 5006     		.2byte	0x650
 11977 33a1 B6000000 		.4byte	0xb6
 11978 33a5 FE1F0000 		.4byte	.LLST189
ARM GAS  C:\Users\jo\AppData\Local\Temp\ccMF9q4g.s 			page 215


 11979 33a9 51       		.uleb128 0x51
 11980 33aa 4E090000 		.4byte	.LASF209
 11981 33ae 02       		.byte	0x2
 11982 33af 5106     		.2byte	0x651
 11983 33b1 B6000000 		.4byte	0xb6
 11984 33b5 02       		.uleb128 0x2
 11985 33b6 91       		.byte	0x91
 11986 33b7 54       		.sleb128 -44
 11987 33b8 41       		.uleb128 0x41
 11988 33b9 EB000000 		.4byte	.LASF177
 11989 33bd 02       		.byte	0x2
 11990 33be 5206     		.2byte	0x652
 11991 33c0 25000000 		.4byte	0x25
 11992 33c4 27200000 		.4byte	.LLST190
 11993 33c8 41       		.uleb128 0x41
 11994 33c9 DC040000 		.4byte	.LASF179
 11995 33cd 02       		.byte	0x2
 11996 33ce 5806     		.2byte	0x658
 11997 33d0 E6010000 		.4byte	0x1e6
 11998 33d4 46200000 		.4byte	.LLST191
 11999 33d8 3C       		.uleb128 0x3c
 12000 33d9 16000000 		.4byte	.LVL577
 12001 33dd B9360000 		.4byte	0x36b9
 12002 33e1 EC330000 		.4byte	0x33ec
 12003 33e5 38       		.uleb128 0x38
 12004 33e6 01       		.uleb128 0x1
 12005 33e7 50       		.byte	0x50
 12006 33e8 02       		.uleb128 0x2
 12007 33e9 74       		.byte	0x74
 12008 33ea 00       		.sleb128 0
 12009 33eb 00       		.byte	0
 12010 33ec 3C       		.uleb128 0x3c
 12011 33ed 2C000000 		.4byte	.LVL579
 12012 33f1 16370000 		.4byte	0x3716
 12013 33f5 06340000 		.4byte	0x3406
 12014 33f9 38       		.uleb128 0x38
 12015 33fa 01       		.uleb128 0x1
 12016 33fb 51       		.byte	0x51
 12017 33fc 02       		.uleb128 0x2
 12018 33fd 74       		.byte	0x74
 12019 33fe 00       		.sleb128 0
 12020 33ff 38       		.uleb128 0x38
 12021 3400 01       		.uleb128 0x1
 12022 3401 50       		.byte	0x50
 12023 3402 02       		.uleb128 0x2
 12024 3403 7D       		.byte	0x7d
 12025 3404 00       		.sleb128 0
 12026 3405 00       		.byte	0
 12027 3406 3C       		.uleb128 0x3c
 12028 3407 72000000 		.4byte	.LVL591
 12029 340b 35370000 		.4byte	0x3735
 12030 340f 23340000 		.4byte	0x3423
 12031 3413 38       		.uleb128 0x38
 12032 3414 01       		.uleb128 0x1
 12033 3415 52       		.byte	0x52
 12034 3416 02       		.uleb128 0x2
 12035 3417 75       		.byte	0x75
ARM GAS  C:\Users\jo\AppData\Local\Temp\ccMF9q4g.s 			page 216


 12036 3418 00       		.sleb128 0
 12037 3419 38       		.uleb128 0x38
 12038 341a 01       		.uleb128 0x1
 12039 341b 51       		.byte	0x51
 12040 341c 05       		.uleb128 0x5
 12041 341d 03       		.byte	0x3
 12042 341e 30000000 		.4byte	.LC23
 12043 3422 00       		.byte	0
 12044 3423 37       		.uleb128 0x37
 12045 3424 98000000 		.4byte	.LVL596
 12046 3428 97320000 		.4byte	0x3297
 12047 342c 38       		.uleb128 0x38
 12048 342d 01       		.uleb128 0x1
 12049 342e 52       		.byte	0x52
 12050 342f 02       		.uleb128 0x2
 12051 3430 78       		.byte	0x78
 12052 3431 00       		.sleb128 0
 12053 3432 38       		.uleb128 0x38
 12054 3433 01       		.uleb128 0x1
 12055 3434 51       		.byte	0x51
 12056 3435 02       		.uleb128 0x2
 12057 3436 7B       		.byte	0x7b
 12058 3437 00       		.sleb128 0
 12059 3438 38       		.uleb128 0x38
 12060 3439 01       		.uleb128 0x1
 12061 343a 50       		.byte	0x50
 12062 343b 02       		.uleb128 0x2
 12063 343c 76       		.byte	0x76
 12064 343d 00       		.sleb128 0
 12065 343e 00       		.byte	0
 12066 343f 00       		.byte	0
 12067 3440 06       		.uleb128 0x6
 12068 3441 04       		.byte	0x4
 12069 3442 E6010000 		.4byte	0x1e6
 12070 3446 1B       		.uleb128 0x1b
 12071 3447 BC000000 		.4byte	0xbc
 12072 344b 59340000 		.4byte	0x3459
 12073 344f 54       		.uleb128 0x54
 12074 3450 AD000000 		.4byte	0xad
 12075 3454 57330000 		.4byte	0x3357
 12076 3458 00       		.byte	0
 12077 3459 07       		.uleb128 0x7
 12078 345a AD000000 		.4byte	0xad
 12079 345e 1B       		.uleb128 0x1b
 12080 345f B6000000 		.4byte	0xb6
 12081 3463 71340000 		.4byte	0x3471
 12082 3467 54       		.uleb128 0x54
 12083 3468 AD000000 		.4byte	0xad
 12084 346c 80330000 		.4byte	0x3380
 12085 3470 00       		.byte	0
 12086 3471 07       		.uleb128 0x7
 12087 3472 AD000000 		.4byte	0xad
 12088 3476 3F       		.uleb128 0x3f
 12089 3477 390B0000 		.4byte	.LASF257
 12090 347b 02       		.byte	0x2
 12091 347c 6A06     		.2byte	0x66a
 12092 347e EC010000 		.4byte	0x1ec
ARM GAS  C:\Users\jo\AppData\Local\Temp\ccMF9q4g.s 			page 217


 12093 3482 00000000 		.4byte	.LFB304
 12094 3486 06000000 		.4byte	.LFE304-.LFB304
 12095 348a 01       		.uleb128 0x1
 12096 348b 9C       		.byte	0x9c
 12097 348c E3340000 		.4byte	0x34e3
 12098 3490 45       		.uleb128 0x45
 12099 3491 B4000000 		.4byte	.LASF205
 12100 3495 02       		.byte	0x2
 12101 3496 6A06     		.2byte	0x66a
 12102 3498 E6010000 		.4byte	0x1e6
 12103 349c 7C200000 		.4byte	.LLST192
 12104 34a0 40       		.uleb128 0x40
 12105 34a1 6E00     		.ascii	"n\000"
 12106 34a3 02       		.byte	0x2
 12107 34a4 6A06     		.2byte	0x66a
 12108 34a6 40340000 		.4byte	0x3440
 12109 34aa 9D200000 		.4byte	.LLST193
 12110 34ae 40       		.uleb128 0x40
 12111 34af 6B657900 		.ascii	"key\000"
 12112 34b3 02       		.byte	0x2
 12113 34b4 6A06     		.2byte	0x66a
 12114 34b6 C3000000 		.4byte	0xc3
 12115 34ba BE200000 		.4byte	.LLST194
 12116 34be 4B       		.uleb128 0x4b
 12117 34bf 06000000 		.4byte	.LVL602
 12118 34c3 FF320000 		.4byte	0x32ff
 12119 34c7 38       		.uleb128 0x38
 12120 34c8 01       		.uleb128 0x1
 12121 34c9 53       		.byte	0x53
 12122 34ca 01       		.uleb128 0x1
 12123 34cb 31       		.byte	0x31
 12124 34cc 38       		.uleb128 0x38
 12125 34cd 01       		.uleb128 0x1
 12126 34ce 52       		.byte	0x52
 12127 34cf 03       		.uleb128 0x3
 12128 34d0 F3       		.byte	0xf3
 12129 34d1 01       		.uleb128 0x1
 12130 34d2 52       		.byte	0x52
 12131 34d3 38       		.uleb128 0x38
 12132 34d4 01       		.uleb128 0x1
 12133 34d5 51       		.byte	0x51
 12134 34d6 03       		.uleb128 0x3
 12135 34d7 F3       		.byte	0xf3
 12136 34d8 01       		.uleb128 0x1
 12137 34d9 51       		.byte	0x51
 12138 34da 38       		.uleb128 0x38
 12139 34db 01       		.uleb128 0x1
 12140 34dc 50       		.byte	0x50
 12141 34dd 03       		.uleb128 0x3
 12142 34de F3       		.byte	0xf3
 12143 34df 01       		.uleb128 0x1
 12144 34e0 50       		.byte	0x50
 12145 34e1 00       		.byte	0
 12146 34e2 00       		.byte	0
 12147 34e3 3F       		.uleb128 0x3f
 12148 34e4 69040000 		.4byte	.LASF258
 12149 34e8 02       		.byte	0x2
ARM GAS  C:\Users\jo\AppData\Local\Temp\ccMF9q4g.s 			page 218


 12150 34e9 6F06     		.2byte	0x66f
 12151 34eb EC010000 		.4byte	0x1ec
 12152 34ef 00000000 		.4byte	.LFB305
 12153 34f3 06000000 		.4byte	.LFE305-.LFB305
 12154 34f7 01       		.uleb128 0x1
 12155 34f8 9C       		.byte	0x9c
 12156 34f9 50350000 		.4byte	0x3550
 12157 34fd 45       		.uleb128 0x45
 12158 34fe B4000000 		.4byte	.LASF205
 12159 3502 02       		.byte	0x2
 12160 3503 6F06     		.2byte	0x66f
 12161 3505 E6010000 		.4byte	0x1e6
 12162 3509 DF200000 		.4byte	.LLST195
 12163 350d 40       		.uleb128 0x40
 12164 350e 6E00     		.ascii	"n\000"
 12165 3510 02       		.byte	0x2
 12166 3511 6F06     		.2byte	0x66f
 12167 3513 40340000 		.4byte	0x3440
 12168 3517 00210000 		.4byte	.LLST196
 12169 351b 40       		.uleb128 0x40
 12170 351c 6B657900 		.ascii	"key\000"
 12171 3520 02       		.byte	0x2
 12172 3521 6F06     		.2byte	0x66f
 12173 3523 C3000000 		.4byte	0xc3
 12174 3527 21210000 		.4byte	.LLST197
 12175 352b 4B       		.uleb128 0x4b
 12176 352c 06000000 		.4byte	.LVL604
 12177 3530 FF320000 		.4byte	0x32ff
 12178 3534 38       		.uleb128 0x38
 12179 3535 01       		.uleb128 0x1
 12180 3536 53       		.byte	0x53
 12181 3537 01       		.uleb128 0x1
 12182 3538 32       		.byte	0x32
 12183 3539 38       		.uleb128 0x38
 12184 353a 01       		.uleb128 0x1
 12185 353b 52       		.byte	0x52
 12186 353c 03       		.uleb128 0x3
 12187 353d F3       		.byte	0xf3
 12188 353e 01       		.uleb128 0x1
 12189 353f 52       		.byte	0x52
 12190 3540 38       		.uleb128 0x38
 12191 3541 01       		.uleb128 0x1
 12192 3542 51       		.byte	0x51
 12193 3543 03       		.uleb128 0x3
 12194 3544 F3       		.byte	0xf3
 12195 3545 01       		.uleb128 0x1
 12196 3546 51       		.byte	0x51
 12197 3547 38       		.uleb128 0x38
 12198 3548 01       		.uleb128 0x1
 12199 3549 50       		.byte	0x50
 12200 354a 03       		.uleb128 0x3
 12201 354b F3       		.byte	0xf3
 12202 354c 01       		.uleb128 0x1
 12203 354d 50       		.byte	0x50
 12204 354e 00       		.byte	0
 12205 354f 00       		.byte	0
 12206 3550 3F       		.uleb128 0x3f
ARM GAS  C:\Users\jo\AppData\Local\Temp\ccMF9q4g.s 			page 219


 12207 3551 03070000 		.4byte	.LASF259
 12208 3555 02       		.byte	0x2
 12209 3556 7406     		.2byte	0x674
 12210 3558 EC010000 		.4byte	0x1ec
 12211 355c 00000000 		.4byte	.LFB306
 12212 3560 06000000 		.4byte	.LFE306-.LFB306
 12213 3564 01       		.uleb128 0x1
 12214 3565 9C       		.byte	0x9c
 12215 3566 BD350000 		.4byte	0x35bd
 12216 356a 45       		.uleb128 0x45
 12217 356b B4000000 		.4byte	.LASF205
 12218 356f 02       		.byte	0x2
 12219 3570 7406     		.2byte	0x674
 12220 3572 E6010000 		.4byte	0x1e6
 12221 3576 42210000 		.4byte	.LLST198
 12222 357a 40       		.uleb128 0x40
 12223 357b 6E00     		.ascii	"n\000"
 12224 357d 02       		.byte	0x2
 12225 357e 7406     		.2byte	0x674
 12226 3580 40340000 		.4byte	0x3440
 12227 3584 63210000 		.4byte	.LLST199
 12228 3588 40       		.uleb128 0x40
 12229 3589 6B657900 		.ascii	"key\000"
 12230 358d 02       		.byte	0x2
 12231 358e 7406     		.2byte	0x674
 12232 3590 C3000000 		.4byte	0xc3
 12233 3594 84210000 		.4byte	.LLST200
 12234 3598 4B       		.uleb128 0x4b
 12235 3599 06000000 		.4byte	.LVL606
 12236 359d FF320000 		.4byte	0x32ff
 12237 35a1 38       		.uleb128 0x38
 12238 35a2 01       		.uleb128 0x1
 12239 35a3 53       		.byte	0x53
 12240 35a4 01       		.uleb128 0x1
 12241 35a5 30       		.byte	0x30
 12242 35a6 38       		.uleb128 0x38
 12243 35a7 01       		.uleb128 0x1
 12244 35a8 52       		.byte	0x52
 12245 35a9 03       		.uleb128 0x3
 12246 35aa F3       		.byte	0xf3
 12247 35ab 01       		.uleb128 0x1
 12248 35ac 52       		.byte	0x52
 12249 35ad 38       		.uleb128 0x38
 12250 35ae 01       		.uleb128 0x1
 12251 35af 51       		.byte	0x51
 12252 35b0 03       		.uleb128 0x3
 12253 35b1 F3       		.byte	0xf3
 12254 35b2 01       		.uleb128 0x1
 12255 35b3 51       		.byte	0x51
 12256 35b4 38       		.uleb128 0x38
 12257 35b5 01       		.uleb128 0x1
 12258 35b6 50       		.byte	0x50
 12259 35b7 03       		.uleb128 0x3
 12260 35b8 F3       		.byte	0xf3
 12261 35b9 01       		.uleb128 0x1
 12262 35ba 50       		.byte	0x50
 12263 35bb 00       		.byte	0
ARM GAS  C:\Users\jo\AppData\Local\Temp\ccMF9q4g.s 			page 220


 12264 35bc 00       		.byte	0
 12265 35bd 5A       		.uleb128 0x5a
 12266 35be 8F080000 		.4byte	.LASF260
 12267 35c2 14       		.byte	0x14
 12268 35c3 2D       		.byte	0x2d
 12269 35c4 C3000000 		.4byte	0xc3
 12270 35c8 1B       		.uleb128 0x1b
 12271 35c9 C3000000 		.4byte	0xc3
 12272 35cd D8350000 		.4byte	0x35d8
 12273 35d1 1C       		.uleb128 0x1c
 12274 35d2 AD000000 		.4byte	0xad
 12275 35d6 02       		.byte	0x2
 12276 35d7 00       		.byte	0
 12277 35d8 5B       		.uleb128 0x5b
 12278 35d9 B0080000 		.4byte	.LASF261
 12279 35dd 02       		.byte	0x2
 12280 35de 2706     		.2byte	0x627
 12281 35e0 C8350000 		.4byte	0x35c8
 12282 35e4 05       		.uleb128 0x5
 12283 35e5 03       		.byte	0x3
 12284 35e6 00000000 		.4byte	lcfgx_path_access_strings
 12285 35ea 5C       		.uleb128 0x5c
 12286 35eb 91070000 		.4byte	.LASF262
 12287 35ef 15       		.byte	0x15
 12288 35f0 A706     		.2byte	0x6a7
 12289 35f2 42020000 		.4byte	0x242
 12290 35f6 5D       		.uleb128 0x5d
 12291 35f7 636800   		.ascii	"ch\000"
 12292 35fa 0B       		.byte	0xb
 12293 35fb EB01     		.2byte	0x1eb
 12294 35fd 40050000 		.4byte	0x540
 12295 3601 5A       		.uleb128 0x5a
 12296 3602 A7070000 		.4byte	.LASF263
 12297 3606 02       		.byte	0x2
 12298 3607 1B       		.byte	0x1b
 12299 3608 0D0A0000 		.4byte	0xa0d
 12300 360c 1B       		.uleb128 0x1b
 12301 360d C3000000 		.4byte	0xc3
 12302 3611 1C360000 		.4byte	0x361c
 12303 3615 1C       		.uleb128 0x1c
 12304 3616 AD000000 		.4byte	0xad
 12305 361a 08       		.byte	0x8
 12306 361b 00       		.byte	0
 12307 361c 5B       		.uleb128 0x5b
 12308 361d 4E020000 		.4byte	.LASF264
 12309 3621 02       		.byte	0x2
 12310 3622 FD01     		.2byte	0x1fd
 12311 3624 0C360000 		.4byte	0x360c
 12312 3628 05       		.uleb128 0x5
 12313 3629 03       		.byte	0x3
 12314 362a 00000000 		.4byte	lcfg_token_map
 12315 362e 5E       		.uleb128 0x5e
 12316 362f 6C060000 		.4byte	.LASF265
 12317 3633 01       		.byte	0x1
 12318 3634 28       		.byte	0x28
 12319 3635 25000000 		.4byte	0x25
 12320 3639 4D360000 		.4byte	0x364d
ARM GAS  C:\Users\jo\AppData\Local\Temp\ccMF9q4g.s 			page 221


 12321 363d 0E       		.uleb128 0xe
 12322 363e 57100000 		.4byte	0x1057
 12323 3642 0E       		.uleb128 0xe
 12324 3643 C3000000 		.4byte	0xc3
 12325 3647 0E       		.uleb128 0xe
 12326 3648 F0000000 		.4byte	0xf0
 12327 364c 00       		.byte	0
 12328 364d 5F       		.uleb128 0x5f
 12329 364e 9E050000 		.4byte	.LASF266
 12330 3652 16       		.byte	0x16
 12331 3653 29       		.byte	0x29
 12332 3654 6D360000 		.4byte	0x366d
 12333 3658 0E       		.uleb128 0xe
 12334 3659 C3000000 		.4byte	0xc3
 12335 365d 0E       		.uleb128 0xe
 12336 365e 25000000 		.4byte	0x25
 12337 3662 0E       		.uleb128 0xe
 12338 3663 C3000000 		.4byte	0xc3
 12339 3667 0E       		.uleb128 0xe
 12340 3668 C3000000 		.4byte	0xc3
 12341 366c 00       		.byte	0
 12342 366d 5E       		.uleb128 0x5e
 12343 366e 450A0000 		.4byte	.LASF267
 12344 3672 17       		.byte	0x17
 12345 3673 60       		.byte	0x60
 12346 3674 B4000000 		.4byte	0xb4
 12347 3678 82360000 		.4byte	0x3682
 12348 367c 0E       		.uleb128 0xe
 12349 367d 2C000000 		.4byte	0x2c
 12350 3681 00       		.byte	0
 12351 3682 60       		.uleb128 0x60
 12352 3683 C90B0000 		.4byte	.LASF268
 12353 3687 B4000000 		.4byte	0xb4
 12354 368b 9F360000 		.4byte	0x369f
 12355 368f 0E       		.uleb128 0xe
 12356 3690 B4000000 		.4byte	0xb4
 12357 3694 0E       		.uleb128 0xe
 12358 3695 FB000000 		.4byte	0xfb
 12359 3699 0E       		.uleb128 0xe
 12360 369a AD000000 		.4byte	0xad
 12361 369e 00       		.byte	0
 12362 369f 5E       		.uleb128 0x5e
 12363 36a0 B4030000 		.4byte	.LASF269
 12364 36a4 17       		.byte	0x17
 12365 36a5 7D       		.byte	0x7d
 12366 36a6 B4000000 		.4byte	0xb4
 12367 36aa B9360000 		.4byte	0x36b9
 12368 36ae 0E       		.uleb128 0xe
 12369 36af B4000000 		.4byte	0xb4
 12370 36b3 0E       		.uleb128 0xe
 12371 36b4 2C000000 		.4byte	0x2c
 12372 36b8 00       		.byte	0
 12373 36b9 5E       		.uleb128 0x5e
 12374 36ba C20B0000 		.4byte	.LASF270
 12375 36be 13       		.byte	0x13
 12376 36bf 21       		.byte	0x21
 12377 36c0 2C000000 		.4byte	0x2c
ARM GAS  C:\Users\jo\AppData\Local\Temp\ccMF9q4g.s 			page 222


 12378 36c4 CE360000 		.4byte	0x36ce
 12379 36c8 0E       		.uleb128 0xe
 12380 36c9 C3000000 		.4byte	0xc3
 12381 36cd 00       		.byte	0
 12382 36ce 5F       		.uleb128 0x5f
 12383 36cf 210C0000 		.4byte	.LASF271
 12384 36d3 17       		.byte	0x17
 12385 36d4 55       		.byte	0x55
 12386 36d5 DF360000 		.4byte	0x36df
 12387 36d9 0E       		.uleb128 0xe
 12388 36da B4000000 		.4byte	0xb4
 12389 36de 00       		.byte	0
 12390 36df 60       		.uleb128 0x60
 12391 36e0 030A0000 		.4byte	.LASF272
 12392 36e4 B4000000 		.4byte	0xb4
 12393 36e8 FC360000 		.4byte	0x36fc
 12394 36ec 0E       		.uleb128 0xe
 12395 36ed B4000000 		.4byte	0xb4
 12396 36f1 0E       		.uleb128 0xe
 12397 36f2 25000000 		.4byte	0x25
 12398 36f6 0E       		.uleb128 0xe
 12399 36f7 AD000000 		.4byte	0xad
 12400 36fb 00       		.byte	0
 12401 36fc 5E       		.uleb128 0x5e
 12402 36fd AD040000 		.4byte	.LASF273
 12403 3701 13       		.byte	0x13
 12404 3702 1C       		.byte	0x1c
 12405 3703 25000000 		.4byte	0x25
 12406 3707 16370000 		.4byte	0x3716
 12407 370b 0E       		.uleb128 0xe
 12408 370c C3000000 		.4byte	0xc3
 12409 3710 0E       		.uleb128 0xe
 12410 3711 C3000000 		.4byte	0xc3
 12411 3715 00       		.byte	0
 12412 3716 5E       		.uleb128 0x5e
 12413 3717 0A0A0000 		.4byte	.LASF274
 12414 371b 13       		.byte	0x13
 12415 371c 24       		.byte	0x24
 12416 371d B6000000 		.4byte	0xb6
 12417 3721 35370000 		.4byte	0x3735
 12418 3725 0E       		.uleb128 0xe
 12419 3726 B6000000 		.4byte	0xb6
 12420 372a 0E       		.uleb128 0xe
 12421 372b C3000000 		.4byte	0xc3
 12422 372f 0E       		.uleb128 0xe
 12423 3730 2C000000 		.4byte	0x2c
 12424 3734 00       		.byte	0
 12425 3735 5E       		.uleb128 0x5e
 12426 3736 CF090000 		.4byte	.LASF275
 12427 373a 13       		.byte	0x13
 12428 373b 2F       		.byte	0x2f
 12429 373c B6000000 		.4byte	0xb6
 12430 3740 54370000 		.4byte	0x3754
 12431 3744 0E       		.uleb128 0xe
 12432 3745 B6000000 		.4byte	0xb6
 12433 3749 0E       		.uleb128 0xe
 12434 374a C3000000 		.4byte	0xc3
ARM GAS  C:\Users\jo\AppData\Local\Temp\ccMF9q4g.s 			page 223


 12435 374e 0E       		.uleb128 0xe
 12436 374f 450E0000 		.4byte	0xe45
 12437 3753 00       		.byte	0
 12438 3754 61       		.uleb128 0x61
 12439 3755 3A080000 		.4byte	.LASF276
 12440 3759 18       		.byte	0x18
 12441 375a 2B01     		.2byte	0x12b
 12442 375c 25000000 		.4byte	0x25
 12443 3760 79370000 		.4byte	0x3779
 12444 3764 0E       		.uleb128 0xe
 12445 3765 B6000000 		.4byte	0xb6
 12446 3769 0E       		.uleb128 0xe
 12447 376a 2C000000 		.4byte	0x2c
 12448 376e 0E       		.uleb128 0xe
 12449 376f C3000000 		.4byte	0xc3
 12450 3773 0E       		.uleb128 0xe
 12451 3774 CE000000 		.4byte	0xce
 12452 3778 00       		.byte	0
 12453 3779 5E       		.uleb128 0x5e
 12454 377a DE070000 		.4byte	.LASF121
 12455 377e 19       		.byte	0x19
 12456 377f 95       		.byte	0x95
 12457 3780 25000000 		.4byte	0x25
 12458 3784 98370000 		.4byte	0x3798
 12459 3788 0E       		.uleb128 0xe
 12460 3789 25000000 		.4byte	0x25
 12461 378d 0E       		.uleb128 0xe
 12462 378e B4000000 		.4byte	0xb4
 12463 3792 0E       		.uleb128 0xe
 12464 3793 2C000000 		.4byte	0x2c
 12465 3797 00       		.byte	0
 12466 3798 62       		.uleb128 0x62
 12467 3799 59030000 		.4byte	.LASF286
 12468 379d 1B       		.byte	0x1b
 12469 379e 0F       		.byte	0xf
 12470 379f A3370000 		.4byte	0x37a3
 12471 37a3 06       		.uleb128 0x6
 12472 37a4 04       		.byte	0x4
 12473 37a5 25000000 		.4byte	0x25
 12474 37a9 5E       		.uleb128 0x5e
 12475 37aa 9E070000 		.4byte	.LASF277
 12476 37ae 13       		.byte	0x13
 12477 37af 20       		.byte	0x20
 12478 37b0 B6000000 		.4byte	0xb6
 12479 37b4 BE370000 		.4byte	0x37be
 12480 37b8 0E       		.uleb128 0xe
 12481 37b9 25000000 		.4byte	0x25
 12482 37bd 00       		.byte	0
 12483 37be 5E       		.uleb128 0x5e
 12484 37bf 51050000 		.4byte	.LASF278
 12485 37c3 17       		.byte	0x17
 12486 37c4 92       		.byte	0x92
 12487 37c5 8D000000 		.4byte	0x8d
 12488 37c9 DD370000 		.4byte	0x37dd
 12489 37cd 0E       		.uleb128 0xe
 12490 37ce C3000000 		.4byte	0xc3
 12491 37d2 0E       		.uleb128 0xe
ARM GAS  C:\Users\jo\AppData\Local\Temp\ccMF9q4g.s 			page 224


 12492 37d3 450E0000 		.4byte	0xe45
 12493 37d7 0E       		.uleb128 0xe
 12494 37d8 25000000 		.4byte	0x25
 12495 37dc 00       		.byte	0
 12496 37dd 5E       		.uleb128 0x5e
 12497 37de 7C010000 		.4byte	.LASF279
 12498 37e2 1A       		.byte	0x1a
 12499 37e3 BA       		.byte	0xba
 12500 37e4 25000000 		.4byte	0x25
 12501 37e8 F8370000 		.4byte	0x37f8
 12502 37ec 0E       		.uleb128 0xe
 12503 37ed C3000000 		.4byte	0xc3
 12504 37f1 0E       		.uleb128 0xe
 12505 37f2 25000000 		.4byte	0x25
 12506 37f6 2F       		.uleb128 0x2f
 12507 37f7 00       		.byte	0
 12508 37f8 5E       		.uleb128 0x5e
 12509 37f9 380E0000 		.4byte	.LASF280
 12510 37fd 19       		.byte	0x19
 12511 37fe 1E       		.byte	0x1e
 12512 37ff 25000000 		.4byte	0x25
 12513 3803 0D380000 		.4byte	0x380d
 12514 3807 0E       		.uleb128 0xe
 12515 3808 25000000 		.4byte	0x25
 12516 380c 00       		.byte	0
 12517 380d 63       		.uleb128 0x63
 12518 380e 7D080000 		.4byte	.LASF287
 12519 3812 07       		.byte	0x7
 12520 3813 00       		.byte	0
 12521 3814 A40B0000 		.4byte	.LASF288
 12522 3818 25000000 		.4byte	0x25
 12523 381c 26380000 		.4byte	0x3826
 12524 3820 0E       		.uleb128 0xe
 12525 3821 25000000 		.4byte	0x25
 12526 3825 00       		.byte	0
 12527 3826 5E       		.uleb128 0x5e
 12528 3827 E8010000 		.4byte	.LASF281
 12529 382b 18       		.byte	0x18
 12530 382c B1       		.byte	0xb1
 12531 382d 25000000 		.4byte	0x25
 12532 3831 3C380000 		.4byte	0x383c
 12533 3835 0E       		.uleb128 0xe
 12534 3836 C3000000 		.4byte	0xc3
 12535 383a 2F       		.uleb128 0x2f
 12536 383b 00       		.byte	0
 12537 383c 64       		.uleb128 0x64
 12538 383d BC0A0000 		.4byte	.LASF282
 12539 3841 17       		.byte	0x17
 12540 3842 90       		.byte	0x90
 12541 3843 7B000000 		.4byte	0x7b
 12542 3847 0E       		.uleb128 0xe
 12543 3848 C3000000 		.4byte	0xc3
 12544 384c 0E       		.uleb128 0xe
 12545 384d 450E0000 		.4byte	0xe45
 12546 3851 0E       		.uleb128 0xe
 12547 3852 25000000 		.4byte	0x25
 12548 3856 00       		.byte	0
ARM GAS  C:\Users\jo\AppData\Local\Temp\ccMF9q4g.s 			page 225


 12549 3857 00       		.byte	0
 12550              		.section	.debug_abbrev,"",%progbits
 12551              	.Ldebug_abbrev0:
 12552 0000 01       		.uleb128 0x1
 12553 0001 11       		.uleb128 0x11
 12554 0002 01       		.byte	0x1
 12555 0003 25       		.uleb128 0x25
 12556 0004 0E       		.uleb128 0xe
 12557 0005 13       		.uleb128 0x13
 12558 0006 0B       		.uleb128 0xb
 12559 0007 03       		.uleb128 0x3
 12560 0008 0E       		.uleb128 0xe
 12561 0009 1B       		.uleb128 0x1b
 12562 000a 0E       		.uleb128 0xe
 12563 000b 55       		.uleb128 0x55
 12564 000c 17       		.uleb128 0x17
 12565 000d 11       		.uleb128 0x11
 12566 000e 01       		.uleb128 0x1
 12567 000f 10       		.uleb128 0x10
 12568 0010 17       		.uleb128 0x17
 12569 0011 00       		.byte	0
 12570 0012 00       		.byte	0
 12571 0013 02       		.uleb128 0x2
 12572 0014 24       		.uleb128 0x24
 12573 0015 00       		.byte	0
 12574 0016 0B       		.uleb128 0xb
 12575 0017 0B       		.uleb128 0xb
 12576 0018 3E       		.uleb128 0x3e
 12577 0019 0B       		.uleb128 0xb
 12578 001a 03       		.uleb128 0x3
 12579 001b 08       		.uleb128 0x8
 12580 001c 00       		.byte	0
 12581 001d 00       		.byte	0
 12582 001e 03       		.uleb128 0x3
 12583 001f 16       		.uleb128 0x16
 12584 0020 00       		.byte	0
 12585 0021 03       		.uleb128 0x3
 12586 0022 0E       		.uleb128 0xe
 12587 0023 3A       		.uleb128 0x3a
 12588 0024 0B       		.uleb128 0xb
 12589 0025 3B       		.uleb128 0x3b
 12590 0026 0B       		.uleb128 0xb
 12591 0027 49       		.uleb128 0x49
 12592 0028 13       		.uleb128 0x13
 12593 0029 00       		.byte	0
 12594 002a 00       		.byte	0
 12595 002b 04       		.uleb128 0x4
 12596 002c 24       		.uleb128 0x24
 12597 002d 00       		.byte	0
 12598 002e 0B       		.uleb128 0xb
 12599 002f 0B       		.uleb128 0xb
 12600 0030 3E       		.uleb128 0x3e
 12601 0031 0B       		.uleb128 0xb
 12602 0032 03       		.uleb128 0x3
 12603 0033 0E       		.uleb128 0xe
 12604 0034 00       		.byte	0
 12605 0035 00       		.byte	0
ARM GAS  C:\Users\jo\AppData\Local\Temp\ccMF9q4g.s 			page 226


 12606 0036 05       		.uleb128 0x5
 12607 0037 0F       		.uleb128 0xf
 12608 0038 00       		.byte	0
 12609 0039 0B       		.uleb128 0xb
 12610 003a 0B       		.uleb128 0xb
 12611 003b 00       		.byte	0
 12612 003c 00       		.byte	0
 12613 003d 06       		.uleb128 0x6
 12614 003e 0F       		.uleb128 0xf
 12615 003f 00       		.byte	0
 12616 0040 0B       		.uleb128 0xb
 12617 0041 0B       		.uleb128 0xb
 12618 0042 49       		.uleb128 0x49
 12619 0043 13       		.uleb128 0x13
 12620 0044 00       		.byte	0
 12621 0045 00       		.byte	0
 12622 0046 07       		.uleb128 0x7
 12623 0047 26       		.uleb128 0x26
 12624 0048 00       		.byte	0
 12625 0049 49       		.uleb128 0x49
 12626 004a 13       		.uleb128 0x13
 12627 004b 00       		.byte	0
 12628 004c 00       		.byte	0
 12629 004d 08       		.uleb128 0x8
 12630 004e 13       		.uleb128 0x13
 12631 004f 01       		.byte	0x1
 12632 0050 03       		.uleb128 0x3
 12633 0051 0E       		.uleb128 0xe
 12634 0052 0B       		.uleb128 0xb
 12635 0053 0B       		.uleb128 0xb
 12636 0054 3A       		.uleb128 0x3a
 12637 0055 0B       		.uleb128 0xb
 12638 0056 3B       		.uleb128 0x3b
 12639 0057 0B       		.uleb128 0xb
 12640 0058 01       		.uleb128 0x1
 12641 0059 13       		.uleb128 0x13
 12642 005a 00       		.byte	0
 12643 005b 00       		.byte	0
 12644 005c 09       		.uleb128 0x9
 12645 005d 0D       		.uleb128 0xd
 12646 005e 00       		.byte	0
 12647 005f 03       		.uleb128 0x3
 12648 0060 0E       		.uleb128 0xe
 12649 0061 49       		.uleb128 0x49
 12650 0062 13       		.uleb128 0x13
 12651 0063 38       		.uleb128 0x38
 12652 0064 0B       		.uleb128 0xb
 12653 0065 34       		.uleb128 0x34
 12654 0066 19       		.uleb128 0x19
 12655 0067 00       		.byte	0
 12656 0068 00       		.byte	0
 12657 0069 0A       		.uleb128 0xa
 12658 006a 26       		.uleb128 0x26
 12659 006b 00       		.byte	0
 12660 006c 00       		.byte	0
 12661 006d 00       		.byte	0
 12662 006e 0B       		.uleb128 0xb
ARM GAS  C:\Users\jo\AppData\Local\Temp\ccMF9q4g.s 			page 227


 12663 006f 04       		.uleb128 0x4
 12664 0070 01       		.byte	0x1
 12665 0071 03       		.uleb128 0x3
 12666 0072 0E       		.uleb128 0xe
 12667 0073 0B       		.uleb128 0xb
 12668 0074 0B       		.uleb128 0xb
 12669 0075 3A       		.uleb128 0x3a
 12670 0076 0B       		.uleb128 0xb
 12671 0077 3B       		.uleb128 0x3b
 12672 0078 0B       		.uleb128 0xb
 12673 0079 01       		.uleb128 0x1
 12674 007a 13       		.uleb128 0x13
 12675 007b 00       		.byte	0
 12676 007c 00       		.byte	0
 12677 007d 0C       		.uleb128 0xc
 12678 007e 28       		.uleb128 0x28
 12679 007f 00       		.byte	0
 12680 0080 03       		.uleb128 0x3
 12681 0081 0E       		.uleb128 0xe
 12682 0082 1C       		.uleb128 0x1c
 12683 0083 0D       		.uleb128 0xd
 12684 0084 00       		.byte	0
 12685 0085 00       		.byte	0
 12686 0086 0D       		.uleb128 0xd
 12687 0087 15       		.uleb128 0x15
 12688 0088 01       		.byte	0x1
 12689 0089 27       		.uleb128 0x27
 12690 008a 19       		.uleb128 0x19
 12691 008b 49       		.uleb128 0x49
 12692 008c 13       		.uleb128 0x13
 12693 008d 01       		.uleb128 0x1
 12694 008e 13       		.uleb128 0x13
 12695 008f 00       		.byte	0
 12696 0090 00       		.byte	0
 12697 0091 0E       		.uleb128 0xe
 12698 0092 05       		.uleb128 0x5
 12699 0093 00       		.byte	0
 12700 0094 49       		.uleb128 0x49
 12701 0095 13       		.uleb128 0x13
 12702 0096 00       		.byte	0
 12703 0097 00       		.byte	0
 12704 0098 0F       		.uleb128 0xf
 12705 0099 13       		.uleb128 0x13
 12706 009a 01       		.byte	0x1
 12707 009b 0B       		.uleb128 0xb
 12708 009c 0B       		.uleb128 0xb
 12709 009d 3A       		.uleb128 0x3a
 12710 009e 0B       		.uleb128 0xb
 12711 009f 3B       		.uleb128 0x3b
 12712 00a0 0B       		.uleb128 0xb
 12713 00a1 01       		.uleb128 0x1
 12714 00a2 13       		.uleb128 0x13
 12715 00a3 00       		.byte	0
 12716 00a4 00       		.byte	0
 12717 00a5 10       		.uleb128 0x10
 12718 00a6 0D       		.uleb128 0xd
 12719 00a7 00       		.byte	0
ARM GAS  C:\Users\jo\AppData\Local\Temp\ccMF9q4g.s 			page 228


 12720 00a8 03       		.uleb128 0x3
 12721 00a9 0E       		.uleb128 0xe
 12722 00aa 3A       		.uleb128 0x3a
 12723 00ab 0B       		.uleb128 0xb
 12724 00ac 3B       		.uleb128 0x3b
 12725 00ad 0B       		.uleb128 0xb
 12726 00ae 49       		.uleb128 0x49
 12727 00af 13       		.uleb128 0x13
 12728 00b0 38       		.uleb128 0x38
 12729 00b1 0B       		.uleb128 0xb
 12730 00b2 00       		.byte	0
 12731 00b3 00       		.byte	0
 12732 00b4 11       		.uleb128 0x11
 12733 00b5 0D       		.uleb128 0xd
 12734 00b6 00       		.byte	0
 12735 00b7 03       		.uleb128 0x3
 12736 00b8 08       		.uleb128 0x8
 12737 00b9 3A       		.uleb128 0x3a
 12738 00ba 0B       		.uleb128 0xb
 12739 00bb 3B       		.uleb128 0x3b
 12740 00bc 0B       		.uleb128 0xb
 12741 00bd 49       		.uleb128 0x49
 12742 00be 13       		.uleb128 0x13
 12743 00bf 38       		.uleb128 0x38
 12744 00c0 0B       		.uleb128 0xb
 12745 00c1 00       		.byte	0
 12746 00c2 00       		.byte	0
 12747 00c3 12       		.uleb128 0x12
 12748 00c4 17       		.uleb128 0x17
 12749 00c5 01       		.byte	0x1
 12750 00c6 0B       		.uleb128 0xb
 12751 00c7 0B       		.uleb128 0xb
 12752 00c8 3A       		.uleb128 0x3a
 12753 00c9 0B       		.uleb128 0xb
 12754 00ca 3B       		.uleb128 0x3b
 12755 00cb 0B       		.uleb128 0xb
 12756 00cc 01       		.uleb128 0x1
 12757 00cd 13       		.uleb128 0x13
 12758 00ce 00       		.byte	0
 12759 00cf 00       		.byte	0
 12760 00d0 13       		.uleb128 0x13
 12761 00d1 0D       		.uleb128 0xd
 12762 00d2 00       		.byte	0
 12763 00d3 03       		.uleb128 0x3
 12764 00d4 0E       		.uleb128 0xe
 12765 00d5 3A       		.uleb128 0x3a
 12766 00d6 0B       		.uleb128 0xb
 12767 00d7 3B       		.uleb128 0x3b
 12768 00d8 0B       		.uleb128 0xb
 12769 00d9 49       		.uleb128 0x49
 12770 00da 13       		.uleb128 0x13
 12771 00db 00       		.byte	0
 12772 00dc 00       		.byte	0
 12773 00dd 14       		.uleb128 0x14
 12774 00de 35       		.uleb128 0x35
 12775 00df 00       		.byte	0
 12776 00e0 49       		.uleb128 0x49
ARM GAS  C:\Users\jo\AppData\Local\Temp\ccMF9q4g.s 			page 229


 12777 00e1 13       		.uleb128 0x13
 12778 00e2 00       		.byte	0
 12779 00e3 00       		.byte	0
 12780 00e4 15       		.uleb128 0x15
 12781 00e5 0D       		.uleb128 0xd
 12782 00e6 00       		.byte	0
 12783 00e7 03       		.uleb128 0x3
 12784 00e8 08       		.uleb128 0x8
 12785 00e9 3A       		.uleb128 0x3a
 12786 00ea 0B       		.uleb128 0xb
 12787 00eb 3B       		.uleb128 0x3b
 12788 00ec 05       		.uleb128 0x5
 12789 00ed 49       		.uleb128 0x49
 12790 00ee 13       		.uleb128 0x13
 12791 00ef 38       		.uleb128 0x38
 12792 00f0 0B       		.uleb128 0xb
 12793 00f1 00       		.byte	0
 12794 00f2 00       		.byte	0
 12795 00f3 16       		.uleb128 0x16
 12796 00f4 0D       		.uleb128 0xd
 12797 00f5 00       		.byte	0
 12798 00f6 03       		.uleb128 0x3
 12799 00f7 0E       		.uleb128 0xe
 12800 00f8 3A       		.uleb128 0x3a
 12801 00f9 0B       		.uleb128 0xb
 12802 00fa 3B       		.uleb128 0x3b
 12803 00fb 05       		.uleb128 0x5
 12804 00fc 49       		.uleb128 0x49
 12805 00fd 13       		.uleb128 0x13
 12806 00fe 38       		.uleb128 0x38
 12807 00ff 0B       		.uleb128 0xb
 12808 0100 00       		.byte	0
 12809 0101 00       		.byte	0
 12810 0102 17       		.uleb128 0x17
 12811 0103 13       		.uleb128 0x13
 12812 0104 01       		.byte	0x1
 12813 0105 03       		.uleb128 0x3
 12814 0106 0E       		.uleb128 0xe
 12815 0107 0B       		.uleb128 0xb
 12816 0108 0B       		.uleb128 0xb
 12817 0109 3A       		.uleb128 0x3a
 12818 010a 0B       		.uleb128 0xb
 12819 010b 3B       		.uleb128 0x3b
 12820 010c 05       		.uleb128 0x5
 12821 010d 01       		.uleb128 0x1
 12822 010e 13       		.uleb128 0x13
 12823 010f 00       		.byte	0
 12824 0110 00       		.byte	0
 12825 0111 18       		.uleb128 0x18
 12826 0112 15       		.uleb128 0x15
 12827 0113 01       		.byte	0x1
 12828 0114 27       		.uleb128 0x27
 12829 0115 19       		.uleb128 0x19
 12830 0116 01       		.uleb128 0x1
 12831 0117 13       		.uleb128 0x13
 12832 0118 00       		.byte	0
 12833 0119 00       		.byte	0
ARM GAS  C:\Users\jo\AppData\Local\Temp\ccMF9q4g.s 			page 230


 12834 011a 19       		.uleb128 0x19
 12835 011b 13       		.uleb128 0x13
 12836 011c 01       		.byte	0x1
 12837 011d 03       		.uleb128 0x3
 12838 011e 0E       		.uleb128 0xe
 12839 011f 0B       		.uleb128 0xb
 12840 0120 05       		.uleb128 0x5
 12841 0121 3A       		.uleb128 0x3a
 12842 0122 0B       		.uleb128 0xb
 12843 0123 3B       		.uleb128 0x3b
 12844 0124 05       		.uleb128 0x5
 12845 0125 01       		.uleb128 0x1
 12846 0126 13       		.uleb128 0x13
 12847 0127 00       		.byte	0
 12848 0128 00       		.byte	0
 12849 0129 1A       		.uleb128 0x1a
 12850 012a 0D       		.uleb128 0xd
 12851 012b 00       		.byte	0
 12852 012c 03       		.uleb128 0x3
 12853 012d 0E       		.uleb128 0xe
 12854 012e 3A       		.uleb128 0x3a
 12855 012f 0B       		.uleb128 0xb
 12856 0130 3B       		.uleb128 0x3b
 12857 0131 05       		.uleb128 0x5
 12858 0132 49       		.uleb128 0x49
 12859 0133 13       		.uleb128 0x13
 12860 0134 00       		.byte	0
 12861 0135 00       		.byte	0
 12862 0136 1B       		.uleb128 0x1b
 12863 0137 01       		.uleb128 0x1
 12864 0138 01       		.byte	0x1
 12865 0139 49       		.uleb128 0x49
 12866 013a 13       		.uleb128 0x13
 12867 013b 01       		.uleb128 0x1
 12868 013c 13       		.uleb128 0x13
 12869 013d 00       		.byte	0
 12870 013e 00       		.byte	0
 12871 013f 1C       		.uleb128 0x1c
 12872 0140 21       		.uleb128 0x21
 12873 0141 00       		.byte	0
 12874 0142 49       		.uleb128 0x49
 12875 0143 13       		.uleb128 0x13
 12876 0144 2F       		.uleb128 0x2f
 12877 0145 0B       		.uleb128 0xb
 12878 0146 00       		.byte	0
 12879 0147 00       		.byte	0
 12880 0148 1D       		.uleb128 0x1d
 12881 0149 0D       		.uleb128 0xd
 12882 014a 00       		.byte	0
 12883 014b 03       		.uleb128 0x3
 12884 014c 08       		.uleb128 0x8
 12885 014d 3A       		.uleb128 0x3a
 12886 014e 0B       		.uleb128 0xb
 12887 014f 3B       		.uleb128 0x3b
 12888 0150 0B       		.uleb128 0xb
 12889 0151 49       		.uleb128 0x49
 12890 0152 13       		.uleb128 0x13
ARM GAS  C:\Users\jo\AppData\Local\Temp\ccMF9q4g.s 			page 231


 12891 0153 00       		.byte	0
 12892 0154 00       		.byte	0
 12893 0155 1E       		.uleb128 0x1e
 12894 0156 16       		.uleb128 0x16
 12895 0157 00       		.byte	0
 12896 0158 03       		.uleb128 0x3
 12897 0159 0E       		.uleb128 0xe
 12898 015a 3A       		.uleb128 0x3a
 12899 015b 0B       		.uleb128 0xb
 12900 015c 3B       		.uleb128 0x3b
 12901 015d 05       		.uleb128 0x5
 12902 015e 49       		.uleb128 0x49
 12903 015f 13       		.uleb128 0x13
 12904 0160 00       		.byte	0
 12905 0161 00       		.byte	0
 12906 0162 1F       		.uleb128 0x1f
 12907 0163 0D       		.uleb128 0xd
 12908 0164 00       		.byte	0
 12909 0165 03       		.uleb128 0x3
 12910 0166 0E       		.uleb128 0xe
 12911 0167 3A       		.uleb128 0x3a
 12912 0168 0B       		.uleb128 0xb
 12913 0169 3B       		.uleb128 0x3b
 12914 016a 05       		.uleb128 0x5
 12915 016b 49       		.uleb128 0x49
 12916 016c 13       		.uleb128 0x13
 12917 016d 38       		.uleb128 0x38
 12918 016e 05       		.uleb128 0x5
 12919 016f 00       		.byte	0
 12920 0170 00       		.byte	0
 12921 0171 20       		.uleb128 0x20
 12922 0172 0D       		.uleb128 0xd
 12923 0173 00       		.byte	0
 12924 0174 03       		.uleb128 0x3
 12925 0175 08       		.uleb128 0x8
 12926 0176 3A       		.uleb128 0x3a
 12927 0177 0B       		.uleb128 0xb
 12928 0178 3B       		.uleb128 0x3b
 12929 0179 05       		.uleb128 0x5
 12930 017a 49       		.uleb128 0x49
 12931 017b 13       		.uleb128 0x13
 12932 017c 38       		.uleb128 0x38
 12933 017d 05       		.uleb128 0x5
 12934 017e 00       		.byte	0
 12935 017f 00       		.byte	0
 12936 0180 21       		.uleb128 0x21
 12937 0181 2E       		.uleb128 0x2e
 12938 0182 01       		.byte	0x1
 12939 0183 03       		.uleb128 0x3
 12940 0184 0E       		.uleb128 0xe
 12941 0185 3A       		.uleb128 0x3a
 12942 0186 0B       		.uleb128 0xb
 12943 0187 3B       		.uleb128 0x3b
 12944 0188 05       		.uleb128 0x5
 12945 0189 27       		.uleb128 0x27
 12946 018a 19       		.uleb128 0x19
 12947 018b 20       		.uleb128 0x20
ARM GAS  C:\Users\jo\AppData\Local\Temp\ccMF9q4g.s 			page 232


 12948 018c 0B       		.uleb128 0xb
 12949 018d 01       		.uleb128 0x1
 12950 018e 13       		.uleb128 0x13
 12951 018f 00       		.byte	0
 12952 0190 00       		.byte	0
 12953 0191 22       		.uleb128 0x22
 12954 0192 05       		.uleb128 0x5
 12955 0193 00       		.byte	0
 12956 0194 03       		.uleb128 0x3
 12957 0195 08       		.uleb128 0x8
 12958 0196 3A       		.uleb128 0x3a
 12959 0197 0B       		.uleb128 0xb
 12960 0198 3B       		.uleb128 0x3b
 12961 0199 05       		.uleb128 0x5
 12962 019a 49       		.uleb128 0x49
 12963 019b 13       		.uleb128 0x13
 12964 019c 00       		.byte	0
 12965 019d 00       		.byte	0
 12966 019e 23       		.uleb128 0x23
 12967 019f 05       		.uleb128 0x5
 12968 01a0 00       		.byte	0
 12969 01a1 03       		.uleb128 0x3
 12970 01a2 0E       		.uleb128 0xe
 12971 01a3 3A       		.uleb128 0x3a
 12972 01a4 0B       		.uleb128 0xb
 12973 01a5 3B       		.uleb128 0x3b
 12974 01a6 05       		.uleb128 0x5
 12975 01a7 49       		.uleb128 0x49
 12976 01a8 13       		.uleb128 0x13
 12977 01a9 00       		.byte	0
 12978 01aa 00       		.byte	0
 12979 01ab 24       		.uleb128 0x24
 12980 01ac 2E       		.uleb128 0x2e
 12981 01ad 01       		.byte	0x1
 12982 01ae 3F       		.uleb128 0x3f
 12983 01af 19       		.uleb128 0x19
 12984 01b0 03       		.uleb128 0x3
 12985 01b1 0E       		.uleb128 0xe
 12986 01b2 3A       		.uleb128 0x3a
 12987 01b3 0B       		.uleb128 0xb
 12988 01b4 3B       		.uleb128 0x3b
 12989 01b5 05       		.uleb128 0x5
 12990 01b6 49       		.uleb128 0x49
 12991 01b7 13       		.uleb128 0x13
 12992 01b8 20       		.uleb128 0x20
 12993 01b9 0B       		.uleb128 0xb
 12994 01ba 01       		.uleb128 0x1
 12995 01bb 13       		.uleb128 0x13
 12996 01bc 00       		.byte	0
 12997 01bd 00       		.byte	0
 12998 01be 25       		.uleb128 0x25
 12999 01bf 34       		.uleb128 0x34
 13000 01c0 00       		.byte	0
 13001 01c1 03       		.uleb128 0x3
 13002 01c2 08       		.uleb128 0x8
 13003 01c3 3A       		.uleb128 0x3a
 13004 01c4 0B       		.uleb128 0xb
ARM GAS  C:\Users\jo\AppData\Local\Temp\ccMF9q4g.s 			page 233


 13005 01c5 3B       		.uleb128 0x3b
 13006 01c6 05       		.uleb128 0x5
 13007 01c7 49       		.uleb128 0x49
 13008 01c8 13       		.uleb128 0x13
 13009 01c9 00       		.byte	0
 13010 01ca 00       		.byte	0
 13011 01cb 26       		.uleb128 0x26
 13012 01cc 34       		.uleb128 0x34
 13013 01cd 00       		.byte	0
 13014 01ce 03       		.uleb128 0x3
 13015 01cf 0E       		.uleb128 0xe
 13016 01d0 49       		.uleb128 0x49
 13017 01d1 13       		.uleb128 0x13
 13018 01d2 34       		.uleb128 0x34
 13019 01d3 19       		.uleb128 0x19
 13020 01d4 1C       		.uleb128 0x1c
 13021 01d5 0E       		.uleb128 0xe
 13022 01d6 00       		.byte	0
 13023 01d7 00       		.byte	0
 13024 01d8 27       		.uleb128 0x27
 13025 01d9 2E       		.uleb128 0x2e
 13026 01da 01       		.byte	0x1
 13027 01db 3F       		.uleb128 0x3f
 13028 01dc 19       		.uleb128 0x19
 13029 01dd 03       		.uleb128 0x3
 13030 01de 0E       		.uleb128 0xe
 13031 01df 3A       		.uleb128 0x3a
 13032 01e0 0B       		.uleb128 0xb
 13033 01e1 3B       		.uleb128 0x3b
 13034 01e2 05       		.uleb128 0x5
 13035 01e3 27       		.uleb128 0x27
 13036 01e4 19       		.uleb128 0x19
 13037 01e5 49       		.uleb128 0x49
 13038 01e6 13       		.uleb128 0x13
 13039 01e7 20       		.uleb128 0x20
 13040 01e8 0B       		.uleb128 0xb
 13041 01e9 01       		.uleb128 0x1
 13042 01ea 13       		.uleb128 0x13
 13043 01eb 00       		.byte	0
 13044 01ec 00       		.byte	0
 13045 01ed 28       		.uleb128 0x28
 13046 01ee 34       		.uleb128 0x34
 13047 01ef 00       		.byte	0
 13048 01f0 03       		.uleb128 0x3
 13049 01f1 0E       		.uleb128 0xe
 13050 01f2 3A       		.uleb128 0x3a
 13051 01f3 0B       		.uleb128 0xb
 13052 01f4 3B       		.uleb128 0x3b
 13053 01f5 05       		.uleb128 0x5
 13054 01f6 49       		.uleb128 0x49
 13055 01f7 13       		.uleb128 0x13
 13056 01f8 00       		.byte	0
 13057 01f9 00       		.byte	0
 13058 01fa 29       		.uleb128 0x29
 13059 01fb 2E       		.uleb128 0x2e
 13060 01fc 01       		.byte	0x1
 13061 01fd 3F       		.uleb128 0x3f
ARM GAS  C:\Users\jo\AppData\Local\Temp\ccMF9q4g.s 			page 234


 13062 01fe 19       		.uleb128 0x19
 13063 01ff 03       		.uleb128 0x3
 13064 0200 0E       		.uleb128 0xe
 13065 0201 3A       		.uleb128 0x3a
 13066 0202 0B       		.uleb128 0xb
 13067 0203 3B       		.uleb128 0x3b
 13068 0204 05       		.uleb128 0x5
 13069 0205 27       		.uleb128 0x27
 13070 0206 19       		.uleb128 0x19
 13071 0207 20       		.uleb128 0x20
 13072 0208 0B       		.uleb128 0xb
 13073 0209 01       		.uleb128 0x1
 13074 020a 13       		.uleb128 0x13
 13075 020b 00       		.byte	0
 13076 020c 00       		.byte	0
 13077 020d 2A       		.uleb128 0x2a
 13078 020e 2E       		.uleb128 0x2e
 13079 020f 01       		.byte	0x1
 13080 0210 03       		.uleb128 0x3
 13081 0211 0E       		.uleb128 0xe
 13082 0212 3A       		.uleb128 0x3a
 13083 0213 0B       		.uleb128 0xb
 13084 0214 3B       		.uleb128 0x3b
 13085 0215 05       		.uleb128 0x5
 13086 0216 27       		.uleb128 0x27
 13087 0217 19       		.uleb128 0x19
 13088 0218 49       		.uleb128 0x49
 13089 0219 13       		.uleb128 0x13
 13090 021a 20       		.uleb128 0x20
 13091 021b 0B       		.uleb128 0xb
 13092 021c 01       		.uleb128 0x1
 13093 021d 13       		.uleb128 0x13
 13094 021e 00       		.byte	0
 13095 021f 00       		.byte	0
 13096 0220 2B       		.uleb128 0x2b
 13097 0221 0B       		.uleb128 0xb
 13098 0222 01       		.byte	0x1
 13099 0223 01       		.uleb128 0x1
 13100 0224 13       		.uleb128 0x13
 13101 0225 00       		.byte	0
 13102 0226 00       		.byte	0
 13103 0227 2C       		.uleb128 0x2c
 13104 0228 0B       		.uleb128 0xb
 13105 0229 01       		.byte	0x1
 13106 022a 00       		.byte	0
 13107 022b 00       		.byte	0
 13108 022c 2D       		.uleb128 0x2d
 13109 022d 2E       		.uleb128 0x2e
 13110 022e 01       		.byte	0x1
 13111 022f 03       		.uleb128 0x3
 13112 0230 0E       		.uleb128 0xe
 13113 0231 3A       		.uleb128 0x3a
 13114 0232 0B       		.uleb128 0xb
 13115 0233 3B       		.uleb128 0x3b
 13116 0234 0B       		.uleb128 0xb
 13117 0235 27       		.uleb128 0x27
 13118 0236 19       		.uleb128 0x19
ARM GAS  C:\Users\jo\AppData\Local\Temp\ccMF9q4g.s 			page 235


 13119 0237 49       		.uleb128 0x49
 13120 0238 13       		.uleb128 0x13
 13121 0239 20       		.uleb128 0x20
 13122 023a 0B       		.uleb128 0xb
 13123 023b 01       		.uleb128 0x1
 13124 023c 13       		.uleb128 0x13
 13125 023d 00       		.byte	0
 13126 023e 00       		.byte	0
 13127 023f 2E       		.uleb128 0x2e
 13128 0240 05       		.uleb128 0x5
 13129 0241 00       		.byte	0
 13130 0242 03       		.uleb128 0x3
 13131 0243 08       		.uleb128 0x8
 13132 0244 3A       		.uleb128 0x3a
 13133 0245 0B       		.uleb128 0xb
 13134 0246 3B       		.uleb128 0x3b
 13135 0247 0B       		.uleb128 0xb
 13136 0248 49       		.uleb128 0x49
 13137 0249 13       		.uleb128 0x13
 13138 024a 00       		.byte	0
 13139 024b 00       		.byte	0
 13140 024c 2F       		.uleb128 0x2f
 13141 024d 18       		.uleb128 0x18
 13142 024e 00       		.byte	0
 13143 024f 00       		.byte	0
 13144 0250 00       		.byte	0
 13145 0251 30       		.uleb128 0x30
 13146 0252 34       		.uleb128 0x34
 13147 0253 00       		.byte	0
 13148 0254 03       		.uleb128 0x3
 13149 0255 08       		.uleb128 0x8
 13150 0256 3A       		.uleb128 0x3a
 13151 0257 0B       		.uleb128 0xb
 13152 0258 3B       		.uleb128 0x3b
 13153 0259 0B       		.uleb128 0xb
 13154 025a 49       		.uleb128 0x49
 13155 025b 13       		.uleb128 0x13
 13156 025c 00       		.byte	0
 13157 025d 00       		.byte	0
 13158 025e 31       		.uleb128 0x31
 13159 025f 34       		.uleb128 0x34
 13160 0260 00       		.byte	0
 13161 0261 03       		.uleb128 0x3
 13162 0262 0E       		.uleb128 0xe
 13163 0263 3A       		.uleb128 0x3a
 13164 0264 0B       		.uleb128 0xb
 13165 0265 3B       		.uleb128 0x3b
 13166 0266 0B       		.uleb128 0xb
 13167 0267 49       		.uleb128 0x49
 13168 0268 13       		.uleb128 0x13
 13169 0269 00       		.byte	0
 13170 026a 00       		.byte	0
 13171 026b 32       		.uleb128 0x32
 13172 026c 2E       		.uleb128 0x2e
 13173 026d 01       		.byte	0x1
 13174 026e 31       		.uleb128 0x31
 13175 026f 13       		.uleb128 0x13
ARM GAS  C:\Users\jo\AppData\Local\Temp\ccMF9q4g.s 			page 236


 13176 0270 11       		.uleb128 0x11
 13177 0271 01       		.uleb128 0x1
 13178 0272 12       		.uleb128 0x12
 13179 0273 06       		.uleb128 0x6
 13180 0274 40       		.uleb128 0x40
 13181 0275 18       		.uleb128 0x18
 13182 0276 9742     		.uleb128 0x2117
 13183 0278 19       		.uleb128 0x19
 13184 0279 01       		.uleb128 0x1
 13185 027a 13       		.uleb128 0x13
 13186 027b 00       		.byte	0
 13187 027c 00       		.byte	0
 13188 027d 33       		.uleb128 0x33
 13189 027e 05       		.uleb128 0x5
 13190 027f 00       		.byte	0
 13191 0280 31       		.uleb128 0x31
 13192 0281 13       		.uleb128 0x13
 13193 0282 02       		.uleb128 0x2
 13194 0283 17       		.uleb128 0x17
 13195 0284 00       		.byte	0
 13196 0285 00       		.byte	0
 13197 0286 34       		.uleb128 0x34
 13198 0287 05       		.uleb128 0x5
 13199 0288 00       		.byte	0
 13200 0289 31       		.uleb128 0x31
 13201 028a 13       		.uleb128 0x13
 13202 028b 02       		.uleb128 0x2
 13203 028c 18       		.uleb128 0x18
 13204 028d 00       		.byte	0
 13205 028e 00       		.byte	0
 13206 028f 35       		.uleb128 0x35
 13207 0290 34       		.uleb128 0x34
 13208 0291 00       		.byte	0
 13209 0292 31       		.uleb128 0x31
 13210 0293 13       		.uleb128 0x13
 13211 0294 02       		.uleb128 0x2
 13212 0295 18       		.uleb128 0x18
 13213 0296 00       		.byte	0
 13214 0297 00       		.byte	0
 13215 0298 36       		.uleb128 0x36
 13216 0299 05       		.uleb128 0x5
 13217 029a 00       		.byte	0
 13218 029b 31       		.uleb128 0x31
 13219 029c 13       		.uleb128 0x13
 13220 029d 00       		.byte	0
 13221 029e 00       		.byte	0
 13222 029f 37       		.uleb128 0x37
 13223 02a0 898201   		.uleb128 0x4109
 13224 02a3 01       		.byte	0x1
 13225 02a4 11       		.uleb128 0x11
 13226 02a5 01       		.uleb128 0x1
 13227 02a6 31       		.uleb128 0x31
 13228 02a7 13       		.uleb128 0x13
 13229 02a8 00       		.byte	0
 13230 02a9 00       		.byte	0
 13231 02aa 38       		.uleb128 0x38
 13232 02ab 8A8201   		.uleb128 0x410a
ARM GAS  C:\Users\jo\AppData\Local\Temp\ccMF9q4g.s 			page 237


 13233 02ae 00       		.byte	0
 13234 02af 02       		.uleb128 0x2
 13235 02b0 18       		.uleb128 0x18
 13236 02b1 9142     		.uleb128 0x2111
 13237 02b3 18       		.uleb128 0x18
 13238 02b4 00       		.byte	0
 13239 02b5 00       		.byte	0
 13240 02b6 39       		.uleb128 0x39
 13241 02b7 34       		.uleb128 0x34
 13242 02b8 00       		.byte	0
 13243 02b9 31       		.uleb128 0x31
 13244 02ba 13       		.uleb128 0x13
 13245 02bb 02       		.uleb128 0x2
 13246 02bc 17       		.uleb128 0x17
 13247 02bd 00       		.byte	0
 13248 02be 00       		.byte	0
 13249 02bf 3A       		.uleb128 0x3a
 13250 02c0 0B       		.uleb128 0xb
 13251 02c1 01       		.byte	0x1
 13252 02c2 11       		.uleb128 0x11
 13253 02c3 01       		.uleb128 0x1
 13254 02c4 12       		.uleb128 0x12
 13255 02c5 06       		.uleb128 0x6
 13256 02c6 01       		.uleb128 0x1
 13257 02c7 13       		.uleb128 0x13
 13258 02c8 00       		.byte	0
 13259 02c9 00       		.byte	0
 13260 02ca 3B       		.uleb128 0x3b
 13261 02cb 34       		.uleb128 0x34
 13262 02cc 00       		.byte	0
 13263 02cd 31       		.uleb128 0x31
 13264 02ce 13       		.uleb128 0x13
 13265 02cf 00       		.byte	0
 13266 02d0 00       		.byte	0
 13267 02d1 3C       		.uleb128 0x3c
 13268 02d2 898201   		.uleb128 0x4109
 13269 02d5 01       		.byte	0x1
 13270 02d6 11       		.uleb128 0x11
 13271 02d7 01       		.uleb128 0x1
 13272 02d8 31       		.uleb128 0x31
 13273 02d9 13       		.uleb128 0x13
 13274 02da 01       		.uleb128 0x1
 13275 02db 13       		.uleb128 0x13
 13276 02dc 00       		.byte	0
 13277 02dd 00       		.byte	0
 13278 02de 3D       		.uleb128 0x3d
 13279 02df 0B       		.uleb128 0xb
 13280 02e0 01       		.byte	0x1
 13281 02e1 11       		.uleb128 0x11
 13282 02e2 01       		.uleb128 0x1
 13283 02e3 12       		.uleb128 0x12
 13284 02e4 06       		.uleb128 0x6
 13285 02e5 00       		.byte	0
 13286 02e6 00       		.byte	0
 13287 02e7 3E       		.uleb128 0x3e
 13288 02e8 898201   		.uleb128 0x4109
 13289 02eb 00       		.byte	0
ARM GAS  C:\Users\jo\AppData\Local\Temp\ccMF9q4g.s 			page 238


 13290 02ec 11       		.uleb128 0x11
 13291 02ed 01       		.uleb128 0x1
 13292 02ee 31       		.uleb128 0x31
 13293 02ef 13       		.uleb128 0x13
 13294 02f0 00       		.byte	0
 13295 02f1 00       		.byte	0
 13296 02f2 3F       		.uleb128 0x3f
 13297 02f3 2E       		.uleb128 0x2e
 13298 02f4 01       		.byte	0x1
 13299 02f5 3F       		.uleb128 0x3f
 13300 02f6 19       		.uleb128 0x19
 13301 02f7 03       		.uleb128 0x3
 13302 02f8 0E       		.uleb128 0xe
 13303 02f9 3A       		.uleb128 0x3a
 13304 02fa 0B       		.uleb128 0xb
 13305 02fb 3B       		.uleb128 0x3b
 13306 02fc 05       		.uleb128 0x5
 13307 02fd 27       		.uleb128 0x27
 13308 02fe 19       		.uleb128 0x19
 13309 02ff 49       		.uleb128 0x49
 13310 0300 13       		.uleb128 0x13
 13311 0301 11       		.uleb128 0x11
 13312 0302 01       		.uleb128 0x1
 13313 0303 12       		.uleb128 0x12
 13314 0304 06       		.uleb128 0x6
 13315 0305 40       		.uleb128 0x40
 13316 0306 18       		.uleb128 0x18
 13317 0307 9742     		.uleb128 0x2117
 13318 0309 19       		.uleb128 0x19
 13319 030a 01       		.uleb128 0x1
 13320 030b 13       		.uleb128 0x13
 13321 030c 00       		.byte	0
 13322 030d 00       		.byte	0
 13323 030e 40       		.uleb128 0x40
 13324 030f 05       		.uleb128 0x5
 13325 0310 00       		.byte	0
 13326 0311 03       		.uleb128 0x3
 13327 0312 08       		.uleb128 0x8
 13328 0313 3A       		.uleb128 0x3a
 13329 0314 0B       		.uleb128 0xb
 13330 0315 3B       		.uleb128 0x3b
 13331 0316 05       		.uleb128 0x5
 13332 0317 49       		.uleb128 0x49
 13333 0318 13       		.uleb128 0x13
 13334 0319 02       		.uleb128 0x2
 13335 031a 17       		.uleb128 0x17
 13336 031b 00       		.byte	0
 13337 031c 00       		.byte	0
 13338 031d 41       		.uleb128 0x41
 13339 031e 34       		.uleb128 0x34
 13340 031f 00       		.byte	0
 13341 0320 03       		.uleb128 0x3
 13342 0321 0E       		.uleb128 0xe
 13343 0322 3A       		.uleb128 0x3a
 13344 0323 0B       		.uleb128 0xb
 13345 0324 3B       		.uleb128 0x3b
 13346 0325 05       		.uleb128 0x5
ARM GAS  C:\Users\jo\AppData\Local\Temp\ccMF9q4g.s 			page 239


 13347 0326 49       		.uleb128 0x49
 13348 0327 13       		.uleb128 0x13
 13349 0328 02       		.uleb128 0x2
 13350 0329 17       		.uleb128 0x17
 13351 032a 00       		.byte	0
 13352 032b 00       		.byte	0
 13353 032c 42       		.uleb128 0x42
 13354 032d 34       		.uleb128 0x34
 13355 032e 00       		.byte	0
 13356 032f 03       		.uleb128 0x3
 13357 0330 08       		.uleb128 0x8
 13358 0331 3A       		.uleb128 0x3a
 13359 0332 0B       		.uleb128 0xb
 13360 0333 3B       		.uleb128 0x3b
 13361 0334 05       		.uleb128 0x5
 13362 0335 49       		.uleb128 0x49
 13363 0336 13       		.uleb128 0x13
 13364 0337 02       		.uleb128 0x2
 13365 0338 17       		.uleb128 0x17
 13366 0339 00       		.byte	0
 13367 033a 00       		.byte	0
 13368 033b 43       		.uleb128 0x43
 13369 033c 1D       		.uleb128 0x1d
 13370 033d 01       		.byte	0x1
 13371 033e 31       		.uleb128 0x31
 13372 033f 13       		.uleb128 0x13
 13373 0340 11       		.uleb128 0x11
 13374 0341 01       		.uleb128 0x1
 13375 0342 12       		.uleb128 0x12
 13376 0343 06       		.uleb128 0x6
 13377 0344 58       		.uleb128 0x58
 13378 0345 0B       		.uleb128 0xb
 13379 0346 59       		.uleb128 0x59
 13380 0347 05       		.uleb128 0x5
 13381 0348 00       		.byte	0
 13382 0349 00       		.byte	0
 13383 034a 44       		.uleb128 0x44
 13384 034b 05       		.uleb128 0x5
 13385 034c 00       		.byte	0
 13386 034d 03       		.uleb128 0x3
 13387 034e 08       		.uleb128 0x8
 13388 034f 3A       		.uleb128 0x3a
 13389 0350 0B       		.uleb128 0xb
 13390 0351 3B       		.uleb128 0x3b
 13391 0352 05       		.uleb128 0x5
 13392 0353 49       		.uleb128 0x49
 13393 0354 13       		.uleb128 0x13
 13394 0355 02       		.uleb128 0x2
 13395 0356 18       		.uleb128 0x18
 13396 0357 00       		.byte	0
 13397 0358 00       		.byte	0
 13398 0359 45       		.uleb128 0x45
 13399 035a 05       		.uleb128 0x5
 13400 035b 00       		.byte	0
 13401 035c 03       		.uleb128 0x3
 13402 035d 0E       		.uleb128 0xe
 13403 035e 3A       		.uleb128 0x3a
ARM GAS  C:\Users\jo\AppData\Local\Temp\ccMF9q4g.s 			page 240


 13404 035f 0B       		.uleb128 0xb
 13405 0360 3B       		.uleb128 0x3b
 13406 0361 05       		.uleb128 0x5
 13407 0362 49       		.uleb128 0x49
 13408 0363 13       		.uleb128 0x13
 13409 0364 02       		.uleb128 0x2
 13410 0365 17       		.uleb128 0x17
 13411 0366 00       		.byte	0
 13412 0367 00       		.byte	0
 13413 0368 46       		.uleb128 0x46
 13414 0369 1D       		.uleb128 0x1d
 13415 036a 01       		.byte	0x1
 13416 036b 31       		.uleb128 0x31
 13417 036c 13       		.uleb128 0x13
 13418 036d 52       		.uleb128 0x52
 13419 036e 01       		.uleb128 0x1
 13420 036f 55       		.uleb128 0x55
 13421 0370 17       		.uleb128 0x17
 13422 0371 58       		.uleb128 0x58
 13423 0372 0B       		.uleb128 0xb
 13424 0373 59       		.uleb128 0x59
 13425 0374 05       		.uleb128 0x5
 13426 0375 01       		.uleb128 0x1
 13427 0376 13       		.uleb128 0x13
 13428 0377 00       		.byte	0
 13429 0378 00       		.byte	0
 13430 0379 47       		.uleb128 0x47
 13431 037a 1D       		.uleb128 0x1d
 13432 037b 01       		.byte	0x1
 13433 037c 31       		.uleb128 0x31
 13434 037d 13       		.uleb128 0x13
 13435 037e 11       		.uleb128 0x11
 13436 037f 01       		.uleb128 0x1
 13437 0380 12       		.uleb128 0x12
 13438 0381 06       		.uleb128 0x6
 13439 0382 58       		.uleb128 0x58
 13440 0383 0B       		.uleb128 0xb
 13441 0384 59       		.uleb128 0x59
 13442 0385 05       		.uleb128 0x5
 13443 0386 01       		.uleb128 0x1
 13444 0387 13       		.uleb128 0x13
 13445 0388 00       		.byte	0
 13446 0389 00       		.byte	0
 13447 038a 48       		.uleb128 0x48
 13448 038b 05       		.uleb128 0x5
 13449 038c 00       		.byte	0
 13450 038d 31       		.uleb128 0x31
 13451 038e 13       		.uleb128 0x13
 13452 038f 1C       		.uleb128 0x1c
 13453 0390 0B       		.uleb128 0xb
 13454 0391 00       		.byte	0
 13455 0392 00       		.byte	0
 13456 0393 49       		.uleb128 0x49
 13457 0394 898201   		.uleb128 0x4109
 13458 0397 00       		.byte	0
 13459 0398 11       		.uleb128 0x11
 13460 0399 01       		.uleb128 0x1
ARM GAS  C:\Users\jo\AppData\Local\Temp\ccMF9q4g.s 			page 241


 13461 039a 9542     		.uleb128 0x2115
 13462 039c 19       		.uleb128 0x19
 13463 039d 31       		.uleb128 0x31
 13464 039e 13       		.uleb128 0x13
 13465 039f 00       		.byte	0
 13466 03a0 00       		.byte	0
 13467 03a1 4A       		.uleb128 0x4a
 13468 03a2 1D       		.uleb128 0x1d
 13469 03a3 01       		.byte	0x1
 13470 03a4 31       		.uleb128 0x31
 13471 03a5 13       		.uleb128 0x13
 13472 03a6 52       		.uleb128 0x52
 13473 03a7 01       		.uleb128 0x1
 13474 03a8 55       		.uleb128 0x55
 13475 03a9 17       		.uleb128 0x17
 13476 03aa 58       		.uleb128 0x58
 13477 03ab 0B       		.uleb128 0xb
 13478 03ac 59       		.uleb128 0x59
 13479 03ad 05       		.uleb128 0x5
 13480 03ae 00       		.byte	0
 13481 03af 00       		.byte	0
 13482 03b0 4B       		.uleb128 0x4b
 13483 03b1 898201   		.uleb128 0x4109
 13484 03b4 01       		.byte	0x1
 13485 03b5 11       		.uleb128 0x11
 13486 03b6 01       		.uleb128 0x1
 13487 03b7 9542     		.uleb128 0x2115
 13488 03b9 19       		.uleb128 0x19
 13489 03ba 31       		.uleb128 0x31
 13490 03bb 13       		.uleb128 0x13
 13491 03bc 00       		.byte	0
 13492 03bd 00       		.byte	0
 13493 03be 4C       		.uleb128 0x4c
 13494 03bf 2E       		.uleb128 0x2e
 13495 03c0 01       		.byte	0x1
 13496 03c1 3F       		.uleb128 0x3f
 13497 03c2 19       		.uleb128 0x19
 13498 03c3 03       		.uleb128 0x3
 13499 03c4 0E       		.uleb128 0xe
 13500 03c5 3A       		.uleb128 0x3a
 13501 03c6 0B       		.uleb128 0xb
 13502 03c7 3B       		.uleb128 0x3b
 13503 03c8 05       		.uleb128 0x5
 13504 03c9 27       		.uleb128 0x27
 13505 03ca 19       		.uleb128 0x19
 13506 03cb 11       		.uleb128 0x11
 13507 03cc 01       		.uleb128 0x1
 13508 03cd 12       		.uleb128 0x12
 13509 03ce 06       		.uleb128 0x6
 13510 03cf 40       		.uleb128 0x40
 13511 03d0 18       		.uleb128 0x18
 13512 03d1 9742     		.uleb128 0x2117
 13513 03d3 19       		.uleb128 0x19
 13514 03d4 01       		.uleb128 0x1
 13515 03d5 13       		.uleb128 0x13
 13516 03d6 00       		.byte	0
 13517 03d7 00       		.byte	0
ARM GAS  C:\Users\jo\AppData\Local\Temp\ccMF9q4g.s 			page 242


 13518 03d8 4D       		.uleb128 0x4d
 13519 03d9 2E       		.uleb128 0x2e
 13520 03da 01       		.byte	0x1
 13521 03db 3F       		.uleb128 0x3f
 13522 03dc 19       		.uleb128 0x19
 13523 03dd 03       		.uleb128 0x3
 13524 03de 0E       		.uleb128 0xe
 13525 03df 3A       		.uleb128 0x3a
 13526 03e0 0B       		.uleb128 0xb
 13527 03e1 3B       		.uleb128 0x3b
 13528 03e2 0B       		.uleb128 0xb
 13529 03e3 27       		.uleb128 0x27
 13530 03e4 19       		.uleb128 0x19
 13531 03e5 49       		.uleb128 0x49
 13532 03e6 13       		.uleb128 0x13
 13533 03e7 11       		.uleb128 0x11
 13534 03e8 01       		.uleb128 0x1
 13535 03e9 12       		.uleb128 0x12
 13536 03ea 06       		.uleb128 0x6
 13537 03eb 40       		.uleb128 0x40
 13538 03ec 18       		.uleb128 0x18
 13539 03ed 9742     		.uleb128 0x2117
 13540 03ef 19       		.uleb128 0x19
 13541 03f0 01       		.uleb128 0x1
 13542 03f1 13       		.uleb128 0x13
 13543 03f2 00       		.byte	0
 13544 03f3 00       		.byte	0
 13545 03f4 4E       		.uleb128 0x4e
 13546 03f5 34       		.uleb128 0x34
 13547 03f6 00       		.byte	0
 13548 03f7 03       		.uleb128 0x3
 13549 03f8 08       		.uleb128 0x8
 13550 03f9 3A       		.uleb128 0x3a
 13551 03fa 0B       		.uleb128 0xb
 13552 03fb 3B       		.uleb128 0x3b
 13553 03fc 05       		.uleb128 0x5
 13554 03fd 49       		.uleb128 0x49
 13555 03fe 13       		.uleb128 0x13
 13556 03ff 02       		.uleb128 0x2
 13557 0400 18       		.uleb128 0x18
 13558 0401 00       		.byte	0
 13559 0402 00       		.byte	0
 13560 0403 4F       		.uleb128 0x4f
 13561 0404 2E       		.uleb128 0x2e
 13562 0405 01       		.byte	0x1
 13563 0406 03       		.uleb128 0x3
 13564 0407 0E       		.uleb128 0xe
 13565 0408 3A       		.uleb128 0x3a
 13566 0409 0B       		.uleb128 0xb
 13567 040a 3B       		.uleb128 0x3b
 13568 040b 05       		.uleb128 0x5
 13569 040c 27       		.uleb128 0x27
 13570 040d 19       		.uleb128 0x19
 13571 040e 49       		.uleb128 0x49
 13572 040f 13       		.uleb128 0x13
 13573 0410 11       		.uleb128 0x11
 13574 0411 01       		.uleb128 0x1
ARM GAS  C:\Users\jo\AppData\Local\Temp\ccMF9q4g.s 			page 243


 13575 0412 12       		.uleb128 0x12
 13576 0413 06       		.uleb128 0x6
 13577 0414 40       		.uleb128 0x40
 13578 0415 18       		.uleb128 0x18
 13579 0416 9742     		.uleb128 0x2117
 13580 0418 19       		.uleb128 0x19
 13581 0419 01       		.uleb128 0x1
 13582 041a 13       		.uleb128 0x13
 13583 041b 00       		.byte	0
 13584 041c 00       		.byte	0
 13585 041d 50       		.uleb128 0x50
 13586 041e 34       		.uleb128 0x34
 13587 041f 00       		.byte	0
 13588 0420 34       		.uleb128 0x34
 13589 0421 19       		.uleb128 0x19
 13590 0422 49       		.uleb128 0x49
 13591 0423 13       		.uleb128 0x13
 13592 0424 02       		.uleb128 0x2
 13593 0425 17       		.uleb128 0x17
 13594 0426 00       		.byte	0
 13595 0427 00       		.byte	0
 13596 0428 51       		.uleb128 0x51
 13597 0429 34       		.uleb128 0x34
 13598 042a 00       		.byte	0
 13599 042b 03       		.uleb128 0x3
 13600 042c 0E       		.uleb128 0xe
 13601 042d 3A       		.uleb128 0x3a
 13602 042e 0B       		.uleb128 0xb
 13603 042f 3B       		.uleb128 0x3b
 13604 0430 05       		.uleb128 0x5
 13605 0431 49       		.uleb128 0x49
 13606 0432 13       		.uleb128 0x13
 13607 0433 02       		.uleb128 0x2
 13608 0434 18       		.uleb128 0x18
 13609 0435 00       		.byte	0
 13610 0436 00       		.byte	0
 13611 0437 52       		.uleb128 0x52
 13612 0438 0B       		.uleb128 0xb
 13613 0439 01       		.byte	0x1
 13614 043a 55       		.uleb128 0x55
 13615 043b 17       		.uleb128 0x17
 13616 043c 00       		.byte	0
 13617 043d 00       		.byte	0
 13618 043e 53       		.uleb128 0x53
 13619 043f 0B       		.uleb128 0xb
 13620 0440 01       		.byte	0x1
 13621 0441 55       		.uleb128 0x55
 13622 0442 17       		.uleb128 0x17
 13623 0443 01       		.uleb128 0x1
 13624 0444 13       		.uleb128 0x13
 13625 0445 00       		.byte	0
 13626 0446 00       		.byte	0
 13627 0447 54       		.uleb128 0x54
 13628 0448 21       		.uleb128 0x21
 13629 0449 00       		.byte	0
 13630 044a 49       		.uleb128 0x49
 13631 044b 13       		.uleb128 0x13
ARM GAS  C:\Users\jo\AppData\Local\Temp\ccMF9q4g.s 			page 244


 13632 044c 2F       		.uleb128 0x2f
 13633 044d 13       		.uleb128 0x13
 13634 044e 00       		.byte	0
 13635 044f 00       		.byte	0
 13636 0450 55       		.uleb128 0x55
 13637 0451 34       		.uleb128 0x34
 13638 0452 00       		.byte	0
 13639 0453 03       		.uleb128 0x3
 13640 0454 0E       		.uleb128 0xe
 13641 0455 49       		.uleb128 0x49
 13642 0456 13       		.uleb128 0x13
 13643 0457 34       		.uleb128 0x34
 13644 0458 19       		.uleb128 0x19
 13645 0459 02       		.uleb128 0x2
 13646 045a 18       		.uleb128 0x18
 13647 045b 00       		.byte	0
 13648 045c 00       		.byte	0
 13649 045d 56       		.uleb128 0x56
 13650 045e 898201   		.uleb128 0x4109
 13651 0461 01       		.byte	0x1
 13652 0462 11       		.uleb128 0x11
 13653 0463 01       		.uleb128 0x1
 13654 0464 00       		.byte	0
 13655 0465 00       		.byte	0
 13656 0466 57       		.uleb128 0x57
 13657 0467 04       		.uleb128 0x4
 13658 0468 01       		.byte	0x1
 13659 0469 03       		.uleb128 0x3
 13660 046a 0E       		.uleb128 0xe
 13661 046b 0B       		.uleb128 0xb
 13662 046c 0B       		.uleb128 0xb
 13663 046d 3A       		.uleb128 0x3a
 13664 046e 0B       		.uleb128 0xb
 13665 046f 3B       		.uleb128 0x3b
 13666 0470 05       		.uleb128 0x5
 13667 0471 01       		.uleb128 0x1
 13668 0472 13       		.uleb128 0x13
 13669 0473 00       		.byte	0
 13670 0474 00       		.byte	0
 13671 0475 58       		.uleb128 0x58
 13672 0476 2E       		.uleb128 0x2e
 13673 0477 01       		.byte	0x1
 13674 0478 03       		.uleb128 0x3
 13675 0479 08       		.uleb128 0x8
 13676 047a 3A       		.uleb128 0x3a
 13677 047b 0B       		.uleb128 0xb
 13678 047c 3B       		.uleb128 0x3b
 13679 047d 05       		.uleb128 0x5
 13680 047e 27       		.uleb128 0x27
 13681 047f 19       		.uleb128 0x19
 13682 0480 20       		.uleb128 0x20
 13683 0481 0B       		.uleb128 0xb
 13684 0482 01       		.uleb128 0x1
 13685 0483 13       		.uleb128 0x13
 13686 0484 00       		.byte	0
 13687 0485 00       		.byte	0
 13688 0486 59       		.uleb128 0x59
ARM GAS  C:\Users\jo\AppData\Local\Temp\ccMF9q4g.s 			page 245


 13689 0487 898201   		.uleb128 0x4109
 13690 048a 01       		.byte	0x1
 13691 048b 11       		.uleb128 0x11
 13692 048c 01       		.uleb128 0x1
 13693 048d 9542     		.uleb128 0x2115
 13694 048f 19       		.uleb128 0x19
 13695 0490 31       		.uleb128 0x31
 13696 0491 13       		.uleb128 0x13
 13697 0492 01       		.uleb128 0x1
 13698 0493 13       		.uleb128 0x13
 13699 0494 00       		.byte	0
 13700 0495 00       		.byte	0
 13701 0496 5A       		.uleb128 0x5a
 13702 0497 34       		.uleb128 0x34
 13703 0498 00       		.byte	0
 13704 0499 03       		.uleb128 0x3
 13705 049a 0E       		.uleb128 0xe
 13706 049b 3A       		.uleb128 0x3a
 13707 049c 0B       		.uleb128 0xb
 13708 049d 3B       		.uleb128 0x3b
 13709 049e 0B       		.uleb128 0xb
 13710 049f 49       		.uleb128 0x49
 13711 04a0 13       		.uleb128 0x13
 13712 04a1 3F       		.uleb128 0x3f
 13713 04a2 19       		.uleb128 0x19
 13714 04a3 3C       		.uleb128 0x3c
 13715 04a4 19       		.uleb128 0x19
 13716 04a5 00       		.byte	0
 13717 04a6 00       		.byte	0
 13718 04a7 5B       		.uleb128 0x5b
 13719 04a8 34       		.uleb128 0x34
 13720 04a9 00       		.byte	0
 13721 04aa 03       		.uleb128 0x3
 13722 04ab 0E       		.uleb128 0xe
 13723 04ac 3A       		.uleb128 0x3a
 13724 04ad 0B       		.uleb128 0xb
 13725 04ae 3B       		.uleb128 0x3b
 13726 04af 05       		.uleb128 0x5
 13727 04b0 49       		.uleb128 0x49
 13728 04b1 13       		.uleb128 0x13
 13729 04b2 3F       		.uleb128 0x3f
 13730 04b3 19       		.uleb128 0x19
 13731 04b4 02       		.uleb128 0x2
 13732 04b5 18       		.uleb128 0x18
 13733 04b6 00       		.byte	0
 13734 04b7 00       		.byte	0
 13735 04b8 5C       		.uleb128 0x5c
 13736 04b9 34       		.uleb128 0x34
 13737 04ba 00       		.byte	0
 13738 04bb 03       		.uleb128 0x3
 13739 04bc 0E       		.uleb128 0xe
 13740 04bd 3A       		.uleb128 0x3a
 13741 04be 0B       		.uleb128 0xb
 13742 04bf 3B       		.uleb128 0x3b
 13743 04c0 05       		.uleb128 0x5
 13744 04c1 49       		.uleb128 0x49
 13745 04c2 13       		.uleb128 0x13
ARM GAS  C:\Users\jo\AppData\Local\Temp\ccMF9q4g.s 			page 246


 13746 04c3 3F       		.uleb128 0x3f
 13747 04c4 19       		.uleb128 0x19
 13748 04c5 3C       		.uleb128 0x3c
 13749 04c6 19       		.uleb128 0x19
 13750 04c7 00       		.byte	0
 13751 04c8 00       		.byte	0
 13752 04c9 5D       		.uleb128 0x5d
 13753 04ca 34       		.uleb128 0x34
 13754 04cb 00       		.byte	0
 13755 04cc 03       		.uleb128 0x3
 13756 04cd 08       		.uleb128 0x8
 13757 04ce 3A       		.uleb128 0x3a
 13758 04cf 0B       		.uleb128 0xb
 13759 04d0 3B       		.uleb128 0x3b
 13760 04d1 05       		.uleb128 0x5
 13761 04d2 49       		.uleb128 0x49
 13762 04d3 13       		.uleb128 0x13
 13763 04d4 3F       		.uleb128 0x3f
 13764 04d5 19       		.uleb128 0x19
 13765 04d6 3C       		.uleb128 0x3c
 13766 04d7 19       		.uleb128 0x19
 13767 04d8 00       		.byte	0
 13768 04d9 00       		.byte	0
 13769 04da 5E       		.uleb128 0x5e
 13770 04db 2E       		.uleb128 0x2e
 13771 04dc 01       		.byte	0x1
 13772 04dd 3F       		.uleb128 0x3f
 13773 04de 19       		.uleb128 0x19
 13774 04df 03       		.uleb128 0x3
 13775 04e0 0E       		.uleb128 0xe
 13776 04e1 3A       		.uleb128 0x3a
 13777 04e2 0B       		.uleb128 0xb
 13778 04e3 3B       		.uleb128 0x3b
 13779 04e4 0B       		.uleb128 0xb
 13780 04e5 27       		.uleb128 0x27
 13781 04e6 19       		.uleb128 0x19
 13782 04e7 49       		.uleb128 0x49
 13783 04e8 13       		.uleb128 0x13
 13784 04e9 3C       		.uleb128 0x3c
 13785 04ea 19       		.uleb128 0x19
 13786 04eb 01       		.uleb128 0x1
 13787 04ec 13       		.uleb128 0x13
 13788 04ed 00       		.byte	0
 13789 04ee 00       		.byte	0
 13790 04ef 5F       		.uleb128 0x5f
 13791 04f0 2E       		.uleb128 0x2e
 13792 04f1 01       		.byte	0x1
 13793 04f2 3F       		.uleb128 0x3f
 13794 04f3 19       		.uleb128 0x19
 13795 04f4 03       		.uleb128 0x3
 13796 04f5 0E       		.uleb128 0xe
 13797 04f6 3A       		.uleb128 0x3a
 13798 04f7 0B       		.uleb128 0xb
 13799 04f8 3B       		.uleb128 0x3b
 13800 04f9 0B       		.uleb128 0xb
 13801 04fa 27       		.uleb128 0x27
 13802 04fb 19       		.uleb128 0x19
ARM GAS  C:\Users\jo\AppData\Local\Temp\ccMF9q4g.s 			page 247


 13803 04fc 3C       		.uleb128 0x3c
 13804 04fd 19       		.uleb128 0x19
 13805 04fe 01       		.uleb128 0x1
 13806 04ff 13       		.uleb128 0x13
 13807 0500 00       		.byte	0
 13808 0501 00       		.byte	0
 13809 0502 60       		.uleb128 0x60
 13810 0503 2E       		.uleb128 0x2e
 13811 0504 01       		.byte	0x1
 13812 0505 3F       		.uleb128 0x3f
 13813 0506 19       		.uleb128 0x19
 13814 0507 03       		.uleb128 0x3
 13815 0508 0E       		.uleb128 0xe
 13816 0509 27       		.uleb128 0x27
 13817 050a 19       		.uleb128 0x19
 13818 050b 49       		.uleb128 0x49
 13819 050c 13       		.uleb128 0x13
 13820 050d 34       		.uleb128 0x34
 13821 050e 19       		.uleb128 0x19
 13822 050f 3C       		.uleb128 0x3c
 13823 0510 19       		.uleb128 0x19
 13824 0511 01       		.uleb128 0x1
 13825 0512 13       		.uleb128 0x13
 13826 0513 00       		.byte	0
 13827 0514 00       		.byte	0
 13828 0515 61       		.uleb128 0x61
 13829 0516 2E       		.uleb128 0x2e
 13830 0517 01       		.byte	0x1
 13831 0518 3F       		.uleb128 0x3f
 13832 0519 19       		.uleb128 0x19
 13833 051a 03       		.uleb128 0x3
 13834 051b 0E       		.uleb128 0xe
 13835 051c 3A       		.uleb128 0x3a
 13836 051d 0B       		.uleb128 0xb
 13837 051e 3B       		.uleb128 0x3b
 13838 051f 05       		.uleb128 0x5
 13839 0520 27       		.uleb128 0x27
 13840 0521 19       		.uleb128 0x19
 13841 0522 49       		.uleb128 0x49
 13842 0523 13       		.uleb128 0x13
 13843 0524 3C       		.uleb128 0x3c
 13844 0525 19       		.uleb128 0x19
 13845 0526 01       		.uleb128 0x1
 13846 0527 13       		.uleb128 0x13
 13847 0528 00       		.byte	0
 13848 0529 00       		.byte	0
 13849 052a 62       		.uleb128 0x62
 13850 052b 2E       		.uleb128 0x2e
 13851 052c 00       		.byte	0
 13852 052d 3F       		.uleb128 0x3f
 13853 052e 19       		.uleb128 0x19
 13854 052f 03       		.uleb128 0x3
 13855 0530 0E       		.uleb128 0xe
 13856 0531 3A       		.uleb128 0x3a
 13857 0532 0B       		.uleb128 0xb
 13858 0533 3B       		.uleb128 0x3b
 13859 0534 0B       		.uleb128 0xb
ARM GAS  C:\Users\jo\AppData\Local\Temp\ccMF9q4g.s 			page 248


 13860 0535 27       		.uleb128 0x27
 13861 0536 19       		.uleb128 0x19
 13862 0537 49       		.uleb128 0x49
 13863 0538 13       		.uleb128 0x13
 13864 0539 3C       		.uleb128 0x3c
 13865 053a 19       		.uleb128 0x19
 13866 053b 00       		.byte	0
 13867 053c 00       		.byte	0
 13868 053d 63       		.uleb128 0x63
 13869 053e 2E       		.uleb128 0x2e
 13870 053f 01       		.byte	0x1
 13871 0540 3F       		.uleb128 0x3f
 13872 0541 19       		.uleb128 0x19
 13873 0542 03       		.uleb128 0x3
 13874 0543 0E       		.uleb128 0xe
 13875 0544 3A       		.uleb128 0x3a
 13876 0545 0B       		.uleb128 0xb
 13877 0546 3B       		.uleb128 0x3b
 13878 0547 0B       		.uleb128 0xb
 13879 0548 6E       		.uleb128 0x6e
 13880 0549 0E       		.uleb128 0xe
 13881 054a 27       		.uleb128 0x27
 13882 054b 19       		.uleb128 0x19
 13883 054c 49       		.uleb128 0x49
 13884 054d 13       		.uleb128 0x13
 13885 054e 3C       		.uleb128 0x3c
 13886 054f 19       		.uleb128 0x19
 13887 0550 01       		.uleb128 0x1
 13888 0551 13       		.uleb128 0x13
 13889 0552 00       		.byte	0
 13890 0553 00       		.byte	0
 13891 0554 64       		.uleb128 0x64
 13892 0555 2E       		.uleb128 0x2e
 13893 0556 01       		.byte	0x1
 13894 0557 3F       		.uleb128 0x3f
 13895 0558 19       		.uleb128 0x19
 13896 0559 03       		.uleb128 0x3
 13897 055a 0E       		.uleb128 0xe
 13898 055b 3A       		.uleb128 0x3a
 13899 055c 0B       		.uleb128 0xb
 13900 055d 3B       		.uleb128 0x3b
 13901 055e 0B       		.uleb128 0xb
 13902 055f 27       		.uleb128 0x27
 13903 0560 19       		.uleb128 0x19
 13904 0561 49       		.uleb128 0x49
 13905 0562 13       		.uleb128 0x13
 13906 0563 3C       		.uleb128 0x3c
 13907 0564 19       		.uleb128 0x19
 13908 0565 00       		.byte	0
 13909 0566 00       		.byte	0
 13910 0567 00       		.byte	0
 13911              		.section	.debug_loc,"",%progbits
 13912              	.Ldebug_loc0:
 13913              	.LLST0:
 13914 0000 00000000 		.4byte	.LVL0
 13915 0004 0A000000 		.4byte	.LVL1
 13916 0008 0100     		.2byte	0x1
ARM GAS  C:\Users\jo\AppData\Local\Temp\ccMF9q4g.s 			page 249


 13917 000a 50       		.byte	0x50
 13918 000b 0A000000 		.4byte	.LVL1
 13919 000f 24000000 		.4byte	.LFE318
 13920 0013 0400     		.2byte	0x4
 13921 0015 F3       		.byte	0xf3
 13922 0016 01       		.uleb128 0x1
 13923 0017 50       		.byte	0x50
 13924 0018 9F       		.byte	0x9f
 13925 0019 00000000 		.4byte	0
 13926 001d 00000000 		.4byte	0
 13927              	.LLST1:
 13928 0021 08000000 		.4byte	.LVL3
 13929 0025 0E000000 		.4byte	.LVL4
 13930 0029 0100     		.2byte	0x1
 13931 002b 50       		.byte	0x50
 13932 002c 0E000000 		.4byte	.LVL4
 13933 0030 20000000 		.4byte	.LVL6
 13934 0034 0100     		.2byte	0x1
 13935 0036 54       		.byte	0x54
 13936 0037 20000000 		.4byte	.LVL6
 13937 003b 22000000 		.4byte	.LVL7
 13938 003f 0100     		.2byte	0x1
 13939 0041 50       		.byte	0x50
 13940 0042 22000000 		.4byte	.LVL7
 13941 0046 4C000000 		.4byte	.LFE258
 13942 004a 0100     		.2byte	0x1
 13943 004c 54       		.byte	0x54
 13944 004d 00000000 		.4byte	0
 13945 0051 00000000 		.4byte	0
 13946              	.LLST2:
 13947 0055 00000000 		.4byte	.LVL10
 13948 0059 06000000 		.4byte	.LVL11
 13949 005d 0100     		.2byte	0x1
 13950 005f 50       		.byte	0x50
 13951 0060 06000000 		.4byte	.LVL11
 13952 0064 44000000 		.4byte	.LFE259
 13953 0068 0100     		.2byte	0x1
 13954 006a 55       		.byte	0x55
 13955 006b 00000000 		.4byte	0
 13956 006f 00000000 		.4byte	0
 13957              	.LLST3:
 13958 0073 0A000000 		.4byte	.LVL12
 13959 0077 12000000 		.4byte	.LVL13
 13960 007b 0100     		.2byte	0x1
 13961 007d 50       		.byte	0x50
 13962 007e 12000000 		.4byte	.LVL13
 13963 0082 28000000 		.4byte	.LVL16
 13964 0086 0100     		.2byte	0x1
 13965 0088 54       		.byte	0x54
 13966 0089 28000000 		.4byte	.LVL16
 13967 008d 2A000000 		.4byte	.LVL17
 13968 0091 0100     		.2byte	0x1
 13969 0093 50       		.byte	0x50
 13970 0094 2A000000 		.4byte	.LVL17
 13971 0098 44000000 		.4byte	.LFE259
 13972 009c 0100     		.2byte	0x1
 13973 009e 54       		.byte	0x54
ARM GAS  C:\Users\jo\AppData\Local\Temp\ccMF9q4g.s 			page 250


 13974 009f 00000000 		.4byte	0
 13975 00a3 00000000 		.4byte	0
 13976              	.LLST4:
 13977 00a7 00000000 		.4byte	.LVL19
 13978 00ab 28000000 		.4byte	.LVL26
 13979 00af 0100     		.2byte	0x1
 13980 00b1 50       		.byte	0x50
 13981 00b2 28000000 		.4byte	.LVL26
 13982 00b6 74000000 		.4byte	.LVL34
 13983 00ba 0100     		.2byte	0x1
 13984 00bc 54       		.byte	0x54
 13985 00bd 74000000 		.4byte	.LVL34
 13986 00c1 80000000 		.4byte	.LFE260
 13987 00c5 0100     		.2byte	0x1
 13988 00c7 50       		.byte	0x50
 13989 00c8 00000000 		.4byte	0
 13990 00cc 00000000 		.4byte	0
 13991              	.LLST5:
 13992 00d0 00000000 		.4byte	.LVL19
 13993 00d4 12000000 		.4byte	.LVL21
 13994 00d8 0100     		.2byte	0x1
 13995 00da 51       		.byte	0x51
 13996 00db 12000000 		.4byte	.LVL21
 13997 00df 4A000000 		.4byte	.LVL30
 13998 00e3 0100     		.2byte	0x1
 13999 00e5 57       		.byte	0x57
 14000 00e6 4A000000 		.4byte	.LVL30
 14001 00ea 4E000000 		.4byte	.LVL31
 14002 00ee 0100     		.2byte	0x1
 14003 00f0 53       		.byte	0x53
 14004 00f1 4E000000 		.4byte	.LVL31
 14005 00f5 62000000 		.4byte	.LVL32
 14006 00f9 0100     		.2byte	0x1
 14007 00fb 57       		.byte	0x57
 14008 00fc 62000000 		.4byte	.LVL32
 14009 0100 74000000 		.4byte	.LVL34
 14010 0104 0100     		.2byte	0x1
 14011 0106 53       		.byte	0x53
 14012 0107 74000000 		.4byte	.LVL34
 14013 010b 80000000 		.4byte	.LFE260
 14014 010f 0100     		.2byte	0x1
 14015 0111 51       		.byte	0x51
 14016 0112 00000000 		.4byte	0
 14017 0116 00000000 		.4byte	0
 14018              	.LLST6:
 14019 011a 08000000 		.4byte	.LVL20
 14020 011e 12000000 		.4byte	.LVL21
 14021 0122 0200     		.2byte	0x2
 14022 0124 31       		.byte	0x31
 14023 0125 9F       		.byte	0x9f
 14024 0126 12000000 		.4byte	.LVL21
 14025 012a 22000000 		.4byte	.LVL24
 14026 012e 0100     		.2byte	0x1
 14027 0130 56       		.byte	0x56
 14028 0131 74000000 		.4byte	.LVL34
 14029 0135 80000000 		.4byte	.LFE260
 14030 0139 0200     		.2byte	0x2
ARM GAS  C:\Users\jo\AppData\Local\Temp\ccMF9q4g.s 			page 251


 14031 013b 31       		.byte	0x31
 14032 013c 9F       		.byte	0x9f
 14033 013d 00000000 		.4byte	0
 14034 0141 00000000 		.4byte	0
 14035              	.LLST7:
 14036 0145 08000000 		.4byte	.LVL20
 14037 0149 12000000 		.4byte	.LVL21
 14038 014d 0100     		.2byte	0x1
 14039 014f 51       		.byte	0x51
 14040 0150 12000000 		.4byte	.LVL21
 14041 0154 16000000 		.4byte	.LVL22
 14042 0158 0100     		.2byte	0x1
 14043 015a 53       		.byte	0x53
 14044 015b 1E000000 		.4byte	.LVL23
 14045 015f 22000000 		.4byte	.LVL24
 14046 0163 0100     		.2byte	0x1
 14047 0165 53       		.byte	0x53
 14048 0166 44000000 		.4byte	.LVL29
 14049 016a 74000000 		.4byte	.LVL34
 14050 016e 0100     		.2byte	0x1
 14051 0170 55       		.byte	0x55
 14052 0171 74000000 		.4byte	.LVL34
 14053 0175 80000000 		.4byte	.LFE260
 14054 0179 0100     		.2byte	0x1
 14055 017b 51       		.byte	0x51
 14056 017c 00000000 		.4byte	0
 14057 0180 00000000 		.4byte	0
 14058              	.LLST8:
 14059 0184 4E000000 		.4byte	.LVL31
 14060 0188 66000000 		.4byte	.LVL33
 14061 018c 0700     		.2byte	0x7
 14062 018e 77       		.byte	0x77
 14063 018f 00       		.sleb128 0
 14064 0190 3A       		.byte	0x3a
 14065 0191 1D       		.byte	0x1d
 14066 0192 23       		.byte	0x23
 14067 0193 30       		.uleb128 0x30
 14068 0194 9F       		.byte	0x9f
 14069 0195 00000000 		.4byte	0
 14070 0199 00000000 		.4byte	0
 14071              	.LLST9:
 14072 019d 24000000 		.4byte	.LVL25
 14073 01a1 28000000 		.4byte	.LVL26
 14074 01a5 0100     		.2byte	0x1
 14075 01a7 50       		.byte	0x50
 14076 01a8 28000000 		.4byte	.LVL26
 14077 01ac 74000000 		.4byte	.LVL34
 14078 01b0 0100     		.2byte	0x1
 14079 01b2 54       		.byte	0x54
 14080 01b3 00000000 		.4byte	0
 14081 01b7 00000000 		.4byte	0
 14082              	.LLST11:
 14083 01bb 24000000 		.4byte	.LVL25
 14084 01bf 32000000 		.4byte	.LVL27
 14085 01c3 0600     		.2byte	0x6
 14086 01c5 71       		.byte	0x71
 14087 01c6 00       		.sleb128 0
ARM GAS  C:\Users\jo\AppData\Local\Temp\ccMF9q4g.s 			page 252


 14088 01c7 76       		.byte	0x76
 14089 01c8 00       		.sleb128 0
 14090 01c9 22       		.byte	0x22
 14091 01ca 9F       		.byte	0x9f
 14092 01cb 00000000 		.4byte	0
 14093 01cf 00000000 		.4byte	0
 14094              	.LLST12:
 14095 01d3 00000000 		.4byte	.LVL35
 14096 01d7 10000000 		.4byte	.LVL36
 14097 01db 0100     		.2byte	0x1
 14098 01dd 50       		.byte	0x50
 14099 01de 10000000 		.4byte	.LVL36
 14100 01e2 30000000 		.4byte	.LFE261
 14101 01e6 0400     		.2byte	0x4
 14102 01e8 F3       		.byte	0xf3
 14103 01e9 01       		.uleb128 0x1
 14104 01ea 50       		.byte	0x50
 14105 01eb 9F       		.byte	0x9f
 14106 01ec 00000000 		.4byte	0
 14107 01f0 00000000 		.4byte	0
 14108              	.LLST13:
 14109 01f4 00000000 		.4byte	.LVL35
 14110 01f8 14000000 		.4byte	.LVL37
 14111 01fc 0200     		.2byte	0x2
 14112 01fe 30       		.byte	0x30
 14113 01ff 9F       		.byte	0x9f
 14114 0200 14000000 		.4byte	.LVL37
 14115 0204 22000000 		.4byte	.LVL40
 14116 0208 0100     		.2byte	0x1
 14117 020a 50       		.byte	0x50
 14118 020b 2C000000 		.4byte	.LVL41
 14119 020f 30000000 		.4byte	.LFE261
 14120 0213 0200     		.2byte	0x2
 14121 0215 30       		.byte	0x30
 14122 0216 9F       		.byte	0x9f
 14123 0217 00000000 		.4byte	0
 14124 021b 00000000 		.4byte	0
 14125              	.LLST14:
 14126 021f 00000000 		.4byte	.LVL42
 14127 0223 0A000000 		.4byte	.LVL45
 14128 0227 0100     		.2byte	0x1
 14129 0229 50       		.byte	0x50
 14130 022a 0A000000 		.4byte	.LVL45
 14131 022e 24000000 		.4byte	.LVL50
 14132 0232 0400     		.2byte	0x4
 14133 0234 F3       		.byte	0xf3
 14134 0235 01       		.uleb128 0x1
 14135 0236 50       		.byte	0x50
 14136 0237 9F       		.byte	0x9f
 14137 0238 24000000 		.4byte	.LVL50
 14138 023c 28000000 		.4byte	.LVL51
 14139 0240 0100     		.2byte	0x1
 14140 0242 50       		.byte	0x50
 14141 0243 28000000 		.4byte	.LVL51
 14142 0247 2A000000 		.4byte	.LFE262
 14143 024b 0400     		.2byte	0x4
 14144 024d F3       		.byte	0xf3
ARM GAS  C:\Users\jo\AppData\Local\Temp\ccMF9q4g.s 			page 253


 14145 024e 01       		.uleb128 0x1
 14146 024f 50       		.byte	0x50
 14147 0250 9F       		.byte	0x9f
 14148 0251 00000000 		.4byte	0
 14149 0255 00000000 		.4byte	0
 14150              	.LLST15:
 14151 0259 02000000 		.4byte	.LVL43
 14152 025d 04000000 		.4byte	.LVL44
 14153 0261 0300     		.2byte	0x3
 14154 0263 73       		.byte	0x73
 14155 0264 7F       		.sleb128 -1
 14156 0265 9F       		.byte	0x9f
 14157 0266 04000000 		.4byte	.LVL44
 14158 026a 12000000 		.4byte	.LVL46
 14159 026e 0100     		.2byte	0x1
 14160 0270 53       		.byte	0x53
 14161 0271 12000000 		.4byte	.LVL46
 14162 0275 1A000000 		.4byte	.LVL47
 14163 0279 0300     		.2byte	0x3
 14164 027b 73       		.byte	0x73
 14165 027c 01       		.sleb128 1
 14166 027d 9F       		.byte	0x9f
 14167 027e 1A000000 		.4byte	.LVL47
 14168 0282 1E000000 		.4byte	.LVL48
 14169 0286 0100     		.2byte	0x1
 14170 0288 53       		.byte	0x53
 14171 0289 1E000000 		.4byte	.LVL48
 14172 028d 20000000 		.4byte	.LVL49
 14173 0291 0300     		.2byte	0x3
 14174 0293 73       		.byte	0x73
 14175 0294 01       		.sleb128 1
 14176 0295 9F       		.byte	0x9f
 14177 0296 24000000 		.4byte	.LVL50
 14178 029a 2A000000 		.4byte	.LFE262
 14179 029e 0100     		.2byte	0x1
 14180 02a0 53       		.byte	0x53
 14181 02a1 00000000 		.4byte	0
 14182 02a5 00000000 		.4byte	0
 14183              	.LLST16:
 14184 02a9 00000000 		.4byte	.LVL53
 14185 02ad 06000000 		.4byte	.LVL54
 14186 02b1 0100     		.2byte	0x1
 14187 02b3 50       		.byte	0x50
 14188 02b4 06000000 		.4byte	.LVL54
 14189 02b8 40000000 		.4byte	.LFE264
 14190 02bc 0100     		.2byte	0x1
 14191 02be 54       		.byte	0x54
 14192 02bf 00000000 		.4byte	0
 14193 02c3 00000000 		.4byte	0
 14194              	.LLST17:
 14195 02c7 00000000 		.4byte	.LVL53
 14196 02cb 0B000000 		.4byte	.LVL55-1
 14197 02cf 0100     		.2byte	0x1
 14198 02d1 51       		.byte	0x51
 14199 02d2 0B000000 		.4byte	.LVL55-1
 14200 02d6 40000000 		.4byte	.LFE264
 14201 02da 0100     		.2byte	0x1
ARM GAS  C:\Users\jo\AppData\Local\Temp\ccMF9q4g.s 			page 254


 14202 02dc 56       		.byte	0x56
 14203 02dd 00000000 		.4byte	0
 14204 02e1 00000000 		.4byte	0
 14205              	.LLST18:
 14206 02e5 18000000 		.4byte	.LVL56
 14207 02e9 1A000000 		.4byte	.LVL57
 14208 02ed 0100     		.2byte	0x1
 14209 02ef 50       		.byte	0x50
 14210 02f0 1A000000 		.4byte	.LVL57
 14211 02f4 40000000 		.4byte	.LFE264
 14212 02f8 0100     		.2byte	0x1
 14213 02fa 55       		.byte	0x55
 14214 02fb 00000000 		.4byte	0
 14215 02ff 00000000 		.4byte	0
 14216              	.LLST19:
 14217 0303 18000000 		.4byte	.LVL56
 14218 0307 1A000000 		.4byte	.LVL57
 14219 030b 0600     		.2byte	0x6
 14220 030d 73       		.byte	0x73
 14221 030e 00       		.sleb128 0
 14222 030f 70       		.byte	0x70
 14223 0310 00       		.sleb128 0
 14224 0311 22       		.byte	0x22
 14225 0312 9F       		.byte	0x9f
 14226 0313 1A000000 		.4byte	.LVL57
 14227 0317 1C000000 		.4byte	.LVL58
 14228 031b 0600     		.2byte	0x6
 14229 031d 73       		.byte	0x73
 14230 031e 00       		.sleb128 0
 14231 031f 75       		.byte	0x75
 14232 0320 00       		.sleb128 0
 14233 0321 22       		.byte	0x22
 14234 0322 9F       		.byte	0x9f
 14235 0323 00000000 		.4byte	0
 14236 0327 00000000 		.4byte	0
 14237              	.LLST20:
 14238 032b 00000000 		.4byte	.LVL61
 14239 032f 0B000000 		.4byte	.LVL62-1
 14240 0333 0100     		.2byte	0x1
 14241 0335 50       		.byte	0x50
 14242 0336 0B000000 		.4byte	.LVL62-1
 14243 033a 0C000000 		.4byte	.LFE256
 14244 033e 0400     		.2byte	0x4
 14245 0340 F3       		.byte	0xf3
 14246 0341 01       		.uleb128 0x1
 14247 0342 50       		.byte	0x50
 14248 0343 9F       		.byte	0x9f
 14249 0344 00000000 		.4byte	0
 14250 0348 00000000 		.4byte	0
 14251              	.LLST21:
 14252 034c 00000000 		.4byte	.LVL61
 14253 0350 0B000000 		.4byte	.LVL62-1
 14254 0354 0100     		.2byte	0x1
 14255 0356 51       		.byte	0x51
 14256 0357 0B000000 		.4byte	.LVL62-1
 14257 035b 0C000000 		.4byte	.LFE256
 14258 035f 0400     		.2byte	0x4
ARM GAS  C:\Users\jo\AppData\Local\Temp\ccMF9q4g.s 			page 255


 14259 0361 F3       		.byte	0xf3
 14260 0362 01       		.uleb128 0x1
 14261 0363 51       		.byte	0x51
 14262 0364 9F       		.byte	0x9f
 14263 0365 00000000 		.4byte	0
 14264 0369 00000000 		.4byte	0
 14265              	.LLST23:
 14266 036d 00000000 		.4byte	.LVL63
 14267 0371 10000000 		.4byte	.LVL66
 14268 0375 0100     		.2byte	0x1
 14269 0377 50       		.byte	0x50
 14270 0378 10000000 		.4byte	.LVL66
 14271 037c 2E000000 		.4byte	.LFE265
 14272 0380 0100     		.2byte	0x1
 14273 0382 54       		.byte	0x54
 14274 0383 00000000 		.4byte	0
 14275 0387 00000000 		.4byte	0
 14276              	.LLST24:
 14277 038b 00000000 		.4byte	.LVL63
 14278 038f 08000000 		.4byte	.LVL65
 14279 0393 0100     		.2byte	0x1
 14280 0395 51       		.byte	0x51
 14281 0396 08000000 		.4byte	.LVL65
 14282 039a 2E000000 		.4byte	.LFE265
 14283 039e 0400     		.2byte	0x4
 14284 03a0 F3       		.byte	0xf3
 14285 03a1 01       		.uleb128 0x1
 14286 03a2 51       		.byte	0x51
 14287 03a3 9F       		.byte	0x9f
 14288 03a4 00000000 		.4byte	0
 14289 03a8 00000000 		.4byte	0
 14290              	.LLST25:
 14291 03ac 02000000 		.4byte	.LVL64
 14292 03b0 10000000 		.4byte	.LVL66
 14293 03b4 0100     		.2byte	0x1
 14294 03b6 50       		.byte	0x50
 14295 03b7 10000000 		.4byte	.LVL66
 14296 03bb 2E000000 		.4byte	.LFE265
 14297 03bf 0100     		.2byte	0x1
 14298 03c1 54       		.byte	0x54
 14299 03c2 00000000 		.4byte	0
 14300 03c6 00000000 		.4byte	0
 14301              	.LLST27:
 14302 03ca 02000000 		.4byte	.LVL64
 14303 03ce 12000000 		.4byte	.LVL67
 14304 03d2 0300     		.2byte	0x3
 14305 03d4 73       		.byte	0x73
 14306 03d5 01       		.sleb128 1
 14307 03d6 9F       		.byte	0x9f
 14308 03d7 12000000 		.4byte	.LVL67
 14309 03db 2E000000 		.4byte	.LFE265
 14310 03df 0300     		.2byte	0x3
 14311 03e1 75       		.byte	0x75
 14312 03e2 7F       		.sleb128 -1
 14313 03e3 9F       		.byte	0x9f
 14314 03e4 00000000 		.4byte	0
 14315 03e8 00000000 		.4byte	0
ARM GAS  C:\Users\jo\AppData\Local\Temp\ccMF9q4g.s 			page 256


 14316              	.LLST28:
 14317 03ec 00000000 		.4byte	.LVL69
 14318 03f0 0A000000 		.4byte	.LVL70
 14319 03f4 0100     		.2byte	0x1
 14320 03f6 50       		.byte	0x50
 14321 03f7 0A000000 		.4byte	.LVL70
 14322 03fb 0C000000 		.4byte	.LFE266
 14323 03ff 0400     		.2byte	0x4
 14324 0401 F3       		.byte	0xf3
 14325 0402 01       		.uleb128 0x1
 14326 0403 50       		.byte	0x50
 14327 0404 9F       		.byte	0x9f
 14328 0405 00000000 		.4byte	0
 14329 0409 00000000 		.4byte	0
 14330              	.LLST29:
 14331 040d 00000000 		.4byte	.LVL71
 14332 0411 02000000 		.4byte	.LVL72
 14333 0415 0100     		.2byte	0x1
 14334 0417 50       		.byte	0x50
 14335 0418 02000000 		.4byte	.LVL72
 14336 041c 04000000 		.4byte	.LFE267
 14337 0420 0400     		.2byte	0x4
 14338 0422 F3       		.byte	0xf3
 14339 0423 01       		.uleb128 0x1
 14340 0424 50       		.byte	0x50
 14341 0425 9F       		.byte	0x9f
 14342 0426 00000000 		.4byte	0
 14343 042a 00000000 		.4byte	0
 14344              	.LLST30:
 14345 042e 00000000 		.4byte	.LVL73
 14346 0432 06000000 		.4byte	.LVL74
 14347 0436 0100     		.2byte	0x1
 14348 0438 50       		.byte	0x50
 14349 0439 06000000 		.4byte	.LVL74
 14350 043d 10000000 		.4byte	.LVL76
 14351 0441 0100     		.2byte	0x1
 14352 0443 54       		.byte	0x54
 14353 0444 10000000 		.4byte	.LVL76
 14354 0448 13000000 		.4byte	.LVL77-1
 14355 044c 0100     		.2byte	0x1
 14356 044e 50       		.byte	0x50
 14357 044f 13000000 		.4byte	.LVL77-1
 14358 0453 14000000 		.4byte	.LFE268
 14359 0457 0400     		.2byte	0x4
 14360 0459 F3       		.byte	0xf3
 14361 045a 01       		.uleb128 0x1
 14362 045b 50       		.byte	0x50
 14363 045c 9F       		.byte	0x9f
 14364 045d 00000000 		.4byte	0
 14365 0461 00000000 		.4byte	0
 14366              	.LLST31:
 14367 0465 00000000 		.4byte	.LVL78
 14368 0469 04000000 		.4byte	.LVL79
 14369 046d 0100     		.2byte	0x1
 14370 046f 50       		.byte	0x50
 14371 0470 04000000 		.4byte	.LVL79
 14372 0474 0C000000 		.4byte	.LFE275
ARM GAS  C:\Users\jo\AppData\Local\Temp\ccMF9q4g.s 			page 257


 14373 0478 0400     		.2byte	0x4
 14374 047a F3       		.byte	0xf3
 14375 047b 01       		.uleb128 0x1
 14376 047c 50       		.byte	0x50
 14377 047d 9F       		.byte	0x9f
 14378 047e 00000000 		.4byte	0
 14379 0482 00000000 		.4byte	0
 14380              	.LLST32:
 14381 0486 00000000 		.4byte	.LVL80
 14382 048a 08000000 		.4byte	.LVL81
 14383 048e 0100     		.2byte	0x1
 14384 0490 50       		.byte	0x50
 14385 0491 08000000 		.4byte	.LVL81
 14386 0495 50000000 		.4byte	.LFE277
 14387 0499 0100     		.2byte	0x1
 14388 049b 56       		.byte	0x56
 14389 049c 00000000 		.4byte	0
 14390 04a0 00000000 		.4byte	0
 14391              	.LLST33:
 14392 04a4 00000000 		.4byte	.LVL80
 14393 04a8 0D000000 		.4byte	.LVL82-1
 14394 04ac 0100     		.2byte	0x1
 14395 04ae 51       		.byte	0x51
 14396 04af 0D000000 		.4byte	.LVL82-1
 14397 04b3 50000000 		.4byte	.LFE277
 14398 04b7 0100     		.2byte	0x1
 14399 04b9 55       		.byte	0x55
 14400 04ba 00000000 		.4byte	0
 14401 04be 00000000 		.4byte	0
 14402              	.LLST34:
 14403 04c2 0E000000 		.4byte	.LVL82
 14404 04c6 1B000000 		.4byte	.LVL83-1
 14405 04ca 0100     		.2byte	0x1
 14406 04cc 50       		.byte	0x50
 14407 04cd 1B000000 		.4byte	.LVL83-1
 14408 04d1 36000000 		.4byte	.LVL85
 14409 04d5 0100     		.2byte	0x1
 14410 04d7 54       		.byte	0x54
 14411 04d8 36000000 		.4byte	.LVL85
 14412 04dc 38000000 		.4byte	.LVL86
 14413 04e0 0100     		.2byte	0x1
 14414 04e2 50       		.byte	0x50
 14415 04e3 00000000 		.4byte	0
 14416 04e7 00000000 		.4byte	0
 14417              	.LLST35:
 14418 04eb 00000000 		.4byte	.LVL88
 14419 04ef 0A000000 		.4byte	.LVL90
 14420 04f3 0100     		.2byte	0x1
 14421 04f5 50       		.byte	0x50
 14422 04f6 0A000000 		.4byte	.LVL90
 14423 04fa 1A000000 		.4byte	.LVL93
 14424 04fe 0100     		.2byte	0x1
 14425 0500 54       		.byte	0x54
 14426 0501 1A000000 		.4byte	.LVL93
 14427 0505 1D000000 		.4byte	.LVL94-1
 14428 0509 0100     		.2byte	0x1
 14429 050b 50       		.byte	0x50
ARM GAS  C:\Users\jo\AppData\Local\Temp\ccMF9q4g.s 			page 258


 14430 050c 1D000000 		.4byte	.LVL94-1
 14431 0510 1E000000 		.4byte	.LFE278
 14432 0514 0400     		.2byte	0x4
 14433 0516 F3       		.byte	0xf3
 14434 0517 01       		.uleb128 0x1
 14435 0518 50       		.byte	0x50
 14436 0519 9F       		.byte	0x9f
 14437 051a 00000000 		.4byte	0
 14438 051e 00000000 		.4byte	0
 14439              	.LLST36:
 14440 0522 06000000 		.4byte	.LVL89
 14441 0526 1A000000 		.4byte	.LVL93
 14442 052a 0100     		.2byte	0x1
 14443 052c 55       		.byte	0x55
 14444 052d 00000000 		.4byte	0
 14445 0531 00000000 		.4byte	0
 14446              	.LLST37:
 14447 0535 00000000 		.4byte	.LVL95
 14448 0539 07000000 		.4byte	.LVL96-1
 14449 053d 0100     		.2byte	0x1
 14450 053f 50       		.byte	0x50
 14451 0540 07000000 		.4byte	.LVL96-1
 14452 0544 20000000 		.4byte	.LFE279
 14453 0548 0100     		.2byte	0x1
 14454 054a 56       		.byte	0x56
 14455 054b 00000000 		.4byte	0
 14456 054f 00000000 		.4byte	0
 14457              	.LLST38:
 14458 0553 10000000 		.4byte	.LVL98
 14459 0557 1B000000 		.4byte	.LVL99-1
 14460 055b 0100     		.2byte	0x1
 14461 055d 50       		.byte	0x50
 14462 055e 1B000000 		.4byte	.LVL99-1
 14463 0562 20000000 		.4byte	.LFE279
 14464 0566 0100     		.2byte	0x1
 14465 0568 55       		.byte	0x55
 14466 0569 00000000 		.4byte	0
 14467 056d 00000000 		.4byte	0
 14468              	.LLST39:
 14469 0571 00000000 		.4byte	.LVL100
 14470 0575 14000000 		.4byte	.LVL101
 14471 0579 0100     		.2byte	0x1
 14472 057b 50       		.byte	0x50
 14473 057c 14000000 		.4byte	.LVL101
 14474 0580 36000000 		.4byte	.LVL104
 14475 0584 0100     		.2byte	0x1
 14476 0586 54       		.byte	0x54
 14477 0587 36000000 		.4byte	.LVL104
 14478 058b 3E000000 		.4byte	.LVL106
 14479 058f 0100     		.2byte	0x1
 14480 0591 50       		.byte	0x50
 14481 0592 3E000000 		.4byte	.LVL106
 14482 0596 68000000 		.4byte	.LFE280
 14483 059a 0100     		.2byte	0x1
 14484 059c 54       		.byte	0x54
 14485 059d 00000000 		.4byte	0
 14486 05a1 00000000 		.4byte	0
ARM GAS  C:\Users\jo\AppData\Local\Temp\ccMF9q4g.s 			page 259


 14487              	.LLST40:
 14488 05a5 00000000 		.4byte	.LVL100
 14489 05a9 14000000 		.4byte	.LVL101
 14490 05ad 0100     		.2byte	0x1
 14491 05af 51       		.byte	0x51
 14492 05b0 14000000 		.4byte	.LVL101
 14493 05b4 36000000 		.4byte	.LVL104
 14494 05b8 0100     		.2byte	0x1
 14495 05ba 58       		.byte	0x58
 14496 05bb 36000000 		.4byte	.LVL104
 14497 05bf 3C000000 		.4byte	.LVL105
 14498 05c3 0100     		.2byte	0x1
 14499 05c5 51       		.byte	0x51
 14500 05c6 3C000000 		.4byte	.LVL105
 14501 05ca 68000000 		.4byte	.LFE280
 14502 05ce 0100     		.2byte	0x1
 14503 05d0 58       		.byte	0x58
 14504 05d1 00000000 		.4byte	0
 14505 05d5 00000000 		.4byte	0
 14506              	.LLST41:
 14507 05d9 00000000 		.4byte	.LVL100
 14508 05dd 14000000 		.4byte	.LVL101
 14509 05e1 0100     		.2byte	0x1
 14510 05e3 52       		.byte	0x52
 14511 05e4 14000000 		.4byte	.LVL101
 14512 05e8 36000000 		.4byte	.LVL104
 14513 05ec 0100     		.2byte	0x1
 14514 05ee 57       		.byte	0x57
 14515 05ef 36000000 		.4byte	.LVL104
 14516 05f3 41000000 		.4byte	.LVL107-1
 14517 05f7 0100     		.2byte	0x1
 14518 05f9 52       		.byte	0x52
 14519 05fa 41000000 		.4byte	.LVL107-1
 14520 05fe 68000000 		.4byte	.LFE280
 14521 0602 0100     		.2byte	0x1
 14522 0604 57       		.byte	0x57
 14523 0605 00000000 		.4byte	0
 14524 0609 00000000 		.4byte	0
 14525              	.LLST42:
 14526 060d 00000000 		.4byte	.LVL110
 14527 0611 06000000 		.4byte	.LVL111
 14528 0615 0100     		.2byte	0x1
 14529 0617 50       		.byte	0x50
 14530 0618 06000000 		.4byte	.LVL111
 14531 061c 2C000000 		.4byte	.LFE294
 14532 0620 0400     		.2byte	0x4
 14533 0622 F3       		.byte	0xf3
 14534 0623 01       		.uleb128 0x1
 14535 0624 50       		.byte	0x50
 14536 0625 9F       		.byte	0x9f
 14537 0626 00000000 		.4byte	0
 14538 062a 00000000 		.4byte	0
 14539              	.LLST43:
 14540 062e 00000000 		.4byte	.LVL110
 14541 0632 0B000000 		.4byte	.LVL112-1
 14542 0636 0100     		.2byte	0x1
 14543 0638 51       		.byte	0x51
ARM GAS  C:\Users\jo\AppData\Local\Temp\ccMF9q4g.s 			page 260


 14544 0639 0B000000 		.4byte	.LVL112-1
 14545 063d 2C000000 		.4byte	.LFE294
 14546 0641 0100     		.2byte	0x1
 14547 0643 55       		.byte	0x55
 14548 0644 00000000 		.4byte	0
 14549 0648 00000000 		.4byte	0
 14550              	.LLST44:
 14551 064c 0E000000 		.4byte	.LVL113
 14552 0650 14000000 		.4byte	.LVL114
 14553 0654 0100     		.2byte	0x1
 14554 0656 50       		.byte	0x50
 14555 0657 14000000 		.4byte	.LVL114
 14556 065b 22000000 		.4byte	.LVL116
 14557 065f 0100     		.2byte	0x1
 14558 0661 54       		.byte	0x54
 14559 0662 22000000 		.4byte	.LVL116
 14560 0666 2A000000 		.4byte	.LVL117
 14561 066a 0100     		.2byte	0x1
 14562 066c 50       		.byte	0x50
 14563 066d 2A000000 		.4byte	.LVL117
 14564 0671 2C000000 		.4byte	.LFE294
 14565 0675 0100     		.2byte	0x1
 14566 0677 54       		.byte	0x54
 14567 0678 00000000 		.4byte	0
 14568 067c 00000000 		.4byte	0
 14569              	.LLST45:
 14570 0680 00000000 		.4byte	.LVL118
 14571 0684 13000000 		.4byte	.LVL120-1
 14572 0688 0100     		.2byte	0x1
 14573 068a 50       		.byte	0x50
 14574 068b 13000000 		.4byte	.LVL120-1
 14575 068f 32000000 		.4byte	.LVL125
 14576 0693 0100     		.2byte	0x1
 14577 0695 54       		.byte	0x54
 14578 0696 32000000 		.4byte	.LVL125
 14579 069a 42000000 		.4byte	.LVL129
 14580 069e 0300     		.2byte	0x3
 14581 06a0 73       		.byte	0x73
 14582 06a1 01       		.sleb128 1
 14583 06a2 9F       		.byte	0x9f
 14584 06a3 00000000 		.4byte	0
 14585 06a7 00000000 		.4byte	0
 14586              	.LLST46:
 14587 06ab 00000000 		.4byte	.LVL118
 14588 06af 13000000 		.4byte	.LVL120-1
 14589 06b3 0100     		.2byte	0x1
 14590 06b5 51       		.byte	0x51
 14591 06b6 13000000 		.4byte	.LVL120-1
 14592 06ba 20000000 		.4byte	.LVL121
 14593 06be 0200     		.2byte	0x2
 14594 06c0 7D       		.byte	0x7d
 14595 06c1 34       		.sleb128 52
 14596 06c2 20000000 		.4byte	.LVL121
 14597 06c6 B8000000 		.4byte	.LVL145
 14598 06ca 0200     		.2byte	0x2
 14599 06cc 77       		.byte	0x77
 14600 06cd 34       		.sleb128 52
ARM GAS  C:\Users\jo\AppData\Local\Temp\ccMF9q4g.s 			page 261


 14601 06ce B8000000 		.4byte	.LVL145
 14602 06d2 40010000 		.4byte	.LFE298
 14603 06d6 0200     		.2byte	0x2
 14604 06d8 91       		.byte	0x91
 14605 06d9 74       		.sleb128 -12
 14606 06da 00000000 		.4byte	0
 14607 06de 00000000 		.4byte	0
 14608              	.LLST47:
 14609 06e2 00000000 		.4byte	.LVL118
 14610 06e6 13000000 		.4byte	.LVL120-1
 14611 06ea 0100     		.2byte	0x1
 14612 06ec 52       		.byte	0x52
 14613 06ed 13000000 		.4byte	.LVL120-1
 14614 06f1 20000000 		.4byte	.LVL121
 14615 06f5 0200     		.2byte	0x2
 14616 06f7 7D       		.byte	0x7d
 14617 06f8 38       		.sleb128 56
 14618 06f9 20000000 		.4byte	.LVL121
 14619 06fd B8000000 		.4byte	.LVL145
 14620 0701 0200     		.2byte	0x2
 14621 0703 77       		.byte	0x77
 14622 0704 38       		.sleb128 56
 14623 0705 B8000000 		.4byte	.LVL145
 14624 0709 40010000 		.4byte	.LFE298
 14625 070d 0200     		.2byte	0x2
 14626 070f 91       		.byte	0x91
 14627 0710 78       		.sleb128 -8
 14628 0711 00000000 		.4byte	0
 14629 0715 00000000 		.4byte	0
 14630              	.LLST48:
 14631 0719 00000000 		.4byte	.LVL118
 14632 071d 13000000 		.4byte	.LVL120-1
 14633 0721 0100     		.2byte	0x1
 14634 0723 53       		.byte	0x53
 14635 0724 13000000 		.4byte	.LVL120-1
 14636 0728 74000000 		.4byte	.LVL136
 14637 072c 0100     		.2byte	0x1
 14638 072e 59       		.byte	0x59
 14639 072f 74000000 		.4byte	.LVL136
 14640 0733 7A000000 		.4byte	.LVL137
 14641 0737 0300     		.2byte	0x3
 14642 0739 79       		.byte	0x79
 14643 073a 78       		.sleb128 -8
 14644 073b 9F       		.byte	0x9f
 14645 073c 7A000000 		.4byte	.LVL137
 14646 0740 40010000 		.4byte	.LFE298
 14647 0744 0400     		.2byte	0x4
 14648 0746 F3       		.byte	0xf3
 14649 0747 01       		.uleb128 0x1
 14650 0748 53       		.byte	0x53
 14651 0749 9F       		.byte	0x9f
 14652 074a 00000000 		.4byte	0
 14653 074e 00000000 		.4byte	0
 14654              	.LLST49:
 14655 0752 0E000000 		.4byte	.LVL119
 14656 0756 13000000 		.4byte	.LVL120-1
 14657 075a 0100     		.2byte	0x1
ARM GAS  C:\Users\jo\AppData\Local\Temp\ccMF9q4g.s 			page 262


 14658 075c 53       		.byte	0x53
 14659 075d 13000000 		.4byte	.LVL120-1
 14660 0761 74000000 		.4byte	.LVL136
 14661 0765 0100     		.2byte	0x1
 14662 0767 59       		.byte	0x59
 14663 0768 74000000 		.4byte	.LVL136
 14664 076c 7A000000 		.4byte	.LVL137
 14665 0770 0300     		.2byte	0x3
 14666 0772 79       		.byte	0x79
 14667 0773 78       		.sleb128 -8
 14668 0774 9F       		.byte	0x9f
 14669 0775 7A000000 		.4byte	.LVL137
 14670 0779 40010000 		.4byte	.LFE298
 14671 077d 0400     		.2byte	0x4
 14672 077f F3       		.byte	0xf3
 14673 0780 01       		.uleb128 0x1
 14674 0781 53       		.byte	0x53
 14675 0782 9F       		.byte	0x9f
 14676 0783 00000000 		.4byte	0
 14677 0787 00000000 		.4byte	0
 14678              	.LLST50:
 14679 078b 14000000 		.4byte	.LVL120
 14680 078f 22000000 		.4byte	.LVL122
 14681 0793 0100     		.2byte	0x1
 14682 0795 50       		.byte	0x50
 14683 0796 22000000 		.4byte	.LVL122
 14684 079a 29000000 		.4byte	.LVL123-1
 14685 079e 0300     		.2byte	0x3
 14686 07a0 72       		.byte	0x72
 14687 07a1 7F       		.sleb128 -1
 14688 07a2 9F       		.byte	0x9f
 14689 07a3 00000000 		.4byte	0
 14690 07a7 00000000 		.4byte	0
 14691              	.LLST51:
 14692 07ab 2C000000 		.4byte	.LVL124
 14693 07af 5C000000 		.4byte	.LVL132
 14694 07b3 0200     		.2byte	0x2
 14695 07b5 70       		.byte	0x70
 14696 07b6 00       		.sleb128 0
 14697 07b7 00000000 		.4byte	0
 14698 07bb 00000000 		.4byte	0
 14699              	.LLST52:
 14700 07bf 2C000000 		.4byte	.LVL124
 14701 07c3 32000000 		.4byte	.LVL125
 14702 07c7 0200     		.2byte	0x2
 14703 07c9 31       		.byte	0x31
 14704 07ca 9F       		.byte	0x9f
 14705 07cb 32000000 		.4byte	.LVL125
 14706 07cf 5C000000 		.4byte	.LVL132
 14707 07d3 0100     		.2byte	0x1
 14708 07d5 52       		.byte	0x52
 14709 07d6 00000000 		.4byte	0
 14710 07da 00000000 		.4byte	0
 14711              	.LLST53:
 14712 07de 40000000 		.4byte	.LVL128
 14713 07e2 5C000000 		.4byte	.LVL132
 14714 07e6 0300     		.2byte	0x3
ARM GAS  C:\Users\jo\AppData\Local\Temp\ccMF9q4g.s 			page 263


 14715 07e8 72       		.byte	0x72
 14716 07e9 7F       		.sleb128 -1
 14717 07ea 9F       		.byte	0x9f
 14718 07eb 00000000 		.4byte	0
 14719 07ef 00000000 		.4byte	0
 14720              	.LLST54:
 14721 07f3 5C000000 		.4byte	.LVL132
 14722 07f7 64000000 		.4byte	.LVL134
 14723 07fb 0100     		.2byte	0x1
 14724 07fd 50       		.byte	0x50
 14725 07fe 6C000000 		.4byte	.LVL135
 14726 0802 7A000000 		.4byte	.LVL137
 14727 0806 0100     		.2byte	0x1
 14728 0808 50       		.byte	0x50
 14729 0809 7A000000 		.4byte	.LVL137
 14730 080d AE000000 		.4byte	.LVL143
 14731 0811 0100     		.2byte	0x1
 14732 0813 5A       		.byte	0x5a
 14733 0814 BE000000 		.4byte	.LVL146
 14734 0818 E6000000 		.4byte	.LVL151
 14735 081c 0100     		.2byte	0x1
 14736 081e 5A       		.byte	0x5a
 14737 081f 30010000 		.4byte	.LVL160
 14738 0823 36010000 		.4byte	.LVL161
 14739 0827 0100     		.2byte	0x1
 14740 0829 5A       		.byte	0x5a
 14741 082a 00000000 		.4byte	0
 14742 082e 00000000 		.4byte	0
 14743              	.LLST55:
 14744 0832 5A000000 		.4byte	.LVL131
 14745 0836 5C000000 		.4byte	.LVL132
 14746 083a 0200     		.2byte	0x2
 14747 083c 30       		.byte	0x30
 14748 083d 9F       		.byte	0x9f
 14749 083e 62000000 		.4byte	.LVL133
 14750 0842 64000000 		.4byte	.LVL134
 14751 0846 0100     		.2byte	0x1
 14752 0848 55       		.byte	0x55
 14753 0849 00000000 		.4byte	0
 14754 084d 00000000 		.4byte	0
 14755              	.LLST56:
 14756 0851 9E000000 		.4byte	.LVL141
 14757 0855 A8000000 		.4byte	.LVL142
 14758 0859 0100     		.2byte	0x1
 14759 085b 56       		.byte	0x56
 14760 085c 00000000 		.4byte	0
 14761 0860 00000000 		.4byte	0
 14762              	.LLST57:
 14763 0864 74000000 		.4byte	.LVL136
 14764 0868 B8000000 		.4byte	.LVL145
 14765 086c 0200     		.2byte	0x2
 14766 086e 77       		.byte	0x77
 14767 086f 38       		.sleb128 56
 14768 0870 B8000000 		.4byte	.LVL145
 14769 0874 40010000 		.4byte	.LFE298
 14770 0878 0200     		.2byte	0x2
 14771 087a 91       		.byte	0x91
ARM GAS  C:\Users\jo\AppData\Local\Temp\ccMF9q4g.s 			page 264


 14772 087b 78       		.sleb128 -8
 14773 087c 00000000 		.4byte	0
 14774 0880 00000000 		.4byte	0
 14775              	.LLST58:
 14776 0884 74000000 		.4byte	.LVL136
 14777 0888 B8000000 		.4byte	.LVL145
 14778 088c 0200     		.2byte	0x2
 14779 088e 77       		.byte	0x77
 14780 088f 34       		.sleb128 52
 14781 0890 B8000000 		.4byte	.LVL145
 14782 0894 40010000 		.4byte	.LFE298
 14783 0898 0200     		.2byte	0x2
 14784 089a 91       		.byte	0x91
 14785 089b 74       		.sleb128 -12
 14786 089c 00000000 		.4byte	0
 14787 08a0 00000000 		.4byte	0
 14788              	.LLST59:
 14789 08a4 74000000 		.4byte	.LVL136
 14790 08a8 7A000000 		.4byte	.LVL137
 14791 08ac 0100     		.2byte	0x1
 14792 08ae 55       		.byte	0x55
 14793 08af 7A000000 		.4byte	.LVL137
 14794 08b3 B8000000 		.4byte	.LVL145
 14795 08b7 0200     		.2byte	0x2
 14796 08b9 77       		.byte	0x77
 14797 08ba 3C       		.sleb128 60
 14798 08bb B8000000 		.4byte	.LVL145
 14799 08bf 40010000 		.4byte	.LFE298
 14800 08c3 0200     		.2byte	0x2
 14801 08c5 91       		.byte	0x91
 14802 08c6 7C       		.sleb128 -4
 14803 08c7 00000000 		.4byte	0
 14804 08cb 00000000 		.4byte	0
 14805              	.LLST60:
 14806 08cf 7E000000 		.4byte	.LVL138
 14807 08d3 B4000000 		.4byte	.LVL144
 14808 08d7 0100     		.2byte	0x1
 14809 08d9 56       		.byte	0x56
 14810 08da BE000000 		.4byte	.LVL146
 14811 08de D6000000 		.4byte	.LVL148
 14812 08e2 0100     		.2byte	0x1
 14813 08e4 56       		.byte	0x56
 14814 08e5 D6000000 		.4byte	.LVL148
 14815 08e9 E6000000 		.4byte	.LVL151
 14816 08ed 0100     		.2byte	0x1
 14817 08ef 50       		.byte	0x50
 14818 08f0 E6000000 		.4byte	.LVL151
 14819 08f4 F8000000 		.4byte	.LVL153
 14820 08f8 0100     		.2byte	0x1
 14821 08fa 56       		.byte	0x56
 14822 08fb F8000000 		.4byte	.LVL153
 14823 08ff FA000000 		.4byte	.LVL154
 14824 0903 0100     		.2byte	0x1
 14825 0905 50       		.byte	0x50
 14826 0906 FA000000 		.4byte	.LVL154
 14827 090a 30010000 		.4byte	.LVL160
 14828 090e 0100     		.2byte	0x1
ARM GAS  C:\Users\jo\AppData\Local\Temp\ccMF9q4g.s 			page 265


 14829 0910 54       		.byte	0x54
 14830 0911 30010000 		.4byte	.LVL160
 14831 0915 36010000 		.4byte	.LVL161
 14832 0919 0100     		.2byte	0x1
 14833 091b 50       		.byte	0x50
 14834 091c 36010000 		.4byte	.LVL161
 14835 0920 40010000 		.4byte	.LFE298
 14836 0924 0100     		.2byte	0x1
 14837 0926 54       		.byte	0x54
 14838 0927 00000000 		.4byte	0
 14839 092b 00000000 		.4byte	0
 14840              	.LLST61:
 14841 092f DA000000 		.4byte	.LVL149
 14842 0933 E6000000 		.4byte	.LVL151
 14843 0937 0100     		.2byte	0x1
 14844 0939 51       		.byte	0x51
 14845 093a 00000000 		.4byte	0
 14846 093e 00000000 		.4byte	0
 14847              	.LLST62:
 14848 0942 1C010000 		.4byte	.LVL158
 14849 0946 30010000 		.4byte	.LVL160
 14850 094a 0100     		.2byte	0x1
 14851 094c 52       		.byte	0x52
 14852 094d 00000000 		.4byte	0
 14853 0951 00000000 		.4byte	0
 14854              	.LLST63:
 14855 0955 00000000 		.4byte	.LVL162
 14856 0959 06000000 		.4byte	.LVL163
 14857 095d 0100     		.2byte	0x1
 14858 095f 50       		.byte	0x50
 14859 0960 06000000 		.4byte	.LVL163
 14860 0964 74000000 		.4byte	.LFE281
 14861 0968 0100     		.2byte	0x1
 14862 096a 56       		.byte	0x56
 14863 096b 00000000 		.4byte	0
 14864 096f 00000000 		.4byte	0
 14865              	.LLST64:
 14866 0973 00000000 		.4byte	.LVL162
 14867 0977 0B000000 		.4byte	.LVL164-1
 14868 097b 0100     		.2byte	0x1
 14869 097d 51       		.byte	0x51
 14870 097e 0B000000 		.4byte	.LVL164-1
 14871 0982 74000000 		.4byte	.LFE281
 14872 0986 0100     		.2byte	0x1
 14873 0988 57       		.byte	0x57
 14874 0989 00000000 		.4byte	0
 14875 098d 00000000 		.4byte	0
 14876              	.LLST65:
 14877 0991 0C000000 		.4byte	.LVL164
 14878 0995 2A000000 		.4byte	.LVL165
 14879 0999 0100     		.2byte	0x1
 14880 099b 50       		.byte	0x50
 14881 099c 2A000000 		.4byte	.LVL165
 14882 09a0 48000000 		.4byte	.LVL168
 14883 09a4 0100     		.2byte	0x1
 14884 09a6 54       		.byte	0x54
 14885 09a7 48000000 		.4byte	.LVL168
ARM GAS  C:\Users\jo\AppData\Local\Temp\ccMF9q4g.s 			page 266


 14886 09ab 4A000000 		.4byte	.LVL169
 14887 09af 0100     		.2byte	0x1
 14888 09b1 50       		.byte	0x50
 14889 09b2 4A000000 		.4byte	.LVL169
 14890 09b6 74000000 		.4byte	.LFE281
 14891 09ba 0100     		.2byte	0x1
 14892 09bc 54       		.byte	0x54
 14893 09bd 00000000 		.4byte	0
 14894 09c1 00000000 		.4byte	0
 14895              	.LLST66:
 14896 09c5 48000000 		.4byte	.LVL168
 14897 09c9 56000000 		.4byte	.LVL170
 14898 09cd 0100     		.2byte	0x1
 14899 09cf 56       		.byte	0x56
 14900 09d0 00000000 		.4byte	0
 14901 09d4 00000000 		.4byte	0
 14902              	.LLST67:
 14903 09d8 48000000 		.4byte	.LVL168
 14904 09dc 56000000 		.4byte	.LVL170
 14905 09e0 0100     		.2byte	0x1
 14906 09e2 57       		.byte	0x57
 14907 09e3 00000000 		.4byte	0
 14908 09e7 00000000 		.4byte	0
 14909              	.LLST68:
 14910 09eb 00000000 		.4byte	.LVL172
 14911 09ef 18000000 		.4byte	.LVL173
 14912 09f3 0100     		.2byte	0x1
 14913 09f5 50       		.byte	0x50
 14914 09f6 18000000 		.4byte	.LVL173
 14915 09fa 54000000 		.4byte	.LVL182
 14916 09fe 0100     		.2byte	0x1
 14917 0a00 58       		.byte	0x58
 14918 0a01 54000000 		.4byte	.LVL182
 14919 0a05 5A000000 		.4byte	.LFE285
 14920 0a09 0400     		.2byte	0x4
 14921 0a0b F3       		.byte	0xf3
 14922 0a0c 01       		.uleb128 0x1
 14923 0a0d 50       		.byte	0x50
 14924 0a0e 9F       		.byte	0x9f
 14925 0a0f 00000000 		.4byte	0
 14926 0a13 00000000 		.4byte	0
 14927              	.LLST69:
 14928 0a17 00000000 		.4byte	.LVL172
 14929 0a1b 18000000 		.4byte	.LVL173
 14930 0a1f 0100     		.2byte	0x1
 14931 0a21 51       		.byte	0x51
 14932 0a22 18000000 		.4byte	.LVL173
 14933 0a26 54000000 		.4byte	.LVL182
 14934 0a2a 0100     		.2byte	0x1
 14935 0a2c 55       		.byte	0x55
 14936 0a2d 54000000 		.4byte	.LVL182
 14937 0a31 5A000000 		.4byte	.LFE285
 14938 0a35 0400     		.2byte	0x4
 14939 0a37 F3       		.byte	0xf3
 14940 0a38 01       		.uleb128 0x1
 14941 0a39 51       		.byte	0x51
 14942 0a3a 9F       		.byte	0x9f
ARM GAS  C:\Users\jo\AppData\Local\Temp\ccMF9q4g.s 			page 267


 14943 0a3b 00000000 		.4byte	0
 14944 0a3f 00000000 		.4byte	0
 14945              	.LLST70:
 14946 0a43 00000000 		.4byte	.LVL172
 14947 0a47 18000000 		.4byte	.LVL173
 14948 0a4b 0100     		.2byte	0x1
 14949 0a4d 52       		.byte	0x52
 14950 0a4e 18000000 		.4byte	.LVL173
 14951 0a52 54000000 		.4byte	.LVL182
 14952 0a56 0100     		.2byte	0x1
 14953 0a58 5A       		.byte	0x5a
 14954 0a59 54000000 		.4byte	.LVL182
 14955 0a5d 5A000000 		.4byte	.LFE285
 14956 0a61 0400     		.2byte	0x4
 14957 0a63 F3       		.byte	0xf3
 14958 0a64 01       		.uleb128 0x1
 14959 0a65 52       		.byte	0x52
 14960 0a66 9F       		.byte	0x9f
 14961 0a67 00000000 		.4byte	0
 14962 0a6b 00000000 		.4byte	0
 14963              	.LLST71:
 14964 0a6f 00000000 		.4byte	.LVL172
 14965 0a73 18000000 		.4byte	.LVL173
 14966 0a77 0100     		.2byte	0x1
 14967 0a79 53       		.byte	0x53
 14968 0a7a 18000000 		.4byte	.LVL173
 14969 0a7e 54000000 		.4byte	.LVL182
 14970 0a82 0100     		.2byte	0x1
 14971 0a84 59       		.byte	0x59
 14972 0a85 54000000 		.4byte	.LVL182
 14973 0a89 5A000000 		.4byte	.LFE285
 14974 0a8d 0400     		.2byte	0x4
 14975 0a8f F3       		.byte	0xf3
 14976 0a90 01       		.uleb128 0x1
 14977 0a91 53       		.byte	0x53
 14978 0a92 9F       		.byte	0x9f
 14979 0a93 00000000 		.4byte	0
 14980 0a97 00000000 		.4byte	0
 14981              	.LLST72:
 14982 0a9b 00000000 		.4byte	.LVL172
 14983 0a9f 18000000 		.4byte	.LVL173
 14984 0aa3 0200     		.2byte	0x2
 14985 0aa5 30       		.byte	0x30
 14986 0aa6 9F       		.byte	0x9f
 14987 0aa7 18000000 		.4byte	.LVL173
 14988 0aab 38000000 		.4byte	.LVL178
 14989 0aaf 0100     		.2byte	0x1
 14990 0ab1 54       		.byte	0x54
 14991 0ab2 00000000 		.4byte	0
 14992 0ab6 00000000 		.4byte	0
 14993              	.LLST73:
 14994 0aba 36000000 		.4byte	.LVL177
 14995 0abe 3E000000 		.4byte	.LVL179
 14996 0ac2 0100     		.2byte	0x1
 14997 0ac4 52       		.byte	0x52
 14998 0ac5 00000000 		.4byte	0
 14999 0ac9 00000000 		.4byte	0
ARM GAS  C:\Users\jo\AppData\Local\Temp\ccMF9q4g.s 			page 268


 15000              	.LLST74:
 15001 0acd 42000000 		.4byte	.LVL180
 15002 0ad1 48000000 		.4byte	.LVL181
 15003 0ad5 0800     		.2byte	0x8
 15004 0ad7 78       		.byte	0x78
 15005 0ad8 0C       		.sleb128 12
 15006 0ad9 06       		.byte	0x6
 15007 0ada 73       		.byte	0x73
 15008 0adb 00       		.sleb128 0
 15009 0adc 22       		.byte	0x22
 15010 0add 23       		.byte	0x23
 15011 0ade 04       		.uleb128 0x4
 15012 0adf 00000000 		.4byte	0
 15013 0ae3 00000000 		.4byte	0
 15014              	.LLST75:
 15015 0ae7 00000000 		.4byte	.LVL183
 15016 0aeb 06000000 		.4byte	.LVL184
 15017 0aef 0100     		.2byte	0x1
 15018 0af1 50       		.byte	0x50
 15019 0af2 06000000 		.4byte	.LVL184
 15020 0af6 4A000000 		.4byte	.LVL195
 15021 0afa 0100     		.2byte	0x1
 15022 0afc 55       		.byte	0x55
 15023 0afd 4A000000 		.4byte	.LVL195
 15024 0b01 4D000000 		.4byte	.LVL196-1
 15025 0b05 0100     		.2byte	0x1
 15026 0b07 50       		.byte	0x50
 15027 0b08 4D000000 		.4byte	.LVL196-1
 15028 0b0c 4E000000 		.4byte	.LFE286
 15029 0b10 0400     		.2byte	0x4
 15030 0b12 F3       		.byte	0xf3
 15031 0b13 01       		.uleb128 0x1
 15032 0b14 50       		.byte	0x50
 15033 0b15 9F       		.byte	0x9f
 15034 0b16 00000000 		.4byte	0
 15035 0b1a 00000000 		.4byte	0
 15036              	.LLST76:
 15037 0b1e 0C000000 		.4byte	.LVL185
 15038 0b22 12000000 		.4byte	.LVL186
 15039 0b26 0200     		.2byte	0x2
 15040 0b28 30       		.byte	0x30
 15041 0b29 9F       		.byte	0x9f
 15042 0b2a 12000000 		.4byte	.LVL186
 15043 0b2e 24000000 		.4byte	.LVL188
 15044 0b32 0100     		.2byte	0x1
 15045 0b34 54       		.byte	0x54
 15046 0b35 24000000 		.4byte	.LVL188
 15047 0b39 32000000 		.4byte	.LVL191
 15048 0b3d 0300     		.2byte	0x3
 15049 0b3f 74       		.byte	0x74
 15050 0b40 7F       		.sleb128 -1
 15051 0b41 9F       		.byte	0x9f
 15052 0b42 32000000 		.4byte	.LVL191
 15053 0b46 38000000 		.4byte	.LVL192
 15054 0b4a 0100     		.2byte	0x1
 15055 0b4c 54       		.byte	0x54
 15056 0b4d 00000000 		.4byte	0
ARM GAS  C:\Users\jo\AppData\Local\Temp\ccMF9q4g.s 			page 269


 15057 0b51 00000000 		.4byte	0
 15058              	.LLST77:
 15059 0b55 26000000 		.4byte	.LVL189
 15060 0b59 38000000 		.4byte	.LVL192
 15061 0b5d 0100     		.2byte	0x1
 15062 0b5f 56       		.byte	0x56
 15063 0b60 00000000 		.4byte	0
 15064 0b64 00000000 		.4byte	0
 15065              	.LLST78:
 15066 0b68 00000000 		.4byte	.LVL197
 15067 0b6c 08000000 		.4byte	.LVL198
 15068 0b70 0100     		.2byte	0x1
 15069 0b72 50       		.byte	0x50
 15070 0b73 08000000 		.4byte	.LVL198
 15071 0b77 58000000 		.4byte	.LFE287
 15072 0b7b 0100     		.2byte	0x1
 15073 0b7d 55       		.byte	0x55
 15074 0b7e 00000000 		.4byte	0
 15075 0b82 00000000 		.4byte	0
 15076              	.LLST79:
 15077 0b86 0C000000 		.4byte	.LVL199
 15078 0b8a 19000000 		.4byte	.LVL200-1
 15079 0b8e 0100     		.2byte	0x1
 15080 0b90 50       		.byte	0x50
 15081 0b91 19000000 		.4byte	.LVL200-1
 15082 0b95 2C000000 		.4byte	.LVL202
 15083 0b99 0100     		.2byte	0x1
 15084 0b9b 54       		.byte	0x54
 15085 0b9c 2C000000 		.4byte	.LVL202
 15086 0ba0 2E000000 		.4byte	.LVL203
 15087 0ba4 0100     		.2byte	0x1
 15088 0ba6 50       		.byte	0x50
 15089 0ba7 3A000000 		.4byte	.LVL204
 15090 0bab 58000000 		.4byte	.LFE287
 15091 0baf 0100     		.2byte	0x1
 15092 0bb1 54       		.byte	0x54
 15093 0bb2 00000000 		.4byte	0
 15094 0bb6 00000000 		.4byte	0
 15095              	.LLST80:
 15096 0bba 00000000 		.4byte	.LVL206
 15097 0bbe 08000000 		.4byte	.LVL207
 15098 0bc2 0100     		.2byte	0x1
 15099 0bc4 50       		.byte	0x50
 15100 0bc5 08000000 		.4byte	.LVL207
 15101 0bc9 12000000 		.4byte	.LVL209
 15102 0bcd 0100     		.2byte	0x1
 15103 0bcf 54       		.byte	0x54
 15104 0bd0 12000000 		.4byte	.LVL209
 15105 0bd4 15000000 		.4byte	.LVL210-1
 15106 0bd8 0100     		.2byte	0x1
 15107 0bda 50       		.byte	0x50
 15108 0bdb 15000000 		.4byte	.LVL210-1
 15109 0bdf 16000000 		.4byte	.LFE288
 15110 0be3 0400     		.2byte	0x4
 15111 0be5 F3       		.byte	0xf3
 15112 0be6 01       		.uleb128 0x1
 15113 0be7 50       		.byte	0x50
ARM GAS  C:\Users\jo\AppData\Local\Temp\ccMF9q4g.s 			page 270


 15114 0be8 9F       		.byte	0x9f
 15115 0be9 00000000 		.4byte	0
 15116 0bed 00000000 		.4byte	0
 15117              	.LLST81:
 15118 0bf1 00000000 		.4byte	.LVL212
 15119 0bf5 04000000 		.4byte	.LVL213
 15120 0bf9 0100     		.2byte	0x1
 15121 0bfb 50       		.byte	0x50
 15122 0bfc 04000000 		.4byte	.LVL213
 15123 0c00 08000000 		.4byte	.LFE292
 15124 0c04 0400     		.2byte	0x4
 15125 0c06 F3       		.byte	0xf3
 15126 0c07 01       		.uleb128 0x1
 15127 0c08 50       		.byte	0x50
 15128 0c09 9F       		.byte	0x9f
 15129 0c0a 00000000 		.4byte	0
 15130 0c0e 00000000 		.4byte	0
 15131              	.LLST82:
 15132 0c12 00000000 		.4byte	.LVL212
 15133 0c16 07000000 		.4byte	.LVL214-1
 15134 0c1a 0100     		.2byte	0x1
 15135 0c1c 51       		.byte	0x51
 15136 0c1d 07000000 		.4byte	.LVL214-1
 15137 0c21 08000000 		.4byte	.LFE292
 15138 0c25 0400     		.2byte	0x4
 15139 0c27 F3       		.byte	0xf3
 15140 0c28 01       		.uleb128 0x1
 15141 0c29 51       		.byte	0x51
 15142 0c2a 9F       		.byte	0x9f
 15143 0c2b 00000000 		.4byte	0
 15144 0c2f 00000000 		.4byte	0
 15145              	.LLST83:
 15146 0c33 00000000 		.4byte	.LVL212
 15147 0c37 07000000 		.4byte	.LVL214-1
 15148 0c3b 0100     		.2byte	0x1
 15149 0c3d 52       		.byte	0x52
 15150 0c3e 07000000 		.4byte	.LVL214-1
 15151 0c42 08000000 		.4byte	.LFE292
 15152 0c46 0400     		.2byte	0x4
 15153 0c48 F3       		.byte	0xf3
 15154 0c49 01       		.uleb128 0x1
 15155 0c4a 52       		.byte	0x52
 15156 0c4b 9F       		.byte	0x9f
 15157 0c4c 00000000 		.4byte	0
 15158 0c50 00000000 		.4byte	0
 15159              	.LLST84:
 15160 0c54 00000000 		.4byte	.LVL212
 15161 0c58 07000000 		.4byte	.LVL214-1
 15162 0c5c 0100     		.2byte	0x1
 15163 0c5e 53       		.byte	0x53
 15164 0c5f 07000000 		.4byte	.LVL214-1
 15165 0c63 08000000 		.4byte	.LFE292
 15166 0c67 0400     		.2byte	0x4
 15167 0c69 F3       		.byte	0xf3
 15168 0c6a 01       		.uleb128 0x1
 15169 0c6b 53       		.byte	0x53
 15170 0c6c 9F       		.byte	0x9f
ARM GAS  C:\Users\jo\AppData\Local\Temp\ccMF9q4g.s 			page 271


 15171 0c6d 00000000 		.4byte	0
 15172 0c71 00000000 		.4byte	0
 15173              	.LLST85:
 15174 0c75 00000000 		.4byte	.LVL215
 15175 0c79 13000000 		.4byte	.LVL216-1
 15176 0c7d 0100     		.2byte	0x1
 15177 0c7f 50       		.byte	0x50
 15178 0c80 13000000 		.4byte	.LVL216-1
 15179 0c84 1E000000 		.4byte	.LFE293
 15180 0c88 0400     		.2byte	0x4
 15181 0c8a F3       		.byte	0xf3
 15182 0c8b 01       		.uleb128 0x1
 15183 0c8c 50       		.byte	0x50
 15184 0c8d 9F       		.byte	0x9f
 15185 0c8e 00000000 		.4byte	0
 15186 0c92 00000000 		.4byte	0
 15187              	.LLST86:
 15188 0c96 00000000 		.4byte	.LVL217
 15189 0c9a 14000000 		.4byte	.LVL218
 15190 0c9e 0100     		.2byte	0x1
 15191 0ca0 50       		.byte	0x50
 15192 0ca1 14000000 		.4byte	.LVL218
 15193 0ca5 52000000 		.4byte	.LVL227
 15194 0ca9 0100     		.2byte	0x1
 15195 0cab 56       		.byte	0x56
 15196 0cac 52000000 		.4byte	.LVL227
 15197 0cb0 60000000 		.4byte	.LFE284
 15198 0cb4 0400     		.2byte	0x4
 15199 0cb6 F3       		.byte	0xf3
 15200 0cb7 01       		.uleb128 0x1
 15201 0cb8 50       		.byte	0x50
 15202 0cb9 9F       		.byte	0x9f
 15203 0cba 00000000 		.4byte	0
 15204 0cbe 00000000 		.4byte	0
 15205              	.LLST87:
 15206 0cc2 00000000 		.4byte	.LVL217
 15207 0cc6 14000000 		.4byte	.LVL218
 15208 0cca 0100     		.2byte	0x1
 15209 0ccc 51       		.byte	0x51
 15210 0ccd 14000000 		.4byte	.LVL218
 15211 0cd1 52000000 		.4byte	.LVL227
 15212 0cd5 0100     		.2byte	0x1
 15213 0cd7 57       		.byte	0x57
 15214 0cd8 52000000 		.4byte	.LVL227
 15215 0cdc 60000000 		.4byte	.LFE284
 15216 0ce0 0400     		.2byte	0x4
 15217 0ce2 F3       		.byte	0xf3
 15218 0ce3 01       		.uleb128 0x1
 15219 0ce4 51       		.byte	0x51
 15220 0ce5 9F       		.byte	0x9f
 15221 0ce6 00000000 		.4byte	0
 15222 0cea 00000000 		.4byte	0
 15223              	.LLST88:
 15224 0cee 00000000 		.4byte	.LVL217
 15225 0cf2 14000000 		.4byte	.LVL218
 15226 0cf6 0100     		.2byte	0x1
 15227 0cf8 52       		.byte	0x52
ARM GAS  C:\Users\jo\AppData\Local\Temp\ccMF9q4g.s 			page 272


 15228 0cf9 14000000 		.4byte	.LVL218
 15229 0cfd 52000000 		.4byte	.LVL227
 15230 0d01 0100     		.2byte	0x1
 15231 0d03 58       		.byte	0x58
 15232 0d04 52000000 		.4byte	.LVL227
 15233 0d08 60000000 		.4byte	.LFE284
 15234 0d0c 0400     		.2byte	0x4
 15235 0d0e F3       		.byte	0xf3
 15236 0d0f 01       		.uleb128 0x1
 15237 0d10 52       		.byte	0x52
 15238 0d11 9F       		.byte	0x9f
 15239 0d12 00000000 		.4byte	0
 15240 0d16 00000000 		.4byte	0
 15241              	.LLST89:
 15242 0d1a 00000000 		.4byte	.LVL217
 15243 0d1e 14000000 		.4byte	.LVL218
 15244 0d22 0200     		.2byte	0x2
 15245 0d24 30       		.byte	0x30
 15246 0d25 9F       		.byte	0x9f
 15247 0d26 14000000 		.4byte	.LVL218
 15248 0d2a 36000000 		.4byte	.LVL223
 15249 0d2e 0100     		.2byte	0x1
 15250 0d30 54       		.byte	0x54
 15251 0d31 36000000 		.4byte	.LVL223
 15252 0d35 3E000000 		.4byte	.LVL224
 15253 0d39 0300     		.2byte	0x3
 15254 0d3b 74       		.byte	0x74
 15255 0d3c 7F       		.sleb128 -1
 15256 0d3d 9F       		.byte	0x9f
 15257 0d3e 3E000000 		.4byte	.LVL224
 15258 0d42 52000000 		.4byte	.LVL227
 15259 0d46 0100     		.2byte	0x1
 15260 0d48 54       		.byte	0x54
 15261 0d49 00000000 		.4byte	0
 15262 0d4d 00000000 		.4byte	0
 15263              	.LLST90:
 15264 0d51 14000000 		.4byte	.LVL218
 15265 0d55 1A000000 		.4byte	.LVL219
 15266 0d59 0100     		.2byte	0x1
 15267 0d5b 55       		.byte	0x55
 15268 0d5c 26000000 		.4byte	.LVL220
 15269 0d60 52000000 		.4byte	.LVL227
 15270 0d64 0100     		.2byte	0x1
 15271 0d66 55       		.byte	0x55
 15272 0d67 00000000 		.4byte	0
 15273 0d6b 00000000 		.4byte	0
 15274              	.LLST91:
 15275 0d6f 2E000000 		.4byte	.LVL221
 15276 0d73 34000000 		.4byte	.LVL222
 15277 0d77 0800     		.2byte	0x8
 15278 0d79 76       		.byte	0x76
 15279 0d7a 0C       		.sleb128 12
 15280 0d7b 06       		.byte	0x6
 15281 0d7c 73       		.byte	0x73
 15282 0d7d 00       		.sleb128 0
 15283 0d7e 22       		.byte	0x22
 15284 0d7f 23       		.byte	0x23
ARM GAS  C:\Users\jo\AppData\Local\Temp\ccMF9q4g.s 			page 273


 15285 0d80 04       		.uleb128 0x4
 15286 0d81 34000000 		.4byte	.LVL222
 15287 0d85 36000000 		.4byte	.LVL223
 15288 0d89 0A00     		.2byte	0xa
 15289 0d8b 74       		.byte	0x74
 15290 0d8c 00       		.sleb128 0
 15291 0d8d 33       		.byte	0x33
 15292 0d8e 24       		.byte	0x24
 15293 0d8f 76       		.byte	0x76
 15294 0d90 0C       		.sleb128 12
 15295 0d91 06       		.byte	0x6
 15296 0d92 22       		.byte	0x22
 15297 0d93 23       		.byte	0x23
 15298 0d94 04       		.uleb128 0x4
 15299 0d95 36000000 		.4byte	.LVL223
 15300 0d99 3D000000 		.4byte	.LVL224-1
 15301 0d9d 0A00     		.2byte	0xa
 15302 0d9f 74       		.byte	0x74
 15303 0da0 7F       		.sleb128 -1
 15304 0da1 33       		.byte	0x33
 15305 0da2 24       		.byte	0x24
 15306 0da3 76       		.byte	0x76
 15307 0da4 0C       		.sleb128 12
 15308 0da5 06       		.byte	0x6
 15309 0da6 22       		.byte	0x22
 15310 0da7 23       		.byte	0x23
 15311 0da8 04       		.uleb128 0x4
 15312 0da9 00000000 		.4byte	0
 15313 0dad 00000000 		.4byte	0
 15314              	.LLST92:
 15315 0db1 42000000 		.4byte	.LVL225
 15316 0db5 52000000 		.4byte	.LVL227
 15317 0db9 0100     		.2byte	0x1
 15318 0dbb 57       		.byte	0x57
 15319 0dbc 00000000 		.4byte	0
 15320 0dc0 00000000 		.4byte	0
 15321              	.LLST93:
 15322 0dc4 42000000 		.4byte	.LVL225
 15323 0dc8 52000000 		.4byte	.LVL227
 15324 0dcc 0100     		.2byte	0x1
 15325 0dce 58       		.byte	0x58
 15326 0dcf 00000000 		.4byte	0
 15327 0dd3 00000000 		.4byte	0
 15328              	.LLST94:
 15329 0dd7 42000000 		.4byte	.LVL225
 15330 0ddb 52000000 		.4byte	.LVL227
 15331 0ddf 0100     		.2byte	0x1
 15332 0de1 56       		.byte	0x56
 15333 0de2 00000000 		.4byte	0
 15334 0de6 00000000 		.4byte	0
 15335              	.LLST95:
 15336 0dea 00000000 		.4byte	.LVL228
 15337 0dee 04000000 		.4byte	.LVL229
 15338 0df2 0100     		.2byte	0x1
 15339 0df4 50       		.byte	0x50
 15340 0df5 04000000 		.4byte	.LVL229
 15341 0df9 08000000 		.4byte	.LFE291
ARM GAS  C:\Users\jo\AppData\Local\Temp\ccMF9q4g.s 			page 274


 15342 0dfd 0400     		.2byte	0x4
 15343 0dff F3       		.byte	0xf3
 15344 0e00 01       		.uleb128 0x1
 15345 0e01 50       		.byte	0x50
 15346 0e02 9F       		.byte	0x9f
 15347 0e03 00000000 		.4byte	0
 15348 0e07 00000000 		.4byte	0
 15349              	.LLST96:
 15350 0e0b 00000000 		.4byte	.LVL228
 15351 0e0f 07000000 		.4byte	.LVL230-1
 15352 0e13 0100     		.2byte	0x1
 15353 0e15 51       		.byte	0x51
 15354 0e16 07000000 		.4byte	.LVL230-1
 15355 0e1a 08000000 		.4byte	.LFE291
 15356 0e1e 0400     		.2byte	0x4
 15357 0e20 F3       		.byte	0xf3
 15358 0e21 01       		.uleb128 0x1
 15359 0e22 51       		.byte	0x51
 15360 0e23 9F       		.byte	0x9f
 15361 0e24 00000000 		.4byte	0
 15362 0e28 00000000 		.4byte	0
 15363              	.LLST97:
 15364 0e2c 00000000 		.4byte	.LVL228
 15365 0e30 07000000 		.4byte	.LVL230-1
 15366 0e34 0100     		.2byte	0x1
 15367 0e36 52       		.byte	0x52
 15368 0e37 07000000 		.4byte	.LVL230-1
 15369 0e3b 08000000 		.4byte	.LFE291
 15370 0e3f 0400     		.2byte	0x4
 15371 0e41 F3       		.byte	0xf3
 15372 0e42 01       		.uleb128 0x1
 15373 0e43 52       		.byte	0x52
 15374 0e44 9F       		.byte	0x9f
 15375 0e45 00000000 		.4byte	0
 15376 0e49 00000000 		.4byte	0
 15377              	.LLST98:
 15378 0e4d 00000000 		.4byte	.LVL231
 15379 0e51 0E000000 		.4byte	.LVL232
 15380 0e55 0100     		.2byte	0x1
 15381 0e57 50       		.byte	0x50
 15382 0e58 0E000000 		.4byte	.LVL232
 15383 0e5c D4080000 		.4byte	.LFE273
 15384 0e60 0100     		.2byte	0x1
 15385 0e62 54       		.byte	0x54
 15386 0e63 00000000 		.4byte	0
 15387 0e67 00000000 		.4byte	0
 15388              	.LLST99:
 15389 0e6b 00000000 		.4byte	.LVL231
 15390 0e6f 2A000000 		.4byte	.LVL234
 15391 0e73 0200     		.2byte	0x2
 15392 0e75 30       		.byte	0x30
 15393 0e76 9F       		.byte	0x9f
 15394 0e77 2A000000 		.4byte	.LVL234
 15395 0e7b E8000000 		.4byte	.LVL243
 15396 0e7f 0100     		.2byte	0x1
 15397 0e81 57       		.byte	0x57
 15398 0e82 FE000000 		.4byte	.LVL244
ARM GAS  C:\Users\jo\AppData\Local\Temp\ccMF9q4g.s 			page 275


 15399 0e86 04010000 		.4byte	.LVL245
 15400 0e8a 0200     		.2byte	0x2
 15401 0e8c 39       		.byte	0x39
 15402 0e8d 9F       		.byte	0x9f
 15403 0e8e 04010000 		.4byte	.LVL245
 15404 0e92 56010000 		.4byte	.LVL248
 15405 0e96 0100     		.2byte	0x1
 15406 0e98 57       		.byte	0x57
 15407 0e99 5E010000 		.4byte	.LVL249
 15408 0e9d 8E010000 		.4byte	.LVL250
 15409 0ea1 0200     		.2byte	0x2
 15410 0ea3 36       		.byte	0x36
 15411 0ea4 9F       		.byte	0x9f
 15412 0ea5 8E010000 		.4byte	.LVL250
 15413 0ea9 A0010000 		.4byte	.LVL251
 15414 0ead 0200     		.2byte	0x2
 15415 0eaf 3A       		.byte	0x3a
 15416 0eb0 9F       		.byte	0x9f
 15417 0eb1 A0010000 		.4byte	.LVL251
 15418 0eb5 EE010000 		.4byte	.LVL253
 15419 0eb9 0100     		.2byte	0x1
 15420 0ebb 57       		.byte	0x57
 15421 0ebc F6010000 		.4byte	.LVL254
 15422 0ec0 F8010000 		.4byte	.LVL255
 15423 0ec4 0200     		.2byte	0x2
 15424 0ec6 30       		.byte	0x30
 15425 0ec7 9F       		.byte	0x9f
 15426 0ec8 F8010000 		.4byte	.LVL255
 15427 0ecc 10020000 		.4byte	.LVL256
 15428 0ed0 0100     		.2byte	0x1
 15429 0ed2 57       		.byte	0x57
 15430 0ed3 16020000 		.4byte	.LVL257
 15431 0ed7 62020000 		.4byte	.LVL258
 15432 0edb 0100     		.2byte	0x1
 15433 0edd 57       		.byte	0x57
 15434 0ede 7C020000 		.4byte	.LVL259
 15435 0ee2 B4020000 		.4byte	.LVL260
 15436 0ee6 0200     		.2byte	0x2
 15437 0ee8 3A       		.byte	0x3a
 15438 0ee9 9F       		.byte	0x9f
 15439 0eea B4020000 		.4byte	.LVL260
 15440 0eee BA040000 		.4byte	.LVL279
 15441 0ef2 0100     		.2byte	0x1
 15442 0ef4 57       		.byte	0x57
 15443 0ef5 E8040000 		.4byte	.LVL281
 15444 0ef9 F8040000 		.4byte	.LVL282
 15445 0efd 0200     		.2byte	0x2
 15446 0eff 36       		.byte	0x36
 15447 0f00 9F       		.byte	0x9f
 15448 0f01 F8040000 		.4byte	.LVL282
 15449 0f05 3E050000 		.4byte	.LVL286
 15450 0f09 0100     		.2byte	0x1
 15451 0f0b 57       		.byte	0x57
 15452 0f0c 3E050000 		.4byte	.LVL286
 15453 0f10 6A050000 		.4byte	.LVL288
 15454 0f14 0200     		.2byte	0x2
 15455 0f16 36       		.byte	0x36
ARM GAS  C:\Users\jo\AppData\Local\Temp\ccMF9q4g.s 			page 276


 15456 0f17 9F       		.byte	0x9f
 15457 0f18 6A050000 		.4byte	.LVL288
 15458 0f1c 74050000 		.4byte	.LVL289
 15459 0f20 0100     		.2byte	0x1
 15460 0f22 57       		.byte	0x57
 15461 0f23 7A050000 		.4byte	.LVL290
 15462 0f27 80050000 		.4byte	.LVL291
 15463 0f2b 0100     		.2byte	0x1
 15464 0f2d 57       		.byte	0x57
 15465 0f2e 92050000 		.4byte	.LVL293
 15466 0f32 06060000 		.4byte	.LVL302
 15467 0f36 0100     		.2byte	0x1
 15468 0f38 57       		.byte	0x57
 15469 0f39 1A060000 		.4byte	.LVL303
 15470 0f3d 1C060000 		.4byte	.LVL304
 15471 0f41 0200     		.2byte	0x2
 15472 0f43 3A       		.byte	0x3a
 15473 0f44 9F       		.byte	0x9f
 15474 0f45 30060000 		.4byte	.LVL305
 15475 0f49 36060000 		.4byte	.LVL306
 15476 0f4d 0200     		.2byte	0x2
 15477 0f4f 3A       		.byte	0x3a
 15478 0f50 9F       		.byte	0x9f
 15479 0f51 36060000 		.4byte	.LVL306
 15480 0f55 42060000 		.4byte	.LVL307
 15481 0f59 0100     		.2byte	0x1
 15482 0f5b 57       		.byte	0x57
 15483 0f5c 42060000 		.4byte	.LVL307
 15484 0f60 4A060000 		.4byte	.LVL308
 15485 0f64 0200     		.2byte	0x2
 15486 0f66 30       		.byte	0x30
 15487 0f67 9F       		.byte	0x9f
 15488 0f68 4A060000 		.4byte	.LVL308
 15489 0f6c 54060000 		.4byte	.LVL309
 15490 0f70 0100     		.2byte	0x1
 15491 0f72 57       		.byte	0x57
 15492 0f73 5A060000 		.4byte	.LVL310
 15493 0f77 64060000 		.4byte	.LVL311
 15494 0f7b 0100     		.2byte	0x1
 15495 0f7d 57       		.byte	0x57
 15496 0f7e 66060000 		.4byte	.LVL312
 15497 0f82 6E060000 		.4byte	.LVL313
 15498 0f86 0100     		.2byte	0x1
 15499 0f88 57       		.byte	0x57
 15500 0f89 74060000 		.4byte	.LVL314
 15501 0f8d 7E060000 		.4byte	.LVL315
 15502 0f91 0100     		.2byte	0x1
 15503 0f93 57       		.byte	0x57
 15504 0f94 80060000 		.4byte	.LVL316
 15505 0f98 8A060000 		.4byte	.LVL317
 15506 0f9c 0100     		.2byte	0x1
 15507 0f9e 57       		.byte	0x57
 15508 0f9f 90060000 		.4byte	.LVL318
 15509 0fa3 9C060000 		.4byte	.LVL319
 15510 0fa7 0100     		.2byte	0x1
 15511 0fa9 57       		.byte	0x57
 15512 0faa 9C060000 		.4byte	.LVL319
ARM GAS  C:\Users\jo\AppData\Local\Temp\ccMF9q4g.s 			page 277


 15513 0fae C6060000 		.4byte	.LVL321
 15514 0fb2 0200     		.2byte	0x2
 15515 0fb4 36       		.byte	0x36
 15516 0fb5 9F       		.byte	0x9f
 15517 0fb6 C6060000 		.4byte	.LVL321
 15518 0fba D4060000 		.4byte	.LVL322
 15519 0fbe 0100     		.2byte	0x1
 15520 0fc0 57       		.byte	0x57
 15521 0fc1 08070000 		.4byte	.LVL323
 15522 0fc5 28070000 		.4byte	.LVL325
 15523 0fc9 0200     		.2byte	0x2
 15524 0fcb 36       		.byte	0x36
 15525 0fcc 9F       		.byte	0x9f
 15526 0fcd 28070000 		.4byte	.LVL325
 15527 0fd1 3A070000 		.4byte	.LVL326
 15528 0fd5 0100     		.2byte	0x1
 15529 0fd7 57       		.byte	0x57
 15530 0fd8 3C070000 		.4byte	.LVL327
 15531 0fdc 48070000 		.4byte	.LVL328
 15532 0fe0 0100     		.2byte	0x1
 15533 0fe2 57       		.byte	0x57
 15534 0fe3 4A070000 		.4byte	.LVL329
 15535 0fe7 5C070000 		.4byte	.LVL330
 15536 0feb 0100     		.2byte	0x1
 15537 0fed 57       		.byte	0x57
 15538 0fee 5E070000 		.4byte	.LVL331
 15539 0ff2 70070000 		.4byte	.LVL332
 15540 0ff6 0100     		.2byte	0x1
 15541 0ff8 57       		.byte	0x57
 15542 0ff9 72070000 		.4byte	.LVL333
 15543 0ffd 84070000 		.4byte	.LVL334
 15544 1001 0100     		.2byte	0x1
 15545 1003 57       		.byte	0x57
 15546 1004 86070000 		.4byte	.LVL335
 15547 1008 98070000 		.4byte	.LVL336
 15548 100c 0100     		.2byte	0x1
 15549 100e 57       		.byte	0x57
 15550 100f 9A070000 		.4byte	.LVL337
 15551 1013 AC070000 		.4byte	.LVL338
 15552 1017 0100     		.2byte	0x1
 15553 1019 57       		.byte	0x57
 15554 101a AE070000 		.4byte	.LVL339
 15555 101e B4070000 		.4byte	.LVL340
 15556 1022 0100     		.2byte	0x1
 15557 1024 57       		.byte	0x57
 15558 1025 D0070000 		.4byte	.LVL342
 15559 1029 E0070000 		.4byte	.LVL343
 15560 102d 0200     		.2byte	0x2
 15561 102f 35       		.byte	0x35
 15562 1030 9F       		.byte	0x9f
 15563 1031 E0070000 		.4byte	.LVL343
 15564 1035 FE070000 		.4byte	.LVL347
 15565 1039 0100     		.2byte	0x1
 15566 103b 57       		.byte	0x57
 15567 103c FE070000 		.4byte	.LVL347
 15568 1040 66080000 		.4byte	.LVL352
 15569 1044 0200     		.2byte	0x2
ARM GAS  C:\Users\jo\AppData\Local\Temp\ccMF9q4g.s 			page 278


 15570 1046 36       		.byte	0x36
 15571 1047 9F       		.byte	0x9f
 15572 1048 66080000 		.4byte	.LVL352
 15573 104c 78080000 		.4byte	.LVL354
 15574 1050 0100     		.2byte	0x1
 15575 1052 57       		.byte	0x57
 15576 1053 94080000 		.4byte	.LVL355
 15577 1057 D4080000 		.4byte	.LFE273
 15578 105b 0100     		.2byte	0x1
 15579 105d 57       		.byte	0x57
 15580 105e 00000000 		.4byte	0
 15581 1062 00000000 		.4byte	0
 15582              	.LLST100:
 15583 1066 20000000 		.4byte	.LVL233
 15584 106a 2A000000 		.4byte	.LVL234
 15585 106e 0200     		.2byte	0x2
 15586 1070 30       		.byte	0x30
 15587 1071 9F       		.byte	0x9f
 15588 1072 2A000000 		.4byte	.LVL234
 15589 1076 D4080000 		.4byte	.LFE273
 15590 107a 0100     		.2byte	0x1
 15591 107c 56       		.byte	0x56
 15592 107d 00000000 		.4byte	0
 15593 1081 00000000 		.4byte	0
 15594              	.LLST101:
 15595 1085 34000000 		.4byte	.LVL235
 15596 1089 56010000 		.4byte	.LVL248
 15597 108d 0100     		.2byte	0x1
 15598 108f 54       		.byte	0x54
 15599 1090 5E010000 		.4byte	.LVL249
 15600 1094 9C040000 		.4byte	.LVL276
 15601 1098 0100     		.2byte	0x1
 15602 109a 54       		.byte	0x54
 15603 109b A8040000 		.4byte	.LVL277
 15604 109f 7A050000 		.4byte	.LVL290
 15605 10a3 0100     		.2byte	0x1
 15606 10a5 54       		.byte	0x54
 15607 10a6 92050000 		.4byte	.LVL293
 15608 10aa D4080000 		.4byte	.LFE273
 15609 10ae 0100     		.2byte	0x1
 15610 10b0 54       		.byte	0x54
 15611 10b1 00000000 		.4byte	0
 15612 10b5 00000000 		.4byte	0
 15613              	.LLST102:
 15614 10b9 AC030000 		.4byte	.LVL261
 15615 10bd 06040000 		.4byte	.LVL265
 15616 10c1 0100     		.2byte	0x1
 15617 10c3 54       		.byte	0x54
 15618 10c4 40040000 		.4byte	.LVL269
 15619 10c8 4A040000 		.4byte	.LVL270
 15620 10cc 0100     		.2byte	0x1
 15621 10ce 54       		.byte	0x54
 15622 10cf E8050000 		.4byte	.LVL298
 15623 10d3 06060000 		.4byte	.LVL302
 15624 10d7 0100     		.2byte	0x1
 15625 10d9 54       		.byte	0x54
 15626 10da 00000000 		.4byte	0
ARM GAS  C:\Users\jo\AppData\Local\Temp\ccMF9q4g.s 			page 279


 15627 10de 00000000 		.4byte	0
 15628              	.LLST103:
 15629 10e2 56000000 		.4byte	.LVL236
 15630 10e6 04010000 		.4byte	.LVL245
 15631 10ea 0200     		.2byte	0x2
 15632 10ec 31       		.byte	0x31
 15633 10ed 9F       		.byte	0x9f
 15634 10ee 04010000 		.4byte	.LVL245
 15635 10f2 46010000 		.4byte	.LVL247
 15636 10f6 0100     		.2byte	0x1
 15637 10f8 59       		.byte	0x59
 15638 10f9 5E010000 		.4byte	.LVL249
 15639 10fd F6010000 		.4byte	.LVL254
 15640 1101 0200     		.2byte	0x2
 15641 1103 31       		.byte	0x31
 15642 1104 9F       		.byte	0x9f
 15643 1105 F6010000 		.4byte	.LVL254
 15644 1109 F8010000 		.4byte	.LVL255
 15645 110d 0200     		.2byte	0x2
 15646 110f 30       		.byte	0x30
 15647 1110 9F       		.byte	0x9f
 15648 1111 F8010000 		.4byte	.LVL255
 15649 1115 AC030000 		.4byte	.LVL261
 15650 1119 0200     		.2byte	0x2
 15651 111b 31       		.byte	0x31
 15652 111c 9F       		.byte	0x9f
 15653 111d 28040000 		.4byte	.LVL267
 15654 1121 40040000 		.4byte	.LVL269
 15655 1125 0200     		.2byte	0x2
 15656 1127 31       		.byte	0x31
 15657 1128 9F       		.byte	0x9f
 15658 1129 4A040000 		.4byte	.LVL270
 15659 112d 72040000 		.4byte	.LVL273
 15660 1131 0200     		.2byte	0x2
 15661 1133 31       		.byte	0x31
 15662 1134 9F       		.byte	0x9f
 15663 1135 72040000 		.4byte	.LVL273
 15664 1139 7A040000 		.4byte	.LVL274
 15665 113d 0100     		.2byte	0x1
 15666 113f 59       		.byte	0x59
 15667 1140 A8040000 		.4byte	.LVL277
 15668 1144 F8040000 		.4byte	.LVL282
 15669 1148 0200     		.2byte	0x2
 15670 114a 31       		.byte	0x31
 15671 114b 9F       		.byte	0x9f
 15672 114c F8040000 		.4byte	.LVL282
 15673 1150 0C050000 		.4byte	.LVL283
 15674 1154 0100     		.2byte	0x1
 15675 1156 59       		.byte	0x59
 15676 1157 3E050000 		.4byte	.LVL286
 15677 115b 7A050000 		.4byte	.LVL290
 15678 115f 0200     		.2byte	0x2
 15679 1161 31       		.byte	0x31
 15680 1162 9F       		.byte	0x9f
 15681 1163 92050000 		.4byte	.LVL293
 15682 1167 BA050000 		.4byte	.LVL295
 15683 116b 0100     		.2byte	0x1
ARM GAS  C:\Users\jo\AppData\Local\Temp\ccMF9q4g.s 			page 280


 15684 116d 59       		.byte	0x59
 15685 116e 06060000 		.4byte	.LVL302
 15686 1172 66080000 		.4byte	.LVL352
 15687 1176 0200     		.2byte	0x2
 15688 1178 31       		.byte	0x31
 15689 1179 9F       		.byte	0x9f
 15690 117a 78080000 		.4byte	.LVL354
 15691 117e 94080000 		.4byte	.LVL355
 15692 1182 0200     		.2byte	0x2
 15693 1184 31       		.byte	0x31
 15694 1185 9F       		.byte	0x9f
 15695 1186 94080000 		.4byte	.LVL355
 15696 118a 98080000 		.4byte	.LVL356
 15697 118e 0100     		.2byte	0x1
 15698 1190 59       		.byte	0x59
 15699 1191 00000000 		.4byte	0
 15700 1195 00000000 		.4byte	0
 15701              	.LLST104:
 15702 1199 56000000 		.4byte	.LVL236
 15703 119d 56010000 		.4byte	.LVL248
 15704 11a1 0600     		.2byte	0x6
 15705 11a3 F2       		.byte	0xf2
 15706 11a4 8D210000 		.4byte	.Ldebug_info0+8589
 15707 11a8 00       		.sleb128 0
 15708 11a9 5E010000 		.4byte	.LVL249
 15709 11ad AC030000 		.4byte	.LVL261
 15710 11b1 0600     		.2byte	0x6
 15711 11b3 F2       		.byte	0xf2
 15712 11b4 8D210000 		.4byte	.Ldebug_info0+8589
 15713 11b8 00       		.sleb128 0
 15714 11b9 28040000 		.4byte	.LVL267
 15715 11bd 40040000 		.4byte	.LVL269
 15716 11c1 0600     		.2byte	0x6
 15717 11c3 F2       		.byte	0xf2
 15718 11c4 8D210000 		.4byte	.Ldebug_info0+8589
 15719 11c8 00       		.sleb128 0
 15720 11c9 4A040000 		.4byte	.LVL270
 15721 11cd 9C040000 		.4byte	.LVL276
 15722 11d1 0600     		.2byte	0x6
 15723 11d3 F2       		.byte	0xf2
 15724 11d4 8D210000 		.4byte	.Ldebug_info0+8589
 15725 11d8 00       		.sleb128 0
 15726 11d9 A8040000 		.4byte	.LVL277
 15727 11dd 7A050000 		.4byte	.LVL290
 15728 11e1 0600     		.2byte	0x6
 15729 11e3 F2       		.byte	0xf2
 15730 11e4 8D210000 		.4byte	.Ldebug_info0+8589
 15731 11e8 00       		.sleb128 0
 15732 11e9 92050000 		.4byte	.LVL293
 15733 11ed E8050000 		.4byte	.LVL298
 15734 11f1 0600     		.2byte	0x6
 15735 11f3 F2       		.byte	0xf2
 15736 11f4 8D210000 		.4byte	.Ldebug_info0+8589
 15737 11f8 00       		.sleb128 0
 15738 11f9 06060000 		.4byte	.LVL302
 15739 11fd B2080000 		.4byte	.LVL360
 15740 1201 0600     		.2byte	0x6
ARM GAS  C:\Users\jo\AppData\Local\Temp\ccMF9q4g.s 			page 281


 15741 1203 F2       		.byte	0xf2
 15742 1204 8D210000 		.4byte	.Ldebug_info0+8589
 15743 1208 00       		.sleb128 0
 15744 1209 00000000 		.4byte	0
 15745 120d 00000000 		.4byte	0
 15746              	.LLST105:
 15747 1211 4A040000 		.4byte	.LVL270
 15748 1215 60040000 		.4byte	.LVL271
 15749 1219 0100     		.2byte	0x1
 15750 121b 54       		.byte	0x54
 15751 121c 00000000 		.4byte	0
 15752 1220 00000000 		.4byte	0
 15753              	.LLST108:
 15754 1224 5C000000 		.4byte	.LVL237
 15755 1228 B6000000 		.4byte	.LVL241
 15756 122c 0100     		.2byte	0x1
 15757 122e 54       		.byte	0x54
 15758 122f E0070000 		.4byte	.LVL343
 15759 1233 FE070000 		.4byte	.LVL347
 15760 1237 0100     		.2byte	0x1
 15761 1239 54       		.byte	0x54
 15762 123a 00000000 		.4byte	0
 15763 123e 00000000 		.4byte	0
 15764              	.LLST109:
 15765 1242 72040000 		.4byte	.LVL273
 15766 1246 9C040000 		.4byte	.LVL276
 15767 124a 0600     		.2byte	0x6
 15768 124c F2       		.byte	0xf2
 15769 124d 8D210000 		.4byte	.Ldebug_info0+8589
 15770 1251 00       		.sleb128 0
 15771 1252 F8040000 		.4byte	.LVL282
 15772 1256 3E050000 		.4byte	.LVL286
 15773 125a 0600     		.2byte	0x6
 15774 125c F2       		.byte	0xf2
 15775 125d 8D210000 		.4byte	.Ldebug_info0+8589
 15776 1261 00       		.sleb128 0
 15777 1262 92050000 		.4byte	.LVL293
 15778 1266 E8050000 		.4byte	.LVL298
 15779 126a 0600     		.2byte	0x6
 15780 126c F2       		.byte	0xf2
 15781 126d 8D210000 		.4byte	.Ldebug_info0+8589
 15782 1271 00       		.sleb128 0
 15783 1272 66080000 		.4byte	.LVL352
 15784 1276 78080000 		.4byte	.LVL354
 15785 127a 0600     		.2byte	0x6
 15786 127c F2       		.byte	0xf2
 15787 127d 8D210000 		.4byte	.Ldebug_info0+8589
 15788 1281 00       		.sleb128 0
 15789 1282 94080000 		.4byte	.LVL355
 15790 1286 B2080000 		.4byte	.LVL360
 15791 128a 0600     		.2byte	0x6
 15792 128c F2       		.byte	0xf2
 15793 128d 8D210000 		.4byte	.Ldebug_info0+8589
 15794 1291 00       		.sleb128 0
 15795 1292 00000000 		.4byte	0
 15796 1296 00000000 		.4byte	0
 15797              	.LLST110:
ARM GAS  C:\Users\jo\AppData\Local\Temp\ccMF9q4g.s 			page 282


 15798 129a 72040000 		.4byte	.LVL273
 15799 129e 9C040000 		.4byte	.LVL276
 15800 12a2 0100     		.2byte	0x1
 15801 12a4 54       		.byte	0x54
 15802 12a5 F8040000 		.4byte	.LVL282
 15803 12a9 3E050000 		.4byte	.LVL286
 15804 12ad 0100     		.2byte	0x1
 15805 12af 54       		.byte	0x54
 15806 12b0 92050000 		.4byte	.LVL293
 15807 12b4 E8050000 		.4byte	.LVL298
 15808 12b8 0100     		.2byte	0x1
 15809 12ba 54       		.byte	0x54
 15810 12bb 66080000 		.4byte	.LVL352
 15811 12bf 78080000 		.4byte	.LVL354
 15812 12c3 0100     		.2byte	0x1
 15813 12c5 54       		.byte	0x54
 15814 12c6 94080000 		.4byte	.LVL355
 15815 12ca B2080000 		.4byte	.LVL360
 15816 12ce 0100     		.2byte	0x1
 15817 12d0 54       		.byte	0x54
 15818 12d1 00000000 		.4byte	0
 15819 12d5 00000000 		.4byte	0
 15820              	.LLST112:
 15821 12d9 F8040000 		.4byte	.LVL282
 15822 12dd 2C050000 		.4byte	.LVL285
 15823 12e1 0100     		.2byte	0x1
 15824 12e3 54       		.byte	0x54
 15825 12e4 92050000 		.4byte	.LVL293
 15826 12e8 E8050000 		.4byte	.LVL298
 15827 12ec 0100     		.2byte	0x1
 15828 12ee 54       		.byte	0x54
 15829 12ef 66080000 		.4byte	.LVL352
 15830 12f3 78080000 		.4byte	.LVL354
 15831 12f7 0100     		.2byte	0x1
 15832 12f9 54       		.byte	0x54
 15833 12fa 94080000 		.4byte	.LVL355
 15834 12fe B2080000 		.4byte	.LVL360
 15835 1302 0100     		.2byte	0x1
 15836 1304 54       		.byte	0x54
 15837 1305 00000000 		.4byte	0
 15838 1309 00000000 		.4byte	0
 15839              	.LLST113:
 15840 130d 92050000 		.4byte	.LVL293
 15841 1311 E8050000 		.4byte	.LVL298
 15842 1315 0100     		.2byte	0x1
 15843 1317 54       		.byte	0x54
 15844 1318 94080000 		.4byte	.LVL355
 15845 131c B2080000 		.4byte	.LVL360
 15846 1320 0100     		.2byte	0x1
 15847 1322 54       		.byte	0x54
 15848 1323 00000000 		.4byte	0
 15849 1327 00000000 		.4byte	0
 15850              	.LLST114:
 15851 132b 0C070000 		.4byte	.LVL324
 15852 132f 28070000 		.4byte	.LVL325
 15853 1333 0200     		.2byte	0x2
 15854 1335 30       		.byte	0x30
ARM GAS  C:\Users\jo\AppData\Local\Temp\ccMF9q4g.s 			page 283


 15855 1336 9F       		.byte	0x9f
 15856 1337 00000000 		.4byte	0
 15857 133b 00000000 		.4byte	0
 15858              	.LLST115:
 15859 133f 0C070000 		.4byte	.LVL324
 15860 1343 28070000 		.4byte	.LVL325
 15861 1347 0100     		.2byte	0x1
 15862 1349 52       		.byte	0x52
 15863 134a 00000000 		.4byte	0
 15864 134e 00000000 		.4byte	0
 15865              	.LLST116:
 15866 1352 C2070000 		.4byte	.LVL341
 15867 1356 E0070000 		.4byte	.LVL343
 15868 135a 0200     		.2byte	0x2
 15869 135c 30       		.byte	0x30
 15870 135d 9F       		.byte	0x9f
 15871 135e 00000000 		.4byte	0
 15872 1362 00000000 		.4byte	0
 15873              	.LLST117:
 15874 1366 C2070000 		.4byte	.LVL341
 15875 136a CF070000 		.4byte	.LVL342-1
 15876 136e 0100     		.2byte	0x1
 15877 1370 50       		.byte	0x50
 15878 1371 00000000 		.4byte	0
 15879 1375 00000000 		.4byte	0
 15880              	.LLST118:
 15881 1379 00000000 		.4byte	.LVL361
 15882 137d 03000000 		.4byte	.LVL362-1
 15883 1381 0100     		.2byte	0x1
 15884 1383 50       		.byte	0x50
 15885 1384 03000000 		.4byte	.LVL362-1
 15886 1388 04000000 		.4byte	.LFE274
 15887 138c 0400     		.2byte	0x4
 15888 138e F3       		.byte	0xf3
 15889 138f 01       		.uleb128 0x1
 15890 1390 50       		.byte	0x50
 15891 1391 9F       		.byte	0x9f
 15892 1392 00000000 		.4byte	0
 15893 1396 00000000 		.4byte	0
 15894              	.LLST119:
 15895 139a 00000000 		.4byte	.LVL363
 15896 139e 22000000 		.4byte	.LVL366
 15897 13a2 0100     		.2byte	0x1
 15898 13a4 50       		.byte	0x50
 15899 13a5 22000000 		.4byte	.LVL366
 15900 13a9 2E000000 		.4byte	.LVL368
 15901 13ad 0100     		.2byte	0x1
 15902 13af 54       		.byte	0x54
 15903 13b0 2E000000 		.4byte	.LVL368
 15904 13b4 31000000 		.4byte	.LVL369-1
 15905 13b8 0100     		.2byte	0x1
 15906 13ba 50       		.byte	0x50
 15907 13bb 31000000 		.4byte	.LVL369-1
 15908 13bf 32000000 		.4byte	.LVL369
 15909 13c3 0400     		.2byte	0x4
 15910 13c5 F3       		.byte	0xf3
 15911 13c6 01       		.uleb128 0x1
ARM GAS  C:\Users\jo\AppData\Local\Temp\ccMF9q4g.s 			page 284


 15912 13c7 50       		.byte	0x50
 15913 13c8 9F       		.byte	0x9f
 15914 13c9 32000000 		.4byte	.LVL369
 15915 13cd 34000000 		.4byte	.LVL370
 15916 13d1 0100     		.2byte	0x1
 15917 13d3 50       		.byte	0x50
 15918 13d4 34000000 		.4byte	.LVL370
 15919 13d8 40000000 		.4byte	.LVL373
 15920 13dc 0100     		.2byte	0x1
 15921 13de 54       		.byte	0x54
 15922 13df 40000000 		.4byte	.LVL373
 15923 13e3 48000000 		.4byte	.LFE276
 15924 13e7 0400     		.2byte	0x4
 15925 13e9 F3       		.byte	0xf3
 15926 13ea 01       		.uleb128 0x1
 15927 13eb 50       		.byte	0x50
 15928 13ec 9F       		.byte	0x9f
 15929 13ed 00000000 		.4byte	0
 15930 13f1 00000000 		.4byte	0
 15931              	.LLST120:
 15932 13f5 00000000 		.4byte	.LVL363
 15933 13f9 14000000 		.4byte	.LVL365
 15934 13fd 0100     		.2byte	0x1
 15935 13ff 51       		.byte	0x51
 15936 1400 14000000 		.4byte	.LVL365
 15937 1404 2E000000 		.4byte	.LVL368
 15938 1408 0100     		.2byte	0x1
 15939 140a 55       		.byte	0x55
 15940 140b 2E000000 		.4byte	.LVL368
 15941 140f 32000000 		.4byte	.LVL369
 15942 1413 0400     		.2byte	0x4
 15943 1415 F3       		.byte	0xf3
 15944 1416 01       		.uleb128 0x1
 15945 1417 51       		.byte	0x51
 15946 1418 9F       		.byte	0x9f
 15947 1419 32000000 		.4byte	.LVL369
 15948 141d 36000000 		.4byte	.LVL371
 15949 1421 0100     		.2byte	0x1
 15950 1423 51       		.byte	0x51
 15951 1424 36000000 		.4byte	.LVL371
 15952 1428 48000000 		.4byte	.LFE276
 15953 142c 0400     		.2byte	0x4
 15954 142e F3       		.byte	0xf3
 15955 142f 01       		.uleb128 0x1
 15956 1430 51       		.byte	0x51
 15957 1431 9F       		.byte	0x9f
 15958 1432 00000000 		.4byte	0
 15959 1436 00000000 		.4byte	0
 15960              	.LLST121:
 15961 143a 32000000 		.4byte	.LVL369
 15962 143e 36000000 		.4byte	.LVL371
 15963 1442 0100     		.2byte	0x1
 15964 1444 51       		.byte	0x51
 15965 1445 36000000 		.4byte	.LVL371
 15966 1449 48000000 		.4byte	.LFE276
 15967 144d 0400     		.2byte	0x4
 15968 144f F3       		.byte	0xf3
ARM GAS  C:\Users\jo\AppData\Local\Temp\ccMF9q4g.s 			page 285


 15969 1450 01       		.uleb128 0x1
 15970 1451 51       		.byte	0x51
 15971 1452 9F       		.byte	0x9f
 15972 1453 00000000 		.4byte	0
 15973 1457 00000000 		.4byte	0
 15974              	.LLST122:
 15975 145b 32000000 		.4byte	.LVL369
 15976 145f 34000000 		.4byte	.LVL370
 15977 1463 0100     		.2byte	0x1
 15978 1465 50       		.byte	0x50
 15979 1466 34000000 		.4byte	.LVL370
 15980 146a 40000000 		.4byte	.LVL373
 15981 146e 0100     		.2byte	0x1
 15982 1470 54       		.byte	0x54
 15983 1471 40000000 		.4byte	.LVL373
 15984 1475 48000000 		.4byte	.LFE276
 15985 1479 0400     		.2byte	0x4
 15986 147b F3       		.byte	0xf3
 15987 147c 01       		.uleb128 0x1
 15988 147d 50       		.byte	0x50
 15989 147e 9F       		.byte	0x9f
 15990 147f 00000000 		.4byte	0
 15991 1483 00000000 		.4byte	0
 15992              	.LLST123:
 15993 1487 00000000 		.4byte	.LVL374
 15994 148b 0C000000 		.4byte	.LVL375
 15995 148f 0100     		.2byte	0x1
 15996 1491 50       		.byte	0x50
 15997 1492 0C000000 		.4byte	.LVL375
 15998 1496 9C050000 		.4byte	.LFE283
 15999 149a 0100     		.2byte	0x1
 16000 149c 55       		.byte	0x55
 16001 149d 00000000 		.4byte	0
 16002 14a1 00000000 		.4byte	0
 16003              	.LLST124:
 16004 14a5 10000000 		.4byte	.LVL376
 16005 14a9 1C000000 		.4byte	.LVL377
 16006 14ad 0100     		.2byte	0x1
 16007 14af 50       		.byte	0x50
 16008 14b0 1C000000 		.4byte	.LVL377
 16009 14b4 21000000 		.4byte	.LVL378-1
 16010 14b8 0100     		.2byte	0x1
 16011 14ba 51       		.byte	0x51
 16012 14bb 21000000 		.4byte	.LVL378-1
 16013 14bf 40000000 		.4byte	.LVL382
 16014 14c3 0100     		.2byte	0x1
 16015 14c5 59       		.byte	0x59
 16016 14c6 4E000000 		.4byte	.LVL384
 16017 14ca 8A000000 		.4byte	.LVL391
 16018 14ce 0100     		.2byte	0x1
 16019 14d0 59       		.byte	0x59
 16020 14d1 5C020000 		.4byte	.LVL425
 16021 14d5 61020000 		.4byte	.LVL426-1
 16022 14d9 0100     		.2byte	0x1
 16023 14db 50       		.byte	0x50
 16024 14dc 61020000 		.4byte	.LVL426-1
 16025 14e0 7C020000 		.4byte	.LVL429
ARM GAS  C:\Users\jo\AppData\Local\Temp\ccMF9q4g.s 			page 286


 16026 14e4 0100     		.2byte	0x1
 16027 14e6 59       		.byte	0x59
 16028 14e7 CE040000 		.4byte	.LVL486
 16029 14eb E2040000 		.4byte	.LVL490
 16030 14ef 0100     		.2byte	0x1
 16031 14f1 59       		.byte	0x59
 16032 14f2 80050000 		.4byte	.LVL516
 16033 14f6 84050000 		.4byte	.LVL517
 16034 14fa 0100     		.2byte	0x1
 16035 14fc 59       		.byte	0x59
 16036 14fd 00000000 		.4byte	0
 16037 1501 00000000 		.4byte	0
 16038              	.LLST125:
 16039 1505 26000000 		.4byte	.LVL379
 16040 1509 5C020000 		.4byte	.LVL425
 16041 150d 0100     		.2byte	0x1
 16042 150f 55       		.byte	0x55
 16043 1510 7C020000 		.4byte	.LVL429
 16044 1514 9C050000 		.4byte	.LFE283
 16045 1518 0100     		.2byte	0x1
 16046 151a 55       		.byte	0x55
 16047 151b 00000000 		.4byte	0
 16048 151f 00000000 		.4byte	0
 16049              	.LLST126:
 16050 1523 4E000000 		.4byte	.LVL384
 16051 1527 8A000000 		.4byte	.LVL391
 16052 152b 0200     		.2byte	0x2
 16053 152d 38       		.byte	0x38
 16054 152e 9F       		.byte	0x9f
 16055 152f 8A000000 		.4byte	.LVL391
 16056 1533 9E000000 		.4byte	.LVL393
 16057 1537 0300     		.2byte	0x3
 16058 1539 91       		.byte	0x91
 16059 153a A07F     		.sleb128 -96
 16060 153c 7E010000 		.4byte	.LVL397
 16061 1540 98010000 		.4byte	.LVL401
 16062 1544 0300     		.2byte	0x3
 16063 1546 91       		.byte	0x91
 16064 1547 A07F     		.sleb128 -96
 16065 1549 B4010000 		.4byte	.LVL402
 16066 154d E6010000 		.4byte	.LVL410
 16067 1551 0300     		.2byte	0x3
 16068 1553 91       		.byte	0x91
 16069 1554 A07F     		.sleb128 -96
 16070 1556 4A020000 		.4byte	.LVL424
 16071 155a 5C020000 		.4byte	.LVL425
 16072 155e 0300     		.2byte	0x3
 16073 1560 91       		.byte	0x91
 16074 1561 A07F     		.sleb128 -96
 16075 1563 1C040000 		.4byte	.LVL462
 16076 1567 58040000 		.4byte	.LVL472
 16077 156b 0300     		.2byte	0x3
 16078 156d 91       		.byte	0x91
 16079 156e A07F     		.sleb128 -96
 16080 1570 7C040000 		.4byte	.LVL475
 16081 1574 8E040000 		.4byte	.LVL476
 16082 1578 0300     		.2byte	0x3
ARM GAS  C:\Users\jo\AppData\Local\Temp\ccMF9q4g.s 			page 287


 16083 157a 91       		.byte	0x91
 16084 157b A07F     		.sleb128 -96
 16085 157d CE040000 		.4byte	.LVL486
 16086 1581 E2040000 		.4byte	.LVL490
 16087 1585 0200     		.2byte	0x2
 16088 1587 38       		.byte	0x38
 16089 1588 9F       		.byte	0x9f
 16090 1589 4E050000 		.4byte	.LVL505
 16091 158d 52050000 		.4byte	.LVL506
 16092 1591 0300     		.2byte	0x3
 16093 1593 91       		.byte	0x91
 16094 1594 A07F     		.sleb128 -96
 16095 1596 64050000 		.4byte	.LVL509
 16096 159a 66050000 		.4byte	.LVL510
 16097 159e 0100     		.2byte	0x1
 16098 15a0 53       		.byte	0x53
 16099 15a1 78050000 		.4byte	.LVL513
 16100 15a5 7B050000 		.4byte	.LVL514-1
 16101 15a9 0100     		.2byte	0x1
 16102 15ab 53       		.byte	0x53
 16103 15ac 7B050000 		.4byte	.LVL514-1
 16104 15b0 80050000 		.4byte	.LVL516
 16105 15b4 0300     		.2byte	0x3
 16106 15b6 91       		.byte	0x91
 16107 15b7 A07F     		.sleb128 -96
 16108 15b9 80050000 		.4byte	.LVL516
 16109 15bd 84050000 		.4byte	.LVL517
 16110 15c1 0200     		.2byte	0x2
 16111 15c3 38       		.byte	0x38
 16112 15c4 9F       		.byte	0x9f
 16113 15c5 8C050000 		.4byte	.LVL518
 16114 15c9 8F050000 		.4byte	.LVL519-1
 16115 15cd 0100     		.2byte	0x1
 16116 15cf 53       		.byte	0x53
 16117 15d0 8F050000 		.4byte	.LVL519-1
 16118 15d4 9C050000 		.4byte	.LFE283
 16119 15d8 0300     		.2byte	0x3
 16120 15da 91       		.byte	0x91
 16121 15db A07F     		.sleb128 -96
 16122 15dd 00000000 		.4byte	0
 16123 15e1 00000000 		.4byte	0
 16124              	.LLST127:
 16125 15e5 4E000000 		.4byte	.LVL384
 16126 15e9 8A000000 		.4byte	.LVL391
 16127 15ed 0200     		.2byte	0x2
 16128 15ef 30       		.byte	0x30
 16129 15f0 9F       		.byte	0x9f
 16130 15f1 8A000000 		.4byte	.LVL391
 16131 15f5 E6010000 		.4byte	.LVL410
 16132 15f9 0100     		.2byte	0x1
 16133 15fb 5B       		.byte	0x5b
 16134 15fc FA010000 		.4byte	.LVL413
 16135 1600 44020000 		.4byte	.LVL423
 16136 1604 0100     		.2byte	0x1
 16137 1606 5B       		.byte	0x5b
 16138 1607 44020000 		.4byte	.LVL423
 16139 160b 4A020000 		.4byte	.LVL424
ARM GAS  C:\Users\jo\AppData\Local\Temp\ccMF9q4g.s 			page 288


 16140 160f 0300     		.2byte	0x3
 16141 1611 7B       		.byte	0x7b
 16142 1612 7F       		.sleb128 -1
 16143 1613 9F       		.byte	0x9f
 16144 1614 4A020000 		.4byte	.LVL424
 16145 1618 5C020000 		.4byte	.LVL425
 16146 161c 0100     		.2byte	0x1
 16147 161e 5B       		.byte	0x5b
 16148 161f 7C020000 		.4byte	.LVL429
 16149 1623 16040000 		.4byte	.LVL461
 16150 1627 0100     		.2byte	0x1
 16151 1629 5B       		.byte	0x5b
 16152 162a 16040000 		.4byte	.LVL461
 16153 162e 1C040000 		.4byte	.LVL462
 16154 1632 0300     		.2byte	0x3
 16155 1634 7B       		.byte	0x7b
 16156 1635 7F       		.sleb128 -1
 16157 1636 9F       		.byte	0x9f
 16158 1637 1C040000 		.4byte	.LVL462
 16159 163b 76040000 		.4byte	.LVL474
 16160 163f 0100     		.2byte	0x1
 16161 1641 5B       		.byte	0x5b
 16162 1642 76040000 		.4byte	.LVL474
 16163 1646 7C040000 		.4byte	.LVL475
 16164 164a 0300     		.2byte	0x3
 16165 164c 7B       		.byte	0x7b
 16166 164d 7F       		.sleb128 -1
 16167 164e 9F       		.byte	0x9f
 16168 164f 7C040000 		.4byte	.LVL475
 16169 1653 CE040000 		.4byte	.LVL486
 16170 1657 0100     		.2byte	0x1
 16171 1659 5B       		.byte	0x5b
 16172 165a CE040000 		.4byte	.LVL486
 16173 165e E2040000 		.4byte	.LVL490
 16174 1662 0200     		.2byte	0x2
 16175 1664 30       		.byte	0x30
 16176 1665 9F       		.byte	0x9f
 16177 1666 EA040000 		.4byte	.LVL492
 16178 166a 52050000 		.4byte	.LVL506
 16179 166e 0100     		.2byte	0x1
 16180 1670 5B       		.byte	0x5b
 16181 1671 52050000 		.4byte	.LVL506
 16182 1675 66050000 		.4byte	.LVL510
 16183 1679 0300     		.2byte	0x3
 16184 167b 7B       		.byte	0x7b
 16185 167c 7F       		.sleb128 -1
 16186 167d 9F       		.byte	0x9f
 16187 167e 66050000 		.4byte	.LVL510
 16188 1682 70050000 		.4byte	.LVL512
 16189 1686 0100     		.2byte	0x1
 16190 1688 5B       		.byte	0x5b
 16191 1689 70050000 		.4byte	.LVL512
 16192 168d 80050000 		.4byte	.LVL516
 16193 1691 0300     		.2byte	0x3
 16194 1693 7B       		.byte	0x7b
 16195 1694 7F       		.sleb128 -1
 16196 1695 9F       		.byte	0x9f
ARM GAS  C:\Users\jo\AppData\Local\Temp\ccMF9q4g.s 			page 289


 16197 1696 80050000 		.4byte	.LVL516
 16198 169a 84050000 		.4byte	.LVL517
 16199 169e 0200     		.2byte	0x2
 16200 16a0 30       		.byte	0x30
 16201 16a1 9F       		.byte	0x9f
 16202 16a2 84050000 		.4byte	.LVL517
 16203 16a6 9C050000 		.4byte	.LFE283
 16204 16aa 0300     		.2byte	0x3
 16205 16ac 7B       		.byte	0x7b
 16206 16ad 7F       		.sleb128 -1
 16207 16ae 9F       		.byte	0x9f
 16208 16af 00000000 		.4byte	0
 16209 16b3 00000000 		.4byte	0
 16210              	.LLST128:
 16211 16b7 5C000000 		.4byte	.LVL387
 16212 16bb 5F000000 		.4byte	.LVL388-1
 16213 16bf 0100     		.2byte	0x1
 16214 16c1 50       		.byte	0x50
 16215 16c2 5F000000 		.4byte	.LVL388-1
 16216 16c6 8A000000 		.4byte	.LVL391
 16217 16ca 0100     		.2byte	0x1
 16218 16cc 54       		.byte	0x54
 16219 16cd 8A000000 		.4byte	.LVL391
 16220 16d1 D0010000 		.4byte	.LVL407
 16221 16d5 0100     		.2byte	0x1
 16222 16d7 56       		.byte	0x56
 16223 16d8 D0010000 		.4byte	.LVL407
 16224 16dc FA010000 		.4byte	.LVL413
 16225 16e0 0100     		.2byte	0x1
 16226 16e2 58       		.byte	0x58
 16227 16e3 FA010000 		.4byte	.LVL413
 16228 16e7 5C020000 		.4byte	.LVL425
 16229 16eb 0100     		.2byte	0x1
 16230 16ed 56       		.byte	0x56
 16231 16ee 7C020000 		.4byte	.LVL429
 16232 16f2 56040000 		.4byte	.LVL471
 16233 16f6 0100     		.2byte	0x1
 16234 16f8 56       		.byte	0x56
 16235 16f9 58040000 		.4byte	.LVL472
 16236 16fd CE040000 		.4byte	.LVL486
 16237 1701 0100     		.2byte	0x1
 16238 1703 56       		.byte	0x56
 16239 1704 CE040000 		.4byte	.LVL486
 16240 1708 EA040000 		.4byte	.LVL492
 16241 170c 0100     		.2byte	0x1
 16242 170e 54       		.byte	0x54
 16243 170f EA040000 		.4byte	.LVL492
 16244 1713 4E050000 		.4byte	.LVL505
 16245 1717 0100     		.2byte	0x1
 16246 1719 56       		.byte	0x56
 16247 171a 4E050000 		.4byte	.LVL505
 16248 171e 52050000 		.4byte	.LVL506
 16249 1722 0100     		.2byte	0x1
 16250 1724 58       		.byte	0x58
 16251 1725 52050000 		.4byte	.LVL506
 16252 1729 62050000 		.4byte	.LVL508
 16253 172d 0100     		.2byte	0x1
ARM GAS  C:\Users\jo\AppData\Local\Temp\ccMF9q4g.s 			page 290


 16254 172f 56       		.byte	0x56
 16255 1730 64050000 		.4byte	.LVL509
 16256 1734 66050000 		.4byte	.LVL510
 16257 1738 0100     		.2byte	0x1
 16258 173a 50       		.byte	0x50
 16259 173b 66050000 		.4byte	.LVL510
 16260 173f 7E050000 		.4byte	.LVL515
 16261 1743 0100     		.2byte	0x1
 16262 1745 56       		.byte	0x56
 16263 1746 7E050000 		.4byte	.LVL515
 16264 174a 80050000 		.4byte	.LVL516
 16265 174e 0100     		.2byte	0x1
 16266 1750 50       		.byte	0x50
 16267 1751 80050000 		.4byte	.LVL516
 16268 1755 84050000 		.4byte	.LVL517
 16269 1759 0100     		.2byte	0x1
 16270 175b 54       		.byte	0x54
 16271 175c 84050000 		.4byte	.LVL517
 16272 1760 92050000 		.4byte	.LVL520
 16273 1764 0100     		.2byte	0x1
 16274 1766 56       		.byte	0x56
 16275 1767 92050000 		.4byte	.LVL520
 16276 176b 9C050000 		.4byte	.LFE283
 16277 176f 0100     		.2byte	0x1
 16278 1771 50       		.byte	0x50
 16279 1772 00000000 		.4byte	0
 16280 1776 00000000 		.4byte	0
 16281              	.LLST129:
 16282 177a 64000000 		.4byte	.LVL389
 16283 177e 66000000 		.4byte	.LVL390
 16284 1782 0100     		.2byte	0x1
 16285 1784 50       		.byte	0x50
 16286 1785 66000000 		.4byte	.LVL390
 16287 1789 5C020000 		.4byte	.LVL425
 16288 178d 0100     		.2byte	0x1
 16289 178f 5A       		.byte	0x5a
 16290 1790 7C020000 		.4byte	.LVL429
 16291 1794 9C050000 		.4byte	.LFE283
 16292 1798 0100     		.2byte	0x1
 16293 179a 5A       		.byte	0x5a
 16294 179b 00000000 		.4byte	0
 16295 179f 00000000 		.4byte	0
 16296              	.LLST130:
 16297 17a3 34000000 		.4byte	.LVL380
 16298 17a7 40000000 		.4byte	.LVL382
 16299 17ab 0100     		.2byte	0x1
 16300 17ad 57       		.byte	0x57
 16301 17ae 4E000000 		.4byte	.LVL384
 16302 17b2 5A000000 		.4byte	.LVL386
 16303 17b6 0100     		.2byte	0x1
 16304 17b8 57       		.byte	0x57
 16305 17b9 00000000 		.4byte	0
 16306 17bd 00000000 		.4byte	0
 16307              	.LLST131:
 16308 17c1 82010000 		.4byte	.LVL398
 16309 17c5 CA010000 		.4byte	.LVL405
 16310 17c9 0100     		.2byte	0x1
ARM GAS  C:\Users\jo\AppData\Local\Temp\ccMF9q4g.s 			page 291


 16311 17cb 59       		.byte	0x59
 16312 17cc 00000000 		.4byte	0
 16313 17d0 00000000 		.4byte	0
 16314              	.LLST132:
 16315 17d4 C4010000 		.4byte	.LVL404
 16316 17d8 FA010000 		.4byte	.LVL413
 16317 17dc 0300     		.2byte	0x3
 16318 17de 91       		.byte	0x91
 16319 17df A47F     		.sleb128 -92
 16320 17e1 CE040000 		.4byte	.LVL486
 16321 17e5 EA040000 		.4byte	.LVL492
 16322 17e9 0300     		.2byte	0x3
 16323 17eb 91       		.byte	0x91
 16324 17ec A47F     		.sleb128 -92
 16325 17ee 4E050000 		.4byte	.LVL505
 16326 17f2 52050000 		.4byte	.LVL506
 16327 17f6 0100     		.2byte	0x1
 16328 17f8 57       		.byte	0x57
 16329 17f9 80050000 		.4byte	.LVL516
 16330 17fd 84050000 		.4byte	.LVL517
 16331 1801 0300     		.2byte	0x3
 16332 1803 91       		.byte	0x91
 16333 1804 A47F     		.sleb128 -92
 16334 1806 00000000 		.4byte	0
 16335 180a 00000000 		.4byte	0
 16336              	.LLST133:
 16337 180e 06020000 		.4byte	.LVL414
 16338 1812 0A020000 		.4byte	.LVL416
 16339 1816 0100     		.2byte	0x1
 16340 1818 52       		.byte	0x52
 16341 1819 0A020000 		.4byte	.LVL416
 16342 181d 14020000 		.4byte	.LVL417
 16343 1821 0300     		.2byte	0x3
 16344 1823 72       		.byte	0x72
 16345 1824 01       		.sleb128 1
 16346 1825 9F       		.byte	0x9f
 16347 1826 14020000 		.4byte	.LVL417
 16348 182a 18020000 		.4byte	.LVL418
 16349 182e 0100     		.2byte	0x1
 16350 1830 52       		.byte	0x52
 16351 1831 18020000 		.4byte	.LVL418
 16352 1835 1A020000 		.4byte	.LVL419
 16353 1839 0300     		.2byte	0x3
 16354 183b 72       		.byte	0x72
 16355 183c 01       		.sleb128 1
 16356 183d 9F       		.byte	0x9f
 16357 183e 00000000 		.4byte	0
 16358 1842 00000000 		.4byte	0
 16359              	.LLST134:
 16360 1846 2E020000 		.4byte	.LVL421
 16361 184a 3D020000 		.4byte	.LVL422-1
 16362 184e 0100     		.2byte	0x1
 16363 1850 53       		.byte	0x53
 16364 1851 00000000 		.4byte	0
 16365 1855 00000000 		.4byte	0
 16366              	.LLST135:
 16367 1859 92020000 		.4byte	.LVL430
ARM GAS  C:\Users\jo\AppData\Local\Temp\ccMF9q4g.s 			page 292


 16368 185d D8020000 		.4byte	.LVL436
 16369 1861 0100     		.2byte	0x1
 16370 1863 5A       		.byte	0x5a
 16371 1864 BA040000 		.4byte	.LVL481
 16372 1868 CE040000 		.4byte	.LVL486
 16373 186c 0100     		.2byte	0x1
 16374 186e 5A       		.byte	0x5a
 16375 186f 00000000 		.4byte	0
 16376 1873 00000000 		.4byte	0
 16377              	.LLST136:
 16378 1877 B0020000 		.4byte	.LVL432
 16379 187b D8020000 		.4byte	.LVL436
 16380 187f 0300     		.2byte	0x3
 16381 1881 08       		.byte	0x8
 16382 1882 2E       		.byte	0x2e
 16383 1883 9F       		.byte	0x9f
 16384 1884 BA040000 		.4byte	.LVL481
 16385 1888 CE040000 		.4byte	.LVL486
 16386 188c 0300     		.2byte	0x3
 16387 188e 08       		.byte	0x8
 16388 188f 2E       		.byte	0x2e
 16389 1890 9F       		.byte	0x9f
 16390 1891 00000000 		.4byte	0
 16391 1895 00000000 		.4byte	0
 16392              	.LLST137:
 16393 1899 B0020000 		.4byte	.LVL432
 16394 189d D8020000 		.4byte	.LVL436
 16395 18a1 0100     		.2byte	0x1
 16396 18a3 5A       		.byte	0x5a
 16397 18a4 BA040000 		.4byte	.LVL481
 16398 18a8 CE040000 		.4byte	.LVL486
 16399 18ac 0100     		.2byte	0x1
 16400 18ae 5A       		.byte	0x5a
 16401 18af 00000000 		.4byte	0
 16402 18b3 00000000 		.4byte	0
 16403              	.LLST138:
 16404 18b7 B0020000 		.4byte	.LVL432
 16405 18bb C8020000 		.4byte	.LVL433
 16406 18bf 0100     		.2byte	0x1
 16407 18c1 52       		.byte	0x52
 16408 18c2 C8020000 		.4byte	.LVL433
 16409 18c6 D2020000 		.4byte	.LVL434
 16410 18ca 0300     		.2byte	0x3
 16411 18cc 73       		.byte	0x73
 16412 18cd 01       		.sleb128 1
 16413 18ce 9F       		.byte	0x9f
 16414 18cf D2020000 		.4byte	.LVL434
 16415 18d3 D6020000 		.4byte	.LVL435
 16416 18d7 0100     		.2byte	0x1
 16417 18d9 53       		.byte	0x53
 16418 18da D6020000 		.4byte	.LVL435
 16419 18de D8020000 		.4byte	.LVL436
 16420 18e2 0300     		.2byte	0x3
 16421 18e4 73       		.byte	0x73
 16422 18e5 01       		.sleb128 1
 16423 18e6 9F       		.byte	0x9f
 16424 18e7 BA040000 		.4byte	.LVL481
ARM GAS  C:\Users\jo\AppData\Local\Temp\ccMF9q4g.s 			page 293


 16425 18eb BC040000 		.4byte	.LVL482
 16426 18ef 0300     		.2byte	0x3
 16427 18f1 73       		.byte	0x73
 16428 18f2 01       		.sleb128 1
 16429 18f3 9F       		.byte	0x9f
 16430 18f4 00000000 		.4byte	0
 16431 18f8 00000000 		.4byte	0
 16432              	.LLST139:
 16433 18fc D8020000 		.4byte	.LVL436
 16434 1900 EA020000 		.4byte	.LVL437
 16435 1904 0200     		.2byte	0x2
 16436 1906 30       		.byte	0x30
 16437 1907 9F       		.byte	0x9f
 16438 1908 00000000 		.4byte	0
 16439 190c 00000000 		.4byte	0
 16440              	.LLST140:
 16441 1910 EA020000 		.4byte	.LVL437
 16442 1914 6C030000 		.4byte	.LVL446
 16443 1918 0300     		.2byte	0x3
 16444 191a 08       		.byte	0x8
 16445 191b 2E       		.byte	0x2e
 16446 191c 9F       		.byte	0x9f
 16447 191d EA040000 		.4byte	.LVL492
 16448 1921 06050000 		.4byte	.LVL496
 16449 1925 0300     		.2byte	0x3
 16450 1927 08       		.byte	0x8
 16451 1928 2E       		.byte	0x2e
 16452 1929 9F       		.byte	0x9f
 16453 192a 00000000 		.4byte	0
 16454 192e 00000000 		.4byte	0
 16455              	.LLST141:
 16456 1932 EA020000 		.4byte	.LVL437
 16457 1936 6C030000 		.4byte	.LVL446
 16458 193a 0100     		.2byte	0x1
 16459 193c 5A       		.byte	0x5a
 16460 193d EA040000 		.4byte	.LVL492
 16461 1941 06050000 		.4byte	.LVL496
 16462 1945 0100     		.2byte	0x1
 16463 1947 5A       		.byte	0x5a
 16464 1948 00000000 		.4byte	0
 16465 194c 00000000 		.4byte	0
 16466              	.LLST142:
 16467 1950 EE020000 		.4byte	.LVL438
 16468 1954 F0020000 		.4byte	.LVL439
 16469 1958 0300     		.2byte	0x3
 16470 195a 74       		.byte	0x74
 16471 195b 7F       		.sleb128 -1
 16472 195c 9F       		.byte	0x9f
 16473 195d F0020000 		.4byte	.LVL439
 16474 1961 48030000 		.4byte	.LVL440
 16475 1965 0100     		.2byte	0x1
 16476 1967 52       		.byte	0x52
 16477 1968 48030000 		.4byte	.LVL440
 16478 196c 52030000 		.4byte	.LVL441
 16479 1970 0300     		.2byte	0x3
 16480 1972 73       		.byte	0x73
 16481 1973 01       		.sleb128 1
ARM GAS  C:\Users\jo\AppData\Local\Temp\ccMF9q4g.s 			page 294


 16482 1974 9F       		.byte	0x9f
 16483 1975 52030000 		.4byte	.LVL441
 16484 1979 56030000 		.4byte	.LVL442
 16485 197d 0100     		.2byte	0x1
 16486 197f 53       		.byte	0x53
 16487 1980 56030000 		.4byte	.LVL442
 16488 1984 58030000 		.4byte	.LVL443
 16489 1988 0300     		.2byte	0x3
 16490 198a 73       		.byte	0x73
 16491 198b 01       		.sleb128 1
 16492 198c 9F       		.byte	0x9f
 16493 198d EA040000 		.4byte	.LVL492
 16494 1991 EC040000 		.4byte	.LVL493
 16495 1995 0300     		.2byte	0x3
 16496 1997 73       		.byte	0x73
 16497 1998 01       		.sleb128 1
 16498 1999 9F       		.byte	0x9f
 16499 199a 00000000 		.4byte	0
 16500 199e 00000000 		.4byte	0
 16501              	.LLST143:
 16502 19a2 58030000 		.4byte	.LVL443
 16503 19a6 60030000 		.4byte	.LVL444
 16504 19aa 0200     		.2byte	0x2
 16505 19ac 30       		.byte	0x30
 16506 19ad 9F       		.byte	0x9f
 16507 19ae 00000000 		.4byte	0
 16508 19b2 00000000 		.4byte	0
 16509              	.LLST144:
 16510 19b6 A4030000 		.4byte	.LVL450
 16511 19ba F8030000 		.4byte	.LVL459
 16512 19be 0100     		.2byte	0x1
 16513 19c0 5A       		.byte	0x5a
 16514 19c1 8E040000 		.4byte	.LVL476
 16515 19c5 A8040000 		.4byte	.LVL480
 16516 19c9 0100     		.2byte	0x1
 16517 19cb 5A       		.byte	0x5a
 16518 19cc 00000000 		.4byte	0
 16519 19d0 00000000 		.4byte	0
 16520              	.LLST145:
 16521 19d4 B8030000 		.4byte	.LVL451
 16522 19d8 F8030000 		.4byte	.LVL459
 16523 19dc 0300     		.2byte	0x3
 16524 19de 08       		.byte	0x8
 16525 19df 2E       		.byte	0x2e
 16526 19e0 9F       		.byte	0x9f
 16527 19e1 8E040000 		.4byte	.LVL476
 16528 19e5 A8040000 		.4byte	.LVL480
 16529 19e9 0300     		.2byte	0x3
 16530 19eb 08       		.byte	0x8
 16531 19ec 2E       		.byte	0x2e
 16532 19ed 9F       		.byte	0x9f
 16533 19ee 00000000 		.4byte	0
 16534 19f2 00000000 		.4byte	0
 16535              	.LLST146:
 16536 19f6 B8030000 		.4byte	.LVL451
 16537 19fa F8030000 		.4byte	.LVL459
 16538 19fe 0100     		.2byte	0x1
ARM GAS  C:\Users\jo\AppData\Local\Temp\ccMF9q4g.s 			page 295


 16539 1a00 5A       		.byte	0x5a
 16540 1a01 8E040000 		.4byte	.LVL476
 16541 1a05 A8040000 		.4byte	.LVL480
 16542 1a09 0100     		.2byte	0x1
 16543 1a0b 5A       		.byte	0x5a
 16544 1a0c 00000000 		.4byte	0
 16545 1a10 00000000 		.4byte	0
 16546              	.LLST147:
 16547 1a14 BC030000 		.4byte	.LVL452
 16548 1a18 BE030000 		.4byte	.LVL453
 16549 1a1c 0300     		.2byte	0x3
 16550 1a1e 77       		.byte	0x77
 16551 1a1f 7F       		.sleb128 -1
 16552 1a20 9F       		.byte	0x9f
 16553 1a21 BE030000 		.4byte	.LVL453
 16554 1a25 D4030000 		.4byte	.LVL454
 16555 1a29 0100     		.2byte	0x1
 16556 1a2b 52       		.byte	0x52
 16557 1a2c D4030000 		.4byte	.LVL454
 16558 1a30 DC030000 		.4byte	.LVL455
 16559 1a34 0300     		.2byte	0x3
 16560 1a36 73       		.byte	0x73
 16561 1a37 01       		.sleb128 1
 16562 1a38 9F       		.byte	0x9f
 16563 1a39 DC030000 		.4byte	.LVL455
 16564 1a3d E0030000 		.4byte	.LVL456
 16565 1a41 0100     		.2byte	0x1
 16566 1a43 53       		.byte	0x53
 16567 1a44 E0030000 		.4byte	.LVL456
 16568 1a48 E2030000 		.4byte	.LVL457
 16569 1a4c 0300     		.2byte	0x3
 16570 1a4e 73       		.byte	0x73
 16571 1a4f 01       		.sleb128 1
 16572 1a50 9F       		.byte	0x9f
 16573 1a51 8E040000 		.4byte	.LVL476
 16574 1a55 90040000 		.4byte	.LVL477
 16575 1a59 0300     		.2byte	0x3
 16576 1a5b 73       		.byte	0x73
 16577 1a5c 01       		.sleb128 1
 16578 1a5d 9F       		.byte	0x9f
 16579 1a5e 00000000 		.4byte	0
 16580 1a62 00000000 		.4byte	0
 16581              	.LLST148:
 16582 1a66 E2030000 		.4byte	.LVL457
 16583 1a6a EA030000 		.4byte	.LVL458
 16584 1a6e 0200     		.2byte	0x2
 16585 1a70 30       		.byte	0x30
 16586 1a71 9F       		.byte	0x9f
 16587 1a72 00000000 		.4byte	0
 16588 1a76 00000000 		.4byte	0
 16589              	.LLST149:
 16590 1a7a 3A040000 		.4byte	.LVL465
 16591 1a7e 48040000 		.4byte	.LVL468
 16592 1a82 0100     		.2byte	0x1
 16593 1a84 54       		.byte	0x54
 16594 1a85 00000000 		.4byte	0
 16595 1a89 00000000 		.4byte	0
ARM GAS  C:\Users\jo\AppData\Local\Temp\ccMF9q4g.s 			page 296


 16596              	.LLST150:
 16597 1a8d 46040000 		.4byte	.LVL467
 16598 1a91 58040000 		.4byte	.LVL472
 16599 1a95 0300     		.2byte	0x3
 16600 1a97 91       		.byte	0x91
 16601 1a98 A47F     		.sleb128 -92
 16602 1a9a 00000000 		.4byte	0
 16603 1a9e 00000000 		.4byte	0
 16604              	.LLST151:
 16605 1aa2 8E040000 		.4byte	.LVL476
 16606 1aa6 94040000 		.4byte	.LVL478
 16607 1aaa 0100     		.2byte	0x1
 16608 1aac 52       		.byte	0x52
 16609 1aad 94040000 		.4byte	.LVL478
 16610 1ab1 9E040000 		.4byte	.LVL479
 16611 1ab5 0300     		.2byte	0x3
 16612 1ab7 72       		.byte	0x72
 16613 1ab8 01       		.sleb128 1
 16614 1ab9 9F       		.byte	0x9f
 16615 1aba 00000000 		.4byte	0
 16616 1abe 00000000 		.4byte	0
 16617              	.LLST152:
 16618 1ac2 9E040000 		.4byte	.LVL479
 16619 1ac6 A8040000 		.4byte	.LVL480
 16620 1aca 0100     		.2byte	0x1
 16621 1acc 52       		.byte	0x52
 16622 1acd 00000000 		.4byte	0
 16623 1ad1 00000000 		.4byte	0
 16624              	.LLST153:
 16625 1ad5 A8040000 		.4byte	.LVL480
 16626 1ad9 BA040000 		.4byte	.LVL481
 16627 1add 0100     		.2byte	0x1
 16628 1adf 52       		.byte	0x52
 16629 1ae0 00000000 		.4byte	0
 16630 1ae4 00000000 		.4byte	0
 16631              	.LLST154:
 16632 1ae8 BA040000 		.4byte	.LVL481
 16633 1aec BE040000 		.4byte	.LVL483
 16634 1af0 0100     		.2byte	0x1
 16635 1af2 52       		.byte	0x52
 16636 1af3 BE040000 		.4byte	.LVL483
 16637 1af7 C6040000 		.4byte	.LVL484
 16638 1afb 0300     		.2byte	0x3
 16639 1afd 72       		.byte	0x72
 16640 1afe 01       		.sleb128 1
 16641 1aff 9F       		.byte	0x9f
 16642 1b00 C6040000 		.4byte	.LVL484
 16643 1b04 CA040000 		.4byte	.LVL485
 16644 1b08 0100     		.2byte	0x1
 16645 1b0a 52       		.byte	0x52
 16646 1b0b CA040000 		.4byte	.LVL485
 16647 1b0f CE040000 		.4byte	.LVL486
 16648 1b13 0300     		.2byte	0x3
 16649 1b15 72       		.byte	0x72
 16650 1b16 01       		.sleb128 1
 16651 1b17 9F       		.byte	0x9f
 16652 1b18 00000000 		.4byte	0
ARM GAS  C:\Users\jo\AppData\Local\Temp\ccMF9q4g.s 			page 297


 16653 1b1c 00000000 		.4byte	0
 16654              	.LLST155:
 16655 1b20 EA040000 		.4byte	.LVL492
 16656 1b24 F0040000 		.4byte	.LVL494
 16657 1b28 0100     		.2byte	0x1
 16658 1b2a 52       		.byte	0x52
 16659 1b2b F0040000 		.4byte	.LVL494
 16660 1b2f FC040000 		.4byte	.LVL495
 16661 1b33 0300     		.2byte	0x3
 16662 1b35 72       		.byte	0x72
 16663 1b36 01       		.sleb128 1
 16664 1b37 9F       		.byte	0x9f
 16665 1b38 00000000 		.4byte	0
 16666 1b3c 00000000 		.4byte	0
 16667              	.LLST156:
 16668 1b40 FC040000 		.4byte	.LVL495
 16669 1b44 06050000 		.4byte	.LVL496
 16670 1b48 0100     		.2byte	0x1
 16671 1b4a 52       		.byte	0x52
 16672 1b4b 00000000 		.4byte	0
 16673 1b4f 00000000 		.4byte	0
 16674              	.LLST157:
 16675 1b53 06020000 		.4byte	.LVL414
 16676 1b57 1A020000 		.4byte	.LVL419
 16677 1b5b 0300     		.2byte	0x3
 16678 1b5d 08       		.byte	0x8
 16679 1b5e 2E       		.byte	0x2e
 16680 1b5f 9F       		.byte	0x9f
 16681 1b60 1A050000 		.4byte	.LVL499
 16682 1b64 44050000 		.4byte	.LVL503
 16683 1b68 0300     		.2byte	0x3
 16684 1b6a 08       		.byte	0x8
 16685 1b6b 2E       		.byte	0x2e
 16686 1b6c 9F       		.byte	0x9f
 16687 1b6d 00000000 		.4byte	0
 16688 1b71 00000000 		.4byte	0
 16689              	.LLST158:
 16690 1b75 06020000 		.4byte	.LVL414
 16691 1b79 1A020000 		.4byte	.LVL419
 16692 1b7d 0100     		.2byte	0x1
 16693 1b7f 5A       		.byte	0x5a
 16694 1b80 1A050000 		.4byte	.LVL499
 16695 1b84 44050000 		.4byte	.LVL503
 16696 1b88 0100     		.2byte	0x1
 16697 1b8a 5A       		.byte	0x5a
 16698 1b8b 00000000 		.4byte	0
 16699 1b8f 00000000 		.4byte	0
 16700              	.LLST159:
 16701 1b93 06020000 		.4byte	.LVL414
 16702 1b97 08020000 		.4byte	.LVL415
 16703 1b9b 0300     		.2byte	0x3
 16704 1b9d 73       		.byte	0x73
 16705 1b9e 01       		.sleb128 1
 16706 1b9f 9F       		.byte	0x9f
 16707 1ba0 1A050000 		.4byte	.LVL499
 16708 1ba4 32050000 		.4byte	.LVL500
 16709 1ba8 0100     		.2byte	0x1
ARM GAS  C:\Users\jo\AppData\Local\Temp\ccMF9q4g.s 			page 298


 16710 1baa 52       		.byte	0x52
 16711 1bab 32050000 		.4byte	.LVL500
 16712 1baf 3C050000 		.4byte	.LVL501
 16713 1bb3 0300     		.2byte	0x3
 16714 1bb5 73       		.byte	0x73
 16715 1bb6 01       		.sleb128 1
 16716 1bb7 9F       		.byte	0x9f
 16717 1bb8 3C050000 		.4byte	.LVL501
 16718 1bbc 40050000 		.4byte	.LVL502
 16719 1bc0 0100     		.2byte	0x1
 16720 1bc2 53       		.byte	0x53
 16721 1bc3 40050000 		.4byte	.LVL502
 16722 1bc7 44050000 		.4byte	.LVL503
 16723 1bcb 0300     		.2byte	0x3
 16724 1bcd 73       		.byte	0x73
 16725 1bce 01       		.sleb128 1
 16726 1bcf 9F       		.byte	0x9f
 16727 1bd0 00000000 		.4byte	0
 16728 1bd4 00000000 		.4byte	0
 16729              	.LLST160:
 16730 1bd8 5C020000 		.4byte	.LVL425
 16731 1bdc 7C020000 		.4byte	.LVL429
 16732 1be0 0100     		.2byte	0x1
 16733 1be2 55       		.byte	0x55
 16734 1be3 00000000 		.4byte	0
 16735 1be7 00000000 		.4byte	0
 16736              	.LLST161:
 16737 1beb 00000000 		.4byte	.LVL521
 16738 1bef 04000000 		.4byte	.LVL522
 16739 1bf3 0100     		.2byte	0x1
 16740 1bf5 50       		.byte	0x50
 16741 1bf6 04000000 		.4byte	.LVL522
 16742 1bfa 08000000 		.4byte	.LFE290
 16743 1bfe 0400     		.2byte	0x4
 16744 1c00 F3       		.byte	0xf3
 16745 1c01 01       		.uleb128 0x1
 16746 1c02 50       		.byte	0x50
 16747 1c03 9F       		.byte	0x9f
 16748 1c04 00000000 		.4byte	0
 16749 1c08 00000000 		.4byte	0
 16750              	.LLST162:
 16751 1c0c 00000000 		.4byte	.LVL524
 16752 1c10 0C000000 		.4byte	.LVL525
 16753 1c14 0100     		.2byte	0x1
 16754 1c16 50       		.byte	0x50
 16755 1c17 0C000000 		.4byte	.LVL525
 16756 1c1b 4E000000 		.4byte	.LVL537
 16757 1c1f 0100     		.2byte	0x1
 16758 1c21 56       		.byte	0x56
 16759 1c22 4E000000 		.4byte	.LVL537
 16760 1c26 52000000 		.4byte	.LVL538
 16761 1c2a 0400     		.2byte	0x4
 16762 1c2c F3       		.byte	0xf3
 16763 1c2d 01       		.uleb128 0x1
 16764 1c2e 50       		.byte	0x50
 16765 1c2f 9F       		.byte	0x9f
 16766 1c30 52000000 		.4byte	.LVL538
ARM GAS  C:\Users\jo\AppData\Local\Temp\ccMF9q4g.s 			page 299


 16767 1c34 68000000 		.4byte	.LFE295
 16768 1c38 0100     		.2byte	0x1
 16769 1c3a 56       		.byte	0x56
 16770 1c3b 00000000 		.4byte	0
 16771 1c3f 00000000 		.4byte	0
 16772              	.LLST163:
 16773 1c43 00000000 		.4byte	.LVL524
 16774 1c47 0C000000 		.4byte	.LVL525
 16775 1c4b 0100     		.2byte	0x1
 16776 1c4d 51       		.byte	0x51
 16777 1c4e 0C000000 		.4byte	.LVL525
 16778 1c52 36000000 		.4byte	.LVL532
 16779 1c56 0100     		.2byte	0x1
 16780 1c58 55       		.byte	0x55
 16781 1c59 36000000 		.4byte	.LVL532
 16782 1c5d 44000000 		.4byte	.LVL535
 16783 1c61 0300     		.2byte	0x3
 16784 1c63 75       		.byte	0x75
 16785 1c64 7E       		.sleb128 -2
 16786 1c65 9F       		.byte	0x9f
 16787 1c66 44000000 		.4byte	.LVL535
 16788 1c6a 46000000 		.4byte	.LVL536
 16789 1c6e 0400     		.2byte	0x4
 16790 1c70 F3       		.byte	0xf3
 16791 1c71 01       		.uleb128 0x1
 16792 1c72 51       		.byte	0x51
 16793 1c73 9F       		.byte	0x9f
 16794 1c74 46000000 		.4byte	.LVL536
 16795 1c78 4E000000 		.4byte	.LVL537
 16796 1c7c 0100     		.2byte	0x1
 16797 1c7e 55       		.byte	0x55
 16798 1c7f 4E000000 		.4byte	.LVL537
 16799 1c83 52000000 		.4byte	.LVL538
 16800 1c87 0400     		.2byte	0x4
 16801 1c89 F3       		.byte	0xf3
 16802 1c8a 01       		.uleb128 0x1
 16803 1c8b 51       		.byte	0x51
 16804 1c8c 9F       		.byte	0x9f
 16805 1c8d 52000000 		.4byte	.LVL538
 16806 1c91 68000000 		.4byte	.LFE295
 16807 1c95 0100     		.2byte	0x1
 16808 1c97 55       		.byte	0x55
 16809 1c98 00000000 		.4byte	0
 16810 1c9c 00000000 		.4byte	0
 16811              	.LLST164:
 16812 1ca0 32000000 		.4byte	.LVL531
 16813 1ca4 44000000 		.4byte	.LVL535
 16814 1ca8 0100     		.2byte	0x1
 16815 1caa 54       		.byte	0x54
 16816 1cab 00000000 		.4byte	0
 16817 1caf 00000000 		.4byte	0
 16818              	.LLST166:
 16819 1cb3 00000000 		.4byte	.LVL524
 16820 1cb7 0C000000 		.4byte	.LVL525
 16821 1cbb 0200     		.2byte	0x2
 16822 1cbd 30       		.byte	0x30
 16823 1cbe 9F       		.byte	0x9f
ARM GAS  C:\Users\jo\AppData\Local\Temp\ccMF9q4g.s 			page 300


 16824 1cbf 0C000000 		.4byte	.LVL525
 16825 1cc3 0E000000 		.4byte	.LVL526
 16826 1cc7 0100     		.2byte	0x1
 16827 1cc9 54       		.byte	0x54
 16828 1cca 0E000000 		.4byte	.LVL526
 16829 1cce 14000000 		.4byte	.LVL527
 16830 1cd2 0300     		.2byte	0x3
 16831 1cd4 74       		.byte	0x74
 16832 1cd5 7F       		.sleb128 -1
 16833 1cd6 9F       		.byte	0x9f
 16834 1cd7 14000000 		.4byte	.LVL527
 16835 1cdb 18000000 		.4byte	.LVL528
 16836 1cdf 0100     		.2byte	0x1
 16837 1ce1 54       		.byte	0x54
 16838 1ce2 00000000 		.4byte	0
 16839 1ce6 00000000 		.4byte	0
 16840              	.LLST167:
 16841 1cea 00000000 		.4byte	.LVL540
 16842 1cee 24000000 		.4byte	.LVL544
 16843 1cf2 0100     		.2byte	0x1
 16844 1cf4 50       		.byte	0x50
 16845 1cf5 24000000 		.4byte	.LVL544
 16846 1cf9 4A000000 		.4byte	.LVL549
 16847 1cfd 0100     		.2byte	0x1
 16848 1cff 55       		.byte	0x55
 16849 1d00 4A000000 		.4byte	.LVL549
 16850 1d04 54000000 		.4byte	.LFE299
 16851 1d08 0100     		.2byte	0x1
 16852 1d0a 50       		.byte	0x50
 16853 1d0b 00000000 		.4byte	0
 16854 1d0f 00000000 		.4byte	0
 16855              	.LLST168:
 16856 1d13 08000000 		.4byte	.LVL541
 16857 1d17 12000000 		.4byte	.LVL542
 16858 1d1b 0200     		.2byte	0x2
 16859 1d1d 30       		.byte	0x30
 16860 1d1e 9F       		.byte	0x9f
 16861 1d1f 18000000 		.4byte	.LVL543
 16862 1d23 3A000000 		.4byte	.LVL546
 16863 1d27 0100     		.2byte	0x1
 16864 1d29 54       		.byte	0x54
 16865 1d2a 4A000000 		.4byte	.LVL549
 16866 1d2e 54000000 		.4byte	.LFE299
 16867 1d32 0100     		.2byte	0x1
 16868 1d34 50       		.byte	0x50
 16869 1d35 00000000 		.4byte	0
 16870 1d39 00000000 		.4byte	0
 16871              	.LLST169:
 16872 1d3d 3A000000 		.4byte	.LVL546
 16873 1d41 4A000000 		.4byte	.LVL549
 16874 1d45 0100     		.2byte	0x1
 16875 1d47 54       		.byte	0x54
 16876 1d48 00000000 		.4byte	0
 16877 1d4c 00000000 		.4byte	0
 16878              	.LLST170:
 16879 1d50 00000000 		.4byte	.LVL550
 16880 1d54 08000000 		.4byte	.LVL551
ARM GAS  C:\Users\jo\AppData\Local\Temp\ccMF9q4g.s 			page 301


 16881 1d58 0100     		.2byte	0x1
 16882 1d5a 50       		.byte	0x50
 16883 1d5b 08000000 		.4byte	.LVL551
 16884 1d5f 28000000 		.4byte	.LVL558
 16885 1d63 0100     		.2byte	0x1
 16886 1d65 55       		.byte	0x55
 16887 1d66 28000000 		.4byte	.LVL558
 16888 1d6a 2C000000 		.4byte	.LFE300
 16889 1d6e 0400     		.2byte	0x4
 16890 1d70 F3       		.byte	0xf3
 16891 1d71 01       		.uleb128 0x1
 16892 1d72 50       		.byte	0x50
 16893 1d73 9F       		.byte	0x9f
 16894 1d74 00000000 		.4byte	0
 16895 1d78 00000000 		.4byte	0
 16896              	.LLST171:
 16897 1d7c 10000000 		.4byte	.LVL553
 16898 1d80 18000000 		.4byte	.LVL555
 16899 1d84 0100     		.2byte	0x1
 16900 1d86 50       		.byte	0x50
 16901 1d87 18000000 		.4byte	.LVL555
 16902 1d8b 28000000 		.4byte	.LVL558
 16903 1d8f 0100     		.2byte	0x1
 16904 1d91 54       		.byte	0x54
 16905 1d92 28000000 		.4byte	.LVL558
 16906 1d96 2C000000 		.4byte	.LFE300
 16907 1d9a 0100     		.2byte	0x1
 16908 1d9c 50       		.byte	0x50
 16909 1d9d 00000000 		.4byte	0
 16910 1da1 00000000 		.4byte	0
 16911              	.LLST172:
 16912 1da5 12000000 		.4byte	.LVL554
 16913 1da9 18000000 		.4byte	.LVL555
 16914 1dad 0100     		.2byte	0x1
 16915 1daf 50       		.byte	0x50
 16916 1db0 18000000 		.4byte	.LVL555
 16917 1db4 28000000 		.4byte	.LVL558
 16918 1db8 0100     		.2byte	0x1
 16919 1dba 54       		.byte	0x54
 16920 1dbb 28000000 		.4byte	.LVL558
 16921 1dbf 2C000000 		.4byte	.LFE300
 16922 1dc3 0100     		.2byte	0x1
 16923 1dc5 50       		.byte	0x50
 16924 1dc6 00000000 		.4byte	0
 16925 1dca 00000000 		.4byte	0
 16926              	.LLST173:
 16927 1dce 12000000 		.4byte	.LVL554
 16928 1dd2 28000000 		.4byte	.LVL558
 16929 1dd6 0100     		.2byte	0x1
 16930 1dd8 55       		.byte	0x55
 16931 1dd9 28000000 		.4byte	.LVL558
 16932 1ddd 2C000000 		.4byte	.LFE300
 16933 1de1 0400     		.2byte	0x4
 16934 1de3 F3       		.byte	0xf3
 16935 1de4 01       		.uleb128 0x1
 16936 1de5 50       		.byte	0x50
 16937 1de6 9F       		.byte	0x9f
ARM GAS  C:\Users\jo\AppData\Local\Temp\ccMF9q4g.s 			page 302


 16938 1de7 00000000 		.4byte	0
 16939 1deb 00000000 		.4byte	0
 16940              	.LLST174:
 16941 1def 00000000 		.4byte	.LVL559
 16942 1df3 08000000 		.4byte	.LVL560
 16943 1df7 0100     		.2byte	0x1
 16944 1df9 50       		.byte	0x50
 16945 1dfa 08000000 		.4byte	.LVL560
 16946 1dfe 26000000 		.4byte	.LVL566
 16947 1e02 0100     		.2byte	0x1
 16948 1e04 55       		.byte	0x55
 16949 1e05 26000000 		.4byte	.LVL566
 16950 1e09 29000000 		.4byte	.LVL567-1
 16951 1e0d 0100     		.2byte	0x1
 16952 1e0f 50       		.byte	0x50
 16953 1e10 29000000 		.4byte	.LVL567-1
 16954 1e14 2A000000 		.4byte	.LVL567
 16955 1e18 0400     		.2byte	0x4
 16956 1e1a F3       		.byte	0xf3
 16957 1e1b 01       		.uleb128 0x1
 16958 1e1c 50       		.byte	0x50
 16959 1e1d 9F       		.byte	0x9f
 16960 1e1e 2A000000 		.4byte	.LVL567
 16961 1e22 30000000 		.4byte	.LFE301
 16962 1e26 0100     		.2byte	0x1
 16963 1e28 55       		.byte	0x55
 16964 1e29 00000000 		.4byte	0
 16965 1e2d 00000000 		.4byte	0
 16966              	.LLST175:
 16967 1e31 0A000000 		.4byte	.LVL561
 16968 1e35 11000000 		.4byte	.LVL563-1
 16969 1e39 0100     		.2byte	0x1
 16970 1e3b 50       		.byte	0x50
 16971 1e3c 12000000 		.4byte	.LVL563
 16972 1e40 18000000 		.4byte	.LVL564
 16973 1e44 0100     		.2byte	0x1
 16974 1e46 54       		.byte	0x54
 16975 1e47 00000000 		.4byte	0
 16976 1e4b 00000000 		.4byte	0
 16977              	.LLST176:
 16978 1e4f 0E000000 		.4byte	.LVL562
 16979 1e53 18000000 		.4byte	.LVL564
 16980 1e57 0100     		.2byte	0x1
 16981 1e59 54       		.byte	0x54
 16982 1e5a 00000000 		.4byte	0
 16983 1e5e 00000000 		.4byte	0
 16984              	.LLST177:
 16985 1e62 00000000 		.4byte	.LVL569
 16986 1e66 0C000000 		.4byte	.LVL571
 16987 1e6a 0100     		.2byte	0x1
 16988 1e6c 50       		.byte	0x50
 16989 1e6d 0C000000 		.4byte	.LVL571
 16990 1e71 32000000 		.4byte	.LFE302
 16991 1e75 0400     		.2byte	0x4
 16992 1e77 F3       		.byte	0xf3
 16993 1e78 01       		.uleb128 0x1
 16994 1e79 50       		.byte	0x50
ARM GAS  C:\Users\jo\AppData\Local\Temp\ccMF9q4g.s 			page 303


 16995 1e7a 9F       		.byte	0x9f
 16996 1e7b 00000000 		.4byte	0
 16997 1e7f 00000000 		.4byte	0
 16998              	.LLST178:
 16999 1e83 00000000 		.4byte	.LVL569
 17000 1e87 0C000000 		.4byte	.LVL571
 17001 1e8b 0100     		.2byte	0x1
 17002 1e8d 51       		.byte	0x51
 17003 1e8e 0C000000 		.4byte	.LVL571
 17004 1e92 32000000 		.4byte	.LFE302
 17005 1e96 0400     		.2byte	0x4
 17006 1e98 F3       		.byte	0xf3
 17007 1e99 01       		.uleb128 0x1
 17008 1e9a 51       		.byte	0x51
 17009 1e9b 9F       		.byte	0x9f
 17010 1e9c 00000000 		.4byte	0
 17011 1ea0 00000000 		.4byte	0
 17012              	.LLST179:
 17013 1ea4 00000000 		.4byte	.LVL569
 17014 1ea8 0C000000 		.4byte	.LVL571
 17015 1eac 0100     		.2byte	0x1
 17016 1eae 52       		.byte	0x52
 17017 1eaf 0C000000 		.4byte	.LVL571
 17018 1eb3 32000000 		.4byte	.LFE302
 17019 1eb7 0400     		.2byte	0x4
 17020 1eb9 F3       		.byte	0xf3
 17021 1eba 01       		.uleb128 0x1
 17022 1ebb 52       		.byte	0x52
 17023 1ebc 9F       		.byte	0x9f
 17024 1ebd 00000000 		.4byte	0
 17025 1ec1 00000000 		.4byte	0
 17026              	.LLST180:
 17027 1ec5 00000000 		.4byte	.LVL575
 17028 1ec9 0C000000 		.4byte	.LVL576
 17029 1ecd 0100     		.2byte	0x1
 17030 1ecf 50       		.byte	0x50
 17031 1ed0 0C000000 		.4byte	.LVL576
 17032 1ed4 7E000000 		.4byte	.LVL593
 17033 1ed8 0100     		.2byte	0x1
 17034 1eda 56       		.byte	0x56
 17035 1edb 7E000000 		.4byte	.LVL593
 17036 1edf 8E000000 		.4byte	.LVL594
 17037 1ee3 0400     		.2byte	0x4
 17038 1ee5 F3       		.byte	0xf3
 17039 1ee6 01       		.uleb128 0x1
 17040 1ee7 50       		.byte	0x50
 17041 1ee8 9F       		.byte	0x9f
 17042 1ee9 8E000000 		.4byte	.LVL594
 17043 1eed 9A000000 		.4byte	.LVL597
 17044 1ef1 0100     		.2byte	0x1
 17045 1ef3 56       		.byte	0x56
 17046 1ef4 9A000000 		.4byte	.LVL597
 17047 1ef8 BC000000 		.4byte	.LFE303
 17048 1efc 0400     		.2byte	0x4
 17049 1efe F3       		.byte	0xf3
 17050 1eff 01       		.uleb128 0x1
 17051 1f00 50       		.byte	0x50
ARM GAS  C:\Users\jo\AppData\Local\Temp\ccMF9q4g.s 			page 304


 17052 1f01 9F       		.byte	0x9f
 17053 1f02 00000000 		.4byte	0
 17054 1f06 00000000 		.4byte	0
 17055              	.LLST181:
 17056 1f0a 00000000 		.4byte	.LVL575
 17057 1f0e 15000000 		.4byte	.LVL577-1
 17058 1f12 0100     		.2byte	0x1
 17059 1f14 51       		.byte	0x51
 17060 1f15 15000000 		.4byte	.LVL577-1
 17061 1f19 B6000000 		.4byte	.LVL600
 17062 1f1d 0100     		.2byte	0x1
 17063 1f1f 5A       		.byte	0x5a
 17064 1f20 B6000000 		.4byte	.LVL600
 17065 1f24 BC000000 		.4byte	.LFE303
 17066 1f28 0400     		.2byte	0x4
 17067 1f2a F3       		.byte	0xf3
 17068 1f2b 01       		.uleb128 0x1
 17069 1f2c 51       		.byte	0x51
 17070 1f2d 9F       		.byte	0x9f
 17071 1f2e 00000000 		.4byte	0
 17072 1f32 00000000 		.4byte	0
 17073              	.LLST182:
 17074 1f36 00000000 		.4byte	.LVL575
 17075 1f3a 15000000 		.4byte	.LVL577-1
 17076 1f3e 0100     		.2byte	0x1
 17077 1f40 52       		.byte	0x52
 17078 1f41 15000000 		.4byte	.LVL577-1
 17079 1f45 34000000 		.4byte	.LVL581
 17080 1f49 0100     		.2byte	0x1
 17081 1f4b 54       		.byte	0x54
 17082 1f4c 34000000 		.4byte	.LVL581
 17083 1f50 60000000 		.4byte	.LVL588
 17084 1f54 0300     		.2byte	0x3
 17085 1f56 72       		.byte	0x72
 17086 1f57 01       		.sleb128 1
 17087 1f58 9F       		.byte	0x9f
 17088 1f59 00000000 		.4byte	0
 17089 1f5d 00000000 		.4byte	0
 17090              	.LLST183:
 17091 1f61 00000000 		.4byte	.LVL575
 17092 1f65 15000000 		.4byte	.LVL577-1
 17093 1f69 0100     		.2byte	0x1
 17094 1f6b 53       		.byte	0x53
 17095 1f6c 15000000 		.4byte	.LVL577-1
 17096 1f70 BC000000 		.4byte	.LFE303
 17097 1f74 0400     		.2byte	0x4
 17098 1f76 F3       		.byte	0xf3
 17099 1f77 01       		.uleb128 0x1
 17100 1f78 53       		.byte	0x53
 17101 1f79 9F       		.byte	0x9f
 17102 1f7a 00000000 		.4byte	0
 17103 1f7e 00000000 		.4byte	0
 17104              	.LLST184:
 17105 1f82 16000000 		.4byte	.LVL577
 17106 1f86 24000000 		.4byte	.LVL578
 17107 1f8a 0100     		.2byte	0x1
 17108 1f8c 50       		.byte	0x50
ARM GAS  C:\Users\jo\AppData\Local\Temp\ccMF9q4g.s 			page 305


 17109 1f8d 24000000 		.4byte	.LVL578
 17110 1f91 2B000000 		.4byte	.LVL579-1
 17111 1f95 0300     		.2byte	0x3
 17112 1f97 72       		.byte	0x72
 17113 1f98 7F       		.sleb128 -1
 17114 1f99 9F       		.byte	0x9f
 17115 1f9a 00000000 		.4byte	0
 17116 1f9e 00000000 		.4byte	0
 17117              	.LLST185:
 17118 1fa2 2E000000 		.4byte	.LVL580
 17119 1fa6 60000000 		.4byte	.LVL588
 17120 1faa 0200     		.2byte	0x2
 17121 1fac 70       		.byte	0x70
 17122 1fad 00       		.sleb128 0
 17123 1fae 00000000 		.4byte	0
 17124 1fb2 00000000 		.4byte	0
 17125              	.LLST186:
 17126 1fb6 2E000000 		.4byte	.LVL580
 17127 1fba 34000000 		.4byte	.LVL581
 17128 1fbe 0200     		.2byte	0x2
 17129 1fc0 31       		.byte	0x31
 17130 1fc1 9F       		.byte	0x9f
 17131 1fc2 34000000 		.4byte	.LVL581
 17132 1fc6 44000000 		.4byte	.LVL585
 17133 1fca 0100     		.2byte	0x1
 17134 1fcc 51       		.byte	0x51
 17135 1fcd 00000000 		.4byte	0
 17136 1fd1 00000000 		.4byte	0
 17137              	.LLST187:
 17138 1fd5 42000000 		.4byte	.LVL584
 17139 1fd9 44000000 		.4byte	.LVL585
 17140 1fdd 0300     		.2byte	0x3
 17141 1fdf 71       		.byte	0x71
 17142 1fe0 7F       		.sleb128 -1
 17143 1fe1 9F       		.byte	0x9f
 17144 1fe2 00000000 		.4byte	0
 17145 1fe6 00000000 		.4byte	0
 17146              	.LLST188:
 17147 1fea 54000000 		.4byte	.LVL586
 17148 1fee B6000000 		.4byte	.LVL600
 17149 1ff2 0200     		.2byte	0x2
 17150 1ff4 78       		.byte	0x78
 17151 1ff5 00       		.sleb128 0
 17152 1ff6 00000000 		.4byte	0
 17153 1ffa 00000000 		.4byte	0
 17154              	.LLST189:
 17155 1ffe 60000000 		.4byte	.LVL588
 17156 2002 6A000000 		.4byte	.LVL590
 17157 2006 0100     		.2byte	0x1
 17158 2008 50       		.byte	0x50
 17159 2009 72000000 		.4byte	.LVL591
 17160 200d 7E000000 		.4byte	.LVL593
 17161 2011 0100     		.2byte	0x1
 17162 2013 50       		.byte	0x50
 17163 2014 8E000000 		.4byte	.LVL594
 17164 2018 90000000 		.4byte	.LVL595
 17165 201c 0100     		.2byte	0x1
ARM GAS  C:\Users\jo\AppData\Local\Temp\ccMF9q4g.s 			page 306


 17166 201e 50       		.byte	0x50
 17167 201f 00000000 		.4byte	0
 17168 2023 00000000 		.4byte	0
 17169              	.LLST190:
 17170 2027 5C000000 		.4byte	.LVL587
 17171 202b 60000000 		.4byte	.LVL588
 17172 202f 0200     		.2byte	0x2
 17173 2031 30       		.byte	0x30
 17174 2032 9F       		.byte	0x9f
 17175 2033 68000000 		.4byte	.LVL589
 17176 2037 6A000000 		.4byte	.LVL590
 17177 203b 0100     		.2byte	0x1
 17178 203d 5B       		.byte	0x5b
 17179 203e 00000000 		.4byte	0
 17180 2042 00000000 		.4byte	0
 17181              	.LLST191:
 17182 2046 7C000000 		.4byte	.LVL592
 17183 204a 8E000000 		.4byte	.LVL594
 17184 204e 0100     		.2byte	0x1
 17185 2050 56       		.byte	0x56
 17186 2051 9A000000 		.4byte	.LVL597
 17187 2055 9E000000 		.4byte	.LVL598
 17188 2059 0100     		.2byte	0x1
 17189 205b 50       		.byte	0x50
 17190 205c 9E000000 		.4byte	.LVL598
 17191 2060 B6000000 		.4byte	.LVL600
 17192 2064 0100     		.2byte	0x1
 17193 2066 56       		.byte	0x56
 17194 2067 B6000000 		.4byte	.LVL600
 17195 206b BC000000 		.4byte	.LFE303
 17196 206f 0300     		.2byte	0x3
 17197 2071 F3       		.byte	0xf3
 17198 2072 01       		.uleb128 0x1
 17199 2073 51       		.byte	0x51
 17200 2074 00000000 		.4byte	0
 17201 2078 00000000 		.4byte	0
 17202              	.LLST192:
 17203 207c 00000000 		.4byte	.LVL601
 17204 2080 05000000 		.4byte	.LVL602-1
 17205 2084 0100     		.2byte	0x1
 17206 2086 50       		.byte	0x50
 17207 2087 05000000 		.4byte	.LVL602-1
 17208 208b 06000000 		.4byte	.LFE304
 17209 208f 0400     		.2byte	0x4
 17210 2091 F3       		.byte	0xf3
 17211 2092 01       		.uleb128 0x1
 17212 2093 50       		.byte	0x50
 17213 2094 9F       		.byte	0x9f
 17214 2095 00000000 		.4byte	0
 17215 2099 00000000 		.4byte	0
 17216              	.LLST193:
 17217 209d 00000000 		.4byte	.LVL601
 17218 20a1 05000000 		.4byte	.LVL602-1
 17219 20a5 0100     		.2byte	0x1
 17220 20a7 51       		.byte	0x51
 17221 20a8 05000000 		.4byte	.LVL602-1
 17222 20ac 06000000 		.4byte	.LFE304
ARM GAS  C:\Users\jo\AppData\Local\Temp\ccMF9q4g.s 			page 307


 17223 20b0 0400     		.2byte	0x4
 17224 20b2 F3       		.byte	0xf3
 17225 20b3 01       		.uleb128 0x1
 17226 20b4 51       		.byte	0x51
 17227 20b5 9F       		.byte	0x9f
 17228 20b6 00000000 		.4byte	0
 17229 20ba 00000000 		.4byte	0
 17230              	.LLST194:
 17231 20be 00000000 		.4byte	.LVL601
 17232 20c2 05000000 		.4byte	.LVL602-1
 17233 20c6 0100     		.2byte	0x1
 17234 20c8 52       		.byte	0x52
 17235 20c9 05000000 		.4byte	.LVL602-1
 17236 20cd 06000000 		.4byte	.LFE304
 17237 20d1 0400     		.2byte	0x4
 17238 20d3 F3       		.byte	0xf3
 17239 20d4 01       		.uleb128 0x1
 17240 20d5 52       		.byte	0x52
 17241 20d6 9F       		.byte	0x9f
 17242 20d7 00000000 		.4byte	0
 17243 20db 00000000 		.4byte	0
 17244              	.LLST195:
 17245 20df 00000000 		.4byte	.LVL603
 17246 20e3 05000000 		.4byte	.LVL604-1
 17247 20e7 0100     		.2byte	0x1
 17248 20e9 50       		.byte	0x50
 17249 20ea 05000000 		.4byte	.LVL604-1
 17250 20ee 06000000 		.4byte	.LFE305
 17251 20f2 0400     		.2byte	0x4
 17252 20f4 F3       		.byte	0xf3
 17253 20f5 01       		.uleb128 0x1
 17254 20f6 50       		.byte	0x50
 17255 20f7 9F       		.byte	0x9f
 17256 20f8 00000000 		.4byte	0
 17257 20fc 00000000 		.4byte	0
 17258              	.LLST196:
 17259 2100 00000000 		.4byte	.LVL603
 17260 2104 05000000 		.4byte	.LVL604-1
 17261 2108 0100     		.2byte	0x1
 17262 210a 51       		.byte	0x51
 17263 210b 05000000 		.4byte	.LVL604-1
 17264 210f 06000000 		.4byte	.LFE305
 17265 2113 0400     		.2byte	0x4
 17266 2115 F3       		.byte	0xf3
 17267 2116 01       		.uleb128 0x1
 17268 2117 51       		.byte	0x51
 17269 2118 9F       		.byte	0x9f
 17270 2119 00000000 		.4byte	0
 17271 211d 00000000 		.4byte	0
 17272              	.LLST197:
 17273 2121 00000000 		.4byte	.LVL603
 17274 2125 05000000 		.4byte	.LVL604-1
 17275 2129 0100     		.2byte	0x1
 17276 212b 52       		.byte	0x52
 17277 212c 05000000 		.4byte	.LVL604-1
 17278 2130 06000000 		.4byte	.LFE305
 17279 2134 0400     		.2byte	0x4
ARM GAS  C:\Users\jo\AppData\Local\Temp\ccMF9q4g.s 			page 308


 17280 2136 F3       		.byte	0xf3
 17281 2137 01       		.uleb128 0x1
 17282 2138 52       		.byte	0x52
 17283 2139 9F       		.byte	0x9f
 17284 213a 00000000 		.4byte	0
 17285 213e 00000000 		.4byte	0
 17286              	.LLST198:
 17287 2142 00000000 		.4byte	.LVL605
 17288 2146 05000000 		.4byte	.LVL606-1
 17289 214a 0100     		.2byte	0x1
 17290 214c 50       		.byte	0x50
 17291 214d 05000000 		.4byte	.LVL606-1
 17292 2151 06000000 		.4byte	.LFE306
 17293 2155 0400     		.2byte	0x4
 17294 2157 F3       		.byte	0xf3
 17295 2158 01       		.uleb128 0x1
 17296 2159 50       		.byte	0x50
 17297 215a 9F       		.byte	0x9f
 17298 215b 00000000 		.4byte	0
 17299 215f 00000000 		.4byte	0
 17300              	.LLST199:
 17301 2163 00000000 		.4byte	.LVL605
 17302 2167 05000000 		.4byte	.LVL606-1
 17303 216b 0100     		.2byte	0x1
 17304 216d 51       		.byte	0x51
 17305 216e 05000000 		.4byte	.LVL606-1
 17306 2172 06000000 		.4byte	.LFE306
 17307 2176 0400     		.2byte	0x4
 17308 2178 F3       		.byte	0xf3
 17309 2179 01       		.uleb128 0x1
 17310 217a 51       		.byte	0x51
 17311 217b 9F       		.byte	0x9f
 17312 217c 00000000 		.4byte	0
 17313 2180 00000000 		.4byte	0
 17314              	.LLST200:
 17315 2184 00000000 		.4byte	.LVL605
 17316 2188 05000000 		.4byte	.LVL606-1
 17317 218c 0100     		.2byte	0x1
 17318 218e 52       		.byte	0x52
 17319 218f 05000000 		.4byte	.LVL606-1
 17320 2193 06000000 		.4byte	.LFE306
 17321 2197 0400     		.2byte	0x4
 17322 2199 F3       		.byte	0xf3
 17323 219a 01       		.uleb128 0x1
 17324 219b 52       		.byte	0x52
 17325 219c 9F       		.byte	0x9f
 17326 219d 00000000 		.4byte	0
 17327 21a1 00000000 		.4byte	0
 17328              		.section	.debug_aranges,"",%progbits
 17329 0000 74010000 		.4byte	0x174
 17330 0004 0200     		.2byte	0x2
 17331 0006 00000000 		.4byte	.Ldebug_info0
 17332 000a 04       		.byte	0x4
 17333 000b 00       		.byte	0
 17334 000c 0000     		.2byte	0
 17335 000e 0000     		.2byte	0
 17336 0010 00000000 		.4byte	.LFB318
ARM GAS  C:\Users\jo\AppData\Local\Temp\ccMF9q4g.s 			page 309


 17337 0014 24000000 		.4byte	.LFE318-.LFB318
 17338 0018 00000000 		.4byte	.LFB258
 17339 001c 4C000000 		.4byte	.LFE258-.LFB258
 17340 0020 00000000 		.4byte	.LFB259
 17341 0024 44000000 		.4byte	.LFE259-.LFB259
 17342 0028 00000000 		.4byte	.LFB260
 17343 002c 80000000 		.4byte	.LFE260-.LFB260
 17344 0030 00000000 		.4byte	.LFB261
 17345 0034 30000000 		.4byte	.LFE261-.LFB261
 17346 0038 00000000 		.4byte	.LFB262
 17347 003c 2A000000 		.4byte	.LFE262-.LFB262
 17348 0040 00000000 		.4byte	.LFB263
 17349 0044 0A000000 		.4byte	.LFE263-.LFB263
 17350 0048 00000000 		.4byte	.LFB264
 17351 004c 40000000 		.4byte	.LFE264-.LFB264
 17352 0050 00000000 		.4byte	.LFB256
 17353 0054 0C000000 		.4byte	.LFE256-.LFB256
 17354 0058 00000000 		.4byte	.LFB265
 17355 005c 2E000000 		.4byte	.LFE265-.LFB265
 17356 0060 00000000 		.4byte	.LFB266
 17357 0064 0C000000 		.4byte	.LFE266-.LFB266
 17358 0068 00000000 		.4byte	.LFB267
 17359 006c 04000000 		.4byte	.LFE267-.LFB267
 17360 0070 00000000 		.4byte	.LFB268
 17361 0074 14000000 		.4byte	.LFE268-.LFB268
 17362 0078 00000000 		.4byte	.LFB275
 17363 007c 0C000000 		.4byte	.LFE275-.LFB275
 17364 0080 00000000 		.4byte	.LFB277
 17365 0084 50000000 		.4byte	.LFE277-.LFB277
 17366 0088 00000000 		.4byte	.LFB278
 17367 008c 1E000000 		.4byte	.LFE278-.LFB278
 17368 0090 00000000 		.4byte	.LFB279
 17369 0094 20000000 		.4byte	.LFE279-.LFB279
 17370 0098 00000000 		.4byte	.LFB280
 17371 009c 68000000 		.4byte	.LFE280-.LFB280
 17372 00a0 00000000 		.4byte	.LFB294
 17373 00a4 2C000000 		.4byte	.LFE294-.LFB294
 17374 00a8 00000000 		.4byte	.LFB298
 17375 00ac 40010000 		.4byte	.LFE298-.LFB298
 17376 00b0 00000000 		.4byte	.LFB281
 17377 00b4 74000000 		.4byte	.LFE281-.LFB281
 17378 00b8 00000000 		.4byte	.LFB285
 17379 00bc 5A000000 		.4byte	.LFE285-.LFB285
 17380 00c0 00000000 		.4byte	.LFB286
 17381 00c4 4E000000 		.4byte	.LFE286-.LFB286
 17382 00c8 00000000 		.4byte	.LFB287
 17383 00cc 58000000 		.4byte	.LFE287-.LFB287
 17384 00d0 00000000 		.4byte	.LFB288
 17385 00d4 16000000 		.4byte	.LFE288-.LFB288
 17386 00d8 00000000 		.4byte	.LFB289
 17387 00dc 02000000 		.4byte	.LFE289-.LFB289
 17388 00e0 00000000 		.4byte	.LFB292
 17389 00e4 08000000 		.4byte	.LFE292-.LFB292
 17390 00e8 00000000 		.4byte	.LFB293
 17391 00ec 1E000000 		.4byte	.LFE293-.LFB293
 17392 00f0 00000000 		.4byte	.LFB284
 17393 00f4 60000000 		.4byte	.LFE284-.LFB284
ARM GAS  C:\Users\jo\AppData\Local\Temp\ccMF9q4g.s 			page 310


 17394 00f8 00000000 		.4byte	.LFB291
 17395 00fc 08000000 		.4byte	.LFE291-.LFB291
 17396 0100 00000000 		.4byte	.LFB273
 17397 0104 D4080000 		.4byte	.LFE273-.LFB273
 17398 0108 00000000 		.4byte	.LFB274
 17399 010c 04000000 		.4byte	.LFE274-.LFB274
 17400 0110 00000000 		.4byte	.LFB276
 17401 0114 48000000 		.4byte	.LFE276-.LFB276
 17402 0118 00000000 		.4byte	.LFB283
 17403 011c 9C050000 		.4byte	.LFE283-.LFB283
 17404 0120 00000000 		.4byte	.LFB290
 17405 0124 08000000 		.4byte	.LFE290-.LFB290
 17406 0128 00000000 		.4byte	.LFB295
 17407 012c 68000000 		.4byte	.LFE295-.LFB295
 17408 0130 00000000 		.4byte	.LFB299
 17409 0134 54000000 		.4byte	.LFE299-.LFB299
 17410 0138 00000000 		.4byte	.LFB300
 17411 013c 2C000000 		.4byte	.LFE300-.LFB300
 17412 0140 00000000 		.4byte	.LFB301
 17413 0144 30000000 		.4byte	.LFE301-.LFB301
 17414 0148 00000000 		.4byte	.LFB302
 17415 014c 32000000 		.4byte	.LFE302-.LFB302
 17416 0150 00000000 		.4byte	.LFB303
 17417 0154 BC000000 		.4byte	.LFE303-.LFB303
 17418 0158 00000000 		.4byte	.LFB304
 17419 015c 06000000 		.4byte	.LFE304-.LFB304
 17420 0160 00000000 		.4byte	.LFB305
 17421 0164 06000000 		.4byte	.LFE305-.LFB305
 17422 0168 00000000 		.4byte	.LFB306
 17423 016c 06000000 		.4byte	.LFE306-.LFB306
 17424 0170 00000000 		.4byte	0
 17425 0174 00000000 		.4byte	0
 17426              		.section	.debug_ranges,"",%progbits
 17427              	.Ldebug_ranges0:
 17428 0000 0E000000 		.4byte	.LBB113
 17429 0004 16000000 		.4byte	.LBE113
 17430 0008 1A000000 		.4byte	.LBB116
 17431 000c 2E000000 		.4byte	.LBE116
 17432 0010 00000000 		.4byte	0
 17433 0014 00000000 		.4byte	0
 17434 0018 06000000 		.4byte	.LBB121
 17435 001c 0C000000 		.4byte	.LBE121
 17436 0020 10000000 		.4byte	.LBB124
 17437 0024 24000000 		.4byte	.LBE124
 17438 0028 00000000 		.4byte	0
 17439 002c 00000000 		.4byte	0
 17440 0030 74000000 		.4byte	.LBB139
 17441 0034 76000000 		.4byte	.LBE139
 17442 0038 7A000000 		.4byte	.LBB148
 17443 003c B4000000 		.4byte	.LBE148
 17444 0040 BE000000 		.4byte	.LBB149
 17445 0044 24010000 		.4byte	.LBE149
 17446 0048 28010000 		.4byte	.LBB150
 17447 004c 2A010000 		.4byte	.LBE150
 17448 0050 30010000 		.4byte	.LBB151
 17449 0054 40010000 		.4byte	.LBE151
 17450 0058 00000000 		.4byte	0
ARM GAS  C:\Users\jo\AppData\Local\Temp\ccMF9q4g.s 			page 311


 17451 005c 00000000 		.4byte	0
 17452 0060 1C010000 		.4byte	.LBB142
 17453 0064 24010000 		.4byte	.LBE142
 17454 0068 28010000 		.4byte	.LBB143
 17455 006c 2A010000 		.4byte	.LBE143
 17456 0070 00000000 		.4byte	0
 17457 0074 00000000 		.4byte	0
 17458 0078 10000000 		.4byte	.LBB172
 17459 007c 14000000 		.4byte	.LBE172
 17460 0080 26000000 		.4byte	.LBB175
 17461 0084 2E000000 		.4byte	.LBE175
 17462 0088 00000000 		.4byte	0
 17463 008c 00000000 		.4byte	0
 17464 0090 32000000 		.4byte	.LBB176
 17465 0094 34000000 		.4byte	.LBE176
 17466 0098 36000000 		.4byte	.LBB179
 17467 009c 38000000 		.4byte	.LBE179
 17468 00a0 00000000 		.4byte	0
 17469 00a4 00000000 		.4byte	0
 17470 00a8 06000000 		.4byte	.LBB209
 17471 00ac 0A000000 		.4byte	.LBE209
 17472 00b0 2A000000 		.4byte	.LBB226
 17473 00b4 56000000 		.4byte	.LBE226
 17474 00b8 AC030000 		.4byte	.LBB286
 17475 00bc 16040000 		.4byte	.LBE286
 17476 00c0 E8050000 		.4byte	.LBB291
 17477 00c4 06060000 		.4byte	.LBE291
 17478 00c8 00000000 		.4byte	0
 17479 00cc 00000000 		.4byte	0
 17480 00d0 06000000 		.4byte	.LBB211
 17481 00d4 0A000000 		.4byte	.LBE211
 17482 00d8 34000000 		.4byte	.LBB220
 17483 00dc 56000000 		.4byte	.LBE220
 17484 00e0 AC030000 		.4byte	.LBB221
 17485 00e4 16040000 		.4byte	.LBE221
 17486 00e8 E8050000 		.4byte	.LBB222
 17487 00ec 06060000 		.4byte	.LBE222
 17488 00f0 00000000 		.4byte	0
 17489 00f4 00000000 		.4byte	0
 17490 00f8 AC030000 		.4byte	.LBB213
 17491 00fc D4030000 		.4byte	.LBE213
 17492 0100 E8050000 		.4byte	.LBB216
 17493 0104 06060000 		.4byte	.LBE216
 17494 0108 00000000 		.4byte	0
 17495 010c 00000000 		.4byte	0
 17496 0110 56000000 		.4byte	.LBB227
 17497 0114 56010000 		.4byte	.LBE227
 17498 0118 5E010000 		.4byte	.LBB285
 17499 011c AC030000 		.4byte	.LBE285
 17500 0120 28040000 		.4byte	.LBB287
 17501 0124 40040000 		.4byte	.LBE287
 17502 0128 4A040000 		.4byte	.LBB288
 17503 012c 9C040000 		.4byte	.LBE288
 17504 0130 A8040000 		.4byte	.LBB289
 17505 0134 7A050000 		.4byte	.LBE289
 17506 0138 92050000 		.4byte	.LBB290
 17507 013c E8050000 		.4byte	.LBE290
ARM GAS  C:\Users\jo\AppData\Local\Temp\ccMF9q4g.s 			page 312


 17508 0140 06060000 		.4byte	.LBB292
 17509 0144 B2080000 		.4byte	.LBE292
 17510 0148 00000000 		.4byte	0
 17511 014c 00000000 		.4byte	0
 17512 0150 56000000 		.4byte	.LBB228
 17513 0154 C8000000 		.4byte	.LBE228
 17514 0158 4A040000 		.4byte	.LBB246
 17515 015c 72040000 		.4byte	.LBE246
 17516 0160 A8040000 		.4byte	.LBB275
 17517 0164 B4040000 		.4byte	.LBE275
 17518 0168 E0070000 		.4byte	.LBB282
 17519 016c FE070000 		.4byte	.LBE282
 17520 0170 00000000 		.4byte	0
 17521 0174 00000000 		.4byte	0
 17522 0178 56000000 		.4byte	.LBB230
 17523 017c B6000000 		.4byte	.LBE230
 17524 0180 4A040000 		.4byte	.LBB241
 17525 0184 72040000 		.4byte	.LBE241
 17526 0188 E0070000 		.4byte	.LBB242
 17527 018c FE070000 		.4byte	.LBE242
 17528 0190 00000000 		.4byte	0
 17529 0194 00000000 		.4byte	0
 17530 0198 5C000000 		.4byte	.LBB233
 17531 019c 84000000 		.4byte	.LBE233
 17532 01a0 E0070000 		.4byte	.LBB236
 17533 01a4 FE070000 		.4byte	.LBE236
 17534 01a8 00000000 		.4byte	0
 17535 01ac 00000000 		.4byte	0
 17536 01b0 72040000 		.4byte	.LBB247
 17537 01b4 84040000 		.4byte	.LBE247
 17538 01b8 F8040000 		.4byte	.LBB276
 17539 01bc 28050000 		.4byte	.LBE276
 17540 01c0 92050000 		.4byte	.LBB277
 17541 01c4 E8050000 		.4byte	.LBE277
 17542 01c8 66080000 		.4byte	.LBB283
 17543 01cc 78080000 		.4byte	.LBE283
 17544 01d0 94080000 		.4byte	.LBB284
 17545 01d4 B2080000 		.4byte	.LBE284
 17546 01d8 00000000 		.4byte	0
 17547 01dc 00000000 		.4byte	0
 17548 01e0 72040000 		.4byte	.LBB249
 17549 01e4 7A040000 		.4byte	.LBE249
 17550 01e8 F8040000 		.4byte	.LBB267
 17551 01ec 12050000 		.4byte	.LBE267
 17552 01f0 92050000 		.4byte	.LBB268
 17553 01f4 E8050000 		.4byte	.LBE268
 17554 01f8 66080000 		.4byte	.LBB269
 17555 01fc 78080000 		.4byte	.LBE269
 17556 0200 94080000 		.4byte	.LBB270
 17557 0204 B2080000 		.4byte	.LBE270
 17558 0208 00000000 		.4byte	0
 17559 020c 00000000 		.4byte	0
 17560 0210 F8040000 		.4byte	.LBB251
 17561 0214 12050000 		.4byte	.LBE251
 17562 0218 92050000 		.4byte	.LBB260
 17563 021c E8050000 		.4byte	.LBE260
 17564 0220 66080000 		.4byte	.LBB261
ARM GAS  C:\Users\jo\AppData\Local\Temp\ccMF9q4g.s 			page 313


 17565 0224 78080000 		.4byte	.LBE261
 17566 0228 94080000 		.4byte	.LBB262
 17567 022c B2080000 		.4byte	.LBE262
 17568 0230 00000000 		.4byte	0
 17569 0234 00000000 		.4byte	0
 17570 0238 92050000 		.4byte	.LBB253
 17571 023c BA050000 		.4byte	.LBE253
 17572 0240 94080000 		.4byte	.LBB256
 17573 0244 B2080000 		.4byte	.LBE256
 17574 0248 00000000 		.4byte	0
 17575 024c 00000000 		.4byte	0
 17576 0250 1C000000 		.4byte	.LBB363
 17577 0254 1E000000 		.4byte	.LBE363
 17578 0258 26000000 		.4byte	.LBB418
 17579 025c 40000000 		.4byte	.LBE418
 17580 0260 4E000000 		.4byte	.LBB419
 17581 0264 5C020000 		.4byte	.LBE419
 17582 0268 7C020000 		.4byte	.LBB422
 17583 026c 9C050000 		.4byte	.LBE422
 17584 0270 00000000 		.4byte	0
 17585 0274 00000000 		.4byte	0
 17586 0278 C4010000 		.4byte	.LBB369
 17587 027c DA010000 		.4byte	.LBE369
 17588 0280 CE040000 		.4byte	.LBB406
 17589 0284 DC040000 		.4byte	.LBE406
 17590 0288 00000000 		.4byte	0
 17591 028c 00000000 		.4byte	0
 17592 0290 A6020000 		.4byte	.LBB378
 17593 0294 AC020000 		.4byte	.LBE378
 17594 0298 B0020000 		.4byte	.LBB381
 17595 029c D8020000 		.4byte	.LBE381
 17596 02a0 00000000 		.4byte	0
 17597 02a4 00000000 		.4byte	0
 17598 02a8 10050000 		.4byte	.LBB411
 17599 02ac 16050000 		.4byte	.LBE411
 17600 02b0 1A050000 		.4byte	.LBB414
 17601 02b4 44050000 		.4byte	.LBE414
 17602 02b8 00000000 		.4byte	0
 17603 02bc 00000000 		.4byte	0
 17604 02c0 02000000 		.4byte	.LBB423
 17605 02c4 04000000 		.4byte	.LBE423
 17606 02c8 06000000 		.4byte	.LBB426
 17607 02cc 18000000 		.4byte	.LBE426
 17608 02d0 00000000 		.4byte	0
 17609 02d4 00000000 		.4byte	0
 17610 02d8 06000000 		.4byte	.LBB429
 17611 02dc 08000000 		.4byte	.LBE429
 17612 02e0 0A000000 		.4byte	.LBB430
 17613 02e4 18000000 		.4byte	.LBE430
 17614 02e8 00000000 		.4byte	0
 17615 02ec 00000000 		.4byte	0
 17616 02f0 00000000 		.4byte	.LFB318
 17617 02f4 24000000 		.4byte	.LFE318
 17618 02f8 00000000 		.4byte	.LFB258
 17619 02fc 4C000000 		.4byte	.LFE258
 17620 0300 00000000 		.4byte	.LFB259
 17621 0304 44000000 		.4byte	.LFE259
ARM GAS  C:\Users\jo\AppData\Local\Temp\ccMF9q4g.s 			page 314


 17622 0308 00000000 		.4byte	.LFB260
 17623 030c 80000000 		.4byte	.LFE260
 17624 0310 00000000 		.4byte	.LFB261
 17625 0314 30000000 		.4byte	.LFE261
 17626 0318 00000000 		.4byte	.LFB262
 17627 031c 2A000000 		.4byte	.LFE262
 17628 0320 00000000 		.4byte	.LFB263
 17629 0324 0A000000 		.4byte	.LFE263
 17630 0328 00000000 		.4byte	.LFB264
 17631 032c 40000000 		.4byte	.LFE264
 17632 0330 00000000 		.4byte	.LFB256
 17633 0334 0C000000 		.4byte	.LFE256
 17634 0338 00000000 		.4byte	.LFB265
 17635 033c 2E000000 		.4byte	.LFE265
 17636 0340 00000000 		.4byte	.LFB266
 17637 0344 0C000000 		.4byte	.LFE266
 17638 0348 00000000 		.4byte	.LFB267
 17639 034c 04000000 		.4byte	.LFE267
 17640 0350 00000000 		.4byte	.LFB268
 17641 0354 14000000 		.4byte	.LFE268
 17642 0358 00000000 		.4byte	.LFB275
 17643 035c 0C000000 		.4byte	.LFE275
 17644 0360 00000000 		.4byte	.LFB277
 17645 0364 50000000 		.4byte	.LFE277
 17646 0368 00000000 		.4byte	.LFB278
 17647 036c 1E000000 		.4byte	.LFE278
 17648 0370 00000000 		.4byte	.LFB279
 17649 0374 20000000 		.4byte	.LFE279
 17650 0378 00000000 		.4byte	.LFB280
 17651 037c 68000000 		.4byte	.LFE280
 17652 0380 00000000 		.4byte	.LFB294
 17653 0384 2C000000 		.4byte	.LFE294
 17654 0388 00000000 		.4byte	.LFB298
 17655 038c 40010000 		.4byte	.LFE298
 17656 0390 00000000 		.4byte	.LFB281
 17657 0394 74000000 		.4byte	.LFE281
 17658 0398 00000000 		.4byte	.LFB285
 17659 039c 5A000000 		.4byte	.LFE285
 17660 03a0 00000000 		.4byte	.LFB286
 17661 03a4 4E000000 		.4byte	.LFE286
 17662 03a8 00000000 		.4byte	.LFB287
 17663 03ac 58000000 		.4byte	.LFE287
 17664 03b0 00000000 		.4byte	.LFB288
 17665 03b4 16000000 		.4byte	.LFE288
 17666 03b8 00000000 		.4byte	.LFB289
 17667 03bc 02000000 		.4byte	.LFE289
 17668 03c0 00000000 		.4byte	.LFB292
 17669 03c4 08000000 		.4byte	.LFE292
 17670 03c8 00000000 		.4byte	.LFB293
 17671 03cc 1E000000 		.4byte	.LFE293
 17672 03d0 00000000 		.4byte	.LFB284
 17673 03d4 60000000 		.4byte	.LFE284
 17674 03d8 00000000 		.4byte	.LFB291
 17675 03dc 08000000 		.4byte	.LFE291
 17676 03e0 00000000 		.4byte	.LFB273
 17677 03e4 D4080000 		.4byte	.LFE273
 17678 03e8 00000000 		.4byte	.LFB274
ARM GAS  C:\Users\jo\AppData\Local\Temp\ccMF9q4g.s 			page 315


 17679 03ec 04000000 		.4byte	.LFE274
 17680 03f0 00000000 		.4byte	.LFB276
 17681 03f4 48000000 		.4byte	.LFE276
 17682 03f8 00000000 		.4byte	.LFB283
 17683 03fc 9C050000 		.4byte	.LFE283
 17684 0400 00000000 		.4byte	.LFB290
 17685 0404 08000000 		.4byte	.LFE290
 17686 0408 00000000 		.4byte	.LFB295
 17687 040c 68000000 		.4byte	.LFE295
 17688 0410 00000000 		.4byte	.LFB299
 17689 0414 54000000 		.4byte	.LFE299
 17690 0418 00000000 		.4byte	.LFB300
 17691 041c 2C000000 		.4byte	.LFE300
 17692 0420 00000000 		.4byte	.LFB301
 17693 0424 30000000 		.4byte	.LFE301
 17694 0428 00000000 		.4byte	.LFB302
 17695 042c 32000000 		.4byte	.LFE302
 17696 0430 00000000 		.4byte	.LFB303
 17697 0434 BC000000 		.4byte	.LFE303
 17698 0438 00000000 		.4byte	.LFB304
 17699 043c 06000000 		.4byte	.LFE304
 17700 0440 00000000 		.4byte	.LFB305
 17701 0444 06000000 		.4byte	.LFE305
 17702 0448 00000000 		.4byte	.LFB306
 17703 044c 06000000 		.4byte	.LFE306
 17704 0450 00000000 		.4byte	0
 17705 0454 00000000 		.4byte	0
 17706              		.section	.debug_line,"",%progbits
 17707              	.Ldebug_line0:
 17708 0000 C80C0000 		.section	.debug_str,"MS",%progbits,1
 17708      02007D03 
 17708      00000201 
 17708      FB0E0D00 
 17708      01010101 
 17709              	.LASF157:
 17710 0000 70617273 		.ascii	"parser\000"
 17710      657200
 17711              	.LASF211:
 17712 0007 6C636667 		.ascii	"lcfg_scanner_delete\000"
 17712      5F736361 
 17712      6E6E6572 
 17712      5F64656C 
 17712      65746500 
 17713              	.LASF2:
 17714 001b 73697A65 		.ascii	"size_t\000"
 17714      5F7400
 17715              	.LASF15:
 17716 0022 73697A65 		.ascii	"sizetype\000"
 17716      74797065 
 17716      00
 17717              	.LASF224:
 17718 002b 73746172 		.ascii	"start\000"
 17718      7400
 17719              	.LASF52:
 17720 0031 73797374 		.ascii	"systime_t\000"
 17720      696D655F 
 17720      7400
ARM GAS  C:\Users\jo\AppData\Local\Temp\ccMF9q4g.s 			page 316


 17721              	.LASF126:
 17722 003b 4F545950 		.ascii	"OTYPER\000"
 17722      455200
 17723              	.LASF159:
 17724 0042 6C636667 		.ascii	"lcfg_parser\000"
 17724      5F706172 
 17724      73657200 
 17725              	.LASF181:
 17726 004e 6C636667 		.ascii	"lcfg_string_cstr\000"
 17726      5F737472 
 17726      696E675F 
 17726      63737472 
 17726      00
 17727              	.LASF58:
 17728 005f 705F6374 		.ascii	"p_ctx\000"
 17728      7800
 17729              	.LASF49:
 17730 0065 74707269 		.ascii	"tprio_t\000"
 17730      6F5F7400 
 17731              	.LASF185:
 17732 006d 6C636667 		.ascii	"lcfg_scanner_next_token\000"
 17732      5F736361 
 17732      6E6E6572 
 17732      5F6E6578 
 17732      745F746F 
 17733              	.LASF183:
 17734 0085 6C636667 		.ascii	"lcfg_scanner_char_eof\000"
 17734      5F736361 
 17734      6E6E6572 
 17734      5F636861 
 17734      725F656F 
 17735              	.LASF66:
 17736 009b 705F6D73 		.ascii	"p_msgqueue\000"
 17736      67717565 
 17736      756500
 17737              	.LASF80:
 17738 00a6 725F6374 		.ascii	"r_ctx\000"
 17738      7800
 17739              	.LASF42:
 17740 00ac 696E7433 		.ascii	"int32_t\000"
 17740      325F7400 
 17741              	.LASF205:
 17742 00b4 726F6F74 		.ascii	"root\000"
 17742      00
 17743              	.LASF24:
 17744 00b9 6C636667 		.ascii	"lcfgx_string\000"
 17744      785F7374 
 17744      72696E67 
 17744      00
 17745              	.LASF84:
 17746 00c6 76746675 		.ascii	"vtfunc_t\000"
 17746      6E635F74 
 17746      00
 17747              	.LASF206:
 17748 00cf 70617468 		.ascii	"path\000"
 17748      00
 17749              	.LASF93:
ARM GAS  C:\Users\jo\AppData\Local\Temp\ccMF9q4g.s 			page 317


 17750 00d4 63685F76 		.ascii	"ch_virtual_timers_list\000"
 17750      69727475 
 17750      616C5F74 
 17750      696D6572 
 17750      735F6C69 
 17751              	.LASF177:
 17752 00eb 70617468 		.ascii	"pathc\000"
 17752      6300
 17753              	.LASF120:
 17754 00f1 77726974 		.ascii	"write\000"
 17754      6500
 17755              	.LASF285:
 17756 00f7 433A5C55 		.ascii	"C:\\Users\\jo\\Documents\\GitHub\\ChibiOS\\demos\\S"
 17756      73657273 
 17756      5C6A6F5C 
 17756      446F6375 
 17756      6D656E74 
 17757 0123 544D3332 		.ascii	"TM32\\RT-STM32F407-DISCOVERY\000"
 17757      5C52542D 
 17757      53544D33 
 17757      32463430 
 17757      372D4449 
 17758              	.LASF245:
 17759 013f 6C697374 		.ascii	"list_counter\000"
 17759      5F636F75 
 17759      6E746572 
 17759      00
 17760              	.LASF37:
 17761 014c 4C434647 		.ascii	"LCFGX_PATH_NOT_FOUND\000"
 17761      585F5041 
 17761      54485F4E 
 17761      4F545F46 
 17761      4F554E44 
 17762              	.LASF178:
 17763 0161 70617468 		.ascii	"pathv\000"
 17763      7600
 17764              	.LASF122:
 17765 0167 42617365 		.ascii	"BaseSequentialStream\000"
 17765      53657175 
 17765      656E7469 
 17765      616C5374 
 17765      7265616D 
 17766              	.LASF279:
 17767 017c 6F70656E 		.ascii	"open\000"
 17767      00
 17768              	.LASF235:
 17769 0181 73746174 		.ascii	"state\000"
 17769      6500
 17770              	.LASF227:
 17771 0187 696E5F6D 		.ascii	"in_multiline\000"
 17771      756C7469 
 17771      6C696E65 
 17771      00
 17772              	.LASF169:
 17773 0194 6C636667 		.ascii	"lcfg_string_new_copy\000"
 17773      5F737472 
 17773      696E675F 
ARM GAS  C:\Users\jo\AppData\Local\Temp\ccMF9q4g.s 			page 318


 17773      6E65775F 
 17773      636F7079 
 17774              	.LASF33:
 17775 01a9 74797065 		.ascii	"type\000"
 17775      00
 17776              	.LASF137:
 17777 01ae 6C636667 		.ascii	"lcfg_token_type\000"
 17777      5F746F6B 
 17777      656E5F74 
 17777      79706500 
 17778              	.LASF165:
 17779 01be 6E65775F 		.ascii	"new_size\000"
 17779      73697A65 
 17779      00
 17780              	.LASF248:
 17781 01c7 63757272 		.ascii	"current_path\000"
 17781      656E745F 
 17781      70617468 
 17781      00
 17782              	.LASF221:
 17783 01d4 6C636667 		.ascii	"lcfgx_tree_node_new\000"
 17783      785F7472 
 17783      65655F6E 
 17783      6F64655F 
 17783      6E657700 
 17784              	.LASF281:
 17785 01e8 7072696E 		.ascii	"printf\000"
 17785      746600
 17786              	.LASF19:
 17787 01ef 6C636667 		.ascii	"lcfg_status_ok\000"
 17787      5F737461 
 17787      7475735F 
 17787      6F6B00
 17788              	.LASF199:
 17789 01fe 63737472 		.ascii	"cstr\000"
 17789      00
 17790              	.LASF231:
 17791 0203 696E5F65 		.ascii	"in_esc\000"
 17791      736300
 17792              	.LASF116:
 17793 020a 6D5F6F77 		.ascii	"m_owner\000"
 17793      6E657200 
 17794              	.LASF91:
 17795 0212 76745F70 		.ascii	"vt_par\000"
 17795      617200
 17796              	.LASF111:
 17797 0219 65786974 		.ascii	"exitcode\000"
 17797      636F6465 
 17797      00
 17798              	.LASF3:
 17799 0222 5F5F7569 		.ascii	"__uint8_t\000"
 17799      6E74385F 
 17799      7400
 17800              	.LASF240:
 17801 022c 6578705F 		.ascii	"exp_equals\000"
 17801      65717561 
 17801      6C7300
ARM GAS  C:\Users\jo\AppData\Local\Temp\ccMF9q4g.s 			page 319


 17802              	.LASF128:
 17803 0237 50555044 		.ascii	"PUPDR\000"
 17803      5200
 17804              	.LASF172:
 17805 023d 6C636667 		.ascii	"lcfg_scanner_new\000"
 17805      5F736361 
 17805      6E6E6572 
 17805      5F6E6577 
 17805      00
 17806              	.LASF264:
 17807 024e 6C636667 		.ascii	"lcfg_token_map\000"
 17807      5F746F6B 
 17807      656E5F6D 
 17807      617000
 17808              	.LASF192:
 17809 025d 6C636667 		.ascii	"lcfg_accept\000"
 17809      5F616363 
 17809      65707400 
 17810              	.LASF243:
 17811 0269 696E5F6D 		.ascii	"in_map\000"
 17811      617000
 17812              	.LASF59:
 17813 0270 705F6E65 		.ascii	"p_newer\000"
 17813      77657200 
 17814              	.LASF9:
 17815 0278 6C6F6E67 		.ascii	"long int\000"
 17815      20696E74 
 17815      00
 17816              	.LASF55:
 17817 0281 705F6E65 		.ascii	"p_next\000"
 17817      787400
 17818              	.LASF56:
 17819 0288 705F7072 		.ascii	"p_prev\000"
 17819      657600
 17820              	.LASF47:
 17821 028f 74737461 		.ascii	"tstate_t\000"
 17821      74655F74 
 17821      00
 17822              	.LASF74:
 17823 0298 74687265 		.ascii	"threads_queue_t\000"
 17823      6164735F 
 17823      71756575 
 17823      655F7400 
 17824              	.LASF69:
 17825 02a8 705F6D74 		.ascii	"p_mtxlist\000"
 17825      786C6973 
 17825      7400
 17826              	.LASF104:
 17827 02b2 72656761 		.ascii	"regarm_t\000"
 17827      726D5F74 
 17827      00
 17828              	.LASF156:
 17829 02bb 6572726F 		.ascii	"error\000"
 17829      7200
 17830              	.LASF237:
 17831 02c1 636F6E73 		.ascii	"consume\000"
 17831      756D6500 
ARM GAS  C:\Users\jo\AppData\Local\Temp\ccMF9q4g.s 			page 320


 17832              	.LASF256:
 17833 02c9 6C636667 		.ascii	"lcfgx_get\000"
 17833      785F6765 
 17833      7400
 17834              	.LASF213:
 17835 02d3 6C636667 		.ascii	"lcfg_new\000"
 17835      5F6E6577 
 17835      00
 17836              	.LASF196:
 17837 02dc 6C636667 		.ascii	"lcfg_string_cat_uint\000"
 17837      5F737472 
 17837      696E675F 
 17837      6361745F 
 17837      75696E74 
 17838              	.LASF1:
 17839 02f1 7369676E 		.ascii	"signed char\000"
 17839      65642063 
 17839      68617200 
 17840              	.LASF113:
 17841 02fd 65776D61 		.ascii	"ewmask\000"
 17841      736B00
 17842              	.LASF40:
 17843 0304 75696E74 		.ascii	"uint8_t\000"
 17843      385F7400 
 17844              	.LASF188:
 17845 030c 6C636667 		.ascii	"lcfg_parser_run\000"
 17845      5F706172 
 17845      7365725F 
 17845      72756E00 
 17846              	.LASF160:
 17847 031c 66696C65 		.ascii	"filename\000"
 17847      6E616D65 
 17847      00
 17848              	.LASF51:
 17849 0325 6576656E 		.ascii	"eventmask_t\000"
 17849      746D6173 
 17849      6B5F7400 
 17850              	.LASF106:
 17851 0331 636F6E74 		.ascii	"context\000"
 17851      65787400 
 17852              	.LASF255:
 17853 0339 6366675F 		.ascii	"cfg_get_recursive\000"
 17853      6765745F 
 17853      72656375 
 17853      72736976 
 17853      6500
 17854              	.LASF244:
 17855 034b 73746174 		.ascii	"state_element\000"
 17855      655F656C 
 17855      656D656E 
 17855      7400
 17856              	.LASF286:
 17857 0359 5F5F6572 		.ascii	"__errno\000"
 17857      726E6F00 
 17858              	.LASF194:
 17859 0361 666F726D 		.ascii	"formatted_bytes\000"
 17859      61747465 
ARM GAS  C:\Users\jo\AppData\Local\Temp\ccMF9q4g.s 			page 321


 17859      645F6279 
 17859      74657300 
 17860              	.LASF4:
 17861 0371 756E7369 		.ascii	"unsigned char\000"
 17861      676E6564 
 17861      20636861 
 17861      7200
 17862              	.LASF133:
 17863 037f 73746D33 		.ascii	"stm32_gpio_t\000"
 17863      325F6770 
 17863      696F5F74 
 17863      00
 17864              	.LASF226:
 17865 038c 696E5F6F 		.ascii	"in_oneline\000"
 17865      6E656C69 
 17865      6E6500
 17866              	.LASF97:
 17867 0397 70616E69 		.ascii	"panic_msg\000"
 17867      635F6D73 
 17867      6700
 17868              	.LASF252:
 17869 03a1 6C636667 		.ascii	"lcfgx_correct_type\000"
 17869      785F636F 
 17869      72726563 
 17869      745F7479 
 17869      706500
 17870              	.LASF269:
 17871 03b4 7265616C 		.ascii	"realloc\000"
 17871      6C6F6300 
 17872              	.LASF166:
 17873 03bc 5F5F4655 		.ascii	"__FUNCTION__\000"
 17873      4E435449 
 17873      4F4E5F5F 
 17873      00
 17874              	.LASF81:
 17875 03c9 725F6E65 		.ascii	"r_newer\000"
 17875      77657200 
 17876              	.LASF95:
 17877 03d1 73797374 		.ascii	"system_debug_t\000"
 17877      656D5F64 
 17877      65627567 
 17877      5F7400
 17878              	.LASF217:
 17879 03e0 6C636667 		.ascii	"lcfg_error_set\000"
 17879      5F657272 
 17879      6F725F73 
 17879      657400
 17880              	.LASF233:
 17881 03ef 6573635F 		.ascii	"esc_hex_exp_second\000"
 17881      6865785F 
 17881      6578705F 
 17881      7365636F 
 17881      6E6400
 17882              	.LASF17:
 17883 0402 5F5F676E 		.ascii	"__gnuc_va_list\000"
 17883      75635F76 
 17883      615F6C69 
ARM GAS  C:\Users\jo\AppData\Local\Temp\ccMF9q4g.s 			page 322


 17883      737400
 17884              	.LASF123:
 17885 0411 5F426F6F 		.ascii	"_Bool\000"
 17885      6C00
 17886              	.LASF34:
 17887 0417 76616C75 		.ascii	"value\000"
 17887      6500
 17888              	.LASF20:
 17889 041d 6C636667 		.ascii	"lcfg_status_error\000"
 17889      5F737461 
 17889      7475735F 
 17889      6572726F 
 17889      7200
 17890              	.LASF16:
 17891 042f 63686172 		.ascii	"char\000"
 17891      00
 17892              	.LASF150:
 17893 0434 63617061 		.ascii	"capacity\000"
 17893      63697479 
 17893      00
 17894              	.LASF57:
 17895 043d 705F7072 		.ascii	"p_prio\000"
 17895      696F00
 17896              	.LASF6:
 17897 0444 5F5F7569 		.ascii	"__uint16_t\000"
 17897      6E743136 
 17897      5F7400
 17898              	.LASF173:
 17899 044f 6C636667 		.ascii	"lcfg_string_delete\000"
 17899      5F737472 
 17899      696E675F 
 17899      64656C65 
 17899      746500
 17900              	.LASF112:
 17901 0462 77746F62 		.ascii	"wtobjp\000"
 17901      6A7000
 17902              	.LASF258:
 17903 0469 6C636667 		.ascii	"lcfgx_get_map\000"
 17903      785F6765 
 17903      745F6D61 
 17903      7000
 17904              	.LASF105:
 17905 0477 73746B61 		.ascii	"stkalign_t\000"
 17905      6C69676E 
 17905      5F7400
 17906              	.LASF241:
 17907 0482 6578705F 		.ascii	"exp_value\000"
 17907      76616C75 
 17907      6500
 17908              	.LASF197:
 17909 048c 6C636667 		.ascii	"lcfg_string_find\000"
 17909      5F737472 
 17909      696E675F 
 17909      66696E64 
 17909      00
 17910              	.LASF138:
 17911 049d 6C636667 		.ascii	"lcfg_null_token\000"
ARM GAS  C:\Users\jo\AppData\Local\Temp\ccMF9q4g.s 			page 323


 17911      5F6E756C 
 17911      6C5F746F 
 17911      6B656E00 
 17912              	.LASF273:
 17913 04ad 73747263 		.ascii	"strcmp\000"
 17913      6D7000
 17914              	.LASF198:
 17915 04b4 6C636667 		.ascii	"lcfg_string_cat_cstr\000"
 17915      5F737472 
 17915      696E675F 
 17915      6361745F 
 17915      63737472 
 17916              	.LASF212:
 17917 04c9 6C636667 		.ascii	"lcfg_parser_delete\000"
 17917      5F706172 
 17917      7365725F 
 17917      64656C65 
 17917      746500
 17918              	.LASF179:
 17919 04dc 6E6F6465 		.ascii	"node\000"
 17919      00
 17920              	.LASF225:
 17921 04e1 636F6D6D 		.ascii	"comm_start\000"
 17921      5F737461 
 17921      727400
 17922              	.LASF145:
 17923 04ec 6C636667 		.ascii	"lcfg_brace_open\000"
 17923      5F627261 
 17923      63655F6F 
 17923      70656E00 
 17924              	.LASF134:
 17925 04fc 696F706F 		.ascii	"ioportmask_t\000"
 17925      72746D61 
 17925      736B5F74 
 17925      00
 17926              	.LASF25:
 17927 0509 6C636667 		.ascii	"lcfgx_list\000"
 17927      785F6C69 
 17927      737400
 17928              	.LASF254:
 17929 0514 6C636667 		.ascii	"lcfgx_tree_delete\000"
 17929      785F7472 
 17929      65655F64 
 17929      656C6574 
 17929      6500
 17930              	.LASF207:
 17931 0526 70617468 		.ascii	"path_components\000"
 17931      5F636F6D 
 17931      706F6E65 
 17931      6E747300 
 17932              	.LASF193:
 17933 0536 63687072 		.ascii	"chprintf\000"
 17933      696E7466 
 17933      00
 17934              	.LASF136:
 17935 053f 49544D53 		.ascii	"ITMStream\000"
 17935      74726561 
ARM GAS  C:\Users\jo\AppData\Local\Temp\ccMF9q4g.s 			page 324


 17935      6D00
 17936              	.LASF90:
 17937 0549 76745F66 		.ascii	"vt_func\000"
 17937      756E6300 
 17938              	.LASF278:
 17939 0551 73747274 		.ascii	"strtoul\000"
 17939      6F756C00 
 17940              	.LASF153:
 17941 0559 62756666 		.ascii	"buffer\000"
 17941      657200
 17942              	.LASF204:
 17943 0560 6C636667 		.ascii	"lcfgx_tree_visitor\000"
 17943      785F7472 
 17943      65655F76 
 17943      69736974 
 17943      6F7200
 17944              	.LASF68:
 17945 0573 705F6570 		.ascii	"p_epending\000"
 17945      656E6469 
 17945      6E6700
 17946              	.LASF77:
 17947 057e 63685F72 		.ascii	"ch_ready_list\000"
 17947      65616479 
 17947      5F6C6973 
 17947      7400
 17948              	.LASF124:
 17949 058c 636C6561 		.ascii	"clear\000"
 17949      7200
 17950              	.LASF22:
 17951 0592 6C636667 		.ascii	"lcfg_status\000"
 17951      5F737461 
 17951      74757300 
 17952              	.LASF266:
 17953 059e 5F5F6173 		.ascii	"__assert_func\000"
 17953      73657274 
 17953      5F66756E 
 17953      6300
 17954              	.LASF186:
 17955 05ac 6C636667 		.ascii	"lcfg_scanner_init\000"
 17955      5F736361 
 17955      6E6E6572 
 17955      5F696E69 
 17955      7400
 17956              	.LASF228:
 17957 05be 6D756C74 		.ascii	"multiline_end\000"
 17957      696C696E 
 17957      655F656E 
 17957      6400
 17958              	.LASF13:
 17959 05cc 5F5F7569 		.ascii	"__uint64_t\000"
 17959      6E743634 
 17959      5F7400
 17960              	.LASF11:
 17961 05d7 6C6F6E67 		.ascii	"long unsigned int\000"
 17961      20756E73 
 17961      69676E65 
 17961      6420696E 
ARM GAS  C:\Users\jo\AppData\Local\Temp\ccMF9q4g.s 			page 325


 17961      7400
 17962              	.LASF31:
 17963 05e9 5F5F7661 		.ascii	"__va_list\000"
 17963      5F6C6973 
 17963      7400
 17964              	.LASF189:
 17965 05f3 73746174 		.ascii	"status\000"
 17965      757300
 17966              	.LASF164:
 17967 05fa 76616C75 		.ascii	"value_capacity\000"
 17967      655F6361 
 17967      70616369 
 17967      747900
 17968              	.LASF54:
 17969 0609 63685F74 		.ascii	"ch_thread\000"
 17969      68726561 
 17969      6400
 17970              	.LASF28:
 17971 0613 5F5F6170 		.ascii	"__ap\000"
 17971      00
 17972              	.LASF92:
 17973 0618 76697274 		.ascii	"virtual_timers_list_t\000"
 17973      75616C5F 
 17973      74696D65 
 17973      72735F6C 
 17973      6973745F 
 17974              	.LASF148:
 17975 062e 6C696E65 		.ascii	"line\000"
 17975      00
 17976              	.LASF229:
 17977 0633 696E5F69 		.ascii	"in_identifier\000"
 17977      64656E74 
 17977      69666965 
 17977      7200
 17978              	.LASF171:
 17979 0641 6D61785F 		.ascii	"max_size\000"
 17979      73697A65 
 17979      00
 17980              	.LASF85:
 17981 064a 76697274 		.ascii	"virtual_timer_t\000"
 17981      75616C5F 
 17981      74696D65 
 17981      725F7400 
 17982              	.LASF76:
 17983 065a 72656164 		.ascii	"ready_list_t\000"
 17983      795F6C69 
 17983      73745F74 
 17983      00
 17984              	.LASF130:
 17985 0667 4C434B52 		.ascii	"LCKR\000"
 17985      00
 17986              	.LASF265:
 17987 066c 63687670 		.ascii	"chvprintf\000"
 17987      72696E74 
 17987      6600
 17988              	.LASF73:
 17989 0676 63685F74 		.ascii	"ch_threads_list\000"
ARM GAS  C:\Users\jo\AppData\Local\Temp\ccMF9q4g.s 			page 326


 17989      68726561 
 17989      64735F6C 
 17989      69737400 
 17990              	.LASF210:
 17991 0686 6C636667 		.ascii	"lcfg_parser_get\000"
 17991      5F706172 
 17991      7365725F 
 17991      67657400 
 17992              	.LASF127:
 17993 0696 4F535045 		.ascii	"OSPEEDR\000"
 17993      45445200 
 17994              	.LASF201:
 17995 069e 6C636667 		.ascii	"lcfg_string_cat_char\000"
 17995      5F737472 
 17995      696E675F 
 17995      6361745F 
 17995      63686172 
 17996              	.LASF174:
 17997 06b3 6C636667 		.ascii	"lcfg_parser_add_value\000"
 17997      5F706172 
 17997      7365725F 
 17997      6164645F 
 17997      76616C75 
 17998              	.LASF223:
 17999 06c9 7363616E 		.ascii	"scanner_state\000"
 17999      6E65725F 
 17999      73746174 
 17999      6500
 18000              	.LASF10:
 18001 06d7 5F5F7569 		.ascii	"__uint32_t\000"
 18001      6E743332 
 18001      5F7400
 18002              	.LASF12:
 18003 06e2 6C6F6E67 		.ascii	"long long int\000"
 18003      206C6F6E 
 18003      6720696E 
 18003      7400
 18004              	.LASF23:
 18005 06f0 6C636667 		.ascii	"lcfgx_type\000"
 18005      785F7479 
 18005      706500
 18006              	.LASF18:
 18007 06fb 76615F6C 		.ascii	"va_list\000"
 18007      69737400 
 18008              	.LASF259:
 18009 0703 6C636667 		.ascii	"lcfgx_get_string\000"
 18009      785F6765 
 18009      745F7374 
 18009      72696E67 
 18009      00
 18010              	.LASF115:
 18011 0714 6D5F7175 		.ascii	"m_queue\000"
 18011      65756500 
 18012              	.LASF246:
 18013 071c 73746174 		.ascii	"state_stack_size\000"
 18013      655F7374 
 18013      61636B5F 
ARM GAS  C:\Users\jo\AppData\Local\Temp\ccMF9q4g.s 			page 327


 18013      73697A65 
 18013      00
 18014              	.LASF87:
 18015 072d 76745F6E 		.ascii	"vt_next\000"
 18015      65787400 
 18016              	.LASF88:
 18017 0735 76745F70 		.ascii	"vt_prev\000"
 18017      72657600 
 18018              	.LASF158:
 18019 073d 6C636667 		.ascii	"lcfg_parser_value_pair\000"
 18019      5F706172 
 18019      7365725F 
 18019      76616C75 
 18019      655F7061 
 18020              	.LASF141:
 18021 0754 6C636667 		.ascii	"lcfg_string\000"
 18021      5F737472 
 18021      696E6700 
 18022              	.LASF203:
 18023 0760 73647570 		.ascii	"sdup\000"
 18023      00
 18024              	.LASF251:
 18025 0765 64657074 		.ascii	"depth\000"
 18025      6800
 18026              	.LASF182:
 18027 076b 6C636667 		.ascii	"lcfg_string_len\000"
 18027      5F737472 
 18027      696E675F 
 18027      6C656E00 
 18028              	.LASF114:
 18029 077b 6D757465 		.ascii	"mutex\000"
 18029      7800
 18030              	.LASF32:
 18031 0781 6C636667 		.ascii	"lcfgx_tree_node\000"
 18031      785F7472 
 18031      65655F6E 
 18031      6F646500 
 18032              	.LASF262:
 18033 0791 49544D5F 		.ascii	"ITM_RxBuffer\000"
 18033      52784275 
 18033      66666572 
 18033      00
 18034              	.LASF277:
 18035 079e 73747265 		.ascii	"strerror\000"
 18035      72726F72 
 18035      00
 18036              	.LASF263:
 18037 07a7 69746D5F 		.ascii	"itm_port\000"
 18037      706F7274 
 18037      00
 18038              	.LASF21:
 18039 07b0 6C636667 		.ascii	"lcfg_visitor_function\000"
 18039      5F766973 
 18039      69746F72 
 18039      5F66756E 
 18039      6374696F 
 18040              	.LASF65:
ARM GAS  C:\Users\jo\AppData\Local\Temp\ccMF9q4g.s 			page 328


 18041 07c6 705F7761 		.ascii	"p_waiting\000"
 18041      6974696E 
 18041      6700
 18042              	.LASF125:
 18043 07d0 4D4F4445 		.ascii	"MODER\000"
 18043      5200
 18044              	.LASF63:
 18045 07d6 705F666C 		.ascii	"p_flags\000"
 18045      61677300 
 18046              	.LASF121:
 18047 07de 72656164 		.ascii	"read\000"
 18047      00
 18048              	.LASF147:
 18049 07e3 6C636667 		.ascii	"lcfg_token\000"
 18049      5F746F6B 
 18049      656E00
 18050              	.LASF29:
 18051 07ee 73747269 		.ascii	"string\000"
 18051      6E6700
 18052              	.LASF103:
 18053 07f5 69646C65 		.ascii	"idle_thread_wa\000"
 18053      5F746872 
 18053      6561645F 
 18053      776100
 18054              	.LASF0:
 18055 0804 756E7369 		.ascii	"unsigned int\000"
 18055      676E6564 
 18055      20696E74 
 18055      00
 18056              	.LASF45:
 18057 0811 7274636E 		.ascii	"rtcnt_t\000"
 18057      745F7400 
 18058              	.LASF71:
 18059 0819 705F6D70 		.ascii	"p_mpool\000"
 18059      6F6F6C00 
 18060              	.LASF36:
 18061 0821 6C636667 		.ascii	"lcfgx_path_access\000"
 18061      785F7061 
 18061      74685F61 
 18061      63636573 
 18061      7300
 18062              	.LASF64:
 18063 0833 705F7265 		.ascii	"p_refs\000"
 18063      667300
 18064              	.LASF276:
 18065 083a 76736E70 		.ascii	"vsnprintf\000"
 18065      72696E74 
 18065      6600
 18066              	.LASF143:
 18067 0844 6C636667 		.ascii	"lcfg_sbracket_close\000"
 18067      5F736272 
 18067      61636B65 
 18067      745F636C 
 18067      6F736500 
 18068              	.LASF222:
 18069 0858 6C636667 		.ascii	"lcfg_scanner_token_read\000"
 18069      5F736361 
ARM GAS  C:\Users\jo\AppData\Local\Temp\ccMF9q4g.s 			page 329


 18069      6E6E6572 
 18069      5F746F6B 
 18069      656E5F72 
 18070              	.LASF167:
 18071 0870 735F6E65 		.ascii	"s_new\000"
 18071      7700
 18072              	.LASF108:
 18073 0876 6F666673 		.ascii	"offset\000"
 18073      657400
 18074              	.LASF287:
 18075 087d 5F5F6275 		.ascii	"__builtin_putchar\000"
 18075      696C7469 
 18075      6E5F7075 
 18075      74636861 
 18075      7200
 18076              	.LASF260:
 18077 088f 5F5F6374 		.ascii	"__ctype_ptr__\000"
 18077      7970655F 
 18077      7074725F 
 18077      5F00
 18078              	.LASF239:
 18079 089d 746F705F 		.ascii	"top_level\000"
 18079      6C657665 
 18079      6C00
 18080              	.LASF53:
 18081 08a7 74687265 		.ascii	"thread_t\000"
 18081      61645F74 
 18081      00
 18082              	.LASF261:
 18083 08b0 6C636667 		.ascii	"lcfgx_path_access_strings\000"
 18083      785F7061 
 18083      74685F61 
 18083      63636573 
 18083      735F7374 
 18084              	.LASF70:
 18085 08ca 705F7265 		.ascii	"p_realprio\000"
 18085      616C7072 
 18085      696F00
 18086              	.LASF107:
 18087 08d5 706F7274 		.ascii	"port_intctx\000"
 18087      5F696E74 
 18087      63747800 
 18088              	.LASF89:
 18089 08e1 76745F64 		.ascii	"vt_delta\000"
 18089      656C7461 
 18089      00
 18090              	.LASF214:
 18091 08ea 6C636667 		.ascii	"lcfg_delete\000"
 18091      5F64656C 
 18091      65746500 
 18092              	.LASF86:
 18093 08f6 63685F76 		.ascii	"ch_virtual_timer\000"
 18093      69727475 
 18093      616C5F74 
 18093      696D6572 
 18093      00
 18094              	.LASF175:
ARM GAS  C:\Users\jo\AppData\Local\Temp\ccMF9q4g.s 			page 330


 18095 0907 6C636667 		.ascii	"lcfg_string_grow\000"
 18095      5F737472 
 18095      696E675F 
 18095      67726F77 
 18095      00
 18096              	.LASF284:
 18097 0918 6C636667 		.ascii	"lcfg_static.c\000"
 18097      5F737461 
 18097      7469632E 
 18097      6300
 18098              	.LASF247:
 18099 0926 73746174 		.ascii	"state_stack\000"
 18099      655F7374 
 18099      61636B00 
 18100              	.LASF149:
 18101 0932 73697A65 		.ascii	"size\000"
 18101      00
 18102              	.LASF14:
 18103 0937 6C6F6E67 		.ascii	"long long unsigned int\000"
 18103      206C6F6E 
 18103      6720756E 
 18103      7369676E 
 18103      65642069 
 18104              	.LASF209:
 18105 094e 73617665 		.ascii	"saveptr\000"
 18105      70747200 
 18106              	.LASF60:
 18107 0956 705F6F6C 		.ascii	"p_older\000"
 18107      64657200 
 18108              	.LASF41:
 18109 095e 75696E74 		.ascii	"uint16_t\000"
 18109      31365F74 
 18109      00
 18110              	.LASF50:
 18111 0967 6D73675F 		.ascii	"msg_t\000"
 18111      7400
 18112              	.LASF75:
 18113 096d 63685F74 		.ascii	"ch_threads_queue\000"
 18113      68726561 
 18113      64735F71 
 18113      75657565 
 18113      00
 18114              	.LASF184:
 18115 097e 6C636667 		.ascii	"lcfg_scanner_has_next\000"
 18115      5F736361 
 18115      6E6E6572 
 18115      5F686173 
 18115      5F6E6578 
 18116              	.LASF83:
 18117 0994 725F6375 		.ascii	"r_current\000"
 18117      7272656E 
 18117      7400
 18118              	.LASF132:
 18119 099e 41465248 		.ascii	"AFRH\000"
 18119      00
 18120              	.LASF220:
 18121 09a3 6C636667 		.ascii	"lcfg_scanner_char_read\000"
ARM GAS  C:\Users\jo\AppData\Local\Temp\ccMF9q4g.s 			page 331


 18121      5F736361 
 18121      6E6E6572 
 18121      5F636861 
 18121      725F7265 
 18122              	.LASF131:
 18123 09ba 4146524C 		.ascii	"AFRL\000"
 18123      00
 18124              	.LASF139:
 18125 09bf 6C636667 		.ascii	"lcfg_identifier\000"
 18125      5F696465 
 18125      6E746966 
 18125      69657200 
 18126              	.LASF275:
 18127 09cf 73747274 		.ascii	"strtok_r\000"
 18127      6F6B5F72 
 18127      00
 18128              	.LASF102:
 18129 09d8 6D61696E 		.ascii	"mainthread\000"
 18129      74687265 
 18129      616400
 18130              	.LASF38:
 18131 09e3 4C434647 		.ascii	"LCFGX_PATH_FOUND_WRONG_TYPE_BAD\000"
 18131      585F5041 
 18131      54485F46 
 18131      4F554E44 
 18131      5F57524F 
 18132              	.LASF272:
 18133 0a03 6D656D73 		.ascii	"memset\000"
 18133      657400
 18134              	.LASF274:
 18135 0a0a 7374726E 		.ascii	"strncpy\000"
 18135      63707900 
 18136              	.LASF78:
 18137 0a12 725F7175 		.ascii	"r_queue\000"
 18137      65756500 
 18138              	.LASF238:
 18139 0a1a 6C636667 		.ascii	"lcfg_parser_parse\000"
 18139      5F706172 
 18139      7365725F 
 18139      70617273 
 18139      6500
 18140              	.LASF39:
 18141 0a2c 4C434647 		.ascii	"LCFGX_PATH_FOUND_TYPE_OK\000"
 18141      585F5041 
 18141      54485F46 
 18141      4F554E44 
 18141      5F545950 
 18142              	.LASF267:
 18143 0a45 6D616C6C 		.ascii	"malloc\000"
 18143      6F6300
 18144              	.LASF162:
 18145 0a4c 76616C75 		.ascii	"values\000"
 18145      657300
 18146              	.LASF119:
 18147 0a53 42617365 		.ascii	"BaseSequentialStreamVMT\000"
 18147      53657175 
 18147      656E7469 
ARM GAS  C:\Users\jo\AppData\Local\Temp\ccMF9q4g.s 			page 332


 18147      616C5374 
 18147      7265616D 
 18148              	.LASF100:
 18149 0a6b 726C6973 		.ascii	"rlist\000"
 18149      7400
 18150              	.LASF46:
 18151 0a71 746D6F64 		.ascii	"tmode_t\000"
 18151      655F7400 
 18152              	.LASF202:
 18153 0a79 73747264 		.ascii	"strdup\000"
 18153      757000
 18154              	.LASF190:
 18155 0a80 6C636667 		.ascii	"lcfg_parser_accept\000"
 18155      5F706172 
 18155      7365725F 
 18155      61636365 
 18155      707400
 18156              	.LASF82:
 18157 0a93 725F6F6C 		.ascii	"r_older\000"
 18157      64657200 
 18158              	.LASF109:
 18159 0a9b 746D5F63 		.ascii	"tm_calibration_t\000"
 18159      616C6962 
 18159      72617469 
 18159      6F6E5F74 
 18159      00
 18160              	.LASF180:
 18161 0aac 6C636667 		.ascii	"lcfg_parser_new\000"
 18161      5F706172 
 18161      7365725F 
 18161      6E657700 
 18162              	.LASF282:
 18163 0abc 73747274 		.ascii	"strtol\000"
 18163      6F6C00
 18164              	.LASF187:
 18165 0ac3 6C636667 		.ascii	"lcfg_string_rfind\000"
 18165      5F737472 
 18165      696E675F 
 18165      7266696E 
 18165      6400
 18166              	.LASF5:
 18167 0ad5 73686F72 		.ascii	"short int\000"
 18167      7420696E 
 18167      7400
 18168              	.LASF195:
 18169 0adf 73697A65 		.ascii	"size_needed\000"
 18169      5F6E6565 
 18169      64656400 
 18170              	.LASF176:
 18171 0aeb 6C636667 		.ascii	"lcfgx_tree_insert\000"
 18171      785F7472 
 18171      65655F69 
 18171      6E736572 
 18171      7400
 18172              	.LASF44:
 18173 0afd 75696E74 		.ascii	"uint64_t\000"
 18173      36345F74 
ARM GAS  C:\Users\jo\AppData\Local\Temp\ccMF9q4g.s 			page 333


 18173      00
 18174              	.LASF242:
 18175 0b06 696E5F6C 		.ascii	"in_list\000"
 18175      69737400 
 18176              	.LASF161:
 18177 0b0e 7363616E 		.ascii	"scanner\000"
 18177      6E657200 
 18178              	.LASF26:
 18179 0b16 6C636667 		.ascii	"lcfgx_map\000"
 18179      785F6D61 
 18179      7000
 18180              	.LASF215:
 18181 0b20 6C636667 		.ascii	"lcfg_error_get\000"
 18181      5F657272 
 18181      6F725F67 
 18181      657400
 18182              	.LASF236:
 18183 0b2f 73746174 		.ascii	"state_map\000"
 18183      655F6D61 
 18183      7000
 18184              	.LASF257:
 18185 0b39 6C636667 		.ascii	"lcfgx_get_list\000"
 18185      785F6765 
 18185      745F6C69 
 18185      737400
 18186              	.LASF30:
 18187 0b48 656C656D 		.ascii	"elements\000"
 18187      656E7473 
 18187      00
 18188              	.LASF96:
 18189 0b51 63685F73 		.ascii	"ch_system_debug\000"
 18189      79737465 
 18189      6D5F6465 
 18189      62756700 
 18190              	.LASF154:
 18191 0b61 70726570 		.ascii	"prepared_token\000"
 18191      61726564 
 18191      5F746F6B 
 18191      656E00
 18192              	.LASF163:
 18193 0b70 76616C75 		.ascii	"value_length\000"
 18193      655F6C65 
 18193      6E677468 
 18193      00
 18194              	.LASF144:
 18195 0b7d 6C636667 		.ascii	"lcfg_comma\000"
 18195      5F636F6D 
 18195      6D6100
 18196              	.LASF218:
 18197 0b88 6C636667 		.ascii	"lcfg_scanner_char_peek\000"
 18197      5F736361 
 18197      6E6E6572 
 18197      5F636861 
 18197      725F7065 
 18198              	.LASF129:
 18199 0b9f 42535252 		.ascii	"BSRR\000"
 18199      00
ARM GAS  C:\Users\jo\AppData\Local\Temp\ccMF9q4g.s 			page 334


 18200              	.LASF288:
 18201 0ba4 70757463 		.ascii	"putchar\000"
 18201      68617200 
 18202              	.LASF216:
 18203 0bac 6C636667 		.ascii	"lcfg_value_get\000"
 18203      5F76616C 
 18203      75655F67 
 18203      657400
 18204              	.LASF101:
 18205 0bbb 76746C69 		.ascii	"vtlist\000"
 18205      737400
 18206              	.LASF270:
 18207 0bc2 7374726C 		.ascii	"strlen\000"
 18207      656E00
 18208              	.LASF268:
 18209 0bc9 6D656D63 		.ascii	"memcpy\000"
 18209      707900
 18210              	.LASF118:
 18211 0bd0 6D757465 		.ascii	"mutex_t\000"
 18211      785F7400 
 18212              	.LASF48:
 18213 0bd8 74726566 		.ascii	"trefs_t\000"
 18213      735F7400 
 18214              	.LASF72:
 18215 0be0 74687265 		.ascii	"threads_list_t\000"
 18215      6164735F 
 18215      6C697374 
 18215      5F7400
 18216              	.LASF99:
 18217 0bef 63685F73 		.ascii	"ch_system\000"
 18217      79737465 
 18217      6D00
 18218              	.LASF43:
 18219 0bf9 75696E74 		.ascii	"uint32_t\000"
 18219      33325F74 
 18219      00
 18220              	.LASF135:
 18221 0c02 49544D53 		.ascii	"ITMStreamVMT\000"
 18221      74726561 
 18221      6D564D54 
 18221      00
 18222              	.LASF140:
 18223 0c0f 6C636667 		.ascii	"lcfg_equals\000"
 18223      5F657175 
 18223      616C7300 
 18224              	.LASF208:
 18225 0c1b 746F6B65 		.ascii	"token\000"
 18225      6E00
 18226              	.LASF271:
 18227 0c21 66726565 		.ascii	"free\000"
 18227      00
 18228              	.LASF253:
 18229 0c26 6C636667 		.ascii	"lcfgx_tree_new\000"
 18229      785F7472 
 18229      65655F6E 
 18229      657700
 18230              	.LASF283:
ARM GAS  C:\Users\jo\AppData\Local\Temp\ccMF9q4g.s 			page 335


 18231 0c35 474E5520 		.ascii	"GNU C 4.9.3 20141119 (release) [ARM/embedded-4_9-br"
 18231      4320342E 
 18231      392E3320 
 18231      32303134 
 18231      31313139 
 18232 0c68 616E6368 		.ascii	"anch revision 218278] -mcpu=cortex-m4 -mfloat-abi=h"
 18232      20726576 
 18232      6973696F 
 18232      6E203231 
 18232      38323738 
 18233 0c9b 61726420 		.ascii	"ard -mfpu=fpv4-sp-d16 -mno-thumb-interwork -mthumb "
 18233      2D6D6670 
 18233      753D6670 
 18233      76342D73 
 18233      702D6431 
 18234 0cce 2D676764 		.ascii	"-ggdb -O2 -fomit-frame-pointer -falign-functions=16"
 18234      62202D4F 
 18234      32202D66 
 18234      6F6D6974 
 18234      2D667261 
 18235 0d01 202D6666 		.ascii	" -ffunction-sections -fdata-sections -fno-common -f"
 18235      756E6374 
 18235      696F6E2D 
 18235      73656374 
 18235      696F6E73 
 18236 0d34 73696E67 		.ascii	"single-precision-constant\000"
 18236      6C652D70 
 18236      72656369 
 18236      73696F6E 
 18236      2D636F6E 
 18237              	.LASF110:
 18238 0d4e 7264796D 		.ascii	"rdymsg\000"
 18238      736700
 18239              	.LASF94:
 18240 0d55 76745F6C 		.ascii	"vt_lasttime\000"
 18240      61737474 
 18240      696D6500 
 18241              	.LASF7:
 18242 0d61 73686F72 		.ascii	"short unsigned int\000"
 18242      7420756E 
 18242      7369676E 
 18242      65642069 
 18242      6E7400
 18243              	.LASF98:
 18244 0d74 63685F73 		.ascii	"ch_system_t\000"
 18244      79737465 
 18244      6D5F7400 
 18245              	.LASF168:
 18246 0d80 6C636667 		.ascii	"lcfg_string_new\000"
 18246      5F737472 
 18246      696E675F 
 18246      6E657700 
 18247              	.LASF191:
 18248 0d90 75736572 		.ascii	"user_data\000"
 18248      5F646174 
 18248      6100
 18249              	.LASF146:
ARM GAS  C:\Users\jo\AppData\Local\Temp\ccMF9q4g.s 			page 336


 18250 0d9a 6C636667 		.ascii	"lcfg_brace_close\000"
 18250      5F627261 
 18250      63655F63 
 18250      6C6F7365 
 18250      00
 18251              	.LASF200:
 18252 0dab 6C636667 		.ascii	"lcfg_string_set\000"
 18252      5F737472 
 18252      696E675F 
 18252      73657400 
 18253              	.LASF142:
 18254 0dbb 6C636667 		.ascii	"lcfg_sbracket_open\000"
 18254      5F736272 
 18254      61636B65 
 18254      745F6F70 
 18254      656E00
 18255              	.LASF8:
 18256 0dce 5F5F696E 		.ascii	"__int32_t\000"
 18256      7433325F 
 18256      7400
 18257              	.LASF152:
 18258 0dd8 6C636667 		.ascii	"lcfg\000"
 18258      00
 18259              	.LASF155:
 18260 0ddd 746F6B65 		.ascii	"token_eof\000"
 18260      6E5F656F 
 18260      6600
 18261              	.LASF249:
 18262 0de7 6C636667 		.ascii	"lcfg_parse\000"
 18262      5F706172 
 18262      736500
 18263              	.LASF232:
 18264 0df2 6573635F 		.ascii	"esc_hex_exp_first\000"
 18264      6865785F 
 18264      6578705F 
 18264      66697273 
 18264      7400
 18265              	.LASF234:
 18266 0e04 696E7661 		.ascii	"invalid\000"
 18266      6C696400 
 18267              	.LASF61:
 18268 0e0c 705F6E61 		.ascii	"p_name\000"
 18268      6D6500
 18269              	.LASF151:
 18270 0e13 6C636667 		.ascii	"lcfg_scanner\000"
 18270      5F736361 
 18270      6E6E6572 
 18270      00
 18271              	.LASF35:
 18272 0e20 6E657874 		.ascii	"next\000"
 18272      00
 18273              	.LASF27:
 18274 0e25 64617461 		.ascii	"data\000"
 18274      00
 18275              	.LASF117:
 18276 0e2a 6D5F6E65 		.ascii	"m_next\000"
 18276      787400
ARM GAS  C:\Users\jo\AppData\Local\Temp\ccMF9q4g.s 			page 337


 18277              	.LASF230:
 18278 0e31 696E5F73 		.ascii	"in_str\000"
 18278      747200
 18279              	.LASF280:
 18280 0e38 636C6F73 		.ascii	"close\000"
 18280      6500
 18281              	.LASF170:
 18282 0e3e 6C636667 		.ascii	"lcfg_string_trunc\000"
 18282      5F737472 
 18282      696E675F 
 18282      7472756E 
 18282      6300
 18283              	.LASF250:
 18284 0e50 6C636667 		.ascii	"lcfgx_tree_dump\000"
 18284      785F7472 
 18284      65655F64 
 18284      756D7000 
 18285              	.LASF219:
 18286 0e60 6C636667 		.ascii	"lcfg_scanner_buffer_fill\000"
 18286      5F736361 
 18286      6E6E6572 
 18286      5F627566 
 18286      6665725F 
 18287              	.LASF67:
 18288 0e79 705F6D73 		.ascii	"p_msg\000"
 18288      6700
 18289              	.LASF79:
 18290 0e7f 725F7072 		.ascii	"r_prio\000"
 18290      696F00
 18291              	.LASF62:
 18292 0e86 705F7374 		.ascii	"p_state\000"
 18292      61746500 
 18293              		.ident	"GCC: (GNU Tools for ARM Embedded Processors) 4.9.3 20141119 (release) [ARM/embedded-4_9-br
ARM GAS  C:\Users\jo\AppData\Local\Temp\ccMF9q4g.s 			page 338


DEFINED SYMBOLS
                            *ABS*:00000000 lcfg_static.c
C:\Users\jo\AppData\Local\Temp\ccMF9q4g.s:21     .text.chprintf.constprop.11:00000000 $t
C:\Users\jo\AppData\Local\Temp\ccMF9q4g.s:26     .text.chprintf.constprop.11:00000000 chprintf.constprop.11
C:\Users\jo\AppData\Local\Temp\ccMF9q4g.s:72     .text.chprintf.constprop.11:00000020 $d
C:\Users\jo\AppData\Local\Temp\ccMF9q4g.s:77     .text.lcfg_string_new:00000000 $t
C:\Users\jo\AppData\Local\Temp\ccMF9q4g.s:83     .text.lcfg_string_new:00000000 lcfg_string_new
C:\Users\jo\AppData\Local\Temp\ccMF9q4g.s:144    .text.lcfg_string_new:0000003c $d
C:\Users\jo\AppData\Local\Temp\ccMF9q4g.s:152    .text.lcfg_string_new_copy:00000000 $t
C:\Users\jo\AppData\Local\Temp\ccMF9q4g.s:158    .text.lcfg_string_new_copy:00000000 lcfg_string_new_copy
C:\Users\jo\AppData\Local\Temp\ccMF9q4g.s:218    .text.lcfg_string_new_copy:00000038 $d
C:\Users\jo\AppData\Local\Temp\ccMF9q4g.s:227    .text.lcfg_string_cat_uint:00000000 $t
C:\Users\jo\AppData\Local\Temp\ccMF9q4g.s:233    .text.lcfg_string_cat_uint:00000000 lcfg_string_cat_uint
C:\Users\jo\AppData\Local\Temp\ccMF9q4g.s:353    .text.lcfg_string_cat_uint:0000007c $d
C:\Users\jo\AppData\Local\Temp\ccMF9q4g.s:358    .text.lcfg_string_find:00000000 $t
C:\Users\jo\AppData\Local\Temp\ccMF9q4g.s:364    .text.lcfg_string_find:00000000 lcfg_string_find
C:\Users\jo\AppData\Local\Temp\ccMF9q4g.s:421    .text.lcfg_string_rfind:00000000 $t
C:\Users\jo\AppData\Local\Temp\ccMF9q4g.s:427    .text.lcfg_string_rfind:00000000 lcfg_string_rfind
C:\Users\jo\AppData\Local\Temp\ccMF9q4g.s:475    .text.lcfg_string_trunc:00000000 $t
C:\Users\jo\AppData\Local\Temp\ccMF9q4g.s:481    .text.lcfg_string_trunc:00000000 lcfg_string_trunc
C:\Users\jo\AppData\Local\Temp\ccMF9q4g.s:500    .text.lcfg_string_cat_cstr:00000000 $t
C:\Users\jo\AppData\Local\Temp\ccMF9q4g.s:506    .text.lcfg_string_cat_cstr:00000000 lcfg_string_cat_cstr
C:\Users\jo\AppData\Local\Temp\ccMF9q4g.s:586    .text.lcfg_string_set:00000000 $t
C:\Users\jo\AppData\Local\Temp\ccMF9q4g.s:592    .text.lcfg_string_set:00000000 lcfg_string_set
C:\Users\jo\AppData\Local\Temp\ccMF9q4g.s:618    .text.lcfg_string_cat_char:00000000 $t
C:\Users\jo\AppData\Local\Temp\ccMF9q4g.s:624    .text.lcfg_string_cat_char:00000000 lcfg_string_cat_char
C:\Users\jo\AppData\Local\Temp\ccMF9q4g.s:690    .text.lcfg_string_cstr:00000000 $t
C:\Users\jo\AppData\Local\Temp\ccMF9q4g.s:696    .text.lcfg_string_cstr:00000000 lcfg_string_cstr
C:\Users\jo\AppData\Local\Temp\ccMF9q4g.s:716    .text.lcfg_string_len:00000000 $t
C:\Users\jo\AppData\Local\Temp\ccMF9q4g.s:722    .text.lcfg_string_len:00000000 lcfg_string_len
C:\Users\jo\AppData\Local\Temp\ccMF9q4g.s:738    .text.lcfg_string_delete:00000000 $t
C:\Users\jo\AppData\Local\Temp\ccMF9q4g.s:744    .text.lcfg_string_delete:00000000 lcfg_string_delete
C:\Users\jo\AppData\Local\Temp\ccMF9q4g.s:777    .text.lcfg_scanner_has_next:00000000 $t
C:\Users\jo\AppData\Local\Temp\ccMF9q4g.s:783    .text.lcfg_scanner_has_next:00000000 lcfg_scanner_has_next
C:\Users\jo\AppData\Local\Temp\ccMF9q4g.s:803    .text.lcfg_scanner_new:00000000 $t
C:\Users\jo\AppData\Local\Temp\ccMF9q4g.s:809    .text.lcfg_scanner_new:00000000 lcfg_scanner_new
C:\Users\jo\AppData\Local\Temp\ccMF9q4g.s:871    .text.lcfg_scanner_new:00000044 $d
C:\Users\jo\AppData\Local\Temp\ccMF9q4g.s:880    .text.lcfg_scanner_delete:00000000 $t
C:\Users\jo\AppData\Local\Temp\ccMF9q4g.s:886    .text.lcfg_scanner_delete:00000000 lcfg_scanner_delete
C:\Users\jo\AppData\Local\Temp\ccMF9q4g.s:934    .text.strdup:00000000 $t
C:\Users\jo\AppData\Local\Temp\ccMF9q4g.s:940    .text.strdup:00000000 strdup
C:\Users\jo\AppData\Local\Temp\ccMF9q4g.s:980    .text.lcfg_parser_add_value:00000000 $t
C:\Users\jo\AppData\Local\Temp\ccMF9q4g.s:985    .text.lcfg_parser_add_value:00000000 lcfg_parser_add_value
C:\Users\jo\AppData\Local\Temp\ccMF9q4g.s:1066   .text.lcfg_parser_add_value:0000005c $d
C:\Users\jo\AppData\Local\Temp\ccMF9q4g.s:1075   .text.lcfgx_tree_node_new:00000000 $t
C:\Users\jo\AppData\Local\Temp\ccMF9q4g.s:1080   .text.lcfgx_tree_node_new:00000000 lcfgx_tree_node_new
C:\Users\jo\AppData\Local\Temp\ccMF9q4g.s:1139   .text.lcfgx_tree_visitor:00000000 $t
C:\Users\jo\AppData\Local\Temp\ccMF9q4g.s:1145   .text.lcfgx_tree_visitor:00000000 lcfgx_tree_visitor
C:\Users\jo\AppData\Local\Temp\ccMF9q4g.s:1434   .text.lcfgx_tree_visitor:0000013c $d
C:\Users\jo\AppData\Local\Temp\ccMF9q4g.s:1441   .text.lcfg_parser_new:00000000 $t
C:\Users\jo\AppData\Local\Temp\ccMF9q4g.s:1447   .text.lcfg_parser_new:00000000 lcfg_parser_new
C:\Users\jo\AppData\Local\Temp\ccMF9q4g.s:1537   .text.lcfg_parser_new:00000064 $d
C:\Users\jo\AppData\Local\Temp\ccMF9q4g.s:1545   .text.lcfg_parser_get:00000000 $t
C:\Users\jo\AppData\Local\Temp\ccMF9q4g.s:1551   .text.lcfg_parser_get:00000000 lcfg_parser_get
C:\Users\jo\AppData\Local\Temp\ccMF9q4g.s:1644   .text.lcfg_parser_delete:00000000 $t
C:\Users\jo\AppData\Local\Temp\ccMF9q4g.s:1650   .text.lcfg_parser_delete:00000000 lcfg_parser_delete
C:\Users\jo\AppData\Local\Temp\ccMF9q4g.s:1737   .text.lcfg_new:00000000 $t
ARM GAS  C:\Users\jo\AppData\Local\Temp\ccMF9q4g.s 			page 339


C:\Users\jo\AppData\Local\Temp\ccMF9q4g.s:1743   .text.lcfg_new:00000000 lcfg_new
C:\Users\jo\AppData\Local\Temp\ccMF9q4g.s:1803   .text.lcfg_new:00000048 $d
C:\Users\jo\AppData\Local\Temp\ccMF9q4g.s:1811   .text.lcfg_delete:00000000 $t
C:\Users\jo\AppData\Local\Temp\ccMF9q4g.s:1817   .text.lcfg_delete:00000000 lcfg_delete
C:\Users\jo\AppData\Local\Temp\ccMF9q4g.s:1850   .text.lcfg_error_get:00000000 $t
C:\Users\jo\AppData\Local\Temp\ccMF9q4g.s:1856   .text.lcfg_error_get:00000000 lcfg_error_get
C:\Users\jo\AppData\Local\Temp\ccMF9q4g.s:1870   .text.lcfg_value_get:00000000 $t
C:\Users\jo\AppData\Local\Temp\ccMF9q4g.s:1876   .text.lcfg_value_get:00000000 lcfg_value_get
C:\Users\jo\AppData\Local\Temp\ccMF9q4g.s:1893   .text.lcfg_error_set:00000000 $t
C:\Users\jo\AppData\Local\Temp\ccMF9q4g.s:1899   .text.lcfg_error_set:00000000 lcfg_error_set
C:\Users\jo\AppData\Local\Temp\ccMF9q4g.s:1944   .text.lcfg_parser_accept:00000000 $t
C:\Users\jo\AppData\Local\Temp\ccMF9q4g.s:1950   .text.lcfg_parser_accept:00000000 lcfg_parser_accept
C:\Users\jo\AppData\Local\Temp\ccMF9q4g.s:2051   .text.lcfg_parser_accept:00000058 $d
C:\Users\jo\AppData\Local\Temp\ccMF9q4g.s:2057   .text.lcfg_accept:00000000 $t
C:\Users\jo\AppData\Local\Temp\ccMF9q4g.s:2063   .text.lcfg_accept:00000000 lcfg_accept
C:\Users\jo\AppData\Local\Temp\ccMF9q4g.s:2080   .text.lcfg_scanner_token_read:00000000 $t
C:\Users\jo\AppData\Local\Temp\ccMF9q4g.s:2085   .text.lcfg_scanner_token_read:00000000 lcfg_scanner_token_read
C:\Users\jo\AppData\Local\Temp\ccMF9q4g.s:2253   .text.lcfg_scanner_token_read:000000d4 $d
C:\Users\jo\AppData\Local\Temp\ccMF9q4g.s:2262   .text.lcfg_scanner_token_read:000000e6 $t
C:\Users\jo\AppData\Local\Temp\ccMF9q4g.s:2498   .text.lcfg_scanner_token_read:0000028c $d
C:\Users\jo\AppData\Local\Temp\ccMF9q4g.s:2511   .text.lcfg_scanner_token_read:000002b4 $t
C:\Users\jo\AppData\Local\Temp\ccMF9q4g.s:2516   .text.lcfg_scanner_token_read:000002c2 $d
C:\Users\jo\AppData\Local\Temp\ccMF9q4g.s:2634   .text.lcfg_scanner_token_read:000003ac $t
C:\Users\jo\AppData\Local\Temp\ccMF9q4g.s:3227   .text.lcfg_scanner_token_read:000006d8 $d
C:\Users\jo\AppData\Local\Temp\ccMF9q4g.s:3242   .text.lcfg_scanner_token_read:00000708 $t
C:\Users\jo\AppData\Local\Temp\ccMF9q4g.s:3577   .text.lcfg_scanner_token_read:000008bc $d
C:\Users\jo\AppData\Local\Temp\ccMF9q4g.s:3587   .text.lcfg_scanner_init:00000000 $t
C:\Users\jo\AppData\Local\Temp\ccMF9q4g.s:3593   .text.lcfg_scanner_init:00000000 lcfg_scanner_init
C:\Users\jo\AppData\Local\Temp\ccMF9q4g.s:3608   .text.lcfg_scanner_next_token:00000000 $t
C:\Users\jo\AppData\Local\Temp\ccMF9q4g.s:3614   .text.lcfg_scanner_next_token:00000000 lcfg_scanner_next_token
C:\Users\jo\AppData\Local\Temp\ccMF9q4g.s:3684   .text.lcfg_scanner_next_token:00000040 $d
C:\Users\jo\AppData\Local\Temp\ccMF9q4g.s:3690   .text.lcfg_parser_run:00000000 $t
C:\Users\jo\AppData\Local\Temp\ccMF9q4g.s:3696   .text.lcfg_parser_run:00000000 lcfg_parser_run
C:\Users\jo\AppData\Local\Temp\ccMF9q4g.s:3842   .text.lcfg_parser_run:000000a8 $d
C:\Users\jo\AppData\Local\Temp\ccMF9q4g.s:3848   .text.lcfg_parser_run:000000ae $t
C:\Users\jo\AppData\Local\Temp\ccMF9q4g.s:4237   .text.lcfg_parser_run:00000308 $d
C:\Users\jo\AppData\Local\Temp\ccMF9q4g.s:4255   .text.lcfg_parser_run:00000348 $t
C:\Users\jo\AppData\Local\Temp\ccMF9q4g.s:4718   .text.lcfg_parser_run:00000594 $d
C:\Users\jo\AppData\Local\Temp\ccMF9q4g.s:4726   .text.lcfg_parse:00000000 $t
C:\Users\jo\AppData\Local\Temp\ccMF9q4g.s:4732   .text.lcfg_parse:00000000 lcfg_parse
C:\Users\jo\AppData\Local\Temp\ccMF9q4g.s:4749   .text.lcfgx_tree_dump:00000000 $t
C:\Users\jo\AppData\Local\Temp\ccMF9q4g.s:4755   .text.lcfgx_tree_dump:00000000 lcfgx_tree_dump
C:\Users\jo\AppData\Local\Temp\ccMF9q4g.s:4863   .text.lcfgx_tree_dump:0000005c $d
C:\Users\jo\AppData\Local\Temp\ccMF9q4g.s:4870   .text.lcfgx_correct_type:00000000 $t
C:\Users\jo\AppData\Local\Temp\ccMF9q4g.s:4876   .text.lcfgx_correct_type:00000000 lcfgx_correct_type
C:\Users\jo\AppData\Local\Temp\ccMF9q4g.s:4969   .text.lcfgx_tree_new:00000000 $t
C:\Users\jo\AppData\Local\Temp\ccMF9q4g.s:4975   .text.lcfgx_tree_new:00000000 lcfgx_tree_new
C:\Users\jo\AppData\Local\Temp\ccMF9q4g.s:5027   .text.lcfgx_tree_new:00000028 $d
C:\Users\jo\AppData\Local\Temp\ccMF9q4g.s:5032   .text.lcfgx_tree_delete:00000000 $t
C:\Users\jo\AppData\Local\Temp\ccMF9q4g.s:5038   .text.lcfgx_tree_delete:00000000 lcfgx_tree_delete
C:\Users\jo\AppData\Local\Temp\ccMF9q4g.s:5111   .text.cfg_get_recursive:00000000 $t
C:\Users\jo\AppData\Local\Temp\ccMF9q4g.s:5117   .text.cfg_get_recursive:00000000 cfg_get_recursive
C:\Users\jo\AppData\Local\Temp\ccMF9q4g.s:5176   .text.lcfgx_get:00000000 $t
C:\Users\jo\AppData\Local\Temp\ccMF9q4g.s:5182   .text.lcfgx_get:00000000 lcfgx_get
C:\Users\jo\AppData\Local\Temp\ccMF9q4g.s:5351   .text.lcfgx_get:000000b8 $d
C:\Users\jo\AppData\Local\Temp\ccMF9q4g.s:5356   .text.lcfgx_get_list:00000000 $t
C:\Users\jo\AppData\Local\Temp\ccMF9q4g.s:5362   .text.lcfgx_get_list:00000000 lcfgx_get_list
ARM GAS  C:\Users\jo\AppData\Local\Temp\ccMF9q4g.s 			page 340


C:\Users\jo\AppData\Local\Temp\ccMF9q4g.s:5378   .text.lcfgx_get_map:00000000 $t
C:\Users\jo\AppData\Local\Temp\ccMF9q4g.s:5384   .text.lcfgx_get_map:00000000 lcfgx_get_map
C:\Users\jo\AppData\Local\Temp\ccMF9q4g.s:5400   .text.lcfgx_get_string:00000000 $t
C:\Users\jo\AppData\Local\Temp\ccMF9q4g.s:5406   .text.lcfgx_get_string:00000000 lcfgx_get_string
C:\Users\jo\AppData\Local\Temp\ccMF9q4g.s:5680   .data.lcfgx_path_access_strings:00000000 lcfgx_path_access_strings
C:\Users\jo\AppData\Local\Temp\ccMF9q4g.s:5696   .data.lcfg_token_map:00000000 lcfg_token_map
C:\Users\jo\AppData\Local\Temp\ccMF9q4g.s:5424   .rodata:00000000 $d
C:\Users\jo\AppData\Local\Temp\ccMF9q4g.s:5446   .rodata.__FUNCTION__.9289:00000000 $d
C:\Users\jo\AppData\Local\Temp\ccMF9q4g.s:5450   .rodata.__FUNCTION__.9289:00000000 __FUNCTION__.9289
C:\Users\jo\AppData\Local\Temp\ccMF9q4g.s:5453   .rodata.__FUNCTION__.9540:00000000 $d
C:\Users\jo\AppData\Local\Temp\ccMF9q4g.s:5457   .rodata.__FUNCTION__.9540:00000000 __FUNCTION__.9540
C:\Users\jo\AppData\Local\Temp\ccMF9q4g.s:5460   .rodata.__FUNCTION__.9499:00000000 $d
C:\Users\jo\AppData\Local\Temp\ccMF9q4g.s:5464   .rodata.__FUNCTION__.9499:00000000 __FUNCTION__.9499
C:\Users\jo\AppData\Local\Temp\ccMF9q4g.s:5467   .rodata.__FUNCTION__.9466:00000000 $d
C:\Users\jo\AppData\Local\Temp\ccMF9q4g.s:5471   .rodata.__FUNCTION__.9466:00000000 __FUNCTION__.9466
C:\Users\jo\AppData\Local\Temp\ccMF9q4g.s:5474   .rodata.__FUNCTION__.9472:00000000 $d
C:\Users\jo\AppData\Local\Temp\ccMF9q4g.s:5478   .rodata.__FUNCTION__.9472:00000000 __FUNCTION__.9472
C:\Users\jo\AppData\Local\Temp\ccMF9q4g.s:5481   .rodata.str1.4:00000000 $d
C:\Users\jo\AppData\Local\Temp\ccMF9q4g.s:5670   .rodata.__FUNCTION__.9294:00000000 $d
C:\Users\jo\AppData\Local\Temp\ccMF9q4g.s:5674   .rodata.__FUNCTION__.9294:00000000 __FUNCTION__.9294
C:\Users\jo\AppData\Local\Temp\ccMF9q4g.s:5677   .data.lcfgx_path_access_strings:00000000 $d
C:\Users\jo\AppData\Local\Temp\ccMF9q4g.s:5685   .rodata.__FUNCTION__.9443:00000000 $d
C:\Users\jo\AppData\Local\Temp\ccMF9q4g.s:5689   .rodata.__FUNCTION__.9443:00000000 __FUNCTION__.9443
C:\Users\jo\AppData\Local\Temp\ccMF9q4g.s:5692   .data.lcfg_token_map:00000000 $d
                     .debug_frame:00000010 $d
C:\Users\jo\AppData\Local\Temp\ccMF9q4g.s:76     .text.chprintf.constprop.11:00000024 $t
C:\Users\jo\AppData\Local\Temp\ccMF9q4g.s:151    .text.lcfg_string_new:0000004c $t
C:\Users\jo\AppData\Local\Temp\ccMF9q4g.s:226    .text.lcfg_string_new_copy:00000044 $t
C:\Users\jo\AppData\Local\Temp\ccMF9q4g.s:1074   .text.lcfg_parser_add_value:00000068 $t
C:\Users\jo\AppData\Local\Temp\ccMF9q4g.s:1544   .text.lcfg_parser_new:00000074 $t
C:\Users\jo\AppData\Local\Temp\ccMF9q4g.s:1810   .text.lcfg_new:00000058 $t
C:\Users\jo\AppData\Local\Temp\ccMF9q4g.s:3586   .text.lcfg_scanner_token_read:000008d4 $t
C:\Users\jo\AppData\Local\Temp\ccMF9q4g.s:3689   .text.lcfg_scanner_next_token:00000048 $t
C:\Users\jo\AppData\Local\Temp\ccMF9q4g.s:4725   .text.lcfg_parser_run:0000059c $t
C:\Users\jo\AppData\Local\Temp\ccMF9q4g.s:4869   .text.lcfgx_tree_dump:00000068 $t
C:\Users\jo\AppData\Local\Temp\ccMF9q4g.s:5031   .text.lcfgx_tree_new:0000002c $t
C:\Users\jo\AppData\Local\Temp\ccMF9q4g.s:5355   .text.lcfgx_get:000000bc $t

UNDEFINED SYMBOLS
chvprintf
itm_port
malloc
__assert_func
memcpy
realloc
strlen
free
memset
strncpy
strtok_r
strcmp
vsnprintf
read
__ctype_ptr__
strtoul
__errno
strerror
ARM GAS  C:\Users\jo\AppData\Local\Temp\ccMF9q4g.s 			page 341


open
close
putchar
printf
strtol
