ARM GAS  C:\Users\jo\AppData\Local\Temp\ccLyNfpa.s 			page 1


   1              		.syntax unified
   2              		.cpu cortex-m4
   3              		.eabi_attribute 27, 3
   4              		.eabi_attribute 28, 1
   5              		.fpu fpv4-sp-d16
   6              		.eabi_attribute 20, 1
   7              		.eabi_attribute 21, 1
   8              		.eabi_attribute 23, 3
   9              		.eabi_attribute 24, 1
  10              		.eabi_attribute 25, 1
  11              		.eabi_attribute 26, 1
  12              		.eabi_attribute 30, 2
  13              		.eabi_attribute 34, 1
  14              		.eabi_attribute 18, 4
  15              		.thumb
  16              		.file	"lwipthread.c"
  17              		.text
  18              	.Ltext0:
  19              		.cfi_sections	.debug_frame
  20              		.section	.text.ethernetif_init,"ax",%progbits
  21              		.align	2
  22              		.p2align 4,,15
  23              		.thumb
  24              		.thumb_func
  25              		.type	ethernetif_init, %function
  26              	ethernetif_init:
  27              	.LFB260:
  28              		.file 1 "../../../os/various/lwip_bindings/lwipthread.c"
  29              		.loc 1 182 0
  30              		.cfi_startproc
  31              		@ args = 0, pretend = 0, frame = 0
  32              		@ frame_needed = 0, uses_anonymous_args = 0
  33              		@ link register save eliminated.
  34              	.LVL0:
  35 0000 F0B4     		push	{r4, r5, r6, r7}
  36              		.cfi_def_cfa_offset 16
  37              		.cfi_offset 4, -16
  38              		.cfi_offset 5, -12
  39              		.cfi_offset 6, -8
  40              		.cfi_offset 7, -4
  41              		.loc 1 182 0
  42 0002 0346     		mov	r3, r0
  43              		.loc 1 196 0
  44 0004 6D22     		movs	r2, #109
  45 0006 80F82A20 		strb	r2, [r0, #42]
  46              		.loc 1 197 0
  47 000a 7327     		movs	r7, #115
  48              	.LBB13:
  49              	.LBB14:
  50              		.loc 1 92 0
  51 000c 0624     		movs	r4, #6
  52              		.loc 1 99 0
  53 000e 3222     		movs	r2, #50
  54              	.LBE14:
  55              	.LBE13:
  56              		.loc 1 202 0
  57 0010 084E     		ldr	r6, .L3
ARM GAS  C:\Users\jo\AppData\Local\Temp\ccLyNfpa.s 			page 2


  58              		.loc 1 203 0
  59 0012 094D     		ldr	r5, .L3+4
  60              		.loc 1 197 0
  61 0014 83F82B70 		strb	r7, [r3, #43]
  62              		.loc 1 195 0
  63 0018 0020     		movs	r0, #0
  64              	.LVL1:
  65              	.LBB17:
  66              	.LBB15:
  67              		.loc 1 95 0
  68 001a 40F2DC51 		movw	r1, #1500
  69              		.loc 1 92 0
  70 001e 83F82240 		strb	r4, [r3, #34]
  71              		.loc 1 99 0
  72 0022 83F82920 		strb	r2, [r3, #41]
  73              	.LBE15:
  74              	.LBE17:
  75              		.loc 1 202 0
  76 0026 5E61     		str	r6, [r3, #20]
  77              		.loc 1 203 0
  78 0028 9D61     		str	r5, [r3, #24]
  79              	.LVL2:
  80              	.LBB18:
  81              	.LBB16:
  82              		.loc 1 95 0
  83 002a 1984     		strh	r1, [r3, #32]	@ movhi
  84              	.LBE16:
  85              	.LBE18:
  86              		.loc 1 195 0
  87 002c D861     		str	r0, [r3, #28]
  88              		.loc 1 209 0
  89 002e F0BC     		pop	{r4, r5, r6, r7}
  90              		.cfi_restore 7
  91              		.cfi_restore 6
  92              		.cfi_restore 5
  93              		.cfi_restore 4
  94              		.cfi_def_cfa_offset 0
  95 0030 7047     		bx	lr
  96              	.L4:
  97 0032 00BF     		.align	2
  98              	.L3:
  99 0034 00000000 		.word	etharp_output
 100 0038 00000000 		.word	low_level_output
 101              		.cfi_endproc
 102              	.LFE260:
 103              		.size	ethernetif_init, .-ethernetif_init
 104 003c AFF30080 		.section	.text.low_level_output,"ax",%progbits
 105              		.align	2
 106              		.p2align 4,,15
 107              		.thumb
 108              		.thumb_func
 109              		.type	low_level_output, %function
 110              	low_level_output:
 111              	.LFB258:
 112              		.loc 1 107 0
 113              		.cfi_startproc
 114              		@ args = 0, pretend = 0, frame = 16
ARM GAS  C:\Users\jo\AppData\Local\Temp\ccLyNfpa.s 			page 3


 115              		@ frame_needed = 0, uses_anonymous_args = 0
 116              	.LVL3:
 117 0000 10B5     		push	{r4, lr}
 118              		.cfi_def_cfa_offset 8
 119              		.cfi_offset 4, -8
 120              		.cfi_offset 14, -4
 121 0002 84B0     		sub	sp, sp, #16
 122              		.cfi_def_cfa_offset 24
 123              		.loc 1 107 0
 124 0004 0C46     		mov	r4, r1
 125              		.loc 1 112 0
 126 0006 0E48     		ldr	r0, .L18
 127              	.LVL4:
 128 0008 01A9     		add	r1, sp, #4
 129              	.LVL5:
 130 000a 4FF4FA72 		mov	r2, #500
 131 000e FFF7FEFF 		bl	macWaitTransmitDescriptor
 132              	.LVL6:
 133 0012 98B9     		cbnz	r0, .L16
 134              	.LVL7:
 135              		.loc 1 120 0 discriminator 3
 136 0014 3CB1     		cbz	r4, .L17
 137              	.LVL8:
 138              	.L8:
 139              		.loc 1 121 0 discriminator 3
 140 0016 6168     		ldr	r1, [r4, #4]
 141 0018 6289     		ldrh	r2, [r4, #10]
 142 001a 01A8     		add	r0, sp, #4
 143 001c FFF7FEFF 		bl	mac_lld_write_transmit_descriptor
 144              	.LVL9:
 145              		.loc 1 120 0 discriminator 3
 146 0020 2468     		ldr	r4, [r4]
 147              	.LVL10:
 148 0022 002C     		cmp	r4, #0
 149 0024 F7D1     		bne	.L8
 150              	.L17:
 151              		.loc 1 122 0
 152 0026 01A8     		add	r0, sp, #4
 153 0028 FFF7FEFF 		bl	macReleaseTransmitDescriptor
 154              	.LVL11:
 155              		.loc 1 128 0
 156 002c 054A     		ldr	r2, .L18+4
 157 002e 1388     		ldrh	r3, [r2]
 158 0030 0133     		adds	r3, r3, #1
 159 0032 1380     		strh	r3, [r2]	@ movhi
 160              		.loc 1 130 0
 161 0034 0020     		movs	r0, #0
 162              	.LVL12:
 163              	.L6:
 164              		.loc 1 131 0
 165 0036 40B2     		sxtb	r0, r0
 166 0038 04B0     		add	sp, sp, #16
 167              		.cfi_remember_state
 168              		.cfi_def_cfa_offset 8
 169              		@ sp needed
 170 003a 10BD     		pop	{r4, pc}
 171              	.LVL13:
ARM GAS  C:\Users\jo\AppData\Local\Temp\ccLyNfpa.s 			page 4


 172              	.L16:
 173              		.cfi_restore_state
 174              		.loc 1 113 0
 175 003c FD20     		movs	r0, #253
 176 003e FAE7     		b	.L6
 177              	.L19:
 178              		.align	2
 179              	.L18:
 180 0040 00000000 		.word	ETHD1
 181 0044 00000000 		.word	lwip_stats
 182              		.cfi_endproc
 183              	.LFE258:
 184              		.size	low_level_output, .-low_level_output
 185 0048 AFF30080 		.section	.text.chprintf.constprop.1,"ax",%progbits
 185      AFF30080 
 186              		.align	2
 187              		.p2align 4,,15
 188              		.thumb
 189              		.thumb_func
 190              		.type	chprintf.constprop.1, %function
 191              	chprintf.constprop.1:
 192              	.LFB263:
 193              		.file 2 "../../../os/hal/lib/streams/chprintf.h"
 194              		.loc 2 69 0
 195              		.cfi_startproc
 196              		@ args = 4, pretend = 12, frame = 8
 197              		@ frame_needed = 0, uses_anonymous_args = 1
 198              	.LVL14:
 199 0000 0EB4     		push	{r1, r2, r3}
 200              		.cfi_def_cfa_offset 12
 201              		.cfi_offset 1, -12
 202              		.cfi_offset 2, -8
 203              		.cfi_offset 3, -4
 204 0002 00B5     		push	{lr}
 205              		.cfi_def_cfa_offset 16
 206              		.cfi_offset 14, -16
 207 0004 82B0     		sub	sp, sp, #8
 208              		.cfi_def_cfa_offset 24
 209              		.loc 2 69 0
 210 0006 03AA     		add	r2, sp, #12
 211              		.loc 2 74 0
 212 0008 0548     		ldr	r0, .L22
 213              	.LVL15:
 214              		.loc 2 69 0
 215 000a 52F8041B 		ldr	r1, [r2], #4
 216              		.loc 2 73 0
 217 000e 0192     		str	r2, [sp, #4]
 218              		.loc 2 74 0
 219 0010 FFF7FEFF 		bl	chvprintf
 220              	.LVL16:
 221              		.loc 2 78 0
 222 0014 02B0     		add	sp, sp, #8
 223              		.cfi_def_cfa_offset 16
 224              		@ sp needed
 225 0016 5DF804EB 		ldr	lr, [sp], #4
 226              		.cfi_restore 14
 227              		.cfi_def_cfa_offset 12
ARM GAS  C:\Users\jo\AppData\Local\Temp\ccLyNfpa.s 			page 5


 228 001a 03B0     		add	sp, sp, #12
 229              		.cfi_restore 3
 230              		.cfi_restore 2
 231              		.cfi_restore 1
 232              		.cfi_def_cfa_offset 0
 233 001c 7047     		bx	lr
 234              	.L23:
 235 001e 00BF     		.align	2
 236              	.L22:
 237 0020 00000000 		.word	itm_port
 238              		.cfi_endproc
 239              	.LFE263:
 240              		.size	chprintf.constprop.1, .-chprintf.constprop.1
 241 0024 AFF30080 		.section	.text.lwip_thread,"ax",%progbits
 241      AFF30080 
 241      AFF30080 
 242              		.align	2
 243              		.p2align 4,,15
 244              		.global	lwip_thread
 245              		.thumb
 246              		.thumb_func
 247              		.type	lwip_thread, %function
 248              	lwip_thread:
 249              	.LFB261:
 250              		.loc 1 217 0
 251              		.cfi_startproc
 252              		@ args = 0, pretend = 0, frame = 96
 253              		@ frame_needed = 0, uses_anonymous_args = 0
 254              	.LVL17:
 255 0000 F0B5     		push	{r4, r5, r6, r7, lr}
 256              		.cfi_def_cfa_offset 20
 257              		.cfi_offset 4, -20
 258              		.cfi_offset 5, -16
 259              		.cfi_offset 6, -12
 260              		.cfi_offset 7, -8
 261              		.cfi_offset 14, -4
 262              		.loc 1 224 0
 263 0002 724B     		ldr	r3, .L57
 264 0004 724A     		ldr	r2, .L57+4
 265 0006 9B69     		ldr	r3, [r3, #24]
 266              		.loc 1 217 0
 267 0008 0446     		mov	r4, r0
 268              		.loc 1 227 0
 269 000a 0020     		movs	r0, #0
 270              	.LVL18:
 271              		.loc 1 217 0
 272 000c 9DB0     		sub	sp, sp, #116
 273              		.cfi_def_cfa_offset 136
 274              		.loc 1 224 0
 275 000e 9A61     		str	r2, [r3, #24]
 276              		.loc 1 227 0
 277 0010 0146     		mov	r1, r0
 278 0012 FFF7FEFF 		bl	tcpip_init
 279              	.LVL19:
 280              		.loc 1 230 0
 281 0016 84B1     		cbz	r4, .L25
 282 0018 6E4A     		ldr	r2, .L57+8
ARM GAS  C:\Users\jo\AppData\Local\Temp\ccLyNfpa.s 			page 6


 283 001a 0023     		movs	r3, #0
 284              	.L26:
 285              	.LVL20:
 286              	.LBB30:
 287              		.loc 1 235 0 discriminator 3
 288 001c 2168     		ldr	r1, [r4]
 289 001e C95C     		ldrb	r1, [r1, r3]	@ zero_extendqisi2
 290 0020 02F8011F 		strb	r1, [r2, #1]!
 291              		.loc 1 234 0 discriminator 3
 292 0024 0133     		adds	r3, r3, #1
 293              	.LVL21:
 294 0026 062B     		cmp	r3, #6
 295 0028 F8D1     		bne	.L26
 296              		.loc 1 236 0
 297 002a 6168     		ldr	r1, [r4, #4]
 298              		.loc 1 237 0
 299 002c E268     		ldr	r2, [r4, #12]
 300              		.loc 1 238 0
 301 002e A368     		ldr	r3, [r4, #8]
 302              	.LVL22:
 303              		.loc 1 236 0
 304 0030 0591     		str	r1, [sp, #20]
 305              		.loc 1 237 0
 306 0032 0692     		str	r2, [sp, #24]
 307              		.loc 1 238 0
 308 0034 0793     		str	r3, [sp, #28]
 309 0036 684F     		ldr	r7, .L57+12
 310              	.LBE30:
 311 0038 1AE0     		b	.L27
 312              	.L25:
 313              		.loc 1 241 0
 314 003a 674F     		ldr	r7, .L57+12
 315              		.loc 1 247 0
 316 003c 674B     		ldr	r3, .L57+16
 317              		.loc 1 248 0
 318 003e 684A     		ldr	r2, .L57+20
 319              		.loc 1 247 0
 320 0040 0593     		str	r3, [sp, #20]
 321              		.loc 1 241 0
 322 0042 4FF0C20E 		mov	lr, #194
 323              		.loc 1 242 0
 324 0046 AF26     		movs	r6, #175
 325              		.loc 1 243 0
 326 0048 5125     		movs	r5, #81
 327              		.loc 1 244 0
 328 004a 0324     		movs	r4, #3
 329              	.LVL23:
 330              		.loc 1 245 0
 331 004c CF20     		movs	r0, #207
 332              		.loc 1 246 0
 333 004e 4621     		movs	r1, #70
 334              		.loc 1 249 0
 335 0050 6FF07F43 		mvn	r3, #-16777216
 336              		.loc 1 241 0
 337 0054 87F823E0 		strb	lr, [r7, #35]
 338              		.loc 1 242 0
 339 0058 87F82460 		strb	r6, [r7, #36]
ARM GAS  C:\Users\jo\AppData\Local\Temp\ccLyNfpa.s 			page 7


 340              		.loc 1 243 0
 341 005c 87F82550 		strb	r5, [r7, #37]
 342              		.loc 1 244 0
 343 0060 87F82640 		strb	r4, [r7, #38]
 344              		.loc 1 245 0
 345 0064 87F82700 		strb	r0, [r7, #39]
 346              		.loc 1 246 0
 347 0068 87F82810 		strb	r1, [r7, #40]
 348              		.loc 1 248 0
 349 006c 0692     		str	r2, [sp, #24]
 350              		.loc 1 249 0
 351 006e 0793     		str	r3, [sp, #28]
 352              	.L27:
 353              		.loc 1 251 0
 354 0070 5C4A     		ldr	r2, .L57+24
 355 0072 5D49     		ldr	r1, .L57+28
 356 0074 5D48     		ldr	r0, .L57+32
 357 0076 5E4E     		ldr	r6, .L57+36
 358 0078 FFF7FEFF 		bl	chprintf.constprop.1
 359              	.LVL24:
 360              		.loc 1 252 0
 361 007c 5D48     		ldr	r0, .L57+40
 362 007e 5E49     		ldr	r1, .L57+44
 363 0080 FFF7FEFF 		bl	macStart
 364              	.LVL25:
 365              		.loc 1 253 0
 366 0084 5849     		ldr	r1, .L57+28
 367 0086 5D4A     		ldr	r2, .L57+48
 368 0088 5848     		ldr	r0, .L57+32
 369 008a FFF7FEFF 		bl	chprintf.constprop.1
 370              	.LVL26:
 371              		.loc 1 254 0
 372 008e 5C4A     		ldr	r2, .L57+52
 373 0090 5C4B     		ldr	r3, .L57+56
 374 0092 5148     		ldr	r0, .L57+12
 375 0094 0021     		movs	r1, #0
 376 0096 8DE80E00 		stmia	sp, {r1, r2, r3}
 377 009a 07AA     		add	r2, sp, #28
 378 009c 06AB     		add	r3, sp, #24
 379 009e 05A9     		add	r1, sp, #20
 380 00a0 FFF7FEFF 		bl	netif_add
 381              	.LVL27:
 382              		.loc 1 256 0
 383 00a4 4C48     		ldr	r0, .L57+12
 384 00a6 FFF7FEFF 		bl	netif_set_default
 385              	.LVL28:
 386              		.loc 1 257 0
 387 00aa 4B48     		ldr	r0, .L57+12
 388 00ac FFF7FEFF 		bl	netif_set_up
 389              	.LVL29:
 390              		.loc 1 260 0
 391 00b0 15A8     		add	r0, sp, #84
 392 00b2 4CF25031 		movw	r1, #50000
 393 00b6 FFF7FEFF 		bl	evtObjectInit
 394              	.LVL30:
 395              		.loc 1 261 0
 396 00ba 15A8     		add	r0, sp, #84
ARM GAS  C:\Users\jo\AppData\Local\Temp\ccLyNfpa.s 			page 8


 397 00bc FFF7FEFF 		bl	evtStart
 398              	.LVL31:
 399              	.LBB31:
 400              	.LBB32:
 401              		.file 3 "../../../os/rt/include/chevents.h"
 402              		.loc 3 193 0
 403 00c0 1AA8     		add	r0, sp, #104
 404              	.LVL32:
 405 00c2 0BA9     		add	r1, sp, #44
 406              	.LVL33:
 407 00c4 0122     		movs	r2, #1
 408 00c6 4FF0FF33 		mov	r3, #-1
 409 00ca FFF7FEFF 		bl	chEvtRegisterMaskWithFlags
 410              	.LVL34:
 411              	.LBE32:
 412              	.LBE31:
 413              	.LBB33:
 414              	.LBB34:
 415 00ce 10A9     		add	r1, sp, #64
 416              	.LVL35:
 417 00d0 0222     		movs	r2, #2
 418 00d2 4FF0FF33 		mov	r3, #-1
 419 00d6 4C48     		ldr	r0, .L57+60
 420              	.LVL36:
 421 00d8 FFF7FEFF 		bl	chEvtRegisterMaskWithFlags
 422              	.LVL37:
 423              	.LBE34:
 424              	.LBE33:
 425              		.loc 1 264 0
 426 00dc 0320     		movs	r0, #3
 427 00de FFF7FEFF 		bl	chEvtAddEvents
 428              	.LVL38:
 429              		.loc 1 267 0
 430 00e2 0220     		movs	r0, #2
 431 00e4 FFF7FEFF 		bl	chThdSetPriority
 432              	.LVL39:
 433 00e8 01E0     		b	.L33
 434              	.LVL40:
 435              	.L29:
 436              	.LBB35:
 437              		.loc 1 283 0
 438 00ea A207     		lsls	r2, r4, #30
 439 00ec 1FD4     		bmi	.L50
 440              	.LVL41:
 441              	.L33:
 442              		.loc 1 270 0
 443 00ee 4FF0FF30 		mov	r0, #-1
 444 00f2 FFF7FEFF 		bl	chEvtWaitAny
 445              	.LVL42:
 446              		.loc 1 271 0
 447 00f6 C107     		lsls	r1, r0, #31
 448              		.loc 1 270 0
 449 00f8 0446     		mov	r4, r0
 450              	.LVL43:
 451              		.loc 1 271 0
 452 00fa F6D5     		bpl	.L29
 453              	.LBB36:
ARM GAS  C:\Users\jo\AppData\Local\Temp\ccLyNfpa.s 			page 9


 454              		.loc 1 272 0
 455 00fc 3D48     		ldr	r0, .L57+40
 456              	.LVL44:
 457 00fe FFF7FEFF 		bl	macPollLinkStatus
 458              	.LVL45:
 459              		.loc 1 273 0
 460 0102 0546     		mov	r5, r0
 461 0104 0028     		cmp	r0, #0
 462 0106 47D0     		beq	.L56
 463 0108 404A     		ldr	r2, .L57+64
 464 010a 3848     		ldr	r0, .L57+32
 465              	.LVL46:
 466 010c 4049     		ldr	r1, .L57+68
 467 010e FFF7FEFF 		bl	chprintf.constprop.1
 468              	.LVL47:
 469              		.loc 1 274 0
 470 0112 97F82930 		ldrb	r3, [r7, #41]	@ zero_extendqisi2
 471 0116 03F01003 		and	r3, r3, #16
 472 011a 03F0FF02 		and	r2, r3, #255
 473 011e 002B     		cmp	r3, #0
 474 0120 E3D1     		bne	.L29
 475              		.loc 1 276 0
 476 0122 3C48     		ldr	r0, .L57+72
 477 0124 2C49     		ldr	r1, .L57+12
 478 0126 FFF7FEFF 		bl	tcpip_callback_with_block
 479              	.LVL48:
 480              	.LBE36:
 481              		.loc 1 283 0
 482 012a A207     		lsls	r2, r4, #30
 483 012c DFD5     		bpl	.L33
 484              	.LVL49:
 485              	.L50:
 486              	.LBB37:
 487              	.LBB38:
 488              	.LBB39:
 489              		.loc 1 142 0
 490 012e 3148     		ldr	r0, .L57+40
 491 0130 08A9     		add	r1, sp, #32
 492 0132 0022     		movs	r2, #0
 493 0134 FFF7FEFF 		bl	macWaitReceiveDescriptor
 494              	.LVL50:
 495 0138 0028     		cmp	r0, #0
 496 013a D8D1     		bne	.L33
 497              	.LVL51:
 498              		.loc 1 150 0
 499 013c 0320     		movs	r0, #3
 500 013e 0246     		mov	r2, r0
 501 0140 BDF82410 		ldrh	r1, [sp, #36]
 502 0144 FFF7FEFF 		bl	pbuf_alloc
 503              	.LVL52:
 504              		.loc 1 152 0
 505 0148 0546     		mov	r5, r0
 506 014a 0028     		cmp	r0, #0
 507 014c 33D0     		beq	.L38
 508 014e 0446     		mov	r4, r0
 509              	.LVL53:
 510              	.L39:
ARM GAS  C:\Users\jo\AppData\Local\Temp\ccLyNfpa.s 			page 10


 511              		.loc 1 160 0
 512 0150 6168     		ldr	r1, [r4, #4]
 513 0152 6289     		ldrh	r2, [r4, #10]
 514 0154 08A8     		add	r0, sp, #32
 515 0156 FFF7FEFF 		bl	mac_lld_read_receive_descriptor
 516              	.LVL54:
 517              		.loc 1 159 0
 518 015a 2468     		ldr	r4, [r4]
 519              	.LVL55:
 520 015c 002C     		cmp	r4, #0
 521 015e F7D1     		bne	.L39
 522              		.loc 1 161 0
 523 0160 08A8     		add	r0, sp, #32
 524 0162 FFF7FEFF 		bl	macReleaseReceiveDescriptor
 525              	.LVL56:
 526              		.loc 1 167 0
 527 0166 7388     		ldrh	r3, [r6, #2]
 528              	.LBE39:
 529              	.LBE38:
 530              	.LBB42:
 531              		.loc 1 287 0
 532 0168 6A68     		ldr	r2, [r5, #4]
 533              	.LBE42:
 534              	.LBB43:
 535              	.LBB40:
 536              		.loc 1 167 0
 537 016a 0133     		adds	r3, r3, #1
 538 016c 7380     		strh	r3, [r6, #2]	@ movhi
 539              	.LVL57:
 540              	.LBE40:
 541              	.LBE43:
 542              	.LBB44:
 543              		.loc 1 287 0
 544 016e 9089     		ldrh	r0, [r2, #12]	@ unaligned
 545 0170 FFF7FEFF 		bl	lwip_htons
 546              	.LVL58:
 547 0174 B0F5006F 		cmp	r0, #2048
 548 0178 07D0     		beq	.L34
 549 017a 40F60603 		movw	r3, #2054
 550 017e 9842     		cmp	r0, r3
 551 0180 03D0     		beq	.L34
 552              	.L36:
 553              		.loc 1 301 0
 554 0182 2846     		mov	r0, r5
 555 0184 FFF7FEFF 		bl	pbuf_free
 556              	.LVL59:
 557 0188 D1E7     		b	.L50
 558              	.L34:
 559              		.loc 1 297 0
 560 018a 3B69     		ldr	r3, [r7, #16]
 561 018c 1249     		ldr	r1, .L57+12
 562 018e 2846     		mov	r0, r5
 563 0190 9847     		blx	r3
 564              	.LVL60:
 565 0192 0028     		cmp	r0, #0
 566 0194 CBD0     		beq	.L50
 567 0196 F4E7     		b	.L36
ARM GAS  C:\Users\jo\AppData\Local\Temp\ccLyNfpa.s 			page 11


 568              	.LVL61:
 569              	.L56:
 570              	.LBE44:
 571              	.LBE37:
 572              	.LBB46:
 573              		.loc 1 273 0
 574 0198 1448     		ldr	r0, .L57+32
 575              	.LVL62:
 576 019a 1D49     		ldr	r1, .L57+68
 577 019c 1E4A     		ldr	r2, .L57+76
 578 019e FFF7FEFF 		bl	chprintf.constprop.1
 579              	.LVL63:
 580              		.loc 1 274 0
 581 01a2 97F82930 		ldrb	r3, [r7, #41]	@ zero_extendqisi2
 582 01a6 DB06     		lsls	r3, r3, #27
 583 01a8 9FD5     		bpl	.L29
 584              		.loc 1 279 0
 585 01aa 2A46     		mov	r2, r5
 586 01ac 0A49     		ldr	r1, .L57+12
 587 01ae 1B48     		ldr	r0, .L57+80
 588 01b0 FFF7FEFF 		bl	tcpip_callback_with_block
 589              	.LVL64:
 590 01b4 99E7     		b	.L29
 591              	.LVL65:
 592              	.L38:
 593              	.LBE46:
 594              	.LBB47:
 595              	.LBB45:
 596              	.LBB41:
 597              		.loc 1 170 0
 598 01b6 08A8     		add	r0, sp, #32
 599              	.LVL66:
 600 01b8 FFF7FEFF 		bl	macReleaseReceiveDescriptor
 601              	.LVL67:
 602              		.loc 1 171 0
 603 01bc B289     		ldrh	r2, [r6, #12]
 604              		.loc 1 172 0
 605 01be F388     		ldrh	r3, [r6, #6]
 606              		.loc 1 171 0
 607 01c0 0132     		adds	r2, r2, #1
 608              		.loc 1 172 0
 609 01c2 0133     		adds	r3, r3, #1
 610              		.loc 1 171 0
 611 01c4 B281     		strh	r2, [r6, #12]	@ movhi
 612              		.loc 1 172 0
 613 01c6 F380     		strh	r3, [r6, #6]	@ movhi
 614 01c8 91E7     		b	.L33
 615              	.L58:
 616 01ca 00BF     		.align	2
 617              	.L57:
 618 01cc 00000000 		.word	ch
 619 01d0 00000000 		.word	.LC0
 620 01d4 22000000 		.word	.LANCHOR0+34
 621 01d8 00000000 		.word	.LANCHOR0
 622 01dc C0A8020A 		.word	167946432
 623 01e0 C0A80201 		.word	16951488
 624 01e4 10000000 		.word	.LC2
ARM GAS  C:\Users\jo\AppData\Local\Temp\ccLyNfpa.s 			page 12


 625 01e8 0C000000 		.word	.LC1
 626 01ec 00000000 		.word	itm_port
 627 01f0 00000000 		.word	lwip_stats
 628 01f4 00000000 		.word	ETHD1
 629 01f8 00000000 		.word	.LANCHOR1
 630 01fc 1C000000 		.word	.LC3
 631 0200 00000000 		.word	ethernetif_init
 632 0204 00000000 		.word	tcpip_input
 633 0208 18000000 		.word	ETHD1+24
 634 020c 44000000 		.word	.LC6
 635 0210 28000000 		.word	.LC4
 636 0214 00000000 		.word	netif_set_link_up
 637 0218 38000000 		.word	.LC5
 638 021c 00000000 		.word	netif_set_link_down
 639              	.LBE41:
 640              	.LBE45:
 641              	.LBE47:
 642              	.LBE35:
 643              		.cfi_endproc
 644              	.LFE261:
 645              		.size	lwip_thread, .-lwip_thread
 646              		.global	wa_lwip_thread
 647              		.section	.bss.thisif.8980,"aw",%nobits
 648              		.align	2
 649              		.set	.LANCHOR0,. + 0
 650              		.type	thisif.8980, %object
 651              		.size	thisif.8980, 48
 652              	thisif.8980:
 653 0000 00000000 		.space	48
 653      00000000 
 653      00000000 
 653      00000000 
 653      00000000 
 654              		.section	.bss.wa_lwip_thread,"aw",%nobits
 655              		.align	3
 656              		.type	wa_lwip_thread, %object
 657              		.size	wa_lwip_thread, 912
 658              	wa_lwip_thread:
 659 0000 00000000 		.space	912
 659      00000000 
 659      00000000 
 659      00000000 
 659      00000000 
 660              		.section	.rodata.str1.4,"aMS",%progbits,1
 661              		.align	2
 662              	.LC0:
 663 0000 6C776970 		.ascii	"lwipthread\000"
 663      74687265 
 663      616400
 664 000b 00       		.space	1
 665              	.LC1:
 666 000c 25730A00 		.ascii	"%s\012\000"
 667              	.LC2:
 668 0010 74637069 		.ascii	"tcpip_init\000"
 668      705F696E 
 668      697400
 669 001b 00       		.space	1
ARM GAS  C:\Users\jo\AppData\Local\Temp\ccLyNfpa.s 			page 13


 670              	.LC3:
 671 001c 4E494320 		.ascii	"NIC started\000"
 671      73746172 
 671      74656400 
 672              	.LC4:
 673 0028 6361626C 		.ascii	"cable is %s\012\000"
 673      65206973 
 673      2025730A 
 673      00
 674 0035 000000   		.space	3
 675              	.LC5:
 676 0038 6E6F7420 		.ascii	"not linked\000"
 676      6C696E6B 
 676      656400
 677 0043 00       		.space	1
 678              	.LC6:
 679 0044 6C696E6B 		.ascii	"linked\000"
 679      656400
 680 004b 00       		.section	.rodata.mac_config.8981,"a",%progbits
 681              		.align	2
 682              		.set	.LANCHOR1,. + 0
 683              		.type	mac_config.8981, %object
 684              		.size	mac_config.8981, 4
 685              	mac_config.8981:
 686 0000 23000000 		.word	thisif.8980+35
 687              		.text
 688              	.Letext0:
 689              		.file 4 "c:\\program files\\gnu tools arm embedded\\4.9 2014q4\\lib\\gcc\\arm-none-eabi\\4.9.3\\in
 690              		.file 5 "c:\\program files\\gnu tools arm embedded\\4.9 2014q4\\arm-none-eabi\\include\\machine\\_
 691              		.file 6 "c:\\program files\\gnu tools arm embedded\\4.9 2014q4\\arm-none-eabi\\include\\stdint.h"
 692              		.file 7 "../../../os/rt/ports/ARMCMx/compilers/GCC/chtypes.h"
 693              		.file 8 "../../../os/rt/include/chsystypes.h"
 694              		.file 9 "../../../os/rt/include/chschd.h"
 695              		.file 10 "../../../os/rt/ports/ARMCMx/chcore.h"
 696              		.file 11 "../../../os/rt/ports/ARMCMx/chcore_v7m.h"
 697              		.file 12 "c:\\program files\\gnu tools arm embedded\\4.9 2014q4\\lib\\gcc\\arm-none-eabi\\4.9.3\\i
 698              		.file 13 "<built-in>"
 699              		.file 14 "../../../os/rt/include/chtm.h"
 700              		.file 15 "../../../os/rt/include/chmtx.h"
 701              		.file 16 "../../../os/rt/include/chstreams.h"
 702              		.file 17 "../../../os/hal/include/mac.h"
 703              		.file 18 "../../../os/hal/ports/STM32/LLD/mac_lld.h"
 704              		.file 19 "../../../os/various/evtimer.h"
 705              		.file 20 "./ITM_trace.h"
 706              		.file 21 "../../../os/various/lwip_bindings/arch/cc.h"
 707              		.file 22 "../../../os/various/lwip_bindings/lwipthread.h"
 708              		.file 23 "../../../os/ext/lwip-1.4.1/src/include/lwip/mem.h"
 709              		.file 24 "../../../os/ext/lwip-1.4.1/src/include/lwip/err.h"
 710              		.file 25 "../../../os/ext/lwip-1.4.1/src/include/lwip/pbuf.h"
 711              		.file 26 "../../../os/ext/lwip-1.4.1/src/include/lwip/memp.h"
 712              		.file 27 "../../../os/ext/lwip-1.4.1/src/include/lwip/stats.h"
 713              		.file 28 "../../../os/ext/lwip-1.4.1/src/include/ipv4/lwip/ip_addr.h"
 714              		.file 29 "../../../os/ext/lwip-1.4.1/src/include/lwip/netif.h"
 715              		.file 30 "../../../os/ext/lwip-1.4.1/src/include/lwip/tcpip.h"
 716              		.file 31 "../../../os/ext/lwip-1.4.1/src/include/netif/etharp.h"
 717              		.file 32 "../../../os/ext/CMSIS/include/core_cm4.h"
 718              		.file 33 "../../../os/ext/lwip-1.4.1/src/include/lwip/def.h"
ARM GAS  C:\Users\jo\AppData\Local\Temp\ccLyNfpa.s 			page 14


 719              		.file 34 "../../../os/rt/include/chthreads.h"