ARM GAS  C:\Users\jo\AppData\Local\Temp\ccMscRHh.s 			page 1


   1              		.syntax unified
   2              		.cpu cortex-m4
   3              		.eabi_attribute 27, 3
   4              		.eabi_attribute 28, 1
   5              		.fpu fpv4-sp-d16
   6              		.eabi_attribute 20, 1
   7              		.eabi_attribute 21, 1
   8              		.eabi_attribute 23, 3
   9              		.eabi_attribute 24, 1
  10              		.eabi_attribute 25, 1
  11              		.eabi_attribute 26, 1
  12              		.eabi_attribute 30, 2
  13              		.eabi_attribute 34, 1
  14              		.eabi_attribute 18, 4
  15              		.thumb
  16              		.file	"mac.c"
  17              		.text
  18              	.Ltext0:
  19              		.cfi_sections	.debug_frame
  20              		.section	.text.macInit,"ax",%progbits
  21              		.align	2
  22              		.p2align 4,,15
  23              		.global	macInit
  24              		.thumb
  25              		.thumb_func
  26              		.type	macInit, %function
  27              	macInit:
  28              	.LFB255:
  29              		.file 1 "../../../os/hal/src/mac.c"
  30              		.loc 1 67 0
  31              		.cfi_startproc
  32              		@ args = 0, pretend = 0, frame = 0
  33              		@ frame_needed = 0, uses_anonymous_args = 0
  34              		@ link register save eliminated.
  35              		.loc 1 69 0
  36 0000 FFF7FEBF 		b	mac_lld_init
  37              	.LVL0:
  38              		.cfi_endproc
  39              	.LFE255:
  40              		.size	macInit, .-macInit
  41 0004 AFF30080 		.section	.text.macObjectInit,"ax",%progbits
  41      AFF30080 
  41      AFF30080 
  42              		.align	2
  43              		.p2align 4,,15
  44              		.global	macObjectInit
  45              		.thumb
  46              		.thumb_func
  47              		.type	macObjectInit, %function
  48              	macObjectInit:
  49              	.LFB256:
  50              		.loc 1 79 0
  51              		.cfi_startproc
  52              		@ args = 0, pretend = 0, frame = 0
  53              		@ frame_needed = 0, uses_anonymous_args = 0
  54              		@ link register save eliminated.
  55              	.LVL1:
ARM GAS  C:\Users\jo\AppData\Local\Temp\ccMscRHh.s 			page 2


  56 0000 30B4     		push	{r4, r5}
  57              		.cfi_def_cfa_offset 8
  58              		.cfi_offset 4, -8
  59              		.cfi_offset 5, -4
  60              		.loc 1 83 0
  61 0002 00F10802 		add	r2, r0, #8
  62              	.LVL2:
  63              		.loc 1 81 0
  64 0006 0125     		movs	r5, #1
  65              		.loc 1 82 0
  66 0008 0024     		movs	r4, #0
  67              		.loc 1 84 0
  68 000a 00F11003 		add	r3, r0, #16
  69              	.LVL3:
  70              		.loc 1 86 0
  71 000e 00F11801 		add	r1, r0, #24
  72              		.loc 1 81 0
  73 0012 0570     		strb	r5, [r0]
  74              		.loc 1 82 0
  75 0014 4460     		str	r4, [r0, #4]
  76              	.LBB151:
  77              	.LBB152:
  78              	.LBB153:
  79              		.file 2 "../../../os/rt/include/chevents.h"
  80              		.loc 2 172 0
  81 0016 8161     		str	r1, [r0, #24]
  82              	.LBE153:
  83              	.LBE152:
  84              	.LBE151:
  85              	.LBB154:
  86              	.LBB155:
  87              	.LBB156:
  88              	.LBB157:
  89              		.file 3 "../../../os/rt/include/chschd.h"
  90              		.loc 3 574 0
  91 0018 C260     		str	r2, [r0, #12]
  92 001a 8260     		str	r2, [r0, #8]
  93              	.LBE157:
  94              	.LBE156:
  95              	.LBE155:
  96              	.LBE154:
  97              	.LBB158:
  98              	.LBB159:
  99              	.LBB160:
 100              	.LBB161:
 101 001c 4361     		str	r3, [r0, #20]
 102 001e 0361     		str	r3, [r0, #16]
 103              	.LVL4:
 104              	.LBE161:
 105              	.LBE160:
 106              	.LBE159:
 107              	.LBE158:
 108              		.loc 1 88 0
 109 0020 30BC     		pop	{r4, r5}
 110              		.cfi_restore 5
 111              		.cfi_restore 4
 112              		.cfi_def_cfa_offset 0
ARM GAS  C:\Users\jo\AppData\Local\Temp\ccMscRHh.s 			page 3


 113 0022 7047     		bx	lr
 114              		.cfi_endproc
 115              	.LFE256:
 116              		.size	macObjectInit, .-macObjectInit
 117 0024 AFF30080 		.section	.text.macStart,"ax",%progbits
 117      AFF30080 
 117      AFF30080 
 118              		.align	2
 119              		.p2align 4,,15
 120              		.global	macStart
 121              		.thumb
 122              		.thumb_func
 123              		.type	macStart, %function
 124              	macStart:
 125              	.LFB257:
 126              		.loc 1 98 0
 127              		.cfi_startproc
 128              		@ args = 0, pretend = 0, frame = 0
 129              		@ frame_needed = 0, uses_anonymous_args = 0
 130              	.LVL5:
 131 0000 10B5     		push	{r4, lr}
 132              		.cfi_def_cfa_offset 8
 133              		.cfi_offset 4, -8
 134              		.cfi_offset 14, -4
 135              	.LBB162:
 136              	.LBB163:
 137              	.LBB164:
 138              	.LBB165:
 139              	.LBB166:
 140              		.file 4 "../../../os/ext/CMSIS/include/core_cmFunc.h"
 141              		.loc 4 546 0
 142 0002 2023     		movs	r3, #32
 143              	.LBE166:
 144              	.LBE165:
 145              	.LBE164:
 146              	.LBE163:
 147              	.LBE162:
 148              		.loc 1 98 0
 149 0004 0446     		mov	r4, r0
 150              	.LBB171:
 151              	.LBB170:
 152              	.LBB169:
 153              	.LBB168:
 154              	.LBB167:
 155              		.loc 4 546 0
 156              	@ 546 "../../../os/ext/CMSIS/include/core_cmFunc.h" 1
 157 0006 83F31188 		MSR basepri, r3
 158              	@ 0 "" 2
 159              		.thumb
 160              	.LBE167:
 161              	.LBE168:
 162              	.LBE169:
 163              	.LBE170:
 164              	.LBE171:
 165              		.loc 1 105 0
 166 000a 4160     		str	r1, [r0, #4]
 167              		.loc 1 106 0
ARM GAS  C:\Users\jo\AppData\Local\Temp\ccMscRHh.s 			page 4


 168 000c FFF7FEFF 		bl	mac_lld_start
 169              	.LVL6:
 170              		.loc 1 107 0
 171 0010 0223     		movs	r3, #2
 172 0012 2370     		strb	r3, [r4]
 173              	.LVL7:
 174              	.LBB172:
 175              	.LBB173:
 176              	.LBB174:
 177              	.LBB175:
 178              	.LBB176:
 179              	.LBB177:
 180              		.loc 4 546 0
 181 0014 0023     		movs	r3, #0
 182              	@ 546 "../../../os/ext/CMSIS/include/core_cmFunc.h" 1
 183 0016 83F31188 		MSR basepri, r3
 184              	@ 0 "" 2
 185              		.thumb
 186 001a 10BD     		pop	{r4, pc}
 187              	.LBE177:
 188              	.LBE176:
 189              	.LBE175:
 190              	.LBE174:
 191              	.LBE173:
 192              	.LBE172:
 193              		.cfi_endproc
 194              	.LFE257:
 195              		.size	macStart, .-macStart
 196 001c AFF30080 		.section	.text.macStop,"ax",%progbits
 197              		.align	2
 198              		.p2align 4,,15
 199              		.global	macStop
 200              		.thumb
 201              		.thumb_func
 202              		.type	macStop, %function
 203              	macStop:
 204              	.LFB258:
 205              		.loc 1 118 0
 206              		.cfi_startproc
 207              		@ args = 0, pretend = 0, frame = 0
 208              		@ frame_needed = 0, uses_anonymous_args = 0
 209              	.LVL8:
 210 0000 10B5     		push	{r4, lr}
 211              		.cfi_def_cfa_offset 8
 212              		.cfi_offset 4, -8
 213              		.cfi_offset 14, -4
 214              	.LBB178:
 215              	.LBB179:
 216              	.LBB180:
 217              	.LBB181:
 218              	.LBB182:
 219              		.loc 4 546 0
 220 0002 2023     		movs	r3, #32
 221              	.LBE182:
 222              	.LBE181:
 223              	.LBE180:
 224              	.LBE179:
ARM GAS  C:\Users\jo\AppData\Local\Temp\ccMscRHh.s 			page 5


 225              	.LBE178:
 226              		.loc 1 118 0
 227 0004 0446     		mov	r4, r0
 228              	.LBB187:
 229              	.LBB186:
 230              	.LBB185:
 231              	.LBB184:
 232              	.LBB183:
 233              		.loc 4 546 0
 234              	@ 546 "../../../os/ext/CMSIS/include/core_cmFunc.h" 1
 235 0006 83F31188 		MSR basepri, r3
 236              	@ 0 "" 2
 237              		.thumb
 238              	.LBE183:
 239              	.LBE184:
 240              	.LBE185:
 241              	.LBE186:
 242              	.LBE187:
 243              		.loc 1 125 0
 244 000a FFF7FEFF 		bl	mac_lld_stop
 245              	.LVL9:
 246              		.loc 1 126 0
 247 000e 0123     		movs	r3, #1
 248 0010 2370     		strb	r3, [r4]
 249              	.LVL10:
 250              	.LBB188:
 251              	.LBB189:
 252              	.LBB190:
 253              	.LBB191:
 254              	.LBB192:
 255              	.LBB193:
 256              		.loc 4 546 0
 257 0012 0023     		movs	r3, #0
 258              	@ 546 "../../../os/ext/CMSIS/include/core_cmFunc.h" 1
 259 0014 83F31188 		MSR basepri, r3
 260              	@ 0 "" 2
 261              		.thumb
 262 0018 10BD     		pop	{r4, pc}
 263              	.LBE193:
 264              	.LBE192:
 265              	.LBE191:
 266              	.LBE190:
 267              	.LBE189:
 268              	.LBE188:
 269              		.cfi_endproc
 270              	.LFE258:
 271              		.size	macStop, .-macStop
 272 001a 00BFAFF3 		.section	.text.macWaitTransmitDescriptor,"ax",%progbits
 272      0080
 273              		.align	2
 274              		.p2align 4,,15
 275              		.global	macWaitTransmitDescriptor
 276              		.thumb
 277              		.thumb_func
 278              		.type	macWaitTransmitDescriptor, %function
 279              	macWaitTransmitDescriptor:
 280              	.LFB259:
ARM GAS  C:\Users\jo\AppData\Local\Temp\ccMscRHh.s 			page 6


 281              		.loc 1 151 0
 282              		.cfi_startproc
 283              		@ args = 0, pretend = 0, frame = 0
 284              		@ frame_needed = 0, uses_anonymous_args = 0
 285              	.LVL11:
 286 0000 2DE9F047 		push	{r4, r5, r6, r7, r8, r9, r10, lr}
 287              		.cfi_def_cfa_offset 32
 288              		.cfi_offset 4, -32
 289              		.cfi_offset 5, -28
 290              		.cfi_offset 6, -24
 291              		.cfi_offset 7, -20
 292              		.cfi_offset 8, -16
 293              		.cfi_offset 9, -12
 294              		.cfi_offset 10, -8
 295              		.cfi_offset 14, -4
 296              		.loc 1 151 0
 297 0004 0646     		mov	r6, r0
 298 0006 0F46     		mov	r7, r1
 299 0008 1446     		mov	r4, r2
 300              		.loc 1 162 0
 301 000a 00F10809 		add	r9, r0, #8
 302              	.LBB194:
 303              	.LBB195:
 304              	.LBB196:
 305              	.LBB197:
 306              	.LBB198:
 307              		.loc 4 546 0
 308 000e 4FF02008 		mov	r8, #32
 309              	.LBE198:
 310              	.LBE197:
 311              	.LBE196:
 312              	.LBE195:
 313              	.LBE194:
 314              	.LBB203:
 315              	.LBB204:
 316              	.LBB205:
 317              	.LBB206:
 318              	.LBB207:
 319              		.file 5 "../../../os/hal/ports/STM32/LLD/TIMv1/st_lld.h"
 320              		.loc 5 128 0
 321 0012 4FF08045 		mov	r5, #1073741824
 322              	.LBE207:
 323              	.LBE206:
 324              	.LBE205:
 325              	.LBE204:
 326              	.LBE203:
 327 0016 13E0     		b	.L9
 328              	.LVL12:
 329              	.L23:
 330              		.loc 1 158 0 discriminator 1
 331 0018 C4B1     		cbz	r4, .L11
 332              	.LBB212:
 333              	.LBB202:
 334              	.LBB201:
 335              	.LBB200:
 336              	.LBB199:
 337              		.loc 4 546 0
ARM GAS  C:\Users\jo\AppData\Local\Temp\ccMscRHh.s 			page 7


 338              	@ 546 "../../../os/ext/CMSIS/include/core_cmFunc.h" 1
 339 001a 88F31188 		MSR basepri, r8
 340              	@ 0 "" 2
 341              		.thumb
 342              	.LBE199:
 343              	.LBE200:
 344              	.LBE201:
 345              	.LBE202:
 346              	.LBE212:
 347              	.LBB213:
 348              	.LBB214:
 349              		.file 6 "../../../os/hal/osal/rt/osal.h"
 350              		.loc 6 716 0
 351 001e 4846     		mov	r0, r9
 352              	.LVL13:
 353 0020 2146     		mov	r1, r4
 354              	.LBE214:
 355              	.LBE213:
 356              	.LBB216:
 357              	.LBB211:
 358              	.LBB210:
 359              	.LBB209:
 360              	.LBB208:
 361              		.loc 5 128 0
 362 0022 D5F824A0 		ldr	r10, [r5, #36]
 363              	.LVL14:
 364              	.LBE208:
 365              	.LBE209:
 366              	.LBE210:
 367              	.LBE211:
 368              	.LBE216:
 369              	.LBB217:
 370              	.LBB215:
 371              		.loc 6 716 0
 372 0026 FFF7FEFF 		bl	chThdEnqueueTimeoutS
 373              	.LVL15:
 374              	.LBE215:
 375              	.LBE217:
 376              		.loc 1 163 0
 377 002a 421C     		adds	r2, r0, #1
 378 002c 10D0     		beq	.L22
 379              		.loc 1 167 0
 380 002e 631C     		adds	r3, r4, #1
 381 0030 03D0     		beq	.L12
 382              	.LBB218:
 383              	.LBB219:
 384              	.LBB220:
 385              	.LBB221:
 386              	.LBB222:
 387              		.loc 5 128 0
 388 0032 6B6A     		ldr	r3, [r5, #36]
 389              	.LBE222:
 390              	.LBE221:
 391              	.LBE220:
 392              	.LBE219:
 393              	.LBE218:
 394              		.loc 1 168 0
ARM GAS  C:\Users\jo\AppData\Local\Temp\ccMscRHh.s 			page 8


 395 0034 CAEB0303 		rsb	r3, r10, r3
 396 0038 E41A     		subs	r4, r4, r3
 397              	.LVL16:
 398              	.L12:
 399              	.LBB223:
 400              	.LBB224:
 401              	.LBB225:
 402              	.LBB226:
 403              	.LBB227:
 404              	.LBB228:
 405              		.loc 4 546 0
 406 003a 0023     		movs	r3, #0
 407              	@ 546 "../../../os/ext/CMSIS/include/core_cmFunc.h" 1
 408 003c 83F31188 		MSR basepri, r3
 409              	@ 0 "" 2
 410              	.LVL17:
 411              		.thumb
 412              	.L9:
 413              	.LBE228:
 414              	.LBE227:
 415              	.LBE226:
 416              	.LBE225:
 417              	.LBE224:
 418              	.LBE223:
 419              		.loc 1 158 0
 420 0040 3046     		mov	r0, r6
 421 0042 3946     		mov	r1, r7
 422 0044 FFF7FEFF 		bl	mac_lld_get_transmit_descriptor
 423              	.LVL18:
 424 0048 0028     		cmp	r0, #0
 425 004a E5D1     		bne	.L23
 426              	.L11:
 427              		.loc 1 172 0
 428 004c BDE8F087 		pop	{r4, r5, r6, r7, r8, r9, r10, pc}
 429              	.LVL19:
 430              	.L22:
 431              	.LBB229:
 432              	.LBB230:
 433              	.LBB231:
 434              	.LBB232:
 435              	.LBB233:
 436              	.LBB234:
 437              		.loc 4 546 0
 438 0050 0023     		movs	r3, #0
 439              	@ 546 "../../../os/ext/CMSIS/include/core_cmFunc.h" 1
 440 0052 83F31188 		MSR basepri, r3
 441              	@ 0 "" 2
 442              		.thumb
 443 0056 BDE8F087 		pop	{r4, r5, r6, r7, r8, r9, r10, pc}
 444              	.LBE234:
 445              	.LBE233:
 446              	.LBE232:
 447              	.LBE231:
 448              	.LBE230:
 449              	.LBE229:
 450              		.cfi_endproc
 451              	.LFE259:
ARM GAS  C:\Users\jo\AppData\Local\Temp\ccMscRHh.s 			page 9


 452              		.size	macWaitTransmitDescriptor, .-macWaitTransmitDescriptor
 453              		.section	.text.macReleaseTransmitDescriptor,"ax",%progbits
 454              		.align	2
 455              		.p2align 4,,15
 456              		.global	macReleaseTransmitDescriptor
 457              		.thumb
 458              		.thumb_func
 459              		.type	macReleaseTransmitDescriptor, %function
 460              	macReleaseTransmitDescriptor:
 461              	.LFB260:
 462              		.loc 1 182 0
 463              		.cfi_startproc
 464              		@ args = 0, pretend = 0, frame = 0
 465              		@ frame_needed = 0, uses_anonymous_args = 0
 466              		@ link register save eliminated.
 467              	.LVL20:
 468              		.loc 1 186 0
 469 0000 FFF7FEBF 		b	mac_lld_release_transmit_descriptor
 470              	.LVL21:
 471              		.cfi_endproc
 472              	.LFE260:
 473              		.size	macReleaseTransmitDescriptor, .-macReleaseTransmitDescriptor
 474 0004 AFF30080 		.section	.text.macWaitReceiveDescriptor,"ax",%progbits
 474      AFF30080 
 474      AFF30080 
 475              		.align	2
 476              		.p2align 4,,15
 477              		.global	macWaitReceiveDescriptor
 478              		.thumb
 479              		.thumb_func
 480              		.type	macWaitReceiveDescriptor, %function
 481              	macWaitReceiveDescriptor:
 482              	.LFB261:
 483              		.loc 1 210 0
 484              		.cfi_startproc
 485              		@ args = 0, pretend = 0, frame = 0
 486              		@ frame_needed = 0, uses_anonymous_args = 0
 487              	.LVL22:
 488 0000 2DE9F047 		push	{r4, r5, r6, r7, r8, r9, r10, lr}
 489              		.cfi_def_cfa_offset 32
 490              		.cfi_offset 4, -32
 491              		.cfi_offset 5, -28
 492              		.cfi_offset 6, -24
 493              		.cfi_offset 7, -20
 494              		.cfi_offset 8, -16
 495              		.cfi_offset 9, -12
 496              		.cfi_offset 10, -8
 497              		.cfi_offset 14, -4
 498              		.loc 1 210 0
 499 0004 0646     		mov	r6, r0
 500 0006 0F46     		mov	r7, r1
 501 0008 1446     		mov	r4, r2
 502              		.loc 1 221 0
 503 000a 00F11009 		add	r9, r0, #16
 504              	.LBB235:
 505              	.LBB236:
 506              	.LBB237:
ARM GAS  C:\Users\jo\AppData\Local\Temp\ccMscRHh.s 			page 10


 507              	.LBB238:
 508              	.LBB239:
 509              		.loc 4 546 0
 510 000e 4FF02008 		mov	r8, #32
 511              	.LBE239:
 512              	.LBE238:
 513              	.LBE237:
 514              	.LBE236:
 515              	.LBE235:
 516              	.LBB244:
 517              	.LBB245:
 518              	.LBB246:
 519              	.LBB247:
 520              	.LBB248:
 521              		.loc 5 128 0
 522 0012 4FF08045 		mov	r5, #1073741824
 523              	.LBE248:
 524              	.LBE247:
 525              	.LBE246:
 526              	.LBE245:
 527              	.LBE244:
 528 0016 13E0     		b	.L26
 529              	.LVL23:
 530              	.L39:
 531              		.loc 1 217 0 discriminator 1
 532 0018 C4B1     		cbz	r4, .L28
 533              	.LBB253:
 534              	.LBB243:
 535              	.LBB242:
 536              	.LBB241:
 537              	.LBB240:
 538              		.loc 4 546 0
 539              	@ 546 "../../../os/ext/CMSIS/include/core_cmFunc.h" 1
 540 001a 88F31188 		MSR basepri, r8
 541              	@ 0 "" 2
 542              		.thumb
 543              	.LBE240:
 544              	.LBE241:
 545              	.LBE242:
 546              	.LBE243:
 547              	.LBE253:
 548              	.LBB254:
 549              	.LBB255:
 550              		.loc 6 716 0
 551 001e 4846     		mov	r0, r9
 552              	.LVL24:
 553 0020 2146     		mov	r1, r4
 554              	.LBE255:
 555              	.LBE254:
 556              	.LBB257:
 557              	.LBB252:
 558              	.LBB251:
 559              	.LBB250:
 560              	.LBB249:
 561              		.loc 5 128 0
 562 0022 D5F824A0 		ldr	r10, [r5, #36]
 563              	.LVL25:
ARM GAS  C:\Users\jo\AppData\Local\Temp\ccMscRHh.s 			page 11


 564              	.LBE249:
 565              	.LBE250:
 566              	.LBE251:
 567              	.LBE252:
 568              	.LBE257:
 569              	.LBB258:
 570              	.LBB256:
 571              		.loc 6 716 0
 572 0026 FFF7FEFF 		bl	chThdEnqueueTimeoutS
 573              	.LVL26:
 574              	.LBE256:
 575              	.LBE258:
 576              		.loc 1 222 0
 577 002a 421C     		adds	r2, r0, #1
 578 002c 10D0     		beq	.L38
 579              		.loc 1 226 0
 580 002e 631C     		adds	r3, r4, #1
 581 0030 03D0     		beq	.L29
 582              	.LBB259:
 583              	.LBB260:
 584              	.LBB261:
 585              	.LBB262:
 586              	.LBB263:
 587              		.loc 5 128 0
 588 0032 6B6A     		ldr	r3, [r5, #36]
 589              	.LBE263:
 590              	.LBE262:
 591              	.LBE261:
 592              	.LBE260:
 593              	.LBE259:
 594              		.loc 1 227 0
 595 0034 CAEB0303 		rsb	r3, r10, r3
 596 0038 E41A     		subs	r4, r4, r3
 597              	.LVL27:
 598              	.L29:
 599              	.LBB264:
 600              	.LBB265:
 601              	.LBB266:
 602              	.LBB267:
 603              	.LBB268:
 604              	.LBB269:
 605              		.loc 4 546 0
 606 003a 0023     		movs	r3, #0
 607              	@ 546 "../../../os/ext/CMSIS/include/core_cmFunc.h" 1
 608 003c 83F31188 		MSR basepri, r3
 609              	@ 0 "" 2
 610              	.LVL28:
 611              		.thumb
 612              	.L26:
 613              	.LBE269:
 614              	.LBE268:
 615              	.LBE267:
 616              	.LBE266:
 617              	.LBE265:
 618              	.LBE264:
 619              		.loc 1 217 0
 620 0040 3046     		mov	r0, r6
ARM GAS  C:\Users\jo\AppData\Local\Temp\ccMscRHh.s 			page 12


 621 0042 3946     		mov	r1, r7
 622 0044 FFF7FEFF 		bl	mac_lld_get_receive_descriptor
 623              	.LVL29:
 624 0048 0028     		cmp	r0, #0
 625 004a E5D1     		bne	.L39
 626              	.L28:
 627              		.loc 1 231 0
 628 004c BDE8F087 		pop	{r4, r5, r6, r7, r8, r9, r10, pc}
 629              	.LVL30:
 630              	.L38:
 631              	.LBB270:
 632              	.LBB271:
 633              	.LBB272:
 634              	.LBB273:
 635              	.LBB274:
 636              	.LBB275:
 637              		.loc 4 546 0
 638 0050 0023     		movs	r3, #0
 639              	@ 546 "../../../os/ext/CMSIS/include/core_cmFunc.h" 1
 640 0052 83F31188 		MSR basepri, r3
 641              	@ 0 "" 2
 642              		.thumb
 643 0056 BDE8F087 		pop	{r4, r5, r6, r7, r8, r9, r10, pc}
 644              	.LBE275:
 645              	.LBE274:
 646              	.LBE273:
 647              	.LBE272:
 648              	.LBE271:
 649              	.LBE270:
 650              		.cfi_endproc
 651              	.LFE261:
 652              		.size	macWaitReceiveDescriptor, .-macWaitReceiveDescriptor
 653 005a 00BFAFF3 		.section	.text.macReleaseReceiveDescriptor,"ax",%progbits
 653      0080
 654              		.align	2
 655              		.p2align 4,,15
 656              		.global	macReleaseReceiveDescriptor
 657              		.thumb
 658              		.thumb_func
 659              		.type	macReleaseReceiveDescriptor, %function
 660              	macReleaseReceiveDescriptor:
 661              	.LFB262:
 662              		.loc 1 242 0
 663              		.cfi_startproc
 664              		@ args = 0, pretend = 0, frame = 0
 665              		@ frame_needed = 0, uses_anonymous_args = 0
 666              		@ link register save eliminated.
 667              	.LVL31:
 668              		.loc 1 246 0
 669 0000 FFF7FEBF 		b	mac_lld_release_receive_descriptor
 670              	.LVL32:
 671              		.cfi_endproc
 672              	.LFE262:
 673              		.size	macReleaseReceiveDescriptor, .-macReleaseReceiveDescriptor
 674 0004 AFF30080 		.section	.text.macPollLinkStatus,"ax",%progbits
 674      AFF30080 
 674      AFF30080 
ARM GAS  C:\Users\jo\AppData\Local\Temp\ccMscRHh.s 			page 13


 675              		.align	2
 676              		.p2align 4,,15
 677              		.global	macPollLinkStatus
 678              		.thumb
 679              		.thumb_func
 680              		.type	macPollLinkStatus, %function
 681              	macPollLinkStatus:
 682              	.LFB263:
 683              		.loc 1 259 0
 684              		.cfi_startproc
 685              		@ args = 0, pretend = 0, frame = 0
 686              		@ frame_needed = 0, uses_anonymous_args = 0
 687              		@ link register save eliminated.
 688              	.LVL33:
 689              		.loc 1 264 0
 690 0000 FFF7FEBF 		b	mac_lld_poll_link_status
 691              	.LVL34:
 692              		.cfi_endproc
 693              	.LFE263:
 694              		.size	macPollLinkStatus, .-macPollLinkStatus
 695 0004 AFF30080 		.text
 695      AFF30080 
 695      AFF30080 
 696              	.Letext0:
 697              		.file 7 "c:\\program files\\gnu tools arm embedded\\4.9 2014q4\\lib\\gcc\\arm-none-eabi\\4.9.3\\in
 698              		.file 8 "c:\\program files\\gnu tools arm embedded\\4.9 2014q4\\arm-none-eabi\\include\\machine\\_
 699              		.file 9 "c:\\program files\\gnu tools arm embedded\\4.9 2014q4\\arm-none-eabi\\include\\stdint.h"
 700              		.file 10 "../../../os/rt/ports/ARMCMx/compilers/GCC/chtypes.h"
 701              		.file 11 "../../../os/rt/include/chsystypes.h"
 702              		.file 12 "../../../os/rt/ports/ARMCMx/chcore.h"
 703              		.file 13 "../../../os/rt/ports/ARMCMx/chcore_v7m.h"
 704              		.file 14 "../../../os/hal/ports/STM32/LLD/TIMv1/stm32_tim.h"
 705              		.file 15 "../../../os/rt/include/chtm.h"
 706              		.file 16 "../../../os/rt/include/chmtx.h"
 707              		.file 17 "../../../os/hal/include/mac.h"
 708              		.file 18 "../../../os/hal/ports/STM32/LLD/mac_lld.h"
 709              		.file 19 "../../../os/rt/ports/ARMCMx/chcore_timer.h"
 710              		.file 20 "../../../os/rt/include/chsys.h"
 711              		.file 21 "../../../os/rt/include/chvt.h"
 712              		.file 22 "../../../os/rt/include/chthreads.h"
 713              		.file 23 "../../../os/ext/CMSIS/include/core_cm4.h"
 714              		.section	.debug_info,"",%progbits
 715              	.Ldebug_info0:
 716 0000 4F150000 		.4byte	0x154f
 717 0004 0400     		.2byte	0x4
 718 0006 00000000 		.4byte	.Ldebug_abbrev0
 719 000a 04       		.byte	0x4
 720 000b 01       		.uleb128 0x1
 721 000c 86040000 		.4byte	.LASF184
 722 0010 01       		.byte	0x1
 723 0011 8F090000 		.4byte	.LASF185
 724 0015 2A070000 		.4byte	.LASF186
 725 0019 C0000000 		.4byte	.Ldebug_ranges0+0xc0
 726 001d 00000000 		.4byte	0
 727 0021 00000000 		.4byte	.Ldebug_line0
 728 0025 02       		.uleb128 0x2
 729 0026 04       		.byte	0x4
ARM GAS  C:\Users\jo\AppData\Local\Temp\ccMscRHh.s 			page 14


 730 0027 05       		.byte	0x5
 731 0028 696E7400 		.ascii	"int\000"
 732 002c 03       		.uleb128 0x3
 733 002d 1B000000 		.4byte	.LASF2
 734 0031 07       		.byte	0x7
 735 0032 D4       		.byte	0xd4
 736 0033 37000000 		.4byte	0x37
 737 0037 04       		.uleb128 0x4
 738 0038 04       		.byte	0x4
 739 0039 07       		.byte	0x7
 740 003a 82020000 		.4byte	.LASF0
 741 003e 04       		.uleb128 0x4
 742 003f 01       		.byte	0x1
 743 0040 06       		.byte	0x6
 744 0041 29010000 		.4byte	.LASF1
 745 0045 03       		.uleb128 0x3
 746 0046 3B000000 		.4byte	.LASF3
 747 004a 08       		.byte	0x8
 748 004b 1D       		.byte	0x1d
 749 004c 50000000 		.4byte	0x50
 750 0050 04       		.uleb128 0x4
 751 0051 01       		.byte	0x1
 752 0052 08       		.byte	0x8
 753 0053 19060000 		.4byte	.LASF4
 754 0057 04       		.uleb128 0x4
 755 0058 02       		.byte	0x2
 756 0059 05       		.byte	0x5
 757 005a 4E060000 		.4byte	.LASF5
 758 005e 04       		.uleb128 0x4
 759 005f 02       		.byte	0x2
 760 0060 07       		.byte	0x7
 761 0061 04010000 		.4byte	.LASF6
 762 0065 03       		.uleb128 0x3
 763 0066 83030000 		.4byte	.LASF7
 764 006a 08       		.byte	0x8
 765 006b 3F       		.byte	0x3f
 766 006c 70000000 		.4byte	0x70
 767 0070 04       		.uleb128 0x4
 768 0071 04       		.byte	0x4
 769 0072 05       		.byte	0x5
 770 0073 8E010000 		.4byte	.LASF8
 771 0077 03       		.uleb128 0x3
 772 0078 C9070000 		.4byte	.LASF9
 773 007c 08       		.byte	0x8
 774 007d 41       		.byte	0x41
 775 007e 82000000 		.4byte	0x82
 776 0082 04       		.uleb128 0x4
 777 0083 04       		.byte	0x4
 778 0084 07       		.byte	0x7
 779 0085 0C070000 		.4byte	.LASF10
 780 0089 04       		.uleb128 0x4
 781 008a 08       		.byte	0x8
 782 008b 05       		.byte	0x5
 783 008c 21020000 		.4byte	.LASF11
 784 0090 03       		.uleb128 0x3
 785 0091 A9050000 		.4byte	.LASF12
 786 0095 08       		.byte	0x8
ARM GAS  C:\Users\jo\AppData\Local\Temp\ccMscRHh.s 			page 15


 787 0096 5B       		.byte	0x5b
 788 0097 9B000000 		.4byte	0x9b
 789 009b 04       		.uleb128 0x4
 790 009c 08       		.byte	0x8
 791 009d 07       		.byte	0x7
 792 009e 9C000000 		.4byte	.LASF13
 793 00a2 03       		.uleb128 0x3
 794 00a3 F6080000 		.4byte	.LASF14
 795 00a7 09       		.byte	0x9
 796 00a8 15       		.byte	0x15
 797 00a9 45000000 		.4byte	0x45
 798 00ad 03       		.uleb128 0x3
 799 00ae 11060000 		.4byte	.LASF15
 800 00b2 09       		.byte	0x9
 801 00b3 2C       		.byte	0x2c
 802 00b4 65000000 		.4byte	0x65
 803 00b8 03       		.uleb128 0x3
 804 00b9 EB060000 		.4byte	.LASF16
 805 00bd 09       		.byte	0x9
 806 00be 2D       		.byte	0x2d
 807 00bf 77000000 		.4byte	0x77
 808 00c3 03       		.uleb128 0x3
 809 00c4 3F040000 		.4byte	.LASF17
 810 00c8 09       		.byte	0x9
 811 00c9 39       		.byte	0x39
 812 00ca 90000000 		.4byte	0x90
 813 00ce 05       		.uleb128 0x5
 814 00cf AD000000 		.4byte	0xad
 815 00d3 05       		.uleb128 0x5
 816 00d4 B8000000 		.4byte	0xb8
 817 00d8 03       		.uleb128 0x3
 818 00d9 45080000 		.4byte	.LASF18
 819 00dd 0A       		.byte	0xa
 820 00de 45       		.byte	0x45
 821 00df B8000000 		.4byte	0xb8
 822 00e3 03       		.uleb128 0x3
 823 00e4 87090000 		.4byte	.LASF19
 824 00e8 0A       		.byte	0xa
 825 00e9 48       		.byte	0x48
 826 00ea A2000000 		.4byte	0xa2
 827 00ee 03       		.uleb128 0x3
 828 00ef B8010000 		.4byte	.LASF20
 829 00f3 0A       		.byte	0xa
 830 00f4 49       		.byte	0x49
 831 00f5 A2000000 		.4byte	0xa2
 832 00f9 03       		.uleb128 0x3
 833 00fa B4050000 		.4byte	.LASF21
 834 00fe 0A       		.byte	0xa
 835 00ff 4A       		.byte	0x4a
 836 0100 A2000000 		.4byte	0xa2
 837 0104 03       		.uleb128 0x3
 838 0105 ED050000 		.4byte	.LASF22
 839 0109 0A       		.byte	0xa
 840 010a 4C       		.byte	0x4c
 841 010b B8000000 		.4byte	0xb8
 842 010f 03       		.uleb128 0x3
 843 0110 31030000 		.4byte	.LASF23
ARM GAS  C:\Users\jo\AppData\Local\Temp\ccMscRHh.s 			page 16


 844 0114 0A       		.byte	0xa
 845 0115 4D       		.byte	0x4d
 846 0116 AD000000 		.4byte	0xad
 847 011a 03       		.uleb128 0x3
 848 011b 77030000 		.4byte	.LASF24
 849 011f 0A       		.byte	0xa
 850 0120 4F       		.byte	0x4f
 851 0121 B8000000 		.4byte	0xb8
 852 0125 03       		.uleb128 0x3
 853 0126 24030000 		.4byte	.LASF25
 854 012a 0A       		.byte	0xa
 855 012b 50       		.byte	0x50
 856 012c B8000000 		.4byte	0xb8
 857 0130 03       		.uleb128 0x3
 858 0131 AB070000 		.4byte	.LASF26
 859 0135 0B       		.byte	0xb
 860 0136 33       		.byte	0x33
 861 0137 B8000000 		.4byte	0xb8
 862 013b 03       		.uleb128 0x3
 863 013c 96070000 		.4byte	.LASF27
 864 0140 0B       		.byte	0xb
 865 0141 3F       		.byte	0x3f
 866 0142 46010000 		.4byte	0x146
 867 0146 06       		.uleb128 0x6
 868 0147 04030000 		.4byte	.LASF46
 869 014b 44       		.byte	0x44
 870 014c 03       		.byte	0x3
 871 014d BE       		.byte	0xbe
 872 014e 33020000 		.4byte	0x233
 873 0152 07       		.uleb128 0x7
 874 0153 79060000 		.4byte	.LASF28
 875 0157 03       		.byte	0x3
 876 0158 BF       		.byte	0xbf
 877 0159 61070000 		.4byte	0x761
 878 015d 00       		.byte	0
 879 015e 07       		.uleb128 0x7
 880 015f E0050000 		.4byte	.LASF29
 881 0163 03       		.byte	0x3
 882 0164 C1       		.byte	0xc1
 883 0165 61070000 		.4byte	0x761
 884 0169 04       		.byte	0x4
 885 016a 07       		.uleb128 0x7
 886 016b FD000000 		.4byte	.LASF30
 887 016f 03       		.byte	0x3
 888 0170 C3       		.byte	0xc3
 889 0171 04010000 		.4byte	0x104
 890 0175 08       		.byte	0x8
 891 0176 07       		.uleb128 0x7
 892 0177 56040000 		.4byte	.LASF31
 893 017b 03       		.byte	0x3
 894 017c C4       		.byte	0xc4
 895 017d 7D040000 		.4byte	0x47d
 896 0181 0C       		.byte	0xc
 897 0182 07       		.uleb128 0x7
 898 0183 C1010000 		.4byte	.LASF32
 899 0187 03       		.byte	0x3
 900 0188 C6       		.byte	0xc6
ARM GAS  C:\Users\jo\AppData\Local\Temp\ccMscRHh.s 			page 17


 901 0189 61070000 		.4byte	0x761
 902 018d 10       		.byte	0x10
 903 018e 07       		.uleb128 0x7
 904 018f 48040000 		.4byte	.LASF33
 905 0193 03       		.byte	0x3
 906 0194 C7       		.byte	0xc7
 907 0195 61070000 		.4byte	0x761
 908 0199 14       		.byte	0x14
 909 019a 07       		.uleb128 0x7
 910 019b 49090000 		.4byte	.LASF34
 911 019f 03       		.byte	0x3
 912 01a0 CE       		.byte	0xce
 913 01a1 06070000 		.4byte	0x706
 914 01a5 18       		.byte	0x18
 915 01a6 07       		.uleb128 0x7
 916 01a7 58060000 		.4byte	.LASF35
 917 01ab 03       		.byte	0x3
 918 01ac D9       		.byte	0xd9
 919 01ad EE000000 		.4byte	0xee
 920 01b1 1C       		.byte	0x1c
 921 01b2 07       		.uleb128 0x7
 922 01b3 80060000 		.4byte	.LASF36
 923 01b7 03       		.byte	0x3
 924 01b8 DD       		.byte	0xdd
 925 01b9 E3000000 		.4byte	0xe3
 926 01bd 1D       		.byte	0x1d
 927 01be 07       		.uleb128 0x7
 928 01bf 6D040000 		.4byte	.LASF37
 929 01c3 03       		.byte	0x3
 930 01c4 E2       		.byte	0xe2
 931 01c5 F9000000 		.4byte	0xf9
 932 01c9 1E       		.byte	0x1e
 933 01ca 08       		.uleb128 0x8
 934 01cb 705F7500 		.ascii	"p_u\000"
 935 01cf 03       		.byte	0x3
 936 01d0 1401     		.2byte	0x114
 937 01d2 67070000 		.4byte	0x767
 938 01d6 20       		.byte	0x20
 939 01d7 09       		.uleb128 0x9
 940 01d8 D7030000 		.4byte	.LASF38
 941 01dc 03       		.byte	0x3
 942 01dd 1901     		.2byte	0x119
 943 01df 33020000 		.4byte	0x233
 944 01e3 24       		.byte	0x24
 945 01e4 09       		.uleb128 0x9
 946 01e5 CC020000 		.4byte	.LASF39
 947 01e9 03       		.byte	0x3
 948 01ea 1F01     		.2byte	0x11f
 949 01ec 57020000 		.4byte	0x257
 950 01f0 28       		.byte	0x28
 951 01f1 09       		.uleb128 0x9
 952 01f2 B5090000 		.4byte	.LASF40
 953 01f6 03       		.byte	0x3
 954 01f7 2301     		.2byte	0x123
 955 01f9 0F010000 		.4byte	0x10f
 956 01fd 30       		.byte	0x30
 957 01fe 09       		.uleb128 0x9
ARM GAS  C:\Users\jo\AppData\Local\Temp\ccMscRHh.s 			page 18


 958 01ff CD060000 		.4byte	.LASF41
 959 0203 03       		.byte	0x3
 960 0204 2901     		.2byte	0x129
 961 0206 1A010000 		.4byte	0x11a
 962 020a 34       		.byte	0x34
 963 020b 09       		.uleb128 0x9
 964 020c 44060000 		.4byte	.LASF42
 965 0210 03       		.byte	0x3
 966 0211 3001     		.2byte	0x130
 967 0213 D0070000 		.4byte	0x7d0
 968 0217 38       		.byte	0x38
 969 0218 09       		.uleb128 0x9
 970 0219 B5070000 		.4byte	.LASF43
 971 021d 03       		.byte	0x3
 972 021e 3401     		.2byte	0x134
 973 0220 04010000 		.4byte	0x104
 974 0224 3C       		.byte	0x3c
 975 0225 09       		.uleb128 0x9
 976 0226 FC010000 		.4byte	.LASF44
 977 022a 03       		.byte	0x3
 978 022b 3A01     		.2byte	0x13a
 979 022d 0A030000 		.4byte	0x30a
 980 0231 40       		.byte	0x40
 981 0232 00       		.byte	0
 982 0233 03       		.uleb128 0x3
 983 0234 63090000 		.4byte	.LASF45
 984 0238 0B       		.byte	0xb
 985 0239 44       		.byte	0x44
 986 023a 3E020000 		.4byte	0x23e
 987 023e 06       		.uleb128 0x6
 988 023f FC060000 		.4byte	.LASF47
 989 0243 04       		.byte	0x4
 990 0244 03       		.byte	0x3
 991 0245 AC       		.byte	0xac
 992 0246 57020000 		.4byte	0x257
 993 024a 07       		.uleb128 0x7
 994 024b 79060000 		.4byte	.LASF28
 995 024f 03       		.byte	0x3
 996 0250 AD       		.byte	0xad
 997 0251 61070000 		.4byte	0x761
 998 0255 00       		.byte	0
 999 0256 00       		.byte	0
 1000 0257 03       		.uleb128 0x3
 1001 0258 B4080000 		.4byte	.LASF48
 1002 025c 0B       		.byte	0xb
 1003 025d 4B       		.byte	0x4b
 1004 025e 62020000 		.4byte	0x262
 1005 0262 06       		.uleb128 0x6
 1006 0263 EC000000 		.4byte	.LASF49
 1007 0267 08       		.byte	0x8
 1008 0268 03       		.byte	0x3
 1009 0269 B3       		.byte	0xb3
 1010 026a 87020000 		.4byte	0x287
 1011 026e 07       		.uleb128 0x7
 1012 026f 79060000 		.4byte	.LASF28
 1013 0273 03       		.byte	0x3
 1014 0274 B4       		.byte	0xb4
ARM GAS  C:\Users\jo\AppData\Local\Temp\ccMscRHh.s 			page 19


 1015 0275 61070000 		.4byte	0x761
 1016 0279 00       		.byte	0
 1017 027a 07       		.uleb128 0x7
 1018 027b E0050000 		.4byte	.LASF29
 1019 027f 03       		.byte	0x3
 1020 0280 B5       		.byte	0xb5
 1021 0281 61070000 		.4byte	0x761
 1022 0285 04       		.byte	0x4
 1023 0286 00       		.byte	0
 1024 0287 03       		.uleb128 0x3
 1025 0288 09000000 		.4byte	.LASF50
 1026 028c 0B       		.byte	0xb
 1027 028d 52       		.byte	0x52
 1028 028e 92020000 		.4byte	0x292
 1029 0292 0A       		.uleb128 0xa
 1030 0293 69030000 		.4byte	.LASF51
 1031 0297 1C       		.byte	0x1c
 1032 0298 03       		.byte	0x3
 1033 0299 7201     		.2byte	0x172
 1034 029b EE020000 		.4byte	0x2ee
 1035 029f 09       		.uleb128 0x9
 1036 02a0 F4060000 		.4byte	.LASF52
 1037 02a4 03       		.byte	0x3
 1038 02a5 7301     		.2byte	0x173
 1039 02a7 57020000 		.4byte	0x257
 1040 02ab 00       		.byte	0
 1041 02ac 09       		.uleb128 0x9
 1042 02ad 65060000 		.4byte	.LASF53
 1043 02b1 03       		.byte	0x3
 1044 02b2 7401     		.2byte	0x174
 1045 02b4 04010000 		.4byte	0x104
 1046 02b8 08       		.byte	0x8
 1047 02b9 09       		.uleb128 0x9
 1048 02ba 50040000 		.4byte	.LASF54
 1049 02be 03       		.byte	0x3
 1050 02bf 7601     		.2byte	0x176
 1051 02c1 7D040000 		.4byte	0x47d
 1052 02c5 0C       		.byte	0xc
 1053 02c6 09       		.uleb128 0x9
 1054 02c7 F4010000 		.4byte	.LASF55
 1055 02cb 03       		.byte	0x3
 1056 02cc 7901     		.2byte	0x179
 1057 02ce 61070000 		.4byte	0x761
 1058 02d2 10       		.byte	0x10
 1059 02d3 09       		.uleb128 0x9
 1060 02d4 7E040000 		.4byte	.LASF56
 1061 02d8 03       		.byte	0x3
 1062 02d9 7A01     		.2byte	0x17a
 1063 02db 61070000 		.4byte	0x761
 1064 02df 14       		.byte	0x14
 1065 02e0 09       		.uleb128 0x9
 1066 02e1 74040000 		.4byte	.LASF57
 1067 02e5 03       		.byte	0x3
 1068 02e6 7D01     		.2byte	0x17d
 1069 02e8 61070000 		.4byte	0x761
 1070 02ec 18       		.byte	0x18
 1071 02ed 00       		.byte	0
ARM GAS  C:\Users\jo\AppData\Local\Temp\ccMscRHh.s 			page 20


 1072 02ee 03       		.uleb128 0x3
 1073 02ef C0070000 		.4byte	.LASF58
 1074 02f3 0B       		.byte	0xb
 1075 02f4 57       		.byte	0x57
 1076 02f5 F9020000 		.4byte	0x2f9
 1077 02f9 0B       		.uleb128 0xb
 1078 02fa 04       		.byte	0x4
 1079 02fb FF020000 		.4byte	0x2ff
 1080 02ff 0C       		.uleb128 0xc
 1081 0300 0A030000 		.4byte	0x30a
 1082 0304 0D       		.uleb128 0xd
 1083 0305 0A030000 		.4byte	0x30a
 1084 0309 00       		.byte	0
 1085 030a 0E       		.uleb128 0xe
 1086 030b 04       		.byte	0x4
 1087 030c 03       		.uleb128 0x3
 1088 030d D0050000 		.4byte	.LASF59
 1089 0311 0B       		.byte	0xb
 1090 0312 5C       		.byte	0x5c
 1091 0313 17030000 		.4byte	0x317
 1092 0317 0A       		.uleb128 0xa
 1093 0318 B7060000 		.4byte	.LASF60
 1094 031c 14       		.byte	0x14
 1095 031d 03       		.byte	0x3
 1096 031e 4D01     		.2byte	0x14d
 1097 0320 66030000 		.4byte	0x366
 1098 0324 09       		.uleb128 0x9
 1099 0325 8F020000 		.4byte	.LASF61
 1100 0329 03       		.byte	0x3
 1101 032a 4E01     		.2byte	0x14e
 1102 032c D6070000 		.4byte	0x7d6
 1103 0330 00       		.byte	0
 1104 0331 09       		.uleb128 0x9
 1105 0332 0D020000 		.4byte	.LASF62
 1106 0336 03       		.byte	0x3
 1107 0337 4F01     		.2byte	0x14f
 1108 0339 D6070000 		.4byte	0x7d6
 1109 033d 04       		.byte	0x4
 1110 033e 09       		.uleb128 0x9
 1111 033f C3020000 		.4byte	.LASF63
 1112 0343 03       		.byte	0x3
 1113 0344 5001     		.2byte	0x150
 1114 0346 30010000 		.4byte	0x130
 1115 034a 08       		.byte	0x8
 1116 034b 09       		.uleb128 0x9
 1117 034c D3090000 		.4byte	.LASF64
 1118 0350 03       		.byte	0x3
 1119 0351 5101     		.2byte	0x151
 1120 0353 EE020000 		.4byte	0x2ee
 1121 0357 0C       		.byte	0xc
 1122 0358 09       		.uleb128 0x9
 1123 0359 52080000 		.4byte	.LASF65
 1124 035d 03       		.byte	0x3
 1125 035e 5301     		.2byte	0x153
 1126 0360 0A030000 		.4byte	0x30a
 1127 0364 10       		.byte	0x10
 1128 0365 00       		.byte	0
ARM GAS  C:\Users\jo\AppData\Local\Temp\ccMscRHh.s 			page 21


 1129 0366 03       		.uleb128 0x3
 1130 0367 C4000000 		.4byte	.LASF66
 1131 036b 0B       		.byte	0xb
 1132 036c 61       		.byte	0x61
 1133 036d 71030000 		.4byte	0x371
 1134 0371 0A       		.uleb128 0xa
 1135 0372 0E040000 		.4byte	.LASF67
 1136 0376 10       		.byte	0x10
 1137 0377 03       		.byte	0x3
 1138 0378 5D01     		.2byte	0x15d
 1139 037a B3030000 		.4byte	0x3b3
 1140 037e 09       		.uleb128 0x9
 1141 037f 8F020000 		.4byte	.LASF61
 1142 0383 03       		.byte	0x3
 1143 0384 5E01     		.2byte	0x15e
 1144 0386 D6070000 		.4byte	0x7d6
 1145 038a 00       		.byte	0
 1146 038b 09       		.uleb128 0x9
 1147 038c 0D020000 		.4byte	.LASF62
 1148 0390 03       		.byte	0x3
 1149 0391 6001     		.2byte	0x160
 1150 0393 D6070000 		.4byte	0x7d6
 1151 0397 04       		.byte	0x4
 1152 0398 09       		.uleb128 0x9
 1153 0399 C3020000 		.4byte	.LASF63
 1154 039d 03       		.byte	0x3
 1155 039e 6201     		.2byte	0x162
 1156 03a0 30010000 		.4byte	0x130
 1157 03a4 08       		.byte	0x8
 1158 03a5 09       		.uleb128 0x9
 1159 03a6 33040000 		.4byte	.LASF68
 1160 03aa 03       		.byte	0x3
 1161 03ab 6A01     		.2byte	0x16a
 1162 03ad 30010000 		.4byte	0x130
 1163 03b1 0C       		.byte	0xc
 1164 03b2 00       		.byte	0
 1165 03b3 03       		.uleb128 0x3
 1166 03b4 78000000 		.4byte	.LASF69
 1167 03b8 0B       		.byte	0xb
 1168 03b9 66       		.byte	0x66
 1169 03ba BE030000 		.4byte	0x3be
 1170 03be 0A       		.uleb128 0xa
 1171 03bf FB050000 		.4byte	.LASF70
 1172 03c3 04       		.byte	0x4
 1173 03c4 03       		.byte	0x3
 1174 03c5 8401     		.2byte	0x184
 1175 03c7 D9030000 		.4byte	0x3d9
 1176 03cb 09       		.uleb128 0x9
 1177 03cc FE070000 		.4byte	.LASF71
 1178 03d0 03       		.byte	0x3
 1179 03d1 8C01     		.2byte	0x18c
 1180 03d3 DC070000 		.4byte	0x7dc
 1181 03d7 00       		.byte	0
 1182 03d8 00       		.byte	0
 1183 03d9 03       		.uleb128 0x3
 1184 03da 4B030000 		.4byte	.LASF72
 1185 03de 0B       		.byte	0xb
ARM GAS  C:\Users\jo\AppData\Local\Temp\ccMscRHh.s 			page 22


 1186 03df 6B       		.byte	0x6b
 1187 03e0 E4030000 		.4byte	0x3e4
 1188 03e4 0F       		.uleb128 0xf
 1189 03e5 84010000 		.4byte	.LASF73
 1190 03e9 D801     		.2byte	0x1d8
 1191 03eb 03       		.byte	0x3
 1192 03ec A401     		.2byte	0x1a4
 1193 03ee 40040000 		.4byte	0x440
 1194 03f2 09       		.uleb128 0x9
 1195 03f3 E6080000 		.4byte	.LASF74
 1196 03f7 03       		.byte	0x3
 1197 03f8 A801     		.2byte	0x1a8
 1198 03fa 87020000 		.4byte	0x287
 1199 03fe 00       		.byte	0
 1200 03ff 09       		.uleb128 0x9
 1201 0400 6B010000 		.4byte	.LASF75
 1202 0404 03       		.byte	0x3
 1203 0405 AC01     		.2byte	0x1ac
 1204 0407 66030000 		.4byte	0x366
 1205 040b 1C       		.byte	0x1c
 1206 040c 08       		.uleb128 0x8
 1207 040d 64626700 		.ascii	"dbg\000"
 1208 0411 03       		.byte	0x3
 1209 0412 B001     		.2byte	0x1b0
 1210 0414 B3030000 		.4byte	0x3b3
 1211 0418 2C       		.byte	0x2c
 1212 0419 09       		.uleb128 0x9
 1213 041a 19030000 		.4byte	.LASF76
 1214 041e 03       		.byte	0x3
 1215 041f B401     		.2byte	0x1b4
 1216 0421 3B010000 		.4byte	0x13b
 1217 0425 30       		.byte	0x30
 1218 0426 08       		.uleb128 0x8
 1219 0427 746D00   		.ascii	"tm\000"
 1220 042a 03       		.byte	0x3
 1221 042b B901     		.2byte	0x1b9
 1222 042d 56070000 		.4byte	0x756
 1223 0431 74       		.byte	0x74
 1224 0432 09       		.uleb128 0x9
 1225 0433 44020000 		.4byte	.LASF77
 1226 0437 03       		.byte	0x3
 1227 0438 C501     		.2byte	0x1c5
 1228 043a E1070000 		.4byte	0x7e1
 1229 043e 78       		.byte	0x78
 1230 043f 00       		.byte	0
 1231 0440 04       		.uleb128 0x4
 1232 0441 04       		.byte	0x4
 1233 0442 07       		.byte	0x7
 1234 0443 E1030000 		.4byte	.LASF78
 1235 0447 10       		.uleb128 0x10
 1236 0448 B8000000 		.4byte	0xb8
 1237 044c 57040000 		.4byte	0x457
 1238 0450 11       		.uleb128 0x11
 1239 0451 40040000 		.4byte	0x440
 1240 0455 01       		.byte	0x1
 1241 0456 00       		.byte	0
 1242 0457 10       		.uleb128 0x10
ARM GAS  C:\Users\jo\AppData\Local\Temp\ccMscRHh.s 			page 23


 1243 0458 B8000000 		.4byte	0xb8
 1244 045c 67040000 		.4byte	0x467
 1245 0460 11       		.uleb128 0x11
 1246 0461 40040000 		.4byte	0x440
 1247 0465 03       		.byte	0x3
 1248 0466 00       		.byte	0
 1249 0467 03       		.uleb128 0x3
 1250 0468 04020000 		.4byte	.LASF79
 1251 046c 0C       		.byte	0xc
 1252 046d 85       		.byte	0x85
 1253 046e 0A030000 		.4byte	0x30a
 1254 0472 03       		.uleb128 0x3
 1255 0473 8D030000 		.4byte	.LASF80
 1256 0477 0C       		.byte	0xc
 1257 0478 8D       		.byte	0x8d
 1258 0479 C3000000 		.4byte	0xc3
 1259 047d 06       		.uleb128 0x6
 1260 047e 0F080000 		.4byte	.LASF81
 1261 0482 04       		.byte	0x4
 1262 0483 0C       		.byte	0xc
 1263 0484 A9       		.byte	0xa9
 1264 0485 96040000 		.4byte	0x496
 1265 0489 12       		.uleb128 0x12
 1266 048a 72313300 		.ascii	"r13\000"
 1267 048e 0C       		.byte	0xc
 1268 048f AA       		.byte	0xaa
 1269 0490 D7050000 		.4byte	0x5d7
 1270 0494 00       		.byte	0
 1271 0495 00       		.byte	0
 1272 0496 06       		.uleb128 0x6
 1273 0497 4F000000 		.4byte	.LASF82
 1274 049b 64       		.byte	0x64
 1275 049c 0D       		.byte	0xd
 1276 049d F4       		.byte	0xf4
 1277 049e D7050000 		.4byte	0x5d7
 1278 04a2 12       		.uleb128 0x12
 1279 04a3 73313600 		.ascii	"s16\000"
 1280 04a7 0D       		.byte	0xd
 1281 04a8 F6       		.byte	0xf6
 1282 04a9 67040000 		.4byte	0x467
 1283 04ad 00       		.byte	0
 1284 04ae 12       		.uleb128 0x12
 1285 04af 73313700 		.ascii	"s17\000"
 1286 04b3 0D       		.byte	0xd
 1287 04b4 F7       		.byte	0xf7
 1288 04b5 67040000 		.4byte	0x467
 1289 04b9 04       		.byte	0x4
 1290 04ba 12       		.uleb128 0x12
 1291 04bb 73313800 		.ascii	"s18\000"
 1292 04bf 0D       		.byte	0xd
 1293 04c0 F8       		.byte	0xf8
 1294 04c1 67040000 		.4byte	0x467
 1295 04c5 08       		.byte	0x8
 1296 04c6 12       		.uleb128 0x12
 1297 04c7 73313900 		.ascii	"s19\000"
 1298 04cb 0D       		.byte	0xd
 1299 04cc F9       		.byte	0xf9
ARM GAS  C:\Users\jo\AppData\Local\Temp\ccMscRHh.s 			page 24


 1300 04cd 67040000 		.4byte	0x467
 1301 04d1 0C       		.byte	0xc
 1302 04d2 12       		.uleb128 0x12
 1303 04d3 73323000 		.ascii	"s20\000"
 1304 04d7 0D       		.byte	0xd
 1305 04d8 FA       		.byte	0xfa
 1306 04d9 67040000 		.4byte	0x467
 1307 04dd 10       		.byte	0x10
 1308 04de 12       		.uleb128 0x12
 1309 04df 73323100 		.ascii	"s21\000"
 1310 04e3 0D       		.byte	0xd
 1311 04e4 FB       		.byte	0xfb
 1312 04e5 67040000 		.4byte	0x467
 1313 04e9 14       		.byte	0x14
 1314 04ea 12       		.uleb128 0x12
 1315 04eb 73323200 		.ascii	"s22\000"
 1316 04ef 0D       		.byte	0xd
 1317 04f0 FC       		.byte	0xfc
 1318 04f1 67040000 		.4byte	0x467
 1319 04f5 18       		.byte	0x18
 1320 04f6 12       		.uleb128 0x12
 1321 04f7 73323300 		.ascii	"s23\000"
 1322 04fb 0D       		.byte	0xd
 1323 04fc FD       		.byte	0xfd
 1324 04fd 67040000 		.4byte	0x467
 1325 0501 1C       		.byte	0x1c
 1326 0502 12       		.uleb128 0x12
 1327 0503 73323400 		.ascii	"s24\000"
 1328 0507 0D       		.byte	0xd
 1329 0508 FE       		.byte	0xfe
 1330 0509 67040000 		.4byte	0x467
 1331 050d 20       		.byte	0x20
 1332 050e 12       		.uleb128 0x12
 1333 050f 73323500 		.ascii	"s25\000"
 1334 0513 0D       		.byte	0xd
 1335 0514 FF       		.byte	0xff
 1336 0515 67040000 		.4byte	0x467
 1337 0519 24       		.byte	0x24
 1338 051a 08       		.uleb128 0x8
 1339 051b 73323600 		.ascii	"s26\000"
 1340 051f 0D       		.byte	0xd
 1341 0520 0001     		.2byte	0x100
 1342 0522 67040000 		.4byte	0x467
 1343 0526 28       		.byte	0x28
 1344 0527 08       		.uleb128 0x8
 1345 0528 73323700 		.ascii	"s27\000"
 1346 052c 0D       		.byte	0xd
 1347 052d 0101     		.2byte	0x101
 1348 052f 67040000 		.4byte	0x467
 1349 0533 2C       		.byte	0x2c
 1350 0534 08       		.uleb128 0x8
 1351 0535 73323800 		.ascii	"s28\000"
 1352 0539 0D       		.byte	0xd
 1353 053a 0201     		.2byte	0x102
 1354 053c 67040000 		.4byte	0x467
 1355 0540 30       		.byte	0x30
 1356 0541 08       		.uleb128 0x8
ARM GAS  C:\Users\jo\AppData\Local\Temp\ccMscRHh.s 			page 25


 1357 0542 73323900 		.ascii	"s29\000"
 1358 0546 0D       		.byte	0xd
 1359 0547 0301     		.2byte	0x103
 1360 0549 67040000 		.4byte	0x467
 1361 054d 34       		.byte	0x34
 1362 054e 08       		.uleb128 0x8
 1363 054f 73333000 		.ascii	"s30\000"
 1364 0553 0D       		.byte	0xd
 1365 0554 0401     		.2byte	0x104
 1366 0556 67040000 		.4byte	0x467
 1367 055a 38       		.byte	0x38
 1368 055b 08       		.uleb128 0x8
 1369 055c 73333100 		.ascii	"s31\000"
 1370 0560 0D       		.byte	0xd
 1371 0561 0501     		.2byte	0x105
 1372 0563 67040000 		.4byte	0x467
 1373 0567 3C       		.byte	0x3c
 1374 0568 08       		.uleb128 0x8
 1375 0569 723400   		.ascii	"r4\000"
 1376 056c 0D       		.byte	0xd
 1377 056d 0701     		.2byte	0x107
 1378 056f 67040000 		.4byte	0x467
 1379 0573 40       		.byte	0x40
 1380 0574 08       		.uleb128 0x8
 1381 0575 723500   		.ascii	"r5\000"
 1382 0578 0D       		.byte	0xd
 1383 0579 0801     		.2byte	0x108
 1384 057b 67040000 		.4byte	0x467
 1385 057f 44       		.byte	0x44
 1386 0580 08       		.uleb128 0x8
 1387 0581 723600   		.ascii	"r6\000"
 1388 0584 0D       		.byte	0xd
 1389 0585 0901     		.2byte	0x109
 1390 0587 67040000 		.4byte	0x467
 1391 058b 48       		.byte	0x48
 1392 058c 08       		.uleb128 0x8
 1393 058d 723700   		.ascii	"r7\000"
 1394 0590 0D       		.byte	0xd
 1395 0591 0A01     		.2byte	0x10a
 1396 0593 67040000 		.4byte	0x467
 1397 0597 4C       		.byte	0x4c
 1398 0598 08       		.uleb128 0x8
 1399 0599 723800   		.ascii	"r8\000"
 1400 059c 0D       		.byte	0xd
 1401 059d 0B01     		.2byte	0x10b
 1402 059f 67040000 		.4byte	0x467
 1403 05a3 50       		.byte	0x50
 1404 05a4 08       		.uleb128 0x8
 1405 05a5 723900   		.ascii	"r9\000"
 1406 05a8 0D       		.byte	0xd
 1407 05a9 0C01     		.2byte	0x10c
 1408 05ab 67040000 		.4byte	0x467
 1409 05af 54       		.byte	0x54
 1410 05b0 08       		.uleb128 0x8
 1411 05b1 72313000 		.ascii	"r10\000"
 1412 05b5 0D       		.byte	0xd
 1413 05b6 0D01     		.2byte	0x10d
ARM GAS  C:\Users\jo\AppData\Local\Temp\ccMscRHh.s 			page 26


 1414 05b8 67040000 		.4byte	0x467
 1415 05bc 58       		.byte	0x58
 1416 05bd 08       		.uleb128 0x8
 1417 05be 72313100 		.ascii	"r11\000"
 1418 05c2 0D       		.byte	0xd
 1419 05c3 0E01     		.2byte	0x10e
 1420 05c5 67040000 		.4byte	0x467
 1421 05c9 5C       		.byte	0x5c
 1422 05ca 08       		.uleb128 0x8
 1423 05cb 6C7200   		.ascii	"lr\000"
 1424 05ce 0D       		.byte	0xd
 1425 05cf 0F01     		.2byte	0x10f
 1426 05d1 67040000 		.4byte	0x467
 1427 05d5 60       		.byte	0x60
 1428 05d6 00       		.byte	0
 1429 05d7 0B       		.uleb128 0xb
 1430 05d8 04       		.byte	0x4
 1431 05d9 96040000 		.4byte	0x496
 1432 05dd 13       		.uleb128 0x13
 1433 05de 60       		.byte	0x60
 1434 05df 0E       		.byte	0xe
 1435 05e0 9E01     		.2byte	0x19e
 1436 05e2 E9060000 		.4byte	0x6e9
 1437 05e6 08       		.uleb128 0x8
 1438 05e7 43523100 		.ascii	"CR1\000"
 1439 05eb 0E       		.byte	0xe
 1440 05ec 9F01     		.2byte	0x19f
 1441 05ee D3000000 		.4byte	0xd3
 1442 05f2 00       		.byte	0
 1443 05f3 08       		.uleb128 0x8
 1444 05f4 43523200 		.ascii	"CR2\000"
 1445 05f8 0E       		.byte	0xe
 1446 05f9 A001     		.2byte	0x1a0
 1447 05fb D3000000 		.4byte	0xd3
 1448 05ff 04       		.byte	0x4
 1449 0600 09       		.uleb128 0x9
 1450 0601 FF020000 		.4byte	.LASF83
 1451 0605 0E       		.byte	0xe
 1452 0606 A101     		.2byte	0x1a1
 1453 0608 D3000000 		.4byte	0xd3
 1454 060c 08       		.byte	0x8
 1455 060d 09       		.uleb128 0x9
 1456 060e 16000000 		.4byte	.LASF84
 1457 0612 0E       		.byte	0xe
 1458 0613 A201     		.2byte	0x1a2
 1459 0615 D3000000 		.4byte	0xd3
 1460 0619 0C       		.byte	0xc
 1461 061a 08       		.uleb128 0x8
 1462 061b 535200   		.ascii	"SR\000"
 1463 061e 0E       		.byte	0xe
 1464 061f A301     		.2byte	0x1a3
 1465 0621 D3000000 		.4byte	0xd3
 1466 0625 10       		.byte	0x10
 1467 0626 08       		.uleb128 0x8
 1468 0627 45475200 		.ascii	"EGR\000"
 1469 062b 0E       		.byte	0xe
 1470 062c A401     		.2byte	0x1a4
ARM GAS  C:\Users\jo\AppData\Local\Temp\ccMscRHh.s 			page 27


 1471 062e D3000000 		.4byte	0xd3
 1472 0632 14       		.byte	0x14
 1473 0633 09       		.uleb128 0x9
 1474 0634 17010000 		.4byte	.LASF85
 1475 0638 0E       		.byte	0xe
 1476 0639 A501     		.2byte	0x1a5
 1477 063b D3000000 		.4byte	0xd3
 1478 063f 18       		.byte	0x18
 1479 0640 09       		.uleb128 0x9
 1480 0641 1D010000 		.4byte	.LASF86
 1481 0645 0E       		.byte	0xe
 1482 0646 A601     		.2byte	0x1a6
 1483 0648 D3000000 		.4byte	0xd3
 1484 064c 1C       		.byte	0x1c
 1485 064d 09       		.uleb128 0x9
 1486 064e 9F070000 		.4byte	.LASF87
 1487 0652 0E       		.byte	0xe
 1488 0653 A701     		.2byte	0x1a7
 1489 0655 D3000000 		.4byte	0xd3
 1490 0659 20       		.byte	0x20
 1491 065a 08       		.uleb128 0x8
 1492 065b 434E5400 		.ascii	"CNT\000"
 1493 065f 0E       		.byte	0xe
 1494 0660 A801     		.2byte	0x1a8
 1495 0662 D3000000 		.4byte	0xd3
 1496 0666 24       		.byte	0x24
 1497 0667 08       		.uleb128 0x8
 1498 0668 50534300 		.ascii	"PSC\000"
 1499 066c 0E       		.byte	0xe
 1500 066d A901     		.2byte	0x1a9
 1501 066f D3000000 		.4byte	0xd3
 1502 0673 28       		.byte	0x28
 1503 0674 08       		.uleb128 0x8
 1504 0675 41525200 		.ascii	"ARR\000"
 1505 0679 0E       		.byte	0xe
 1506 067a AA01     		.2byte	0x1aa
 1507 067c D3000000 		.4byte	0xd3
 1508 0680 2C       		.byte	0x2c
 1509 0681 08       		.uleb128 0x8
 1510 0682 52435200 		.ascii	"RCR\000"
 1511 0686 0E       		.byte	0xe
 1512 0687 AB01     		.2byte	0x1ab
 1513 0689 D3000000 		.4byte	0xd3
 1514 068d 30       		.byte	0x30
 1515 068e 08       		.uleb128 0x8
 1516 068f 43435200 		.ascii	"CCR\000"
 1517 0693 0E       		.byte	0xe
 1518 0694 AC01     		.2byte	0x1ac
 1519 0696 E9060000 		.4byte	0x6e9
 1520 069a 34       		.byte	0x34
 1521 069b 09       		.uleb128 0x9
 1522 069c E7000000 		.4byte	.LASF88
 1523 06a0 0E       		.byte	0xe
 1524 06a1 AD01     		.2byte	0x1ad
 1525 06a3 D3000000 		.4byte	0xd3
 1526 06a7 44       		.byte	0x44
 1527 06a8 08       		.uleb128 0x8
ARM GAS  C:\Users\jo\AppData\Local\Temp\ccMscRHh.s 			page 28


 1528 06a9 44435200 		.ascii	"DCR\000"
 1529 06ad 0E       		.byte	0xe
 1530 06ae AE01     		.2byte	0x1ae
 1531 06b0 D3000000 		.4byte	0xd3
 1532 06b4 48       		.byte	0x48
 1533 06b5 09       		.uleb128 0x9
 1534 06b6 72070000 		.4byte	.LASF89
 1535 06ba 0E       		.byte	0xe
 1536 06bb AF01     		.2byte	0x1af
 1537 06bd D3000000 		.4byte	0xd3
 1538 06c1 4C       		.byte	0x4c
 1539 06c2 08       		.uleb128 0x8
 1540 06c3 4F5200   		.ascii	"OR\000"
 1541 06c6 0E       		.byte	0xe
 1542 06c7 B001     		.2byte	0x1b0
 1543 06c9 D3000000 		.4byte	0xd3
 1544 06cd 50       		.byte	0x50
 1545 06ce 09       		.uleb128 0x9
 1546 06cf 23010000 		.4byte	.LASF90
 1547 06d3 0E       		.byte	0xe
 1548 06d4 B101     		.2byte	0x1b1
 1549 06d6 D3000000 		.4byte	0xd3
 1550 06da 54       		.byte	0x54
 1551 06db 09       		.uleb128 0x9
 1552 06dc C8060000 		.4byte	.LASF91
 1553 06e0 0E       		.byte	0xe
 1554 06e1 B201     		.2byte	0x1b2
 1555 06e3 EE060000 		.4byte	0x6ee
 1556 06e7 58       		.byte	0x58
 1557 06e8 00       		.byte	0
 1558 06e9 05       		.uleb128 0x5
 1559 06ea 57040000 		.4byte	0x457
 1560 06ee 05       		.uleb128 0x5
 1561 06ef 47040000 		.4byte	0x447
 1562 06f3 14       		.uleb128 0x14
 1563 06f4 57030000 		.4byte	.LASF92
 1564 06f8 0E       		.byte	0xe
 1565 06f9 B301     		.2byte	0x1b3
 1566 06fb DD050000 		.4byte	0x5dd
 1567 06ff 04       		.uleb128 0x4
 1568 0700 01       		.byte	0x1
 1569 0701 08       		.byte	0x8
 1570 0702 1E070000 		.4byte	.LASF93
 1571 0706 0B       		.uleb128 0xb
 1572 0707 04       		.byte	0x4
 1573 0708 0C070000 		.4byte	0x70c
 1574 070c 15       		.uleb128 0x15
 1575 070d FF060000 		.4byte	0x6ff
 1576 0711 10       		.uleb128 0x10
 1577 0712 FF060000 		.4byte	0x6ff
 1578 0716 21070000 		.4byte	0x721
 1579 071a 11       		.uleb128 0x11
 1580 071b 40040000 		.4byte	0x440
 1581 071f 19       		.byte	0x19
 1582 0720 00       		.byte	0
 1583 0721 10       		.uleb128 0x10
 1584 0722 FF060000 		.4byte	0x6ff
ARM GAS  C:\Users\jo\AppData\Local\Temp\ccMscRHh.s 			page 29


 1585 0726 31070000 		.4byte	0x731
 1586 072a 11       		.uleb128 0x11
 1587 072b 40040000 		.4byte	0x440
 1588 072f 07       		.byte	0x7
 1589 0730 00       		.byte	0
 1590 0731 10       		.uleb128 0x10
 1591 0732 FF060000 		.4byte	0x6ff
 1592 0736 41070000 		.4byte	0x741
 1593 073a 11       		.uleb128 0x11
 1594 073b 40040000 		.4byte	0x440
 1595 073f 18       		.byte	0x18
 1596 0740 00       		.byte	0
 1597 0741 16       		.uleb128 0x16
 1598 0742 04       		.byte	0x4
 1599 0743 0F       		.byte	0xf
 1600 0744 38       		.byte	0x38
 1601 0745 56070000 		.4byte	0x756
 1602 0749 07       		.uleb128 0x7
 1603 074a 08080000 		.4byte	.LASF94
 1604 074e 0F       		.byte	0xf
 1605 074f 3C       		.byte	0x3c
 1606 0750 D8000000 		.4byte	0xd8
 1607 0754 00       		.byte	0
 1608 0755 00       		.byte	0
 1609 0756 03       		.uleb128 0x3
 1610 0757 5C040000 		.4byte	.LASF95
 1611 075b 0F       		.byte	0xf
 1612 075c 3D       		.byte	0x3d
 1613 075d 41070000 		.4byte	0x741
 1614 0761 0B       		.uleb128 0xb
 1615 0762 04       		.byte	0x4
 1616 0763 3B010000 		.4byte	0x13b
 1617 0767 17       		.uleb128 0x17
 1618 0768 04       		.byte	0x4
 1619 0769 03       		.byte	0x3
 1620 076a F6       		.byte	0xf6
 1621 076b 9F070000 		.4byte	0x79f
 1622 076f 18       		.uleb128 0x18
 1623 0770 22000000 		.4byte	.LASF96
 1624 0774 03       		.byte	0x3
 1625 0775 FD       		.byte	0xfd
 1626 0776 0F010000 		.4byte	0x10f
 1627 077a 19       		.uleb128 0x19
 1628 077b BB000000 		.4byte	.LASF97
 1629 077f 03       		.byte	0x3
 1630 0780 0401     		.2byte	0x104
 1631 0782 0F010000 		.4byte	0x10f
 1632 0786 19       		.uleb128 0x19
 1633 0787 42090000 		.4byte	.LASF98
 1634 078b 03       		.byte	0x3
 1635 078c 0B01     		.2byte	0x10b
 1636 078e 0A030000 		.4byte	0x30a
 1637 0792 19       		.uleb128 0x19
 1638 0793 72060000 		.4byte	.LASF99
 1639 0797 03       		.byte	0x3
 1640 0798 1201     		.2byte	0x112
 1641 079a 1A010000 		.4byte	0x11a
ARM GAS  C:\Users\jo\AppData\Local\Temp\ccMscRHh.s 			page 30


 1642 079e 00       		.byte	0
 1643 079f 06       		.uleb128 0x6
 1644 07a0 F5050000 		.4byte	.LASF100
 1645 07a4 10       		.byte	0x10
 1646 07a5 10       		.byte	0x10
 1647 07a6 39       		.byte	0x39
 1648 07a7 D0070000 		.4byte	0x7d0
 1649 07ab 07       		.uleb128 0x7
 1650 07ac 49010000 		.4byte	.LASF101
 1651 07b0 10       		.byte	0x10
 1652 07b1 3A       		.byte	0x3a
 1653 07b2 57020000 		.4byte	0x257
 1654 07b6 00       		.byte	0
 1655 07b7 07       		.uleb128 0x7
 1656 07b8 C3090000 		.4byte	.LASF102
 1657 07bc 10       		.byte	0x10
 1658 07bd 3C       		.byte	0x3c
 1659 07be 61070000 		.4byte	0x761
 1660 07c2 08       		.byte	0x8
 1661 07c3 07       		.uleb128 0x7
 1662 07c4 A4070000 		.4byte	.LASF103
 1663 07c8 10       		.byte	0x10
 1664 07c9 3E       		.byte	0x3e
 1665 07ca FC070000 		.4byte	0x7fc
 1666 07ce 0C       		.byte	0xc
 1667 07cf 00       		.byte	0
 1668 07d0 0B       		.uleb128 0xb
 1669 07d1 04       		.byte	0x4
 1670 07d2 9F070000 		.4byte	0x79f
 1671 07d6 0B       		.uleb128 0xb
 1672 07d7 04       		.byte	0x4
 1673 07d8 0C030000 		.4byte	0x30c
 1674 07dc 05       		.uleb128 0x5
 1675 07dd 06070000 		.4byte	0x706
 1676 07e1 10       		.uleb128 0x10
 1677 07e2 72040000 		.4byte	0x472
 1678 07e6 F1070000 		.4byte	0x7f1
 1679 07ea 11       		.uleb128 0x11
 1680 07eb 40040000 		.4byte	0x440
 1681 07ef 2B       		.byte	0x2b
 1682 07f0 00       		.byte	0
 1683 07f1 03       		.uleb128 0x3
 1684 07f2 BB090000 		.4byte	.LASF104
 1685 07f6 10       		.byte	0x10
 1686 07f7 34       		.byte	0x34
 1687 07f8 9F070000 		.4byte	0x79f
 1688 07fc 0B       		.uleb128 0xb
 1689 07fd 04       		.byte	0x4
 1690 07fe F1070000 		.4byte	0x7f1
 1691 0802 03       		.uleb128 0x3
 1692 0803 98030000 		.4byte	.LASF105
 1693 0807 02       		.byte	0x2
 1694 0808 34       		.byte	0x34
 1695 0809 0D080000 		.4byte	0x80d
 1696 080d 06       		.uleb128 0x6
 1697 080e 53020000 		.4byte	.LASF106
 1698 0812 14       		.byte	0x14
ARM GAS  C:\Users\jo\AppData\Local\Temp\ccMscRHh.s 			page 31


 1699 0813 02       		.byte	0x2
 1700 0814 39       		.byte	0x39
 1701 0815 56080000 		.4byte	0x856
 1702 0819 07       		.uleb128 0x7
 1703 081a 43030000 		.4byte	.LASF107
 1704 081e 02       		.byte	0x2
 1705 081f 3A       		.byte	0x3a
 1706 0820 56080000 		.4byte	0x856
 1707 0824 00       		.byte	0
 1708 0825 07       		.uleb128 0x7
 1709 0826 2F060000 		.4byte	.LASF108
 1710 082a 02       		.byte	0x2
 1711 082b 3D       		.byte	0x3d
 1712 082c 61070000 		.4byte	0x761
 1713 0830 04       		.byte	0x4
 1714 0831 07       		.uleb128 0x7
 1715 0832 9F050000 		.4byte	.LASF109
 1716 0836 02       		.byte	0x2
 1717 0837 3F       		.byte	0x3f
 1718 0838 1A010000 		.4byte	0x11a
 1719 083c 08       		.byte	0x8
 1720 083d 07       		.uleb128 0x7
 1721 083e 3B060000 		.4byte	.LASF110
 1722 0842 02       		.byte	0x2
 1723 0843 41       		.byte	0x41
 1724 0844 25010000 		.4byte	0x125
 1725 0848 0C       		.byte	0xc
 1726 0849 07       		.uleb128 0x7
 1727 084a F4070000 		.4byte	.LASF111
 1728 084e 02       		.byte	0x2
 1729 084f 43       		.byte	0x43
 1730 0850 25010000 		.4byte	0x125
 1731 0854 10       		.byte	0x10
 1732 0855 00       		.byte	0
 1733 0856 0B       		.uleb128 0xb
 1734 0857 04       		.byte	0x4
 1735 0858 02080000 		.4byte	0x802
 1736 085c 06       		.uleb128 0x6
 1737 085d A0010000 		.4byte	.LASF112
 1738 0861 04       		.byte	0x4
 1739 0862 02       		.byte	0x2
 1740 0863 4A       		.byte	0x4a
 1741 0864 75080000 		.4byte	0x875
 1742 0868 07       		.uleb128 0x7
 1743 0869 C4080000 		.4byte	.LASF113
 1744 086d 02       		.byte	0x2
 1745 086e 4B       		.byte	0x4b
 1746 086f 56080000 		.4byte	0x856
 1747 0873 00       		.byte	0
 1748 0874 00       		.byte	0
 1749 0875 03       		.uleb128 0x3
 1750 0876 35020000 		.4byte	.LASF114
 1751 087a 02       		.byte	0x2
 1752 087b 4E       		.byte	0x4e
 1753 087c 5C080000 		.4byte	0x85c
 1754 0880 0B       		.uleb128 0xb
 1755 0881 04       		.byte	0x4
ARM GAS  C:\Users\jo\AppData\Local\Temp\ccMscRHh.s 			page 32


 1756 0882 A2000000 		.4byte	0xa2
 1757 0886 04       		.uleb128 0x4
 1758 0887 01       		.byte	0x1
 1759 0888 02       		.byte	0x2
 1760 0889 0B060000 		.4byte	.LASF115
 1761 088d 1A       		.uleb128 0x1a
 1762 088e 01       		.byte	0x1
 1763 088f 11       		.byte	0x11
 1764 0890 46       		.byte	0x46
 1765 0891 A8080000 		.4byte	0x8a8
 1766 0895 1B       		.uleb128 0x1b
 1767 0896 0E030000 		.4byte	.LASF116
 1768 089a 00       		.sleb128 0
 1769 089b 1B       		.uleb128 0x1b
 1770 089c C7050000 		.4byte	.LASF117
 1771 08a0 01       		.sleb128 1
 1772 08a1 1B       		.uleb128 0x1b
 1773 08a2 BC050000 		.4byte	.LASF118
 1774 08a6 02       		.sleb128 2
 1775 08a7 00       		.byte	0
 1776 08a8 03       		.uleb128 0x3
 1777 08a9 AD010000 		.4byte	.LASF119
 1778 08ad 11       		.byte	0x11
 1779 08ae 4A       		.byte	0x4a
 1780 08af 8D080000 		.4byte	0x88d
 1781 08b3 03       		.uleb128 0x3
 1782 08b4 45000000 		.4byte	.LASF120
 1783 08b8 11       		.byte	0x11
 1784 08b9 4F       		.byte	0x4f
 1785 08ba BE080000 		.4byte	0x8be
 1786 08be 06       		.uleb128 0x6
 1787 08bf 45000000 		.4byte	.LASF120
 1788 08c3 2C       		.byte	0x2c
 1789 08c4 12       		.byte	0x12
 1790 08c5 EC       		.byte	0xec
 1791 08c6 3C090000 		.4byte	0x93c
 1792 08ca 07       		.uleb128 0x7
 1793 08cb 7E010000 		.4byte	.LASF121
 1794 08cf 12       		.byte	0x12
 1795 08d0 F0       		.byte	0xf0
 1796 08d1 A8080000 		.4byte	0x8a8
 1797 08d5 00       		.byte	0
 1798 08d6 07       		.uleb128 0x7
 1799 08d7 23070000 		.4byte	.LASF122
 1800 08db 12       		.byte	0x12
 1801 08dc F4       		.byte	0xf4
 1802 08dd E4090000 		.4byte	0x9e4
 1803 08e1 04       		.byte	0x4
 1804 08e2 07       		.uleb128 0x7
 1805 08e3 CB090000 		.4byte	.LASF123
 1806 08e7 12       		.byte	0x12
 1807 08e8 F8       		.byte	0xf8
 1808 08e9 57020000 		.4byte	0x257
 1809 08ed 08       		.byte	0x8
 1810 08ee 07       		.uleb128 0x7
 1811 08ef 27060000 		.4byte	.LASF124
 1812 08f3 12       		.byte	0x12
ARM GAS  C:\Users\jo\AppData\Local\Temp\ccMscRHh.s 			page 33


 1813 08f4 FC       		.byte	0xfc
 1814 08f5 57020000 		.4byte	0x257
 1815 08f9 10       		.byte	0x10
 1816 08fa 09       		.uleb128 0x9
 1817 08fb 59080000 		.4byte	.LASF125
 1818 08ff 12       		.byte	0x12
 1819 0900 0101     		.2byte	0x101
 1820 0902 75080000 		.4byte	0x875
 1821 0906 18       		.byte	0x18
 1822 0907 09       		.uleb128 0x9
 1823 0908 B3000000 		.4byte	.LASF126
 1824 090c 12       		.byte	0x12
 1825 090d 0701     		.2byte	0x107
 1826 090f 86080000 		.4byte	0x886
 1827 0913 1C       		.byte	0x1c
 1828 0914 09       		.uleb128 0x9
 1829 0915 14090000 		.4byte	.LASF127
 1830 0919 12       		.byte	0x12
 1831 091a 0B01     		.2byte	0x10b
 1832 091c B8000000 		.4byte	0xb8
 1833 0920 20       		.byte	0x20
 1834 0921 09       		.uleb128 0x9
 1835 0922 63030000 		.4byte	.LASF128
 1836 0926 12       		.byte	0x12
 1837 0927 0F01     		.2byte	0x10f
 1838 0929 EF090000 		.4byte	0x9ef
 1839 092d 24       		.byte	0x24
 1840 092e 09       		.uleb128 0x9
 1841 092f 6C060000 		.4byte	.LASF129
 1842 0933 12       		.byte	0x12
 1843 0934 1301     		.2byte	0x113
 1844 0936 F5090000 		.4byte	0x9f5
 1845 093a 28       		.byte	0x28
 1846 093b 00       		.byte	0
 1847 093c 16       		.uleb128 0x16
 1848 093d 10       		.byte	0x10
 1849 093e 12       		.byte	0x12
 1850 093f CD       		.byte	0xcd
 1851 0940 75090000 		.4byte	0x975
 1852 0944 07       		.uleb128 0x7
 1853 0945 D7020000 		.4byte	.LASF130
 1854 0949 12       		.byte	0x12
 1855 094a CE       		.byte	0xce
 1856 094b D3000000 		.4byte	0xd3
 1857 094f 00       		.byte	0
 1858 0950 07       		.uleb128 0x7
 1859 0951 DD020000 		.4byte	.LASF131
 1860 0955 12       		.byte	0x12
 1861 0956 CF       		.byte	0xcf
 1862 0957 D3000000 		.4byte	0xd3
 1863 095b 04       		.byte	0x4
 1864 095c 07       		.uleb128 0x7
 1865 095d E3020000 		.4byte	.LASF132
 1866 0961 12       		.byte	0x12
 1867 0962 D0       		.byte	0xd0
 1868 0963 D3000000 		.4byte	0xd3
 1869 0967 08       		.byte	0x8
ARM GAS  C:\Users\jo\AppData\Local\Temp\ccMscRHh.s 			page 34


 1870 0968 07       		.uleb128 0x7
 1871 0969 E9020000 		.4byte	.LASF133
 1872 096d 12       		.byte	0x12
 1873 096e D1       		.byte	0xd1
 1874 096f D3000000 		.4byte	0xd3
 1875 0973 0C       		.byte	0xc
 1876 0974 00       		.byte	0
 1877 0975 03       		.uleb128 0x3
 1878 0976 CC080000 		.4byte	.LASF134
 1879 097a 12       		.byte	0x12
 1880 097b D2       		.byte	0xd2
 1881 097c 3C090000 		.4byte	0x93c
 1882 0980 16       		.uleb128 0x16
 1883 0981 10       		.byte	0x10
 1884 0982 12       		.byte	0x12
 1885 0983 D7       		.byte	0xd7
 1886 0984 B9090000 		.4byte	0x9b9
 1887 0988 07       		.uleb128 0x7
 1888 0989 29000000 		.4byte	.LASF135
 1889 098d 12       		.byte	0x12
 1890 098e D8       		.byte	0xd8
 1891 098f D3000000 		.4byte	0xd3
 1892 0993 00       		.byte	0
 1893 0994 07       		.uleb128 0x7
 1894 0995 2F000000 		.4byte	.LASF136
 1895 0999 12       		.byte	0x12
 1896 099a D9       		.byte	0xd9
 1897 099b D3000000 		.4byte	0xd3
 1898 099f 04       		.byte	0x4
 1899 09a0 07       		.uleb128 0x7
 1900 09a1 E7050000 		.4byte	.LASF137
 1901 09a5 12       		.byte	0x12
 1902 09a6 DA       		.byte	0xda
 1903 09a7 D3000000 		.4byte	0xd3
 1904 09ab 08       		.byte	0x8
 1905 09ac 07       		.uleb128 0x7
 1906 09ad 35000000 		.4byte	.LASF138
 1907 09b1 12       		.byte	0x12
 1908 09b2 DB       		.byte	0xdb
 1909 09b3 D3000000 		.4byte	0xd3
 1910 09b7 0C       		.byte	0xc
 1911 09b8 00       		.byte	0
 1912 09b9 03       		.uleb128 0x3
 1913 09ba 51010000 		.4byte	.LASF139
 1914 09be 12       		.byte	0x12
 1915 09bf DC       		.byte	0xdc
 1916 09c0 80090000 		.4byte	0x980
 1917 09c4 16       		.uleb128 0x16
 1918 09c5 04       		.byte	0x4
 1919 09c6 12       		.byte	0x12
 1920 09c7 E1       		.byte	0xe1
 1921 09c8 D9090000 		.4byte	0x9d9
 1922 09cc 07       		.uleb128 0x7
 1923 09cd 37030000 		.4byte	.LASF140
 1924 09d1 12       		.byte	0x12
 1925 09d2 E5       		.byte	0xe5
 1926 09d3 80080000 		.4byte	0x880
ARM GAS  C:\Users\jo\AppData\Local\Temp\ccMscRHh.s 			page 35


 1927 09d7 00       		.byte	0
 1928 09d8 00       		.byte	0
 1929 09d9 03       		.uleb128 0x3
 1930 09da EC080000 		.4byte	.LASF141
 1931 09de 12       		.byte	0x12
 1932 09df E7       		.byte	0xe7
 1933 09e0 C4090000 		.4byte	0x9c4
 1934 09e4 0B       		.uleb128 0xb
 1935 09e5 04       		.byte	0x4
 1936 09e6 EA090000 		.4byte	0x9ea
 1937 09ea 15       		.uleb128 0x15
 1938 09eb D9090000 		.4byte	0x9d9
 1939 09ef 0B       		.uleb128 0xb
 1940 09f0 04       		.byte	0x4
 1941 09f1 75090000 		.4byte	0x975
 1942 09f5 0B       		.uleb128 0xb
 1943 09f6 04       		.byte	0x4
 1944 09f7 B9090000 		.4byte	0x9b9
 1945 09fb 13       		.uleb128 0x13
 1946 09fc 0C       		.byte	0xc
 1947 09fd 12       		.byte	0x12
 1948 09fe 1901     		.2byte	0x119
 1949 0a00 2C0A0000 		.4byte	0xa2c
 1950 0a04 09       		.uleb128 0x9
 1951 0a05 08080000 		.4byte	.LASF94
 1952 0a09 12       		.byte	0x12
 1953 0a0a 1D01     		.2byte	0x11d
 1954 0a0c 2C000000 		.4byte	0x2c
 1955 0a10 00       		.byte	0
 1956 0a11 09       		.uleb128 0x9
 1957 0a12 50090000 		.4byte	.LASF142
 1958 0a16 12       		.byte	0x12
 1959 0a17 2101     		.2byte	0x121
 1960 0a19 2C000000 		.4byte	0x2c
 1961 0a1d 04       		.byte	0x4
 1962 0a1e 09       		.uleb128 0x9
 1963 0a1f 00000000 		.4byte	.LASF143
 1964 0a23 12       		.byte	0x12
 1965 0a24 2601     		.2byte	0x126
 1966 0a26 F5090000 		.4byte	0x9f5
 1967 0a2a 08       		.byte	0x8
 1968 0a2b 00       		.byte	0
 1969 0a2c 14       		.uleb128 0x14
 1970 0a2d FE080000 		.4byte	.LASF144
 1971 0a31 12       		.byte	0x12
 1972 0a32 2701     		.2byte	0x127
 1973 0a34 FB090000 		.4byte	0x9fb
 1974 0a38 13       		.uleb128 0x13
 1975 0a39 0C       		.byte	0xc
 1976 0a3a 12       		.byte	0x12
 1977 0a3b 2C01     		.2byte	0x12c
 1978 0a3d 690A0000 		.4byte	0xa69
 1979 0a41 09       		.uleb128 0x9
 1980 0a42 08080000 		.4byte	.LASF94
 1981 0a46 12       		.byte	0x12
 1982 0a47 3001     		.2byte	0x130
 1983 0a49 2C000000 		.4byte	0x2c
ARM GAS  C:\Users\jo\AppData\Local\Temp\ccMscRHh.s 			page 36


 1984 0a4d 00       		.byte	0
 1985 0a4e 09       		.uleb128 0x9
 1986 0a4f 50090000 		.4byte	.LASF142
 1987 0a53 12       		.byte	0x12
 1988 0a54 3401     		.2byte	0x134
 1989 0a56 2C000000 		.4byte	0x2c
 1990 0a5a 04       		.byte	0x4
 1991 0a5b 09       		.uleb128 0x9
 1992 0a5c 00000000 		.4byte	.LASF143
 1993 0a60 12       		.byte	0x12
 1994 0a61 3901     		.2byte	0x139
 1995 0a63 EF090000 		.4byte	0x9ef
 1996 0a67 08       		.byte	0x8
 1997 0a68 00       		.byte	0
 1998 0a69 14       		.uleb128 0x14
 1999 0a6a 7D080000 		.4byte	.LASF145
 2000 0a6e 12       		.byte	0x12
 2001 0a6f 3A01     		.2byte	0x13a
 2002 0a71 380A0000 		.4byte	0xa38
 2003 0a75 1C       		.uleb128 0x1c
 2004 0a76 25040000 		.4byte	.LASF150
 2005 0a7a 04       		.byte	0x4
 2006 0a7b 2002     		.2byte	0x220
 2007 0a7d 03       		.byte	0x3
 2008 0a7e 8F0A0000 		.4byte	0xa8f
 2009 0a82 1D       		.uleb128 0x1d
 2010 0a83 2F020000 		.4byte	.LASF152
 2011 0a87 04       		.byte	0x4
 2012 0a88 2002     		.2byte	0x220
 2013 0a8a B8000000 		.4byte	0xb8
 2014 0a8e 00       		.byte	0
 2015 0a8f 1E       		.uleb128 0x1e
 2016 0a90 D8060000 		.4byte	.LASF148
 2017 0a94 05       		.byte	0x5
 2018 0a95 7E       		.byte	0x7e
 2019 0a96 30010000 		.4byte	0x130
 2020 0a9a 03       		.byte	0x3
 2021 0a9b 1F       		.uleb128 0x1f
 2022 0a9c 92000000 		.4byte	.LASF146
 2023 0aa0 0D       		.byte	0xd
 2024 0aa1 BB01     		.2byte	0x1bb
 2025 0aa3 03       		.byte	0x3
 2026 0aa4 1F       		.uleb128 0x1f
 2027 0aa5 72010000 		.4byte	.LASF147
 2028 0aa9 0D       		.byte	0xd
 2029 0aaa C901     		.2byte	0x1c9
 2030 0aac 03       		.byte	0x3
 2031 0aad 1E       		.uleb128 0x1e
 2032 0aae 31080000 		.4byte	.LASF149
 2033 0ab2 13       		.byte	0x13
 2034 0ab3 69       		.byte	0x69
 2035 0ab4 30010000 		.4byte	0x130
 2036 0ab8 03       		.byte	0x3
 2037 0ab9 1C       		.uleb128 0x1c
 2038 0aba 87000000 		.4byte	.LASF151
 2039 0abe 03       		.byte	0x3
 2040 0abf 3C02     		.2byte	0x23c
ARM GAS  C:\Users\jo\AppData\Local\Temp\ccMscRHh.s 			page 37


 2041 0ac1 03       		.byte	0x3
 2042 0ac2 D30A0000 		.4byte	0xad3
 2043 0ac6 20       		.uleb128 0x20
 2044 0ac7 74717000 		.ascii	"tqp\000"
 2045 0acb 03       		.byte	0x3
 2046 0acc 3C02     		.2byte	0x23c
 2047 0ace D30A0000 		.4byte	0xad3
 2048 0ad2 00       		.byte	0
 2049 0ad3 0B       		.uleb128 0xb
 2050 0ad4 04       		.byte	0x4
 2051 0ad5 57020000 		.4byte	0x257
 2052 0ad9 1F       		.uleb128 0x1f
 2053 0ada 9F060000 		.4byte	.LASF153
 2054 0ade 14       		.byte	0x14
 2055 0adf 2901     		.2byte	0x129
 2056 0ae1 03       		.byte	0x3
 2057 0ae2 1C       		.uleb128 0x1c
 2058 0ae3 A9090000 		.4byte	.LASF154
 2059 0ae7 14       		.byte	0x14
 2060 0ae8 3501     		.2byte	0x135
 2061 0aea 03       		.byte	0x3
 2062 0aeb FD0A0000 		.4byte	0xafd
 2063 0aef 21       		.uleb128 0x21
 2064 0af0 88060000 		.4byte	.LASF169
 2065 0af4 0D0B0000 		.4byte	0xb0d
 2066 0af8 A9090000 		.4byte	.LASF154
 2067 0afc 00       		.byte	0
 2068 0afd 10       		.uleb128 0x10
 2069 0afe FF060000 		.4byte	0x6ff
 2070 0b02 0D0B0000 		.4byte	0xb0d
 2071 0b06 11       		.uleb128 0x11
 2072 0b07 40040000 		.4byte	0x440
 2073 0b0b 0B       		.byte	0xb
 2074 0b0c 00       		.byte	0
 2075 0b0d 15       		.uleb128 0x15
 2076 0b0e FD0A0000 		.4byte	0xafd
 2077 0b12 1E       		.uleb128 0x1e
 2078 0b13 6F020000 		.4byte	.LASF155
 2079 0b17 15       		.byte	0x15
 2080 0b18 E2       		.byte	0xe2
 2081 0b19 30010000 		.4byte	0x130
 2082 0b1d 03       		.byte	0x3
 2083 0b1e 1C       		.uleb128 0x1c
 2084 0b1f A9030000 		.4byte	.LASF156
 2085 0b23 16       		.byte	0x16
 2086 0b24 1901     		.2byte	0x119
 2087 0b26 03       		.byte	0x3
 2088 0b27 380B0000 		.4byte	0xb38
 2089 0b2b 20       		.uleb128 0x20
 2090 0b2c 74717000 		.ascii	"tqp\000"
 2091 0b30 16       		.byte	0x16
 2092 0b31 1901     		.2byte	0x119
 2093 0b33 D30A0000 		.4byte	0xad3
 2094 0b37 00       		.byte	0
 2095 0b38 22       		.uleb128 0x22
 2096 0b39 EF020000 		.4byte	.LASF157
 2097 0b3d 02       		.byte	0x2
ARM GAS  C:\Users\jo\AppData\Local\Temp\ccMscRHh.s 			page 38


 2098 0b3e AA       		.byte	0xaa
 2099 0b3f 03       		.byte	0x3
 2100 0b40 500B0000 		.4byte	0xb50
 2101 0b44 23       		.uleb128 0x23
 2102 0b45 65737000 		.ascii	"esp\000"
 2103 0b49 02       		.byte	0x2
 2104 0b4a AA       		.byte	0xaa
 2105 0b4b 500B0000 		.4byte	0xb50
 2106 0b4f 00       		.byte	0
 2107 0b50 0B       		.uleb128 0xb
 2108 0b51 04       		.byte	0x4
 2109 0b52 75080000 		.4byte	0x875
 2110 0b56 1C       		.uleb128 0x1c
 2111 0b57 17080000 		.4byte	.LASF158
 2112 0b5b 06       		.byte	0x6
 2113 0b5c AD02     		.2byte	0x2ad
 2114 0b5e 03       		.byte	0x3
 2115 0b5f 700B0000 		.4byte	0xb70
 2116 0b63 20       		.uleb128 0x20
 2117 0b64 74717000 		.ascii	"tqp\000"
 2118 0b68 06       		.byte	0x6
 2119 0b69 AD02     		.2byte	0x2ad
 2120 0b6b D30A0000 		.4byte	0xad3
 2121 0b6f 00       		.byte	0
 2122 0b70 1C       		.uleb128 0x1c
 2123 0b71 35010000 		.4byte	.LASF159
 2124 0b75 06       		.byte	0x6
 2125 0b76 F102     		.2byte	0x2f1
 2126 0b78 03       		.byte	0x3
 2127 0b79 8A0B0000 		.4byte	0xb8a
 2128 0b7d 20       		.uleb128 0x20
 2129 0b7e 65737000 		.ascii	"esp\000"
 2130 0b82 06       		.byte	0x6
 2131 0b83 F102     		.2byte	0x2f1
 2132 0b85 500B0000 		.4byte	0xb50
 2133 0b89 00       		.byte	0
 2134 0b8a 1F       		.uleb128 0x1f
 2135 0b8b 15020000 		.4byte	.LASF160
 2136 0b8f 06       		.byte	0x6
 2137 0b90 A701     		.2byte	0x1a7
 2138 0b92 03       		.byte	0x3
 2139 0b93 1F       		.uleb128 0x1f
 2140 0b94 A9060000 		.4byte	.LASF161
 2141 0b98 06       		.byte	0x6
 2142 0b99 B201     		.2byte	0x1b2
 2143 0b9b 03       		.byte	0x3
 2144 0b9c 24       		.uleb128 0x24
 2145 0b9d 72090000 		.4byte	.LASF162
 2146 0ba1 06       		.byte	0x6
 2147 0ba2 2402     		.2byte	0x224
 2148 0ba4 30010000 		.4byte	0x130
 2149 0ba8 03       		.byte	0x3
 2150 0ba9 25       		.uleb128 0x25
 2151 0baa A9020000 		.4byte	.LASF187
 2152 0bae 06       		.byte	0x6
 2153 0baf C902     		.2byte	0x2c9
 2154 0bb1 0F010000 		.4byte	0x10f
ARM GAS  C:\Users\jo\AppData\Local\Temp\ccMscRHh.s 			page 39


 2155 0bb5 03       		.byte	0x3
 2156 0bb6 D30B0000 		.4byte	0xbd3
 2157 0bba 20       		.uleb128 0x20
 2158 0bbb 74717000 		.ascii	"tqp\000"
 2159 0bbf 06       		.byte	0x6
 2160 0bc0 C902     		.2byte	0x2c9
 2161 0bc2 D30A0000 		.4byte	0xad3
 2162 0bc6 1D       		.uleb128 0x1d
 2163 0bc7 4D080000 		.4byte	.LASF163
 2164 0bcb 06       		.byte	0x6
 2165 0bcc CA02     		.2byte	0x2ca
 2166 0bce 30010000 		.4byte	0x130
 2167 0bd2 00       		.byte	0
 2168 0bd3 26       		.uleb128 0x26
 2169 0bd4 EC010000 		.4byte	.LASF164
 2170 0bd8 01       		.byte	0x1
 2171 0bd9 43       		.byte	0x43
 2172 0bda 00000000 		.4byte	.LFB255
 2173 0bde 04000000 		.4byte	.LFE255-.LFB255
 2174 0be2 01       		.uleb128 0x1
 2175 0be3 9C       		.byte	0x9c
 2176 0be4 F20B0000 		.4byte	0xbf2
 2177 0be8 27       		.uleb128 0x27
 2178 0be9 04000000 		.4byte	.LVL0
 2179 0bed A0140000 		.4byte	0x14a0
 2180 0bf1 00       		.byte	0
 2181 0bf2 26       		.uleb128 0x26
 2182 0bf3 91060000 		.4byte	.LASF165
 2183 0bf7 01       		.byte	0x1
 2184 0bf8 4F       		.byte	0x4f
 2185 0bf9 00000000 		.4byte	.LFB256
 2186 0bfd 24000000 		.4byte	.LFE256-.LFB256
 2187 0c01 01       		.uleb128 0x1
 2188 0c02 9C       		.byte	0x9c
 2189 0c03 DE0C0000 		.4byte	0xcde
 2190 0c07 28       		.uleb128 0x28
 2191 0c08 60060000 		.4byte	.LASF167
 2192 0c0c 01       		.byte	0x1
 2193 0c0d 4F       		.byte	0x4f
 2194 0c0e DE0C0000 		.4byte	0xcde
 2195 0c12 01       		.uleb128 0x1
 2196 0c13 50       		.byte	0x50
 2197 0c14 29       		.uleb128 0x29
 2198 0c15 700B0000 		.4byte	0xb70
 2199 0c19 16000000 		.4byte	.LBB151
 2200 0c1d 02000000 		.4byte	.LBE151-.LBB151
 2201 0c21 01       		.byte	0x1
 2202 0c22 56       		.byte	0x56
 2203 0c23 4B0C0000 		.4byte	0xc4b
 2204 0c27 2A       		.uleb128 0x2a
 2205 0c28 7D0B0000 		.4byte	0xb7d
 2206 0c2c 03       		.uleb128 0x3
 2207 0c2d 70       		.byte	0x70
 2208 0c2e 18       		.sleb128 24
 2209 0c2f 9F       		.byte	0x9f
 2210 0c30 2B       		.uleb128 0x2b
 2211 0c31 380B0000 		.4byte	0xb38
ARM GAS  C:\Users\jo\AppData\Local\Temp\ccMscRHh.s 			page 40


 2212 0c35 16000000 		.4byte	.LBB152
 2213 0c39 02000000 		.4byte	.LBE152-.LBB152
 2214 0c3d 06       		.byte	0x6
 2215 0c3e F302     		.2byte	0x2f3
 2216 0c40 2A       		.uleb128 0x2a
 2217 0c41 440B0000 		.4byte	0xb44
 2218 0c45 03       		.uleb128 0x3
 2219 0c46 70       		.byte	0x70
 2220 0c47 18       		.sleb128 24
 2221 0c48 9F       		.byte	0x9f
 2222 0c49 00       		.byte	0
 2223 0c4a 00       		.byte	0
 2224 0c4b 29       		.uleb128 0x29
 2225 0c4c 560B0000 		.4byte	0xb56
 2226 0c50 18000000 		.4byte	.LBB154
 2227 0c54 04000000 		.4byte	.LBE154-.LBB154
 2228 0c58 01       		.byte	0x1
 2229 0c59 53       		.byte	0x53
 2230 0c5a 960C0000 		.4byte	0xc96
 2231 0c5e 2A       		.uleb128 0x2a
 2232 0c5f 630B0000 		.4byte	0xb63
 2233 0c63 01       		.uleb128 0x1
 2234 0c64 52       		.byte	0x52
 2235 0c65 2B       		.uleb128 0x2b
 2236 0c66 1E0B0000 		.4byte	0xb1e
 2237 0c6a 18000000 		.4byte	.LBB155
 2238 0c6e 04000000 		.4byte	.LBE155-.LBB155
 2239 0c72 06       		.byte	0x6
 2240 0c73 AF02     		.2byte	0x2af
 2241 0c75 2A       		.uleb128 0x2a
 2242 0c76 2B0B0000 		.4byte	0xb2b
 2243 0c7a 01       		.uleb128 0x1
 2244 0c7b 52       		.byte	0x52
 2245 0c7c 2B       		.uleb128 0x2b
 2246 0c7d B90A0000 		.4byte	0xab9
 2247 0c81 18000000 		.4byte	.LBB156
 2248 0c85 04000000 		.4byte	.LBE156-.LBB156
 2249 0c89 16       		.byte	0x16
 2250 0c8a 1B01     		.2byte	0x11b
 2251 0c8c 2A       		.uleb128 0x2a
 2252 0c8d C60A0000 		.4byte	0xac6
 2253 0c91 01       		.uleb128 0x1
 2254 0c92 52       		.byte	0x52
 2255 0c93 00       		.byte	0
 2256 0c94 00       		.byte	0
 2257 0c95 00       		.byte	0
 2258 0c96 2C       		.uleb128 0x2c
 2259 0c97 560B0000 		.4byte	0xb56
 2260 0c9b 1C000000 		.4byte	.LBB158
 2261 0c9f 04000000 		.4byte	.LBE158-.LBB158
 2262 0ca3 01       		.byte	0x1
 2263 0ca4 54       		.byte	0x54
 2264 0ca5 2A       		.uleb128 0x2a
 2265 0ca6 630B0000 		.4byte	0xb63
 2266 0caa 01       		.uleb128 0x1
 2267 0cab 53       		.byte	0x53
 2268 0cac 2B       		.uleb128 0x2b
ARM GAS  C:\Users\jo\AppData\Local\Temp\ccMscRHh.s 			page 41


 2269 0cad 1E0B0000 		.4byte	0xb1e
 2270 0cb1 1C000000 		.4byte	.LBB159
 2271 0cb5 04000000 		.4byte	.LBE159-.LBB159
 2272 0cb9 06       		.byte	0x6
 2273 0cba AF02     		.2byte	0x2af
 2274 0cbc 2A       		.uleb128 0x2a
 2275 0cbd 2B0B0000 		.4byte	0xb2b
 2276 0cc1 01       		.uleb128 0x1
 2277 0cc2 53       		.byte	0x53
 2278 0cc3 2B       		.uleb128 0x2b
 2279 0cc4 B90A0000 		.4byte	0xab9
 2280 0cc8 1C000000 		.4byte	.LBB160
 2281 0ccc 04000000 		.4byte	.LBE160-.LBB160
 2282 0cd0 16       		.byte	0x16
 2283 0cd1 1B01     		.2byte	0x11b
 2284 0cd3 2A       		.uleb128 0x2a
 2285 0cd4 C60A0000 		.4byte	0xac6
 2286 0cd8 01       		.uleb128 0x1
 2287 0cd9 53       		.byte	0x53
 2288 0cda 00       		.byte	0
 2289 0cdb 00       		.byte	0
 2290 0cdc 00       		.byte	0
 2291 0cdd 00       		.byte	0
 2292 0cde 0B       		.uleb128 0xb
 2293 0cdf 04       		.byte	0x4
 2294 0ce0 B3080000 		.4byte	0x8b3
 2295 0ce4 26       		.uleb128 0x26
 2296 0ce5 97010000 		.4byte	.LASF166
 2297 0ce9 01       		.byte	0x1
 2298 0cea 62       		.byte	0x62
 2299 0ceb 00000000 		.4byte	.LFB257
 2300 0cef 1C000000 		.4byte	.LFE257-.LFB257
 2301 0cf3 01       		.uleb128 0x1
 2302 0cf4 9C       		.byte	0x9c
 2303 0cf5 DA0D0000 		.4byte	0xdda
 2304 0cf9 2D       		.uleb128 0x2d
 2305 0cfa 60060000 		.4byte	.LASF167
 2306 0cfe 01       		.byte	0x1
 2307 0cff 62       		.byte	0x62
 2308 0d00 DE0C0000 		.4byte	0xcde
 2309 0d04 00000000 		.4byte	.LLST0
 2310 0d08 2D       		.uleb128 0x2d
 2311 0d09 23070000 		.4byte	.LASF122
 2312 0d0d 01       		.byte	0x1
 2313 0d0e 62       		.byte	0x62
 2314 0d0f E4090000 		.4byte	0x9e4
 2315 0d13 1E000000 		.4byte	.LLST1
 2316 0d17 2E       		.uleb128 0x2e
 2317 0d18 88060000 		.4byte	.LASF169
 2318 0d1c EA0D0000 		.4byte	0xdea
 2319 0d20 2F       		.uleb128 0x2f
 2320 0d21 8A0B0000 		.4byte	0xb8a
 2321 0d25 02000000 		.4byte	.LBB162
 2322 0d29 00000000 		.4byte	.Ldebug_ranges0+0
 2323 0d2d 01       		.byte	0x1
 2324 0d2e 66       		.byte	0x66
 2325 0d2f 6D0D0000 		.4byte	0xd6d
ARM GAS  C:\Users\jo\AppData\Local\Temp\ccMscRHh.s 			page 42


 2326 0d33 30       		.uleb128 0x30
 2327 0d34 D90A0000 		.4byte	0xad9
 2328 0d38 02000000 		.4byte	.LBB163
 2329 0d3c 00000000 		.4byte	.Ldebug_ranges0+0
 2330 0d40 06       		.byte	0x6
 2331 0d41 A901     		.2byte	0x1a9
 2332 0d43 30       		.uleb128 0x30
 2333 0d44 9B0A0000 		.4byte	0xa9b
 2334 0d48 02000000 		.4byte	.LBB164
 2335 0d4c 00000000 		.4byte	.Ldebug_ranges0+0
 2336 0d50 14       		.byte	0x14
 2337 0d51 2B01     		.2byte	0x12b
 2338 0d53 30       		.uleb128 0x30
 2339 0d54 750A0000 		.4byte	0xa75
 2340 0d58 02000000 		.4byte	.LBB165
 2341 0d5c 00000000 		.4byte	.Ldebug_ranges0+0
 2342 0d60 0D       		.byte	0xd
 2343 0d61 BE01     		.2byte	0x1be
 2344 0d63 31       		.uleb128 0x31
 2345 0d64 820A0000 		.4byte	0xa82
 2346 0d68 20       		.byte	0x20
 2347 0d69 00       		.byte	0
 2348 0d6a 00       		.byte	0
 2349 0d6b 00       		.byte	0
 2350 0d6c 00       		.byte	0
 2351 0d6d 29       		.uleb128 0x29
 2352 0d6e 930B0000 		.4byte	0xb93
 2353 0d72 14000000 		.4byte	.LBB172
 2354 0d76 08000000 		.4byte	.LBE172-.LBB172
 2355 0d7a 01       		.byte	0x1
 2356 0d7b 6C       		.byte	0x6c
 2357 0d7c C90D0000 		.4byte	0xdc9
 2358 0d80 2B       		.uleb128 0x2b
 2359 0d81 E20A0000 		.4byte	0xae2
 2360 0d85 14000000 		.4byte	.LBB173
 2361 0d89 08000000 		.4byte	.LBE173-.LBB173
 2362 0d8d 06       		.byte	0x6
 2363 0d8e B401     		.2byte	0x1b4
 2364 0d90 32       		.uleb128 0x32
 2365 0d91 14000000 		.4byte	.LBB174
 2366 0d95 08000000 		.4byte	.LBE174-.LBB174
 2367 0d99 33       		.uleb128 0x33
 2368 0d9a EF0A0000 		.4byte	0xaef
 2369 0d9e 2B       		.uleb128 0x2b
 2370 0d9f A40A0000 		.4byte	0xaa4
 2371 0da3 14000000 		.4byte	.LBB175
 2372 0da7 08000000 		.4byte	.LBE175-.LBB175
 2373 0dab 14       		.byte	0x14
 2374 0dac 4101     		.2byte	0x141
 2375 0dae 2B       		.uleb128 0x2b
 2376 0daf 750A0000 		.4byte	0xa75
 2377 0db3 14000000 		.4byte	.LBB176
 2378 0db7 08000000 		.4byte	.LBE176-.LBB176
 2379 0dbb 0D       		.byte	0xd
 2380 0dbc CC01     		.2byte	0x1cc
 2381 0dbe 31       		.uleb128 0x31
 2382 0dbf 820A0000 		.4byte	0xa82
ARM GAS  C:\Users\jo\AppData\Local\Temp\ccMscRHh.s 			page 43


 2383 0dc3 00       		.byte	0
 2384 0dc4 00       		.byte	0
 2385 0dc5 00       		.byte	0
 2386 0dc6 00       		.byte	0
 2387 0dc7 00       		.byte	0
 2388 0dc8 00       		.byte	0
 2389 0dc9 34       		.uleb128 0x34
 2390 0dca 10000000 		.4byte	.LVL6
 2391 0dce A8140000 		.4byte	0x14a8
 2392 0dd2 35       		.uleb128 0x35
 2393 0dd3 01       		.uleb128 0x1
 2394 0dd4 50       		.byte	0x50
 2395 0dd5 02       		.uleb128 0x2
 2396 0dd6 74       		.byte	0x74
 2397 0dd7 00       		.sleb128 0
 2398 0dd8 00       		.byte	0
 2399 0dd9 00       		.byte	0
 2400 0dda 10       		.uleb128 0x10
 2401 0ddb FF060000 		.4byte	0x6ff
 2402 0ddf EA0D0000 		.4byte	0xdea
 2403 0de3 11       		.uleb128 0x11
 2404 0de4 40040000 		.4byte	0x440
 2405 0de8 08       		.byte	0x8
 2406 0de9 00       		.byte	0
 2407 0dea 15       		.uleb128 0x15
 2408 0deb DA0D0000 		.4byte	0xdda
 2409 0def 26       		.uleb128 0x26
 2410 0df0 AC080000 		.4byte	.LASF168
 2411 0df4 01       		.byte	0x1
 2412 0df5 76       		.byte	0x76
 2413 0df6 00000000 		.4byte	.LFB258
 2414 0dfa 1A000000 		.4byte	.LFE258-.LFB258
 2415 0dfe 01       		.uleb128 0x1
 2416 0dff 9C       		.byte	0x9c
 2417 0e00 D60E0000 		.4byte	0xed6
 2418 0e04 2D       		.uleb128 0x2d
 2419 0e05 60060000 		.4byte	.LASF167
 2420 0e09 01       		.byte	0x1
 2421 0e0a 76       		.byte	0x76
 2422 0e0b DE0C0000 		.4byte	0xcde
 2423 0e0f 3F000000 		.4byte	.LLST2
 2424 0e13 2E       		.uleb128 0x2e
 2425 0e14 88060000 		.4byte	.LASF169
 2426 0e18 D60E0000 		.4byte	0xed6
 2427 0e1c 2F       		.uleb128 0x2f
 2428 0e1d 8A0B0000 		.4byte	0xb8a
 2429 0e21 02000000 		.4byte	.LBB178
 2430 0e25 18000000 		.4byte	.Ldebug_ranges0+0x18
 2431 0e29 01       		.byte	0x1
 2432 0e2a 7A       		.byte	0x7a
 2433 0e2b 690E0000 		.4byte	0xe69
 2434 0e2f 30       		.uleb128 0x30
 2435 0e30 D90A0000 		.4byte	0xad9
 2436 0e34 02000000 		.4byte	.LBB179
 2437 0e38 18000000 		.4byte	.Ldebug_ranges0+0x18
 2438 0e3c 06       		.byte	0x6
 2439 0e3d A901     		.2byte	0x1a9
ARM GAS  C:\Users\jo\AppData\Local\Temp\ccMscRHh.s 			page 44


 2440 0e3f 30       		.uleb128 0x30
 2441 0e40 9B0A0000 		.4byte	0xa9b
 2442 0e44 02000000 		.4byte	.LBB180
 2443 0e48 18000000 		.4byte	.Ldebug_ranges0+0x18
 2444 0e4c 14       		.byte	0x14
 2445 0e4d 2B01     		.2byte	0x12b
 2446 0e4f 30       		.uleb128 0x30
 2447 0e50 750A0000 		.4byte	0xa75
 2448 0e54 02000000 		.4byte	.LBB181
 2449 0e58 18000000 		.4byte	.Ldebug_ranges0+0x18
 2450 0e5c 0D       		.byte	0xd
 2451 0e5d BE01     		.2byte	0x1be
 2452 0e5f 31       		.uleb128 0x31
 2453 0e60 820A0000 		.4byte	0xa82
 2454 0e64 20       		.byte	0x20
 2455 0e65 00       		.byte	0
 2456 0e66 00       		.byte	0
 2457 0e67 00       		.byte	0
 2458 0e68 00       		.byte	0
 2459 0e69 29       		.uleb128 0x29
 2460 0e6a 930B0000 		.4byte	0xb93
 2461 0e6e 12000000 		.4byte	.LBB188
 2462 0e72 08000000 		.4byte	.LBE188-.LBB188
 2463 0e76 01       		.byte	0x1
 2464 0e77 7F       		.byte	0x7f
 2465 0e78 C50E0000 		.4byte	0xec5
 2466 0e7c 2B       		.uleb128 0x2b
 2467 0e7d E20A0000 		.4byte	0xae2
 2468 0e81 12000000 		.4byte	.LBB189
 2469 0e85 08000000 		.4byte	.LBE189-.LBB189
 2470 0e89 06       		.byte	0x6
 2471 0e8a B401     		.2byte	0x1b4
 2472 0e8c 32       		.uleb128 0x32
 2473 0e8d 12000000 		.4byte	.LBB190
 2474 0e91 08000000 		.4byte	.LBE190-.LBB190
 2475 0e95 33       		.uleb128 0x33
 2476 0e96 EF0A0000 		.4byte	0xaef
 2477 0e9a 2B       		.uleb128 0x2b
 2478 0e9b A40A0000 		.4byte	0xaa4
 2479 0e9f 12000000 		.4byte	.LBB191
 2480 0ea3 08000000 		.4byte	.LBE191-.LBB191
 2481 0ea7 14       		.byte	0x14
 2482 0ea8 4101     		.2byte	0x141
 2483 0eaa 2B       		.uleb128 0x2b
 2484 0eab 750A0000 		.4byte	0xa75
 2485 0eaf 12000000 		.4byte	.LBB192
 2486 0eb3 08000000 		.4byte	.LBE192-.LBB192
 2487 0eb7 0D       		.byte	0xd
 2488 0eb8 CC01     		.2byte	0x1cc
 2489 0eba 31       		.uleb128 0x31
 2490 0ebb 820A0000 		.4byte	0xa82
 2491 0ebf 00       		.byte	0
 2492 0ec0 00       		.byte	0
 2493 0ec1 00       		.byte	0
 2494 0ec2 00       		.byte	0
 2495 0ec3 00       		.byte	0
 2496 0ec4 00       		.byte	0
ARM GAS  C:\Users\jo\AppData\Local\Temp\ccMscRHh.s 			page 45


 2497 0ec5 34       		.uleb128 0x34
 2498 0ec6 0E000000 		.4byte	.LVL9
 2499 0eca BA140000 		.4byte	0x14ba
 2500 0ece 35       		.uleb128 0x35
 2501 0ecf 01       		.uleb128 0x1
 2502 0ed0 50       		.byte	0x50
 2503 0ed1 02       		.uleb128 0x2
 2504 0ed2 74       		.byte	0x74
 2505 0ed3 00       		.sleb128 0
 2506 0ed4 00       		.byte	0
 2507 0ed5 00       		.byte	0
 2508 0ed6 15       		.uleb128 0x15
 2509 0ed7 21070000 		.4byte	0x721
 2510 0edb 36       		.uleb128 0x36
 2511 0edc 92080000 		.4byte	.LASF171
 2512 0ee0 01       		.byte	0x1
 2513 0ee1 95       		.byte	0x95
 2514 0ee2 0F010000 		.4byte	0x10f
 2515 0ee6 00000000 		.4byte	.LFB259
 2516 0eea 5A000000 		.4byte	.LFE259-.LFB259
 2517 0eee 01       		.uleb128 0x1
 2518 0eef 9C       		.byte	0x9c
 2519 0ef0 26110000 		.4byte	0x1126
 2520 0ef4 2D       		.uleb128 0x2d
 2521 0ef5 60060000 		.4byte	.LASF167
 2522 0ef9 01       		.byte	0x1
 2523 0efa 95       		.byte	0x95
 2524 0efb DE0C0000 		.4byte	0xcde
 2525 0eff 5D000000 		.4byte	.LLST3
 2526 0f03 37       		.uleb128 0x37
 2527 0f04 74647000 		.ascii	"tdp\000"
 2528 0f08 01       		.byte	0x1
 2529 0f09 96       		.byte	0x96
 2530 0f0a 26110000 		.4byte	0x1126
 2531 0f0e 7B000000 		.4byte	.LLST4
 2532 0f12 2D       		.uleb128 0x2d
 2533 0f13 4D080000 		.4byte	.LASF163
 2534 0f17 01       		.byte	0x1
 2535 0f18 97       		.byte	0x97
 2536 0f19 30010000 		.4byte	0x130
 2537 0f1d 99000000 		.4byte	.LLST5
 2538 0f21 38       		.uleb128 0x38
 2539 0f22 6D736700 		.ascii	"msg\000"
 2540 0f26 01       		.byte	0x1
 2541 0f27 98       		.byte	0x98
 2542 0f28 0F010000 		.4byte	0x10f
 2543 0f2c B7000000 		.4byte	.LLST6
 2544 0f30 39       		.uleb128 0x39
 2545 0f31 6E6F7700 		.ascii	"now\000"
 2546 0f35 01       		.byte	0x1
 2547 0f36 99       		.byte	0x99
 2548 0f37 30010000 		.4byte	0x130
 2549 0f3b 2E       		.uleb128 0x2e
 2550 0f3c 88060000 		.4byte	.LASF169
 2551 0f40 2C110000 		.4byte	0x112c
 2552 0f44 2F       		.uleb128 0x2f
 2553 0f45 8A0B0000 		.4byte	0xb8a
ARM GAS  C:\Users\jo\AppData\Local\Temp\ccMscRHh.s 			page 46


 2554 0f49 0E000000 		.4byte	.LBB194
 2555 0f4d 30000000 		.4byte	.Ldebug_ranges0+0x30
 2556 0f51 01       		.byte	0x1
 2557 0f52 A0       		.byte	0xa0
 2558 0f53 940F0000 		.4byte	0xf94
 2559 0f57 30       		.uleb128 0x30
 2560 0f58 D90A0000 		.4byte	0xad9
 2561 0f5c 0E000000 		.4byte	.LBB195
 2562 0f60 30000000 		.4byte	.Ldebug_ranges0+0x30
 2563 0f64 06       		.byte	0x6
 2564 0f65 A901     		.2byte	0x1a9
 2565 0f67 30       		.uleb128 0x30
 2566 0f68 9B0A0000 		.4byte	0xa9b
 2567 0f6c 0E000000 		.4byte	.LBB196
 2568 0f70 30000000 		.4byte	.Ldebug_ranges0+0x30
 2569 0f74 14       		.byte	0x14
 2570 0f75 2B01     		.2byte	0x12b
 2571 0f77 30       		.uleb128 0x30
 2572 0f78 750A0000 		.4byte	0xa75
 2573 0f7c 0E000000 		.4byte	.LBB197
 2574 0f80 30000000 		.4byte	.Ldebug_ranges0+0x30
 2575 0f84 0D       		.byte	0xd
 2576 0f85 BE01     		.2byte	0x1be
 2577 0f87 3A       		.uleb128 0x3a
 2578 0f88 820A0000 		.4byte	0xa82
 2579 0f8c D5000000 		.4byte	.LLST7
 2580 0f90 00       		.byte	0
 2581 0f91 00       		.byte	0
 2582 0f92 00       		.byte	0
 2583 0f93 00       		.byte	0
 2584 0f94 2F       		.uleb128 0x2f
 2585 0f95 9C0B0000 		.4byte	0xb9c
 2586 0f99 12000000 		.4byte	.LBB203
 2587 0f9d 48000000 		.4byte	.Ldebug_ranges0+0x48
 2588 0fa1 01       		.byte	0x1
 2589 0fa2 A1       		.byte	0xa1
 2590 0fa3 D80F0000 		.4byte	0xfd8
 2591 0fa7 30       		.uleb128 0x30
 2592 0fa8 120B0000 		.4byte	0xb12
 2593 0fac 12000000 		.4byte	.LBB204
 2594 0fb0 48000000 		.4byte	.Ldebug_ranges0+0x48
 2595 0fb4 06       		.byte	0x6
 2596 0fb5 2602     		.2byte	0x226
 2597 0fb7 3B       		.uleb128 0x3b
 2598 0fb8 AD0A0000 		.4byte	0xaad
 2599 0fbc 12000000 		.4byte	.LBB205
 2600 0fc0 48000000 		.4byte	.Ldebug_ranges0+0x48
 2601 0fc4 15       		.byte	0x15
 2602 0fc5 E7       		.byte	0xe7
 2603 0fc6 3C       		.uleb128 0x3c
 2604 0fc7 8F0A0000 		.4byte	0xa8f
 2605 0fcb 12000000 		.4byte	.LBB206
 2606 0fcf 48000000 		.4byte	.Ldebug_ranges0+0x48
 2607 0fd3 13       		.byte	0x13
 2608 0fd4 6B       		.byte	0x6b
 2609 0fd5 00       		.byte	0
 2610 0fd6 00       		.byte	0
ARM GAS  C:\Users\jo\AppData\Local\Temp\ccMscRHh.s 			page 47


 2611 0fd7 00       		.byte	0
 2612 0fd8 2F       		.uleb128 0x2f
 2613 0fd9 A90B0000 		.4byte	0xba9
 2614 0fdd 1E000000 		.4byte	.LBB213
 2615 0fe1 60000000 		.4byte	.Ldebug_ranges0+0x60
 2616 0fe5 01       		.byte	0x1
 2617 0fe6 A2       		.byte	0xa2
 2618 0fe7 10100000 		.4byte	0x1010
 2619 0feb 3A       		.uleb128 0x3a
 2620 0fec C60B0000 		.4byte	0xbc6
 2621 0ff0 F7000000 		.4byte	.LLST8
 2622 0ff4 3D       		.uleb128 0x3d
 2623 0ff5 BA0B0000 		.4byte	0xbba
 2624 0ff9 34       		.uleb128 0x34
 2625 0ffa 2A000000 		.4byte	.LVL15
 2626 0ffe CC140000 		.4byte	0x14cc
 2627 1002 35       		.uleb128 0x35
 2628 1003 01       		.uleb128 0x1
 2629 1004 51       		.byte	0x51
 2630 1005 02       		.uleb128 0x2
 2631 1006 74       		.byte	0x74
 2632 1007 00       		.sleb128 0
 2633 1008 35       		.uleb128 0x35
 2634 1009 01       		.uleb128 0x1
 2635 100a 50       		.byte	0x50
 2636 100b 02       		.uleb128 0x2
 2637 100c 79       		.byte	0x79
 2638 100d 00       		.sleb128 0
 2639 100e 00       		.byte	0
 2640 100f 00       		.byte	0
 2641 1010 29       		.uleb128 0x29
 2642 1011 9C0B0000 		.4byte	0xb9c
 2643 1015 32000000 		.4byte	.LBB218
 2644 1019 02000000 		.4byte	.LBE218-.LBB218
 2645 101d 01       		.byte	0x1
 2646 101e A8       		.byte	0xa8
 2647 101f 54100000 		.4byte	0x1054
 2648 1023 2B       		.uleb128 0x2b
 2649 1024 120B0000 		.4byte	0xb12
 2650 1028 32000000 		.4byte	.LBB219
 2651 102c 02000000 		.4byte	.LBE219-.LBB219
 2652 1030 06       		.byte	0x6
 2653 1031 2602     		.2byte	0x226
 2654 1033 2C       		.uleb128 0x2c
 2655 1034 AD0A0000 		.4byte	0xaad
 2656 1038 32000000 		.4byte	.LBB220
 2657 103c 02000000 		.4byte	.LBE220-.LBB220
 2658 1040 15       		.byte	0x15
 2659 1041 E7       		.byte	0xe7
 2660 1042 3E       		.uleb128 0x3e
 2661 1043 8F0A0000 		.4byte	0xa8f
 2662 1047 32000000 		.4byte	.LBB221
 2663 104b 02000000 		.4byte	.LBE221-.LBB221
 2664 104f 13       		.byte	0x13
 2665 1050 6B       		.byte	0x6b
 2666 1051 00       		.byte	0
 2667 1052 00       		.byte	0
ARM GAS  C:\Users\jo\AppData\Local\Temp\ccMscRHh.s 			page 48


 2668 1053 00       		.byte	0
 2669 1054 29       		.uleb128 0x29
 2670 1055 930B0000 		.4byte	0xb93
 2671 1059 3A000000 		.4byte	.LBB223
 2672 105d 06000000 		.4byte	.LBE223-.LBB223
 2673 1061 01       		.byte	0x1
 2674 1062 A9       		.byte	0xa9
 2675 1063 B3100000 		.4byte	0x10b3
 2676 1067 2B       		.uleb128 0x2b
 2677 1068 E20A0000 		.4byte	0xae2
 2678 106c 3A000000 		.4byte	.LBB224
 2679 1070 06000000 		.4byte	.LBE224-.LBB224
 2680 1074 06       		.byte	0x6
 2681 1075 B401     		.2byte	0x1b4
 2682 1077 32       		.uleb128 0x32
 2683 1078 3A000000 		.4byte	.LBB225
 2684 107c 06000000 		.4byte	.LBE225-.LBB225
 2685 1080 33       		.uleb128 0x33
 2686 1081 EF0A0000 		.4byte	0xaef
 2687 1085 2B       		.uleb128 0x2b
 2688 1086 A40A0000 		.4byte	0xaa4
 2689 108a 3A000000 		.4byte	.LBB226
 2690 108e 06000000 		.4byte	.LBE226-.LBB226
 2691 1092 14       		.byte	0x14
 2692 1093 4101     		.2byte	0x141
 2693 1095 2B       		.uleb128 0x2b
 2694 1096 750A0000 		.4byte	0xa75
 2695 109a 3A000000 		.4byte	.LBB227
 2696 109e 06000000 		.4byte	.LBE227-.LBB227
 2697 10a2 0D       		.byte	0xd
 2698 10a3 CC01     		.2byte	0x1cc
 2699 10a5 3A       		.uleb128 0x3a
 2700 10a6 820A0000 		.4byte	0xa82
 2701 10aa 20010000 		.4byte	.LLST9
 2702 10ae 00       		.byte	0
 2703 10af 00       		.byte	0
 2704 10b0 00       		.byte	0
 2705 10b1 00       		.byte	0
 2706 10b2 00       		.byte	0
 2707 10b3 29       		.uleb128 0x29
 2708 10b4 930B0000 		.4byte	0xb93
 2709 10b8 50000000 		.4byte	.LBB229
 2710 10bc 0A000000 		.4byte	.LBE229-.LBB229
 2711 10c0 01       		.byte	0x1
 2712 10c1 A4       		.byte	0xa4
 2713 10c2 0F110000 		.4byte	0x110f
 2714 10c6 2B       		.uleb128 0x2b
 2715 10c7 E20A0000 		.4byte	0xae2
 2716 10cb 50000000 		.4byte	.LBB230
 2717 10cf 0A000000 		.4byte	.LBE230-.LBB230
 2718 10d3 06       		.byte	0x6
 2719 10d4 B401     		.2byte	0x1b4
 2720 10d6 32       		.uleb128 0x32
 2721 10d7 50000000 		.4byte	.LBB231
 2722 10db 0A000000 		.4byte	.LBE231-.LBB231
 2723 10df 33       		.uleb128 0x33
 2724 10e0 EF0A0000 		.4byte	0xaef
ARM GAS  C:\Users\jo\AppData\Local\Temp\ccMscRHh.s 			page 49


 2725 10e4 2B       		.uleb128 0x2b
 2726 10e5 A40A0000 		.4byte	0xaa4
 2727 10e9 50000000 		.4byte	.LBB232
 2728 10ed 0A000000 		.4byte	.LBE232-.LBB232
 2729 10f1 14       		.byte	0x14
 2730 10f2 4101     		.2byte	0x141
 2731 10f4 2B       		.uleb128 0x2b
 2732 10f5 750A0000 		.4byte	0xa75
 2733 10f9 50000000 		.4byte	.LBB233
 2734 10fd 0A000000 		.4byte	.LBE233-.LBB233
 2735 1101 0D       		.byte	0xd
 2736 1102 CC01     		.2byte	0x1cc
 2737 1104 31       		.uleb128 0x31
 2738 1105 820A0000 		.4byte	0xa82
 2739 1109 00       		.byte	0
 2740 110a 00       		.byte	0
 2741 110b 00       		.byte	0
 2742 110c 00       		.byte	0
 2743 110d 00       		.byte	0
 2744 110e 00       		.byte	0
 2745 110f 34       		.uleb128 0x34
 2746 1110 48000000 		.4byte	.LVL18
 2747 1114 E6140000 		.4byte	0x14e6
 2748 1118 35       		.uleb128 0x35
 2749 1119 01       		.uleb128 0x1
 2750 111a 51       		.byte	0x51
 2751 111b 02       		.uleb128 0x2
 2752 111c 77       		.byte	0x77
 2753 111d 00       		.sleb128 0
 2754 111e 35       		.uleb128 0x35
 2755 111f 01       		.uleb128 0x1
 2756 1120 50       		.byte	0x50
 2757 1121 02       		.uleb128 0x2
 2758 1122 76       		.byte	0x76
 2759 1123 00       		.sleb128 0
 2760 1124 00       		.byte	0
 2761 1125 00       		.byte	0
 2762 1126 0B       		.uleb128 0xb
 2763 1127 04       		.byte	0x4
 2764 1128 2C0A0000 		.4byte	0xa2c
 2765 112c 15       		.uleb128 0x15
 2766 112d 11070000 		.4byte	0x711
 2767 1131 26       		.uleb128 0x26
 2768 1132 5B000000 		.4byte	.LASF170
 2769 1136 01       		.byte	0x1
 2770 1137 B6       		.byte	0xb6
 2771 1138 00000000 		.4byte	.LFB260
 2772 113c 04000000 		.4byte	.LFE260-.LFB260
 2773 1140 01       		.uleb128 0x1
 2774 1141 9C       		.byte	0x9c
 2775 1142 70110000 		.4byte	0x1170
 2776 1146 37       		.uleb128 0x37
 2777 1147 74647000 		.ascii	"tdp\000"
 2778 114b 01       		.byte	0x1
 2779 114c B6       		.byte	0xb6
 2780 114d 26110000 		.4byte	0x1126
 2781 1151 34010000 		.4byte	.LLST10
ARM GAS  C:\Users\jo\AppData\Local\Temp\ccMscRHh.s 			page 50


 2782 1155 2E       		.uleb128 0x2e
 2783 1156 88060000 		.4byte	.LASF169
 2784 115a 80110000 		.4byte	0x1180
 2785 115e 3F       		.uleb128 0x3f
 2786 115f 04000000 		.4byte	.LVL21
 2787 1163 01150000 		.4byte	0x1501
 2788 1167 35       		.uleb128 0x35
 2789 1168 01       		.uleb128 0x1
 2790 1169 50       		.byte	0x50
 2791 116a 03       		.uleb128 0x3
 2792 116b F3       		.byte	0xf3
 2793 116c 01       		.uleb128 0x1
 2794 116d 50       		.byte	0x50
 2795 116e 00       		.byte	0
 2796 116f 00       		.byte	0
 2797 1170 10       		.uleb128 0x10
 2798 1171 FF060000 		.4byte	0x6ff
 2799 1175 80110000 		.4byte	0x1180
 2800 1179 11       		.uleb128 0x11
 2801 117a 40040000 		.4byte	0x440
 2802 117e 1C       		.byte	0x1c
 2803 117f 00       		.byte	0
 2804 1180 15       		.uleb128 0x15
 2805 1181 70110000 		.4byte	0x1170
 2806 1185 36       		.uleb128 0x36
 2807 1186 BE030000 		.4byte	.LASF172
 2808 118a 01       		.byte	0x1
 2809 118b D0       		.byte	0xd0
 2810 118c 0F010000 		.4byte	0x10f
 2811 1190 00000000 		.4byte	.LFB261
 2812 1194 5A000000 		.4byte	.LFE261-.LFB261
 2813 1198 01       		.uleb128 0x1
 2814 1199 9C       		.byte	0x9c
 2815 119a D0130000 		.4byte	0x13d0
 2816 119e 2D       		.uleb128 0x2d
 2817 119f 60060000 		.4byte	.LASF167
 2818 11a3 01       		.byte	0x1
 2819 11a4 D0       		.byte	0xd0
 2820 11a5 DE0C0000 		.4byte	0xcde
 2821 11a9 55010000 		.4byte	.LLST11
 2822 11ad 37       		.uleb128 0x37
 2823 11ae 72647000 		.ascii	"rdp\000"
 2824 11b2 01       		.byte	0x1
 2825 11b3 D1       		.byte	0xd1
 2826 11b4 D0130000 		.4byte	0x13d0
 2827 11b8 73010000 		.4byte	.LLST12
 2828 11bc 2D       		.uleb128 0x2d
 2829 11bd 4D080000 		.4byte	.LASF163
 2830 11c1 01       		.byte	0x1
 2831 11c2 D2       		.byte	0xd2
 2832 11c3 30010000 		.4byte	0x130
 2833 11c7 91010000 		.4byte	.LLST13
 2834 11cb 38       		.uleb128 0x38
 2835 11cc 6D736700 		.ascii	"msg\000"
 2836 11d0 01       		.byte	0x1
 2837 11d1 D3       		.byte	0xd3
 2838 11d2 0F010000 		.4byte	0x10f
ARM GAS  C:\Users\jo\AppData\Local\Temp\ccMscRHh.s 			page 51


 2839 11d6 AF010000 		.4byte	.LLST14
 2840 11da 39       		.uleb128 0x39
 2841 11db 6E6F7700 		.ascii	"now\000"
 2842 11df 01       		.byte	0x1
 2843 11e0 D4       		.byte	0xd4
 2844 11e1 30010000 		.4byte	0x130
 2845 11e5 2E       		.uleb128 0x2e
 2846 11e6 88060000 		.4byte	.LASF169
 2847 11ea D6130000 		.4byte	0x13d6
 2848 11ee 2F       		.uleb128 0x2f
 2849 11ef 8A0B0000 		.4byte	0xb8a
 2850 11f3 0E000000 		.4byte	.LBB235
 2851 11f7 78000000 		.4byte	.Ldebug_ranges0+0x78
 2852 11fb 01       		.byte	0x1
 2853 11fc DB       		.byte	0xdb
 2854 11fd 3E120000 		.4byte	0x123e
 2855 1201 30       		.uleb128 0x30
 2856 1202 D90A0000 		.4byte	0xad9
 2857 1206 0E000000 		.4byte	.LBB236
 2858 120a 78000000 		.4byte	.Ldebug_ranges0+0x78
 2859 120e 06       		.byte	0x6
 2860 120f A901     		.2byte	0x1a9
 2861 1211 30       		.uleb128 0x30
 2862 1212 9B0A0000 		.4byte	0xa9b
 2863 1216 0E000000 		.4byte	.LBB237
 2864 121a 78000000 		.4byte	.Ldebug_ranges0+0x78
 2865 121e 14       		.byte	0x14
 2866 121f 2B01     		.2byte	0x12b
 2867 1221 30       		.uleb128 0x30
 2868 1222 750A0000 		.4byte	0xa75
 2869 1226 0E000000 		.4byte	.LBB238
 2870 122a 78000000 		.4byte	.Ldebug_ranges0+0x78
 2871 122e 0D       		.byte	0xd
 2872 122f BE01     		.2byte	0x1be
 2873 1231 3A       		.uleb128 0x3a
 2874 1232 820A0000 		.4byte	0xa82
 2875 1236 CD010000 		.4byte	.LLST15
 2876 123a 00       		.byte	0
 2877 123b 00       		.byte	0
 2878 123c 00       		.byte	0
 2879 123d 00       		.byte	0
 2880 123e 2F       		.uleb128 0x2f
 2881 123f 9C0B0000 		.4byte	0xb9c
 2882 1243 12000000 		.4byte	.LBB244
 2883 1247 90000000 		.4byte	.Ldebug_ranges0+0x90
 2884 124b 01       		.byte	0x1
 2885 124c DC       		.byte	0xdc
 2886 124d 82120000 		.4byte	0x1282
 2887 1251 30       		.uleb128 0x30
 2888 1252 120B0000 		.4byte	0xb12
 2889 1256 12000000 		.4byte	.LBB245
 2890 125a 90000000 		.4byte	.Ldebug_ranges0+0x90
 2891 125e 06       		.byte	0x6
 2892 125f 2602     		.2byte	0x226
 2893 1261 3B       		.uleb128 0x3b
 2894 1262 AD0A0000 		.4byte	0xaad
 2895 1266 12000000 		.4byte	.LBB246
ARM GAS  C:\Users\jo\AppData\Local\Temp\ccMscRHh.s 			page 52


 2896 126a 90000000 		.4byte	.Ldebug_ranges0+0x90
 2897 126e 15       		.byte	0x15
 2898 126f E7       		.byte	0xe7
 2899 1270 3C       		.uleb128 0x3c
 2900 1271 8F0A0000 		.4byte	0xa8f
 2901 1275 12000000 		.4byte	.LBB247
 2902 1279 90000000 		.4byte	.Ldebug_ranges0+0x90
 2903 127d 13       		.byte	0x13
 2904 127e 6B       		.byte	0x6b
 2905 127f 00       		.byte	0
 2906 1280 00       		.byte	0
 2907 1281 00       		.byte	0
 2908 1282 2F       		.uleb128 0x2f
 2909 1283 A90B0000 		.4byte	0xba9
 2910 1287 1E000000 		.4byte	.LBB254
 2911 128b A8000000 		.4byte	.Ldebug_ranges0+0xa8
 2912 128f 01       		.byte	0x1
 2913 1290 DD       		.byte	0xdd
 2914 1291 BA120000 		.4byte	0x12ba
 2915 1295 3A       		.uleb128 0x3a
 2916 1296 C60B0000 		.4byte	0xbc6
 2917 129a EF010000 		.4byte	.LLST16
 2918 129e 3D       		.uleb128 0x3d
 2919 129f BA0B0000 		.4byte	0xbba
 2920 12a3 34       		.uleb128 0x34
 2921 12a4 2A000000 		.4byte	.LVL26
 2922 12a8 CC140000 		.4byte	0x14cc
 2923 12ac 35       		.uleb128 0x35
 2924 12ad 01       		.uleb128 0x1
 2925 12ae 51       		.byte	0x51
 2926 12af 02       		.uleb128 0x2
 2927 12b0 74       		.byte	0x74
 2928 12b1 00       		.sleb128 0
 2929 12b2 35       		.uleb128 0x35
 2930 12b3 01       		.uleb128 0x1
 2931 12b4 50       		.byte	0x50
 2932 12b5 02       		.uleb128 0x2
 2933 12b6 79       		.byte	0x79
 2934 12b7 00       		.sleb128 0
 2935 12b8 00       		.byte	0
 2936 12b9 00       		.byte	0
 2937 12ba 29       		.uleb128 0x29
 2938 12bb 9C0B0000 		.4byte	0xb9c
 2939 12bf 32000000 		.4byte	.LBB259
 2940 12c3 02000000 		.4byte	.LBE259-.LBB259
 2941 12c7 01       		.byte	0x1
 2942 12c8 E3       		.byte	0xe3
 2943 12c9 FE120000 		.4byte	0x12fe
 2944 12cd 2B       		.uleb128 0x2b
 2945 12ce 120B0000 		.4byte	0xb12
 2946 12d2 32000000 		.4byte	.LBB260
 2947 12d6 02000000 		.4byte	.LBE260-.LBB260
 2948 12da 06       		.byte	0x6
 2949 12db 2602     		.2byte	0x226
 2950 12dd 2C       		.uleb128 0x2c
 2951 12de AD0A0000 		.4byte	0xaad
 2952 12e2 32000000 		.4byte	.LBB261
ARM GAS  C:\Users\jo\AppData\Local\Temp\ccMscRHh.s 			page 53


 2953 12e6 02000000 		.4byte	.LBE261-.LBB261
 2954 12ea 15       		.byte	0x15
 2955 12eb E7       		.byte	0xe7
 2956 12ec 3E       		.uleb128 0x3e
 2957 12ed 8F0A0000 		.4byte	0xa8f
 2958 12f1 32000000 		.4byte	.LBB262
 2959 12f5 02000000 		.4byte	.LBE262-.LBB262
 2960 12f9 13       		.byte	0x13
 2961 12fa 6B       		.byte	0x6b
 2962 12fb 00       		.byte	0
 2963 12fc 00       		.byte	0
 2964 12fd 00       		.byte	0
 2965 12fe 29       		.uleb128 0x29
 2966 12ff 930B0000 		.4byte	0xb93
 2967 1303 3A000000 		.4byte	.LBB264
 2968 1307 06000000 		.4byte	.LBE264-.LBB264
 2969 130b 01       		.byte	0x1
 2970 130c E4       		.byte	0xe4
 2971 130d 5D130000 		.4byte	0x135d
 2972 1311 2B       		.uleb128 0x2b
 2973 1312 E20A0000 		.4byte	0xae2
 2974 1316 3A000000 		.4byte	.LBB265
 2975 131a 06000000 		.4byte	.LBE265-.LBB265
 2976 131e 06       		.byte	0x6
 2977 131f B401     		.2byte	0x1b4
 2978 1321 32       		.uleb128 0x32
 2979 1322 3A000000 		.4byte	.LBB266
 2980 1326 06000000 		.4byte	.LBE266-.LBB266
 2981 132a 33       		.uleb128 0x33
 2982 132b EF0A0000 		.4byte	0xaef
 2983 132f 2B       		.uleb128 0x2b
 2984 1330 A40A0000 		.4byte	0xaa4
 2985 1334 3A000000 		.4byte	.LBB267
 2986 1338 06000000 		.4byte	.LBE267-.LBB267
 2987 133c 14       		.byte	0x14
 2988 133d 4101     		.2byte	0x141
 2989 133f 2B       		.uleb128 0x2b
 2990 1340 750A0000 		.4byte	0xa75
 2991 1344 3A000000 		.4byte	.LBB268
 2992 1348 06000000 		.4byte	.LBE268-.LBB268
 2993 134c 0D       		.byte	0xd
 2994 134d CC01     		.2byte	0x1cc
 2995 134f 3A       		.uleb128 0x3a
 2996 1350 820A0000 		.4byte	0xa82
 2997 1354 18020000 		.4byte	.LLST17
 2998 1358 00       		.byte	0
 2999 1359 00       		.byte	0
 3000 135a 00       		.byte	0
 3001 135b 00       		.byte	0
 3002 135c 00       		.byte	0
 3003 135d 29       		.uleb128 0x29
 3004 135e 930B0000 		.4byte	0xb93
 3005 1362 50000000 		.4byte	.LBB270
 3006 1366 0A000000 		.4byte	.LBE270-.LBB270
 3007 136a 01       		.byte	0x1
 3008 136b DF       		.byte	0xdf
 3009 136c B9130000 		.4byte	0x13b9
ARM GAS  C:\Users\jo\AppData\Local\Temp\ccMscRHh.s 			page 54


 3010 1370 2B       		.uleb128 0x2b
 3011 1371 E20A0000 		.4byte	0xae2
 3012 1375 50000000 		.4byte	.LBB271
 3013 1379 0A000000 		.4byte	.LBE271-.LBB271
 3014 137d 06       		.byte	0x6
 3015 137e B401     		.2byte	0x1b4
 3016 1380 32       		.uleb128 0x32
 3017 1381 50000000 		.4byte	.LBB272
 3018 1385 0A000000 		.4byte	.LBE272-.LBB272
 3019 1389 33       		.uleb128 0x33
 3020 138a EF0A0000 		.4byte	0xaef
 3021 138e 2B       		.uleb128 0x2b
 3022 138f A40A0000 		.4byte	0xaa4
 3023 1393 50000000 		.4byte	.LBB273
 3024 1397 0A000000 		.4byte	.LBE273-.LBB273
 3025 139b 14       		.byte	0x14
 3026 139c 4101     		.2byte	0x141
 3027 139e 2B       		.uleb128 0x2b
 3028 139f 750A0000 		.4byte	0xa75
 3029 13a3 50000000 		.4byte	.LBB274
 3030 13a7 0A000000 		.4byte	.LBE274-.LBB274
 3031 13ab 0D       		.byte	0xd
 3032 13ac CC01     		.2byte	0x1cc
 3033 13ae 31       		.uleb128 0x31
 3034 13af 820A0000 		.4byte	0xa82
 3035 13b3 00       		.byte	0
 3036 13b4 00       		.byte	0
 3037 13b5 00       		.byte	0
 3038 13b6 00       		.byte	0
 3039 13b7 00       		.byte	0
 3040 13b8 00       		.byte	0
 3041 13b9 34       		.uleb128 0x34
 3042 13ba 48000000 		.4byte	.LVL29
 3043 13be 13150000 		.4byte	0x1513
 3044 13c2 35       		.uleb128 0x35
 3045 13c3 01       		.uleb128 0x1
 3046 13c4 51       		.byte	0x51
 3047 13c5 02       		.uleb128 0x2
 3048 13c6 77       		.byte	0x77
 3049 13c7 00       		.sleb128 0
 3050 13c8 35       		.uleb128 0x35
 3051 13c9 01       		.uleb128 0x1
 3052 13ca 50       		.byte	0x50
 3053 13cb 02       		.uleb128 0x2
 3054 13cc 76       		.byte	0x76
 3055 13cd 00       		.sleb128 0
 3056 13ce 00       		.byte	0
 3057 13cf 00       		.byte	0
 3058 13d0 0B       		.uleb128 0xb
 3059 13d1 04       		.byte	0x4
 3060 13d2 690A0000 		.4byte	0xa69
 3061 13d6 15       		.uleb128 0x15
 3062 13d7 31070000 		.4byte	0x731
 3063 13db 26       		.uleb128 0x26
 3064 13dc 61080000 		.4byte	.LASF173
 3065 13e0 01       		.byte	0x1
 3066 13e1 F2       		.byte	0xf2
ARM GAS  C:\Users\jo\AppData\Local\Temp\ccMscRHh.s 			page 55


 3067 13e2 00000000 		.4byte	.LFB262
 3068 13e6 04000000 		.4byte	.LFE262-.LFB262
 3069 13ea 01       		.uleb128 0x1
 3070 13eb 9C       		.byte	0x9c
 3071 13ec 1A140000 		.4byte	0x141a
 3072 13f0 37       		.uleb128 0x37
 3073 13f1 72647000 		.ascii	"rdp\000"
 3074 13f5 01       		.byte	0x1
 3075 13f6 F2       		.byte	0xf2
 3076 13f7 D0130000 		.4byte	0x13d0
 3077 13fb 2C020000 		.4byte	.LLST18
 3078 13ff 2E       		.uleb128 0x2e
 3079 1400 88060000 		.4byte	.LASF169
 3080 1404 2A140000 		.4byte	0x142a
 3081 1408 3F       		.uleb128 0x3f
 3082 1409 04000000 		.4byte	.LVL32
 3083 140d 2E150000 		.4byte	0x152e
 3084 1411 35       		.uleb128 0x35
 3085 1412 01       		.uleb128 0x1
 3086 1413 50       		.byte	0x50
 3087 1414 03       		.uleb128 0x3
 3088 1415 F3       		.byte	0xf3
 3089 1416 01       		.uleb128 0x1
 3090 1417 50       		.byte	0x50
 3091 1418 00       		.byte	0
 3092 1419 00       		.byte	0
 3093 141a 10       		.uleb128 0x10
 3094 141b FF060000 		.4byte	0x6ff
 3095 141f 2A140000 		.4byte	0x142a
 3096 1423 11       		.uleb128 0x11
 3097 1424 40040000 		.4byte	0x440
 3098 1428 1B       		.byte	0x1b
 3099 1429 00       		.byte	0
 3100 142a 15       		.uleb128 0x15
 3101 142b 1A140000 		.4byte	0x141a
 3102 142f 40       		.uleb128 0x40
 3103 1430 97020000 		.4byte	.LASF174
 3104 1434 01       		.byte	0x1
 3105 1435 0301     		.2byte	0x103
 3106 1437 86080000 		.4byte	0x886
 3107 143b 00000000 		.4byte	.LFB263
 3108 143f 04000000 		.4byte	.LFE263-.LFB263
 3109 1443 01       		.uleb128 0x1
 3110 1444 9C       		.byte	0x9c
 3111 1445 74140000 		.4byte	0x1474
 3112 1449 41       		.uleb128 0x41
 3113 144a 60060000 		.4byte	.LASF167
 3114 144e 01       		.byte	0x1
 3115 144f 0301     		.2byte	0x103
 3116 1451 DE0C0000 		.4byte	0xcde
 3117 1455 4D020000 		.4byte	.LLST19
 3118 1459 2E       		.uleb128 0x2e
 3119 145a 88060000 		.4byte	.LASF169
 3120 145e 84140000 		.4byte	0x1484
 3121 1462 3F       		.uleb128 0x3f
 3122 1463 04000000 		.4byte	.LVL34
 3123 1467 40150000 		.4byte	0x1540
ARM GAS  C:\Users\jo\AppData\Local\Temp\ccMscRHh.s 			page 56


 3124 146b 35       		.uleb128 0x35
 3125 146c 01       		.uleb128 0x1
 3126 146d 50       		.byte	0x50
 3127 146e 03       		.uleb128 0x3
 3128 146f F3       		.byte	0xf3
 3129 1470 01       		.uleb128 0x1
 3130 1471 50       		.byte	0x50
 3131 1472 00       		.byte	0
 3132 1473 00       		.byte	0
 3133 1474 10       		.uleb128 0x10
 3134 1475 FF060000 		.4byte	0x6ff
 3135 1479 84140000 		.4byte	0x1484
 3136 147d 11       		.uleb128 0x11
 3137 147e 40040000 		.4byte	0x440
 3138 1482 11       		.byte	0x11
 3139 1483 00       		.byte	0
 3140 1484 15       		.uleb128 0x15
 3141 1485 74140000 		.4byte	0x1474
 3142 1489 42       		.uleb128 0x42
 3143 148a DA000000 		.4byte	.LASF175
 3144 148e 17       		.byte	0x17
 3145 148f A706     		.2byte	0x6a7
 3146 1491 CE000000 		.4byte	0xce
 3147 1495 43       		.uleb128 0x43
 3148 1496 636800   		.ascii	"ch\000"
 3149 1499 03       		.byte	0x3
 3150 149a EB01     		.2byte	0x1eb
 3151 149c D9030000 		.4byte	0x3d9
 3152 14a0 44       		.uleb128 0x44
 3153 14a1 62020000 		.4byte	.LASF188
 3154 14a5 12       		.byte	0x12
 3155 14a6 4D01     		.2byte	0x14d
 3156 14a8 45       		.uleb128 0x45
 3157 14a9 55090000 		.4byte	.LASF176
 3158 14ad 12       		.byte	0x12
 3159 14ae 4E01     		.2byte	0x14e
 3160 14b0 BA140000 		.4byte	0x14ba
 3161 14b4 0D       		.uleb128 0xd
 3162 14b5 DE0C0000 		.4byte	0xcde
 3163 14b9 00       		.byte	0
 3164 14ba 45       		.uleb128 0x45
 3165 14bb 1C090000 		.4byte	.LASF177
 3166 14bf 12       		.byte	0x12
 3167 14c0 4F01     		.2byte	0x14f
 3168 14c2 CC140000 		.4byte	0x14cc
 3169 14c6 0D       		.uleb128 0xd
 3170 14c7 DE0C0000 		.4byte	0xcde
 3171 14cb 00       		.byte	0
 3172 14cc 46       		.uleb128 0x46
 3173 14cd DB090000 		.4byte	.LASF178
 3174 14d1 16       		.byte	0x16
 3175 14d2 95       		.byte	0x95
 3176 14d3 0F010000 		.4byte	0x10f
 3177 14d7 E6140000 		.4byte	0x14e6
 3178 14db 0D       		.uleb128 0xd
 3179 14dc D30A0000 		.4byte	0xad3
 3180 14e0 0D       		.uleb128 0xd
ARM GAS  C:\Users\jo\AppData\Local\Temp\ccMscRHh.s 			page 57


 3181 14e1 30010000 		.4byte	0x130
 3182 14e5 00       		.byte	0
 3183 14e6 47       		.uleb128 0x47
 3184 14e7 D4070000 		.4byte	.LASF179
 3185 14eb 12       		.byte	0x12
 3186 14ec 5001     		.2byte	0x150
 3187 14ee 0F010000 		.4byte	0x10f
 3188 14f2 01150000 		.4byte	0x1501
 3189 14f6 0D       		.uleb128 0xd
 3190 14f7 DE0C0000 		.4byte	0xcde
 3191 14fb 0D       		.uleb128 0xd
 3192 14fc 26110000 		.4byte	0x1126
 3193 1500 00       		.byte	0
 3194 1501 45       		.uleb128 0x45
 3195 1502 EA030000 		.4byte	.LASF180
 3196 1506 12       		.byte	0x12
 3197 1507 5201     		.2byte	0x152
 3198 1509 13150000 		.4byte	0x1513
 3199 150d 0D       		.uleb128 0xd
 3200 150e 26110000 		.4byte	0x1126
 3201 1512 00       		.byte	0
 3202 1513 47       		.uleb128 0x47
 3203 1514 77070000 		.4byte	.LASF181
 3204 1518 12       		.byte	0x12
 3205 1519 5301     		.2byte	0x153
 3206 151b 0F010000 		.4byte	0x10f
 3207 151f 2E150000 		.4byte	0x152e
 3208 1523 0D       		.uleb128 0xd
 3209 1524 DE0C0000 		.4byte	0xcde
 3210 1528 0D       		.uleb128 0xd
 3211 1529 D0130000 		.4byte	0x13d0
 3212 152d 00       		.byte	0
 3213 152e 45       		.uleb128 0x45
 3214 152f C9010000 		.4byte	.LASF182
 3215 1533 12       		.byte	0x12
 3216 1534 5501     		.2byte	0x155
 3217 1536 40150000 		.4byte	0x1540
 3218 153a 0D       		.uleb128 0xd
 3219 153b D0130000 		.4byte	0x13d0
 3220 153f 00       		.byte	0
 3221 1540 48       		.uleb128 0x48
 3222 1541 29090000 		.4byte	.LASF183
 3223 1545 12       		.byte	0x12
 3224 1546 5601     		.2byte	0x156
 3225 1548 86080000 		.4byte	0x886
 3226 154c 0D       		.uleb128 0xd
 3227 154d DE0C0000 		.4byte	0xcde
 3228 1551 00       		.byte	0
 3229 1552 00       		.byte	0
 3230              		.section	.debug_abbrev,"",%progbits
 3231              	.Ldebug_abbrev0:
 3232 0000 01       		.uleb128 0x1
 3233 0001 11       		.uleb128 0x11
 3234 0002 01       		.byte	0x1
 3235 0003 25       		.uleb128 0x25
 3236 0004 0E       		.uleb128 0xe
 3237 0005 13       		.uleb128 0x13
ARM GAS  C:\Users\jo\AppData\Local\Temp\ccMscRHh.s 			page 58


 3238 0006 0B       		.uleb128 0xb
 3239 0007 03       		.uleb128 0x3
 3240 0008 0E       		.uleb128 0xe
 3241 0009 1B       		.uleb128 0x1b
 3242 000a 0E       		.uleb128 0xe
 3243 000b 55       		.uleb128 0x55
 3244 000c 17       		.uleb128 0x17
 3245 000d 11       		.uleb128 0x11
 3246 000e 01       		.uleb128 0x1
 3247 000f 10       		.uleb128 0x10
 3248 0010 17       		.uleb128 0x17
 3249 0011 00       		.byte	0
 3250 0012 00       		.byte	0
 3251 0013 02       		.uleb128 0x2
 3252 0014 24       		.uleb128 0x24
 3253 0015 00       		.byte	0
 3254 0016 0B       		.uleb128 0xb
 3255 0017 0B       		.uleb128 0xb
 3256 0018 3E       		.uleb128 0x3e
 3257 0019 0B       		.uleb128 0xb
 3258 001a 03       		.uleb128 0x3
 3259 001b 08       		.uleb128 0x8
 3260 001c 00       		.byte	0
 3261 001d 00       		.byte	0
 3262 001e 03       		.uleb128 0x3
 3263 001f 16       		.uleb128 0x16
 3264 0020 00       		.byte	0
 3265 0021 03       		.uleb128 0x3
 3266 0022 0E       		.uleb128 0xe
 3267 0023 3A       		.uleb128 0x3a
 3268 0024 0B       		.uleb128 0xb
 3269 0025 3B       		.uleb128 0x3b
 3270 0026 0B       		.uleb128 0xb
 3271 0027 49       		.uleb128 0x49
 3272 0028 13       		.uleb128 0x13
 3273 0029 00       		.byte	0
 3274 002a 00       		.byte	0
 3275 002b 04       		.uleb128 0x4
 3276 002c 24       		.uleb128 0x24
 3277 002d 00       		.byte	0
 3278 002e 0B       		.uleb128 0xb
 3279 002f 0B       		.uleb128 0xb
 3280 0030 3E       		.uleb128 0x3e
 3281 0031 0B       		.uleb128 0xb
 3282 0032 03       		.uleb128 0x3
 3283 0033 0E       		.uleb128 0xe
 3284 0034 00       		.byte	0
 3285 0035 00       		.byte	0
 3286 0036 05       		.uleb128 0x5
 3287 0037 35       		.uleb128 0x35
 3288 0038 00       		.byte	0
 3289 0039 49       		.uleb128 0x49
 3290 003a 13       		.uleb128 0x13
 3291 003b 00       		.byte	0
 3292 003c 00       		.byte	0
 3293 003d 06       		.uleb128 0x6
 3294 003e 13       		.uleb128 0x13
ARM GAS  C:\Users\jo\AppData\Local\Temp\ccMscRHh.s 			page 59


 3295 003f 01       		.byte	0x1
 3296 0040 03       		.uleb128 0x3
 3297 0041 0E       		.uleb128 0xe
 3298 0042 0B       		.uleb128 0xb
 3299 0043 0B       		.uleb128 0xb
 3300 0044 3A       		.uleb128 0x3a
 3301 0045 0B       		.uleb128 0xb
 3302 0046 3B       		.uleb128 0x3b
 3303 0047 0B       		.uleb128 0xb
 3304 0048 01       		.uleb128 0x1
 3305 0049 13       		.uleb128 0x13
 3306 004a 00       		.byte	0
 3307 004b 00       		.byte	0
 3308 004c 07       		.uleb128 0x7
 3309 004d 0D       		.uleb128 0xd
 3310 004e 00       		.byte	0
 3311 004f 03       		.uleb128 0x3
 3312 0050 0E       		.uleb128 0xe
 3313 0051 3A       		.uleb128 0x3a
 3314 0052 0B       		.uleb128 0xb
 3315 0053 3B       		.uleb128 0x3b
 3316 0054 0B       		.uleb128 0xb
 3317 0055 49       		.uleb128 0x49
 3318 0056 13       		.uleb128 0x13
 3319 0057 38       		.uleb128 0x38
 3320 0058 0B       		.uleb128 0xb
 3321 0059 00       		.byte	0
 3322 005a 00       		.byte	0
 3323 005b 08       		.uleb128 0x8
 3324 005c 0D       		.uleb128 0xd
 3325 005d 00       		.byte	0
 3326 005e 03       		.uleb128 0x3
 3327 005f 08       		.uleb128 0x8
 3328 0060 3A       		.uleb128 0x3a
 3329 0061 0B       		.uleb128 0xb
 3330 0062 3B       		.uleb128 0x3b
 3331 0063 05       		.uleb128 0x5
 3332 0064 49       		.uleb128 0x49
 3333 0065 13       		.uleb128 0x13
 3334 0066 38       		.uleb128 0x38
 3335 0067 0B       		.uleb128 0xb
 3336 0068 00       		.byte	0
 3337 0069 00       		.byte	0
 3338 006a 09       		.uleb128 0x9
 3339 006b 0D       		.uleb128 0xd
 3340 006c 00       		.byte	0
 3341 006d 03       		.uleb128 0x3
 3342 006e 0E       		.uleb128 0xe
 3343 006f 3A       		.uleb128 0x3a
 3344 0070 0B       		.uleb128 0xb
 3345 0071 3B       		.uleb128 0x3b
 3346 0072 05       		.uleb128 0x5
 3347 0073 49       		.uleb128 0x49
 3348 0074 13       		.uleb128 0x13
 3349 0075 38       		.uleb128 0x38
 3350 0076 0B       		.uleb128 0xb
 3351 0077 00       		.byte	0
ARM GAS  C:\Users\jo\AppData\Local\Temp\ccMscRHh.s 			page 60


 3352 0078 00       		.byte	0
 3353 0079 0A       		.uleb128 0xa
 3354 007a 13       		.uleb128 0x13
 3355 007b 01       		.byte	0x1
 3356 007c 03       		.uleb128 0x3
 3357 007d 0E       		.uleb128 0xe
 3358 007e 0B       		.uleb128 0xb
 3359 007f 0B       		.uleb128 0xb
 3360 0080 3A       		.uleb128 0x3a
 3361 0081 0B       		.uleb128 0xb
 3362 0082 3B       		.uleb128 0x3b
 3363 0083 05       		.uleb128 0x5
 3364 0084 01       		.uleb128 0x1
 3365 0085 13       		.uleb128 0x13
 3366 0086 00       		.byte	0
 3367 0087 00       		.byte	0
 3368 0088 0B       		.uleb128 0xb
 3369 0089 0F       		.uleb128 0xf
 3370 008a 00       		.byte	0
 3371 008b 0B       		.uleb128 0xb
 3372 008c 0B       		.uleb128 0xb
 3373 008d 49       		.uleb128 0x49
 3374 008e 13       		.uleb128 0x13
 3375 008f 00       		.byte	0
 3376 0090 00       		.byte	0
 3377 0091 0C       		.uleb128 0xc
 3378 0092 15       		.uleb128 0x15
 3379 0093 01       		.byte	0x1
 3380 0094 27       		.uleb128 0x27
 3381 0095 19       		.uleb128 0x19
 3382 0096 01       		.uleb128 0x1
 3383 0097 13       		.uleb128 0x13
 3384 0098 00       		.byte	0
 3385 0099 00       		.byte	0
 3386 009a 0D       		.uleb128 0xd
 3387 009b 05       		.uleb128 0x5
 3388 009c 00       		.byte	0
 3389 009d 49       		.uleb128 0x49
 3390 009e 13       		.uleb128 0x13
 3391 009f 00       		.byte	0
 3392 00a0 00       		.byte	0
 3393 00a1 0E       		.uleb128 0xe
 3394 00a2 0F       		.uleb128 0xf
 3395 00a3 00       		.byte	0
 3396 00a4 0B       		.uleb128 0xb
 3397 00a5 0B       		.uleb128 0xb
 3398 00a6 00       		.byte	0
 3399 00a7 00       		.byte	0
 3400 00a8 0F       		.uleb128 0xf
 3401 00a9 13       		.uleb128 0x13
 3402 00aa 01       		.byte	0x1
 3403 00ab 03       		.uleb128 0x3
 3404 00ac 0E       		.uleb128 0xe
 3405 00ad 0B       		.uleb128 0xb
 3406 00ae 05       		.uleb128 0x5
 3407 00af 3A       		.uleb128 0x3a
 3408 00b0 0B       		.uleb128 0xb
ARM GAS  C:\Users\jo\AppData\Local\Temp\ccMscRHh.s 			page 61


 3409 00b1 3B       		.uleb128 0x3b
 3410 00b2 05       		.uleb128 0x5
 3411 00b3 01       		.uleb128 0x1
 3412 00b4 13       		.uleb128 0x13
 3413 00b5 00       		.byte	0
 3414 00b6 00       		.byte	0
 3415 00b7 10       		.uleb128 0x10
 3416 00b8 01       		.uleb128 0x1
 3417 00b9 01       		.byte	0x1
 3418 00ba 49       		.uleb128 0x49
 3419 00bb 13       		.uleb128 0x13
 3420 00bc 01       		.uleb128 0x1
 3421 00bd 13       		.uleb128 0x13
 3422 00be 00       		.byte	0
 3423 00bf 00       		.byte	0
 3424 00c0 11       		.uleb128 0x11
 3425 00c1 21       		.uleb128 0x21
 3426 00c2 00       		.byte	0
 3427 00c3 49       		.uleb128 0x49
 3428 00c4 13       		.uleb128 0x13
 3429 00c5 2F       		.uleb128 0x2f
 3430 00c6 0B       		.uleb128 0xb
 3431 00c7 00       		.byte	0
 3432 00c8 00       		.byte	0
 3433 00c9 12       		.uleb128 0x12
 3434 00ca 0D       		.uleb128 0xd
 3435 00cb 00       		.byte	0
 3436 00cc 03       		.uleb128 0x3
 3437 00cd 08       		.uleb128 0x8
 3438 00ce 3A       		.uleb128 0x3a
 3439 00cf 0B       		.uleb128 0xb
 3440 00d0 3B       		.uleb128 0x3b
 3441 00d1 0B       		.uleb128 0xb
 3442 00d2 49       		.uleb128 0x49
 3443 00d3 13       		.uleb128 0x13
 3444 00d4 38       		.uleb128 0x38
 3445 00d5 0B       		.uleb128 0xb
 3446 00d6 00       		.byte	0
 3447 00d7 00       		.byte	0
 3448 00d8 13       		.uleb128 0x13
 3449 00d9 13       		.uleb128 0x13
 3450 00da 01       		.byte	0x1
 3451 00db 0B       		.uleb128 0xb
 3452 00dc 0B       		.uleb128 0xb
 3453 00dd 3A       		.uleb128 0x3a
 3454 00de 0B       		.uleb128 0xb
 3455 00df 3B       		.uleb128 0x3b
 3456 00e0 05       		.uleb128 0x5
 3457 00e1 01       		.uleb128 0x1
 3458 00e2 13       		.uleb128 0x13
 3459 00e3 00       		.byte	0
 3460 00e4 00       		.byte	0
 3461 00e5 14       		.uleb128 0x14
 3462 00e6 16       		.uleb128 0x16
 3463 00e7 00       		.byte	0
 3464 00e8 03       		.uleb128 0x3
 3465 00e9 0E       		.uleb128 0xe
ARM GAS  C:\Users\jo\AppData\Local\Temp\ccMscRHh.s 			page 62


 3466 00ea 3A       		.uleb128 0x3a
 3467 00eb 0B       		.uleb128 0xb
 3468 00ec 3B       		.uleb128 0x3b
 3469 00ed 05       		.uleb128 0x5
 3470 00ee 49       		.uleb128 0x49
 3471 00ef 13       		.uleb128 0x13
 3472 00f0 00       		.byte	0
 3473 00f1 00       		.byte	0
 3474 00f2 15       		.uleb128 0x15
 3475 00f3 26       		.uleb128 0x26
 3476 00f4 00       		.byte	0
 3477 00f5 49       		.uleb128 0x49
 3478 00f6 13       		.uleb128 0x13
 3479 00f7 00       		.byte	0
 3480 00f8 00       		.byte	0
 3481 00f9 16       		.uleb128 0x16
 3482 00fa 13       		.uleb128 0x13
 3483 00fb 01       		.byte	0x1
 3484 00fc 0B       		.uleb128 0xb
 3485 00fd 0B       		.uleb128 0xb
 3486 00fe 3A       		.uleb128 0x3a
 3487 00ff 0B       		.uleb128 0xb
 3488 0100 3B       		.uleb128 0x3b
 3489 0101 0B       		.uleb128 0xb
 3490 0102 01       		.uleb128 0x1
 3491 0103 13       		.uleb128 0x13
 3492 0104 00       		.byte	0
 3493 0105 00       		.byte	0
 3494 0106 17       		.uleb128 0x17
 3495 0107 17       		.uleb128 0x17
 3496 0108 01       		.byte	0x1
 3497 0109 0B       		.uleb128 0xb
 3498 010a 0B       		.uleb128 0xb
 3499 010b 3A       		.uleb128 0x3a
 3500 010c 0B       		.uleb128 0xb
 3501 010d 3B       		.uleb128 0x3b
 3502 010e 0B       		.uleb128 0xb
 3503 010f 01       		.uleb128 0x1
 3504 0110 13       		.uleb128 0x13
 3505 0111 00       		.byte	0
 3506 0112 00       		.byte	0
 3507 0113 18       		.uleb128 0x18
 3508 0114 0D       		.uleb128 0xd
 3509 0115 00       		.byte	0
 3510 0116 03       		.uleb128 0x3
 3511 0117 0E       		.uleb128 0xe
 3512 0118 3A       		.uleb128 0x3a
 3513 0119 0B       		.uleb128 0xb
 3514 011a 3B       		.uleb128 0x3b
 3515 011b 0B       		.uleb128 0xb
 3516 011c 49       		.uleb128 0x49
 3517 011d 13       		.uleb128 0x13
 3518 011e 00       		.byte	0
 3519 011f 00       		.byte	0
 3520 0120 19       		.uleb128 0x19
 3521 0121 0D       		.uleb128 0xd
 3522 0122 00       		.byte	0
ARM GAS  C:\Users\jo\AppData\Local\Temp\ccMscRHh.s 			page 63


 3523 0123 03       		.uleb128 0x3
 3524 0124 0E       		.uleb128 0xe
 3525 0125 3A       		.uleb128 0x3a
 3526 0126 0B       		.uleb128 0xb
 3527 0127 3B       		.uleb128 0x3b
 3528 0128 05       		.uleb128 0x5
 3529 0129 49       		.uleb128 0x49
 3530 012a 13       		.uleb128 0x13
 3531 012b 00       		.byte	0
 3532 012c 00       		.byte	0
 3533 012d 1A       		.uleb128 0x1a
 3534 012e 04       		.uleb128 0x4
 3535 012f 01       		.byte	0x1
 3536 0130 0B       		.uleb128 0xb
 3537 0131 0B       		.uleb128 0xb
 3538 0132 3A       		.uleb128 0x3a
 3539 0133 0B       		.uleb128 0xb
 3540 0134 3B       		.uleb128 0x3b
 3541 0135 0B       		.uleb128 0xb
 3542 0136 01       		.uleb128 0x1
 3543 0137 13       		.uleb128 0x13
 3544 0138 00       		.byte	0
 3545 0139 00       		.byte	0
 3546 013a 1B       		.uleb128 0x1b
 3547 013b 28       		.uleb128 0x28
 3548 013c 00       		.byte	0
 3549 013d 03       		.uleb128 0x3
 3550 013e 0E       		.uleb128 0xe
 3551 013f 1C       		.uleb128 0x1c
 3552 0140 0D       		.uleb128 0xd
 3553 0141 00       		.byte	0
 3554 0142 00       		.byte	0
 3555 0143 1C       		.uleb128 0x1c
 3556 0144 2E       		.uleb128 0x2e
 3557 0145 01       		.byte	0x1
 3558 0146 03       		.uleb128 0x3
 3559 0147 0E       		.uleb128 0xe
 3560 0148 3A       		.uleb128 0x3a
 3561 0149 0B       		.uleb128 0xb
 3562 014a 3B       		.uleb128 0x3b
 3563 014b 05       		.uleb128 0x5
 3564 014c 27       		.uleb128 0x27
 3565 014d 19       		.uleb128 0x19
 3566 014e 20       		.uleb128 0x20
 3567 014f 0B       		.uleb128 0xb
 3568 0150 01       		.uleb128 0x1
 3569 0151 13       		.uleb128 0x13
 3570 0152 00       		.byte	0
 3571 0153 00       		.byte	0
 3572 0154 1D       		.uleb128 0x1d
 3573 0155 05       		.uleb128 0x5
 3574 0156 00       		.byte	0
 3575 0157 03       		.uleb128 0x3
 3576 0158 0E       		.uleb128 0xe
 3577 0159 3A       		.uleb128 0x3a
 3578 015a 0B       		.uleb128 0xb
 3579 015b 3B       		.uleb128 0x3b
ARM GAS  C:\Users\jo\AppData\Local\Temp\ccMscRHh.s 			page 64


 3580 015c 05       		.uleb128 0x5
 3581 015d 49       		.uleb128 0x49
 3582 015e 13       		.uleb128 0x13
 3583 015f 00       		.byte	0
 3584 0160 00       		.byte	0
 3585 0161 1E       		.uleb128 0x1e
 3586 0162 2E       		.uleb128 0x2e
 3587 0163 00       		.byte	0
 3588 0164 03       		.uleb128 0x3
 3589 0165 0E       		.uleb128 0xe
 3590 0166 3A       		.uleb128 0x3a
 3591 0167 0B       		.uleb128 0xb
 3592 0168 3B       		.uleb128 0x3b
 3593 0169 0B       		.uleb128 0xb
 3594 016a 27       		.uleb128 0x27
 3595 016b 19       		.uleb128 0x19
 3596 016c 49       		.uleb128 0x49
 3597 016d 13       		.uleb128 0x13
 3598 016e 20       		.uleb128 0x20
 3599 016f 0B       		.uleb128 0xb
 3600 0170 00       		.byte	0
 3601 0171 00       		.byte	0
 3602 0172 1F       		.uleb128 0x1f
 3603 0173 2E       		.uleb128 0x2e
 3604 0174 00       		.byte	0
 3605 0175 03       		.uleb128 0x3
 3606 0176 0E       		.uleb128 0xe
 3607 0177 3A       		.uleb128 0x3a
 3608 0178 0B       		.uleb128 0xb
 3609 0179 3B       		.uleb128 0x3b
 3610 017a 05       		.uleb128 0x5
 3611 017b 27       		.uleb128 0x27
 3612 017c 19       		.uleb128 0x19
 3613 017d 20       		.uleb128 0x20
 3614 017e 0B       		.uleb128 0xb
 3615 017f 00       		.byte	0
 3616 0180 00       		.byte	0
 3617 0181 20       		.uleb128 0x20
 3618 0182 05       		.uleb128 0x5
 3619 0183 00       		.byte	0
 3620 0184 03       		.uleb128 0x3
 3621 0185 08       		.uleb128 0x8
 3622 0186 3A       		.uleb128 0x3a
 3623 0187 0B       		.uleb128 0xb
 3624 0188 3B       		.uleb128 0x3b
 3625 0189 05       		.uleb128 0x5
 3626 018a 49       		.uleb128 0x49
 3627 018b 13       		.uleb128 0x13
 3628 018c 00       		.byte	0
 3629 018d 00       		.byte	0
 3630 018e 21       		.uleb128 0x21
 3631 018f 34       		.uleb128 0x34
 3632 0190 00       		.byte	0
 3633 0191 03       		.uleb128 0x3
 3634 0192 0E       		.uleb128 0xe
 3635 0193 49       		.uleb128 0x49
 3636 0194 13       		.uleb128 0x13
ARM GAS  C:\Users\jo\AppData\Local\Temp\ccMscRHh.s 			page 65


 3637 0195 34       		.uleb128 0x34
 3638 0196 19       		.uleb128 0x19
 3639 0197 1C       		.uleb128 0x1c
 3640 0198 0E       		.uleb128 0xe
 3641 0199 00       		.byte	0
 3642 019a 00       		.byte	0
 3643 019b 22       		.uleb128 0x22
 3644 019c 2E       		.uleb128 0x2e
 3645 019d 01       		.byte	0x1
 3646 019e 03       		.uleb128 0x3
 3647 019f 0E       		.uleb128 0xe
 3648 01a0 3A       		.uleb128 0x3a
 3649 01a1 0B       		.uleb128 0xb
 3650 01a2 3B       		.uleb128 0x3b
 3651 01a3 0B       		.uleb128 0xb
 3652 01a4 27       		.uleb128 0x27
 3653 01a5 19       		.uleb128 0x19
 3654 01a6 20       		.uleb128 0x20
 3655 01a7 0B       		.uleb128 0xb
 3656 01a8 01       		.uleb128 0x1
 3657 01a9 13       		.uleb128 0x13
 3658 01aa 00       		.byte	0
 3659 01ab 00       		.byte	0
 3660 01ac 23       		.uleb128 0x23
 3661 01ad 05       		.uleb128 0x5
 3662 01ae 00       		.byte	0
 3663 01af 03       		.uleb128 0x3
 3664 01b0 08       		.uleb128 0x8
 3665 01b1 3A       		.uleb128 0x3a
 3666 01b2 0B       		.uleb128 0xb
 3667 01b3 3B       		.uleb128 0x3b
 3668 01b4 0B       		.uleb128 0xb
 3669 01b5 49       		.uleb128 0x49
 3670 01b6 13       		.uleb128 0x13
 3671 01b7 00       		.byte	0
 3672 01b8 00       		.byte	0
 3673 01b9 24       		.uleb128 0x24
 3674 01ba 2E       		.uleb128 0x2e
 3675 01bb 00       		.byte	0
 3676 01bc 03       		.uleb128 0x3
 3677 01bd 0E       		.uleb128 0xe
 3678 01be 3A       		.uleb128 0x3a
 3679 01bf 0B       		.uleb128 0xb
 3680 01c0 3B       		.uleb128 0x3b
 3681 01c1 05       		.uleb128 0x5
 3682 01c2 27       		.uleb128 0x27
 3683 01c3 19       		.uleb128 0x19
 3684 01c4 49       		.uleb128 0x49
 3685 01c5 13       		.uleb128 0x13
 3686 01c6 20       		.uleb128 0x20
 3687 01c7 0B       		.uleb128 0xb
 3688 01c8 00       		.byte	0
 3689 01c9 00       		.byte	0
 3690 01ca 25       		.uleb128 0x25
 3691 01cb 2E       		.uleb128 0x2e
 3692 01cc 01       		.byte	0x1
 3693 01cd 03       		.uleb128 0x3
ARM GAS  C:\Users\jo\AppData\Local\Temp\ccMscRHh.s 			page 66


 3694 01ce 0E       		.uleb128 0xe
 3695 01cf 3A       		.uleb128 0x3a
 3696 01d0 0B       		.uleb128 0xb
 3697 01d1 3B       		.uleb128 0x3b
 3698 01d2 05       		.uleb128 0x5
 3699 01d3 27       		.uleb128 0x27
 3700 01d4 19       		.uleb128 0x19
 3701 01d5 49       		.uleb128 0x49
 3702 01d6 13       		.uleb128 0x13
 3703 01d7 20       		.uleb128 0x20
 3704 01d8 0B       		.uleb128 0xb
 3705 01d9 01       		.uleb128 0x1
 3706 01da 13       		.uleb128 0x13
 3707 01db 00       		.byte	0
 3708 01dc 00       		.byte	0
 3709 01dd 26       		.uleb128 0x26
 3710 01de 2E       		.uleb128 0x2e
 3711 01df 01       		.byte	0x1
 3712 01e0 3F       		.uleb128 0x3f
 3713 01e1 19       		.uleb128 0x19
 3714 01e2 03       		.uleb128 0x3
 3715 01e3 0E       		.uleb128 0xe
 3716 01e4 3A       		.uleb128 0x3a
 3717 01e5 0B       		.uleb128 0xb
 3718 01e6 3B       		.uleb128 0x3b
 3719 01e7 0B       		.uleb128 0xb
 3720 01e8 27       		.uleb128 0x27
 3721 01e9 19       		.uleb128 0x19
 3722 01ea 11       		.uleb128 0x11
 3723 01eb 01       		.uleb128 0x1
 3724 01ec 12       		.uleb128 0x12
 3725 01ed 06       		.uleb128 0x6
 3726 01ee 40       		.uleb128 0x40
 3727 01ef 18       		.uleb128 0x18
 3728 01f0 9742     		.uleb128 0x2117
 3729 01f2 19       		.uleb128 0x19
 3730 01f3 01       		.uleb128 0x1
 3731 01f4 13       		.uleb128 0x13
 3732 01f5 00       		.byte	0
 3733 01f6 00       		.byte	0
 3734 01f7 27       		.uleb128 0x27
 3735 01f8 898201   		.uleb128 0x4109
 3736 01fb 00       		.byte	0
 3737 01fc 11       		.uleb128 0x11
 3738 01fd 01       		.uleb128 0x1
 3739 01fe 9542     		.uleb128 0x2115
 3740 0200 19       		.uleb128 0x19
 3741 0201 31       		.uleb128 0x31
 3742 0202 13       		.uleb128 0x13
 3743 0203 00       		.byte	0
 3744 0204 00       		.byte	0
 3745 0205 28       		.uleb128 0x28
 3746 0206 05       		.uleb128 0x5
 3747 0207 00       		.byte	0
 3748 0208 03       		.uleb128 0x3
 3749 0209 0E       		.uleb128 0xe
 3750 020a 3A       		.uleb128 0x3a
ARM GAS  C:\Users\jo\AppData\Local\Temp\ccMscRHh.s 			page 67


 3751 020b 0B       		.uleb128 0xb
 3752 020c 3B       		.uleb128 0x3b
 3753 020d 0B       		.uleb128 0xb
 3754 020e 49       		.uleb128 0x49
 3755 020f 13       		.uleb128 0x13
 3756 0210 02       		.uleb128 0x2
 3757 0211 18       		.uleb128 0x18
 3758 0212 00       		.byte	0
 3759 0213 00       		.byte	0
 3760 0214 29       		.uleb128 0x29
 3761 0215 1D       		.uleb128 0x1d
 3762 0216 01       		.byte	0x1
 3763 0217 31       		.uleb128 0x31
 3764 0218 13       		.uleb128 0x13
 3765 0219 11       		.uleb128 0x11
 3766 021a 01       		.uleb128 0x1
 3767 021b 12       		.uleb128 0x12
 3768 021c 06       		.uleb128 0x6
 3769 021d 58       		.uleb128 0x58
 3770 021e 0B       		.uleb128 0xb
 3771 021f 59       		.uleb128 0x59
 3772 0220 0B       		.uleb128 0xb
 3773 0221 01       		.uleb128 0x1
 3774 0222 13       		.uleb128 0x13
 3775 0223 00       		.byte	0
 3776 0224 00       		.byte	0
 3777 0225 2A       		.uleb128 0x2a
 3778 0226 05       		.uleb128 0x5
 3779 0227 00       		.byte	0
 3780 0228 31       		.uleb128 0x31
 3781 0229 13       		.uleb128 0x13
 3782 022a 02       		.uleb128 0x2
 3783 022b 18       		.uleb128 0x18
 3784 022c 00       		.byte	0
 3785 022d 00       		.byte	0
 3786 022e 2B       		.uleb128 0x2b
 3787 022f 1D       		.uleb128 0x1d
 3788 0230 01       		.byte	0x1
 3789 0231 31       		.uleb128 0x31
 3790 0232 13       		.uleb128 0x13
 3791 0233 11       		.uleb128 0x11
 3792 0234 01       		.uleb128 0x1
 3793 0235 12       		.uleb128 0x12
 3794 0236 06       		.uleb128 0x6
 3795 0237 58       		.uleb128 0x58
 3796 0238 0B       		.uleb128 0xb
 3797 0239 59       		.uleb128 0x59
 3798 023a 05       		.uleb128 0x5
 3799 023b 00       		.byte	0
 3800 023c 00       		.byte	0
 3801 023d 2C       		.uleb128 0x2c
 3802 023e 1D       		.uleb128 0x1d
 3803 023f 01       		.byte	0x1
 3804 0240 31       		.uleb128 0x31
 3805 0241 13       		.uleb128 0x13
 3806 0242 11       		.uleb128 0x11
 3807 0243 01       		.uleb128 0x1
ARM GAS  C:\Users\jo\AppData\Local\Temp\ccMscRHh.s 			page 68


 3808 0244 12       		.uleb128 0x12
 3809 0245 06       		.uleb128 0x6
 3810 0246 58       		.uleb128 0x58
 3811 0247 0B       		.uleb128 0xb
 3812 0248 59       		.uleb128 0x59
 3813 0249 0B       		.uleb128 0xb
 3814 024a 00       		.byte	0
 3815 024b 00       		.byte	0
 3816 024c 2D       		.uleb128 0x2d
 3817 024d 05       		.uleb128 0x5
 3818 024e 00       		.byte	0
 3819 024f 03       		.uleb128 0x3
 3820 0250 0E       		.uleb128 0xe
 3821 0251 3A       		.uleb128 0x3a
 3822 0252 0B       		.uleb128 0xb
 3823 0253 3B       		.uleb128 0x3b
 3824 0254 0B       		.uleb128 0xb
 3825 0255 49       		.uleb128 0x49
 3826 0256 13       		.uleb128 0x13
 3827 0257 02       		.uleb128 0x2
 3828 0258 17       		.uleb128 0x17
 3829 0259 00       		.byte	0
 3830 025a 00       		.byte	0
 3831 025b 2E       		.uleb128 0x2e
 3832 025c 34       		.uleb128 0x34
 3833 025d 00       		.byte	0
 3834 025e 03       		.uleb128 0x3
 3835 025f 0E       		.uleb128 0xe
 3836 0260 49       		.uleb128 0x49
 3837 0261 13       		.uleb128 0x13
 3838 0262 34       		.uleb128 0x34
 3839 0263 19       		.uleb128 0x19
 3840 0264 00       		.byte	0
 3841 0265 00       		.byte	0
 3842 0266 2F       		.uleb128 0x2f
 3843 0267 1D       		.uleb128 0x1d
 3844 0268 01       		.byte	0x1
 3845 0269 31       		.uleb128 0x31
 3846 026a 13       		.uleb128 0x13
 3847 026b 52       		.uleb128 0x52
 3848 026c 01       		.uleb128 0x1
 3849 026d 55       		.uleb128 0x55
 3850 026e 17       		.uleb128 0x17
 3851 026f 58       		.uleb128 0x58
 3852 0270 0B       		.uleb128 0xb
 3853 0271 59       		.uleb128 0x59
 3854 0272 0B       		.uleb128 0xb
 3855 0273 01       		.uleb128 0x1
 3856 0274 13       		.uleb128 0x13
 3857 0275 00       		.byte	0
 3858 0276 00       		.byte	0
 3859 0277 30       		.uleb128 0x30
 3860 0278 1D       		.uleb128 0x1d
 3861 0279 01       		.byte	0x1
 3862 027a 31       		.uleb128 0x31
 3863 027b 13       		.uleb128 0x13
 3864 027c 52       		.uleb128 0x52
ARM GAS  C:\Users\jo\AppData\Local\Temp\ccMscRHh.s 			page 69


 3865 027d 01       		.uleb128 0x1
 3866 027e 55       		.uleb128 0x55
 3867 027f 17       		.uleb128 0x17
 3868 0280 58       		.uleb128 0x58
 3869 0281 0B       		.uleb128 0xb
 3870 0282 59       		.uleb128 0x59
 3871 0283 05       		.uleb128 0x5
 3872 0284 00       		.byte	0
 3873 0285 00       		.byte	0
 3874 0286 31       		.uleb128 0x31
 3875 0287 05       		.uleb128 0x5
 3876 0288 00       		.byte	0
 3877 0289 31       		.uleb128 0x31
 3878 028a 13       		.uleb128 0x13
 3879 028b 1C       		.uleb128 0x1c
 3880 028c 0B       		.uleb128 0xb
 3881 028d 00       		.byte	0
 3882 028e 00       		.byte	0
 3883 028f 32       		.uleb128 0x32
 3884 0290 0B       		.uleb128 0xb
 3885 0291 01       		.byte	0x1
 3886 0292 11       		.uleb128 0x11
 3887 0293 01       		.uleb128 0x1
 3888 0294 12       		.uleb128 0x12
 3889 0295 06       		.uleb128 0x6
 3890 0296 00       		.byte	0
 3891 0297 00       		.byte	0
 3892 0298 33       		.uleb128 0x33
 3893 0299 34       		.uleb128 0x34
 3894 029a 00       		.byte	0
 3895 029b 31       		.uleb128 0x31
 3896 029c 13       		.uleb128 0x13
 3897 029d 00       		.byte	0
 3898 029e 00       		.byte	0
 3899 029f 34       		.uleb128 0x34
 3900 02a0 898201   		.uleb128 0x4109
 3901 02a3 01       		.byte	0x1
 3902 02a4 11       		.uleb128 0x11
 3903 02a5 01       		.uleb128 0x1
 3904 02a6 31       		.uleb128 0x31
 3905 02a7 13       		.uleb128 0x13
 3906 02a8 00       		.byte	0
 3907 02a9 00       		.byte	0
 3908 02aa 35       		.uleb128 0x35
 3909 02ab 8A8201   		.uleb128 0x410a
 3910 02ae 00       		.byte	0
 3911 02af 02       		.uleb128 0x2
 3912 02b0 18       		.uleb128 0x18
 3913 02b1 9142     		.uleb128 0x2111
 3914 02b3 18       		.uleb128 0x18
 3915 02b4 00       		.byte	0
 3916 02b5 00       		.byte	0
 3917 02b6 36       		.uleb128 0x36
 3918 02b7 2E       		.uleb128 0x2e
 3919 02b8 01       		.byte	0x1
 3920 02b9 3F       		.uleb128 0x3f
 3921 02ba 19       		.uleb128 0x19
ARM GAS  C:\Users\jo\AppData\Local\Temp\ccMscRHh.s 			page 70


 3922 02bb 03       		.uleb128 0x3
 3923 02bc 0E       		.uleb128 0xe
 3924 02bd 3A       		.uleb128 0x3a
 3925 02be 0B       		.uleb128 0xb
 3926 02bf 3B       		.uleb128 0x3b
 3927 02c0 0B       		.uleb128 0xb
 3928 02c1 27       		.uleb128 0x27
 3929 02c2 19       		.uleb128 0x19
 3930 02c3 49       		.uleb128 0x49
 3931 02c4 13       		.uleb128 0x13
 3932 02c5 11       		.uleb128 0x11
 3933 02c6 01       		.uleb128 0x1
 3934 02c7 12       		.uleb128 0x12
 3935 02c8 06       		.uleb128 0x6
 3936 02c9 40       		.uleb128 0x40
 3937 02ca 18       		.uleb128 0x18
 3938 02cb 9742     		.uleb128 0x2117
 3939 02cd 19       		.uleb128 0x19
 3940 02ce 01       		.uleb128 0x1
 3941 02cf 13       		.uleb128 0x13
 3942 02d0 00       		.byte	0
 3943 02d1 00       		.byte	0
 3944 02d2 37       		.uleb128 0x37
 3945 02d3 05       		.uleb128 0x5
 3946 02d4 00       		.byte	0
 3947 02d5 03       		.uleb128 0x3
 3948 02d6 08       		.uleb128 0x8
 3949 02d7 3A       		.uleb128 0x3a
 3950 02d8 0B       		.uleb128 0xb
 3951 02d9 3B       		.uleb128 0x3b
 3952 02da 0B       		.uleb128 0xb
 3953 02db 49       		.uleb128 0x49
 3954 02dc 13       		.uleb128 0x13
 3955 02dd 02       		.uleb128 0x2
 3956 02de 17       		.uleb128 0x17
 3957 02df 00       		.byte	0
 3958 02e0 00       		.byte	0
 3959 02e1 38       		.uleb128 0x38
 3960 02e2 34       		.uleb128 0x34
 3961 02e3 00       		.byte	0
 3962 02e4 03       		.uleb128 0x3
 3963 02e5 08       		.uleb128 0x8
 3964 02e6 3A       		.uleb128 0x3a
 3965 02e7 0B       		.uleb128 0xb
 3966 02e8 3B       		.uleb128 0x3b
 3967 02e9 0B       		.uleb128 0xb
 3968 02ea 49       		.uleb128 0x49
 3969 02eb 13       		.uleb128 0x13
 3970 02ec 02       		.uleb128 0x2
 3971 02ed 17       		.uleb128 0x17
 3972 02ee 00       		.byte	0
 3973 02ef 00       		.byte	0
 3974 02f0 39       		.uleb128 0x39
 3975 02f1 34       		.uleb128 0x34
 3976 02f2 00       		.byte	0
 3977 02f3 03       		.uleb128 0x3
 3978 02f4 08       		.uleb128 0x8
ARM GAS  C:\Users\jo\AppData\Local\Temp\ccMscRHh.s 			page 71


 3979 02f5 3A       		.uleb128 0x3a
 3980 02f6 0B       		.uleb128 0xb
 3981 02f7 3B       		.uleb128 0x3b
 3982 02f8 0B       		.uleb128 0xb
 3983 02f9 49       		.uleb128 0x49
 3984 02fa 13       		.uleb128 0x13
 3985 02fb 00       		.byte	0
 3986 02fc 00       		.byte	0
 3987 02fd 3A       		.uleb128 0x3a
 3988 02fe 05       		.uleb128 0x5
 3989 02ff 00       		.byte	0
 3990 0300 31       		.uleb128 0x31
 3991 0301 13       		.uleb128 0x13
 3992 0302 02       		.uleb128 0x2
 3993 0303 17       		.uleb128 0x17
 3994 0304 00       		.byte	0
 3995 0305 00       		.byte	0
 3996 0306 3B       		.uleb128 0x3b
 3997 0307 1D       		.uleb128 0x1d
 3998 0308 01       		.byte	0x1
 3999 0309 31       		.uleb128 0x31
 4000 030a 13       		.uleb128 0x13
 4001 030b 52       		.uleb128 0x52
 4002 030c 01       		.uleb128 0x1
 4003 030d 55       		.uleb128 0x55
 4004 030e 17       		.uleb128 0x17
 4005 030f 58       		.uleb128 0x58
 4006 0310 0B       		.uleb128 0xb
 4007 0311 59       		.uleb128 0x59
 4008 0312 0B       		.uleb128 0xb
 4009 0313 00       		.byte	0
 4010 0314 00       		.byte	0
 4011 0315 3C       		.uleb128 0x3c
 4012 0316 1D       		.uleb128 0x1d
 4013 0317 00       		.byte	0
 4014 0318 31       		.uleb128 0x31
 4015 0319 13       		.uleb128 0x13
 4016 031a 52       		.uleb128 0x52
 4017 031b 01       		.uleb128 0x1
 4018 031c 55       		.uleb128 0x55
 4019 031d 17       		.uleb128 0x17
 4020 031e 58       		.uleb128 0x58
 4021 031f 0B       		.uleb128 0xb
 4022 0320 59       		.uleb128 0x59
 4023 0321 0B       		.uleb128 0xb
 4024 0322 00       		.byte	0
 4025 0323 00       		.byte	0
 4026 0324 3D       		.uleb128 0x3d
 4027 0325 05       		.uleb128 0x5
 4028 0326 00       		.byte	0
 4029 0327 31       		.uleb128 0x31
 4030 0328 13       		.uleb128 0x13
 4031 0329 00       		.byte	0
 4032 032a 00       		.byte	0
 4033 032b 3E       		.uleb128 0x3e
 4034 032c 1D       		.uleb128 0x1d
 4035 032d 00       		.byte	0
ARM GAS  C:\Users\jo\AppData\Local\Temp\ccMscRHh.s 			page 72


 4036 032e 31       		.uleb128 0x31
 4037 032f 13       		.uleb128 0x13
 4038 0330 11       		.uleb128 0x11
 4039 0331 01       		.uleb128 0x1
 4040 0332 12       		.uleb128 0x12
 4041 0333 06       		.uleb128 0x6
 4042 0334 58       		.uleb128 0x58
 4043 0335 0B       		.uleb128 0xb
 4044 0336 59       		.uleb128 0x59
 4045 0337 0B       		.uleb128 0xb
 4046 0338 00       		.byte	0
 4047 0339 00       		.byte	0
 4048 033a 3F       		.uleb128 0x3f
 4049 033b 898201   		.uleb128 0x4109
 4050 033e 01       		.byte	0x1
 4051 033f 11       		.uleb128 0x11
 4052 0340 01       		.uleb128 0x1
 4053 0341 9542     		.uleb128 0x2115
 4054 0343 19       		.uleb128 0x19
 4055 0344 31       		.uleb128 0x31
 4056 0345 13       		.uleb128 0x13
 4057 0346 00       		.byte	0
 4058 0347 00       		.byte	0
 4059 0348 40       		.uleb128 0x40
 4060 0349 2E       		.uleb128 0x2e
 4061 034a 01       		.byte	0x1
 4062 034b 3F       		.uleb128 0x3f
 4063 034c 19       		.uleb128 0x19
 4064 034d 03       		.uleb128 0x3
 4065 034e 0E       		.uleb128 0xe
 4066 034f 3A       		.uleb128 0x3a
 4067 0350 0B       		.uleb128 0xb
 4068 0351 3B       		.uleb128 0x3b
 4069 0352 05       		.uleb128 0x5
 4070 0353 27       		.uleb128 0x27
 4071 0354 19       		.uleb128 0x19
 4072 0355 49       		.uleb128 0x49
 4073 0356 13       		.uleb128 0x13
 4074 0357 11       		.uleb128 0x11
 4075 0358 01       		.uleb128 0x1
 4076 0359 12       		.uleb128 0x12
 4077 035a 06       		.uleb128 0x6
 4078 035b 40       		.uleb128 0x40
 4079 035c 18       		.uleb128 0x18
 4080 035d 9742     		.uleb128 0x2117
 4081 035f 19       		.uleb128 0x19
 4082 0360 01       		.uleb128 0x1
 4083 0361 13       		.uleb128 0x13
 4084 0362 00       		.byte	0
 4085 0363 00       		.byte	0
 4086 0364 41       		.uleb128 0x41
 4087 0365 05       		.uleb128 0x5
 4088 0366 00       		.byte	0
 4089 0367 03       		.uleb128 0x3
 4090 0368 0E       		.uleb128 0xe
 4091 0369 3A       		.uleb128 0x3a
 4092 036a 0B       		.uleb128 0xb
ARM GAS  C:\Users\jo\AppData\Local\Temp\ccMscRHh.s 			page 73


 4093 036b 3B       		.uleb128 0x3b
 4094 036c 05       		.uleb128 0x5
 4095 036d 49       		.uleb128 0x49
 4096 036e 13       		.uleb128 0x13
 4097 036f 02       		.uleb128 0x2
 4098 0370 17       		.uleb128 0x17
 4099 0371 00       		.byte	0
 4100 0372 00       		.byte	0
 4101 0373 42       		.uleb128 0x42
 4102 0374 34       		.uleb128 0x34
 4103 0375 00       		.byte	0
 4104 0376 03       		.uleb128 0x3
 4105 0377 0E       		.uleb128 0xe
 4106 0378 3A       		.uleb128 0x3a
 4107 0379 0B       		.uleb128 0xb
 4108 037a 3B       		.uleb128 0x3b
 4109 037b 05       		.uleb128 0x5
 4110 037c 49       		.uleb128 0x49
 4111 037d 13       		.uleb128 0x13
 4112 037e 3F       		.uleb128 0x3f
 4113 037f 19       		.uleb128 0x19
 4114 0380 3C       		.uleb128 0x3c
 4115 0381 19       		.uleb128 0x19
 4116 0382 00       		.byte	0
 4117 0383 00       		.byte	0
 4118 0384 43       		.uleb128 0x43
 4119 0385 34       		.uleb128 0x34
 4120 0386 00       		.byte	0
 4121 0387 03       		.uleb128 0x3
 4122 0388 08       		.uleb128 0x8
 4123 0389 3A       		.uleb128 0x3a
 4124 038a 0B       		.uleb128 0xb
 4125 038b 3B       		.uleb128 0x3b
 4126 038c 05       		.uleb128 0x5
 4127 038d 49       		.uleb128 0x49
 4128 038e 13       		.uleb128 0x13
 4129 038f 3F       		.uleb128 0x3f
 4130 0390 19       		.uleb128 0x19
 4131 0391 3C       		.uleb128 0x3c
 4132 0392 19       		.uleb128 0x19
 4133 0393 00       		.byte	0
 4134 0394 00       		.byte	0
 4135 0395 44       		.uleb128 0x44
 4136 0396 2E       		.uleb128 0x2e
 4137 0397 00       		.byte	0
 4138 0398 3F       		.uleb128 0x3f
 4139 0399 19       		.uleb128 0x19
 4140 039a 03       		.uleb128 0x3
 4141 039b 0E       		.uleb128 0xe
 4142 039c 3A       		.uleb128 0x3a
 4143 039d 0B       		.uleb128 0xb
 4144 039e 3B       		.uleb128 0x3b
 4145 039f 05       		.uleb128 0x5
 4146 03a0 27       		.uleb128 0x27
 4147 03a1 19       		.uleb128 0x19
 4148 03a2 3C       		.uleb128 0x3c
 4149 03a3 19       		.uleb128 0x19
ARM GAS  C:\Users\jo\AppData\Local\Temp\ccMscRHh.s 			page 74


 4150 03a4 00       		.byte	0
 4151 03a5 00       		.byte	0
 4152 03a6 45       		.uleb128 0x45
 4153 03a7 2E       		.uleb128 0x2e
 4154 03a8 01       		.byte	0x1
 4155 03a9 3F       		.uleb128 0x3f
 4156 03aa 19       		.uleb128 0x19
 4157 03ab 03       		.uleb128 0x3
 4158 03ac 0E       		.uleb128 0xe
 4159 03ad 3A       		.uleb128 0x3a
 4160 03ae 0B       		.uleb128 0xb
 4161 03af 3B       		.uleb128 0x3b
 4162 03b0 05       		.uleb128 0x5
 4163 03b1 27       		.uleb128 0x27
 4164 03b2 19       		.uleb128 0x19
 4165 03b3 3C       		.uleb128 0x3c
 4166 03b4 19       		.uleb128 0x19
 4167 03b5 01       		.uleb128 0x1
 4168 03b6 13       		.uleb128 0x13
 4169 03b7 00       		.byte	0
 4170 03b8 00       		.byte	0
 4171 03b9 46       		.uleb128 0x46
 4172 03ba 2E       		.uleb128 0x2e
 4173 03bb 01       		.byte	0x1
 4174 03bc 3F       		.uleb128 0x3f
 4175 03bd 19       		.uleb128 0x19
 4176 03be 03       		.uleb128 0x3
 4177 03bf 0E       		.uleb128 0xe
 4178 03c0 3A       		.uleb128 0x3a
 4179 03c1 0B       		.uleb128 0xb
 4180 03c2 3B       		.uleb128 0x3b
 4181 03c3 0B       		.uleb128 0xb
 4182 03c4 27       		.uleb128 0x27
 4183 03c5 19       		.uleb128 0x19
 4184 03c6 49       		.uleb128 0x49
 4185 03c7 13       		.uleb128 0x13
 4186 03c8 3C       		.uleb128 0x3c
 4187 03c9 19       		.uleb128 0x19
 4188 03ca 01       		.uleb128 0x1
 4189 03cb 13       		.uleb128 0x13
 4190 03cc 00       		.byte	0
 4191 03cd 00       		.byte	0
 4192 03ce 47       		.uleb128 0x47
 4193 03cf 2E       		.uleb128 0x2e
 4194 03d0 01       		.byte	0x1
 4195 03d1 3F       		.uleb128 0x3f
 4196 03d2 19       		.uleb128 0x19
 4197 03d3 03       		.uleb128 0x3
 4198 03d4 0E       		.uleb128 0xe
 4199 03d5 3A       		.uleb128 0x3a
 4200 03d6 0B       		.uleb128 0xb
 4201 03d7 3B       		.uleb128 0x3b
 4202 03d8 05       		.uleb128 0x5
 4203 03d9 27       		.uleb128 0x27
 4204 03da 19       		.uleb128 0x19
 4205 03db 49       		.uleb128 0x49
 4206 03dc 13       		.uleb128 0x13
ARM GAS  C:\Users\jo\AppData\Local\Temp\ccMscRHh.s 			page 75


 4207 03dd 3C       		.uleb128 0x3c
 4208 03de 19       		.uleb128 0x19
 4209 03df 01       		.uleb128 0x1
 4210 03e0 13       		.uleb128 0x13
 4211 03e1 00       		.byte	0
 4212 03e2 00       		.byte	0
 4213 03e3 48       		.uleb128 0x48
 4214 03e4 2E       		.uleb128 0x2e
 4215 03e5 01       		.byte	0x1
 4216 03e6 3F       		.uleb128 0x3f
 4217 03e7 19       		.uleb128 0x19
 4218 03e8 03       		.uleb128 0x3
 4219 03e9 0E       		.uleb128 0xe
 4220 03ea 3A       		.uleb128 0x3a
 4221 03eb 0B       		.uleb128 0xb
 4222 03ec 3B       		.uleb128 0x3b
 4223 03ed 05       		.uleb128 0x5
 4224 03ee 27       		.uleb128 0x27
 4225 03ef 19       		.uleb128 0x19
 4226 03f0 49       		.uleb128 0x49
 4227 03f1 13       		.uleb128 0x13
 4228 03f2 3C       		.uleb128 0x3c
 4229 03f3 19       		.uleb128 0x19
 4230 03f4 00       		.byte	0
 4231 03f5 00       		.byte	0
 4232 03f6 00       		.byte	0
 4233              		.section	.debug_loc,"",%progbits
 4234              	.Ldebug_loc0:
 4235              	.LLST0:
 4236 0000 00000000 		.4byte	.LVL5
 4237 0004 0F000000 		.4byte	.LVL6-1
 4238 0008 0100     		.2byte	0x1
 4239 000a 50       		.byte	0x50
 4240 000b 0F000000 		.4byte	.LVL6-1
 4241 000f 1C000000 		.4byte	.LFE257
 4242 0013 0100     		.2byte	0x1
 4243 0015 54       		.byte	0x54
 4244 0016 00000000 		.4byte	0
 4245 001a 00000000 		.4byte	0
 4246              	.LLST1:
 4247 001e 00000000 		.4byte	.LVL5
 4248 0022 0F000000 		.4byte	.LVL6-1
 4249 0026 0100     		.2byte	0x1
 4250 0028 51       		.byte	0x51
 4251 0029 0F000000 		.4byte	.LVL6-1
 4252 002d 1C000000 		.4byte	.LFE257
 4253 0031 0400     		.2byte	0x4
 4254 0033 F3       		.byte	0xf3
 4255 0034 01       		.uleb128 0x1
 4256 0035 51       		.byte	0x51
 4257 0036 9F       		.byte	0x9f
 4258 0037 00000000 		.4byte	0
 4259 003b 00000000 		.4byte	0
 4260              	.LLST2:
 4261 003f 00000000 		.4byte	.LVL8
 4262 0043 0D000000 		.4byte	.LVL9-1
 4263 0047 0100     		.2byte	0x1
ARM GAS  C:\Users\jo\AppData\Local\Temp\ccMscRHh.s 			page 76


 4264 0049 50       		.byte	0x50
 4265 004a 0D000000 		.4byte	.LVL9-1
 4266 004e 1A000000 		.4byte	.LFE258
 4267 0052 0100     		.2byte	0x1
 4268 0054 54       		.byte	0x54
 4269 0055 00000000 		.4byte	0
 4270 0059 00000000 		.4byte	0
 4271              	.LLST3:
 4272 005d 00000000 		.4byte	.LVL11
 4273 0061 18000000 		.4byte	.LVL12
 4274 0065 0100     		.2byte	0x1
 4275 0067 50       		.byte	0x50
 4276 0068 18000000 		.4byte	.LVL12
 4277 006c 5A000000 		.4byte	.LFE259
 4278 0070 0100     		.2byte	0x1
 4279 0072 56       		.byte	0x56
 4280 0073 00000000 		.4byte	0
 4281 0077 00000000 		.4byte	0
 4282              	.LLST4:
 4283 007b 00000000 		.4byte	.LVL11
 4284 007f 18000000 		.4byte	.LVL12
 4285 0083 0100     		.2byte	0x1
 4286 0085 51       		.byte	0x51
 4287 0086 18000000 		.4byte	.LVL12
 4288 008a 5A000000 		.4byte	.LFE259
 4289 008e 0100     		.2byte	0x1
 4290 0090 57       		.byte	0x57
 4291 0091 00000000 		.4byte	0
 4292 0095 00000000 		.4byte	0
 4293              	.LLST5:
 4294 0099 00000000 		.4byte	.LVL11
 4295 009d 18000000 		.4byte	.LVL12
 4296 00a1 0100     		.2byte	0x1
 4297 00a3 52       		.byte	0x52
 4298 00a4 18000000 		.4byte	.LVL12
 4299 00a8 5A000000 		.4byte	.LFE259
 4300 00ac 0100     		.2byte	0x1
 4301 00ae 54       		.byte	0x54
 4302 00af 00000000 		.4byte	0
 4303 00b3 00000000 		.4byte	0
 4304              	.LLST6:
 4305 00b7 18000000 		.4byte	.LVL12
 4306 00bb 20000000 		.4byte	.LVL13
 4307 00bf 0100     		.2byte	0x1
 4308 00c1 50       		.byte	0x50
 4309 00c2 48000000 		.4byte	.LVL18
 4310 00c6 50000000 		.4byte	.LVL19
 4311 00ca 0100     		.2byte	0x1
 4312 00cc 50       		.byte	0x50
 4313 00cd 00000000 		.4byte	0
 4314 00d1 00000000 		.4byte	0
 4315              	.LLST7:
 4316 00d5 18000000 		.4byte	.LVL12
 4317 00d9 40000000 		.4byte	.LVL17
 4318 00dd 0300     		.2byte	0x3
 4319 00df 08       		.byte	0x8
 4320 00e0 20       		.byte	0x20
ARM GAS  C:\Users\jo\AppData\Local\Temp\ccMscRHh.s 			page 77


 4321 00e1 9F       		.byte	0x9f
 4322 00e2 48000000 		.4byte	.LVL18
 4323 00e6 5A000000 		.4byte	.LFE259
 4324 00ea 0300     		.2byte	0x3
 4325 00ec 08       		.byte	0x8
 4326 00ed 20       		.byte	0x20
 4327 00ee 9F       		.byte	0x9f
 4328 00ef 00000000 		.4byte	0
 4329 00f3 00000000 		.4byte	0
 4330              	.LLST8:
 4331 00f7 26000000 		.4byte	.LVL14
 4332 00fb 29000000 		.4byte	.LVL15-1
 4333 00ff 0100     		.2byte	0x1
 4334 0101 51       		.byte	0x51
 4335 0102 29000000 		.4byte	.LVL15-1
 4336 0106 3A000000 		.4byte	.LVL16
 4337 010a 0100     		.2byte	0x1
 4338 010c 54       		.byte	0x54
 4339 010d 50000000 		.4byte	.LVL19
 4340 0111 5A000000 		.4byte	.LFE259
 4341 0115 0100     		.2byte	0x1
 4342 0117 54       		.byte	0x54
 4343 0118 00000000 		.4byte	0
 4344 011c 00000000 		.4byte	0
 4345              	.LLST9:
 4346 0120 3A000000 		.4byte	.LVL16
 4347 0124 40000000 		.4byte	.LVL17
 4348 0128 0200     		.2byte	0x2
 4349 012a 30       		.byte	0x30
 4350 012b 9F       		.byte	0x9f
 4351 012c 00000000 		.4byte	0
 4352 0130 00000000 		.4byte	0
 4353              	.LLST10:
 4354 0134 00000000 		.4byte	.LVL20
 4355 0138 03000000 		.4byte	.LVL21-1
 4356 013c 0100     		.2byte	0x1
 4357 013e 50       		.byte	0x50
 4358 013f 03000000 		.4byte	.LVL21-1
 4359 0143 04000000 		.4byte	.LFE260
 4360 0147 0400     		.2byte	0x4
 4361 0149 F3       		.byte	0xf3
 4362 014a 01       		.uleb128 0x1
 4363 014b 50       		.byte	0x50
 4364 014c 9F       		.byte	0x9f
 4365 014d 00000000 		.4byte	0
 4366 0151 00000000 		.4byte	0
 4367              	.LLST11:
 4368 0155 00000000 		.4byte	.LVL22
 4369 0159 18000000 		.4byte	.LVL23
 4370 015d 0100     		.2byte	0x1
 4371 015f 50       		.byte	0x50
 4372 0160 18000000 		.4byte	.LVL23
 4373 0164 5A000000 		.4byte	.LFE261
 4374 0168 0100     		.2byte	0x1
 4375 016a 56       		.byte	0x56
 4376 016b 00000000 		.4byte	0
 4377 016f 00000000 		.4byte	0
ARM GAS  C:\Users\jo\AppData\Local\Temp\ccMscRHh.s 			page 78


 4378              	.LLST12:
 4379 0173 00000000 		.4byte	.LVL22
 4380 0177 18000000 		.4byte	.LVL23
 4381 017b 0100     		.2byte	0x1
 4382 017d 51       		.byte	0x51
 4383 017e 18000000 		.4byte	.LVL23
 4384 0182 5A000000 		.4byte	.LFE261
 4385 0186 0100     		.2byte	0x1
 4386 0188 57       		.byte	0x57
 4387 0189 00000000 		.4byte	0
 4388 018d 00000000 		.4byte	0
 4389              	.LLST13:
 4390 0191 00000000 		.4byte	.LVL22
 4391 0195 18000000 		.4byte	.LVL23
 4392 0199 0100     		.2byte	0x1
 4393 019b 52       		.byte	0x52
 4394 019c 18000000 		.4byte	.LVL23
 4395 01a0 5A000000 		.4byte	.LFE261
 4396 01a4 0100     		.2byte	0x1
 4397 01a6 54       		.byte	0x54
 4398 01a7 00000000 		.4byte	0
 4399 01ab 00000000 		.4byte	0
 4400              	.LLST14:
 4401 01af 18000000 		.4byte	.LVL23
 4402 01b3 20000000 		.4byte	.LVL24
 4403 01b7 0100     		.2byte	0x1
 4404 01b9 50       		.byte	0x50
 4405 01ba 48000000 		.4byte	.LVL29
 4406 01be 50000000 		.4byte	.LVL30
 4407 01c2 0100     		.2byte	0x1
 4408 01c4 50       		.byte	0x50
 4409 01c5 00000000 		.4byte	0
 4410 01c9 00000000 		.4byte	0
 4411              	.LLST15:
 4412 01cd 18000000 		.4byte	.LVL23
 4413 01d1 40000000 		.4byte	.LVL28
 4414 01d5 0300     		.2byte	0x3
 4415 01d7 08       		.byte	0x8
 4416 01d8 20       		.byte	0x20
 4417 01d9 9F       		.byte	0x9f
 4418 01da 48000000 		.4byte	.LVL29
 4419 01de 5A000000 		.4byte	.LFE261
 4420 01e2 0300     		.2byte	0x3
 4421 01e4 08       		.byte	0x8
 4422 01e5 20       		.byte	0x20
 4423 01e6 9F       		.byte	0x9f
 4424 01e7 00000000 		.4byte	0
 4425 01eb 00000000 		.4byte	0
 4426              	.LLST16:
 4427 01ef 26000000 		.4byte	.LVL25
 4428 01f3 29000000 		.4byte	.LVL26-1
 4429 01f7 0100     		.2byte	0x1
 4430 01f9 51       		.byte	0x51
 4431 01fa 29000000 		.4byte	.LVL26-1
 4432 01fe 3A000000 		.4byte	.LVL27
 4433 0202 0100     		.2byte	0x1
 4434 0204 54       		.byte	0x54
ARM GAS  C:\Users\jo\AppData\Local\Temp\ccMscRHh.s 			page 79


 4435 0205 50000000 		.4byte	.LVL30
 4436 0209 5A000000 		.4byte	.LFE261
 4437 020d 0100     		.2byte	0x1
 4438 020f 54       		.byte	0x54
 4439 0210 00000000 		.4byte	0
 4440 0214 00000000 		.4byte	0
 4441              	.LLST17:
 4442 0218 3A000000 		.4byte	.LVL27
 4443 021c 40000000 		.4byte	.LVL28
 4444 0220 0200     		.2byte	0x2
 4445 0222 30       		.byte	0x30
 4446 0223 9F       		.byte	0x9f
 4447 0224 00000000 		.4byte	0
 4448 0228 00000000 		.4byte	0
 4449              	.LLST18:
 4450 022c 00000000 		.4byte	.LVL31
 4451 0230 03000000 		.4byte	.LVL32-1
 4452 0234 0100     		.2byte	0x1
 4453 0236 50       		.byte	0x50
 4454 0237 03000000 		.4byte	.LVL32-1
 4455 023b 04000000 		.4byte	.LFE262
 4456 023f 0400     		.2byte	0x4
 4457 0241 F3       		.byte	0xf3
 4458 0242 01       		.uleb128 0x1
 4459 0243 50       		.byte	0x50
 4460 0244 9F       		.byte	0x9f
 4461 0245 00000000 		.4byte	0
 4462 0249 00000000 		.4byte	0
 4463              	.LLST19:
 4464 024d 00000000 		.4byte	.LVL33
 4465 0251 03000000 		.4byte	.LVL34-1
 4466 0255 0100     		.2byte	0x1
 4467 0257 50       		.byte	0x50
 4468 0258 03000000 		.4byte	.LVL34-1
 4469 025c 04000000 		.4byte	.LFE263
 4470 0260 0400     		.2byte	0x4
 4471 0262 F3       		.byte	0xf3
 4472 0263 01       		.uleb128 0x1
 4473 0264 50       		.byte	0x50
 4474 0265 9F       		.byte	0x9f
 4475 0266 00000000 		.4byte	0
 4476 026a 00000000 		.4byte	0
 4477              		.section	.debug_aranges,"",%progbits
 4478 0000 5C000000 		.4byte	0x5c
 4479 0004 0200     		.2byte	0x2
 4480 0006 00000000 		.4byte	.Ldebug_info0
 4481 000a 04       		.byte	0x4
 4482 000b 00       		.byte	0
 4483 000c 0000     		.2byte	0
 4484 000e 0000     		.2byte	0
 4485 0010 00000000 		.4byte	.LFB255
 4486 0014 04000000 		.4byte	.LFE255-.LFB255
 4487 0018 00000000 		.4byte	.LFB256
 4488 001c 24000000 		.4byte	.LFE256-.LFB256
 4489 0020 00000000 		.4byte	.LFB257
 4490 0024 1C000000 		.4byte	.LFE257-.LFB257
 4491 0028 00000000 		.4byte	.LFB258
ARM GAS  C:\Users\jo\AppData\Local\Temp\ccMscRHh.s 			page 80


 4492 002c 1A000000 		.4byte	.LFE258-.LFB258
 4493 0030 00000000 		.4byte	.LFB259
 4494 0034 5A000000 		.4byte	.LFE259-.LFB259
 4495 0038 00000000 		.4byte	.LFB260
 4496 003c 04000000 		.4byte	.LFE260-.LFB260
 4497 0040 00000000 		.4byte	.LFB261
 4498 0044 5A000000 		.4byte	.LFE261-.LFB261
 4499 0048 00000000 		.4byte	.LFB262
 4500 004c 04000000 		.4byte	.LFE262-.LFB262
 4501 0050 00000000 		.4byte	.LFB263
 4502 0054 04000000 		.4byte	.LFE263-.LFB263
 4503 0058 00000000 		.4byte	0
 4504 005c 00000000 		.4byte	0
 4505              		.section	.debug_ranges,"",%progbits
 4506              	.Ldebug_ranges0:
 4507 0000 02000000 		.4byte	.LBB162
 4508 0004 04000000 		.4byte	.LBE162
 4509 0008 06000000 		.4byte	.LBB171
 4510 000c 0A000000 		.4byte	.LBE171
 4511 0010 00000000 		.4byte	0
 4512 0014 00000000 		.4byte	0
 4513 0018 02000000 		.4byte	.LBB178
 4514 001c 04000000 		.4byte	.LBE178
 4515 0020 06000000 		.4byte	.LBB187
 4516 0024 0A000000 		.4byte	.LBE187
 4517 0028 00000000 		.4byte	0
 4518 002c 00000000 		.4byte	0
 4519 0030 0E000000 		.4byte	.LBB194
 4520 0034 12000000 		.4byte	.LBE194
 4521 0038 1A000000 		.4byte	.LBB212
 4522 003c 1E000000 		.4byte	.LBE212
 4523 0040 00000000 		.4byte	0
 4524 0044 00000000 		.4byte	0
 4525 0048 12000000 		.4byte	.LBB203
 4526 004c 16000000 		.4byte	.LBE203
 4527 0050 22000000 		.4byte	.LBB216
 4528 0054 26000000 		.4byte	.LBE216
 4529 0058 00000000 		.4byte	0
 4530 005c 00000000 		.4byte	0
 4531 0060 1E000000 		.4byte	.LBB213
 4532 0064 22000000 		.4byte	.LBE213
 4533 0068 26000000 		.4byte	.LBB217
 4534 006c 2A000000 		.4byte	.LBE217
 4535 0070 00000000 		.4byte	0
 4536 0074 00000000 		.4byte	0
 4537 0078 0E000000 		.4byte	.LBB235
 4538 007c 12000000 		.4byte	.LBE235
 4539 0080 1A000000 		.4byte	.LBB253
 4540 0084 1E000000 		.4byte	.LBE253
 4541 0088 00000000 		.4byte	0
 4542 008c 00000000 		.4byte	0
 4543 0090 12000000 		.4byte	.LBB244
 4544 0094 16000000 		.4byte	.LBE244
 4545 0098 22000000 		.4byte	.LBB257
 4546 009c 26000000 		.4byte	.LBE257
 4547 00a0 00000000 		.4byte	0
 4548 00a4 00000000 		.4byte	0
ARM GAS  C:\Users\jo\AppData\Local\Temp\ccMscRHh.s 			page 81


 4549 00a8 1E000000 		.4byte	.LBB254
 4550 00ac 22000000 		.4byte	.LBE254
 4551 00b0 26000000 		.4byte	.LBB258
 4552 00b4 2A000000 		.4byte	.LBE258
 4553 00b8 00000000 		.4byte	0
 4554 00bc 00000000 		.4byte	0
 4555 00c0 00000000 		.4byte	.LFB255
 4556 00c4 04000000 		.4byte	.LFE255
 4557 00c8 00000000 		.4byte	.LFB256
 4558 00cc 24000000 		.4byte	.LFE256
 4559 00d0 00000000 		.4byte	.LFB257
 4560 00d4 1C000000 		.4byte	.LFE257
 4561 00d8 00000000 		.4byte	.LFB258
 4562 00dc 1A000000 		.4byte	.LFE258
 4563 00e0 00000000 		.4byte	.LFB259
 4564 00e4 5A000000 		.4byte	.LFE259
 4565 00e8 00000000 		.4byte	.LFB260
 4566 00ec 04000000 		.4byte	.LFE260
 4567 00f0 00000000 		.4byte	.LFB261
 4568 00f4 5A000000 		.4byte	.LFE261
 4569 00f8 00000000 		.4byte	.LFB262
 4570 00fc 04000000 		.4byte	.LFE262
 4571 0100 00000000 		.4byte	.LFB263
 4572 0104 04000000 		.4byte	.LFE263
 4573 0108 00000000 		.4byte	0
 4574 010c 00000000 		.4byte	0
 4575              		.section	.debug_line,"",%progbits
 4576              	.Ldebug_line0:
 4577 0000 D9040000 		.section	.debug_str,"MS",%progbits,1
 4577      02003603 
 4577      00000201 
 4577      FB0E0D00 
 4577      01010101 
 4578              	.LASF143:
 4579 0000 70687973 		.ascii	"physdesc\000"
 4579      64657363 
 4579      00
 4580              	.LASF50:
 4581 0009 72656164 		.ascii	"ready_list_t\000"
 4581      795F6C69 
 4581      73745F74 
 4581      00
 4582              	.LASF84:
 4583 0016 44494552 		.ascii	"DIER\000"
 4583      00
 4584              	.LASF2:
 4585 001b 73697A65 		.ascii	"size_t\000"
 4585      5F7400
 4586              	.LASF96:
 4587 0022 7264796D 		.ascii	"rdymsg\000"
 4587      736700
 4588              	.LASF135:
 4589 0029 74646573 		.ascii	"tdes0\000"
 4589      3000
 4590              	.LASF136:
 4591 002f 74646573 		.ascii	"tdes1\000"
 4591      3100
ARM GAS  C:\Users\jo\AppData\Local\Temp\ccMscRHh.s 			page 82


 4592              	.LASF138:
 4593 0035 74646573 		.ascii	"tdes3\000"
 4593      3300
 4594              	.LASF3:
 4595 003b 5F5F7569 		.ascii	"__uint8_t\000"
 4595      6E74385F 
 4595      7400
 4596              	.LASF120:
 4597 0045 4D414344 		.ascii	"MACDriver\000"
 4597      72697665 
 4597      7200
 4598              	.LASF82:
 4599 004f 706F7274 		.ascii	"port_intctx\000"
 4599      5F696E74 
 4599      63747800 
 4600              	.LASF170:
 4601 005b 6D616352 		.ascii	"macReleaseTransmitDescriptor\000"
 4601      656C6561 
 4601      73655472 
 4601      616E736D 
 4601      69744465 
 4602              	.LASF69:
 4603 0078 73797374 		.ascii	"system_debug_t\000"
 4603      656D5F64 
 4603      65627567 
 4603      5F7400
 4604              	.LASF151:
 4605 0087 71756575 		.ascii	"queue_init\000"
 4605      655F696E 
 4605      697400
 4606              	.LASF146:
 4607 0092 706F7274 		.ascii	"port_lock\000"
 4607      5F6C6F63 
 4607      6B00
 4608              	.LASF13:
 4609 009c 6C6F6E67 		.ascii	"long long unsigned int\000"
 4609      206C6F6E 
 4609      6720756E 
 4609      7369676E 
 4609      65642069 
 4610              	.LASF126:
 4611 00b3 6C696E6B 		.ascii	"link_up\000"
 4611      5F757000 
 4612              	.LASF97:
 4613 00bb 65786974 		.ascii	"exitcode\000"
 4613      636F6465 
 4613      00
 4614              	.LASF66:
 4615 00c4 76697274 		.ascii	"virtual_timers_list_t\000"
 4615      75616C5F 
 4615      74696D65 
 4615      72735F6C 
 4615      6973745F 
 4616              	.LASF175:
 4617 00da 49544D5F 		.ascii	"ITM_RxBuffer\000"
 4617      52784275 
 4617      66666572 
ARM GAS  C:\Users\jo\AppData\Local\Temp\ccMscRHh.s 			page 83


 4617      00
 4618              	.LASF88:
 4619 00e7 42445452 		.ascii	"BDTR\000"
 4619      00
 4620              	.LASF49:
 4621 00ec 63685F74 		.ascii	"ch_threads_queue\000"
 4621      68726561 
 4621      64735F71 
 4621      75657565 
 4621      00
 4622              	.LASF30:
 4623 00fd 705F7072 		.ascii	"p_prio\000"
 4623      696F00
 4624              	.LASF6:
 4625 0104 73686F72 		.ascii	"short unsigned int\000"
 4625      7420756E 
 4625      7369676E 
 4625      65642069 
 4625      6E7400
 4626              	.LASF85:
 4627 0117 43434D52 		.ascii	"CCMR1\000"
 4627      3100
 4628              	.LASF86:
 4629 011d 43434D52 		.ascii	"CCMR2\000"
 4629      3200
 4630              	.LASF90:
 4631 0123 43434D52 		.ascii	"CCMR3\000"
 4631      3300
 4632              	.LASF1:
 4633 0129 7369676E 		.ascii	"signed char\000"
 4633      65642063 
 4633      68617200 
 4634              	.LASF159:
 4635 0135 6F73616C 		.ascii	"osalEventObjectInit\000"
 4635      4576656E 
 4635      744F626A 
 4635      65637449 
 4635      6E697400 
 4636              	.LASF101:
 4637 0149 6D5F7175 		.ascii	"m_queue\000"
 4637      65756500 
 4638              	.LASF139:
 4639 0151 73746D33 		.ascii	"stm32_eth_tx_descriptor_t\000"
 4639      325F6574 
 4639      685F7478 
 4639      5F646573 
 4639      63726970 
 4640              	.LASF75:
 4641 016b 76746C69 		.ascii	"vtlist\000"
 4641      737400
 4642              	.LASF147:
 4643 0172 706F7274 		.ascii	"port_unlock\000"
 4643      5F756E6C 
 4643      6F636B00 
 4644              	.LASF121:
 4645 017e 73746174 		.ascii	"state\000"
 4645      6500
ARM GAS  C:\Users\jo\AppData\Local\Temp\ccMscRHh.s 			page 84


 4646              	.LASF73:
 4647 0184 63685F73 		.ascii	"ch_system\000"
 4647      79737465 
 4647      6D00
 4648              	.LASF8:
 4649 018e 6C6F6E67 		.ascii	"long int\000"
 4649      20696E74 
 4649      00
 4650              	.LASF166:
 4651 0197 6D616353 		.ascii	"macStart\000"
 4651      74617274 
 4651      00
 4652              	.LASF112:
 4653 01a0 6576656E 		.ascii	"event_source\000"
 4653      745F736F 
 4653      75726365 
 4653      00
 4654              	.LASF119:
 4655 01ad 6D616373 		.ascii	"macstate_t\000"
 4655      74617465 
 4655      5F7400
 4656              	.LASF20:
 4657 01b8 74737461 		.ascii	"tstate_t\000"
 4657      74655F74 
 4657      00
 4658              	.LASF32:
 4659 01c1 705F6E65 		.ascii	"p_newer\000"
 4659      77657200 
 4660              	.LASF182:
 4661 01c9 6D61635F 		.ascii	"mac_lld_release_receive_descriptor\000"
 4661      6C6C645F 
 4661      72656C65 
 4661      6173655F 
 4661      72656365 
 4662              	.LASF164:
 4663 01ec 6D616349 		.ascii	"macInit\000"
 4663      6E697400 
 4664              	.LASF55:
 4665 01f4 725F6E65 		.ascii	"r_newer\000"
 4665      77657200 
 4666              	.LASF44:
 4667 01fc 705F6D70 		.ascii	"p_mpool\000"
 4667      6F6F6C00 
 4668              	.LASF79:
 4669 0204 72656761 		.ascii	"regarm_t\000"
 4669      726D5F74 
 4669      00
 4670              	.LASF62:
 4671 020d 76745F70 		.ascii	"vt_prev\000"
 4671      72657600 
 4672              	.LASF160:
 4673 0215 6F73616C 		.ascii	"osalSysLock\000"
 4673      5379734C 
 4673      6F636B00 
 4674              	.LASF11:
 4675 0221 6C6F6E67 		.ascii	"long long int\000"
 4675      206C6F6E 
ARM GAS  C:\Users\jo\AppData\Local\Temp\ccMscRHh.s 			page 85


 4675      6720696E 
 4675      7400
 4676              	.LASF152:
 4677 022f 76616C75 		.ascii	"value\000"
 4677      6500
 4678              	.LASF114:
 4679 0235 6576656E 		.ascii	"event_source_t\000"
 4679      745F736F 
 4679      75726365 
 4679      5F7400
 4680              	.LASF77:
 4681 0244 69646C65 		.ascii	"idle_thread_wa\000"
 4681      5F746872 
 4681      6561645F 
 4681      776100
 4682              	.LASF106:
 4683 0253 6576656E 		.ascii	"event_listener\000"
 4683      745F6C69 
 4683      7374656E 
 4683      657200
 4684              	.LASF188:
 4685 0262 6D61635F 		.ascii	"mac_lld_init\000"
 4685      6C6C645F 
 4685      696E6974 
 4685      00
 4686              	.LASF155:
 4687 026f 63685654 		.ascii	"chVTGetSystemTimeX\000"
 4687      47657453 
 4687      79737465 
 4687      6D54696D 
 4687      655800
 4688              	.LASF0:
 4689 0282 756E7369 		.ascii	"unsigned int\000"
 4689      676E6564 
 4689      20696E74 
 4689      00
 4690              	.LASF61:
 4691 028f 76745F6E 		.ascii	"vt_next\000"
 4691      65787400 
 4692              	.LASF174:
 4693 0297 6D616350 		.ascii	"macPollLinkStatus\000"
 4693      6F6C6C4C 
 4693      696E6B53 
 4693      74617475 
 4693      7300
 4694              	.LASF187:
 4695 02a9 6F73616C 		.ascii	"osalThreadEnqueueTimeoutS\000"
 4695      54687265 
 4695      6164456E 
 4695      71756575 
 4695      6554696D 
 4696              	.LASF63:
 4697 02c3 76745F64 		.ascii	"vt_delta\000"
 4697      656C7461 
 4697      00
 4698              	.LASF39:
 4699 02cc 705F6D73 		.ascii	"p_msgqueue\000"
ARM GAS  C:\Users\jo\AppData\Local\Temp\ccMscRHh.s 			page 86


 4699      67717565 
 4699      756500
 4700              	.LASF130:
 4701 02d7 72646573 		.ascii	"rdes0\000"
 4701      3000
 4702              	.LASF131:
 4703 02dd 72646573 		.ascii	"rdes1\000"
 4703      3100
 4704              	.LASF132:
 4705 02e3 72646573 		.ascii	"rdes2\000"
 4705      3200
 4706              	.LASF133:
 4707 02e9 72646573 		.ascii	"rdes3\000"
 4707      3300
 4708              	.LASF157:
 4709 02ef 63684576 		.ascii	"chEvtObjectInit\000"
 4709      744F626A 
 4709      65637449 
 4709      6E697400 
 4710              	.LASF83:
 4711 02ff 534D4352 		.ascii	"SMCR\000"
 4711      00
 4712              	.LASF46:
 4713 0304 63685F74 		.ascii	"ch_thread\000"
 4713      68726561 
 4713      6400
 4714              	.LASF116:
 4715 030e 4D41435F 		.ascii	"MAC_UNINIT\000"
 4715      554E494E 
 4715      495400
 4716              	.LASF76:
 4717 0319 6D61696E 		.ascii	"mainthread\000"
 4717      74687265 
 4717      616400
 4718              	.LASF25:
 4719 0324 6576656E 		.ascii	"eventflags_t\000"
 4719      74666C61 
 4719      67735F74 
 4719      00
 4720              	.LASF23:
 4721 0331 6D73675F 		.ascii	"msg_t\000"
 4721      7400
 4722              	.LASF140:
 4723 0337 6D61635F 		.ascii	"mac_address\000"
 4723      61646472 
 4723      65737300 
 4724              	.LASF107:
 4725 0343 656C5F6E 		.ascii	"el_next\000"
 4725      65787400 
 4726              	.LASF72:
 4727 034b 63685F73 		.ascii	"ch_system_t\000"
 4727      79737465 
 4727      6D5F7400 
 4728              	.LASF92:
 4729 0357 73746D33 		.ascii	"stm32_tim_t\000"
 4729      325F7469 
 4729      6D5F7400 
ARM GAS  C:\Users\jo\AppData\Local\Temp\ccMscRHh.s 			page 87


 4730              	.LASF128:
 4731 0363 72787074 		.ascii	"rxptr\000"
 4731      7200
 4732              	.LASF51:
 4733 0369 63685F72 		.ascii	"ch_ready_list\000"
 4733      65616479 
 4733      5F6C6973 
 4733      7400
 4734              	.LASF24:
 4735 0377 6576656E 		.ascii	"eventmask_t\000"
 4735      746D6173 
 4735      6B5F7400 
 4736              	.LASF7:
 4737 0383 5F5F696E 		.ascii	"__int32_t\000"
 4737      7433325F 
 4737      7400
 4738              	.LASF80:
 4739 038d 73746B61 		.ascii	"stkalign_t\000"
 4739      6C69676E 
 4739      5F7400
 4740              	.LASF105:
 4741 0398 6576656E 		.ascii	"event_listener_t\000"
 4741      745F6C69 
 4741      7374656E 
 4741      65725F74 
 4741      00
 4742              	.LASF156:
 4743 03a9 63685468 		.ascii	"chThdQueueObjectInit\000"
 4743      64517565 
 4743      75654F62 
 4743      6A656374 
 4743      496E6974 
 4744              	.LASF172:
 4745 03be 6D616357 		.ascii	"macWaitReceiveDescriptor\000"
 4745      61697452 
 4745      65636569 
 4745      76654465 
 4745      73637269 
 4746              	.LASF38:
 4747 03d7 705F7761 		.ascii	"p_waiting\000"
 4747      6974696E 
 4747      6700
 4748              	.LASF78:
 4749 03e1 73697A65 		.ascii	"sizetype\000"
 4749      74797065 
 4749      00
 4750              	.LASF180:
 4751 03ea 6D61635F 		.ascii	"mac_lld_release_transmit_descriptor\000"
 4751      6C6C645F 
 4751      72656C65 
 4751      6173655F 
 4751      7472616E 
 4752              	.LASF67:
 4753 040e 63685F76 		.ascii	"ch_virtual_timers_list\000"
 4753      69727475 
 4753      616C5F74 
 4753      696D6572 
ARM GAS  C:\Users\jo\AppData\Local\Temp\ccMscRHh.s 			page 88


 4753      735F6C69 
 4754              	.LASF150:
 4755 0425 5F5F7365 		.ascii	"__set_BASEPRI\000"
 4755      745F4241 
 4755      53455052 
 4755      4900
 4756              	.LASF68:
 4757 0433 76745F6C 		.ascii	"vt_lasttime\000"
 4757      61737474 
 4757      696D6500 
 4758              	.LASF17:
 4759 043f 75696E74 		.ascii	"uint64_t\000"
 4759      36345F74 
 4759      00
 4760              	.LASF33:
 4761 0448 705F6F6C 		.ascii	"p_older\000"
 4761      64657200 
 4762              	.LASF54:
 4763 0450 725F6374 		.ascii	"r_ctx\000"
 4763      7800
 4764              	.LASF31:
 4765 0456 705F6374 		.ascii	"p_ctx\000"
 4765      7800
 4766              	.LASF95:
 4767 045c 746D5F63 		.ascii	"tm_calibration_t\000"
 4767      616C6962 
 4767      72617469 
 4767      6F6E5F74 
 4767      00
 4768              	.LASF37:
 4769 046d 705F7265 		.ascii	"p_refs\000"
 4769      667300
 4770              	.LASF57:
 4771 0474 725F6375 		.ascii	"r_current\000"
 4771      7272656E 
 4771      7400
 4772              	.LASF56:
 4773 047e 725F6F6C 		.ascii	"r_older\000"
 4773      64657200 
 4774              	.LASF184:
 4775 0486 474E5520 		.ascii	"GNU C 4.9.3 20141119 (release) [ARM/embedded-4_9-br"
 4775      4320342E 
 4775      392E3320 
 4775      32303134 
 4775      31313139 
 4776 04b9 616E6368 		.ascii	"anch revision 218278] -mcpu=cortex-m4 -mfloat-abi=h"
 4776      20726576 
 4776      6973696F 
 4776      6E203231 
 4776      38323738 
 4777 04ec 61726420 		.ascii	"ard -mfpu=fpv4-sp-d16 -mno-thumb-interwork -mthumb "
 4777      2D6D6670 
 4777      753D6670 
 4777      76342D73 
 4777      702D6431 
 4778 051f 2D676764 		.ascii	"-ggdb -O2 -fomit-frame-pointer -falign-functions=16"
 4778      62202D4F 
ARM GAS  C:\Users\jo\AppData\Local\Temp\ccMscRHh.s 			page 89


 4778      32202D66 
 4778      6F6D6974 
 4778      2D667261 
 4779 0552 202D6666 		.ascii	" -ffunction-sections -fdata-sections -fno-common -f"
 4779      756E6374 
 4779      696F6E2D 
 4779      73656374 
 4779      696F6E73 
 4780 0585 73696E67 		.ascii	"single-precision-constant\000"
 4780      6C652D70 
 4780      72656369 
 4780      73696F6E 
 4780      2D636F6E 
 4781              	.LASF109:
 4782 059f 656C5F65 		.ascii	"el_events\000"
 4782      76656E74 
 4782      7300
 4783              	.LASF12:
 4784 05a9 5F5F7569 		.ascii	"__uint64_t\000"
 4784      6E743634 
 4784      5F7400
 4785              	.LASF21:
 4786 05b4 74726566 		.ascii	"trefs_t\000"
 4786      735F7400 
 4787              	.LASF118:
 4788 05bc 4D41435F 		.ascii	"MAC_ACTIVE\000"
 4788      41435449 
 4788      564500
 4789              	.LASF117:
 4790 05c7 4D41435F 		.ascii	"MAC_STOP\000"
 4790      53544F50 
 4790      00
 4791              	.LASF59:
 4792 05d0 76697274 		.ascii	"virtual_timer_t\000"
 4792      75616C5F 
 4792      74696D65 
 4792      725F7400 
 4793              	.LASF29:
 4794 05e0 705F7072 		.ascii	"p_prev\000"
 4794      657600
 4795              	.LASF137:
 4796 05e7 74646573 		.ascii	"tdes2\000"
 4796      3200
 4797              	.LASF22:
 4798 05ed 74707269 		.ascii	"tprio_t\000"
 4798      6F5F7400 
 4799              	.LASF100:
 4800 05f5 6D757465 		.ascii	"mutex\000"
 4800      7800
 4801              	.LASF70:
 4802 05fb 63685F73 		.ascii	"ch_system_debug\000"
 4802      79737465 
 4802      6D5F6465 
 4802      62756700 
 4803              	.LASF115:
 4804 060b 5F426F6F 		.ascii	"_Bool\000"
 4804      6C00
ARM GAS  C:\Users\jo\AppData\Local\Temp\ccMscRHh.s 			page 90


 4805              	.LASF15:
 4806 0611 696E7433 		.ascii	"int32_t\000"
 4806      325F7400 
 4807              	.LASF4:
 4808 0619 756E7369 		.ascii	"unsigned char\000"
 4808      676E6564 
 4808      20636861 
 4808      7200
 4809              	.LASF124:
 4810 0627 72647175 		.ascii	"rdqueue\000"
 4810      65756500 
 4811              	.LASF108:
 4812 062f 656C5F6C 		.ascii	"el_listener\000"
 4812      69737465 
 4812      6E657200 
 4813              	.LASF110:
 4814 063b 656C5F66 		.ascii	"el_flags\000"
 4814      6C616773 
 4814      00
 4815              	.LASF42:
 4816 0644 705F6D74 		.ascii	"p_mtxlist\000"
 4816      786C6973 
 4816      7400
 4817              	.LASF5:
 4818 064e 73686F72 		.ascii	"short int\000"
 4818      7420696E 
 4818      7400
 4819              	.LASF35:
 4820 0658 705F7374 		.ascii	"p_state\000"
 4820      61746500 
 4821              	.LASF167:
 4822 0660 6D616370 		.ascii	"macp\000"
 4822      00
 4823              	.LASF53:
 4824 0665 725F7072 		.ascii	"r_prio\000"
 4824      696F00
 4825              	.LASF129:
 4826 066c 74787074 		.ascii	"txptr\000"
 4826      7200
 4827              	.LASF99:
 4828 0672 65776D61 		.ascii	"ewmask\000"
 4828      736B00
 4829              	.LASF28:
 4830 0679 705F6E65 		.ascii	"p_next\000"
 4830      787400
 4831              	.LASF36:
 4832 0680 705F666C 		.ascii	"p_flags\000"
 4832      61677300 
 4833              	.LASF169:
 4834 0688 5F5F6675 		.ascii	"__func__\000"
 4834      6E635F5F 
 4834      00
 4835              	.LASF165:
 4836 0691 6D61634F 		.ascii	"macObjectInit\000"
 4836      626A6563 
 4836      74496E69 
 4836      7400
ARM GAS  C:\Users\jo\AppData\Local\Temp\ccMscRHh.s 			page 91


 4837              	.LASF153:
 4838 069f 63685379 		.ascii	"chSysLock\000"
 4838      734C6F63 
 4838      6B00
 4839              	.LASF161:
 4840 06a9 6F73616C 		.ascii	"osalSysUnlock\000"
 4840      53797355 
 4840      6E6C6F63 
 4840      6B00
 4841              	.LASF60:
 4842 06b7 63685F76 		.ascii	"ch_virtual_timer\000"
 4842      69727475 
 4842      616C5F74 
 4842      696D6572 
 4842      00
 4843              	.LASF91:
 4844 06c8 43435852 		.ascii	"CCXR\000"
 4844      00
 4845              	.LASF41:
 4846 06cd 705F6570 		.ascii	"p_epending\000"
 4846      656E6469 
 4846      6E6700
 4847              	.LASF148:
 4848 06d8 73745F6C 		.ascii	"st_lld_get_counter\000"
 4848      6C645F67 
 4848      65745F63 
 4848      6F756E74 
 4848      657200
 4849              	.LASF16:
 4850 06eb 75696E74 		.ascii	"uint32_t\000"
 4850      33325F74 
 4850      00
 4851              	.LASF52:
 4852 06f4 725F7175 		.ascii	"r_queue\000"
 4852      65756500 
 4853              	.LASF47:
 4854 06fc 63685F74 		.ascii	"ch_threads_list\000"
 4854      68726561 
 4854      64735F6C 
 4854      69737400 
 4855              	.LASF10:
 4856 070c 6C6F6E67 		.ascii	"long unsigned int\000"
 4856      20756E73 
 4856      69676E65 
 4856      6420696E 
 4856      7400
 4857              	.LASF93:
 4858 071e 63686172 		.ascii	"char\000"
 4858      00
 4859              	.LASF122:
 4860 0723 636F6E66 		.ascii	"config\000"
 4860      696700
 4861              	.LASF186:
 4862 072a 433A5C55 		.ascii	"C:\\Users\\jo\\Documents\\GitHub\\ChibiOS\\demos\\S"
 4862      73657273 
 4862      5C6A6F5C 
 4862      446F6375 
ARM GAS  C:\Users\jo\AppData\Local\Temp\ccMscRHh.s 			page 92


 4862      6D656E74 
 4863 0756 544D3332 		.ascii	"TM32\\RT-STM32F407-DISCOVERY\000"
 4863      5C52542D 
 4863      53544D33 
 4863      32463430 
 4863      372D4449 
 4864              	.LASF89:
 4865 0772 444D4152 		.ascii	"DMAR\000"
 4865      00
 4866              	.LASF181:
 4867 0777 6D61635F 		.ascii	"mac_lld_get_receive_descriptor\000"
 4867      6C6C645F 
 4867      6765745F 
 4867      72656365 
 4867      6976655F 
 4868              	.LASF27:
 4869 0796 74687265 		.ascii	"thread_t\000"
 4869      61645F74 
 4869      00
 4870              	.LASF87:
 4871 079f 43434552 		.ascii	"CCER\000"
 4871      00
 4872              	.LASF103:
 4873 07a4 6D5F6E65 		.ascii	"m_next\000"
 4873      787400
 4874              	.LASF26:
 4875 07ab 73797374 		.ascii	"systime_t\000"
 4875      696D655F 
 4875      7400
 4876              	.LASF43:
 4877 07b5 705F7265 		.ascii	"p_realprio\000"
 4877      616C7072 
 4877      696F00
 4878              	.LASF58:
 4879 07c0 76746675 		.ascii	"vtfunc_t\000"
 4879      6E635F74 
 4879      00
 4880              	.LASF9:
 4881 07c9 5F5F7569 		.ascii	"__uint32_t\000"
 4881      6E743332 
 4881      5F7400
 4882              	.LASF179:
 4883 07d4 6D61635F 		.ascii	"mac_lld_get_transmit_descriptor\000"
 4883      6C6C645F 
 4883      6765745F 
 4883      7472616E 
 4883      736D6974 
 4884              	.LASF111:
 4885 07f4 656C5F77 		.ascii	"el_wflags\000"
 4885      666C6167 
 4885      7300
 4886              	.LASF71:
 4887 07fe 70616E69 		.ascii	"panic_msg\000"
 4887      635F6D73 
 4887      6700
 4888              	.LASF94:
 4889 0808 6F666673 		.ascii	"offset\000"
ARM GAS  C:\Users\jo\AppData\Local\Temp\ccMscRHh.s 			page 93


 4889      657400
 4890              	.LASF81:
 4891 080f 636F6E74 		.ascii	"context\000"
 4891      65787400 
 4892              	.LASF158:
 4893 0817 6F73616C 		.ascii	"osalThreadQueueObjectInit\000"
 4893      54687265 
 4893      61645175 
 4893      6575654F 
 4893      626A6563 
 4894              	.LASF149:
 4895 0831 706F7274 		.ascii	"port_timer_get_time\000"
 4895      5F74696D 
 4895      65725F67 
 4895      65745F74 
 4895      696D6500 
 4896              	.LASF18:
 4897 0845 7274636E 		.ascii	"rtcnt_t\000"
 4897      745F7400 
 4898              	.LASF163:
 4899 084d 74696D65 		.ascii	"time\000"
 4899      00
 4900              	.LASF65:
 4901 0852 76745F70 		.ascii	"vt_par\000"
 4901      617200
 4902              	.LASF125:
 4903 0859 72646576 		.ascii	"rdevent\000"
 4903      656E7400 
 4904              	.LASF173:
 4905 0861 6D616352 		.ascii	"macReleaseReceiveDescriptor\000"
 4905      656C6561 
 4905      73655265 
 4905      63656976 
 4905      65446573 
 4906              	.LASF145:
 4907 087d 4D414352 		.ascii	"MACReceiveDescriptor\000"
 4907      65636569 
 4907      76654465 
 4907      73637269 
 4907      70746F72 
 4908              	.LASF171:
 4909 0892 6D616357 		.ascii	"macWaitTransmitDescriptor\000"
 4909      61697454 
 4909      72616E73 
 4909      6D697444 
 4909      65736372 
 4910              	.LASF168:
 4911 08ac 6D616353 		.ascii	"macStop\000"
 4911      746F7000 
 4912              	.LASF48:
 4913 08b4 74687265 		.ascii	"threads_queue_t\000"
 4913      6164735F 
 4913      71756575 
 4913      655F7400 
 4914              	.LASF113:
 4915 08c4 65735F6E 		.ascii	"es_next\000"
 4915      65787400 
ARM GAS  C:\Users\jo\AppData\Local\Temp\ccMscRHh.s 			page 94


 4916              	.LASF134:
 4917 08cc 73746D33 		.ascii	"stm32_eth_rx_descriptor_t\000"
 4917      325F6574 
 4917      685F7278 
 4917      5F646573 
 4917      63726970 
 4918              	.LASF74:
 4919 08e6 726C6973 		.ascii	"rlist\000"
 4919      7400
 4920              	.LASF141:
 4921 08ec 4D414343 		.ascii	"MACConfig\000"
 4921      6F6E6669 
 4921      6700
 4922              	.LASF14:
 4923 08f6 75696E74 		.ascii	"uint8_t\000"
 4923      385F7400 
 4924              	.LASF144:
 4925 08fe 4D414354 		.ascii	"MACTransmitDescriptor\000"
 4925      72616E73 
 4925      6D697444 
 4925      65736372 
 4925      6970746F 
 4926              	.LASF127:
 4927 0914 70687961 		.ascii	"phyaddr\000"
 4927      64647200 
 4928              	.LASF177:
 4929 091c 6D61635F 		.ascii	"mac_lld_stop\000"
 4929      6C6C645F 
 4929      73746F70 
 4929      00
 4930              	.LASF183:
 4931 0929 6D61635F 		.ascii	"mac_lld_poll_link_status\000"
 4931      6C6C645F 
 4931      706F6C6C 
 4931      5F6C696E 
 4931      6B5F7374 
 4932              	.LASF98:
 4933 0942 77746F62 		.ascii	"wtobjp\000"
 4933      6A7000
 4934              	.LASF34:
 4935 0949 705F6E61 		.ascii	"p_name\000"
 4935      6D6500
 4936              	.LASF142:
 4937 0950 73697A65 		.ascii	"size\000"
 4937      00
 4938              	.LASF176:
 4939 0955 6D61635F 		.ascii	"mac_lld_start\000"
 4939      6C6C645F 
 4939      73746172 
 4939      7400
 4940              	.LASF45:
 4941 0963 74687265 		.ascii	"threads_list_t\000"
 4941      6164735F 
 4941      6C697374 
 4941      5F7400
 4942              	.LASF162:
 4943 0972 6F73616C 		.ascii	"osalOsGetSystemTimeX\000"
ARM GAS  C:\Users\jo\AppData\Local\Temp\ccMscRHh.s 			page 95


 4943      4F734765 
 4943      74537973 
 4943      74656D54 
 4943      696D6558 
 4944              	.LASF19:
 4945 0987 746D6F64 		.ascii	"tmode_t\000"
 4945      655F7400 
 4946              	.LASF185:
 4947 098f 2E2E2F2E 		.ascii	"../../../os/hal/src/mac.c\000"
 4947      2E2F2E2E 
 4947      2F6F732F 
 4947      68616C2F 
 4947      7372632F 
 4948              	.LASF154:
 4949 09a9 63685379 		.ascii	"chSysUnlock\000"
 4949      73556E6C 
 4949      6F636B00 
 4950              	.LASF40:
 4951 09b5 705F6D73 		.ascii	"p_msg\000"
 4951      6700
 4952              	.LASF104:
 4953 09bb 6D757465 		.ascii	"mutex_t\000"
 4953      785F7400 
 4954              	.LASF102:
 4955 09c3 6D5F6F77 		.ascii	"m_owner\000"
 4955      6E657200 
 4956              	.LASF123:
 4957 09cb 74647175 		.ascii	"tdqueue\000"
 4957      65756500 
 4958              	.LASF64:
 4959 09d3 76745F66 		.ascii	"vt_func\000"
 4959      756E6300 
 4960              	.LASF178:
 4961 09db 63685468 		.ascii	"chThdEnqueueTimeoutS\000"
 4961      64456E71 
 4961      75657565 
 4961      54696D65 
 4961      6F757453 
 4962              		.ident	"GCC: (GNU Tools for ARM Embedded Processors) 4.9.3 20141119 (release) [ARM/embedded-4_9-br
ARM GAS  C:\Users\jo\AppData\Local\Temp\ccMscRHh.s 			page 96


DEFINED SYMBOLS
                            *ABS*:00000000 mac.c
C:\Users\jo\AppData\Local\Temp\ccMscRHh.s:21     .text.macInit:00000000 $t
C:\Users\jo\AppData\Local\Temp\ccMscRHh.s:27     .text.macInit:00000000 macInit
C:\Users\jo\AppData\Local\Temp\ccMscRHh.s:42     .text.macObjectInit:00000000 $t
C:\Users\jo\AppData\Local\Temp\ccMscRHh.s:48     .text.macObjectInit:00000000 macObjectInit
C:\Users\jo\AppData\Local\Temp\ccMscRHh.s:118    .text.macStart:00000000 $t
C:\Users\jo\AppData\Local\Temp\ccMscRHh.s:124    .text.macStart:00000000 macStart
C:\Users\jo\AppData\Local\Temp\ccMscRHh.s:197    .text.macStop:00000000 $t
C:\Users\jo\AppData\Local\Temp\ccMscRHh.s:203    .text.macStop:00000000 macStop
C:\Users\jo\AppData\Local\Temp\ccMscRHh.s:273    .text.macWaitTransmitDescriptor:00000000 $t
C:\Users\jo\AppData\Local\Temp\ccMscRHh.s:279    .text.macWaitTransmitDescriptor:00000000 macWaitTransmitDescriptor
C:\Users\jo\AppData\Local\Temp\ccMscRHh.s:454    .text.macReleaseTransmitDescriptor:00000000 $t
C:\Users\jo\AppData\Local\Temp\ccMscRHh.s:460    .text.macReleaseTransmitDescriptor:00000000 macReleaseTransmitDescriptor
C:\Users\jo\AppData\Local\Temp\ccMscRHh.s:475    .text.macWaitReceiveDescriptor:00000000 $t
C:\Users\jo\AppData\Local\Temp\ccMscRHh.s:481    .text.macWaitReceiveDescriptor:00000000 macWaitReceiveDescriptor
C:\Users\jo\AppData\Local\Temp\ccMscRHh.s:654    .text.macReleaseReceiveDescriptor:00000000 $t
C:\Users\jo\AppData\Local\Temp\ccMscRHh.s:660    .text.macReleaseReceiveDescriptor:00000000 macReleaseReceiveDescriptor
C:\Users\jo\AppData\Local\Temp\ccMscRHh.s:675    .text.macPollLinkStatus:00000000 $t
C:\Users\jo\AppData\Local\Temp\ccMscRHh.s:681    .text.macPollLinkStatus:00000000 macPollLinkStatus
                     .debug_frame:00000010 $d

UNDEFINED SYMBOLS
mac_lld_init
mac_lld_start
mac_lld_stop
chThdEnqueueTimeoutS
mac_lld_get_transmit_descriptor
mac_lld_release_transmit_descriptor
mac_lld_get_receive_descriptor
mac_lld_release_receive_descriptor
mac_lld_poll_link_status
