ARM GAS  C:\Users\jo\AppData\Local\Temp\ccMscRHh.s 			page 1


   1              		.syntax unified
   2              		.cpu cortex-m4
   3              		.eabi_attribute 27, 3
   4              		.eabi_attribute 28, 1
   5              		.fpu fpv4-sp-d16
   6              		.eabi_attribute 20, 1
   7              		.eabi_attribute 21, 1
   8              		.eabi_attribute 23, 3
   9              		.eabi_attribute 24, 1
  10              		.eabi_attribute 25, 1
  11              		.eabi_attribute 26, 1
  12              		.eabi_attribute 30, 2
  13              		.eabi_attribute 34, 1
  14              		.eabi_attribute 18, 4
  15              		.thumb
  16              		.file	"mac.c"
  17              		.text
  18              	.Ltext0:
  19              		.cfi_sections	.debug_frame
  20              		.section	.text.macInit,"ax",%progbits
  21              		.align	2
  22              		.p2align 4,,15
  23              		.global	macInit
  24              		.thumb
  25              		.thumb_func
  26              		.type	macInit, %function
  27              	macInit:
  28              	.LFB255:
  29              		.file 1 "../../../os/hal/src/mac.c"
  30              		.loc 1 67 0
  31              		.cfi_startproc
  32              		@ args = 0, pretend = 0, frame = 0
  33              		@ frame_needed = 0, uses_anonymous_args = 0
  34              		@ link register save eliminated.
  35              		.loc 1 69 0
  36 0000 FFF7FEBF 		b	mac_lld_init
  37              	.LVL0:
  38              		.cfi_endproc
  39              	.LFE255:
  40              		.size	macInit, .-macInit
  41 0004 AFF30080 		.section	.text.macObjectInit,"ax",%progbits
  41      AFF30080 
  41      AFF30080 
  42              		.align	2
  43              		.p2align 4,,15
  44              		.global	macObjectInit
  45              		.thumb
  46              		.thumb_func
  47              		.type	macObjectInit, %function
  48              	macObjectInit:
  49              	.LFB256:
  50              		.loc 1 79 0
  51              		.cfi_startproc
  52              		@ args = 0, pretend = 0, frame = 0
  53              		@ frame_needed = 0, uses_anonymous_args = 0
  54              		@ link register save eliminated.
  55              	.LVL1:
ARM GAS  C:\Users\jo\AppData\Local\Temp\ccMscRHh.s 			page 2


  56 0000 30B4     		push	{r4, r5}
  57              		.cfi_def_cfa_offset 8
  58              		.cfi_offset 4, -8
  59              		.cfi_offset 5, -4
  60              		.loc 1 83 0
  61 0002 00F10802 		add	r2, r0, #8
  62              	.LVL2:
  63              		.loc 1 81 0
  64 0006 0125     		movs	r5, #1
  65              		.loc 1 82 0
  66 0008 0024     		movs	r4, #0
  67              		.loc 1 84 0
  68 000a 00F11003 		add	r3, r0, #16
  69              	.LVL3:
  70              		.loc 1 86 0
  71 000e 00F11801 		add	r1, r0, #24
  72              		.loc 1 81 0
  73 0012 0570     		strb	r5, [r0]
  74              		.loc 1 82 0
  75 0014 4460     		str	r4, [r0, #4]
  76              	.LBB151:
  77              	.LBB152:
  78              	.LBB153:
  79              		.file 2 "../../../os/rt/include/chevents.h"
  80              		.loc 2 172 0
  81 0016 8161     		str	r1, [r0, #24]
  82              	.LBE153:
  83              	.LBE152:
  84              	.LBE151:
  85              	.LBB154:
  86              	.LBB155:
  87              	.LBB156:
  88              	.LBB157:
  89              		.file 3 "../../../os/rt/include/chschd.h"
  90              		.loc 3 574 0
  91 0018 C260     		str	r2, [r0, #12]
  92 001a 8260     		str	r2, [r0, #8]
  93              	.LBE157:
  94              	.LBE156:
  95              	.LBE155:
  96              	.LBE154:
  97              	.LBB158:
  98              	.LBB159:
  99              	.LBB160:
 100              	.LBB161:
 101 001c 4361     		str	r3, [r0, #20]
 102 001e 0361     		str	r3, [r0, #16]
 103              	.LVL4:
 104              	.LBE161:
 105              	.LBE160:
 106              	.LBE159:
 107              	.LBE158:
 108              		.loc 1 88 0
 109 0020 30BC     		pop	{r4, r5}
 110              		.cfi_restore 5
 111              		.cfi_restore 4
 112              		.cfi_def_cfa_offset 0
ARM GAS  C:\Users\jo\AppData\Local\Temp\ccMscRHh.s 			page 3


 113 0022 7047     		bx	lr
 114              		.cfi_endproc
 115              	.LFE256:
 116              		.size	macObjectInit, .-macObjectInit
 117 0024 AFF30080 		.section	.text.macStart,"ax",%progbits
 117      AFF30080 
 117      AFF30080 
 118              		.align	2
 119              		.p2align 4,,15
 120              		.global	macStart
 121              		.thumb
 122              		.thumb_func
 123              		.type	macStart, %function
 124              	macStart:
 125              	.LFB257:
 126              		.loc 1 98 0
 127              		.cfi_startproc
 128              		@ args = 0, pretend = 0, frame = 0
 129              		@ frame_needed = 0, uses_anonymous_args = 0
 130              	.LVL5:
 131 0000 10B5     		push	{r4, lr}
 132              		.cfi_def_cfa_offset 8
 133              		.cfi_offset 4, -8
 134              		.cfi_offset 14, -4
 135              	.LBB162:
 136              	.LBB163:
 137              	.LBB164:
 138              	.LBB165:
 139              	.LBB166:
 140              		.file 4 "../../../os/ext/CMSIS/include/core_cmFunc.h"
 141              		.loc 4 546 0
 142 0002 2023     		movs	r3, #32
 143              	.LBE166:
 144              	.LBE165:
 145              	.LBE164:
 146              	.LBE163:
 147              	.LBE162:
 148              		.loc 1 98 0
 149 0004 0446     		mov	r4, r0
 150              	.LBB171:
 151              	.LBB170:
 152              	.LBB169:
 153              	.LBB168:
 154              	.LBB167:
 155              		.loc 4 546 0
 156              	@ 546 "../../../os/ext/CMSIS/include/core_cmFunc.h" 1
 157 0006 83F31188 		MSR basepri, r3
 158              	@ 0 "" 2
 159              		.thumb
 160              	.LBE167:
 161              	.LBE168:
 162              	.LBE169:
 163              	.LBE170:
 164              	.LBE171:
 165              		.loc 1 105 0
 166 000a 4160     		str	r1, [r0, #4]
 167              		.loc 1 106 0
ARM GAS  C:\Users\jo\AppData\Local\Temp\ccMscRHh.s 			page 4


 168 000c FFF7FEFF 		bl	mac_lld_start
 169              	.LVL6:
 170              		.loc 1 107 0
 171 0010 0223     		movs	r3, #2
 172 0012 2370     		strb	r3, [r4]
 173              	.LVL7:
 174              	.LBB172:
 175              	.LBB173:
 176              	.LBB174:
 177              	.LBB175:
 178              	.LBB176:
 179              	.LBB177:
 180              		.loc 4 546 0
 181 0014 0023     		movs	r3, #0
 182              	@ 546 "../../../os/ext/CMSIS/include/core_cmFunc.h" 1
 183 0016 83F31188 		MSR basepri, r3
 184              	@ 0 "" 2
 185              		.thumb
 186 001a 10BD     		pop	{r4, pc}
 187              	.LBE177:
 188              	.LBE176:
 189              	.LBE175:
 190              	.LBE174:
 191              	.LBE173:
 192              	.LBE172:
 193              		.cfi_endproc
 194              	.LFE257:
 195              		.size	macStart, .-macStart
 196 001c AFF30080 		.section	.text.macStop,"ax",%progbits
 197              		.align	2
 198              		.p2align 4,,15
 199              		.global	macStop
 200              		.thumb
 201              		.thumb_func
 202              		.type	macStop, %function
 203              	macStop:
 204              	.LFB258:
 205              		.loc 1 118 0
 206              		.cfi_startproc
 207              		@ args = 0, pretend = 0, frame = 0
 208              		@ frame_needed = 0, uses_anonymous_args = 0
 209              	.LVL8:
 210 0000 10B5     		push	{r4, lr}
 211              		.cfi_def_cfa_offset 8
 212              		.cfi_offset 4, -8
 213              		.cfi_offset 14, -4
 214              	.LBB178:
 215              	.LBB179:
 216              	.LBB180:
 217              	.LBB181:
 218              	.LBB182:
 219              		.loc 4 546 0
 220 0002 2023     		movs	r3, #32
 221              	.LBE182:
 222              	.LBE181:
 223              	.LBE180:
 224              	.LBE179:
ARM GAS  C:\Users\jo\AppData\Local\Temp\ccMscRHh.s 			page 5


 225              	.LBE178:
 226              		.loc 1 118 0
 227 0004 0446     		mov	r4, r0
 228              	.LBB187:
 229              	.LBB186:
 230              	.LBB185:
 231              	.LBB184:
 232              	.LBB183:
 233              		.loc 4 546 0
 234              	@ 546 "../../../os/ext/CMSIS/include/core_cmFunc.h" 1
 235 0006 83F31188 		MSR basepri, r3
 236              	@ 0 "" 2
 237              		.thumb
 238              	.LBE183:
 239              	.LBE184:
 240              	.LBE185:
 241              	.LBE186:
 242              	.LBE187:
 243              		.loc 1 125 0
 244 000a FFF7FEFF 		bl	mac_lld_stop
 245              	.LVL9:
 246              		.loc 1 126 0
 247 000e 0123     		movs	r3, #1
 248 0010 2370     		strb	r3, [r4]
 249              	.LVL10:
 250              	.LBB188:
 251              	.LBB189:
 252              	.LBB190:
 253              	.LBB191:
 254              	.LBB192:
 255              	.LBB193:
 256              		.loc 4 546 0
 257 0012 0023     		movs	r3, #0
 258              	@ 546 "../../../os/ext/CMSIS/include/core_cmFunc.h" 1
 259 0014 83F31188 		MSR basepri, r3
 260              	@ 0 "" 2
 261              		.thumb
 262 0018 10BD     		pop	{r4, pc}
 263              	.LBE193:
 264              	.LBE192:
 265              	.LBE191:
 266              	.LBE190:
 267              	.LBE189:
 268              	.LBE188:
 269              		.cfi_endproc
 270              	.LFE258:
 271              		.size	macStop, .-macStop
 272 001a 00BFAFF3 		.section	.text.macWaitTransmitDescriptor,"ax",%progbits
 272      0080
 273              		.align	2
 274              		.p2align 4,,15
 275              		.global	macWaitTransmitDescriptor
 276              		.thumb
 277              		.thumb_func
 278              		.type	macWaitTransmitDescriptor, %function
 279              	macWaitTransmitDescriptor:
 280              	.LFB259:
ARM GAS  C:\Users\jo\AppData\Local\Temp\ccMscRHh.s 			page 6


 281              		.loc 1 151 0
 282              		.cfi_startproc
 283              		@ args = 0, pretend = 0, frame = 0
 284              		@ frame_needed = 0, uses_anonymous_args = 0
 285              	.LVL11:
 286 0000 2DE9F047 		push	{r4, r5, r6, r7, r8, r9, r10, lr}
 287              		.cfi_def_cfa_offset 32
 288              		.cfi_offset 4, -32
 289              		.cfi_offset 5, -28
 290              		.cfi_offset 6, -24
 291              		.cfi_offset 7, -20
 292              		.cfi_offset 8, -16
 293              		.cfi_offset 9, -12
 294              		.cfi_offset 10, -8
 295              		.cfi_offset 14, -4
 296              		.loc 1 151 0
 297 0004 0646     		mov	r6, r0
 298 0006 0F46     		mov	r7, r1
 299 0008 1446     		mov	r4, r2
 300              		.loc 1 162 0
 301 000a 00F10809 		add	r9, r0, #8
 302              	.LBB194:
 303              	.LBB195:
 304              	.LBB196:
 305              	.LBB197:
 306              	.LBB198:
 307              		.loc 4 546 0
 308 000e 4FF02008 		mov	r8, #32
 309              	.LBE198:
 310              	.LBE197:
 311              	.LBE196:
 312              	.LBE195:
 313              	.LBE194:
 314              	.LBB203:
 315              	.LBB204:
 316              	.LBB205:
 317              	.LBB206:
 318              	.LBB207:
 319              		.file 5 "../../../os/hal/ports/STM32/LLD/TIMv1/st_lld.h"
 320              		.loc 5 128 0
 321 0012 4FF08045 		mov	r5, #1073741824
 322              	.LBE207:
 323              	.LBE206:
 324              	.LBE205:
 325              	.LBE204:
 326              	.LBE203:
 327 0016 13E0     		b	.L9
 328              	.LVL12:
 329              	.L23:
 330              		.loc 1 158 0 discriminator 1
 331 0018 C4B1     		cbz	r4, .L11
 332              	.LBB212:
 333              	.LBB202:
 334              	.LBB201:
 335              	.LBB200:
 336              	.LBB199:
 337              		.loc 4 546 0
ARM GAS  C:\Users\jo\AppData\Local\Temp\ccMscRHh.s 			page 7


 338              	@ 546 "../../../os/ext/CMSIS/include/core_cmFunc.h" 1
 339 001a 88F31188 		MSR basepri, r8
 340              	@ 0 "" 2
 341              		.thumb
 342              	.LBE199:
 343              	.LBE200:
 344              	.LBE201:
 345              	.LBE202:
 346              	.LBE212:
 347              	.LBB213:
 348              	.LBB214:
 349              		.file 6 "../../../os/hal/osal/rt/osal.h"
 350              		.loc 6 716 0
 351 001e 4846     		mov	r0, r9
 352              	.LVL13:
 353 0020 2146     		mov	r1, r4
 354              	.LBE214:
 355              	.LBE213:
 356              	.LBB216:
 357              	.LBB211:
 358              	.LBB210:
 359              	.LBB209:
 360              	.LBB208:
 361              		.loc 5 128 0
 362 0022 D5F824A0 		ldr	r10, [r5, #36]
 363              	.LVL14:
 364              	.LBE208:
 365              	.LBE209:
 366              	.LBE210:
 367              	.LBE211:
 368              	.LBE216:
 369              	.LBB217:
 370              	.LBB215:
 371              		.loc 6 716 0
 372 0026 FFF7FEFF 		bl	chThdEnqueueTimeoutS
 373              	.LVL15:
 374              	.LBE215:
 375              	.LBE217:
 376              		.loc 1 163 0
 377 002a 421C     		adds	r2, r0, #1
 378 002c 10D0     		beq	.L22
 379              		.loc 1 167 0
 380 002e 631C     		adds	r3, r4, #1
 381 0030 03D0     		beq	.L12
 382              	.LBB218:
 383              	.LBB219:
 384              	.LBB220:
 385              	.LBB221:
 386              	.LBB222:
 387              		.loc 5 128 0
 388 0032 6B6A     		ldr	r3, [r5, #36]
 389              	.LBE222:
 390              	.LBE221:
 391              	.LBE220:
 392              	.LBE219:
 393              	.LBE218:
 394              		.loc 1 168 0
ARM GAS  C:\Users\jo\AppData\Local\Temp\ccMscRHh.s 			page 8


 395 0034 CAEB0303 		rsb	r3, r10, r3
 396 0038 E41A     		subs	r4, r4, r3
 397              	.LVL16:
 398              	.L12:
 399              	.LBB223:
 400              	.LBB224:
 401              	.LBB225:
 402              	.LBB226:
 403              	.LBB227:
 404              	.LBB228:
 405              		.loc 4 546 0
 406 003a 0023     		movs	r3, #0
 407              	@ 546 "../../../os/ext/CMSIS/include/core_cmFunc.h" 1
 408 003c 83F31188 		MSR basepri, r3
 409              	@ 0 "" 2
 410              	.LVL17:
 411              		.thumb
 412              	.L9:
 413              	.LBE228:
 414              	.LBE227:
 415              	.LBE226:
 416              	.LBE225:
 417              	.LBE224:
 418              	.LBE223:
 419              		.loc 1 158 0
 420 0040 3046     		mov	r0, r6
 421 0042 3946     		mov	r1, r7
 422 0044 FFF7FEFF 		bl	mac_lld_get_transmit_descriptor
 423              	.LVL18:
 424 0048 0028     		cmp	r0, #0
 425 004a E5D1     		bne	.L23
 426              	.L11:
 427              		.loc 1 172 0
 428 004c BDE8F087 		pop	{r4, r5, r6, r7, r8, r9, r10, pc}
 429              	.LVL19:
 430              	.L22:
 431              	.LBB229:
 432              	.LBB230:
 433              	.LBB231:
 434              	.LBB232:
 435              	.LBB233:
 436              	.LBB234:
 437              		.loc 4 546 0
 438 0050 0023     		movs	r3, #0
 439              	@ 546 "../../../os/ext/CMSIS/include/core_cmFunc.h" 1
 440 0052 83F31188 		MSR basepri, r3
 441              	@ 0 "" 2
 442              		.thumb
 443 0056 BDE8F087 		pop	{r4, r5, r6, r7, r8, r9, r10, pc}
 444              	.LBE234:
 445              	.LBE233:
 446              	.LBE232:
 447              	.LBE231:
 448              	.LBE230:
 449              	.LBE229:
 450              		.cfi_endproc
 451              	.LFE259:
ARM GAS  C:\Users\jo\AppData\Local\Temp\ccMscRHh.s 			page 9


 452              		.size	macWaitTransmitDescriptor, .-macWaitTransmitDescriptor
 453              		.section	.text.macReleaseTransmitDescriptor,"ax",%progbits
 454              		.align	2
 455              		.p2align 4,,15
 456              		.global	macReleaseTransmitDescriptor
 457              		.thumb
 458              		.thumb_func
 459              		.type	macReleaseTransmitDescriptor, %function
 460              	macReleaseTransmitDescriptor:
 461              	.LFB260:
 462              		.loc 1 182 0
 463              		.cfi_startproc
 464              		@ args = 0, pretend = 0, frame = 0
 465              		@ frame_needed = 0, uses_anonymous_args = 0
 466              		@ link register save eliminated.
 467              	.LVL20:
 468              		.loc 1 186 0
 469 0000 FFF7FEBF 		b	mac_lld_release_transmit_descriptor
 470              	.LVL21:
 471              		.cfi_endproc
 472              	.LFE260:
 473              		.size	macReleaseTransmitDescriptor, .-macReleaseTransmitDescriptor
 474 0004 AFF30080 		.section	.text.macWaitReceiveDescriptor,"ax",%progbits
 474      AFF30080 
 474      AFF30080 
 475              		.align	2
 476              		.p2align 4,,15
 477              		.global	macWaitReceiveDescriptor
 478              		.thumb
 479              		.thumb_func
 480              		.type	macWaitReceiveDescriptor, %function
 481              	macWaitReceiveDescriptor:
 482              	.LFB261:
 483              		.loc 1 210 0
 484              		.cfi_startproc
 485              		@ args = 0, pretend = 0, frame = 0
 486              		@ frame_needed = 0, uses_anonymous_args = 0
 487              	.LVL22:
 488 0000 2DE9F047 		push	{r4, r5, r6, r7, r8, r9, r10, lr}
 489              		.cfi_def_cfa_offset 32
 490              		.cfi_offset 4, -32
 491              		.cfi_offset 5, -28
 492              		.cfi_offset 6, -24
 493              		.cfi_offset 7, -20
 494              		.cfi_offset 8, -16
 495              		.cfi_offset 9, -12
 496              		.cfi_offset 10, -8
 497              		.cfi_offset 14, -4
 498              		.loc 1 210 0
 499 0004 0646     		mov	r6, r0
 500 0006 0F46     		mov	r7, r1
 501 0008 1446     		mov	r4, r2
 502              		.loc 1 221 0
 503 000a 00F11009 		add	r9, r0, #16
 504              	.LBB235:
 505              	.LBB236:
 506              	.LBB237:
ARM GAS  C:\Users\jo\AppData\Local\Temp\ccMscRHh.s 			page 10


 507              	.LBB238:
 508              	.LBB239:
 509              		.loc 4 546 0
 510 000e 4FF02008 		mov	r8, #32
 511              	.LBE239:
 512              	.LBE238:
 513              	.LBE237:
 514              	.LBE236:
 515              	.LBE235:
 516              	.LBB244:
 517              	.LBB245:
 518              	.LBB246:
 519              	.LBB247:
 520              	.LBB248:
 521              		.loc 5 128 0
 522 0012 4FF08045 		mov	r5, #1073741824
 523              	.LBE248:
 524              	.LBE247:
 525              	.LBE246:
 526              	.LBE245:
 527              	.LBE244:
 528 0016 13E0     		b	.L26
 529              	.LVL23:
 530              	.L39:
 531              		.loc 1 217 0 discriminator 1
 532 0018 C4B1     		cbz	r4, .L28
 533              	.LBB253:
 534              	.LBB243:
 535              	.LBB242:
 536              	.LBB241:
 537              	.LBB240:
 538              		.loc 4 546 0
 539              	@ 546 "../../../os/ext/CMSIS/include/core_cmFunc.h" 1
 540 001a 88F31188 		MSR basepri, r8
 541              	@ 0 "" 2
 542              		.thumb
 543              	.LBE240:
 544              	.LBE241:
 545              	.LBE242:
 546              	.LBE243:
 547              	.LBE253:
 548              	.LBB254:
 549              	.LBB255:
 550              		.loc 6 716 0
 551 001e 4846     		mov	r0, r9
 552              	.LVL24:
 553 0020 2146     		mov	r1, r4
 554              	.LBE255:
 555              	.LBE254:
 556              	.LBB257:
 557              	.LBB252:
 558              	.LBB251:
 559              	.LBB250:
 560              	.LBB249:
 561              		.loc 5 128 0
 562 0022 D5F824A0 		ldr	r10, [r5, #36]
 563              	.LVL25:
ARM GAS  C:\Users\jo\AppData\Local\Temp\ccMscRHh.s 			page 11


 564              	.LBE249:
 565              	.LBE250:
 566              	.LBE251:
 567              	.LBE252:
 568              	.LBE257:
 569              	.LBB258:
 570              	.LBB256:
 571              		.loc 6 716 0
 572 0026 FFF7FEFF 		bl	chThdEnqueueTimeoutS
 573              	.LVL26:
 574              	.LBE256:
 575              	.LBE258:
 576              		.loc 1 222 0
 577 002a 421C     		adds	r2, r0, #1
 578 002c 10D0     		beq	.L38
 579              		.loc 1 226 0
 580 002e 631C     		adds	r3, r4, #1
 581 0030 03D0     		beq	.L29
 582              	.LBB259:
 583              	.LBB260:
 584              	.LBB261:
 585              	.LBB262:
 586              	.LBB263:
 587              		.loc 5 128 0
 588 0032 6B6A     		ldr	r3, [r5, #36]
 589              	.LBE263:
 590              	.LBE262:
 591              	.LBE261:
 592              	.LBE260:
 593              	.LBE259:
 594              		.loc 1 227 0
 595 0034 CAEB0303 		rsb	r3, r10, r3
 596 0038 E41A     		subs	r4, r4, r3
 597              	.LVL27:
 598              	.L29:
 599              	.LBB264:
 600              	.LBB265:
 601              	.LBB266:
 602              	.LBB267:
 603              	.LBB268:
 604              	.LBB269:
 605              		.loc 4 546 0
 606 003a 0023     		movs	r3, #0
 607              	@ 546 "../../../os/ext/CMSIS/include/core_cmFunc.h" 1
 608 003c 83F31188 		MSR basepri, r3
 609              	@ 0 "" 2
 610              	.LVL28:
 611              		.thumb
 612              	.L26:
 613              	.LBE269:
 614              	.LBE268:
 615              	.LBE267:
 616              	.LBE266:
 617              	.LBE265:
 618              	.LBE264:
 619              		.loc 1 217 0
 620 0040 3046     		mov	r0, r6
ARM GAS  C:\Users\jo\AppData\Local\Temp\ccMscRHh.s 			page 12


 621 0042 3946     		mov	r1, r7
 622 0044 FFF7FEFF 		bl	mac_lld_get_receive_descriptor
 623              	.LVL29:
 624 0048 0028     		cmp	r0, #0
 625 004a E5D1     		bne	.L39
 626              	.L28:
 627              		.loc 1 231 0
 628 004c BDE8F087 		pop	{r4, r5, r6, r7, r8, r9, r10, pc}
 629              	.LVL30:
 630              	.L38:
 631              	.LBB270:
 632              	.LBB271:
 633              	.LBB272:
 634              	.LBB273:
 635              	.LBB274:
 636              	.LBB275:
 637              		.loc 4 546 0
 638 0050 0023     		movs	r3, #0
 639              	@ 546 "../../../os/ext/CMSIS/include/core_cmFunc.h" 1
 640 0052 83F31188 		MSR basepri, r3
 641              	@ 0 "" 2
 642              		.thumb
 643 0056 BDE8F087 		pop	{r4, r5, r6, r7, r8, r9, r10, pc}
 644              	.LBE275:
 645              	.LBE274:
 646              	.LBE273:
 647              	.LBE272:
 648              	.LBE271:
 649              	.LBE270:
 650              		.cfi_endproc
 651              	.LFE261:
 652              		.size	macWaitReceiveDescriptor, .-macWaitReceiveDescriptor
 653 005a 00BFAFF3 		.section	.text.macReleaseReceiveDescriptor,"ax",%progbits
 653      0080
 654              		.align	2
 655              		.p2align 4,,15
 656              		.global	macReleaseReceiveDescriptor
 657              		.thumb
 658              		.thumb_func
 659              		.type	macReleaseReceiveDescriptor, %function
 660              	macReleaseReceiveDescriptor:
 661              	.LFB262:
 662              		.loc 1 242 0
 663              		.cfi_startproc
 664              		@ args = 0, pretend = 0, frame = 0
 665              		@ frame_needed = 0, uses_anonymous_args = 0
 666              		@ link register save eliminated.
 667              	.LVL31:
 668              		.loc 1 246 0
 669 0000 FFF7FEBF 		b	mac_lld_release_receive_descriptor
 670              	.LVL32:
 671              		.cfi_endproc
 672              	.LFE262:
 673              		.size	macReleaseReceiveDescriptor, .-macReleaseReceiveDescriptor
 674 0004 AFF30080 		.section	.text.macPollLinkStatus,"ax",%progbits
 674      AFF30080 
 674      AFF30080 
ARM GAS  C:\Users\jo\AppData\Local\Temp\ccMscRHh.s 			page 13


 675              		.align	2
 676              		.p2align 4,,15
 677              		.global	macPollLinkStatus
 678              		.thumb
 679              		.thumb_func
 680              		.type	macPollLinkStatus, %function
 681              	macPollLinkStatus:
 682              	.LFB263:
 683              		.loc 1 259 0
 684              		.cfi_startproc
 685              		@ args = 0, pretend = 0, frame = 0
 686              		@ frame_needed = 0, uses_anonymous_args = 0
 687              		@ link register save eliminated.
 688              	.LVL33:
 689              		.loc 1 264 0
 690 0000 FFF7FEBF 		b	mac_lld_poll_link_status
 691              	.LVL34:
 692              		.cfi_endproc
 693              	.LFE263:
 694              		.size	macPollLinkStatus, .-macPollLinkStatus
 695 0004 AFF30080 		.text
 695      AFF30080 
 695      AFF30080 
 696              	.Letext0:
 697              		.file 7 "c:\\program files\\gnu tools arm embedded\\4.9 2014q4\\lib\\gcc\\arm-none-eabi\\4.9.3\\in
 698              		.file 8 "c:\\program files\\gnu tools arm embedded\\4.9 2014q4\\arm-none-eabi\\include\\machine\\_
 699              		.file 9 "c:\\program files\\gnu tools arm embedded\\4.9 2014q4\\arm-none-eabi\\include\\stdint.h"
 700              		.file 10 "../../../os/rt/ports/ARMCMx/compilers/GCC/chtypes.h"
 701              		.file 11 "../../../os/rt/include/chsystypes.h"
 702              		.file 12 "../../../os/rt/ports/ARMCMx/chcore.h"
 703              		.file 13 "../../../os/rt/ports/ARMCMx/chcore_v7m.h"
 704              		.file 14 "../../../os/hal/ports/STM32/LLD/TIMv1/stm32_tim.h"
 705              		.file 15 "../../../os/rt/include/chtm.h"
 706              		.file 16 "../../../os/rt/include/chmtx.h"
 707              		.file 17 "../../../os/hal/include/mac.h"
 708              		.file 18 "../../../os/hal/ports/STM32/LLD/mac_lld.h"
 709              		.file 19 "../../../os/rt/ports/ARMCMx/chcore_timer.h"
 710              		.file 20 "../../../os/rt/include/chsys.h"
 711              		.file 21 "../../../os/rt/include/chvt.h"
 712              		.file 22 "../../../os/rt/include/chthreads.h"
 713              		.file 23 "../../../os/ext/CMSIS/include/core_cm4.h"