ARM GAS  C:\Users\jo\AppData\Local\Temp\ccuwsnwV.s 			page 1


   1              		.syntax unified
   2              		.cpu cortex-m4
   3              		.eabi_attribute 27, 3
   4              		.eabi_attribute 28, 1
   5              		.fpu fpv4-sp-d16
   6              		.eabi_attribute 20, 1
   7              		.eabi_attribute 21, 1
   8              		.eabi_attribute 23, 3
   9              		.eabi_attribute 24, 1
  10              		.eabi_attribute 25, 1
  11              		.eabi_attribute 26, 1
  12              		.eabi_attribute 30, 2
  13              		.eabi_attribute 34, 1
  14              		.eabi_attribute 18, 4
  15              		.thumb
  16              		.file	"mac_lld.c"
  17              		.text
  18              	.Ltext0:
  19              		.cfi_sections	.debug_frame
  20              		.section	.text.mac_lld_set_address,"ax",%progbits
  21              		.align	2
  22              		.p2align 4,,15
  23              		.thumb
  24              		.thumb_func
  25              		.type	mac_lld_set_address, %function
  26              	mac_lld_set_address:
  27              	.LFB259:
  28              		.file 1 "../../../os/hal/ports/STM32/LLD/mac_lld.c"
  29              		.loc 1 159 0
  30              		.cfi_startproc
  31              		@ args = 0, pretend = 0, frame = 0
  32              		@ frame_needed = 0, uses_anonymous_args = 0
  33              		@ link register save eliminated.
  34              	.LVL0:
  35 0000 30B4     		push	{r4, r5}
  36              		.cfi_def_cfa_offset 8
  37              		.cfi_offset 4, -8
  38              		.cfi_offset 5, -4
  39              		.loc 1 163 0
  40 0002 4179     		ldrb	r1, [r0, #5]	@ zero_extendqisi2
  41              		.loc 1 164 0
  42 0004 0279     		ldrb	r2, [r0, #4]	@ zero_extendqisi2
  43              		.loc 1 163 0
  44 0006 0F4B     		ldr	r3, .L3
  45 0008 42EA0122 		orr	r2, r2, r1, lsl #8
  46 000c 1A64     		str	r2, [r3, #64]
  47              		.loc 1 166 0
  48 000e 8478     		ldrb	r4, [r0, #2]	@ zero_extendqisi2
  49              		.loc 1 165 0
  50 0010 C278     		ldrb	r2, [r0, #3]	@ zero_extendqisi2
  51              		.loc 1 168 0
  52 0012 0178     		ldrb	r1, [r0]	@ zero_extendqisi2
  53              		.loc 1 167 0
  54 0014 4578     		ldrb	r5, [r0, #1]	@ zero_extendqisi2
  55              		.loc 1 166 0
  56 0016 2004     		lsls	r0, r4, #16
  57              	.LVL1:
ARM GAS  C:\Users\jo\AppData\Local\Temp\ccuwsnwV.s 			page 2


  58              		.loc 1 165 0
  59 0018 40EA0262 		orr	r2, r0, r2, lsl #24
  60 001c 0A43     		orrs	r2, r2, r1
  61              		.loc 1 169 0
  62 001e 4FF6FF70 		movw	r0, #65535
  63              		.loc 1 170 0
  64 0022 4FF0FF31 		mov	r1, #-1
  65              		.loc 1 175 0
  66 0026 0024     		movs	r4, #0
  67              		.loc 1 167 0
  68 0028 42EA0522 		orr	r2, r2, r5, lsl #8
  69              		.loc 1 165 0
  70 002c 5A64     		str	r2, [r3, #68]
  71              		.loc 1 169 0
  72 002e 9864     		str	r0, [r3, #72]
  73              		.loc 1 170 0
  74 0030 D964     		str	r1, [r3, #76]
  75              		.loc 1 171 0
  76 0032 1865     		str	r0, [r3, #80]
  77              		.loc 1 172 0
  78 0034 5965     		str	r1, [r3, #84]
  79              		.loc 1 173 0
  80 0036 9865     		str	r0, [r3, #88]
  81              		.loc 1 174 0
  82 0038 D965     		str	r1, [r3, #92]
  83              		.loc 1 175 0
  84 003a 9C60     		str	r4, [r3, #8]
  85              		.loc 1 176 0
  86 003c DC60     		str	r4, [r3, #12]
  87              		.loc 1 177 0
  88 003e 30BC     		pop	{r4, r5}
  89              		.cfi_restore 5
  90              		.cfi_restore 4
  91              		.cfi_def_cfa_offset 0
  92 0040 7047     		bx	lr
  93              	.L4:
  94 0042 00BF     		.align	2
  95              	.L3:
  96 0044 00800240 		.word	1073905664
  97              		.cfi_endproc
  98              	.LFE259:
  99              		.size	mac_lld_set_address, .-mac_lld_set_address
 100 0048 AFF30080 		.section	.text.chprintf.constprop.2,"ax",%progbits
 100      AFF30080 
 101              		.align	2
 102              		.p2align 4,,15
 103              		.thumb
 104              		.thumb_func
 105              		.type	chprintf.constprop.2, %function
 106              	chprintf.constprop.2:
 107              	.LFB272:
 108              		.file 2 "../../../os/hal/lib/streams/chprintf.h"
 109              		.loc 2 69 0
 110              		.cfi_startproc
 111              		@ args = 4, pretend = 12, frame = 8
 112              		@ frame_needed = 0, uses_anonymous_args = 1
 113              	.LVL2:
ARM GAS  C:\Users\jo\AppData\Local\Temp\ccuwsnwV.s 			page 3


 114 0000 0EB4     		push	{r1, r2, r3}
 115              		.cfi_def_cfa_offset 12
 116              		.cfi_offset 1, -12
 117              		.cfi_offset 2, -8
 118              		.cfi_offset 3, -4
 119 0002 00B5     		push	{lr}
 120              		.cfi_def_cfa_offset 16
 121              		.cfi_offset 14, -16
 122 0004 82B0     		sub	sp, sp, #8
 123              		.cfi_def_cfa_offset 24
 124              		.loc 2 69 0
 125 0006 03AA     		add	r2, sp, #12
 126              		.loc 2 74 0
 127 0008 0548     		ldr	r0, .L7
 128              	.LVL3:
 129              		.loc 2 69 0
 130 000a 52F8041B 		ldr	r1, [r2], #4
 131              		.loc 2 73 0
 132 000e 0192     		str	r2, [sp, #4]
 133              		.loc 2 74 0
 134 0010 FFF7FEFF 		bl	chvprintf
 135              	.LVL4:
 136              		.loc 2 78 0
 137 0014 02B0     		add	sp, sp, #8
 138              		.cfi_def_cfa_offset 16
 139              		@ sp needed
 140 0016 5DF804EB 		ldr	lr, [sp], #4
 141              		.cfi_restore 14
 142              		.cfi_def_cfa_offset 12
 143 001a 03B0     		add	sp, sp, #12
 144              		.cfi_restore 3
 145              		.cfi_restore 2
 146              		.cfi_restore 1
 147              		.cfi_def_cfa_offset 0
 148 001c 7047     		bx	lr
 149              	.L8:
 150 001e 00BF     		.align	2
 151              	.L7:
 152 0020 00000000 		.word	itm_port
 153              		.cfi_endproc
 154              	.LFE272:
 155              		.size	chprintf.constprop.2, .-chprintf.constprop.2
 156 0024 AFF30080 		.section	.text.mii_write,"ax",%progbits
 156      AFF30080 
 156      AFF30080 
 157              		.align	2
 158              		.p2align 4,,15
 159              		.global	mii_write
 160              		.thumb
 161              		.thumb_func
 162              		.type	mii_write, %function
 163              	mii_write:
 164              	.LFB256:
 165              		.loc 1 93 0
 166              		.cfi_startproc
 167              		@ args = 0, pretend = 0, frame = 0
 168              		@ frame_needed = 0, uses_anonymous_args = 0
ARM GAS  C:\Users\jo\AppData\Local\Temp\ccuwsnwV.s 			page 4


 169              		@ link register save eliminated.
 170              	.LVL5:
 171              		.loc 1 95 0
 172 0000 064B     		ldr	r3, .L13
 173 0002 5A61     		str	r2, [r3, #20]
 174 0004 026A     		ldr	r2, [r0, #32]
 175              	.LVL6:
 176 0006 42F01302 		orr	r2, r2, #19
 177              		.loc 1 97 0
 178 000a 42EA8111 		orr	r1, r2, r1, lsl #6
 179              	.LVL7:
 180              		.loc 1 96 0
 181 000e 1961     		str	r1, [r3, #16]
 182              	.LVL8:
 183              		.loc 1 98 0
 184 0010 1A46     		mov	r2, r3
 185              	.L10:
 186              		.loc 1 98 0 is_stmt 0 discriminator 1
 187 0012 1369     		ldr	r3, [r2, #16]
 188 0014 DB07     		lsls	r3, r3, #31
 189 0016 FCD4     		bmi	.L10
 190              		.loc 1 100 0 is_stmt 1
 191 0018 7047     		bx	lr
 192              	.L14:
 193 001a 00BF     		.align	2
 194              	.L13:
 195 001c 00800240 		.word	1073905664
 196              		.cfi_endproc
 197              	.LFE256:
 198              		.size	mii_write, .-mii_write
 199              		.section	.text.mii_read,"ax",%progbits
 200              		.align	2
 201              		.p2align 4,,15
 202              		.global	mii_read
 203              		.thumb
 204              		.thumb_func
 205              		.type	mii_read, %function
 206              	mii_read:
 207              	.LFB257:
 208              		.loc 1 112 0
 209              		.cfi_startproc
 210              		@ args = 0, pretend = 0, frame = 0
 211              		@ frame_needed = 0, uses_anonymous_args = 0
 212              		@ link register save eliminated.
 213              	.LVL9:
 214 0000 036A     		ldr	r3, [r0, #32]
 215              		.loc 1 114 0
 216 0002 064A     		ldr	r2, .L18
 217 0004 43F01103 		orr	r3, r3, #17
 218 0008 43EA8111 		orr	r1, r3, r1, lsl #6
 219              	.LVL10:
 220 000c 1161     		str	r1, [r2, #16]
 221              	.L16:
 222              		.loc 1 115 0 discriminator 1
 223 000e 1369     		ldr	r3, [r2, #16]
 224 0010 0249     		ldr	r1, .L18
 225 0012 DB07     		lsls	r3, r3, #31
ARM GAS  C:\Users\jo\AppData\Local\Temp\ccuwsnwV.s 			page 5


 226 0014 FBD4     		bmi	.L16
 227              		.loc 1 117 0
 228 0016 4869     		ldr	r0, [r1, #20]
 229              	.LVL11:
 230              		.loc 1 118 0
 231 0018 7047     		bx	lr
 232              	.L19:
 233 001a 00BF     		.align	2
 234              	.L18:
 235 001c 00800240 		.word	1073905664
 236              		.cfi_endproc
 237              	.LFE257:
 238              		.size	mii_read, .-mii_read
 239              		.section	.text.Vector134,"ax",%progbits
 240              		.align	2
 241              		.p2align 4,,15
 242              		.global	Vector134
 243              		.thumb
 244              		.thumb_func
 245              		.type	Vector134, %function
 246              	Vector134:
 247              	.LFB260:
 248              		.loc 1 183 0
 249              		.cfi_startproc
 250              		@ args = 0, pretend = 0, frame = 0
 251              		@ frame_needed = 0, uses_anonymous_args = 0
 252              		.loc 1 188 0
 253 0000 144A     		ldr	r2, .L31
 254 0002 41F21403 		movw	r3, #4116
 255              		.loc 1 183 0
 256 0006 10B5     		push	{r4, lr}
 257              		.cfi_def_cfa_offset 8
 258              		.cfi_offset 4, -8
 259              		.cfi_offset 14, -4
 260              		.loc 1 188 0
 261 0008 D458     		ldr	r4, [r2, r3]
 262              	.LVL12:
 263              		.loc 1 189 0
 264 000a D450     		str	r4, [r2, r3]
 265              		.loc 1 191 0
 266 000c 6206     		lsls	r2, r4, #25
 267 000e 10D4     		bmi	.L30
 268              	.L21:
 269              		.loc 1 201 0
 270 0010 E307     		lsls	r3, r4, #31
 271 0012 0AD5     		bpl	.L22
 272              	.LVL13:
 273              	.LBB209:
 274              	.LBB210:
 275              	.LBB211:
 276              	.LBB212:
 277              	.LBB213:
 278              	.LBB214:
 279              		.file 3 "../../../os/ext/CMSIS/include/core_cmFunc.h"
 280              		.loc 3 546 0
 281 0014 2023     		movs	r3, #32
 282              	@ 546 "../../../os/ext/CMSIS/include/core_cmFunc.h" 1
ARM GAS  C:\Users\jo\AppData\Local\Temp\ccuwsnwV.s 			page 6


 283 0016 83F31188 		MSR basepri, r3
 284              	@ 0 "" 2
 285              	.LVL14:
 286              		.thumb
 287              	.LBE214:
 288              	.LBE213:
 289              	.LBE212:
 290              	.LBE211:
 291              	.LBE210:
 292              	.LBE209:
 293              	.LBB215:
 294              	.LBB216:
 295              		.file 4 "../../../os/hal/osal/rt/osal.h"
 296              		.loc 4 742 0
 297 001a 0F48     		ldr	r0, .L31+4
 298 001c 6FF00101 		mvn	r1, #1
 299 0020 FFF7FEFF 		bl	chThdDequeueAllI
 300              	.LVL15:
 301              	.LBE216:
 302              	.LBE215:
 303              	.LBB217:
 304              	.LBB218:
 305              	.LBB219:
 306              	.LBB220:
 307              	.LBB221:
 308              	.LBB222:
 309              		.loc 3 546 0
 310 0024 0023     		movs	r3, #0
 311              	@ 546 "../../../os/ext/CMSIS/include/core_cmFunc.h" 1
 312 0026 83F31188 		MSR basepri, r3
 313              	@ 0 "" 2
 314              	.LVL16:
 315              		.thumb
 316              	.L22:
 317              	.LBE222:
 318              	.LBE221:
 319              	.LBE220:
 320              	.LBE219:
 321              	.LBE218:
 322              	.LBE217:
 323              		.loc 1 209 0
 324 002a BDE81040 		pop	{r4, lr}
 325              		.cfi_remember_state
 326              		.cfi_restore 14
 327              		.cfi_restore 4
 328              		.cfi_def_cfa_offset 0
 329              	.LVL17:
 330              		.loc 1 208 0
 331 002e FFF7FEBF 		b	_port_irq_epilogue
 332              	.LVL18:
 333              	.L30:
 334              		.cfi_restore_state
 335              	.LBB223:
 336              	.LBB224:
 337              	.LBB225:
 338              	.LBB226:
 339              	.LBB227:
ARM GAS  C:\Users\jo\AppData\Local\Temp\ccuwsnwV.s 			page 7


 340              	.LBB228:
 341              		.loc 3 546 0
 342 0032 2023     		movs	r3, #32
 343              	@ 546 "../../../os/ext/CMSIS/include/core_cmFunc.h" 1
 344 0034 83F31188 		MSR basepri, r3
 345              	@ 0 "" 2
 346              	.LVL19:
 347              		.thumb
 348              	.LBE228:
 349              	.LBE227:
 350              	.LBE226:
 351              	.LBE225:
 352              	.LBE224:
 353              	.LBE223:
 354              	.LBB229:
 355              	.LBB230:
 356              		.loc 4 742 0
 357 0038 0848     		ldr	r0, .L31+8
 358 003a 6FF00101 		mvn	r1, #1
 359 003e FFF7FEFF 		bl	chThdDequeueAllI
 360              	.LVL20:
 361              	.LBE230:
 362              	.LBE229:
 363              	.LBB231:
 364              	.LBB232:
 365              		.loc 4 776 0
 366 0042 0748     		ldr	r0, .L31+12
 367 0044 0021     		movs	r1, #0
 368 0046 FFF7FEFF 		bl	chEvtBroadcastFlagsI
 369              	.LVL21:
 370              	.LBE232:
 371              	.LBE231:
 372              	.LBB233:
 373              	.LBB234:
 374              	.LBB235:
 375              	.LBB236:
 376              	.LBB237:
 377              	.LBB238:
 378              		.loc 3 546 0
 379 004a 0023     		movs	r3, #0
 380              	@ 546 "../../../os/ext/CMSIS/include/core_cmFunc.h" 1
 381 004c 83F31188 		MSR basepri, r3
 382              	@ 0 "" 2
 383              		.thumb
 384 0050 DEE7     		b	.L21
 385              	.L32:
 386 0052 00BF     		.align	2
 387              	.L31:
 388 0054 00800240 		.word	1073905664
 389 0058 08000000 		.word	.LANCHOR0+8
 390 005c 10000000 		.word	.LANCHOR0+16
 391 0060 18000000 		.word	.LANCHOR0+24
 392              	.LBE238:
 393              	.LBE237:
 394              	.LBE236:
 395              	.LBE235:
 396              	.LBE234:
ARM GAS  C:\Users\jo\AppData\Local\Temp\ccuwsnwV.s 			page 8


 397              	.LBE233:
 398              		.cfi_endproc
 399              	.LFE260:
 400              		.size	Vector134, .-Vector134
 401 0064 AFF30080 		.section	.text.mac_lld_init,"ax",%progbits
 401      AFF30080 
 401      AFF30080 
 402              		.align	2
 403              		.p2align 4,,15
 404              		.global	mac_lld_init
 405              		.thumb
 406              		.thumb_func
 407              		.type	mac_lld_init, %function
 408              	mac_lld_init:
 409              	.LFB261:
 410              		.loc 1 220 0
 411              		.cfi_startproc
 412              		@ args = 0, pretend = 0, frame = 0
 413              		@ frame_needed = 0, uses_anonymous_args = 0
 414 0000 2DE9F84F 		push	{r3, r4, r5, r6, r7, r8, r9, r10, fp, lr}
 415              		.cfi_def_cfa_offset 40
 416              		.cfi_offset 3, -40
 417              		.cfi_offset 4, -36
 418              		.cfi_offset 5, -32
 419              		.cfi_offset 6, -28
 420              		.cfi_offset 7, -24
 421              		.cfi_offset 8, -20
 422              		.cfi_offset 9, -16
 423              		.cfi_offset 10, -12
 424              		.cfi_offset 11, -8
 425              		.cfi_offset 14, -4
 426              		.loc 1 223 0
 427 0004 6D4D     		ldr	r5, .L60
 428              		.loc 1 237 0
 429 0006 DFF8EC91 		ldr	r9, .L60+56
 430              		.loc 1 250 0
 431 000a DFF8EC81 		ldr	r8, .L60+60
 432              		.loc 1 232 0
 433 000e DFF8ECA1 		ldr	r10, .L60+64
 434              	.LBB259:
 435              	.LBB260:
 436              		.loc 1 131 0
 437 0012 6B4F     		ldr	r7, .L60+4
 438              		.loc 1 137 0
 439 0014 6B4C     		ldr	r4, .L60+8
 440              	.LBE260:
 441              	.LBE259:
 442              		.loc 1 223 0
 443 0016 2846     		mov	r0, r5
 444 0018 FFF7FEFF 		bl	macObjectInit
 445              	.LVL22:
 446              		.loc 1 224 0
 447 001c 0026     		movs	r6, #0
 448              		.loc 1 226 0
 449 001e 6A49     		ldr	r1, .L60+12
 450 0020 6A4A     		ldr	r2, .L60+16
 451 0022 6B48     		ldr	r0, .L60+20
ARM GAS  C:\Users\jo\AppData\Local\Temp\ccuwsnwV.s 			page 9


 452              		.loc 1 224 0
 453 0024 2E77     		strb	r6, [r5, #28]
 454              		.loc 1 226 0
 455 0026 FFF7FEFF 		bl	chprintf.constprop.2
 456              	.LVL23:
 457              		.loc 1 231 0
 458 002a 6A4B     		ldr	r3, .L60+24
 459              		.loc 1 232 0
 460 002c DFF8D0E1 		ldr	lr, .L60+68
 461              		.loc 1 236 0
 462 0030 694A     		ldr	r2, .L60+28
 463              		.loc 1 259 0
 464 0032 6A49     		ldr	r1, .L60+32
 465              	.LBB279:
 466              	.LBB277:
 467              	.LBB261:
 468              	.LBB262:
 469              		.file 5 "../../../os/rt/ports/ARMCMx/chcore_v7m.h"
 470              		.loc 5 547 0
 471 0034 6A48     		ldr	r0, .L60+36
 472              	.LBE262:
 473              	.LBE261:
 474              	.LBE277:
 475              	.LBE279:
 476              		.loc 1 231 0
 477 0036 44F2F25C 		movw	ip, #17906
 478              		.loc 1 233 0
 479 003a 03F1100B 		add	fp, r3, #16
 480              		.loc 1 231 0
 481 003e C3F804C0 		str	ip, [r3, #4]
 482              		.loc 1 232 0
 483 0042 C3F808E0 		str	lr, [r3, #8]
 484              		.loc 1 233 0
 485 0046 C3F80CB0 		str	fp, [r3, #12]
 486              	.LVL24:
 487              		.loc 1 232 0
 488 004a 0EF2F45B 		addw	fp, lr, #1524
 489              		.loc 1 231 0
 490 004e C3F814C0 		str	ip, [r3, #20]
 491              		.loc 1 232 0
 492 0052 C3F818B0 		str	fp, [r3, #24]
 493              		.loc 1 233 0
 494 0056 03F1200B 		add	fp, r3, #32
 495 005a C3F81CB0 		str	fp, [r3, #28]
 496              	.LVL25:
 497              		.loc 1 232 0
 498 005e 0EF6E83E 		addw	lr, lr, #3048
 499              		.loc 1 233 0
 500 0062 03F1300B 		add	fp, r3, #48
 501              		.loc 1 231 0
 502 0066 C3F824C0 		str	ip, [r3, #36]
 503              		.loc 1 232 0
 504 006a C3F828E0 		str	lr, [r3, #40]
 505              		.loc 1 233 0
 506 006e C3F82CB0 		str	fp, [r3, #44]
 507              	.LVL26:
 508              		.loc 1 238 0
ARM GAS  C:\Users\jo\AppData\Local\Temp\ccuwsnwV.s 			page 10


 509 0072 02F1100E 		add	lr, r2, #16
 510              		.loc 1 237 0
 511 0076 09F2F45B 		addw	fp, r9, #1524
 512              		.loc 1 231 0
 513 007a C3F834C0 		str	ip, [r3, #52]
 514              		.loc 1 232 0
 515 007e C3F838A0 		str	r10, [r3, #56]
 516              		.loc 1 233 0
 517 0082 DB63     		str	r3, [r3, #60]
 518              	.LVL27:
 519              		.loc 1 236 0
 520 0084 5660     		str	r6, [r2, #4]
 521              		.loc 1 237 0
 522 0086 C2F80890 		str	r9, [r2, #8]
 523              		.loc 1 238 0
 524 008a C2F80CE0 		str	lr, [r2, #12]
 525              	.LVL28:
 526              		.loc 1 236 0
 527 008e 5661     		str	r6, [r2, #20]
 528              		.loc 1 237 0
 529 0090 C2F818B0 		str	fp, [r2, #24]
 530              		.loc 1 238 0
 531 0094 D261     		str	r2, [r2, #28]
 532              	.LVL29:
 533              		.loc 1 250 0
 534 0096 D8F80430 		ldr	r3, [r8, #4]
 535 009a 43F40003 		orr	r3, r3, #8388608
 536 009e C8F80430 		str	r3, [r8, #4]
 537              		.loc 1 259 0
 538 00a2 0B69     		ldr	r3, [r1, #16]
 539 00a4 43F00073 		orr	r3, r3, #33554432
 540 00a8 0B61     		str	r3, [r1, #16]
 541 00aa 0E61     		str	r6, [r1, #16]
 542              		.loc 1 262 0
 543 00ac 0B6B     		ldr	r3, [r1, #48]
 544 00ae 43F06063 		orr	r3, r3, #234881024
 545 00b2 0B63     		str	r3, [r1, #48]
 546              	.LVL30:
 547              	.LBB280:
 548              	.LBB278:
 549              	.LBB264:
 550              	.LBB263:
 551              		.loc 5 547 0
 552 00b4 D0F80490 		ldr	r9, [r0, #4]
 553              	.LBE263:
 554              	.LBE264:
 555              		.loc 1 131 0
 556 00b8 4F44     		add	r7, r7, r9
 557              	.LVL31:
 558              		.loc 1 132 0
 559 00ba 4846     		mov	r0, r9
 560              		.loc 1 133 0
 561 00bc 4946     		mov	r1, r9
 562 00be 3A46     		mov	r2, r7
 563              	.LBB265:
 564              	.LBB266:
 565              		.loc 1 115 0
ARM GAS  C:\Users\jo\AppData\Local\Temp\ccuwsnwV.s 			page 11


 566 00c0 A046     		mov	r8, r4
 567              	.LBE266:
 568              	.LBE265:
 569              		.loc 1 133 0
 570 00c2 FFF7FEFF 		bl	chSysIsCounterWithinX
 571              	.LVL32:
 572 00c6 F0B1     		cbz	r0, .L59
 573              	.LVL33:
 574              	.L47:
 575 00c8 0022     		movs	r2, #0
 576              		.loc 1 138 0
 577 00ca 45F69040 		movw	r0, #23696
 578              	.L37:
 579              	.LVL34:
 580              		.loc 1 137 0
 581 00ce 9301     		lsls	r3, r2, #6
 582              		.loc 1 136 0
 583 00d0 D102     		lsls	r1, r2, #11
 584              		.loc 1 137 0
 585 00d2 43F01003 		orr	r3, r3, #16
 586              	.LBB269:
 587              	.LBB267:
 588              		.loc 1 114 0
 589 00d6 41F09106 		orr	r6, r1, #145
 590              	.LBE267:
 591              	.LBE269:
 592              		.loc 1 137 0
 593 00da 6361     		str	r3, [r4, #20]
 594              	.LVL35:
 595              	.LBB270:
 596              	.LBB268:
 597              		.loc 1 114 0
 598 00dc 2661     		str	r6, [r4, #16]
 599              	.L35:
 600              		.loc 1 115 0
 601 00de 2369     		ldr	r3, [r4, #16]
 602 00e0 DB07     		lsls	r3, r3, #31
 603 00e2 FCD4     		bmi	.L35
 604              		.loc 1 117 0
 605 00e4 D8F81430 		ldr	r3, [r8, #20]
 606              	.LBE268:
 607              	.LBE270:
 608              		.loc 1 138 0
 609 00e8 B3F5005F 		cmp	r3, #8192
 610 00ec 14D0     		beq	.L36
 611              	.L40:
 612              		.loc 1 135 0
 613 00ee 0132     		adds	r2, r2, #1
 614              	.LVL36:
 615 00f0 1F2A     		cmp	r2, #31
 616 00f2 ECD1     		bne	.L37
 617              	.LBB271:
 618              	.LBB272:
 619              		.loc 5 547 0
 620 00f4 3A4B     		ldr	r3, .L60+36
 621 00f6 2962     		str	r1, [r5, #32]
 622 00f8 5868     		ldr	r0, [r3, #4]
ARM GAS  C:\Users\jo\AppData\Local\Temp\ccuwsnwV.s 			page 12


 623              	.LVL37:
 624              	.LBE272:
 625              	.LBE271:
 626              		.loc 1 133 0
 627 00fa 4946     		mov	r1, r9
 628 00fc 3A46     		mov	r2, r7
 629              	.LVL38:
 630 00fe FFF7FEFF 		bl	chSysIsCounterWithinX
 631              	.LVL39:
 632 0102 0028     		cmp	r0, #0
 633 0104 E0D1     		bne	.L47
 634              	.LVL40:
 635              	.L59:
 636              		.loc 1 147 0
 637 0106 3049     		ldr	r1, .L60+12
 638 0108 364A     		ldr	r2, .L60+40
 639 010a 3148     		ldr	r0, .L60+20
 640 010c FFF7FEFF 		bl	chprintf.constprop.2
 641              	.LVL41:
 642              	.LBB273:
 643              	.LBB274:
 644              		.loc 4 414 0
 645 0110 3448     		ldr	r0, .L60+40
 646 0112 FFF7FEFF 		bl	chSysHalt
 647              	.LVL42:
 648 0116 0FE0     		b	.L41
 649              	.LVL43:
 650              	.L36:
 651              	.LBE274:
 652              	.LBE273:
 653              	.LBB275:
 654              	.LBB276:
 655              		.loc 1 114 0
 656 0118 41F0D103 		orr	r3, r1, #209
 657 011c C8F81030 		str	r3, [r8, #16]
 658              	.L39:
 659              		.loc 1 115 0
 660 0120 2369     		ldr	r3, [r4, #16]
 661 0122 DE07     		lsls	r6, r3, #31
 662 0124 FCD4     		bmi	.L39
 663              		.loc 1 117 0
 664 0126 D8F814E0 		ldr	lr, [r8, #20]
 665              	.LBE276:
 666              	.LBE275:
 667              		.loc 1 139 0
 668 012a 4FF6F073 		movw	r3, #65520
 669 012e 0EEA0303 		and	r3, lr, r3
 670              		.loc 1 138 0
 671 0132 8342     		cmp	r3, r0
 672 0134 DBD1     		bne	.L40
 673 0136 2962     		str	r1, [r5, #32]
 674              	.LVL44:
 675              	.L41:
 676              	.LBE278:
 677              	.LBE280:
 678              		.loc 1 269 0
 679 0138 2B49     		ldr	r1, .L60+44
ARM GAS  C:\Users\jo\AppData\Local\Temp\ccuwsnwV.s 			page 13


 680 013a 2C4A     		ldr	r2, .L60+48
 681 013c 2448     		ldr	r0, .L60+20
 682 013e FFF7FEFF 		bl	chprintf.constprop.2
 683              	.LVL45:
 684              	.LBB281:
 685              	.LBB282:
 686              		.loc 1 97 0
 687 0142 2A6A     		ldr	r2, [r5, #32]
 688              		.loc 1 95 0
 689 0144 1F4B     		ldr	r3, .L60+8
 690              		.loc 1 97 0
 691 0146 42F01301 		orr	r1, r2, #19
 692              		.loc 1 95 0
 693 014a 4FF40042 		mov	r2, #32768
 694 014e 5A61     		str	r2, [r3, #20]
 695              		.loc 1 98 0
 696 0150 1A46     		mov	r2, r3
 697              		.loc 1 96 0
 698 0152 1961     		str	r1, [r3, #16]
 699              	.L42:
 700              		.loc 1 98 0
 701 0154 1369     		ldr	r3, [r2, #16]
 702 0156 DB07     		lsls	r3, r3, #31
 703 0158 FCD4     		bmi	.L42
 704              	.LBE282:
 705              	.LBE281:
 706              		.loc 1 279 0
 707 015a 2549     		ldr	r1, .L60+52
 708 015c 1C48     		ldr	r0, .L60+20
 709 015e 6422     		movs	r2, #100
 710 0160 FFF7FEFF 		bl	chprintf.constprop.2
 711              	.LVL46:
 712              		.loc 1 280 0
 713 0164 6420     		movs	r0, #100
 714 0166 FFF7FEFF 		bl	chSysPolledDelayX
 715              	.LVL47:
 716              		.loc 1 281 0
 717 016a 2149     		ldr	r1, .L60+52
 718 016c 1848     		ldr	r0, .L60+20
 719 016e 6422     		movs	r2, #100
 720 0170 FFF7FEFF 		bl	chprintf.constprop.2
 721              	.LVL48:
 722 0174 2D6A     		ldr	r5, [r5, #32]
 723              	.LBB283:
 724              	.LBB284:
 725              		.loc 1 114 0
 726 0176 1349     		ldr	r1, .L60+8
 727 0178 45F01100 		orr	r0, r5, #17
 728              		.loc 1 115 0
 729 017c 0C46     		mov	r4, r1
 730              	.LVL49:
 731              	.L44:
 732              		.loc 1 114 0 discriminator 1
 733 017e 0861     		str	r0, [r1, #16]
 734              	.L43:
 735              		.loc 1 115 0
 736 0180 0B69     		ldr	r3, [r1, #16]
ARM GAS  C:\Users\jo\AppData\Local\Temp\ccuwsnwV.s 			page 14


 737 0182 104A     		ldr	r2, .L60+8
 738 0184 DF07     		lsls	r7, r3, #31
 739 0186 FBD4     		bmi	.L43
 740              		.loc 1 117 0
 741 0188 6369     		ldr	r3, [r4, #20]
 742              	.LBE284:
 743              	.LBE283:
 744              		.loc 1 283 0
 745 018a 1E04     		lsls	r6, r3, #16
 746 018c F7D4     		bmi	.L44
 747              	.LVL50:
 748              	.LBB285:
 749              	.LBB286:
 750              		.loc 1 114 0
 751 018e 1061     		str	r0, [r2, #16]
 752              	.L45:
 753              		.loc 1 115 0
 754 0190 1369     		ldr	r3, [r2, #16]
 755 0192 0C49     		ldr	r1, .L60+8
 756 0194 D807     		lsls	r0, r3, #31
 757 0196 FBD4     		bmi	.L45
 758              		.loc 1 117 0
 759 0198 4B69     		ldr	r3, [r1, #20]
 760              	.LBE286:
 761              	.LBE285:
 762              	.LBB287:
 763              	.LBB288:
 764              		.loc 1 97 0
 765 019a 45F01305 		orr	r5, r5, #19
 766              	.LBE288:
 767              	.LBE287:
 768              		.loc 1 289 0
 769 019e 43F40063 		orr	r3, r3, #2048
 770              	.LVL51:
 771              	.LBB290:
 772              	.LBB289:
 773              		.loc 1 95 0
 774 01a2 4B61     		str	r3, [r1, #20]
 775              		.loc 1 98 0
 776 01a4 0A46     		mov	r2, r1
 777              		.loc 1 96 0
 778 01a6 0D61     		str	r5, [r1, #16]
 779              	.LVL52:
 780              	.L46:
 781              		.loc 1 98 0
 782 01a8 1369     		ldr	r3, [r2, #16]
 783 01aa DB07     		lsls	r3, r3, #31
 784 01ac FCD4     		bmi	.L46
 785              	.LBE289:
 786              	.LBE290:
 787              		.loc 1 293 0
 788 01ae 0B4A     		ldr	r2, .L60+32
 789 01b0 136B     		ldr	r3, [r2, #48]
 790 01b2 23F06063 		bic	r3, r3, #234881024
 791 01b6 1363     		str	r3, [r2, #48]
 792 01b8 BDE8F88F 		pop	{r3, r4, r5, r6, r7, r8, r9, r10, fp, pc}
 793              	.LVL53:
ARM GAS  C:\Users\jo\AppData\Local\Temp\ccuwsnwV.s 			page 15


 794              	.L61:
 795              		.align	2
 796              	.L60:
 797 01bc 00000000 		.word	.LANCHOR0
 798 01c0 C0E1E400 		.word	15000000
 799 01c4 00800240 		.word	1073905664
 800 01c8 00000000 		.word	.LC0
 801 01cc 04000000 		.word	.LC1
 802 01d0 00000000 		.word	itm_port
 803 01d4 00000000 		.word	.LANCHOR1
 804 01d8 00000000 		.word	.LANCHOR3
 805 01dc 00380240 		.word	1073887232
 806 01e0 001000E0 		.word	-536866816
 807 01e4 14000000 		.word	.LC2
 808 01e8 20000000 		.word	.LC3
 809 01ec 2C000000 		.word	.LC4
 810 01f0 3C000000 		.word	.LC5
 811 01f4 00000000 		.word	.LANCHOR4
 812 01f8 00380140 		.word	1073821696
 813 01fc DC110000 		.word	.LANCHOR2+4572
 814 0200 00000000 		.word	.LANCHOR2
 815              		.cfi_endproc
 816              	.LFE261:
 817              		.size	mac_lld_init, .-mac_lld_init
 818 0204 AFF30080 		.section	.text.mac_lld_start,"ax",%progbits
 818      AFF30080 
 818      AFF30080 
 819              		.align	2
 820              		.p2align 4,,15
 821              		.global	mac_lld_start
 822              		.thumb
 823              		.thumb_func
 824              		.type	mac_lld_start, %function
 825              	mac_lld_start:
 826              	.LFB262:
 827              		.loc 1 303 0
 828              		.cfi_startproc
 829              		@ args = 0, pretend = 0, frame = 0
 830              		@ frame_needed = 0, uses_anonymous_args = 0
 831              	.LVL54:
 832 0000 2DE9F843 		push	{r3, r4, r5, r6, r7, r8, r9, lr}
 833              		.cfi_def_cfa_offset 32
 834              		.cfi_offset 3, -32
 835              		.cfi_offset 4, -28
 836              		.cfi_offset 5, -24
 837              		.cfi_offset 6, -20
 838              		.cfi_offset 7, -16
 839              		.cfi_offset 8, -12
 840              		.cfi_offset 9, -8
 841              		.cfi_offset 14, -4
 842              		.loc 1 308 0
 843 0004 384C     		ldr	r4, .L73
 844              		.loc 1 311 0
 845 0006 394D     		ldr	r5, .L73+4
 846              		.loc 1 315 0
 847 0008 394F     		ldr	r7, .L73+8
 848              		.loc 1 322 0
ARM GAS  C:\Users\jo\AppData\Local\Temp\ccuwsnwV.s 			page 16


 849 000a 3A49     		ldr	r1, .L73+12
 850 000c 3A4A     		ldr	r2, .L73+16
 851              		.loc 1 308 0
 852 000e 4FF00043 		mov	r3, #-2147483648
 853              		.loc 1 311 0
 854 0012 4FF48016 		mov	r6, #1048576
 855              		.loc 1 308 0
 856 0016 2360     		str	r3, [r4]
 857              	.LVL55:
 858 0018 2361     		str	r3, [r4, #16]
 859              	.LVL56:
 860 001a 2362     		str	r3, [r4, #32]
 861              	.LVL57:
 862 001c 2363     		str	r3, [r4, #48]
 863              	.LVL58:
 864              		.loc 1 311 0
 865 001e 2E60     		str	r6, [r5]
 866 0020 2E61     		str	r6, [r5, #16]
 867              		.loc 1 315 0
 868 0022 3B6B     		ldr	r3, [r7, #48]
 869              		.loc 1 309 0
 870 0024 4462     		str	r4, [r0, #36]
 871              	.LVL59:
 872              		.loc 1 315 0
 873 0026 43F06063 		orr	r3, r3, #234881024
 874              		.loc 1 312 0
 875 002a 8562     		str	r5, [r0, #40]
 876              		.loc 1 303 0
 877 002c 0646     		mov	r6, r0
 878              		.loc 1 315 0
 879 002e 3B63     		str	r3, [r7, #48]
 880              		.loc 1 322 0
 881 0030 3248     		ldr	r0, .L73+20
 882              	.LVL60:
 883 0032 FFF7FEFF 		bl	chprintf.constprop.2
 884              	.LVL61:
 885              		.loc 1 325 0
 886 0036 3D20     		movs	r0, #61
 887 0038 0D21     		movs	r1, #13
 888 003a FFF7FEFF 		bl	nvicEnableVector
 889              	.LVL62:
 890              	.LBB291:
 891              	.LBB292:
 892              		.loc 1 114 0
 893 003e 306A     		ldr	r0, [r6, #32]
 894 0040 2F49     		ldr	r1, .L73+24
 895 0042 40F01103 		orr	r3, r0, #17
 896 0046 0B61     		str	r3, [r1, #16]
 897              	.L63:
 898              		.loc 1 115 0
 899 0048 0B69     		ldr	r3, [r1, #16]
 900 004a 2D4A     		ldr	r2, .L73+24
 901 004c DF07     		lsls	r7, r3, #31
 902 004e FBD4     		bmi	.L63
 903              		.loc 1 117 0
 904 0050 5369     		ldr	r3, [r2, #20]
 905              	.LBE292:
ARM GAS  C:\Users\jo\AppData\Local\Temp\ccuwsnwV.s 			page 17


 906              	.LBE291:
 907              	.LBB293:
 908              	.LBB294:
 909              		.loc 1 97 0
 910 0052 40F01300 		orr	r0, r0, #19
 911              	.LBE294:
 912              	.LBE293:
 913              		.loc 1 329 0
 914 0056 23F40063 		bic	r3, r3, #2048
 915              	.LVL63:
 916              	.LBB296:
 917              	.LBB295:
 918              		.loc 1 95 0
 919 005a 5361     		str	r3, [r2, #20]
 920              		.loc 1 98 0
 921 005c 1146     		mov	r1, r2
 922              		.loc 1 96 0
 923 005e 1061     		str	r0, [r2, #16]
 924              	.LVL64:
 925              	.L64:
 926              		.loc 1 98 0
 927 0060 0B69     		ldr	r3, [r1, #16]
 928 0062 274A     		ldr	r2, .L73+24
 929 0064 13F00103 		ands	r3, r3, #1
 930 0068 FAD1     		bne	.L64
 931              	.LBE295:
 932              	.LBE296:
 933              		.loc 1 338 0
 934 006a 7168     		ldr	r1, [r6, #4]
 935              		.loc 1 333 0
 936 006c 5360     		str	r3, [r2, #4]
 937              		.loc 1 338 0
 938 006e 0868     		ldr	r0, [r1]
 939              		.loc 1 334 0
 940 0070 9361     		str	r3, [r2, #24]
 941              		.loc 1 335 0
 942 0072 D361     		str	r3, [r2, #28]
 943              		.loc 1 338 0
 944 0074 0028     		cmp	r0, #0
 945 0076 33D0     		beq	.L72
 946              		.loc 1 341 0
 947 0078 FFF7FEFF 		bl	mac_lld_set_address
 948              	.LVL65:
 949              	.L66:
 950              		.loc 1 349 0
 951 007c 204E     		ldr	r6, .L73+24
 952              	.LVL66:
 953              		.loc 1 362 0
 954 007e 214F     		ldr	r7, .L73+28
 955              		.loc 1 359 0
 956 0080 DFF898C0 		ldr	ip, .L73+52
 957              		.loc 1 362 0
 958 0084 DFF898E0 		ldr	lr, .L73+56
 959              		.loc 1 364 0
 960 0088 1F4A     		ldr	r2, .L73+32
 961 008a 1C48     		ldr	r0, .L73+20
 962 008c 1949     		ldr	r1, .L73+12
ARM GAS  C:\Users\jo\AppData\Local\Temp\ccuwsnwV.s 			page 18


 963              		.loc 1 354 0
 964 008e 41F20C09 		movw	r9, #4108
 965              		.loc 1 355 0
 966 0092 41F21008 		movw	r8, #4112
 967              		.loc 1 349 0
 968 0096 0C23     		movs	r3, #12
 969 0098 3360     		str	r3, [r6]
 970              		.loc 1 354 0
 971 009a 46F80940 		str	r4, [r6, r9]
 972              		.loc 1 358 0
 973 009e 41F21403 		movw	r3, #4116
 974              		.loc 1 355 0
 975 00a2 46F80850 		str	r5, [r6, r8]
 976              		.loc 1 359 0
 977 00a6 41F21C04 		movw	r4, #4124
 978              		.loc 1 358 0
 979 00aa F558     		ldr	r5, [r6, r3]
 980 00ac F550     		str	r5, [r6, r3]
 981              		.loc 1 359 0
 982 00ae 46F804C0 		str	ip, [r6, r4]
 983              		.loc 1 362 0
 984 00b2 C7F800E0 		str	lr, [r7]
 985              		.loc 1 364 0
 986 00b6 FFF7FEFF 		bl	chprintf.constprop.2
 987              	.LVL67:
 988              		.loc 1 367 0
 989 00ba 41F21803 		movw	r3, #4120
 990 00be 4FF48012 		mov	r2, #1048576
 991 00c2 F250     		str	r2, [r6, r3]
 992              		.loc 1 368 0
 993 00c4 114A     		ldr	r2, .L73+36
 994              	.L67:
 995              		.loc 1 368 0 is_stmt 0 discriminator 1
 996 00c6 1368     		ldr	r3, [r2]
 997 00c8 104C     		ldr	r4, .L73+36
 998 00ca DB02     		lsls	r3, r3, #11
 999 00cc FBD4     		bmi	.L67
 1000              		.loc 1 371 0 is_stmt 1
 1001 00ce 0B48     		ldr	r0, .L73+20
 1002 00d0 0849     		ldr	r1, .L73+12
 1003 00d2 0F4A     		ldr	r2, .L73+40
 1004 00d4 FFF7FEFF 		bl	chprintf.constprop.2
 1005              	.LVL68:
 1006              		.loc 1 374 0
 1007 00d8 0E4B     		ldr	r3, .L73+44
 1008 00da 2360     		str	r3, [r4]
 1009 00dc BDE8F883 		pop	{r3, r4, r5, r6, r7, r8, r9, pc}
 1010              	.LVL69:
 1011              	.L72:
 1012              		.loc 1 339 0
 1013 00e0 0D48     		ldr	r0, .L73+48
 1014 00e2 FFF7FEFF 		bl	mac_lld_set_address
 1015              	.LVL70:
 1016 00e6 C9E7     		b	.L66
 1017              	.L74:
 1018              		.align	2
 1019              	.L73:
ARM GAS  C:\Users\jo\AppData\Local\Temp\ccuwsnwV.s 			page 19


 1020 00e8 00000000 		.word	.LANCHOR1
 1021 00ec 00000000 		.word	.LANCHOR3
 1022 00f0 00380240 		.word	1073887232
 1023 00f4 00000000 		.word	.LC0
 1024 00f8 58000000 		.word	.LC6
 1025 00fc 00000000 		.word	itm_port
 1026 0100 00800240 		.word	1073905664
 1027 0104 00900240 		.word	1073909760
 1028 0108 64000000 		.word	.LC7
 1029 010c 18900240 		.word	1073909784
 1030 0110 74000000 		.word	.LC8
 1031 0114 02202006 		.word	102768642
 1032 0118 00000000 		.word	.LANCHOR5
 1033 011c 41000100 		.word	65601
 1034 0120 00010202 		.word	33685760
 1035              		.cfi_endproc
 1036              	.LFE262:
 1037              		.size	mac_lld_start, .-mac_lld_start
 1038 0124 AFF30080 		.section	.text.mac_lld_stop,"ax",%progbits
 1038      AFF30080 
 1038      AFF30080 
 1039              		.align	2
 1040              		.p2align 4,,15
 1041              		.global	mac_lld_stop
 1042              		.thumb
 1043              		.thumb_func
 1044              		.type	mac_lld_stop, %function
 1045              	mac_lld_stop:
 1046              	.LFB263:
 1047              		.loc 1 385 0
 1048              		.cfi_startproc
 1049              		@ args = 0, pretend = 0, frame = 0
 1050              		@ frame_needed = 0, uses_anonymous_args = 0
 1051              		@ link register save eliminated.
 1052              	.LVL71:
 1053              		.loc 1 387 0
 1054 0000 0378     		ldrb	r3, [r0]	@ zero_extendqisi2
 1055 0002 012B     		cmp	r3, #1
 1056 0004 2CD0     		beq	.L82
 1057              	.LVL72:
 1058              	.LBB297:
 1059              	.LBB298:
 1060              		.loc 1 114 0
 1061 0006 006A     		ldr	r0, [r0, #32]
 1062              	.LVL73:
 1063 0008 1649     		ldr	r1, .L83
 1064 000a 40F01103 		orr	r3, r0, #17
 1065 000e 0B61     		str	r3, [r1, #16]
 1066              	.L77:
 1067              		.loc 1 115 0
 1068 0010 0B69     		ldr	r3, [r1, #16]
 1069 0012 144A     		ldr	r2, .L83
 1070 0014 DB07     		lsls	r3, r3, #31
 1071 0016 FBD4     		bmi	.L77
 1072              		.loc 1 117 0
 1073 0018 5369     		ldr	r3, [r2, #20]
 1074              	.LBE298:
ARM GAS  C:\Users\jo\AppData\Local\Temp\ccuwsnwV.s 			page 20


 1075              	.LBE297:
 1076              	.LBB299:
 1077              	.LBB300:
 1078              		.loc 1 97 0
 1079 001a 40F01300 		orr	r0, r0, #19
 1080              	.LBE300:
 1081              	.LBE299:
 1082              		.loc 1 390 0
 1083 001e 43F40063 		orr	r3, r3, #2048
 1084              	.LVL74:
 1085              	.LBB302:
 1086              	.LBB301:
 1087              		.loc 1 95 0
 1088 0022 5361     		str	r3, [r2, #20]
 1089              		.loc 1 98 0
 1090 0024 1146     		mov	r1, r2
 1091              		.loc 1 96 0
 1092 0026 1061     		str	r0, [r2, #16]
 1093              	.LVL75:
 1094              	.L78:
 1095              		.loc 1 98 0
 1096 0028 0B69     		ldr	r3, [r1, #16]
 1097 002a 0E4A     		ldr	r2, .L83
 1098 002c 13F00103 		ands	r3, r3, #1
 1099 0030 FAD1     		bne	.L78
 1100              	.LBE301:
 1101              	.LBE302:
 1102              		.loc 1 385 0
 1103 0032 10B4     		push	{r4}
 1104              		.cfi_def_cfa_offset 4
 1105              		.cfi_offset 4, -4
 1106              		.loc 1 396 0
 1107 0034 41F21C00 		movw	r0, #4124
 1108              		.loc 1 395 0
 1109 0038 41F21804 		movw	r4, #4120
 1110              		.loc 1 394 0
 1111 003c 1360     		str	r3, [r2]
 1112              		.loc 1 397 0
 1113 003e 41F21401 		movw	r1, #4116
 1114              		.loc 1 395 0
 1115 0042 1351     		str	r3, [r2, r4]
 1116              		.loc 1 396 0
 1117 0044 1350     		str	r3, [r2, r0]
 1118              		.loc 1 397 0
 1119 0046 5358     		ldr	r3, [r2, r1]
 1120 0048 5350     		str	r3, [r2, r1]
 1121              		.loc 1 400 0
 1122 004a A2F59042 		sub	r2, r2, #18432
 1123              		.loc 1 403 0
 1124 004e 3D20     		movs	r0, #61
 1125              		.loc 1 400 0
 1126 0050 136B     		ldr	r3, [r2, #48]
 1127              		.loc 1 405 0
 1128 0052 5DF8044B 		ldr	r4, [sp], #4
 1129              		.cfi_restore 4
 1130              		.cfi_def_cfa_offset 0
 1131              		.loc 1 400 0
ARM GAS  C:\Users\jo\AppData\Local\Temp\ccuwsnwV.s 			page 21


 1132 0056 23F06063 		bic	r3, r3, #234881024
 1133 005a 1363     		str	r3, [r2, #48]
 1134              		.loc 1 403 0
 1135 005c FFF7FEBF 		b	nvicDisableVector
 1136              	.LVL76:
 1137              	.L82:
 1138 0060 7047     		bx	lr
 1139              	.L84:
 1140 0062 00BF     		.align	2
 1141              	.L83:
 1142 0064 00800240 		.word	1073905664
 1143              		.cfi_endproc
 1144              	.LFE263:
 1145              		.size	mac_lld_stop, .-mac_lld_stop
 1146 0068 AFF30080 		.section	.text.mac_lld_get_transmit_descriptor,"ax",%progbits
 1146      AFF30080 
 1147              		.align	2
 1148              		.p2align 4,,15
 1149              		.global	mac_lld_get_transmit_descriptor
 1150              		.thumb
 1151              		.thumb_func
 1152              		.type	mac_lld_get_transmit_descriptor, %function
 1153              	mac_lld_get_transmit_descriptor:
 1154              	.LFB264:
 1155              		.loc 1 421 0
 1156              		.cfi_startproc
 1157              		@ args = 0, pretend = 0, frame = 0
 1158              		@ frame_needed = 0, uses_anonymous_args = 0
 1159              		@ link register save eliminated.
 1160              	.LVL77:
 1161              		.loc 1 424 0
 1162 0000 037F     		ldrb	r3, [r0, #28]	@ zero_extendqisi2
 1163 0002 CBB1     		cbz	r3, .L88
 1164              	.LVL78:
 1165              	.LBB303:
 1166              	.LBB304:
 1167              	.LBB305:
 1168              	.LBB306:
 1169              	.LBB307:
 1170              		.loc 3 546 0
 1171 0004 2023     		movs	r3, #32
 1172              	@ 546 "../../../os/ext/CMSIS/include/core_cmFunc.h" 1
 1173 0006 83F31188 		MSR basepri, r3
 1174              	@ 0 "" 2
 1175              		.thumb
 1176              	.LBE307:
 1177              	.LBE306:
 1178              	.LBE305:
 1179              	.LBE304:
 1180              	.LBE303:
 1181              		.loc 1 430 0
 1182 000a 826A     		ldr	r2, [r0, #40]
 1183              	.LVL79:
 1184              		.loc 1 434 0
 1185 000c 1368     		ldr	r3, [r2]
 1186 000e 13F00143 		ands	r3, r3, #-2130706432
 1187 0012 14D1     		bne	.L91
ARM GAS  C:\Users\jo\AppData\Local\Temp\ccuwsnwV.s 			page 22


 1188              		.loc 1 421 0
 1189 0014 10B4     		push	{r4}
 1190              		.cfi_def_cfa_offset 4
 1191              		.cfi_offset 4, -4
 1192              		.loc 1 440 0
 1193 0016 1468     		ldr	r4, [r2]
 1194 0018 44F08074 		orr	r4, r4, #16777216
 1195 001c 1460     		str	r4, [r2]
 1196              		.loc 1 443 0
 1197 001e D468     		ldr	r4, [r2, #12]
 1198 0020 8462     		str	r4, [r0, #40]
 1199              	.LVL80:
 1200              	.LBB308:
 1201              	.LBB309:
 1202              	.LBB310:
 1203              	.LBB311:
 1204              	.LBB312:
 1205              	.LBB313:
 1206              		.loc 3 546 0
 1207              	@ 546 "../../../os/ext/CMSIS/include/core_cmFunc.h" 1
 1208 0022 83F31188 		MSR basepri, r3
 1209              	@ 0 "" 2
 1210              		.thumb
 1211              	.LBE313:
 1212              	.LBE312:
 1213              	.LBE311:
 1214              	.LBE310:
 1215              	.LBE309:
 1216              	.LBE308:
 1217              		.loc 1 449 0
 1218 0026 40F2F254 		movw	r4, #1522
 1219              		.loc 1 452 0
 1220 002a 1846     		mov	r0, r3
 1221              	.LVL81:
 1222              		.loc 1 449 0
 1223 002c 4C60     		str	r4, [r1, #4]
 1224              		.loc 1 448 0
 1225 002e 0B60     		str	r3, [r1]
 1226              		.loc 1 450 0
 1227 0030 8A60     		str	r2, [r1, #8]
 1228              		.loc 1 453 0
 1229 0032 5DF8044B 		ldr	r4, [sp], #4
 1230              		.cfi_restore 4
 1231              		.cfi_def_cfa_offset 0
 1232 0036 7047     		bx	lr
 1233              	.LVL82:
 1234              	.L88:
 1235              		.loc 1 425 0
 1236 0038 4FF0FF30 		mov	r0, #-1
 1237              	.LVL83:
 1238 003c 7047     		bx	lr
 1239              	.LVL84:
 1240              	.L91:
 1241              	.LBB314:
 1242              	.LBB315:
 1243              	.LBB316:
 1244              	.LBB317:
ARM GAS  C:\Users\jo\AppData\Local\Temp\ccuwsnwV.s 			page 23


 1245              	.LBB318:
 1246              	.LBB319:
 1247              		.loc 3 546 0
 1248 003e 0023     		movs	r3, #0
 1249              	@ 546 "../../../os/ext/CMSIS/include/core_cmFunc.h" 1
 1250 0040 83F31188 		MSR basepri, r3
 1251              	@ 0 "" 2
 1252              		.thumb
 1253              	.LBE319:
 1254              	.LBE318:
 1255              	.LBE317:
 1256              	.LBE316:
 1257              	.LBE315:
 1258              	.LBE314:
 1259              		.loc 1 436 0
 1260 0044 4FF0FF30 		mov	r0, #-1
 1261              	.LVL85:
 1262 0048 7047     		bx	lr
 1263              		.cfi_endproc
 1264              	.LFE264:
 1265              		.size	mac_lld_get_transmit_descriptor, .-mac_lld_get_transmit_descriptor
 1266 004a 00BFAFF3 		.section	.text.mac_lld_release_transmit_descriptor,"ax",%progbits
 1266      0080
 1267              		.align	2
 1268              		.p2align 4,,15
 1269              		.global	mac_lld_release_transmit_descriptor
 1270              		.thumb
 1271              		.thumb_func
 1272              		.type	mac_lld_release_transmit_descriptor, %function
 1273              	mac_lld_release_transmit_descriptor:
 1274              	.LFB265:
 1275              		.loc 1 463 0
 1276              		.cfi_startproc
 1277              		@ args = 0, pretend = 0, frame = 0
 1278              		@ frame_needed = 0, uses_anonymous_args = 0
 1279              		@ link register save eliminated.
 1280              	.LVL86:
 1281              	.LBB320:
 1282              	.LBB321:
 1283              	.LBB322:
 1284              	.LBB323:
 1285              	.LBB324:
 1286              		.loc 3 546 0
 1287 0000 2023     		movs	r3, #32
 1288              	@ 546 "../../../os/ext/CMSIS/include/core_cmFunc.h" 1
 1289 0002 83F31188 		MSR basepri, r3
 1290              	@ 0 "" 2
 1291              		.thumb
 1292              	.LBE324:
 1293              	.LBE323:
 1294              	.LBE322:
 1295              	.LBE321:
 1296              	.LBE320:
 1297              		.loc 1 471 0
 1298 0006 8368     		ldr	r3, [r0, #8]
 1299 0008 0168     		ldr	r1, [r0]
 1300 000a 5960     		str	r1, [r3, #4]
ARM GAS  C:\Users\jo\AppData\Local\Temp\ccuwsnwV.s 			page 24


 1301              		.loc 1 472 0
 1302 000c 0948     		ldr	r0, .L94
 1303              	.LVL87:
 1304              		.loc 1 477 0
 1305 000e 0A4A     		ldr	r2, .L94+4
 1306              		.loc 1 472 0
 1307 0010 1860     		str	r0, [r3]
 1308              		.loc 1 477 0
 1309 0012 41F21401 		movw	r1, #4116
 1310 0016 5358     		ldr	r3, [r2, r1]
 1311 0018 03F4E003 		and	r3, r3, #7340032
 1312 001c B3F5C00F 		cmp	r3, #6291456
 1313 0020 04D1     		bne	.L93
 1314              		.loc 1 479 0
 1315 0022 41F20400 		movw	r0, #4100
 1316              		.loc 1 478 0
 1317 0026 0423     		movs	r3, #4
 1318 0028 5350     		str	r3, [r2, r1]
 1319              		.loc 1 479 0
 1320 002a 1350     		str	r3, [r2, r0]
 1321              	.L93:
 1322              	.LVL88:
 1323              	.LBB325:
 1324              	.LBB326:
 1325              	.LBB327:
 1326              	.LBB328:
 1327              	.LBB329:
 1328              	.LBB330:
 1329              		.loc 3 546 0
 1330 002c 0023     		movs	r3, #0
 1331              	@ 546 "../../../os/ext/CMSIS/include/core_cmFunc.h" 1
 1332 002e 83F31188 		MSR basepri, r3
 1333              	@ 0 "" 2
 1334              		.thumb
 1335 0032 7047     		bx	lr
 1336              	.L95:
 1337              		.align	2
 1338              	.L94:
 1339 0034 000010F0 		.word	-267386880
 1340 0038 00800240 		.word	1073905664
 1341              	.LBE330:
 1342              	.LBE329:
 1343              	.LBE328:
 1344              	.LBE327:
 1345              	.LBE326:
 1346              	.LBE325:
 1347              		.cfi_endproc
 1348              	.LFE265:
 1349              		.size	mac_lld_release_transmit_descriptor, .-mac_lld_release_transmit_descriptor
 1350 003c AFF30080 		.section	.text.mac_lld_get_receive_descriptor,"ax",%progbits
 1351              		.align	2
 1352              		.p2align 4,,15
 1353              		.global	mac_lld_get_receive_descriptor
 1354              		.thumb
 1355              		.thumb_func
 1356              		.type	mac_lld_get_receive_descriptor, %function
 1357              	mac_lld_get_receive_descriptor:
ARM GAS  C:\Users\jo\AppData\Local\Temp\ccuwsnwV.s 			page 25


 1358              	.LFB266:
 1359              		.loc 1 497 0
 1360              		.cfi_startproc
 1361              		@ args = 0, pretend = 0, frame = 0
 1362              		@ frame_needed = 0, uses_anonymous_args = 0
 1363              		@ link register save eliminated.
 1364              	.LVL89:
 1365              	.LBB331:
 1366              	.LBB332:
 1367              	.LBB333:
 1368              	.LBB334:
 1369              	.LBB335:
 1370              		.loc 3 546 0
 1371 0000 2023     		movs	r3, #32
 1372              	@ 546 "../../../os/ext/CMSIS/include/core_cmFunc.h" 1
 1373 0002 83F31188 		MSR basepri, r3
 1374              	@ 0 "" 2
 1375              		.thumb
 1376              	.LBE335:
 1377              	.LBE334:
 1378              	.LBE333:
 1379              	.LBE332:
 1380              	.LBE331:
 1381              		.loc 1 503 0
 1382 0006 436A     		ldr	r3, [r0, #36]
 1383              	.LVL90:
 1384              		.loc 1 507 0
 1385 0008 1A68     		ldr	r2, [r3]
 1386 000a 002A     		cmp	r2, #0
 1387 000c 27DB     		blt	.L109
 1388              		.loc 1 497 0
 1389 000e 30B4     		push	{r4, r5}
 1390              		.cfi_def_cfa_offset 8
 1391              		.cfi_offset 4, -8
 1392              		.cfi_offset 5, -4
 1393              		.loc 1 524 0
 1394 0010 4FF00045 		mov	r5, #-2147483648
 1395              	.L100:
 1396              		.loc 1 508 0
 1397 0014 1C68     		ldr	r4, [r3]
 1398 0016 154A     		ldr	r2, .L111
 1399 0018 2240     		ands	r2, r2, r4
 1400 001a 2AB9     		cbnz	r2, .L98
 1401              		.loc 1 513 0
 1402 001c 1C68     		ldr	r4, [r3]
 1403 001e A405     		lsls	r4, r4, #22
 1404 0020 02D5     		bpl	.L98
 1405              		.loc 1 513 0 is_stmt 0 discriminator 1
 1406 0022 1C68     		ldr	r4, [r3]
 1407 0024 E405     		lsls	r4, r4, #23
 1408 0026 0CD4     		bmi	.L110
 1409              	.L98:
 1410              		.loc 1 524 0 is_stmt 1
 1411 0028 1D60     		str	r5, [r3]
 1412              		.loc 1 525 0
 1413 002a DB68     		ldr	r3, [r3, #12]
 1414              	.LVL91:
ARM GAS  C:\Users\jo\AppData\Local\Temp\ccuwsnwV.s 			page 26


 1415              		.loc 1 507 0
 1416 002c 1A68     		ldr	r2, [r3]
 1417 002e 002A     		cmp	r2, #0
 1418 0030 F0DA     		bge	.L100
 1419              		.loc 1 529 0
 1420 0032 4362     		str	r3, [r0, #36]
 1421              	.LVL92:
 1422              	.LBB336:
 1423              	.LBB337:
 1424              	.LBB338:
 1425              	.LBB339:
 1426              	.LBB340:
 1427              	.LBB341:
 1428              		.loc 3 546 0
 1429 0034 0023     		movs	r3, #0
 1430              	.LVL93:
 1431              	@ 546 "../../../os/ext/CMSIS/include/core_cmFunc.h" 1
 1432 0036 83F31188 		MSR basepri, r3
 1433              	@ 0 "" 2
 1434              		.thumb
 1435              	.LBE341:
 1436              	.LBE340:
 1437              	.LBE339:
 1438              	.LBE338:
 1439              	.LBE337:
 1440              	.LBE336:
 1441              		.loc 1 532 0
 1442 003a 4FF0FF30 		mov	r0, #-1
 1443              	.LVL94:
 1444              		.loc 1 533 0
 1445 003e 30BC     		pop	{r4, r5}
 1446              		.cfi_remember_state
 1447              		.cfi_restore 5
 1448              		.cfi_restore 4
 1449              		.cfi_def_cfa_offset 0
 1450 0040 7047     		bx	lr
 1451              	.LVL95:
 1452              	.L110:
 1453              		.cfi_restore_state
 1454              		.loc 1 516 0
 1455 0042 1C68     		ldr	r4, [r3]
 1456              		.loc 1 518 0
 1457 0044 DD68     		ldr	r5, [r3, #12]
 1458              		.loc 1 515 0
 1459 0046 0A60     		str	r2, [r1]
 1460              		.loc 1 516 0
 1461 0048 C4F30D44 		ubfx	r4, r4, #16, #14
 1462 004c 043C     		subs	r4, r4, #4
 1463 004e 4C60     		str	r4, [r1, #4]
 1464              		.loc 1 517 0
 1465 0050 8B60     		str	r3, [r1, #8]
 1466              		.loc 1 518 0
 1467 0052 4562     		str	r5, [r0, #36]
 1468              	.LVL96:
 1469              	.LBB347:
 1470              	.LBB348:
 1471              	.LBB349:
ARM GAS  C:\Users\jo\AppData\Local\Temp\ccuwsnwV.s 			page 27


 1472              	.LBB350:
 1473              	.LBB351:
 1474              	.LBB352:
 1475              		.loc 3 546 0
 1476              	@ 546 "../../../os/ext/CMSIS/include/core_cmFunc.h" 1
 1477 0054 82F31188 		MSR basepri, r2
 1478              	@ 0 "" 2
 1479              		.thumb
 1480              	.LBE352:
 1481              	.LBE351:
 1482              	.LBE350:
 1483              	.LBE349:
 1484              	.LBE348:
 1485              	.LBE347:
 1486              		.loc 1 521 0
 1487 0058 1046     		mov	r0, r2
 1488              	.LVL97:
 1489              		.loc 1 533 0
 1490 005a 30BC     		pop	{r4, r5}
 1491              		.cfi_restore 4
 1492              		.cfi_restore 5
 1493              		.cfi_def_cfa_offset 0
 1494 005c 7047     		bx	lr
 1495              	.LVL98:
 1496              	.L109:
 1497              		.loc 1 529 0
 1498 005e 4362     		str	r3, [r0, #36]
 1499              	.LVL99:
 1500              	.LBB353:
 1501              	.LBB346:
 1502              	.LBB345:
 1503              	.LBB344:
 1504              	.LBB343:
 1505              	.LBB342:
 1506              		.loc 3 546 0
 1507 0060 0023     		movs	r3, #0
 1508              	.LVL100:
 1509              	@ 546 "../../../os/ext/CMSIS/include/core_cmFunc.h" 1
 1510 0062 83F31188 		MSR basepri, r3
 1511              	@ 0 "" 2
 1512              		.thumb
 1513              	.LBE342:
 1514              	.LBE343:
 1515              	.LBE344:
 1516              	.LBE345:
 1517              	.LBE346:
 1518              	.LBE353:
 1519              		.loc 1 532 0
 1520 0066 4FF0FF30 		mov	r0, #-1
 1521              	.LVL101:
 1522              		.loc 1 533 0
 1523 006a 7047     		bx	lr
 1524              	.L112:
 1525              		.align	2
 1526              	.L111:
 1527 006c 00800040 		.word	1073774592
 1528              		.cfi_endproc
ARM GAS  C:\Users\jo\AppData\Local\Temp\ccuwsnwV.s 			page 28


 1529              	.LFE266:
 1530              		.size	mac_lld_get_receive_descriptor, .-mac_lld_get_receive_descriptor
 1531              		.section	.text.mac_lld_release_receive_descriptor,"ax",%progbits
 1532              		.align	2
 1533              		.p2align 4,,15
 1534              		.global	mac_lld_release_receive_descriptor
 1535              		.thumb
 1536              		.thumb_func
 1537              		.type	mac_lld_release_receive_descriptor, %function
 1538              	mac_lld_release_receive_descriptor:
 1539              	.LFB267:
 1540              		.loc 1 544 0
 1541              		.cfi_startproc
 1542              		@ args = 0, pretend = 0, frame = 0
 1543              		@ frame_needed = 0, uses_anonymous_args = 0
 1544              		@ link register save eliminated.
 1545              	.LVL102:
 1546              	.LBB354:
 1547              	.LBB355:
 1548              	.LBB356:
 1549              	.LBB357:
 1550              	.LBB358:
 1551              		.loc 3 546 0
 1552 0000 2023     		movs	r3, #32
 1553              	@ 546 "../../../os/ext/CMSIS/include/core_cmFunc.h" 1
 1554 0002 83F31188 		MSR basepri, r3
 1555              	@ 0 "" 2
 1556              		.thumb
 1557              	.LBE358:
 1558              	.LBE357:
 1559              	.LBE356:
 1560              	.LBE355:
 1561              	.LBE354:
 1562              		.loc 1 552 0
 1563 0006 8368     		ldr	r3, [r0, #8]
 1564              		.loc 1 555 0
 1565 0008 0A4A     		ldr	r2, .L115
 1566              		.loc 1 552 0
 1567 000a 4FF00040 		mov	r0, #-2147483648
 1568              	.LVL103:
 1569              		.loc 1 555 0
 1570 000e 41F21401 		movw	r1, #4116
 1571              		.loc 1 552 0
 1572 0012 1860     		str	r0, [r3]
 1573              		.loc 1 555 0
 1574 0014 5358     		ldr	r3, [r2, r1]
 1575 0016 03F46023 		and	r3, r3, #917504
 1576 001a B3F5002F 		cmp	r3, #524288
 1577 001e 04D1     		bne	.L114
 1578              		.loc 1 557 0
 1579 0020 41F20800 		movw	r0, #4104
 1580              		.loc 1 556 0
 1581 0024 8023     		movs	r3, #128
 1582 0026 5350     		str	r3, [r2, r1]
 1583              		.loc 1 557 0
 1584 0028 1350     		str	r3, [r2, r0]
 1585              	.L114:
ARM GAS  C:\Users\jo\AppData\Local\Temp\ccuwsnwV.s 			page 29


 1586              	.LVL104:
 1587              	.LBB359:
 1588              	.LBB360:
 1589              	.LBB361:
 1590              	.LBB362:
 1591              	.LBB363:
 1592              	.LBB364:
 1593              		.loc 3 546 0
 1594 002a 0023     		movs	r3, #0
 1595              	@ 546 "../../../os/ext/CMSIS/include/core_cmFunc.h" 1
 1596 002c 83F31188 		MSR basepri, r3
 1597              	@ 0 "" 2
 1598              		.thumb
 1599 0030 7047     		bx	lr
 1600              	.L116:
 1601 0032 00BF     		.align	2
 1602              	.L115:
 1603 0034 00800240 		.word	1073905664
 1604              	.LBE364:
 1605              	.LBE363:
 1606              	.LBE362:
 1607              	.LBE361:
 1608              	.LBE360:
 1609              	.LBE359:
 1610              		.cfi_endproc
 1611              	.LFE267:
 1612              		.size	mac_lld_release_receive_descriptor, .-mac_lld_release_receive_descriptor
 1613 0038 AFF30080 		.section	.text.mac_lld_poll_link_status,"ax",%progbits
 1613      AFF30080 
 1614              		.align	2
 1615              		.p2align 4,,15
 1616              		.global	mac_lld_poll_link_status
 1617              		.thumb
 1618              		.thumb_func
 1619              		.type	mac_lld_poll_link_status, %function
 1620              	mac_lld_poll_link_status:
 1621              	.LFB268:
 1622              		.loc 1 573 0
 1623              		.cfi_startproc
 1624              		@ args = 0, pretend = 0, frame = 0
 1625              		@ frame_needed = 0, uses_anonymous_args = 0
 1626              		@ link register save eliminated.
 1627              	.LVL105:
 1628 0000 70B4     		push	{r4, r5, r6}
 1629              		.cfi_def_cfa_offset 12
 1630              		.cfi_offset 4, -12
 1631              		.cfi_offset 5, -8
 1632              		.cfi_offset 6, -4
 1633              		.loc 1 573 0
 1634 0002 0546     		mov	r5, r0
 1635              	.LBB365:
 1636              	.LBB366:
 1637              		.loc 1 114 0
 1638 0004 006A     		ldr	r0, [r0, #32]
 1639              	.LVL106:
 1640              	.LBE366:
 1641              	.LBE365:
ARM GAS  C:\Users\jo\AppData\Local\Temp\ccuwsnwV.s 			page 30


 1642              		.loc 1 576 0
 1643 0006 2649     		ldr	r1, .L142
 1644              	.LBB369:
 1645              	.LBB367:
 1646              		.loc 1 114 0
 1647 0008 40F05106 		orr	r6, r0, #81
 1648              	.LBE367:
 1649              	.LBE369:
 1650              		.loc 1 576 0
 1651 000c 0C68     		ldr	r4, [r1]
 1652              	.LVL107:
 1653              	.LBB370:
 1654              	.LBB368:
 1655              		.loc 1 114 0
 1656 000e 0E61     		str	r6, [r1, #16]
 1657              	.L118:
 1658              		.loc 1 115 0
 1659 0010 0A69     		ldr	r2, [r1, #16]
 1660 0012 234B     		ldr	r3, .L142
 1661 0014 D207     		lsls	r2, r2, #31
 1662 0016 FBD4     		bmi	.L118
 1663              		.loc 1 117 0
 1664 0018 5A69     		ldr	r2, [r3, #20]
 1665              	.LVL108:
 1666              	.LBE368:
 1667              	.LBE370:
 1668              	.LBB371:
 1669              	.LBB372:
 1670              		.loc 1 114 0
 1671 001a 1E61     		str	r6, [r3, #16]
 1672              		.loc 1 115 0
 1673 001c 1A46     		mov	r2, r3
 1674              	.L119:
 1675 001e 1169     		ldr	r1, [r2, #16]
 1676 0020 1F4B     		ldr	r3, .L142
 1677 0022 C907     		lsls	r1, r1, #31
 1678 0024 FBD4     		bmi	.L119
 1679              	.LBE372:
 1680              	.LBE371:
 1681              	.LBB374:
 1682              	.LBB375:
 1683              		.loc 1 114 0
 1684 0026 40F01102 		orr	r2, r0, #17
 1685              	.LBE375:
 1686              	.LBE374:
 1687              	.LBB377:
 1688              	.LBB373:
 1689              		.loc 1 117 0
 1690 002a 5E69     		ldr	r6, [r3, #20]
 1691              	.LVL109:
 1692              	.LBE373:
 1693              	.LBE377:
 1694              	.LBB378:
 1695              	.LBB376:
 1696              		.loc 1 114 0
 1697 002c 1A61     		str	r2, [r3, #16]
 1698              	.L120:
ARM GAS  C:\Users\jo\AppData\Local\Temp\ccuwsnwV.s 			page 31


 1699              		.loc 1 115 0
 1700 002e 1A69     		ldr	r2, [r3, #16]
 1701 0030 1B49     		ldr	r1, .L142
 1702 0032 D207     		lsls	r2, r2, #31
 1703 0034 FBD4     		bmi	.L120
 1704              		.loc 1 117 0
 1705 0036 4B69     		ldr	r3, [r1, #20]
 1706              	.LBE376:
 1707              	.LBE378:
 1708              		.loc 1 584 0
 1709 0038 DA04     		lsls	r2, r3, #19
 1710 003a 07D5     		bpl	.L121
 1711              	.LBB379:
 1712              		.loc 1 588 0
 1713 003c 06F03406 		and	r6, r6, #52
 1714 0040 242E     		cmp	r6, #36
 1715 0042 16D0     		beq	.L122
 1716              	.L129:
 1717              		.loc 1 590 0
 1718 0044 0020     		movs	r0, #0
 1719 0046 2877     		strb	r0, [r5, #28]
 1720              	.LBE379:
 1721              		.loc 1 630 0
 1722 0048 70BC     		pop	{r4, r5, r6}
 1723              		.cfi_remember_state
 1724              		.cfi_restore 6
 1725              		.cfi_restore 5
 1726              		.cfi_restore 4
 1727              		.cfi_def_cfa_offset 0
 1728              	.LVL110:
 1729 004a 7047     		bx	lr
 1730              	.LVL111:
 1731              	.L121:
 1732              		.cfi_restore_state
 1733              		.loc 1 609 0
 1734 004c 7107     		lsls	r1, r6, #29
 1735 004e F9D5     		bpl	.L129
 1736              		.loc 1 613 0
 1737 0050 9A04     		lsls	r2, r3, #18
 1738              		.loc 1 614 0
 1739 0052 4CBF     		ite	mi
 1740 0054 44F48044 		orrmi	r4, r4, #16384
 1741              	.LVL112:
 1742              		.loc 1 616 0
 1743 0058 24F48044 		bicpl	r4, r4, #16384
 1744              	.LVL113:
 1745              		.loc 1 619 0
 1746 005c DB05     		lsls	r3, r3, #23
 1747 005e 1CD4     		bmi	.L141
 1748              	.L132:
 1749              		.loc 1 622 0
 1750 0060 24F40064 		bic	r4, r4, #2048
 1751              	.LVL114:
 1752              	.L128:
 1753              		.loc 1 626 0
 1754 0064 0E4A     		ldr	r2, .L142
 1755              		.loc 1 629 0
ARM GAS  C:\Users\jo\AppData\Local\Temp\ccuwsnwV.s 			page 32


 1756 0066 0123     		movs	r3, #1
 1757              		.loc 1 626 0
 1758 0068 1460     		str	r4, [r2]
 1759              		.loc 1 629 0
 1760 006a 1846     		mov	r0, r3
 1761 006c 2B77     		strb	r3, [r5, #28]
 1762              		.loc 1 630 0
 1763 006e 70BC     		pop	{r4, r5, r6}
 1764              		.cfi_remember_state
 1765              		.cfi_restore 4
 1766              		.cfi_restore 5
 1767              		.cfi_restore 6
 1768              		.cfi_def_cfa_offset 0
 1769              	.LVL115:
 1770 0070 7047     		bx	lr
 1771              	.LVL116:
 1772              	.L122:
 1773              		.cfi_restore_state
 1774              	.LBB382:
 1775              	.LBB380:
 1776              	.LBB381:
 1777              		.loc 1 114 0
 1778 0072 40F4A870 		orr	r0, r0, #336
 1779 0076 40F00100 		orr	r0, r0, #1
 1780 007a 0861     		str	r0, [r1, #16]
 1781              	.L124:
 1782              		.loc 1 115 0
 1783 007c 0B69     		ldr	r3, [r1, #16]
 1784 007e 084A     		ldr	r2, .L142
 1785 0080 D807     		lsls	r0, r3, #31
 1786 0082 FBD4     		bmi	.L124
 1787              		.loc 1 117 0
 1788 0084 5369     		ldr	r3, [r2, #20]
 1789              	.LBE381:
 1790              	.LBE380:
 1791              		.loc 1 596 0
 1792 0086 13F4607F 		tst	r3, #896
 1793              		.loc 1 597 0
 1794 008a 14BF     		ite	ne
 1795 008c 44F48044 		orrne	r4, r4, #16384
 1796              	.LVL117:
 1797              		.loc 1 599 0
 1798 0090 24F48044 		biceq	r4, r4, #16384
 1799              	.LVL118:
 1800              		.loc 1 602 0
 1801 0094 13F4A07F 		tst	r3, #320
 1802 0098 E2D0     		beq	.L132
 1803              	.LVL119:
 1804              	.L141:
 1805              	.LBE382:
 1806              		.loc 1 620 0
 1807 009a 44F40064 		orr	r4, r4, #2048
 1808              	.LVL120:
 1809 009e E1E7     		b	.L128
 1810              	.L143:
 1811              		.align	2
 1812              	.L142:
ARM GAS  C:\Users\jo\AppData\Local\Temp\ccuwsnwV.s 			page 33


 1813 00a0 00800240 		.word	1073905664
 1814              		.cfi_endproc
 1815              	.LFE268:
 1816              		.size	mac_lld_poll_link_status, .-mac_lld_poll_link_status
 1817 00a4 AFF30080 		.section	.text.mac_lld_write_transmit_descriptor,"ax",%progbits
 1817      AFF30080 
 1817      AFF30080 
 1818              		.align	2
 1819              		.p2align 4,,15
 1820              		.global	mac_lld_write_transmit_descriptor
 1821              		.thumb
 1822              		.thumb_func
 1823              		.type	mac_lld_write_transmit_descriptor, %function
 1824              	mac_lld_write_transmit_descriptor:
 1825              	.LFB269:
 1826              		.loc 1 648 0
 1827              		.cfi_startproc
 1828              		@ args = 0, pretend = 0, frame = 0
 1829              		@ frame_needed = 0, uses_anonymous_args = 0
 1830              	.LVL121:
 1831 0000 38B5     		push	{r3, r4, r5, lr}
 1832              		.cfi_def_cfa_offset 16
 1833              		.cfi_offset 3, -16
 1834              		.cfi_offset 4, -12
 1835              		.cfi_offset 5, -8
 1836              		.cfi_offset 14, -4
 1837              		.loc 1 653 0
 1838 0002 90E81800 		ldmia	r0, {r3, r4}
 1839 0006 E41A     		subs	r4, r4, r3
 1840 0008 9442     		cmp	r4, r2
 1841 000a 28BF     		it	cs
 1842 000c 1446     		movcs	r4, r2
 1843              	.LVL122:
 1844              		.loc 1 656 0
 1845 000e 4CB1     		cbz	r4, .L145
 1846              		.loc 1 657 0
 1847 0010 8268     		ldr	r2, [r0, #8]
 1848 0012 0546     		mov	r5, r0
 1849 0014 9068     		ldr	r0, [r2, #8]
 1850              	.LVL123:
 1851 0016 2246     		mov	r2, r4
 1852 0018 1844     		add	r0, r0, r3
 1853 001a FFF7FEFF 		bl	memcpy
 1854              	.LVL124:
 1855              		.loc 1 658 0
 1856 001e 2B68     		ldr	r3, [r5]
 1857 0020 2344     		add	r3, r3, r4
 1858 0022 2B60     		str	r3, [r5]
 1859              	.LVL125:
 1860              	.L145:
 1861              		.loc 1 661 0
 1862 0024 2046     		mov	r0, r4
 1863 0026 38BD     		pop	{r3, r4, r5, pc}
 1864              		.cfi_endproc
 1865              	.LFE269:
 1866              		.size	mac_lld_write_transmit_descriptor, .-mac_lld_write_transmit_descriptor
 1867 0028 AFF30080 		.section	.text.mac_lld_read_receive_descriptor,"ax",%progbits
ARM GAS  C:\Users\jo\AppData\Local\Temp\ccuwsnwV.s 			page 34


 1867      AFF30080 
 1868              		.align	2
 1869              		.p2align 4,,15
 1870              		.global	mac_lld_read_receive_descriptor
 1871              		.thumb
 1872              		.thumb_func
 1873              		.type	mac_lld_read_receive_descriptor, %function
 1874              	mac_lld_read_receive_descriptor:
 1875              	.LFB270:
 1876              		.loc 1 678 0
 1877              		.cfi_startproc
 1878              		@ args = 0, pretend = 0, frame = 0
 1879              		@ frame_needed = 0, uses_anonymous_args = 0
 1880              	.LVL126:
 1881 0000 38B5     		push	{r3, r4, r5, lr}
 1882              		.cfi_def_cfa_offset 16
 1883              		.cfi_offset 3, -16
 1884              		.cfi_offset 4, -12
 1885              		.cfi_offset 5, -8
 1886              		.cfi_offset 14, -4
 1887              		.loc 1 683 0
 1888 0002 90E81800 		ldmia	r0, {r3, r4}
 1889 0006 E41A     		subs	r4, r4, r3
 1890 0008 9442     		cmp	r4, r2
 1891 000a 28BF     		it	cs
 1892 000c 1446     		movcs	r4, r2
 1893              	.LVL127:
 1894              		.loc 1 686 0
 1895 000e 54B1     		cbz	r4, .L151
 1896              		.loc 1 687 0
 1897 0010 8268     		ldr	r2, [r0, #8]
 1898 0012 9268     		ldr	r2, [r2, #8]
 1899 0014 0546     		mov	r5, r0
 1900 0016 0846     		mov	r0, r1
 1901              	.LVL128:
 1902 0018 D118     		adds	r1, r2, r3
 1903              	.LVL129:
 1904 001a 2246     		mov	r2, r4
 1905 001c FFF7FEFF 		bl	memcpy
 1906              	.LVL130:
 1907              		.loc 1 688 0
 1908 0020 2B68     		ldr	r3, [r5]
 1909 0022 2344     		add	r3, r3, r4
 1910 0024 2B60     		str	r3, [r5]
 1911              	.LVL131:
 1912              	.L151:
 1913              		.loc 1 691 0
 1914 0026 2046     		mov	r0, r4
 1915 0028 38BD     		pop	{r3, r4, r5, pc}
 1916              		.cfi_endproc
 1917              	.LFE270:
 1918              		.size	mac_lld_read_receive_descriptor, .-mac_lld_read_receive_descriptor
 1919              		.global	ETHD1
 1920 002a 00BFAFF3 		.section	.rodata.default_mac_address,"a",%progbits
 1920      0080
 1921              		.align	2
 1922              		.set	.LANCHOR5,. + 0
ARM GAS  C:\Users\jo\AppData\Local\Temp\ccuwsnwV.s 			page 35


 1923              		.type	default_mac_address, %object
 1924              		.size	default_mac_address, 6
 1925              	default_mac_address:
 1926 0000 AA       		.byte	-86
 1927 0001 55       		.byte	85
 1928 0002 13       		.byte	19
 1929 0003 37       		.byte	55
 1930 0004 01       		.byte	1
 1931 0005 10       		.byte	16
 1932 0006 0000     		.section	.bss.ETHD1,"aw",%nobits
 1933              		.align	2
 1934              		.set	.LANCHOR0,. + 0
 1935              		.type	ETHD1, %object
 1936              		.size	ETHD1, 44
 1937              	ETHD1:
 1938 0000 00000000 		.space	44
 1938      00000000 
 1938      00000000 
 1938      00000000 
 1938      00000000 
 1939              		.section	.bss.rb,"aw",%nobits
 1940              		.align	2
 1941              		.set	.LANCHOR2,. + 0
 1942              		.type	rb, %object
 1943              		.size	rb, 6096
 1944              	rb:
 1945 0000 00000000 		.space	6096
 1945      00000000 
 1945      00000000 
 1945      00000000 
 1945      00000000 
 1946              		.section	.rodata.str1.4,"aMS",%progbits,1
 1947              		.align	2
 1948              	.LC0:
 1949 0000 25730A00 		.ascii	"%s\012\000"
 1950              	.LC1:
 1951 0004 4E494320 		.ascii	"NIC no link up\000"
 1951      6E6F206C 
 1951      696E6B20 
 1951      757000
 1952 0013 00       		.space	1
 1953              	.LC2:
 1954 0014 4D414320 		.ascii	"MAC failure\000"
 1954      6661696C 
 1954      75726500 
 1955              	.LC3:
 1956 0020 45544844 		.ascii	"ETHD1 %s\012\000"
 1956      31202573 
 1956      0A00
 1957 002a 0000     		.space	2
 1958              	.LC4:
 1959 002c 6D69695F 		.ascii	"mii_find_phy\000"
 1959      66696E64 
 1959      5F706879 
 1959      00
 1960 0039 000000   		.space	3
 1961              	.LC5:
ARM GAS  C:\Users\jo\AppData\Local\Temp\ccuwsnwV.s 			page 36


 1962 003c 424F4152 		.ascii	"BOARD_PHY_RESET_DELAY %d\012\000"
 1962      445F5048 
 1962      595F5245 
 1962      5345545F 
 1962      44454C41 
 1963 0056 0000     		.space	2
 1964              	.LC6:
 1965 0058 4E494320 		.ascii	"NIC clock\000"
 1965      636C6F63 
 1965      6B00
 1966 0062 0000     		.space	2
 1967              	.LC7:
 1968 0064 444D4120 		.ascii	"DMA Settings\000"
 1968      53657474 
 1968      696E6773 
 1968      00
 1969 0071 000000   		.space	3
 1970              	.LC8:
 1971 0074 4649464F 		.ascii	"FIFO FLush\000"
 1971      20464C75 
 1971      736800
 1972 007f 00       		.section	.bss.rd,"aw",%nobits
 1973              		.align	2
 1974              		.set	.LANCHOR1,. + 0
 1975              		.type	rd, %object
 1976              		.size	rd, 64
 1977              	rd:
 1978 0000 00000000 		.space	64
 1978      00000000 
 1978      00000000 
 1978      00000000 
 1978      00000000 
 1979              		.section	.bss.tb,"aw",%nobits
 1980              		.align	2
 1981              		.set	.LANCHOR4,. + 0
 1982              		.type	tb, %object
 1983              		.size	tb, 3048
 1984              	tb:
 1985 0000 00000000 		.space	3048
 1985      00000000 
 1985      00000000 
 1985      00000000 
 1985      00000000 
 1986              		.section	.bss.td,"aw",%nobits
 1987              		.align	2
 1988              		.set	.LANCHOR3,. + 0
 1989              		.type	td, %object
 1990              		.size	td, 32
 1991              	td:
 1992 0000 00000000 		.space	32
 1992      00000000 
 1992      00000000 
 1992      00000000 
 1992      00000000 
 1993              		.text
 1994              	.Letext0:
 1995              		.file 6 "c:\\program files\\gnu tools arm embedded\\4.9 2014q4\\lib\\gcc\\arm-none-eabi\\4.9.3\\in
ARM GAS  C:\Users\jo\AppData\Local\Temp\ccuwsnwV.s 			page 37


 1996              		.file 7 "c:\\program files\\gnu tools arm embedded\\4.9 2014q4\\arm-none-eabi\\include\\machine\\_
 1997              		.file 8 "c:\\program files\\gnu tools arm embedded\\4.9 2014q4\\arm-none-eabi\\include\\stdint.h"
 1998              		.file 9 "../../../os/rt/ports/ARMCMx/compilers/GCC/chtypes.h"
 1999              		.file 10 "../../../os/rt/include/chsystypes.h"
 2000              		.file 11 "../../../os/rt/include/chschd.h"
 2001              		.file 12 "../../../os/ext/CMSIS/include/core_cm4.h"
 2002              		.file 13 "../../../os/ext/CMSIS/ST/stm32f407xx.h"
 2003              		.file 14 "../../../os/rt/ports/ARMCMx/chcore.h"
 2004              		.file 15 "c:\\program files\\gnu tools arm embedded\\4.9 2014q4\\lib\\gcc\\arm-none-eabi\\4.9.3\\i
 2005              		.file 16 "<built-in>"
 2006              		.file 17 "../../../os/rt/include/chtm.h"
 2007              		.file 18 "../../../os/rt/include/chmtx.h"
 2008              		.file 19 "../../../os/rt/include/chevents.h"
 2009              		.file 20 "../../../os/rt/include/chstreams.h"
 2010              		.file 21 "../../../os/hal/include/mac.h"
 2011              		.file 22 "../../../os/hal/ports/STM32/LLD/mac_lld.h"
 2012              		.file 23 "./ITM_trace.h"
 2013              		.file 24 "../../../os/rt/include/chsys.h"
 2014              		.file 25 "../../../os/rt/include/chthreads.h"
 2015              		.file 26 "../../../os/hal/ports/common/ARMCMx/nvic.h"