ARM GAS  C:\Users\jo\AppData\Local\Temp\ccy6Y38c.s 			page 1


   1              		.syntax unified
   2              		.cpu cortex-m4
   3              		.eabi_attribute 27, 3
   4              		.eabi_attribute 28, 1
   5              		.fpu fpv4-sp-d16
   6              		.eabi_attribute 20, 1
   7              		.eabi_attribute 21, 1
   8              		.eabi_attribute 23, 3
   9              		.eabi_attribute 24, 1
  10              		.eabi_attribute 25, 1
  11              		.eabi_attribute 26, 1
  12              		.eabi_attribute 30, 2
  13              		.eabi_attribute 34, 1
  14              		.eabi_attribute 18, 4
  15              		.thumb
  16              		.file	"mb_m.c"
  17              		.text
  18              	.Ltext0:
  19              		.cfi_sections	.debug_frame
  20              		.section	.text.chprintf.constprop.0,"ax",%progbits
  21              		.align	2
  22              		.p2align 4,,15
  23              		.thumb
  24              		.thumb_func
  25              		.type	chprintf.constprop.0, %function
  26              	chprintf.constprop.0:
  27              	.LFB267:
  28              		.file 1 "../../../os/hal/lib/streams/chprintf.h"
  29              		.loc 1 69 0
  30              		.cfi_startproc
  31              		@ args = 4, pretend = 12, frame = 8
  32              		@ frame_needed = 0, uses_anonymous_args = 1
  33              	.LVL0:
  34 0000 0EB4     		push	{r1, r2, r3}
  35              		.cfi_def_cfa_offset 12
  36              		.cfi_offset 1, -12
  37              		.cfi_offset 2, -8
  38              		.cfi_offset 3, -4
  39 0002 00B5     		push	{lr}
  40              		.cfi_def_cfa_offset 16
  41              		.cfi_offset 14, -16
  42 0004 82B0     		sub	sp, sp, #8
  43              		.cfi_def_cfa_offset 24
  44              		.loc 1 73 0
  45 0006 04AB     		add	r3, sp, #16
  46              		.loc 1 74 0
  47 0008 1A46     		mov	r2, r3
  48 000a 0549     		ldr	r1, .L3
  49 000c 0548     		ldr	r0, .L3+4
  50              	.LVL1:
  51              		.loc 1 73 0
  52 000e 0193     		str	r3, [sp, #4]
  53              		.loc 1 74 0
  54 0010 FFF7FEFF 		bl	chvprintf
  55              	.LVL2:
  56              		.loc 1 78 0
  57 0014 02B0     		add	sp, sp, #8
ARM GAS  C:\Users\jo\AppData\Local\Temp\ccy6Y38c.s 			page 2


  58              		.cfi_def_cfa_offset 16
  59              		@ sp needed
  60 0016 5DF804EB 		ldr	lr, [sp], #4
  61              		.cfi_restore 14
  62              		.cfi_def_cfa_offset 12
  63 001a 03B0     		add	sp, sp, #12
  64              		.cfi_restore 3
  65              		.cfi_restore 2
  66              		.cfi_restore 1
  67              		.cfi_def_cfa_offset 0
  68 001c 7047     		bx	lr
  69              	.L4:
  70 001e 00BF     		.align	2
  71              	.L3:
  72 0020 00000000 		.word	.LC0
  73 0024 00000000 		.word	itm_port
  74              		.cfi_endproc
  75              	.LFE267:
  76              		.size	chprintf.constprop.0, .-chprintf.constprop.0
  77 0028 AFF30080 		.section	.text.eMBMasterInit,"ax",%progbits
  77      AFF30080 
  78              		.align	2
  79              		.p2align 4,,15
  80              		.global	eMBMasterInit
  81              		.thumb
  82              		.thumb_func
  83              		.type	eMBMasterInit, %function
  84              	eMBMasterInit:
  85              	.LFB256:
  86              		.file 2 "FreeModbus/modbus/mb_m.c"
  87              		.loc 2 141 0
  88              		.cfi_startproc
  89              		@ args = 0, pretend = 0, frame = 0
  90              		@ frame_needed = 0, uses_anonymous_args = 0
  91              	.LVL3:
  92 0000 2DE9F84F 		push	{r3, r4, r5, r6, r7, r8, r9, r10, fp, lr}
  93              		.cfi_def_cfa_offset 40
  94              		.cfi_offset 3, -40
  95              		.cfi_offset 4, -36
  96              		.cfi_offset 5, -32
  97              		.cfi_offset 6, -28
  98              		.cfi_offset 7, -24
  99              		.cfi_offset 8, -20
 100              		.cfi_offset 9, -16
 101              		.cfi_offset 10, -12
 102              		.cfi_offset 11, -8
 103              		.cfi_offset 14, -4
 104              		.loc 2 144 0
 105 0004 18B1     		cbz	r0, .L14
 106              		.loc 2 175 0
 107 0006 0224     		movs	r4, #2
 108              	.LVL4:
 109              	.L6:
 110              		.loc 2 194 0
 111 0008 2046     		mov	r0, r4
 112 000a BDE8F88F 		pop	{r3, r4, r5, r6, r7, r8, r9, r10, fp, pc}
 113              	.LVL5:
ARM GAS  C:\Users\jo\AppData\Local\Temp\ccy6Y38c.s 			page 3


 114              	.L14:
 115 000e 0446     		mov	r4, r0
 116 0010 0846     		mov	r0, r1
 117              	.LVL6:
 118              		.loc 2 148 0
 119 0012 1E49     		ldr	r1, .L15
 120              	.LVL7:
 121              		.loc 2 149 0
 122 0014 DFF88C90 		ldr	r9, .L15+24
 123              		.loc 2 150 0
 124 0018 DFF88C80 		ldr	r8, .L15+28
 125              		.loc 2 148 0
 126 001c DFF88CB0 		ldr	fp, .L15+32
 127 0020 C1F800B0 		str	fp, [r1]
 128              		.loc 2 151 0
 129 0024 DFF888C0 		ldr	ip, .L15+36
 130              		.loc 2 152 0
 131 0028 DFF888E0 		ldr	lr, .L15+40
 132              		.loc 2 149 0
 133 002c DFF888A0 		ldr	r10, .L15+44
 134              		.loc 2 153 0
 135 0030 174F     		ldr	r7, .L15+4
 136              		.loc 2 154 0
 137 0032 184E     		ldr	r6, .L15+8
 138              		.loc 2 155 0
 139 0034 184D     		ldr	r5, .L15+12
 140              		.loc 2 150 0
 141 0036 DFF884B0 		ldr	fp, .L15+48
 142              		.loc 2 149 0
 143 003a C9F800A0 		str	r10, [r9]
 144              		.loc 2 157 0
 145 003e 1146     		mov	r1, r2
 146              		.loc 2 150 0
 147 0040 C8F800B0 		str	fp, [r8]
 148              		.loc 2 157 0
 149 0044 1A46     		mov	r2, r3
 150              	.LVL8:
 151              		.loc 2 153 0
 152 0046 DFF878A0 		ldr	r10, .L15+52
 153              		.loc 2 151 0
 154 004a 144B     		ldr	r3, .L15+16
 155              	.LVL9:
 156              		.loc 2 154 0
 157 004c DFF87490 		ldr	r9, .L15+56
 158              		.loc 2 155 0
 159 0050 DFF87480 		ldr	r8, .L15+60
 160              		.loc 2 152 0
 161 0054 CEF80040 		str	r4, [lr]
 162              		.loc 2 151 0
 163 0058 CCF80030 		str	r3, [ip]
 164              		.loc 2 153 0
 165 005c C7F800A0 		str	r10, [r7]
 166              		.loc 2 154 0
 167 0060 C6F80090 		str	r9, [r6]
 168              		.loc 2 155 0
 169 0064 C5F80080 		str	r8, [r5]
 170              		.loc 2 157 0
ARM GAS  C:\Users\jo\AppData\Local\Temp\ccy6Y38c.s 			page 4


 171 0068 FFF7FEFF 		bl	eMBMasterRTUInit
 172              	.LVL10:
 173              		.loc 2 179 0
 174 006c 0446     		mov	r4, r0
 175 006e 0028     		cmp	r0, #0
 176 0070 CAD1     		bne	.L6
 177              		.loc 2 181 0
 178 0072 FFF7FEFF 		bl	xMBMasterPortEventInit
 179              	.LVL11:
 180 0076 38B1     		cbz	r0, .L10
 181              		.loc 2 188 0
 182 0078 094B     		ldr	r3, .L15+20
 183 007a 0122     		movs	r2, #1
 184 007c 1A70     		strb	r2, [r3]
 185              	.L8:
 186              	.LVL12:
 187              		.loc 2 191 0
 188 007e FFF7FEFF 		bl	vMBMasterOsResInit
 189              	.LVL13:
 190              		.loc 2 194 0
 191 0082 2046     		mov	r0, r4
 192 0084 BDE8F88F 		pop	{r3, r4, r5, r6, r7, r8, r9, r10, fp, pc}
 193              	.LVL14:
 194              	.L10:
 195              		.loc 2 184 0
 196 0088 0324     		movs	r4, #3
 197 008a F8E7     		b	.L8
 198              	.L16:
 199              		.align	2
 200              	.L15:
 201 008c 00000000 		.word	.LANCHOR0
 202 0090 00000000 		.word	.LANCHOR5
 203 0094 00000000 		.word	.LANCHOR6
 204 0098 00000000 		.word	.LANCHOR7
 205 009c 00000000 		.word	eMBMasterRTUReceive
 206 00a0 00000000 		.word	.LANCHOR8
 207 00a4 00000000 		.word	.LANCHOR1
 208 00a8 00000000 		.word	.LANCHOR2
 209 00ac 00000000 		.word	eMBMasterRTUStart
 210 00b0 00000000 		.word	.LANCHOR3
 211 00b4 00000000 		.word	.LANCHOR4
 212 00b8 00000000 		.word	eMBMasterRTUStop
 213 00bc 00000000 		.word	eMBMasterRTUSend
 214 00c0 00000000 		.word	xMBMasterRTUReceiveFSM
 215 00c4 00000000 		.word	xMBMasterRTUTransmitFSM
 216 00c8 00000000 		.word	xMBMasterRTUTimerExpired
 217              		.cfi_endproc
 218              	.LFE256:
 219              		.size	eMBMasterInit, .-eMBMasterInit
 220 00cc AFF30080 		.section	.text.eMBMasterClose,"ax",%progbits
 221              		.align	2
 222              		.p2align 4,,15
 223              		.global	eMBMasterClose
 224              		.thumb
 225              		.thumb_func
 226              		.type	eMBMasterClose, %function
 227              	eMBMasterClose:
ARM GAS  C:\Users\jo\AppData\Local\Temp\ccy6Y38c.s 			page 5


 228              	.LFB257:
 229              		.loc 2 198 0
 230              		.cfi_startproc
 231              		@ args = 0, pretend = 0, frame = 0
 232              		@ frame_needed = 0, uses_anonymous_args = 0
 233              	.LVL15:
 234 0000 08B5     		push	{r3, lr}
 235              		.cfi_def_cfa_offset 8
 236              		.cfi_offset 3, -8
 237              		.cfi_offset 14, -4
 238              		.loc 2 201 0
 239 0002 064B     		ldr	r3, .L23
 240 0004 1B78     		ldrb	r3, [r3]	@ zero_extendqisi2
 241 0006 012B     		cmp	r3, #1
 242 0008 01D0     		beq	.L22
 243              		.loc 2 210 0
 244 000a 0620     		movs	r0, #6
 245              	.L18:
 246              	.LVL16:
 247              		.loc 2 213 0
 248 000c 08BD     		pop	{r3, pc}
 249              	.LVL17:
 250              	.L22:
 251              		.loc 2 203 0
 252 000e 044B     		ldr	r3, .L23+4
 253 0010 1868     		ldr	r0, [r3]
 254 0012 0028     		cmp	r0, #0
 255 0014 FAD0     		beq	.L18
 256              		.loc 2 205 0
 257 0016 8047     		blx	r0
 258              	.LVL18:
 259              		.loc 2 199 0
 260 0018 0020     		movs	r0, #0
 261 001a 08BD     		pop	{r3, pc}
 262              	.L24:
 263              		.align	2
 264              	.L23:
 265 001c 00000000 		.word	.LANCHOR8
 266 0020 00000000 		.word	.LANCHOR4
 267              		.cfi_endproc
 268              	.LFE257:
 269              		.size	eMBMasterClose, .-eMBMasterClose
 270 0024 AFF30080 		.section	.text.eMBMasterEnable,"ax",%progbits
 270      AFF30080 
 270      AFF30080 
 271              		.align	2
 272              		.p2align 4,,15
 273              		.global	eMBMasterEnable
 274              		.thumb
 275              		.thumb_func
 276              		.type	eMBMasterEnable, %function
 277              	eMBMasterEnable:
 278              	.LFB258:
 279              		.loc 2 217 0
 280              		.cfi_startproc
 281              		@ args = 0, pretend = 0, frame = 0
 282              		@ frame_needed = 0, uses_anonymous_args = 0
ARM GAS  C:\Users\jo\AppData\Local\Temp\ccy6Y38c.s 			page 6


 283              	.LVL19:
 284 0000 10B5     		push	{r4, lr}
 285              		.cfi_def_cfa_offset 8
 286              		.cfi_offset 4, -8
 287              		.cfi_offset 14, -4
 288              		.loc 2 220 0
 289 0002 064C     		ldr	r4, .L30
 290 0004 2378     		ldrb	r3, [r4]	@ zero_extendqisi2
 291 0006 012B     		cmp	r3, #1
 292 0008 01D0     		beq	.L29
 293              		.loc 2 228 0
 294 000a 0620     		movs	r0, #6
 295              	.LVL20:
 296              		.loc 2 231 0
 297 000c 10BD     		pop	{r4, pc}
 298              	.LVL21:
 299              	.L29:
 300              		.loc 2 223 0
 301 000e 044B     		ldr	r3, .L30+4
 302 0010 1B68     		ldr	r3, [r3]
 303 0012 9847     		blx	r3
 304              	.LVL22:
 305              		.loc 2 224 0
 306 0014 0020     		movs	r0, #0
 307 0016 2070     		strb	r0, [r4]
 308 0018 10BD     		pop	{r4, pc}
 309              	.L31:
 310 001a 00BF     		.align	2
 311              	.L30:
 312 001c 00000000 		.word	.LANCHOR8
 313 0020 00000000 		.word	.LANCHOR0
 314              		.cfi_endproc
 315              	.LFE258:
 316              		.size	eMBMasterEnable, .-eMBMasterEnable
 317 0024 AFF30080 		.section	.text.eMBMasterDisable,"ax",%progbits
 317      AFF30080 
 317      AFF30080 
 318              		.align	2
 319              		.p2align 4,,15
 320              		.global	eMBMasterDisable
 321              		.thumb
 322              		.thumb_func
 323              		.type	eMBMasterDisable, %function
 324              	eMBMasterDisable:
 325              	.LFB259:
 326              		.loc 2 235 0
 327              		.cfi_startproc
 328              		@ args = 0, pretend = 0, frame = 0
 329              		@ frame_needed = 0, uses_anonymous_args = 0
 330 0000 38B5     		push	{r3, r4, r5, lr}
 331              		.cfi_def_cfa_offset 16
 332              		.cfi_offset 3, -16
 333              		.cfi_offset 4, -12
 334              		.cfi_offset 5, -8
 335              		.cfi_offset 14, -4
 336              		.loc 2 238 0
 337 0002 074D     		ldr	r5, .L38
ARM GAS  C:\Users\jo\AppData\Local\Temp\ccy6Y38c.s 			page 7


 338 0004 2C78     		ldrb	r4, [r5]	@ zero_extendqisi2
 339 0006 24B1     		cbz	r4, .L37
 340              		.loc 2 244 0
 341 0008 012C     		cmp	r4, #1
 342              		.loc 2 250 0
 343 000a 0CBF     		ite	eq
 344 000c 0020     		moveq	r0, #0
 345 000e 0620     		movne	r0, #6
 346              	.LVL23:
 347              		.loc 2 253 0
 348 0010 38BD     		pop	{r3, r4, r5, pc}
 349              	.LVL24:
 350              	.L37:
 351              		.loc 2 240 0
 352 0012 044B     		ldr	r3, .L38+4
 353 0014 1B68     		ldr	r3, [r3]
 354 0016 9847     		blx	r3
 355              	.LVL25:
 356              		.loc 2 241 0
 357 0018 0123     		movs	r3, #1
 358              		.loc 2 242 0
 359 001a 2046     		mov	r0, r4
 360              		.loc 2 241 0
 361 001c 2B70     		strb	r3, [r5]
 362              	.LVL26:
 363 001e 38BD     		pop	{r3, r4, r5, pc}
 364              	.L39:
 365              		.align	2
 366              	.L38:
 367 0020 00000000 		.word	.LANCHOR8
 368 0024 00000000 		.word	.LANCHOR1
 369              		.cfi_endproc
 370              	.LFE259:
 371              		.size	eMBMasterDisable, .-eMBMasterDisable
 372 0028 AFF30080 		.section	.text.eMBMasterPoll,"ax",%progbits
 372      AFF30080 
 373              		.align	2
 374              		.p2align 4,,15
 375              		.global	eMBMasterPoll
 376              		.thumb
 377              		.thumb_func
 378              		.type	eMBMasterPoll, %function
 379              	eMBMasterPoll:
 380              	.LFB260:
 381              		.loc 2 257 0
 382              		.cfi_startproc
 383              		@ args = 0, pretend = 0, frame = 8
 384              		@ frame_needed = 0, uses_anonymous_args = 0
 385              	.LVL27:
 386 0000 2DE9F04F 		push	{r4, r5, r6, r7, r8, r9, r10, fp, lr}
 387              		.cfi_def_cfa_offset 36
 388              		.cfi_offset 4, -36
 389              		.cfi_offset 5, -32
 390              		.cfi_offset 6, -28
 391              		.cfi_offset 7, -24
 392              		.cfi_offset 8, -20
 393              		.cfi_offset 9, -16
ARM GAS  C:\Users\jo\AppData\Local\Temp\ccy6Y38c.s 			page 8


 394              		.cfi_offset 10, -12
 395              		.cfi_offset 11, -8
 396              		.cfi_offset 14, -4
 397              		.loc 2 270 0
 398 0004 774B     		ldr	r3, .L73
 399 0006 1C78     		ldrb	r4, [r3]	@ zero_extendqisi2
 400              		.loc 2 257 0
 401 0008 83B0     		sub	sp, sp, #12
 402              		.cfi_def_cfa_offset 48
 403              		.loc 2 270 0
 404 000a 1CB1     		cbz	r4, .L68
 405              		.loc 2 272 0
 406 000c 0620     		movs	r0, #6
 407              	.LVL28:
 408              	.L41:
 409              		.loc 2 375 0
 410 000e 03B0     		add	sp, sp, #12
 411              		.cfi_remember_state
 412              		.cfi_def_cfa_offset 36
 413              		@ sp needed
 414 0010 BDE8F08F 		pop	{r4, r5, r6, r7, r8, r9, r10, fp, pc}
 415              	.LVL29:
 416              	.L68:
 417              		.cfi_restore_state
 418              		.loc 2 277 0
 419 0014 0DF10600 		add	r0, sp, #6
 420 0018 FFF7FEFF 		bl	xMBMasterPortEventGet
 421              	.LVL30:
 422 001c 0128     		cmp	r0, #1
 423 001e 03D0     		beq	.L69
 424              	.LVL31:
 425              	.L62:
 426              		.loc 2 374 0
 427 0020 0020     		movs	r0, #0
 428              		.loc 2 375 0
 429 0022 03B0     		add	sp, sp, #12
 430              		.cfi_remember_state
 431              		.cfi_def_cfa_offset 36
 432              		@ sp needed
 433 0024 BDE8F08F 		pop	{r4, r5, r6, r7, r8, r9, r10, fp, pc}
 434              	.LVL32:
 435              	.L69:
 436              		.cfi_restore_state
 437              		.loc 2 279 0
 438 0028 BDF80630 		ldrh	r3, [sp, #6]
 439 002c 023B     		subs	r3, r3, #2
 440 002e 0E2B     		cmp	r3, #14
 441 0030 F6D8     		bhi	.L62
 442 0032 01A2     		adr	r2, .L43
 443 0034 52F823F0 		ldr	pc, [r2, r3, lsl #2]
 444              		.p2align 2
 445              	.L43:
 446 0038 DB000000 		.word	.L42+1
 447 003c 21000000 		.word	.L62+1
 448 0040 9F000000 		.word	.L44+1
 449 0044 21000000 		.word	.L62+1
 450 0048 21000000 		.word	.L62+1
ARM GAS  C:\Users\jo\AppData\Local\Temp\ccy6Y38c.s 			page 9


 451 004c 21000000 		.word	.L62+1
 452 0050 75000000 		.word	.L45+1
 453 0054 21000000 		.word	.L62+1
 454 0058 21000000 		.word	.L62+1
 455 005c 21000000 		.word	.L62+1
 456 0060 21000000 		.word	.L62+1
 457 0064 21000000 		.word	.L62+1
 458 0068 21000000 		.word	.L62+1
 459 006c 21000000 		.word	.L62+1
 460 0070 07010000 		.word	.L46+1
 461              		.p2align 1
 462              	.L45:
 463              		.loc 2 348 0
 464 0074 5C4C     		ldr	r4, .L73+4
 465              		.loc 2 347 0
 466 0076 5D49     		ldr	r1, .L73+8
 467 0078 5D4A     		ldr	r2, .L73+12
 468 007a 5E48     		ldr	r0, .L73+16
 469 007c FFF7FEFF 		bl	chprintf.constprop.0
 470              	.LVL33:
 471              		.loc 2 348 0
 472 0080 2046     		mov	r0, r4
 473 0082 FFF7FEFF 		bl	vMBMasterGetPDUSndBuf
 474              	.LVL34:
 475              	.LBB24:
 476              	.LBB25:
 477              		.loc 2 390 0
 478 0086 5C4A     		ldr	r2, .L73+20
 479              	.LBE25:
 480              	.LBE24:
 481              		.loc 2 349 0
 482 0088 5C4B     		ldr	r3, .L73+24
 483 008a 2568     		ldr	r5, [r4]
 484              	.LBB27:
 485              	.LBB26:
 486              		.loc 2 390 0
 487 008c 1678     		ldrb	r6, [r2]	@ zero_extendqisi2
 488              	.LBE26:
 489              	.LBE27:
 490              		.loc 2 349 0
 491 008e 1C68     		ldr	r4, [r3]
 492 0090 FFF7FEFF 		bl	usMBMasterGetPDUSndLength
 493              	.LVL35:
 494 0094 2946     		mov	r1, r5
 495 0096 0246     		mov	r2, r0
 496 0098 3046     		mov	r0, r6
 497 009a A047     		blx	r4
 498              	.LVL36:
 499 009c C0E7     		b	.L62
 500              	.LVL37:
 501              	.L44:
 502              		.loc 2 299 0
 503 009e 524E     		ldr	r6, .L73+4
 504 00a0 574A     		ldr	r2, .L73+28
 505 00a2 3368     		ldr	r3, [r6]
 506              		.loc 2 300 0
 507 00a4 574D     		ldr	r5, .L73+32
ARM GAS  C:\Users\jo\AppData\Local\Temp\ccy6Y38c.s 			page 10


 508              		.loc 2 299 0
 509 00a6 1978     		ldrb	r1, [r3]	@ zero_extendqisi2
 510 00a8 1170     		strb	r1, [r2]
 511              		.loc 2 300 0
 512 00aa 0122     		movs	r2, #1
 513 00ac 2A70     		strb	r2, [r5]
 514              		.loc 2 302 0
 515 00ae 0A06     		lsls	r2, r1, #24
 516 00b0 43D4     		bmi	.L70
 517 00b2 5548     		ldr	r0, .L73+36
 518 00b4 0023     		movs	r3, #0
 519              	.L48:
 520              	.LVL38:
 521              		.loc 2 310 0
 522 00b6 10F83320 		ldrb	r2, [r0, r3, lsl #3]	@ zero_extendqisi2
 523 00ba 534F     		ldr	r7, .L73+36
 524 00bc DC00     		lsls	r4, r3, #3
 525              		.loc 2 307 0
 526 00be 0133     		adds	r3, r3, #1
 527              	.LVL39:
 528              		.loc 2 310 0
 529 00c0 1AB1     		cbz	r2, .L55
 530              		.loc 2 313 0
 531 00c2 9142     		cmp	r1, r2
 532 00c4 5FD0     		beq	.L71
 533              		.loc 2 307 0 discriminator 2
 534 00c6 102B     		cmp	r3, #16
 535 00c8 F5D1     		bne	.L48
 536              	.LVL40:
 537              	.L55:
 538              	.LBB28:
 539              	.LBB29:
 540              		.loc 2 405 0
 541 00ca 504B     		ldr	r3, .L73+40
 542 00cc 0422     		movs	r2, #4
 543              	.LBE29:
 544              	.LBE28:
 545              		.loc 2 336 0
 546 00ce 1020     		movs	r0, #16
 547              	.LBB31:
 548              	.LBB30:
 549              		.loc 2 405 0
 550 00d0 1A70     		strb	r2, [r3]
 551              	.LBE30:
 552              	.LBE31:
 553              		.loc 2 336 0
 554 00d2 FFF7FEFF 		bl	xMBMasterPortEventPost
 555              	.LVL41:
 556              		.loc 2 374 0
 557 00d6 0020     		movs	r0, #0
 558 00d8 99E7     		b	.L41
 559              	.LVL42:
 560              	.L42:
 561              		.loc 2 285 0
 562 00da 4D4B     		ldr	r3, .L73+44
 563 00dc 4D4D     		ldr	r5, .L73+48
 564 00de 1B68     		ldr	r3, [r3]
ARM GAS  C:\Users\jo\AppData\Local\Temp\ccy6Y38c.s 			page 11


 565 00e0 4149     		ldr	r1, .L73+4
 566 00e2 4D4A     		ldr	r2, .L73+52
 567 00e4 2846     		mov	r0, r5
 568 00e6 9847     		blx	r3
 569              	.LVL43:
 570              		.loc 2 287 0
 571 00e8 0446     		mov	r4, r0
 572 00ea 20B9     		cbnz	r0, .L47
 573              	.LBB32:
 574              	.LBB33:
 575              		.loc 2 390 0
 576 00ec 424B     		ldr	r3, .L73+20
 577              	.LBE33:
 578              	.LBE32:
 579              		.loc 2 287 0
 580 00ee 2A78     		ldrb	r2, [r5]	@ zero_extendqisi2
 581 00f0 1B78     		ldrb	r3, [r3]	@ zero_extendqisi2
 582 00f2 9A42     		cmp	r2, r3
 583 00f4 68D0     		beq	.L72
 584              	.L47:
 585              	.LVL44:
 586              	.LBB34:
 587              	.LBB35:
 588              		.loc 2 405 0
 589 00f6 454B     		ldr	r3, .L73+40
 590 00f8 0222     		movs	r2, #2
 591              	.LBE35:
 592              	.LBE34:
 593              		.loc 2 294 0
 594 00fa 1020     		movs	r0, #16
 595              	.LVL45:
 596              	.LBB37:
 597              	.LBB36:
 598              		.loc 2 405 0
 599 00fc 1A70     		strb	r2, [r3]
 600              	.LBE36:
 601              	.LBE37:
 602              		.loc 2 294 0
 603 00fe FFF7FEFF 		bl	xMBMasterPortEventPost
 604              	.LVL46:
 605              		.loc 2 374 0
 606 0102 0020     		movs	r0, #0
 607 0104 83E7     		b	.L41
 608              	.LVL47:
 609              	.L46:
 610              	.LBB38:
 611              	.LBB39:
 612              		.loc 2 400 0
 613 0106 414B     		ldr	r3, .L73+40
 614              	.LBE39:
 615              	.LBE38:
 616              		.loc 2 355 0
 617 0108 374D     		ldr	r5, .L73+4
 618              	.LBB41:
 619              	.LBB40:
 620              		.loc 2 400 0
 621 010a 1C78     		ldrb	r4, [r3]	@ zero_extendqisi2
ARM GAS  C:\Users\jo\AppData\Local\Temp\ccy6Y38c.s 			page 12


 622              	.LBE40:
 623              	.LBE41:
 624              		.loc 2 355 0
 625 010c 2846     		mov	r0, r5
 626 010e FFF7FEFF 		bl	vMBMasterGetPDUSndBuf
 627              	.LVL48:
 628              		.loc 2 356 0
 629 0112 022C     		cmp	r4, #2
 630 0114 2CD0     		beq	.L57
 631 0116 042C     		cmp	r4, #4
 632 0118 1FD0     		beq	.L58
 633 011a 012C     		cmp	r4, #1
 634 011c 09D1     		bne	.L56
 635              	.LBB42:
 636              	.LBB43:
 637              		.loc 2 390 0
 638 011e 364B     		ldr	r3, .L73+20
 639              	.LBE43:
 640              	.LBE42:
 641              		.loc 2 358 0
 642 0120 2C68     		ldr	r4, [r5]
 643              	.LBB45:
 644              	.LBB44:
 645              		.loc 2 390 0
 646 0122 1D78     		ldrb	r5, [r3]	@ zero_extendqisi2
 647              	.LBE44:
 648              	.LBE45:
 649              		.loc 2 358 0
 650 0124 FFF7FEFF 		bl	usMBMasterGetPDUSndLength
 651              	.LVL49:
 652 0128 2146     		mov	r1, r4
 653 012a 0246     		mov	r2, r0
 654 012c 2846     		mov	r0, r5
 655 012e FFF7FEFF 		bl	vMBMasterErrorCBRespondTimeout
 656              	.LVL50:
 657              	.L56:
 658              		.loc 2 370 0
 659 0132 FFF7FEFF 		bl	vMBMasterRunResRelease
 660              	.LVL51:
 661              		.loc 2 374 0
 662 0136 0020     		movs	r0, #0
 663              		.loc 2 371 0
 664 0138 69E7     		b	.L41
 665              	.L70:
 666              		.loc 2 303 0
 667 013a 5878     		ldrb	r0, [r3, #1]	@ zero_extendqisi2
 668 013c 2870     		strb	r0, [r5]
 669 013e 0446     		mov	r4, r0
 670              	.L49:
 671              		.loc 2 334 0
 672 0140 002C     		cmp	r4, #0
 673 0142 C2D1     		bne	.L55
 674              		.loc 2 339 0
 675 0144 2949     		ldr	r1, .L73+8
 676 0146 354A     		ldr	r2, .L73+56
 677 0148 2A48     		ldr	r0, .L73+16
 678 014a FFF7FEFF 		bl	chprintf.constprop.0
ARM GAS  C:\Users\jo\AppData\Local\Temp\ccy6Y38c.s 			page 13


 679              	.LVL52:
 680              		.loc 2 340 0
 681 014e FFF7FEFF 		bl	vMBMasterCBRequestScuuess
 682              	.LVL53:
 683              		.loc 2 341 0
 684 0152 FFF7FEFF 		bl	vMBMasterRunResRelease
 685              	.LVL54:
 686              		.loc 2 374 0
 687 0156 2046     		mov	r0, r4
 688 0158 59E7     		b	.L41
 689              	.L58:
 690              	.LBB46:
 691              	.LBB47:
 692              		.loc 2 390 0
 693 015a 274B     		ldr	r3, .L73+20
 694              	.LBE47:
 695              	.LBE46:
 696              		.loc 2 366 0
 697 015c 2C68     		ldr	r4, [r5]
 698              	.LBB49:
 699              	.LBB48:
 700              		.loc 2 390 0
 701 015e 1D78     		ldrb	r5, [r3]	@ zero_extendqisi2
 702              	.LBE48:
 703              	.LBE49:
 704              		.loc 2 366 0
 705 0160 FFF7FEFF 		bl	usMBMasterGetPDUSndLength
 706              	.LVL55:
 707 0164 2146     		mov	r1, r4
 708 0166 0246     		mov	r2, r0
 709 0168 2846     		mov	r0, r5
 710 016a FFF7FEFF 		bl	vMBMasterErrorCBExecuteFunction
 711              	.LVL56:
 712              		.loc 2 368 0
 713 016e E0E7     		b	.L56
 714              	.L57:
 715              	.LBB50:
 716              	.LBB51:
 717              		.loc 2 390 0
 718 0170 214B     		ldr	r3, .L73+20
 719              	.LBE51:
 720              	.LBE50:
 721              		.loc 2 362 0
 722 0172 2C68     		ldr	r4, [r5]
 723              	.LBB53:
 724              	.LBB52:
 725              		.loc 2 390 0
 726 0174 1D78     		ldrb	r5, [r3]	@ zero_extendqisi2
 727              	.LBE52:
 728              	.LBE53:
 729              		.loc 2 362 0
 730 0176 FFF7FEFF 		bl	usMBMasterGetPDUSndLength
 731              	.LVL57:
 732 017a 2146     		mov	r1, r4
 733 017c 0246     		mov	r2, r0
 734 017e 2846     		mov	r0, r5
 735 0180 FFF7FEFF 		bl	vMBMasterErrorCBReceiveData
ARM GAS  C:\Users\jo\AppData\Local\Temp\ccy6Y38c.s 			page 14


 736              	.LVL58:
 737              		.loc 2 364 0
 738 0184 D5E7     		b	.L56
 739              	.LVL59:
 740              	.L71:
 741              	.LBB54:
 742              	.LBB55:
 743              		.loc 2 385 0
 744 0186 DFF89880 		ldr	r8, .L73+60
 745 018a 4FF00109 		mov	r9, #1
 746 018e 88F80090 		strb	r9, [r8]
 747              	.LBE55:
 748              	.LBE54:
 749              		.loc 2 318 0
 750 0192 FFF7FEFF 		bl	xMBMasterRequestIsBroadcast
 751              	.LVL60:
 752 0196 E0B1     		cbz	r0, .L52
 753              		.loc 2 319 0
 754 0198 FFF7FEFF 		bl	usMBMasterGetPDUSndLength
 755              	.LVL61:
 756 019c 3C44     		add	r4, r4, r7
 757 019e 1E4B     		ldr	r3, .L73+52
 758 01a0 D4F804B0 		ldr	fp, [r4, #4]
 759 01a4 DFF850A0 		ldr	r10, .L73+20
 760 01a8 1880     		strh	r0, [r3]	@ movhi
 761              	.LVL62:
 762              		.loc 2 320 0
 763 01aa 4F46     		mov	r7, r9
 764              	.LVL63:
 765              	.L53:
 766              		.loc 2 321 0 discriminator 3
 767 01ac 8AF80070 		strb	r7, [r10]
 768              		.loc 2 322 0 discriminator 3
 769 01b0 3068     		ldr	r0, [r6]
 770 01b2 1949     		ldr	r1, .L73+52
 771 01b4 D847     		blx	fp
 772              	.LVL64:
 773              		.loc 2 320 0 discriminator 3
 774 01b6 0137     		adds	r7, r7, #1
 775              	.LVL65:
 776 01b8 112F     		cmp	r7, #17
 777              		.loc 2 322 0 discriminator 3
 778 01ba 0446     		mov	r4, r0
 779 01bc 2870     		strb	r0, [r5]
 780              		.loc 2 320 0 discriminator 3
 781 01be F5D1     		bne	.L53
 782              	.LVL66:
 783              	.L54:
 784              	.LBB56:
 785              	.LBB57:
 786              		.loc 2 385 0
 787 01c0 0023     		movs	r3, #0
 788 01c2 88F80030 		strb	r3, [r8]
 789 01c6 BBE7     		b	.L49
 790              	.LVL67:
 791              	.L72:
 792              	.LBE57:
ARM GAS  C:\Users\jo\AppData\Local\Temp\ccy6Y38c.s 			page 15


 793              	.LBE56:
 794              		.loc 2 289 0
 795 01c8 0420     		movs	r0, #4
 796              	.LVL68:
 797 01ca FFF7FEFF 		bl	xMBMasterPortEventPost
 798              	.LVL69:
 799              		.loc 2 374 0
 800 01ce 2046     		mov	r0, r4
 801              		.loc 2 289 0
 802 01d0 1DE7     		b	.L41
 803              	.LVL70:
 804              	.L52:
 805              		.loc 2 326 0
 806 01d2 3C44     		add	r4, r4, r7
 807 01d4 3068     		ldr	r0, [r6]
 808 01d6 6368     		ldr	r3, [r4, #4]
 809 01d8 0F49     		ldr	r1, .L73+52
 810 01da 9847     		blx	r3
 811              	.LVL71:
 812 01dc 0446     		mov	r4, r0
 813 01de 2870     		strb	r0, [r5]
 814 01e0 EEE7     		b	.L54
 815              	.L74:
 816 01e2 00BF     		.align	2
 817              	.L73:
 818 01e4 00000000 		.word	.LANCHOR8
 819 01e8 00000000 		.word	.LANCHOR10
 820 01ec 00000000 		.word	.LC0
 821 01f0 18000000 		.word	.LC2
 822 01f4 00000000 		.word	itm_port
 823 01f8 00000000 		.word	.LANCHOR12
 824 01fc 00000000 		.word	.LANCHOR2
 825 0200 00000000 		.word	.LANCHOR14
 826 0204 00000000 		.word	.LANCHOR15
 827 0208 00000000 		.word	.LANCHOR16
 828 020c 00000000 		.word	.LANCHOR13
 829 0210 00000000 		.word	.LANCHOR3
 830 0214 00000000 		.word	.LANCHOR9
 831 0218 00000000 		.word	.LANCHOR11
 832 021c 04000000 		.word	.LC1
 833 0220 00000000 		.word	.LANCHOR17
 834              		.cfi_endproc
 835              	.LFE260:
 836              		.size	eMBMasterPoll, .-eMBMasterPoll
 837 0224 AFF30080 		.section	.text.xMBMasterGetCBRunInMasterMode,"ax",%progbits
 837      AFF30080 
 837      AFF30080 
 838              		.align	2
 839              		.p2align 4,,15
 840              		.global	xMBMasterGetCBRunInMasterMode
 841              		.thumb
 842              		.thumb_func
 843              		.type	xMBMasterGetCBRunInMasterMode, %function
 844              	xMBMasterGetCBRunInMasterMode:
 845              	.LFB261:
 846              		.loc 2 379 0
 847              		.cfi_startproc
ARM GAS  C:\Users\jo\AppData\Local\Temp\ccy6Y38c.s 			page 16


 848              		@ args = 0, pretend = 0, frame = 0
 849              		@ frame_needed = 0, uses_anonymous_args = 0
 850              		@ link register save eliminated.
 851              		.loc 2 380 0
 852 0000 014B     		ldr	r3, .L76
 853              		.loc 2 381 0
 854 0002 1878     		ldrb	r0, [r3]	@ zero_extendqisi2
 855 0004 7047     		bx	lr
 856              	.L77:
 857 0006 00BF     		.align	2
 858              	.L76:
 859 0008 00000000 		.word	.LANCHOR17
 860              		.cfi_endproc
 861              	.LFE261:
 862              		.size	xMBMasterGetCBRunInMasterMode, .-xMBMasterGetCBRunInMasterMode
 863 000c AFF30080 		.section	.text.vMBMasterSetCBRunInMasterMode,"ax",%progbits
 864              		.align	2
 865              		.p2align 4,,15
 866              		.global	vMBMasterSetCBRunInMasterMode
 867              		.thumb
 868              		.thumb_func
 869              		.type	vMBMasterSetCBRunInMasterMode, %function
 870              	vMBMasterSetCBRunInMasterMode:
 871              	.LFB262:
 872              		.loc 2 384 0
 873              		.cfi_startproc
 874              		@ args = 0, pretend = 0, frame = 0
 875              		@ frame_needed = 0, uses_anonymous_args = 0
 876              		@ link register save eliminated.
 877              	.LVL72:
 878              		.loc 2 385 0
 879 0000 014B     		ldr	r3, .L79
 880 0002 1870     		strb	r0, [r3]
 881 0004 7047     		bx	lr
 882              	.L80:
 883 0006 00BF     		.align	2
 884              	.L79:
 885 0008 00000000 		.word	.LANCHOR17
 886              		.cfi_endproc
 887              	.LFE262:
 888              		.size	vMBMasterSetCBRunInMasterMode, .-vMBMasterSetCBRunInMasterMode
 889 000c AFF30080 		.section	.text.ucMBMasterGetDestAddress,"ax",%progbits
 890              		.align	2
 891              		.p2align 4,,15
 892              		.global	ucMBMasterGetDestAddress
 893              		.thumb
 894              		.thumb_func
 895              		.type	ucMBMasterGetDestAddress, %function
 896              	ucMBMasterGetDestAddress:
 897              	.LFB263:
 898              		.loc 2 389 0
 899              		.cfi_startproc
 900              		@ args = 0, pretend = 0, frame = 0
 901              		@ frame_needed = 0, uses_anonymous_args = 0
 902              		@ link register save eliminated.
 903              		.loc 2 390 0
 904 0000 014B     		ldr	r3, .L82
ARM GAS  C:\Users\jo\AppData\Local\Temp\ccy6Y38c.s 			page 17


 905              		.loc 2 391 0
 906 0002 1878     		ldrb	r0, [r3]	@ zero_extendqisi2
 907 0004 7047     		bx	lr
 908              	.L83:
 909 0006 00BF     		.align	2
 910              	.L82:
 911 0008 00000000 		.word	.LANCHOR12
 912              		.cfi_endproc
 913              	.LFE263:
 914              		.size	ucMBMasterGetDestAddress, .-ucMBMasterGetDestAddress
 915 000c AFF30080 		.section	.text.vMBMasterSetDestAddress,"ax",%progbits
 916              		.align	2
 917              		.p2align 4,,15
 918              		.global	vMBMasterSetDestAddress
 919              		.thumb
 920              		.thumb_func
 921              		.type	vMBMasterSetDestAddress, %function
 922              	vMBMasterSetDestAddress:
 923              	.LFB264:
 924              		.loc 2 394 0
 925              		.cfi_startproc
 926              		@ args = 0, pretend = 0, frame = 0
 927              		@ frame_needed = 0, uses_anonymous_args = 0
 928              		@ link register save eliminated.
 929              	.LVL73:
 930              		.loc 2 395 0
 931 0000 014B     		ldr	r3, .L85
 932 0002 1870     		strb	r0, [r3]
 933 0004 7047     		bx	lr
 934              	.L86:
 935 0006 00BF     		.align	2
 936              	.L85:
 937 0008 00000000 		.word	.LANCHOR12
 938              		.cfi_endproc
 939              	.LFE264:
 940              		.size	vMBMasterSetDestAddress, .-vMBMasterSetDestAddress
 941 000c AFF30080 		.section	.text.eMBMasterGetErrorType,"ax",%progbits
 942              		.align	2
 943              		.p2align 4,,15
 944              		.global	eMBMasterGetErrorType
 945              		.thumb
 946              		.thumb_func
 947              		.type	eMBMasterGetErrorType, %function
 948              	eMBMasterGetErrorType:
 949              	.LFB265:
 950              		.loc 2 399 0
 951              		.cfi_startproc
 952              		@ args = 0, pretend = 0, frame = 0
 953              		@ frame_needed = 0, uses_anonymous_args = 0
 954              		@ link register save eliminated.
 955              		.loc 2 400 0
 956 0000 014B     		ldr	r3, .L88
 957              		.loc 2 401 0
 958 0002 1878     		ldrb	r0, [r3]	@ zero_extendqisi2
 959 0004 7047     		bx	lr
 960              	.L89:
 961 0006 00BF     		.align	2
ARM GAS  C:\Users\jo\AppData\Local\Temp\ccy6Y38c.s 			page 18


 962              	.L88:
 963 0008 00000000 		.word	.LANCHOR13
 964              		.cfi_endproc
 965              	.LFE265:
 966              		.size	eMBMasterGetErrorType, .-eMBMasterGetErrorType
 967 000c AFF30080 		.section	.text.vMBMasterSetErrorType,"ax",%progbits
 968              		.align	2
 969              		.p2align 4,,15
 970              		.global	vMBMasterSetErrorType
 971              		.thumb
 972              		.thumb_func
 973              		.type	vMBMasterSetErrorType, %function
 974              	vMBMasterSetErrorType:
 975              	.LFB266:
 976              		.loc 2 404 0
 977              		.cfi_startproc
 978              		@ args = 0, pretend = 0, frame = 0
 979              		@ frame_needed = 0, uses_anonymous_args = 0
 980              		@ link register save eliminated.
 981              	.LVL74:
 982              		.loc 2 405 0
 983 0000 014B     		ldr	r3, .L91
 984 0002 1870     		strb	r0, [r3]
 985 0004 7047     		bx	lr
 986              	.L92:
 987 0006 00BF     		.align	2
 988              	.L91:
 989 0008 00000000 		.word	.LANCHOR13
 990              		.cfi_endproc
 991              	.LFE266:
 992              		.size	vMBMasterSetErrorType, .-vMBMasterSetErrorType
 993              		.global	pxMBMasterFrameCBTransmitFSMCur
 994              		.global	pxMBMasterFrameCBReceiveFSMCur
 995              		.global	pxMBMasterPortCBTimerExpired
 996              		.global	pxMBMasterFrameCBTransmitterEmpty
 997              		.global	pxMBMasterFrameCBByteReceived
 998 000c AFF30080 		.section	.bss.pvMBMasterFrameCloseCur,"aw",%nobits
 999              		.align	2
 1000              		.set	.LANCHOR4,. + 0
 1001              		.type	pvMBMasterFrameCloseCur, %object
 1002              		.size	pvMBMasterFrameCloseCur, 4
 1003              	pvMBMasterFrameCloseCur:
 1004 0000 00000000 		.space	4
 1005              		.section	.bss.pxMBMasterFrameCBReceiveFSMCur,"aw",%nobits
 1006              		.align	2
 1007              		.type	pxMBMasterFrameCBReceiveFSMCur, %object
 1008              		.size	pxMBMasterFrameCBReceiveFSMCur, 4
 1009              	pxMBMasterFrameCBReceiveFSMCur:
 1010 0000 00000000 		.space	4
 1011              		.section	.bss.pxMBMasterFrameCBTransmitFSMCur,"aw",%nobits
 1012              		.align	2
 1013              		.type	pxMBMasterFrameCBTransmitFSMCur, %object
 1014              		.size	pxMBMasterFrameCBTransmitFSMCur, 4
 1015              	pxMBMasterFrameCBTransmitFSMCur:
 1016 0000 00000000 		.space	4
 1017              		.section	.bss.pvMBMasterFrameStopCur,"aw",%nobits
 1018              		.align	2
ARM GAS  C:\Users\jo\AppData\Local\Temp\ccy6Y38c.s 			page 19


 1019              		.set	.LANCHOR1,. + 0
 1020              		.type	pvMBMasterFrameStopCur, %object
 1021              		.size	pvMBMasterFrameStopCur, 4
 1022              	pvMBMasterFrameStopCur:
 1023 0000 00000000 		.space	4
 1024              		.section	.bss.ucMBMasterDestAddress,"aw",%nobits
 1025              		.set	.LANCHOR12,. + 0
 1026              		.type	ucMBMasterDestAddress, %object
 1027              		.size	ucMBMasterDestAddress, 1
 1028              	ucMBMasterDestAddress:
 1029 0000 00       		.space	1
 1030              		.section	.bss.xMBRunInMasterMode,"aw",%nobits
 1031              		.set	.LANCHOR17,. + 0
 1032              		.type	xMBRunInMasterMode, %object
 1033              		.size	xMBRunInMasterMode, 1
 1034              	xMBRunInMasterMode:
 1035 0000 00       		.space	1
 1036              		.section	.bss.ucRcvAddress.9307,"aw",%nobits
 1037              		.set	.LANCHOR9,. + 0
 1038              		.type	ucRcvAddress.9307, %object
 1039              		.size	ucRcvAddress.9307, 1
 1040              	ucRcvAddress.9307:
 1041 0000 00       		.space	1
 1042              		.section	.bss.ucFunctionCode.9308,"aw",%nobits
 1043              		.set	.LANCHOR14,. + 0
 1044              		.type	ucFunctionCode.9308, %object
 1045              		.size	ucFunctionCode.9308, 1
 1046              	ucFunctionCode.9308:
 1047 0000 00       		.space	1
 1048              		.section	.bss.pxMBMasterFrameCBByteReceived,"aw",%nobits
 1049              		.align	2
 1050              		.set	.LANCHOR5,. + 0
 1051              		.type	pxMBMasterFrameCBByteReceived, %object
 1052              		.size	pxMBMasterFrameCBByteReceived, 4
 1053              	pxMBMasterFrameCBByteReceived:
 1054 0000 00000000 		.space	4
 1055              		.section	.bss.pvMBMasterFrameStartCur,"aw",%nobits
 1056              		.align	2
 1057              		.set	.LANCHOR0,. + 0
 1058              		.type	pvMBMasterFrameStartCur, %object
 1059              		.size	pvMBMasterFrameStartCur, 4
 1060              	pvMBMasterFrameStartCur:
 1061 0000 00000000 		.space	4
 1062              		.section	.bss.usLength.9309,"aw",%nobits
 1063              		.align	1
 1064              		.set	.LANCHOR11,. + 0
 1065              		.type	usLength.9309, %object
 1066              		.size	usLength.9309, 2
 1067              	usLength.9309:
 1068 0000 0000     		.space	2
 1069              		.section	.bss.ucMBFrame.9306,"aw",%nobits
 1070              		.align	2
 1071              		.set	.LANCHOR10,. + 0
 1072              		.type	ucMBFrame.9306, %object
 1073              		.size	ucMBFrame.9306, 4
 1074              	ucMBFrame.9306:
 1075 0000 00000000 		.space	4
ARM GAS  C:\Users\jo\AppData\Local\Temp\ccy6Y38c.s 			page 20


 1076              		.section	.rodata.str1.4,"aMS",%progbits,1
 1077              		.align	2
 1078              	.LC0:
 1079 0000 25730A00 		.ascii	"%s\012\000"
 1080              	.LC1:
 1081 0004 52656C65 		.ascii	"Release Resource\000"
 1081      61736520 
 1081      5265736F 
 1081      75726365 
 1081      00
 1082 0015 000000   		.space	3
 1083              	.LC2:
 1084 0018 4D617374 		.ascii	"Master is sending\000"
 1084      65722069 
 1084      73207365 
 1084      6E64696E 
 1084      6700
 1085 002a 0000     		.section	.rodata.xMasterFuncHandlers,"a",%progbits
 1086              		.align	2
 1087              		.set	.LANCHOR16,. + 0
 1088              		.type	xMasterFuncHandlers, %object
 1089              		.size	xMasterFuncHandlers, 128
 1090              	xMasterFuncHandlers:
 1091 0000 11       		.byte	17
 1092 0001 000000   		.space	3
 1093 0004 00000000 		.word	eMBFuncReportSlaveID
 1094 0008 04       		.byte	4
 1095 0009 000000   		.space	3
 1096 000c 00000000 		.word	eMBMasterFuncReadInputRegister
 1097 0010 03       		.byte	3
 1098 0011 000000   		.space	3
 1099 0014 00000000 		.word	eMBMasterFuncReadHoldingRegister
 1100 0018 10       		.byte	16
 1101 0019 000000   		.space	3
 1102 001c 00000000 		.word	eMBMasterFuncWriteMultipleHoldingRegister
 1103 0020 06       		.byte	6
 1104 0021 000000   		.space	3
 1105 0024 00000000 		.word	eMBMasterFuncWriteHoldingRegister
 1106 0028 17       		.byte	23
 1107 0029 000000   		.space	3
 1108 002c 00000000 		.word	eMBMasterFuncReadWriteMultipleHoldingRegister
 1109 0030 01       		.byte	1
 1110 0031 000000   		.space	3
 1111 0034 00000000 		.word	eMBMasterFuncReadCoils
 1112 0038 05       		.byte	5
 1113 0039 000000   		.space	3
 1114 003c 00000000 		.word	eMBMasterFuncWriteCoil
 1115 0040 0F       		.byte	15
 1116 0041 000000   		.space	3
 1117 0044 00000000 		.word	eMBMasterFuncWriteMultipleCoils
 1118 0048 02       		.byte	2
 1119 0049 000000   		.space	3
 1120 004c 00000000 		.word	eMBMasterFuncReadDiscreteInputs
 1121 0050 00000000 		.space	48
 1121      00000000 
 1121      00000000 
 1121      00000000 
ARM GAS  C:\Users\jo\AppData\Local\Temp\ccy6Y38c.s 			page 21


 1121      00000000 
 1122              		.section	.bss.eMBMasterCurErrorType,"aw",%nobits
 1123              		.set	.LANCHOR13,. + 0
 1124              		.type	eMBMasterCurErrorType, %object
 1125              		.size	eMBMasterCurErrorType, 1
 1126              	eMBMasterCurErrorType:
 1127 0000 00       		.space	1
 1128              		.section	.bss.pxMBMasterPortCBTimerExpired,"aw",%nobits
 1129              		.align	2
 1130              		.set	.LANCHOR7,. + 0
 1131              		.type	pxMBMasterPortCBTimerExpired, %object
 1132              		.size	pxMBMasterPortCBTimerExpired, 4
 1133              	pxMBMasterPortCBTimerExpired:
 1134 0000 00000000 		.space	4
 1135              		.section	.data.eMBState,"aw",%progbits
 1136              		.set	.LANCHOR8,. + 0
 1137              		.type	eMBState, %object
 1138              		.size	eMBState, 1
 1139              	eMBState:
 1140 0000 02       		.byte	2
 1141              		.section	.bss.pxMBMasterFrameCBTransmitterEmpty,"aw",%nobits
 1142              		.align	2
 1143              		.set	.LANCHOR6,. + 0
 1144              		.type	pxMBMasterFrameCBTransmitterEmpty, %object
 1145              		.size	pxMBMasterFrameCBTransmitterEmpty, 4
 1146              	pxMBMasterFrameCBTransmitterEmpty:
 1147 0000 00000000 		.space	4
 1148              		.section	.bss.peMBMasterFrameReceiveCur,"aw",%nobits
 1149              		.align	2
 1150              		.set	.LANCHOR3,. + 0
 1151              		.type	peMBMasterFrameReceiveCur, %object
 1152              		.size	peMBMasterFrameReceiveCur, 4
 1153              	peMBMasterFrameReceiveCur:
 1154 0000 00000000 		.space	4
 1155              		.section	.bss.eException.9310,"aw",%nobits
 1156              		.set	.LANCHOR15,. + 0
 1157              		.type	eException.9310, %object
 1158              		.size	eException.9310, 1
 1159              	eException.9310:
 1160 0000 00       		.space	1
 1161              		.section	.bss.peMBMasterFrameSendCur,"aw",%nobits
 1162              		.align	2
 1163              		.set	.LANCHOR2,. + 0
 1164              		.type	peMBMasterFrameSendCur, %object
 1165              		.size	peMBMasterFrameSendCur, 4
 1166              	peMBMasterFrameSendCur:
 1167 0000 00000000 		.space	4
 1168              		.text
 1169              	.Letext0:
 1170              		.file 3 "c:\\program files\\gnu tools arm embedded\\4.9 2014q4\\lib\\gcc\\arm-none-eabi\\4.9.3\\in
 1171              		.file 4 "c:\\program files\\gnu tools arm embedded\\4.9 2014q4\\arm-none-eabi\\include\\machine\\_
 1172              		.file 5 "c:\\program files\\gnu tools arm embedded\\4.9 2014q4\\arm-none-eabi\\include\\stdint.h"
 1173              		.file 6 "../../../os/rt/ports/ARMCMx/compilers/GCC/chtypes.h"
 1174              		.file 7 "../../../os/rt/include/chsystypes.h"
 1175              		.file 8 "../../../os/rt/include/chschd.h"
 1176              		.file 9 "../../../os/rt/ports/ARMCMx/chcore.h"
 1177              		.file 10 "../../../os/rt/ports/ARMCMx/chcore_v7m.h"
ARM GAS  C:\Users\jo\AppData\Local\Temp\ccy6Y38c.s 			page 22


 1178              		.file 11 "c:\\program files\\gnu tools arm embedded\\4.9 2014q4\\lib\\gcc\\arm-none-eabi\\4.9.3\\i
 1179              		.file 12 "<built-in>"
 1180              		.file 13 "../../../os/rt/include/chtm.h"
 1181              		.file 14 "../../../os/rt/include/chmtx.h"
 1182              		.file 15 "../../../os/rt/include/chstreams.h"
 1183              		.file 16 "./ITM_trace.h"
 1184              		.file 17 "FreeModbus/port/port.h"
 1185              		.file 18 "FreeModbus/modbus/include/mbport.h"
 1186              		.file 19 "FreeModbus/modbus/include/mbproto.h"
 1187              		.file 20 "FreeModbus/modbus/include/mb.h"
 1188              		.file 21 "FreeModbus/modbus/include/mbframe.h"
 1189              		.file 22 "../../../os/ext/CMSIS/include/core_cm4.h"
 1190              		.file 23 "FreeModbus/modbus/rtu/mbrtu.h"
 1191              		.file 24 "FreeModbus/modbus/include/mb_m.h"