ARM GAS  C:\Users\jo\AppData\Local\Temp\ccFR9nyO.s 			page 1


   1              		.syntax unified
   2              		.cpu cortex-m4
   3              		.eabi_attribute 27, 3
   4              		.eabi_attribute 28, 1
   5              		.fpu fpv4-sp-d16
   6              		.eabi_attribute 20, 1
   7              		.eabi_attribute 21, 1
   8              		.eabi_attribute 23, 3
   9              		.eabi_attribute 24, 1
  10              		.eabi_attribute 25, 1
  11              		.eabi_attribute 26, 1
  12              		.eabi_attribute 30, 2
  13              		.eabi_attribute 34, 1
  14              		.eabi_attribute 18, 4
  15              		.thumb
  16              		.file	"mbfuncholding_m.c"
  17              		.text
  18              	.Ltext0:
  19              		.cfi_sections	.debug_frame
  20              		.section	.text.chprintf.constprop.0,"ax",%progbits
  21              		.align	2
  22              		.p2align 4,,15
  23              		.thumb
  24              		.thumb_func
  25              		.type	chprintf.constprop.0, %function
  26              	chprintf.constprop.0:
  27              	.LFB264:
  28              		.file 1 "../../../os/hal/lib/streams/chprintf.h"
  29              		.loc 1 69 0
  30              		.cfi_startproc
  31              		@ args = 4, pretend = 12, frame = 8
  32              		@ frame_needed = 0, uses_anonymous_args = 1
  33              	.LVL0:
  34 0000 0EB4     		push	{r1, r2, r3}
  35              		.cfi_def_cfa_offset 12
  36              		.cfi_offset 1, -12
  37              		.cfi_offset 2, -8
  38              		.cfi_offset 3, -4
  39 0002 00B5     		push	{lr}
  40              		.cfi_def_cfa_offset 16
  41              		.cfi_offset 14, -16
  42 0004 82B0     		sub	sp, sp, #8
  43              		.cfi_def_cfa_offset 24
  44              		.loc 1 73 0
  45 0006 04AB     		add	r3, sp, #16
  46              		.loc 1 74 0
  47 0008 1A46     		mov	r2, r3
  48 000a 0549     		ldr	r1, .L3
  49 000c 0548     		ldr	r0, .L3+4
  50              	.LVL1:
  51              		.loc 1 73 0
  52 000e 0193     		str	r3, [sp, #4]
  53              		.loc 1 74 0
  54 0010 FFF7FEFF 		bl	chvprintf
  55              	.LVL2:
  56              		.loc 1 78 0
  57 0014 02B0     		add	sp, sp, #8
ARM GAS  C:\Users\jo\AppData\Local\Temp\ccFR9nyO.s 			page 2


  58              		.cfi_def_cfa_offset 16
  59              		@ sp needed
  60 0016 5DF804EB 		ldr	lr, [sp], #4
  61              		.cfi_restore 14
  62              		.cfi_def_cfa_offset 12
  63 001a 03B0     		add	sp, sp, #12
  64              		.cfi_restore 3
  65              		.cfi_restore 2
  66              		.cfi_restore 1
  67              		.cfi_def_cfa_offset 0
  68 001c 7047     		bx	lr
  69              	.L4:
  70 001e 00BF     		.align	2
  71              	.L3:
  72 0020 00000000 		.word	.LC0
  73 0024 00000000 		.word	itm_port
  74              		.cfi_endproc
  75              	.LFE264:
  76              		.size	chprintf.constprop.0, .-chprintf.constprop.0
  77 0028 AFF30080 		.section	.text.eMBMasterReqWriteHoldingRegister,"ax",%progbits
  77      AFF30080 
  78              		.align	2
  79              		.p2align 4,,15
  80              		.global	eMBMasterReqWriteHoldingRegister
  81              		.thumb
  82              		.thumb_func
  83              		.type	eMBMasterReqWriteHoldingRegister, %function
  84              	eMBMasterReqWriteHoldingRegister:
  85              	.LFB256:
  86              		.file 2 "FreeModbus/modbus/functions/mbfuncholding_m.c"
  87              		.loc 2 109 0
  88              		.cfi_startproc
  89              		@ args = 0, pretend = 0, frame = 16
  90              		@ frame_needed = 0, uses_anonymous_args = 0
  91              	.LVL3:
  92 0000 10B5     		push	{r4, lr}
  93              		.cfi_def_cfa_offset 8
  94              		.cfi_offset 4, -8
  95              		.cfi_offset 14, -4
  96              		.loc 2 115 0
  97 0002 1028     		cmp	r0, #16
  98              		.loc 2 109 0
  99 0004 84B0     		sub	sp, sp, #16
 100              		.cfi_def_cfa_offset 24
 101              		.loc 2 109 0
 102 0006 0446     		mov	r4, r0
 103              		.loc 2 115 0
 104 0008 02D9     		bls	.L11
 105 000a 0220     		movs	r0, #2
 106              	.LVL4:
 107              	.L6:
 108              		.loc 2 131 0
 109 000c 04B0     		add	sp, sp, #16
 110              		.cfi_remember_state
 111              		.cfi_def_cfa_offset 8
 112              		@ sp needed
 113 000e 10BD     		pop	{r4, pc}
ARM GAS  C:\Users\jo\AppData\Local\Temp\ccFR9nyO.s 			page 3


 114              	.LVL5:
 115              	.L11:
 116              		.cfi_restore_state
 117              		.loc 2 116 0
 118 0010 1846     		mov	r0, r3
 119              	.LVL6:
 120 0012 8DE80600 		stmia	sp, {r1, r2}
 121 0016 FFF7FEFF 		bl	xMBMasterRunResTake
 122              	.LVL7:
 123 001a 10B9     		cbnz	r0, .L12
 124 001c 0520     		movs	r0, #5
 125              	.LVL8:
 126              		.loc 2 131 0
 127 001e 04B0     		add	sp, sp, #16
 128              		.cfi_remember_state
 129              		.cfi_def_cfa_offset 8
 130              		@ sp needed
 131 0020 10BD     		pop	{r4, pc}
 132              	.LVL9:
 133              	.L12:
 134              		.cfi_restore_state
 135              		.loc 2 119 0
 136 0022 03A8     		add	r0, sp, #12
 137 0024 FFF7FEFF 		bl	vMBMasterGetPDUSndBuf
 138              	.LVL10:
 139              		.loc 2 120 0
 140 0028 2046     		mov	r0, r4
 141 002a FFF7FEFF 		bl	vMBMasterSetDestAddress
 142              	.LVL11:
 143              		.loc 2 121 0
 144 002e 039B     		ldr	r3, [sp, #12]
 145              		.loc 2 122 0
 146 0030 0099     		ldr	r1, [sp]
 147              		.loc 2 124 0
 148 0032 019A     		ldr	r2, [sp, #4]
 149              		.loc 2 121 0
 150 0034 0620     		movs	r0, #6
 151 0036 1870     		strb	r0, [r3]
 152              		.loc 2 122 0
 153 0038 039B     		ldr	r3, [sp, #12]
 154 003a 080A     		lsrs	r0, r1, #8
 155 003c 5870     		strb	r0, [r3, #1]
 156              		.loc 2 123 0
 157 003e 039B     		ldr	r3, [sp, #12]
 158 0040 9970     		strb	r1, [r3, #2]
 159              		.loc 2 124 0
 160 0042 039B     		ldr	r3, [sp, #12]
 161 0044 110A     		lsrs	r1, r2, #8
 162 0046 D970     		strb	r1, [r3, #3]
 163              		.loc 2 125 0
 164 0048 039B     		ldr	r3, [sp, #12]
 165              		.loc 2 126 0
 166 004a 0520     		movs	r0, #5
 167              		.loc 2 125 0
 168 004c 1A71     		strb	r2, [r3, #4]
 169              		.loc 2 126 0
 170 004e FFF7FEFF 		bl	vMBMasterSetPDUSndLength
ARM GAS  C:\Users\jo\AppData\Local\Temp\ccFR9nyO.s 			page 4


 171              	.LVL12:
 172              		.loc 2 127 0
 173 0052 0820     		movs	r0, #8
 174 0054 FFF7FEFF 		bl	xMBMasterPortEventPost
 175              	.LVL13:
 176              		.loc 2 128 0
 177 0058 FFF7FEFF 		bl	eMBMasterWaitRequestFinish
 178              	.LVL14:
 179 005c D6E7     		b	.L6
 180              		.cfi_endproc
 181              	.LFE256:
 182              		.size	eMBMasterReqWriteHoldingRegister, .-eMBMasterReqWriteHoldingRegister
 183 005e 00BF     		.section	.text.eMBMasterFuncWriteHoldingRegister,"ax",%progbits
 184              		.align	2
 185              		.p2align 4,,15
 186              		.global	eMBMasterFuncWriteHoldingRegister
 187              		.thumb
 188              		.thumb_func
 189              		.type	eMBMasterFuncWriteHoldingRegister, %function
 190              	eMBMasterFuncWriteHoldingRegister:
 191              	.LFB257:
 192              		.loc 2 135 0
 193              		.cfi_startproc
 194              		@ args = 0, pretend = 0, frame = 0
 195              		@ frame_needed = 0, uses_anonymous_args = 0
 196              	.LVL15:
 197 0000 08B5     		push	{r3, lr}
 198              		.cfi_def_cfa_offset 8
 199              		.cfi_offset 3, -8
 200              		.cfi_offset 14, -4
 201              		.loc 2 140 0
 202 0002 0B88     		ldrh	r3, [r1]
 203 0004 052B     		cmp	r3, #5
 204 0006 01D0     		beq	.L18
 205              		.loc 2 159 0
 206 0008 0320     		movs	r0, #3
 207              	.LVL16:
 208 000a 08BD     		pop	{r3, pc}
 209              	.LVL17:
 210              	.L18:
 211              		.loc 2 143 0
 212 000c 8378     		ldrb	r3, [r0, #2]	@ zero_extendqisi2
 213              		.loc 2 142 0
 214 000e 4178     		ldrb	r1, [r0, #1]	@ zero_extendqisi2
 215              	.LVL18:
 216              		.loc 2 143 0
 217 0010 43EA0121 		orr	r1, r3, r1, lsl #8
 218              	.LVL19:
 219              		.loc 2 144 0
 220 0014 0131     		adds	r1, r1, #1
 221              	.LVL20:
 222              		.loc 2 147 0
 223 0016 0122     		movs	r2, #1
 224 0018 89B2     		uxth	r1, r1
 225              	.LVL21:
 226 001a 0330     		adds	r0, r0, #3
 227              	.LVL22:
ARM GAS  C:\Users\jo\AppData\Local\Temp\ccFR9nyO.s 			page 5


 228 001c 1346     		mov	r3, r2
 229              	.LVL23:
 230 001e FFF7FEFF 		bl	eMBMasterRegHoldingCB
 231              	.LVL24:
 232              		.loc 2 151 0
 233 0022 00B9     		cbnz	r0, .L19
 234              	.LVL25:
 235              		.loc 2 162 0
 236 0024 08BD     		pop	{r3, pc}
 237              	.LVL26:
 238              	.L19:
 239 0026 BDE80840 		pop	{r3, lr}
 240              		.cfi_restore 14
 241              		.cfi_restore 3
 242              		.cfi_def_cfa_offset 0
 243              		.loc 2 153 0
 244 002a FFF7FEBF 		b	prveMBError2Exception
 245              	.LVL27:
 246              		.cfi_endproc
 247              	.LFE257:
 248              		.size	eMBMasterFuncWriteHoldingRegister, .-eMBMasterFuncWriteHoldingRegister
 249 002e 00BF     		.section	.text.eMBMasterReqWriteMultipleHoldingRegister,"ax",%progbits
 250              		.align	2
 251              		.p2align 4,,15
 252              		.global	eMBMasterReqWriteMultipleHoldingRegister
 253              		.thumb
 254              		.thumb_func
 255              		.type	eMBMasterReqWriteMultipleHoldingRegister, %function
 256              	eMBMasterReqWriteMultipleHoldingRegister:
 257              	.LFB258:
 258              		.loc 2 181 0
 259              		.cfi_startproc
 260              		@ args = 4, pretend = 0, frame = 24
 261              		@ frame_needed = 0, uses_anonymous_args = 0
 262              	.LVL28:
 263 0000 30B5     		push	{r4, r5, lr}
 264              		.cfi_def_cfa_offset 12
 265              		.cfi_offset 4, -12
 266              		.cfi_offset 5, -8
 267              		.cfi_offset 14, -4
 268              		.loc 2 186 0
 269 0002 1028     		cmp	r0, #16
 270              		.loc 2 181 0
 271 0004 87B0     		sub	sp, sp, #28
 272              		.cfi_def_cfa_offset 40
 273              		.loc 2 181 0
 274 0006 0446     		mov	r4, r0
 275              		.loc 2 186 0
 276 0008 02D9     		bls	.L28
 277 000a 0220     		movs	r0, #2
 278              	.LVL29:
 279              	.L21:
 280              		.loc 2 209 0
 281 000c 07B0     		add	sp, sp, #28
 282              		.cfi_remember_state
 283              		.cfi_def_cfa_offset 12
 284              		@ sp needed
ARM GAS  C:\Users\jo\AppData\Local\Temp\ccFR9nyO.s 			page 6


 285 000e 30BD     		pop	{r4, r5, pc}
 286              	.LVL30:
 287              	.L28:
 288              		.cfi_restore_state
 289              		.loc 2 187 0
 290 0010 0A98     		ldr	r0, [sp, #40]
 291              	.LVL31:
 292 0012 0393     		str	r3, [sp, #12]
 293 0014 0292     		str	r2, [sp, #8]
 294 0016 0191     		str	r1, [sp, #4]
 295 0018 FFF7FEFF 		bl	xMBMasterRunResTake
 296              	.LVL32:
 297 001c 10B9     		cbnz	r0, .L29
 298 001e 0520     		movs	r0, #5
 299              	.LVL33:
 300              		.loc 2 209 0
 301 0020 07B0     		add	sp, sp, #28
 302              		.cfi_remember_state
 303              		.cfi_def_cfa_offset 12
 304              		@ sp needed
 305 0022 30BD     		pop	{r4, r5, pc}
 306              	.LVL34:
 307              	.L29:
 308              		.cfi_restore_state
 309              		.loc 2 190 0
 310 0024 05A8     		add	r0, sp, #20
 311 0026 FFF7FEFF 		bl	vMBMasterGetPDUSndBuf
 312              	.LVL35:
 313              		.loc 2 191 0
 314 002a 2046     		mov	r0, r4
 315 002c FFF7FEFF 		bl	vMBMasterSetDestAddress
 316              	.LVL36:
 317              		.loc 2 192 0
 318 0030 0598     		ldr	r0, [sp, #20]
 319              		.loc 2 193 0
 320 0032 0199     		ldr	r1, [sp, #4]
 321              		.loc 2 195 0
 322 0034 029A     		ldr	r2, [sp, #8]
 323              		.loc 2 199 0
 324 0036 039B     		ldr	r3, [sp, #12]
 325              		.loc 2 192 0
 326 0038 1024     		movs	r4, #16
 327 003a 0470     		strb	r4, [r0]
 328              		.loc 2 193 0
 329 003c 0598     		ldr	r0, [sp, #20]
 330 003e 0C0A     		lsrs	r4, r1, #8
 331 0040 4470     		strb	r4, [r0, #1]
 332              		.loc 2 194 0
 333 0042 0598     		ldr	r0, [sp, #20]
 334 0044 8170     		strb	r1, [r0, #2]
 335              		.loc 2 195 0
 336 0046 0599     		ldr	r1, [sp, #20]
 337 0048 100A     		lsrs	r0, r2, #8
 338 004a C870     		strb	r0, [r1, #3]
 339              		.loc 2 196 0
 340 004c 0599     		ldr	r1, [sp, #20]
 341              		.loc 2 197 0
ARM GAS  C:\Users\jo\AppData\Local\Temp\ccFR9nyO.s 			page 7


 342 004e 5400     		lsls	r4, r2, #1
 343              		.loc 2 198 0
 344 0050 881D     		adds	r0, r1, #6
 345              		.loc 2 196 0
 346 0052 0A71     		strb	r2, [r1, #4]
 347              		.loc 2 197 0
 348 0054 4C71     		strb	r4, [r1, #5]
 349              		.loc 2 198 0
 350 0056 0590     		str	r0, [sp, #20]
 351              		.loc 2 199 0
 352 0058 9AB1     		cbz	r2, .L23
 353 005a 551E     		subs	r5, r2, #1
 354 005c ADB2     		uxth	r5, r5
 355 005e 03EB4505 		add	r5, r3, r5, lsl #1
 356 0062 023B     		subs	r3, r3, #2
 357 0064 00E0     		b	.L24
 358              	.LVL37:
 359              	.L30:
 360 0066 0598     		ldr	r0, [sp, #20]
 361              	.L24:
 362              		.loc 2 201 0
 363 0068 33F8021F 		ldrh	r1, [r3, #2]!
 364 006c 441C     		adds	r4, r0, #1
 365 006e 090A     		lsrs	r1, r1, #8
 366 0070 0594     		str	r4, [sp, #20]
 367 0072 0170     		strb	r1, [r0]
 368              		.loc 2 202 0
 369 0074 0599     		ldr	r1, [sp, #20]
 370 0076 1888     		ldrh	r0, [r3]
 371 0078 4C1C     		adds	r4, r1, #1
 372              		.loc 2 199 0
 373 007a AB42     		cmp	r3, r5
 374              		.loc 2 202 0
 375 007c 0594     		str	r4, [sp, #20]
 376 007e 0870     		strb	r0, [r1]
 377              		.loc 2 199 0
 378 0080 F1D1     		bne	.L30
 379              	.L23:
 380              		.loc 2 204 0
 381 0082 D01C     		adds	r0, r2, #3
 382 0084 4000     		lsls	r0, r0, #1
 383 0086 80B2     		uxth	r0, r0
 384 0088 FFF7FEFF 		bl	vMBMasterSetPDUSndLength
 385              	.LVL38:
 386              		.loc 2 205 0
 387 008c 0820     		movs	r0, #8
 388 008e FFF7FEFF 		bl	xMBMasterPortEventPost
 389              	.LVL39:
 390              		.loc 2 206 0
 391 0092 FFF7FEFF 		bl	eMBMasterWaitRequestFinish
 392              	.LVL40:
 393 0096 B9E7     		b	.L21
 394              		.cfi_endproc
 395              	.LFE258:
 396              		.size	eMBMasterReqWriteMultipleHoldingRegister, .-eMBMasterReqWriteMultipleHoldingRegister
 397              		.section	.text.eMBMasterFuncWriteMultipleHoldingRegister,"ax",%progbits
 398              		.align	2
ARM GAS  C:\Users\jo\AppData\Local\Temp\ccFR9nyO.s 			page 8


 399              		.p2align 4,,15
 400              		.global	eMBMasterFuncWriteMultipleHoldingRegister
 401              		.thumb
 402              		.thumb_func
 403              		.type	eMBMasterFuncWriteMultipleHoldingRegister, %function
 404              	eMBMasterFuncWriteMultipleHoldingRegister:
 405              	.LFB259:
 406              		.loc 2 213 0
 407              		.cfi_startproc
 408              		@ args = 0, pretend = 0, frame = 8
 409              		@ frame_needed = 0, uses_anonymous_args = 0
 410              	.LVL41:
 411 0000 30B5     		push	{r4, r5, lr}
 412              		.cfi_def_cfa_offset 12
 413              		.cfi_offset 4, -12
 414              		.cfi_offset 5, -8
 415              		.cfi_offset 14, -4
 416              		.loc 2 223 0
 417 0002 0B88     		ldrh	r3, [r1]
 418 0004 052B     		cmp	r3, #5
 419              		.loc 2 213 0
 420 0006 83B0     		sub	sp, sp, #12
 421              		.cfi_def_cfa_offset 24
 422              		.loc 2 223 0
 423 0008 05D0     		beq	.L35
 424              		.loc 2 223 0 is_stmt 0 discriminator 1
 425 000a FFF7FEFF 		bl	xMBMasterRequestIsBroadcast
 426              	.LVL42:
 427 000e 10B9     		cbnz	r0, .L35
 428              	.L34:
 429              		.loc 2 256 0 is_stmt 1
 430 0010 0320     		movs	r0, #3
 431              	.LVL43:
 432              	.L36:
 433              		.loc 2 259 0
 434 0012 03B0     		add	sp, sp, #12
 435              		.cfi_remember_state
 436              		.cfi_def_cfa_offset 12
 437              		@ sp needed
 438 0014 30BD     		pop	{r4, r5, pc}
 439              	.LVL44:
 440              	.L35:
 441              		.cfi_restore_state
 442              		.loc 2 225 0
 443 0016 01A8     		add	r0, sp, #4
 444 0018 FFF7FEFF 		bl	vMBMasterGetPDUSndBuf
 445              	.LVL45:
 446              		.loc 2 226 0
 447 001c 0198     		ldr	r0, [sp, #4]
 448              		.loc 2 230 0
 449 001e C278     		ldrb	r2, [r0, #3]	@ zero_extendqisi2
 450              		.loc 2 231 0
 451 0020 0379     		ldrb	r3, [r0, #4]	@ zero_extendqisi2
 452              		.loc 2 235 0
 453 0022 4179     		ldrb	r1, [r0, #5]	@ zero_extendqisi2
 454              		.loc 2 226 0
 455 0024 4578     		ldrb	r5, [r0, #1]	@ zero_extendqisi2
ARM GAS  C:\Users\jo\AppData\Local\Temp\ccFR9nyO.s 			page 9


 456              	.LVL46:
 457              		.loc 2 227 0
 458 0026 8478     		ldrb	r4, [r0, #2]	@ zero_extendqisi2
 459              	.LVL47:
 460              		.loc 2 231 0
 461 0028 43EA0222 		orr	r2, r3, r2, lsl #8
 462              	.LVL48:
 463              		.loc 2 235 0
 464 002c B1EB420F 		cmp	r1, r2, lsl #1
 465 0030 EED1     		bne	.L34
 466              		.loc 2 227 0
 467 0032 44EA0521 		orr	r1, r4, r5, lsl #8
 468              		.loc 2 228 0
 469 0036 0131     		adds	r1, r1, #1
 470              		.loc 2 238 0
 471 0038 89B2     		uxth	r1, r1
 472 003a 0630     		adds	r0, r0, #6
 473              	.LVL49:
 474 003c 0123     		movs	r3, #1
 475 003e FFF7FEFF 		bl	eMBMasterRegHoldingCB
 476              	.LVL50:
 477              		.loc 2 243 0
 478 0042 00B9     		cbnz	r0, .L40
 479 0044 E5E7     		b	.L36
 480              	.L40:
 481              		.loc 2 245 0
 482 0046 FFF7FEFF 		bl	prveMBError2Exception
 483              	.LVL51:
 484 004a E2E7     		b	.L36
 485              		.cfi_endproc
 486              	.LFE259:
 487              		.size	eMBMasterFuncWriteMultipleHoldingRegister, .-eMBMasterFuncWriteMultipleHoldingRegister
 488 004c AFF30080 		.section	.text.eMBMasterReqReadHoldingRegister,"ax",%progbits
 489              		.align	2
 490              		.p2align 4,,15
 491              		.global	eMBMasterReqReadHoldingRegister
 492              		.thumb
 493              		.thumb_func
 494              		.type	eMBMasterReqReadHoldingRegister, %function
 495              	eMBMasterReqReadHoldingRegister:
 496              	.LFB260:
 497              		.loc 2 276 0
 498              		.cfi_startproc
 499              		@ args = 0, pretend = 0, frame = 32
 500              		@ frame_needed = 0, uses_anonymous_args = 0
 501              	.LVL52:
 502 0000 2DE9F04F 		push	{r4, r5, r6, r7, r8, r9, r10, fp, lr}
 503              		.cfi_def_cfa_offset 36
 504              		.cfi_offset 4, -36
 505              		.cfi_offset 5, -32
 506              		.cfi_offset 6, -28
 507              		.cfi_offset 7, -24
 508              		.cfi_offset 8, -20
 509              		.cfi_offset 9, -16
 510              		.cfi_offset 10, -12
 511              		.cfi_offset 11, -8
 512              		.cfi_offset 14, -4
ARM GAS  C:\Users\jo\AppData\Local\Temp\ccFR9nyO.s 			page 10


 513 0004 0746     		mov	r7, r0
 514 0006 8DB0     		sub	sp, sp, #52
 515              		.cfi_def_cfa_offset 88
 516              		.loc 2 280 0
 517 0008 1846     		mov	r0, r3
 518              	.LVL53:
 519              		.loc 2 276 0
 520 000a 8946     		mov	r9, r1
 521 000c 9046     		mov	r8, r2
 522 000e 9B46     		mov	fp, r3
 523              		.loc 2 280 0
 524 0010 FFF7FEFF 		bl	xMBMasterRunResTake
 525              	.LVL54:
 526 0014 324B     		ldr	r3, .L50
 527 0016 334A     		ldr	r2, .L50+4
 528 0018 3349     		ldr	r1, .L50+8
 529              		.loc 2 282 0
 530 001a 344D     		ldr	r5, .L50+12
 531 001c 344E     		ldr	r6, .L50+16
 532              		.loc 2 280 0
 533 001e 0028     		cmp	r0, #0
 534 0020 18BF     		it	ne
 535 0022 1A46     		movne	r2, r3
 536 0024 3348     		ldr	r0, .L50+20
 537 0026 FFF7FEFF 		bl	chprintf.constprop.0
 538              	.LVL55:
 539              		.loc 2 282 0
 540 002a DFF8D0E0 		ldr	lr, .L50+28
 541 002e ADF82890 		strh	r9, [sp, #40]	@ movhi
 542 0032 BEF80030 		ldrh	r3, [lr]
 543 0036 ADF82430 		strh	r3, [sp, #36]	@ movhi
 544 003a 0024     		movs	r4, #0
 545 003c 4FF0030A 		mov	r10, #3
 546 0040 ADF82A80 		strh	r8, [sp, #42]	@ movhi
 547 0044 8DF826A0 		strb	r10, [sp, #38]
 548 0048 8DF82C40 		strb	r4, [sp, #44]
 549 004c 8DF82D40 		strb	r4, [sp, #45]
 550 0050 0CAA     		add	r2, sp, #48
 551 0052 12E90700 		ldmdb	r2, {r0, r1, r2}
 552 0056 B5F800C0 		ldrh	ip, [r5]
 553 005a 0796     		str	r6, [sp, #28]
 554 005c 8DE80700 		stmia	sp, {r0, r1, r2}
 555 0060 0125     		movs	r5, #1
 556 0062 8DF82050 		strb	r5, [sp, #32]
 557 0066 8DF81870 		strb	r7, [sp, #24]
 558 006a ADF822C0 		strh	ip, [sp, #34]	@ movhi
 559 006e 5D19     		adds	r5, r3, r5
 560 0070 06AE     		add	r6, sp, #24
 561 0072 96E80E00 		ldmia	r6, {r1, r2, r3}
 562 0076 2048     		ldr	r0, .L50+24
 563 0078 AEF80050 		strh	r5, [lr]	@ movhi
 564 007c FFF7FEFF 		bl	populate
 565              	.LVL56:
 566              		.loc 2 284 0
 567 0080 102F     		cmp	r7, #16
 568 0082 03D9     		bls	.L48
 569 0084 0220     		movs	r0, #2
ARM GAS  C:\Users\jo\AppData\Local\Temp\ccFR9nyO.s 			page 11


 570              	.L43:
 571              	.LVL57:
 572              		.loc 2 301 0
 573 0086 0DB0     		add	sp, sp, #52
 574              		.cfi_remember_state
 575              		.cfi_def_cfa_offset 36
 576              		@ sp needed
 577 0088 BDE8F08F 		pop	{r4, r5, r6, r7, r8, r9, r10, fp, pc}
 578              	.LVL58:
 579              	.L48:
 580              		.cfi_restore_state
 581              		.loc 2 285 0
 582 008c 5846     		mov	r0, fp
 583 008e FFF7FEFF 		bl	xMBMasterRunResTake
 584              	.LVL59:
 585 0092 18B9     		cbnz	r0, .L49
 586 0094 0520     		movs	r0, #5
 587              	.LVL60:
 588              		.loc 2 301 0
 589 0096 0DB0     		add	sp, sp, #52
 590              		.cfi_remember_state
 591              		.cfi_def_cfa_offset 36
 592              		@ sp needed
 593 0098 BDE8F08F 		pop	{r4, r5, r6, r7, r8, r9, r10, fp, pc}
 594              	.LVL61:
 595              	.L49:
 596              		.cfi_restore_state
 597              		.loc 2 288 0
 598 009c 05A8     		add	r0, sp, #20
 599 009e FFF7FEFF 		bl	vMBMasterGetPDUSndBuf
 600              	.LVL62:
 601              		.loc 2 289 0
 602 00a2 3846     		mov	r0, r7
 603 00a4 FFF7FEFF 		bl	vMBMasterSetDestAddress
 604              	.LVL63:
 605              		.loc 2 290 0
 606 00a8 059B     		ldr	r3, [sp, #20]
 607 00aa 83F800A0 		strb	r10, [r3]
 608              		.loc 2 291 0
 609 00ae 059B     		ldr	r3, [sp, #20]
 610 00b0 4FEA1922 		lsr	r2, r9, #8
 611 00b4 5A70     		strb	r2, [r3, #1]
 612              		.loc 2 292 0
 613 00b6 059B     		ldr	r3, [sp, #20]
 614 00b8 83F80290 		strb	r9, [r3, #2]
 615              		.loc 2 293 0
 616 00bc 059B     		ldr	r3, [sp, #20]
 617 00be 4FEA1822 		lsr	r2, r8, #8
 618 00c2 DA70     		strb	r2, [r3, #3]
 619              		.loc 2 294 0
 620 00c4 059B     		ldr	r3, [sp, #20]
 621              		.loc 2 295 0
 622 00c6 0520     		movs	r0, #5
 623              		.loc 2 294 0
 624 00c8 83F80480 		strb	r8, [r3, #4]
 625              		.loc 2 295 0
 626 00cc FFF7FEFF 		bl	vMBMasterSetPDUSndLength
ARM GAS  C:\Users\jo\AppData\Local\Temp\ccFR9nyO.s 			page 12


 627              	.LVL64:
 628              		.loc 2 296 0
 629 00d0 0820     		movs	r0, #8
 630 00d2 FFF7FEFF 		bl	xMBMasterPortEventPost
 631              	.LVL65:
 632              		.loc 2 297 0
 633 00d6 FFF7FEFF 		bl	xMBMasterRunResLock
 634              	.LVL66:
 635              		.loc 2 278 0
 636 00da 2046     		mov	r0, r4
 637 00dc D3E7     		b	.L43
 638              	.L51:
 639 00de 00BF     		.align	2
 640              	.L50:
 641 00e0 14000000 		.word	.LC1
 642 00e4 1C000000 		.word	.LC2
 643 00e8 00000000 		.word	.LC0
 644 00ec 00000000 		.word	.LANCHOR0
 645 00f0 24000000 		.word	.LC3
 646 00f4 00000000 		.word	itm_port
 647 00f8 00000000 		.word	list_RTC
 648 00fc 00000000 		.word	.LANCHOR1
 649              		.cfi_endproc
 650              	.LFE260:
 651              		.size	eMBMasterReqReadHoldingRegister, .-eMBMasterReqReadHoldingRegister
 652              		.section	.text.eMBMasterFuncReadHoldingRegister,"ax",%progbits
 653              		.align	2
 654              		.p2align 4,,15
 655              		.global	eMBMasterFuncReadHoldingRegister
 656              		.thumb
 657              		.thumb_func
 658              		.type	eMBMasterFuncReadHoldingRegister, %function
 659              	eMBMasterFuncReadHoldingRegister:
 660              	.LFB261:
 661              		.loc 2 305 0
 662              		.cfi_startproc
 663              		@ args = 0, pretend = 0, frame = 80
 664              		@ frame_needed = 0, uses_anonymous_args = 0
 665              	.LVL67:
 666 0000 2DE9F04F 		push	{r4, r5, r6, r7, r8, r9, r10, fp, lr}
 667              		.cfi_def_cfa_offset 36
 668              		.cfi_offset 4, -36
 669              		.cfi_offset 5, -32
 670              		.cfi_offset 6, -28
 671              		.cfi_offset 7, -24
 672              		.cfi_offset 8, -20
 673              		.cfi_offset 9, -16
 674              		.cfi_offset 10, -12
 675              		.cfi_offset 11, -8
 676              		.cfi_offset 14, -4
 677 0004 99B0     		sub	sp, sp, #100
 678              		.cfi_def_cfa_offset 136
 679              		.loc 2 305 0
 680 0006 0546     		mov	r5, r0
 681 0008 0C46     		mov	r4, r1
 682              		.loc 2 314 0
 683 000a FFF7FEFF 		bl	xMBMasterRequestIsBroadcast
ARM GAS  C:\Users\jo\AppData\Local\Temp\ccFR9nyO.s 			page 13


 684              	.LVL68:
 685 000e 0646     		mov	r6, r0
 686 0010 0028     		cmp	r0, #0
 687 0012 45D1     		bne	.L57
 688              		.loc 2 318 0
 689 0014 2288     		ldrh	r2, [r4]
 690 0016 012A     		cmp	r2, #1
 691 0018 04D8     		bhi	.L68
 692              		.loc 2 354 0
 693 001a 0324     		movs	r4, #3
 694              	.LVL69:
 695              	.L54:
 696              		.loc 2 357 0
 697 001c 2046     		mov	r0, r4
 698 001e 19B0     		add	sp, sp, #100
 699              		.cfi_remember_state
 700              		.cfi_def_cfa_offset 36
 701              		@ sp needed
 702 0020 BDE8F08F 		pop	{r4, r5, r6, r7, r8, r9, r10, fp, pc}
 703              	.LVL70:
 704              	.L68:
 705              		.cfi_restore_state
 706              		.loc 2 320 0
 707 0024 05A8     		add	r0, sp, #20
 708 0026 FFF7FEFF 		bl	vMBMasterGetPDUSndBuf
 709              	.LVL71:
 710              		.loc 2 321 0
 711 002a 0599     		ldr	r1, [sp, #20]
 712 002c 4B78     		ldrb	r3, [r1, #1]	@ zero_extendqisi2
 713              	.LVL72:
 714              		.loc 2 322 0
 715 002e 8A78     		ldrb	r2, [r1, #2]	@ zero_extendqisi2
 716              		.loc 2 325 0
 717 0030 C878     		ldrb	r0, [r1, #3]	@ zero_extendqisi2
 718              		.loc 2 326 0
 719 0032 0979     		ldrb	r1, [r1, #4]	@ zero_extendqisi2
 720              		.loc 2 322 0
 721 0034 42EA0322 		orr	r2, r2, r3, lsl #8
 722              	.LVL73:
 723              		.loc 2 323 0
 724 0038 0132     		adds	r2, r2, #1
 725              	.LVL74:
 726              		.loc 2 331 0
 727 003a 51EA0028 		orrs	r8, r1, r0, lsl #8
 728              		.loc 2 323 0
 729 003e 97B2     		uxth	r7, r2
 730              	.LVL75:
 731              		.loc 2 331 0
 732 0040 03D0     		beq	.L55
 733              		.loc 2 331 0 is_stmt 0 discriminator 1
 734 0042 6B78     		ldrb	r3, [r5, #1]	@ zero_extendqisi2
 735 0044 B3EB480F 		cmp	r3, r8, lsl #1
 736 0048 2FD0     		beq	.L69
 737              	.L55:
 738              	.LVL76:
 739              		.loc 2 348 0 is_stmt 1
 740 004a FFF7FEFF 		bl	ucMBMasterGetDestAddress
ARM GAS  C:\Users\jo\AppData\Local\Temp\ccFR9nyO.s 			page 14


 741              	.LVL77:
 742 004e 4D4B     		ldr	r3, .L70
 743 0050 ADF85870 		strh	r7, [sp, #88]	@ movhi
 744 0054 1A88     		ldrh	r2, [r3]
 745 0056 ADF85A80 		strh	r8, [sp, #90]	@ movhi
 746 005a 0023     		movs	r3, #0
 747 005c 8DF85C30 		strb	r3, [sp, #92]
 748 0060 8DF85D30 		strb	r3, [sp, #93]
 749 0064 484B     		ldr	r3, .L70+4
 750 0066 ADF85420 		strh	r2, [sp, #84]	@ movhi
 751 006a 1B88     		ldrh	r3, [r3]
 752 006c ADF85230 		strh	r3, [sp, #82]	@ movhi
 753 0070 0324     		movs	r4, #3
 754              	.LVL78:
 755 0072 8DF85640 		strb	r4, [sp, #86]
 756 0076 18AB     		add	r3, sp, #96
 757 0078 8DF84800 		strb	r0, [sp, #72]
 758 007c 13E90700 		ldmdb	r3, {r0, r1, r2}
 759 0080 8DE80700 		stmia	sp, {r0, r1, r2}
 760 0084 414D     		ldr	r5, .L70+8
 761              	.LVL79:
 762 0086 1395     		str	r5, [sp, #76]
 763 0088 0123     		movs	r3, #1
 764 008a 8DF85030 		strb	r3, [sp, #80]
 765 008e 12AB     		add	r3, sp, #72
 766 0090 0ECB     		ldmia	r3, {r1, r2, r3}
 767 0092 3F48     		ldr	r0, .L70+12
 768 0094 FFF7FEFF 		bl	populate
 769              	.LVL80:
 770              		.loc 2 357 0
 771 0098 2046     		mov	r0, r4
 772 009a 19B0     		add	sp, sp, #100
 773              		.cfi_remember_state
 774              		.cfi_def_cfa_offset 36
 775              		@ sp needed
 776 009c BDE8F08F 		pop	{r4, r5, r6, r7, r8, r9, r10, fp, pc}
 777              	.LVL81:
 778              	.L57:
 779              		.cfi_restore_state
 780              		.loc 2 316 0
 781 00a0 0024     		movs	r4, #0
 782              	.LVL82:
 783              		.loc 2 357 0
 784 00a2 2046     		mov	r0, r4
 785 00a4 19B0     		add	sp, sp, #100
 786              		.cfi_remember_state
 787              		.cfi_def_cfa_offset 36
 788              		@ sp needed
 789 00a6 BDE8F08F 		pop	{r4, r5, r6, r7, r8, r9, r10, fp, pc}
 790              	.LVL83:
 791              	.L69:
 792              		.cfi_restore_state
 793              		.loc 2 334 0
 794 00aa 3346     		mov	r3, r6
 795 00ac 3946     		mov	r1, r7
 796              	.LVL84:
 797 00ae 4246     		mov	r2, r8
ARM GAS  C:\Users\jo\AppData\Local\Temp\ccFR9nyO.s 			page 15


 798 00b0 A81C     		adds	r0, r5, #2
 799              	.LVL85:
 800 00b2 FFF7FEFF 		bl	eMBMasterRegHoldingCB
 801              	.LVL86:
 802 00b6 0446     		mov	r4, r0
 803              	.LVL87:
 804              		.loc 2 335 0
 805 00b8 FFF7FEFF 		bl	eMBMasterGetErrorType
 806              	.LVL88:
 807 00bc DFF8C8B0 		ldr	fp, .L70+4
 808              		.loc 2 337 0
 809 00c0 DFF8C090 		ldr	r9, .L70
 810 00c4 DFF8C0A0 		ldr	r10, .L70+4
 811              		.loc 2 335 0
 812 00c8 0128     		cmp	r0, #1
 813 00ca 08BF     		it	eq
 814 00cc BBF80030 		ldrheq	r3, [fp]
 815              		.loc 2 336 0
 816 00d0 4FF00000 		mov	r0, #0
 817              		.loc 2 335 0
 818 00d4 04BF     		itt	eq
 819 00d6 0133     		addeq	r3, r3, #1
 820 00d8 ABF80030 		strheq	r3, [fp]	@ movhi
 821              		.loc 2 336 0
 822 00dc FFF7FEFF 		bl	vMBMasterSetErrorType
 823              	.LVL89:
 824              		.loc 2 337 0
 825 00e0 FFF7FEFF 		bl	ucMBMasterGetDestAddress
 826              	.LVL90:
 827 00e4 0025     		movs	r5, #0
 828              	.LVL91:
 829 00e6 B9F80030 		ldrh	r3, [r9]
 830 00ea ADF82430 		strh	r3, [sp, #36]	@ movhi
 831 00ee 0326     		movs	r6, #3
 832 00f0 09AB     		add	r3, sp, #36
 833 00f2 ADF82870 		strh	r7, [sp, #40]	@ movhi
 834 00f6 ADF82A80 		strh	r8, [sp, #42]	@ movhi
 835 00fa 8DF82C50 		strb	r5, [sp, #44]
 836 00fe 8DF82D50 		strb	r5, [sp, #45]
 837 0102 8DF82660 		strb	r6, [sp, #38]
 838 0106 8DF81800 		strb	r0, [sp, #24]
 839 010a 93E80700 		ldmia	r3, {r0, r1, r2}
 840 010e 8DE80700 		stmia	sp, {r0, r1, r2}
 841 0112 204B     		ldr	r3, .L70+16
 842 0114 BBF800E0 		ldrh	lr, [fp]
 843 0118 0793     		str	r3, [sp, #28]
 844 011a ADF822E0 		strh	lr, [sp, #34]	@ movhi
 845 011e 8DF82050 		strb	r5, [sp, #32]
 846 0122 06AB     		add	r3, sp, #24
 847 0124 0ECB     		ldmia	r3, {r1, r2, r3}
 848 0126 1A48     		ldr	r0, .L70+12
 849 0128 FFF7FEFF 		bl	populate
 850              	.LVL92:
 851              		.loc 2 339 0
 852 012c 002C     		cmp	r4, #0
 853 012e B7D0     		beq	.L57
 854              		.loc 2 341 0
ARM GAS  C:\Users\jo\AppData\Local\Temp\ccFR9nyO.s 			page 16


 855 0130 2046     		mov	r0, r4
 856 0132 FFF7FEFF 		bl	prveMBError2Exception
 857              	.LVL93:
 858 0136 0446     		mov	r4, r0
 859              	.LVL94:
 860              		.loc 2 342 0
 861 0138 FFF7FEFF 		bl	ucMBMasterGetDestAddress
 862              	.LVL95:
 863 013c B9F80030 		ldrh	r3, [r9]
 864 0140 ADF83C30 		strh	r3, [sp, #60]	@ movhi
 865 0144 8DF84450 		strb	r5, [sp, #68]
 866 0148 8DF84550 		strb	r5, [sp, #69]
 867 014c 8DF83E60 		strb	r6, [sp, #62]
 868 0150 ADF84070 		strh	r7, [sp, #64]	@ movhi
 869 0154 ADF84280 		strh	r8, [sp, #66]	@ movhi
 870 0158 0FAB     		add	r3, sp, #60
 871 015a 8DF83000 		strb	r0, [sp, #48]
 872 015e 93E80700 		ldmia	r3, {r0, r1, r2}
 873 0162 8DE80700 		stmia	sp, {r0, r1, r2}
 874 0166 BAF80030 		ldrh	r3, [r10]
 875 016a ADF83A30 		strh	r3, [sp, #58]	@ movhi
 876 016e 0A4D     		ldr	r5, .L70+20
 877 0170 0D95     		str	r5, [sp, #52]
 878 0172 0123     		movs	r3, #1
 879 0174 8DF83830 		strb	r3, [sp, #56]
 880 0178 0CAB     		add	r3, sp, #48
 881 017a 0ECB     		ldmia	r3, {r1, r2, r3}
 882 017c 0448     		ldr	r0, .L70+12
 883 017e FFF7FEFF 		bl	populate
 884              	.LVL96:
 885 0182 4BE7     		b	.L54
 886              	.L71:
 887              		.align	2
 888              	.L70:
 889 0184 00000000 		.word	.LANCHOR1
 890 0188 00000000 		.word	.LANCHOR0
 891 018c 30000000 		.word	.LC5
 892 0190 00000000 		.word	list_RTC
 893 0194 24000000 		.word	.LC3
 894 0198 28000000 		.word	.LC4
 895              		.cfi_endproc
 896              	.LFE261:
 897              		.size	eMBMasterFuncReadHoldingRegister, .-eMBMasterFuncReadHoldingRegister
 898 019c AFF30080 		.section	.text.eMBMasterReqReadWriteMultipleHoldingRegister,"ax",%progbits
 899              		.align	2
 900              		.p2align 4,,15
 901              		.global	eMBMasterReqReadWriteMultipleHoldingRegister
 902              		.thumb
 903              		.thumb_func
 904              		.type	eMBMasterReqReadWriteMultipleHoldingRegister, %function
 905              	eMBMasterReqReadWriteMultipleHoldingRegister:
 906              	.LFB262:
 907              		.loc 2 380 0
 908              		.cfi_startproc
 909              		@ args = 12, pretend = 0, frame = 24
 910              		@ frame_needed = 0, uses_anonymous_args = 0
 911              	.LVL97:
ARM GAS  C:\Users\jo\AppData\Local\Temp\ccFR9nyO.s 			page 17


 912 0000 F0B5     		push	{r4, r5, r6, r7, lr}
 913              		.cfi_def_cfa_offset 20
 914              		.cfi_offset 4, -20
 915              		.cfi_offset 5, -16
 916              		.cfi_offset 6, -12
 917              		.cfi_offset 7, -8
 918              		.cfi_offset 14, -4
 919 0002 87B0     		sub	sp, sp, #28
 920              		.cfi_def_cfa_offset 48
 921              		.loc 2 385 0
 922 0004 1028     		cmp	r0, #16
 923              		.loc 2 380 0
 924 0006 0446     		mov	r4, r0
 925 0008 BDF83060 		ldrh	r6, [sp, #48]
 926 000c BDF83450 		ldrh	r5, [sp, #52]
 927              		.loc 2 385 0
 928 0010 02D9     		bls	.L80
 929 0012 0220     		movs	r0, #2
 930              	.LVL98:
 931              	.L73:
 932              		.loc 2 412 0
 933 0014 07B0     		add	sp, sp, #28
 934              		.cfi_remember_state
 935              		.cfi_def_cfa_offset 20
 936              		@ sp needed
 937 0016 F0BD     		pop	{r4, r5, r6, r7, pc}
 938              	.LVL99:
 939              	.L80:
 940              		.cfi_restore_state
 941              		.loc 2 386 0
 942 0018 0E98     		ldr	r0, [sp, #56]
 943              	.LVL100:
 944 001a 0393     		str	r3, [sp, #12]
 945 001c 0292     		str	r2, [sp, #8]
 946 001e 0191     		str	r1, [sp, #4]
 947 0020 FFF7FEFF 		bl	xMBMasterRunResTake
 948              	.LVL101:
 949 0024 10B9     		cbnz	r0, .L81
 950 0026 0520     		movs	r0, #5
 951              	.LVL102:
 952              		.loc 2 412 0
 953 0028 07B0     		add	sp, sp, #28
 954              		.cfi_remember_state
 955              		.cfi_def_cfa_offset 20
 956              		@ sp needed
 957 002a F0BD     		pop	{r4, r5, r6, r7, pc}
 958              	.LVL103:
 959              	.L81:
 960              		.cfi_restore_state
 961              		.loc 2 389 0
 962 002c 05A8     		add	r0, sp, #20
 963 002e FFF7FEFF 		bl	vMBMasterGetPDUSndBuf
 964              	.LVL104:
 965              		.loc 2 390 0
 966 0032 2046     		mov	r0, r4
 967 0034 FFF7FEFF 		bl	vMBMasterSetDestAddress
 968              	.LVL105:
ARM GAS  C:\Users\jo\AppData\Local\Temp\ccFR9nyO.s 			page 18


 969              		.loc 2 391 0
 970 0038 0598     		ldr	r0, [sp, #20]
 971              		.loc 2 392 0
 972 003a 0199     		ldr	r1, [sp, #4]
 973              		.loc 2 394 0
 974 003c 029A     		ldr	r2, [sp, #8]
 975              		.loc 2 402 0
 976 003e 039B     		ldr	r3, [sp, #12]
 977              		.loc 2 391 0
 978 0040 1724     		movs	r4, #23
 979 0042 0470     		strb	r4, [r0]
 980              		.loc 2 392 0
 981 0044 0598     		ldr	r0, [sp, #20]
 982 0046 0C0A     		lsrs	r4, r1, #8
 983 0048 4470     		strb	r4, [r0, #1]
 984              		.loc 2 393 0
 985 004a 0598     		ldr	r0, [sp, #20]
 986 004c 8170     		strb	r1, [r0, #2]
 987              		.loc 2 394 0
 988 004e 0599     		ldr	r1, [sp, #20]
 989 0050 100A     		lsrs	r0, r2, #8
 990 0052 C870     		strb	r0, [r1, #3]
 991              		.loc 2 395 0
 992 0054 0598     		ldr	r0, [sp, #20]
 993              		.loc 2 396 0
 994 0056 4FEA162E 		lsr	lr, r6, #8
 995              		.loc 2 398 0
 996 005a 2F0A     		lsrs	r7, r5, #8
 997              		.loc 2 400 0
 998 005c 6C00     		lsls	r4, r5, #1
 999              		.loc 2 401 0
 1000 005e 00F10A01 		add	r1, r0, #10
 1001              		.loc 2 395 0
 1002 0062 0271     		strb	r2, [r0, #4]
 1003              		.loc 2 397 0
 1004 0064 8671     		strb	r6, [r0, #6]
 1005              		.loc 2 399 0
 1006 0066 0572     		strb	r5, [r0, #8]
 1007              		.loc 2 396 0
 1008 0068 80F805E0 		strb	lr, [r0, #5]
 1009              		.loc 2 398 0
 1010 006c C771     		strb	r7, [r0, #7]
 1011              		.loc 2 400 0
 1012 006e 4472     		strb	r4, [r0, #9]
 1013              		.loc 2 401 0
 1014 0070 0591     		str	r1, [sp, #20]
 1015              		.loc 2 402 0
 1016 0072 9DB1     		cbz	r5, .L75
 1017 0074 6C1E     		subs	r4, r5, #1
 1018 0076 A4B2     		uxth	r4, r4
 1019 0078 03EB4404 		add	r4, r3, r4, lsl #1
 1020 007c 023B     		subs	r3, r3, #2
 1021 007e 00E0     		b	.L76
 1022              	.LVL106:
 1023              	.L82:
 1024 0080 0599     		ldr	r1, [sp, #20]
 1025              	.L76:
ARM GAS  C:\Users\jo\AppData\Local\Temp\ccFR9nyO.s 			page 19


 1026              		.loc 2 404 0
 1027 0082 33F8022F 		ldrh	r2, [r3, #2]!
 1028 0086 481C     		adds	r0, r1, #1
 1029 0088 120A     		lsrs	r2, r2, #8
 1030 008a 0590     		str	r0, [sp, #20]
 1031 008c 0A70     		strb	r2, [r1]
 1032              		.loc 2 405 0
 1033 008e 059A     		ldr	r2, [sp, #20]
 1034 0090 1988     		ldrh	r1, [r3]
 1035 0092 501C     		adds	r0, r2, #1
 1036              		.loc 2 402 0
 1037 0094 A342     		cmp	r3, r4
 1038              		.loc 2 405 0
 1039 0096 0590     		str	r0, [sp, #20]
 1040 0098 1170     		strb	r1, [r2]
 1041              		.loc 2 402 0
 1042 009a F1D1     		bne	.L82
 1043              	.L75:
 1044              		.loc 2 407 0
 1045 009c 681D     		adds	r0, r5, #5
 1046 009e 4000     		lsls	r0, r0, #1
 1047 00a0 80B2     		uxth	r0, r0
 1048 00a2 FFF7FEFF 		bl	vMBMasterSetPDUSndLength
 1049              	.LVL107:
 1050              		.loc 2 408 0
 1051 00a6 0820     		movs	r0, #8
 1052 00a8 FFF7FEFF 		bl	xMBMasterPortEventPost
 1053              	.LVL108:
 1054              		.loc 2 409 0
 1055 00ac FFF7FEFF 		bl	eMBMasterWaitRequestFinish
 1056              	.LVL109:
 1057 00b0 B0E7     		b	.L73
 1058              		.cfi_endproc
 1059              	.LFE262:
 1060              		.size	eMBMasterReqReadWriteMultipleHoldingRegister, .-eMBMasterReqReadWriteMultipleHoldingRegister
 1061 00b2 00BFAFF3 		.section	.text.eMBMasterFuncReadWriteMultipleHoldingRegister,"ax",%progbits
 1061      0080AFF3 
 1061      0080AFF3 
 1061      0080
 1062              		.align	2
 1063              		.p2align 4,,15
 1064              		.global	eMBMasterFuncReadWriteMultipleHoldingRegister
 1065              		.thumb
 1066              		.thumb_func
 1067              		.type	eMBMasterFuncReadWriteMultipleHoldingRegister, %function
 1068              	eMBMasterFuncReadWriteMultipleHoldingRegister:
 1069              	.LFB263:
 1070              		.loc 2 416 0
 1071              		.cfi_startproc
 1072              		@ args = 0, pretend = 0, frame = 8
 1073              		@ frame_needed = 0, uses_anonymous_args = 0
 1074              	.LVL110:
 1075 0000 2DE9F041 		push	{r4, r5, r6, r7, r8, lr}
 1076              		.cfi_def_cfa_offset 24
 1077              		.cfi_offset 4, -24
 1078              		.cfi_offset 5, -20
 1079              		.cfi_offset 6, -16
ARM GAS  C:\Users\jo\AppData\Local\Temp\ccFR9nyO.s 			page 20


 1080              		.cfi_offset 7, -12
 1081              		.cfi_offset 8, -8
 1082              		.cfi_offset 14, -4
 1083 0004 82B0     		sub	sp, sp, #8
 1084              		.cfi_def_cfa_offset 32
 1085              		.loc 2 416 0
 1086 0006 0546     		mov	r5, r0
 1087 0008 0C46     		mov	r4, r1
 1088              		.loc 2 427 0
 1089 000a FFF7FEFF 		bl	xMBMasterRequestIsBroadcast
 1090              	.LVL111:
 1091 000e 0028     		cmp	r0, #0
 1092 0010 34D1     		bne	.L86
 1093              		.loc 2 431 0
 1094 0012 2388     		ldrh	r3, [r4]
 1095 0014 012B     		cmp	r3, #1
 1096 0016 31D9     		bls	.L86
 1097              		.loc 2 433 0
 1098 0018 01A8     		add	r0, sp, #4
 1099 001a FFF7FEFF 		bl	vMBMasterGetPDUSndBuf
 1100              	.LVL112:
 1101              		.loc 2 434 0
 1102 001e 0198     		ldr	r0, [sp, #4]
 1103              		.loc 2 448 0
 1104 0020 6B78     		ldrb	r3, [r5, #1]	@ zero_extendqisi2
 1105              		.loc 2 438 0
 1106 0022 C478     		ldrb	r4, [r0, #3]	@ zero_extendqisi2
 1107              	.LVL113:
 1108              		.loc 2 439 0
 1109 0024 0179     		ldrb	r1, [r0, #4]	@ zero_extendqisi2
 1110              		.loc 2 434 0
 1111 0026 90F80180 		ldrb	r8, [r0, #1]	@ zero_extendqisi2
 1112              	.LVL114:
 1113              		.loc 2 435 0
 1114 002a 8778     		ldrb	r7, [r0, #2]	@ zero_extendqisi2
 1115              	.LVL115:
 1116              		.loc 2 441 0
 1117 002c 90F805C0 		ldrb	ip, [r0, #5]	@ zero_extendqisi2
 1118              		.loc 2 442 0
 1119 0030 8679     		ldrb	r6, [r0, #6]	@ zero_extendqisi2
 1120              		.loc 2 445 0
 1121 0032 90F807E0 		ldrb	lr, [r0, #7]	@ zero_extendqisi2
 1122              		.loc 2 446 0
 1123 0036 027A     		ldrb	r2, [r0, #8]	@ zero_extendqisi2
 1124              		.loc 2 439 0
 1125 0038 41EA0424 		orr	r4, r1, r4, lsl #8
 1126              	.LVL116:
 1127              		.loc 2 448 0
 1128 003c B3EB440F 		cmp	r3, r4, lsl #1
 1129              		.loc 2 467 0
 1130 0040 18BF     		it	ne
 1131 0042 0320     		movne	r0, #3
 1132              		.loc 2 448 0
 1133 0044 1BD1     		bne	.L85
 1134              		.loc 2 442 0
 1135 0046 46EA0C21 		orr	r1, r6, ip, lsl #8
 1136              		.loc 2 443 0
ARM GAS  C:\Users\jo\AppData\Local\Temp\ccFR9nyO.s 			page 21


 1137 004a 0131     		adds	r1, r1, #1
 1138              		.loc 2 451 0
 1139 004c 0123     		movs	r3, #1
 1140 004e 89B2     		uxth	r1, r1
 1141 0050 0A30     		adds	r0, r0, #10
 1142 0052 42EA0E22 		orr	r2, r2, lr, lsl #8
 1143              	.LVL117:
 1144 0056 FFF7FEFF 		bl	eMBMasterRegHoldingCB
 1145              	.LVL118:
 1146              		.loc 2 454 0
 1147 005a 0346     		mov	r3, r0
 1148 005c 18B1     		cbz	r0, .L93
 1149              	.L87:
 1150              	.LVL119:
 1151              		.loc 2 462 0
 1152 005e 1846     		mov	r0, r3
 1153 0060 FFF7FEFF 		bl	prveMBError2Exception
 1154              	.LVL120:
 1155 0064 0BE0     		b	.L85
 1156              	.LVL121:
 1157              	.L93:
 1158              		.loc 2 435 0
 1159 0066 47EA0821 		orr	r1, r7, r8, lsl #8
 1160              		.loc 2 436 0
 1161 006a 0131     		adds	r1, r1, #1
 1162              		.loc 2 457 0
 1163 006c 89B2     		uxth	r1, r1
 1164 006e A81C     		adds	r0, r5, #2
 1165              	.LVL122:
 1166 0070 2246     		mov	r2, r4
 1167 0072 FFF7FEFF 		bl	eMBMasterRegHoldingCB
 1168              	.LVL123:
 1169              		.loc 2 460 0
 1170 0076 0346     		mov	r3, r0
 1171 0078 0028     		cmp	r0, #0
 1172 007a F0D1     		bne	.L87
 1173              	.LVL124:
 1174              	.L86:
 1175              		.loc 2 429 0
 1176 007c 0020     		movs	r0, #0
 1177              	.LVL125:
 1178              	.L85:
 1179              		.loc 2 471 0
 1180 007e 02B0     		add	sp, sp, #8
 1181              		.cfi_def_cfa_offset 24
 1182              		@ sp needed
 1183 0080 BDE8F081 		pop	{r4, r5, r6, r7, r8, pc}
 1184              		.cfi_endproc
 1185              	.LFE263:
 1186              		.size	eMBMasterFuncReadWriteMultipleHoldingRegister, .-eMBMasterFuncReadWriteMultipleHoldingRegist
 1187 0084 AFF30080 		.section	.rodata.str1.4,"aMS",%progbits,1
 1187      AFF30080 
 1187      AFF30080 
 1188              		.align	2
 1189              	.LC0:
 1190 0000 5265736F 		.ascii	"Resource Taken %s\012\000"
 1190      75726365 
ARM GAS  C:\Users\jo\AppData\Local\Temp\ccFR9nyO.s 			page 22


 1190      2054616B 
 1190      656E2025 
 1190      730A00
 1191 0013 00       		.space	1
 1192              	.LC1:
 1193 0014 74727565 		.ascii	"true\000"
 1193      00
 1194 0019 000000   		.space	3
 1195              	.LC2:
 1196 001c 66616C73 		.ascii	"false\000"
 1196      6500
 1197 0022 0000     		.space	2
 1198              	.LC3:
 1199 0024 52544300 		.ascii	"RTC\000"
 1200              	.LC4:
 1201 0028 52544328 		.ascii	"RTC(E)\000"
 1201      452900
 1202 002f 00       		.space	1
 1203              	.LC5:
 1204 0030 52544328 		.ascii	"RTC(IDV)\000"
 1204      49445629 
 1204      00
 1205 0039 000000   		.section	.bss.nReqs,"aw",%nobits
 1206              		.align	1
 1207              		.set	.LANCHOR1,. + 0
 1208              		.type	nReqs, %object
 1209              		.size	nReqs, 2
 1210              	nReqs:
 1211 0000 0000     		.space	2
 1212              		.section	.bss.nReqTimeOut,"aw",%nobits
 1213              		.align	1
 1214              		.set	.LANCHOR0,. + 0
 1215              		.type	nReqTimeOut, %object
 1216              		.size	nReqTimeOut, 2
 1217              	nReqTimeOut:
 1218 0000 0000     		.space	2
 1219              		.text
 1220              	.Letext0:
 1221              		.file 3 "c:\\program files\\gnu tools arm embedded\\4.9 2014q4\\lib\\gcc\\arm-none-eabi\\4.9.3\\in
 1222              		.file 4 "c:\\program files\\gnu tools arm embedded\\4.9 2014q4\\arm-none-eabi\\include\\machine\\_
 1223              		.file 5 "c:\\program files\\gnu tools arm embedded\\4.9 2014q4\\arm-none-eabi\\include\\stdint.h"
 1224              		.file 6 "./ArrayList.h"
 1225              		.file 7 "../../../os/rt/ports/ARMCMx/compilers/GCC/chtypes.h"
 1226              		.file 8 "../../../os/rt/include/chsystypes.h"
 1227              		.file 9 "../../../os/rt/include/chschd.h"
 1228              		.file 10 "../../../os/rt/ports/ARMCMx/chcore.h"
 1229              		.file 11 "../../../os/rt/ports/ARMCMx/chcore_v7m.h"
 1230              		.file 12 "c:\\program files\\gnu tools arm embedded\\4.9 2014q4\\lib\\gcc\\arm-none-eabi\\4.9.3\\i
 1231              		.file 13 "<built-in>"
 1232              		.file 14 "../../../os/rt/include/chtm.h"
 1233              		.file 15 "../../../os/rt/include/chmtx.h"
 1234              		.file 16 "../../../os/rt/include/chstreams.h"
 1235              		.file 17 "./ITM_trace.h"
 1236              		.file 18 "FreeModbus/port/port.h"
 1237              		.file 19 "FreeModbus/modbus/include/mbport.h"
 1238              		.file 20 "FreeModbus/modbus/include/mbproto.h"
 1239              		.file 21 "FreeModbus/modbus/include/mb.h"
ARM GAS  C:\Users\jo\AppData\Local\Temp\ccFR9nyO.s 			page 23


 1240              		.file 22 "FreeModbus/modbus/include/mb_m.h"
 1241              		.file 23 "../../../os/ext/CMSIS/include/core_cm4.h"