ARM GAS  C:\Users\jo\AppData\Local\Temp\ccmd5NIP.s 			page 1


   1              		.syntax unified
   2              		.cpu cortex-m4
   3              		.eabi_attribute 27, 3
   4              		.eabi_attribute 28, 1
   5              		.fpu fpv4-sp-d16
   6              		.eabi_attribute 20, 1
   7              		.eabi_attribute 21, 1
   8              		.eabi_attribute 23, 3
   9              		.eabi_attribute 24, 1
  10              		.eabi_attribute 25, 1
  11              		.eabi_attribute 26, 1
  12              		.eabi_attribute 30, 2
  13              		.eabi_attribute 34, 1
  14              		.eabi_attribute 18, 4
  15              		.thumb
  16              		.file	"mbfuncother.c"
  17              		.text
  18              	.Ltext0:
  19              		.cfi_sections	.debug_frame
  20              		.section	.text.eMBSetSlaveID,"ax",%progbits
  21              		.align	2
  22              		.p2align 4,,15
  23              		.global	eMBSetSlaveID
  24              		.thumb
  25              		.thumb_func
  26              		.type	eMBSetSlaveID, %function
  27              	eMBSetSlaveID:
  28              	.LFB256:
  29              		.file 1 "FreeModbus/modbus/functions/mbfuncother.c"
  30              		.loc 1 55 0
  31              		.cfi_startproc
  32              		@ args = 0, pretend = 0, frame = 8
  33              		@ frame_needed = 0, uses_anonymous_args = 0
  34              	.LVL0:
  35              		.loc 1 61 0
  36 0000 1D2B     		cmp	r3, #29
  37 0002 01DD     		ble	.L7
  38              		.loc 1 75 0
  39 0004 0420     		movs	r0, #4
  40              	.LVL1:
  41              		.loc 1 78 0
  42 0006 7047     		bx	lr
  43              	.LVL2:
  44              	.L7:
  45              		.loc 1 55 0
  46 0008 30B5     		push	{r4, r5, lr}
  47              		.cfi_def_cfa_offset 12
  48              		.cfi_offset 4, -12
  49              		.cfi_offset 5, -8
  50              		.cfi_offset 14, -4
  51              		.loc 1 65 0
  52 000a 0C1C     		adds	r4, r1, #0
  53              		.loc 1 64 0
  54 000c 0C49     		ldr	r1, .L9
  55              	.LVL3:
  56              		.loc 1 65 0
  57 000e 0D4D     		ldr	r5, .L9+4
ARM GAS  C:\Users\jo\AppData\Local\Temp\ccmd5NIP.s 			page 2


  58              		.loc 1 64 0
  59 0010 0870     		strb	r0, [r1]
  60              		.loc 1 65 0
  61 0012 18BF     		it	ne
  62 0014 0124     		movne	r4, #1
  63 0016 6442     		negs	r4, r4
  64 0018 0220     		movs	r0, #2
  65              	.LVL4:
  66              		.loc 1 55 0
  67 001a 83B0     		sub	sp, sp, #12
  68              		.cfi_def_cfa_offset 24
  69              		.loc 1 65 0
  70 001c 4C70     		strb	r4, [r1, #1]
  71 001e 2880     		strh	r0, [r5]	@ movhi
  72              		.loc 1 66 0
  73 0020 13B9     		cbnz	r3, .L8
  74              		.loc 1 56 0
  75 0022 1846     		mov	r0, r3
  76              	.LVL5:
  77              		.loc 1 78 0
  78 0024 03B0     		add	sp, sp, #12
  79              		.cfi_remember_state
  80              		.cfi_def_cfa_offset 12
  81              		@ sp needed
  82 0026 30BD     		pop	{r4, r5, pc}
  83              	.LVL6:
  84              	.L8:
  85              		.cfi_restore_state
  86              		.loc 1 68 0
  87 0028 0818     		adds	r0, r1, r0
  88 002a 1146     		mov	r1, r2
  89 002c 1A46     		mov	r2, r3
  90              	.LVL7:
  91 002e 0193     		str	r3, [sp, #4]
  92 0030 FFF7FEFF 		bl	memcpy
  93              	.LVL8:
  94              		.loc 1 70 0
  95 0034 019B     		ldr	r3, [sp, #4]
  96              		.loc 1 56 0
  97 0036 0020     		movs	r0, #0
  98              	.LVL9:
  99              		.loc 1 70 0
 100 0038 0233     		adds	r3, r3, #2
 101 003a 2B80     		strh	r3, [r5]	@ movhi
 102              		.loc 1 78 0
 103 003c 03B0     		add	sp, sp, #12
 104              		.cfi_def_cfa_offset 12
 105              		@ sp needed
 106 003e 30BD     		pop	{r4, r5, pc}
 107              	.L10:
 108              		.align	2
 109              	.L9:
 110 0040 00000000 		.word	.LANCHOR0
 111 0044 00000000 		.word	.LANCHOR1
 112              		.cfi_endproc
 113              	.LFE256:
 114              		.size	eMBSetSlaveID, .-eMBSetSlaveID
ARM GAS  C:\Users\jo\AppData\Local\Temp\ccmd5NIP.s 			page 3


 115 0048 AFF30080 		.section	.text.eMBFuncReportSlaveID,"ax",%progbits
 115      AFF30080 
 116              		.align	2
 117              		.p2align 4,,15
 118              		.global	eMBFuncReportSlaveID
 119              		.thumb
 120              		.thumb_func
 121              		.type	eMBFuncReportSlaveID, %function
 122              	eMBFuncReportSlaveID:
 123              	.LFB257:
 124              		.loc 1 82 0
 125              		.cfi_startproc
 126              		@ args = 0, pretend = 0, frame = 0
 127              		@ frame_needed = 0, uses_anonymous_args = 0
 128              	.LVL10:
 129 0000 38B5     		push	{r3, r4, r5, lr}
 130              		.cfi_def_cfa_offset 16
 131              		.cfi_offset 3, -16
 132              		.cfi_offset 4, -12
 133              		.cfi_offset 5, -8
 134              		.cfi_offset 14, -4
 135              		.loc 1 83 0
 136 0002 064B     		ldr	r3, .L13
 137 0004 1C88     		ldrh	r4, [r3]
 138              		.loc 1 82 0
 139 0006 0D46     		mov	r5, r1
 140              		.loc 1 83 0
 141 0008 2246     		mov	r2, r4
 142 000a 0549     		ldr	r1, .L13+4
 143              	.LVL11:
 144              		.loc 1 84 0
 145 000c 0134     		adds	r4, r4, #1
 146              		.loc 1 83 0
 147 000e 0130     		adds	r0, r0, #1
 148              	.LVL12:
 149 0010 FFF7FEFF 		bl	memcpy
 150              	.LVL13:
 151              		.loc 1 84 0
 152 0014 2C80     		strh	r4, [r5]	@ movhi
 153              		.loc 1 86 0
 154 0016 0020     		movs	r0, #0
 155 0018 38BD     		pop	{r3, r4, r5, pc}
 156              	.LVL14:
 157              	.L14:
 158 001a 00BF     		.align	2
 159              	.L13:
 160 001c 00000000 		.word	.LANCHOR1
 161 0020 00000000 		.word	.LANCHOR0
 162              		.cfi_endproc
 163              	.LFE257:
 164              		.size	eMBFuncReportSlaveID, .-eMBFuncReportSlaveID
 165 0024 AFF30080 		.section	.bss.usMBSlaveIDLen,"aw",%nobits
 165      AFF30080 
 165      AFF30080 
 166              		.align	1
 167              		.set	.LANCHOR1,. + 0
 168              		.type	usMBSlaveIDLen, %object
ARM GAS  C:\Users\jo\AppData\Local\Temp\ccmd5NIP.s 			page 4


 169              		.size	usMBSlaveIDLen, 2
 170              	usMBSlaveIDLen:
 171 0000 0000     		.space	2
 172              		.section	.bss.ucMBSlaveID,"aw",%nobits
 173              		.align	2
 174              		.set	.LANCHOR0,. + 0
 175              		.type	ucMBSlaveID, %object
 176              		.size	ucMBSlaveID, 32
 177              	ucMBSlaveID:
 178 0000 00000000 		.space	32
 178      00000000 
 178      00000000 
 178      00000000 
 178      00000000 
 179              		.text
 180              	.Letext0:
 181              		.file 2 "c:\\program files\\gnu tools arm embedded\\4.9 2014q4\\lib\\gcc\\arm-none-eabi\\4.9.3\\in
 182              		.file 3 "c:\\program files\\gnu tools arm embedded\\4.9 2014q4\\arm-none-eabi\\include\\machine\\_
 183              		.file 4 "c:\\program files\\gnu tools arm embedded\\4.9 2014q4\\arm-none-eabi\\include\\stdint.h"
 184              		.file 5 "../../../os/rt/ports/ARMCMx/compilers/GCC/chtypes.h"
 185              		.file 6 "../../../os/rt/include/chsystypes.h"
 186              		.file 7 "../../../os/rt/include/chschd.h"
 187              		.file 8 "../../../os/rt/ports/ARMCMx/chcore.h"
 188              		.file 9 "../../../os/rt/ports/ARMCMx/chcore_v7m.h"
 189              		.file 10 "../../../os/rt/include/chtm.h"
 190              		.file 11 "../../../os/rt/include/chmtx.h"
 191              		.file 12 "FreeModbus/port/port.h"
 192              		.file 13 "FreeModbus/modbus/include/mbproto.h"
 193              		.file 14 "FreeModbus/modbus/include/mb.h"
 194              		.file 15 "../../../os/ext/CMSIS/include/core_cm4.h"