ARM GAS  C:\Users\jo\AppData\Local\Temp\ccmd5NIP.s 			page 1


   1              		.syntax unified
   2              		.cpu cortex-m4
   3              		.eabi_attribute 27, 3
   4              		.eabi_attribute 28, 1
   5              		.fpu fpv4-sp-d16
   6              		.eabi_attribute 20, 1
   7              		.eabi_attribute 21, 1
   8              		.eabi_attribute 23, 3
   9              		.eabi_attribute 24, 1
  10              		.eabi_attribute 25, 1
  11              		.eabi_attribute 26, 1
  12              		.eabi_attribute 30, 2
  13              		.eabi_attribute 34, 1
  14              		.eabi_attribute 18, 4
  15              		.thumb
  16              		.file	"mbfuncother.c"
  17              		.text
  18              	.Ltext0:
  19              		.cfi_sections	.debug_frame
  20              		.section	.text.eMBSetSlaveID,"ax",%progbits
  21              		.align	2
  22              		.p2align 4,,15
  23              		.global	eMBSetSlaveID
  24              		.thumb
  25              		.thumb_func
  26              		.type	eMBSetSlaveID, %function
  27              	eMBSetSlaveID:
  28              	.LFB256:
  29              		.file 1 "FreeModbus/modbus/functions/mbfuncother.c"
  30              		.loc 1 55 0
  31              		.cfi_startproc
  32              		@ args = 0, pretend = 0, frame = 8
  33              		@ frame_needed = 0, uses_anonymous_args = 0
  34              	.LVL0:
  35              		.loc 1 61 0
  36 0000 1D2B     		cmp	r3, #29
  37 0002 01DD     		ble	.L7
  38              		.loc 1 75 0
  39 0004 0420     		movs	r0, #4
  40              	.LVL1:
  41              		.loc 1 78 0
  42 0006 7047     		bx	lr
  43              	.LVL2:
  44              	.L7:
  45              		.loc 1 55 0
  46 0008 30B5     		push	{r4, r5, lr}
  47              		.cfi_def_cfa_offset 12
  48              		.cfi_offset 4, -12
  49              		.cfi_offset 5, -8
  50              		.cfi_offset 14, -4
  51              		.loc 1 65 0
  52 000a 0C1C     		adds	r4, r1, #0
  53              		.loc 1 64 0
  54 000c 0C49     		ldr	r1, .L9
  55              	.LVL3:
  56              		.loc 1 65 0
  57 000e 0D4D     		ldr	r5, .L9+4
ARM GAS  C:\Users\jo\AppData\Local\Temp\ccmd5NIP.s 			page 2


  58              		.loc 1 64 0
  59 0010 0870     		strb	r0, [r1]
  60              		.loc 1 65 0
  61 0012 18BF     		it	ne
  62 0014 0124     		movne	r4, #1
  63 0016 6442     		negs	r4, r4
  64 0018 0220     		movs	r0, #2
  65              	.LVL4:
  66              		.loc 1 55 0
  67 001a 83B0     		sub	sp, sp, #12
  68              		.cfi_def_cfa_offset 24
  69              		.loc 1 65 0
  70 001c 4C70     		strb	r4, [r1, #1]
  71 001e 2880     		strh	r0, [r5]	@ movhi
  72              		.loc 1 66 0
  73 0020 13B9     		cbnz	r3, .L8
  74              		.loc 1 56 0
  75 0022 1846     		mov	r0, r3
  76              	.LVL5:
  77              		.loc 1 78 0
  78 0024 03B0     		add	sp, sp, #12
  79              		.cfi_remember_state
  80              		.cfi_def_cfa_offset 12
  81              		@ sp needed
  82 0026 30BD     		pop	{r4, r5, pc}
  83              	.LVL6:
  84              	.L8:
  85              		.cfi_restore_state
  86              		.loc 1 68 0
  87 0028 0818     		adds	r0, r1, r0
  88 002a 1146     		mov	r1, r2
  89 002c 1A46     		mov	r2, r3
  90              	.LVL7:
  91 002e 0193     		str	r3, [sp, #4]
  92 0030 FFF7FEFF 		bl	memcpy
  93              	.LVL8:
  94              		.loc 1 70 0
  95 0034 019B     		ldr	r3, [sp, #4]
  96              		.loc 1 56 0
  97 0036 0020     		movs	r0, #0
  98              	.LVL9:
  99              		.loc 1 70 0
 100 0038 0233     		adds	r3, r3, #2
 101 003a 2B80     		strh	r3, [r5]	@ movhi
 102              		.loc 1 78 0
 103 003c 03B0     		add	sp, sp, #12
 104              		.cfi_def_cfa_offset 12
 105              		@ sp needed
 106 003e 30BD     		pop	{r4, r5, pc}
 107              	.L10:
 108              		.align	2
 109              	.L9:
 110 0040 00000000 		.word	.LANCHOR0
 111 0044 00000000 		.word	.LANCHOR1
 112              		.cfi_endproc
 113              	.LFE256:
 114              		.size	eMBSetSlaveID, .-eMBSetSlaveID
ARM GAS  C:\Users\jo\AppData\Local\Temp\ccmd5NIP.s 			page 3


 115 0048 AFF30080 		.section	.text.eMBFuncReportSlaveID,"ax",%progbits
 115      AFF30080 
 116              		.align	2
 117              		.p2align 4,,15
 118              		.global	eMBFuncReportSlaveID
 119              		.thumb
 120              		.thumb_func
 121              		.type	eMBFuncReportSlaveID, %function
 122              	eMBFuncReportSlaveID:
 123              	.LFB257:
 124              		.loc 1 82 0
 125              		.cfi_startproc
 126              		@ args = 0, pretend = 0, frame = 0
 127              		@ frame_needed = 0, uses_anonymous_args = 0
 128              	.LVL10:
 129 0000 38B5     		push	{r3, r4, r5, lr}
 130              		.cfi_def_cfa_offset 16
 131              		.cfi_offset 3, -16
 132              		.cfi_offset 4, -12
 133              		.cfi_offset 5, -8
 134              		.cfi_offset 14, -4
 135              		.loc 1 83 0
 136 0002 064B     		ldr	r3, .L13
 137 0004 1C88     		ldrh	r4, [r3]
 138              		.loc 1 82 0
 139 0006 0D46     		mov	r5, r1
 140              		.loc 1 83 0
 141 0008 2246     		mov	r2, r4
 142 000a 0549     		ldr	r1, .L13+4
 143              	.LVL11:
 144              		.loc 1 84 0
 145 000c 0134     		adds	r4, r4, #1
 146              		.loc 1 83 0
 147 000e 0130     		adds	r0, r0, #1
 148              	.LVL12:
 149 0010 FFF7FEFF 		bl	memcpy
 150              	.LVL13:
 151              		.loc 1 84 0
 152 0014 2C80     		strh	r4, [r5]	@ movhi
 153              		.loc 1 86 0
 154 0016 0020     		movs	r0, #0
 155 0018 38BD     		pop	{r3, r4, r5, pc}
 156              	.LVL14:
 157              	.L14:
 158 001a 00BF     		.align	2
 159              	.L13:
 160 001c 00000000 		.word	.LANCHOR1
 161 0020 00000000 		.word	.LANCHOR0
 162              		.cfi_endproc
 163              	.LFE257:
 164              		.size	eMBFuncReportSlaveID, .-eMBFuncReportSlaveID
 165 0024 AFF30080 		.section	.bss.usMBSlaveIDLen,"aw",%nobits
 165      AFF30080 
 165      AFF30080 
 166              		.align	1
 167              		.set	.LANCHOR1,. + 0
 168              		.type	usMBSlaveIDLen, %object
ARM GAS  C:\Users\jo\AppData\Local\Temp\ccmd5NIP.s 			page 4


 169              		.size	usMBSlaveIDLen, 2
 170              	usMBSlaveIDLen:
 171 0000 0000     		.space	2
 172              		.section	.bss.ucMBSlaveID,"aw",%nobits
 173              		.align	2
 174              		.set	.LANCHOR0,. + 0
 175              		.type	ucMBSlaveID, %object
 176              		.size	ucMBSlaveID, 32
 177              	ucMBSlaveID:
 178 0000 00000000 		.space	32
 178      00000000 
 178      00000000 
 178      00000000 
 178      00000000 
 179              		.text
 180              	.Letext0:
 181              		.file 2 "c:\\program files\\gnu tools arm embedded\\4.9 2014q4\\lib\\gcc\\arm-none-eabi\\4.9.3\\in
 182              		.file 3 "c:\\program files\\gnu tools arm embedded\\4.9 2014q4\\arm-none-eabi\\include\\machine\\_
 183              		.file 4 "c:\\program files\\gnu tools arm embedded\\4.9 2014q4\\arm-none-eabi\\include\\stdint.h"
 184              		.file 5 "../../../os/rt/ports/ARMCMx/compilers/GCC/chtypes.h"
 185              		.file 6 "../../../os/rt/include/chsystypes.h"
 186              		.file 7 "../../../os/rt/include/chschd.h"
 187              		.file 8 "../../../os/rt/ports/ARMCMx/chcore.h"
 188              		.file 9 "../../../os/rt/ports/ARMCMx/chcore_v7m.h"
 189              		.file 10 "../../../os/rt/include/chtm.h"
 190              		.file 11 "../../../os/rt/include/chmtx.h"
 191              		.file 12 "FreeModbus/port/port.h"
 192              		.file 13 "FreeModbus/modbus/include/mbproto.h"
 193              		.file 14 "FreeModbus/modbus/include/mb.h"
 194              		.file 15 "../../../os/ext/CMSIS/include/core_cm4.h"
 195              		.section	.debug_info,"",%progbits
 196              	.Ldebug_info0:
 197 0000 AF080000 		.4byte	0x8af
 198 0004 0400     		.2byte	0x4
 199 0006 00000000 		.4byte	.Ldebug_abbrev0
 200 000a 04       		.byte	0x4
 201 000b 01       		.uleb128 0x1
 202 000c 62040000 		.4byte	.LASF132
 203 0010 01       		.byte	0x1
 204 0011 5D000000 		.4byte	.LASF133
 205 0015 FE050000 		.4byte	.LASF134
 206 0019 00000000 		.4byte	.Ldebug_ranges0+0
 207 001d 00000000 		.4byte	0
 208 0021 00000000 		.4byte	.Ldebug_line0
 209 0025 02       		.uleb128 0x2
 210 0026 1A000000 		.4byte	.LASF2
 211 002a 02       		.byte	0x2
 212 002b D4       		.byte	0xd4
 213 002c 30000000 		.4byte	0x30
 214 0030 03       		.uleb128 0x3
 215 0031 04       		.byte	0x4
 216 0032 07       		.byte	0x7
 217 0033 FF010000 		.4byte	.LASF0
 218 0037 04       		.uleb128 0x4
 219 0038 04       		.byte	0x4
 220 0039 05       		.byte	0x5
 221 003a 696E7400 		.ascii	"int\000"
ARM GAS  C:\Users\jo\AppData\Local\Temp\ccmd5NIP.s 			page 5


 222 003e 03       		.uleb128 0x3
 223 003f 01       		.byte	0x1
 224 0040 06       		.byte	0x6
 225 0041 0D010000 		.4byte	.LASF1
 226 0045 02       		.uleb128 0x2
 227 0046 38000000 		.4byte	.LASF3
 228 004a 03       		.byte	0x3
 229 004b 1D       		.byte	0x1d
 230 004c 50000000 		.4byte	0x50
 231 0050 03       		.uleb128 0x3
 232 0051 01       		.byte	0x1
 233 0052 08       		.byte	0x8
 234 0053 23040000 		.4byte	.LASF4
 235 0057 03       		.uleb128 0x3
 236 0058 02       		.byte	0x2
 237 0059 05       		.byte	0x5
 238 005a 3B040000 		.4byte	.LASF5
 239 005e 02       		.uleb128 0x2
 240 005f 46060000 		.4byte	.LASF6
 241 0063 03       		.byte	0x3
 242 0064 2B       		.byte	0x2b
 243 0065 69000000 		.4byte	0x69
 244 0069 03       		.uleb128 0x3
 245 006a 02       		.byte	0x2
 246 006b 07       		.byte	0x7
 247 006c BC010000 		.4byte	.LASF7
 248 0070 02       		.uleb128 0x2
 249 0071 B7020000 		.4byte	.LASF8
 250 0075 03       		.byte	0x3
 251 0076 3F       		.byte	0x3f
 252 0077 7B000000 		.4byte	0x7b
 253 007b 03       		.uleb128 0x3
 254 007c 04       		.byte	0x4
 255 007d 05       		.byte	0x5
 256 007e 55010000 		.4byte	.LASF9
 257 0082 02       		.uleb128 0x2
 258 0083 A0060000 		.4byte	.LASF10
 259 0087 03       		.byte	0x3
 260 0088 41       		.byte	0x41
 261 0089 8D000000 		.4byte	0x8d
 262 008d 03       		.uleb128 0x3
 263 008e 04       		.byte	0x4
 264 008f 07       		.byte	0x7
 265 0090 E7050000 		.4byte	.LASF11
 266 0094 03       		.uleb128 0x3
 267 0095 08       		.byte	0x8
 268 0096 05       		.byte	0x5
 269 0097 FF000000 		.4byte	.LASF12
 270 009b 02       		.uleb128 0x2
 271 009c E7020000 		.4byte	.LASF13
 272 00a0 03       		.byte	0x3
 273 00a1 5B       		.byte	0x5b
 274 00a2 A6000000 		.4byte	0xa6
 275 00a6 03       		.uleb128 0x3
 276 00a7 08       		.byte	0x8
 277 00a8 07       		.byte	0x7
 278 00a9 87000000 		.4byte	.LASF14
ARM GAS  C:\Users\jo\AppData\Local\Temp\ccmd5NIP.s 			page 6


 279 00ad 03       		.uleb128 0x3
 280 00ae 04       		.byte	0x4
 281 00af 07       		.byte	0x7
 282 00b0 FE020000 		.4byte	.LASF15
 283 00b4 05       		.uleb128 0x5
 284 00b5 04       		.byte	0x4
 285 00b6 03       		.uleb128 0x3
 286 00b7 01       		.byte	0x1
 287 00b8 08       		.byte	0x8
 288 00b9 F9050000 		.4byte	.LASF16
 289 00bd 06       		.uleb128 0x6
 290 00be 04       		.byte	0x4
 291 00bf C3000000 		.4byte	0xc3
 292 00c3 07       		.uleb128 0x7
 293 00c4 B6000000 		.4byte	0xb6
 294 00c8 06       		.uleb128 0x6
 295 00c9 04       		.byte	0x4
 296 00ca CE000000 		.4byte	0xce
 297 00ce 08       		.uleb128 0x8
 298 00cf 02       		.uleb128 0x2
 299 00d0 09070000 		.4byte	.LASF17
 300 00d4 04       		.byte	0x4
 301 00d5 15       		.byte	0x15
 302 00d6 45000000 		.4byte	0x45
 303 00da 02       		.uleb128 0x2
 304 00db 14020000 		.4byte	.LASF18
 305 00df 04       		.byte	0x4
 306 00e0 21       		.byte	0x21
 307 00e1 5E000000 		.4byte	0x5e
 308 00e5 02       		.uleb128 0x2
 309 00e6 1B040000 		.4byte	.LASF19
 310 00ea 04       		.byte	0x4
 311 00eb 2C       		.byte	0x2c
 312 00ec 70000000 		.4byte	0x70
 313 00f0 02       		.uleb128 0x2
 314 00f1 C6050000 		.4byte	.LASF20
 315 00f5 04       		.byte	0x4
 316 00f6 2D       		.byte	0x2d
 317 00f7 82000000 		.4byte	0x82
 318 00fb 02       		.uleb128 0x2
 319 00fc 2F000000 		.4byte	.LASF21
 320 0100 04       		.byte	0x4
 321 0101 39       		.byte	0x39
 322 0102 9B000000 		.4byte	0x9b
 323 0106 09       		.uleb128 0x9
 324 0107 E5000000 		.4byte	0xe5
 325 010b 02       		.uleb128 0x2
 326 010c D7060000 		.4byte	.LASF22
 327 0110 05       		.byte	0x5
 328 0111 45       		.byte	0x45
 329 0112 F0000000 		.4byte	0xf0
 330 0116 02       		.uleb128 0x2
 331 0117 95020000 		.4byte	.LASF23
 332 011b 05       		.byte	0x5
 333 011c 48       		.byte	0x48
 334 011d CF000000 		.4byte	0xcf
 335 0121 02       		.uleb128 0x2
ARM GAS  C:\Users\jo\AppData\Local\Temp\ccmd5NIP.s 			page 7


 336 0122 6B010000 		.4byte	.LASF24
 337 0126 05       		.byte	0x5
 338 0127 49       		.byte	0x49
 339 0128 CF000000 		.4byte	0xcf
 340 012c 02       		.uleb128 0x2
 341 012d D8030000 		.4byte	.LASF25
 342 0131 05       		.byte	0x5
 343 0132 4A       		.byte	0x4a
 344 0133 CF000000 		.4byte	0xcf
 345 0137 02       		.uleb128 0x2
 346 0138 F7030000 		.4byte	.LASF26
 347 013c 05       		.byte	0x5
 348 013d 4C       		.byte	0x4c
 349 013e F0000000 		.4byte	0xf0
 350 0142 02       		.uleb128 0x2
 351 0143 79020000 		.4byte	.LASF27
 352 0147 05       		.byte	0x5
 353 0148 4D       		.byte	0x4d
 354 0149 E5000000 		.4byte	0xe5
 355 014d 02       		.uleb128 0x2
 356 014e AB020000 		.4byte	.LASF28
 357 0152 05       		.byte	0x5
 358 0153 4F       		.byte	0x4f
 359 0154 F0000000 		.4byte	0xf0
 360 0158 02       		.uleb128 0x2
 361 0159 82060000 		.4byte	.LASF29
 362 015d 06       		.byte	0x6
 363 015e 33       		.byte	0x33
 364 015f F0000000 		.4byte	0xf0
 365 0163 02       		.uleb128 0x2
 366 0164 68060000 		.4byte	.LASF30
 367 0168 06       		.byte	0x6
 368 0169 3F       		.byte	0x3f
 369 016a 6E010000 		.4byte	0x16e
 370 016e 0A       		.uleb128 0xa
 371 016f 6F020000 		.4byte	.LASF49
 372 0173 44       		.byte	0x44
 373 0174 07       		.byte	0x7
 374 0175 BE       		.byte	0xbe
 375 0176 5B020000 		.4byte	0x25b
 376 017a 0B       		.uleb128 0xb
 377 017b 5B040000 		.4byte	.LASF31
 378 017f 07       		.byte	0x7
 379 0180 BF       		.byte	0xbf
 380 0181 FC050000 		.4byte	0x5fc
 381 0185 00       		.byte	0
 382 0186 0B       		.uleb128 0xb
 383 0187 F0030000 		.4byte	.LASF32
 384 018b 07       		.byte	0x7
 385 018c C1       		.byte	0xc1
 386 018d FC050000 		.4byte	0x5fc
 387 0191 04       		.byte	0x4
 388 0192 0B       		.uleb128 0xb
 389 0193 F8000000 		.4byte	.LASF33
 390 0197 07       		.byte	0x7
 391 0198 C3       		.byte	0xc3
 392 0199 37010000 		.4byte	0x137
ARM GAS  C:\Users\jo\AppData\Local\Temp\ccmd5NIP.s 			page 8


 393 019d 08       		.byte	0x8
 394 019e 0B       		.uleb128 0xb
 395 019f 52070000 		.4byte	.LASF34
 396 01a3 07       		.byte	0x7
 397 01a4 C4       		.byte	0xc4
 398 01a5 7C040000 		.4byte	0x47c
 399 01a9 0C       		.byte	0xc
 400 01aa 0B       		.uleb128 0xb
 401 01ab 9A010000 		.4byte	.LASF35
 402 01af 07       		.byte	0x7
 403 01b0 C6       		.byte	0xc6
 404 01b1 FC050000 		.4byte	0x5fc
 405 01b5 10       		.byte	0x10
 406 01b6 0B       		.uleb128 0xb
 407 01b7 5B030000 		.4byte	.LASF36
 408 01bb 07       		.byte	0x7
 409 01bc C7       		.byte	0xc7
 410 01bd FC050000 		.4byte	0x5fc
 411 01c1 14       		.byte	0x14
 412 01c2 0B       		.uleb128 0xb
 413 01c3 2E070000 		.4byte	.LASF37
 414 01c7 07       		.byte	0x7
 415 01c8 CE       		.byte	0xce
 416 01c9 BD000000 		.4byte	0xbd
 417 01cd 18       		.byte	0x18
 418 01ce 0B       		.uleb128 0xb
 419 01cf 45040000 		.4byte	.LASF38
 420 01d3 07       		.byte	0x7
 421 01d4 D9       		.byte	0xd9
 422 01d5 21010000 		.4byte	0x121
 423 01d9 1C       		.byte	0x1c
 424 01da 0B       		.uleb128 0xb
 425 01db 7B050000 		.4byte	.LASF39
 426 01df 07       		.byte	0x7
 427 01e0 DD       		.byte	0xdd
 428 01e1 16010000 		.4byte	0x116
 429 01e5 1D       		.byte	0x1d
 430 01e6 0B       		.uleb128 0xb
 431 01e7 FC060000 		.4byte	.LASF40
 432 01eb 07       		.byte	0x7
 433 01ec E2       		.byte	0xe2
 434 01ed 2C010000 		.4byte	0x12c
 435 01f1 1E       		.byte	0x1e
 436 01f2 0C       		.uleb128 0xc
 437 01f3 705F7500 		.ascii	"p_u\000"
 438 01f7 07       		.byte	0x7
 439 01f8 1401     		.2byte	0x114
 440 01fa 02060000 		.4byte	0x602
 441 01fe 20       		.byte	0x20
 442 01ff 0D       		.uleb128 0xd
 443 0200 60070000 		.4byte	.LASF41
 444 0204 07       		.byte	0x7
 445 0205 1901     		.2byte	0x119
 446 0207 5B020000 		.4byte	0x25b
 447 020b 24       		.byte	0x24
 448 020c 0D       		.uleb128 0xd
 449 020d 3E020000 		.4byte	.LASF42
ARM GAS  C:\Users\jo\AppData\Local\Temp\ccmd5NIP.s 			page 9


 450 0211 07       		.byte	0x7
 451 0212 1F01     		.2byte	0x11f
 452 0214 7F020000 		.4byte	0x27f
 453 0218 28       		.byte	0x28
 454 0219 0D       		.uleb128 0xd
 455 021a 44070000 		.4byte	.LASF43
 456 021e 07       		.byte	0x7
 457 021f 2301     		.2byte	0x123
 458 0221 42010000 		.4byte	0x142
 459 0225 30       		.byte	0x30
 460 0226 0D       		.uleb128 0xd
 461 0227 BB050000 		.4byte	.LASF44
 462 022b 07       		.byte	0x7
 463 022c 2901     		.2byte	0x129
 464 022e 4D010000 		.4byte	0x14d
 465 0232 34       		.byte	0x34
 466 0233 0D       		.uleb128 0xd
 467 0234 31040000 		.4byte	.LASF45
 468 0238 07       		.byte	0x7
 469 0239 3001     		.2byte	0x130
 470 023b 6B060000 		.4byte	0x66b
 471 023f 38       		.byte	0x38
 472 0240 0D       		.uleb128 0xd
 473 0241 8C060000 		.4byte	.LASF46
 474 0245 07       		.byte	0x7
 475 0246 3401     		.2byte	0x134
 476 0248 37010000 		.4byte	0x137
 477 024c 3C       		.byte	0x3c
 478 024d 0D       		.uleb128 0xd
 479 024e 24010000 		.4byte	.LASF47
 480 0252 07       		.byte	0x7
 481 0253 3A01     		.2byte	0x13a
 482 0255 B4000000 		.4byte	0xb4
 483 0259 40       		.byte	0x40
 484 025a 00       		.byte	0
 485 025b 02       		.uleb128 0x2
 486 025c 35070000 		.4byte	.LASF48
 487 0260 06       		.byte	0x6
 488 0261 44       		.byte	0x44
 489 0262 66020000 		.4byte	0x266
 490 0266 0A       		.uleb128 0xa
 491 0267 D7050000 		.4byte	.LASF50
 492 026b 04       		.byte	0x4
 493 026c 07       		.byte	0x7
 494 026d AC       		.byte	0xac
 495 026e 7F020000 		.4byte	0x27f
 496 0272 0B       		.uleb128 0xb
 497 0273 5B040000 		.4byte	.LASF31
 498 0277 07       		.byte	0x7
 499 0278 AD       		.byte	0xad
 500 0279 FC050000 		.4byte	0x5fc
 501 027d 00       		.byte	0
 502 027e 00       		.byte	0
 503 027f 02       		.uleb128 0x2
 504 0280 EC060000 		.4byte	.LASF51
 505 0284 06       		.byte	0x6
 506 0285 4B       		.byte	0x4b
ARM GAS  C:\Users\jo\AppData\Local\Temp\ccmd5NIP.s 			page 10


 507 0286 8A020000 		.4byte	0x28a
 508 028a 0A       		.uleb128 0xa
 509 028b E7000000 		.4byte	.LASF52
 510 028f 08       		.byte	0x8
 511 0290 07       		.byte	0x7
 512 0291 B3       		.byte	0xb3
 513 0292 AF020000 		.4byte	0x2af
 514 0296 0B       		.uleb128 0xb
 515 0297 5B040000 		.4byte	.LASF31
 516 029b 07       		.byte	0x7
 517 029c B4       		.byte	0xb4
 518 029d FC050000 		.4byte	0x5fc
 519 02a1 00       		.byte	0
 520 02a2 0B       		.uleb128 0xb
 521 02a3 F0030000 		.4byte	.LASF32
 522 02a7 07       		.byte	0x7
 523 02a8 B5       		.byte	0xb5
 524 02a9 FC050000 		.4byte	0x5fc
 525 02ad 04       		.byte	0x4
 526 02ae 00       		.byte	0
 527 02af 02       		.uleb128 0x2
 528 02b0 00000000 		.4byte	.LASF53
 529 02b4 06       		.byte	0x6
 530 02b5 52       		.byte	0x52
 531 02b6 BA020000 		.4byte	0x2ba
 532 02ba 0E       		.uleb128 0xe
 533 02bb 9D020000 		.4byte	.LASF54
 534 02bf 1C       		.byte	0x1c
 535 02c0 07       		.byte	0x7
 536 02c1 7201     		.2byte	0x172
 537 02c3 16030000 		.4byte	0x316
 538 02c7 0D       		.uleb128 0xd
 539 02c8 CF050000 		.4byte	.LASF55
 540 02cc 07       		.byte	0x7
 541 02cd 7301     		.2byte	0x173
 542 02cf 7F020000 		.4byte	0x27f
 543 02d3 00       		.byte	0
 544 02d4 0D       		.uleb128 0xd
 545 02d5 4D040000 		.4byte	.LASF56
 546 02d9 07       		.byte	0x7
 547 02da 7401     		.2byte	0x174
 548 02dc 37010000 		.4byte	0x137
 549 02e0 08       		.byte	0x8
 550 02e1 0D       		.uleb128 0xd
 551 02e2 63030000 		.4byte	.LASF57
 552 02e6 07       		.byte	0x7
 553 02e7 7601     		.2byte	0x176
 554 02e9 7C040000 		.4byte	0x47c
 555 02ed 0C       		.byte	0xc
 556 02ee 0D       		.uleb128 0xd
 557 02ef CF010000 		.4byte	.LASF58
 558 02f3 07       		.byte	0x7
 559 02f4 7901     		.2byte	0x179
 560 02f6 FC050000 		.4byte	0x5fc
 561 02fa 10       		.byte	0x10
 562 02fb 0D       		.uleb128 0xd
 563 02fc AA030000 		.4byte	.LASF59
ARM GAS  C:\Users\jo\AppData\Local\Temp\ccmd5NIP.s 			page 11


 564 0300 07       		.byte	0x7
 565 0301 7A01     		.2byte	0x17a
 566 0303 FC050000 		.4byte	0x5fc
 567 0307 14       		.byte	0x14
 568 0308 0D       		.uleb128 0xd
 569 0309 A0030000 		.4byte	.LASF60
 570 030d 07       		.byte	0x7
 571 030e 7D01     		.2byte	0x17d
 572 0310 FC050000 		.4byte	0x5fc
 573 0314 18       		.byte	0x18
 574 0315 00       		.byte	0
 575 0316 02       		.uleb128 0x2
 576 0317 97060000 		.4byte	.LASF61
 577 031b 06       		.byte	0x6
 578 031c 57       		.byte	0x57
 579 031d 21030000 		.4byte	0x321
 580 0321 06       		.uleb128 0x6
 581 0322 04       		.byte	0x4
 582 0323 27030000 		.4byte	0x327
 583 0327 0F       		.uleb128 0xf
 584 0328 32030000 		.4byte	0x332
 585 032c 10       		.uleb128 0x10
 586 032d B4000000 		.4byte	0xb4
 587 0331 00       		.byte	0
 588 0332 02       		.uleb128 0x2
 589 0333 E0030000 		.4byte	.LASF62
 590 0337 06       		.byte	0x6
 591 0338 5C       		.byte	0x5c
 592 0339 3D030000 		.4byte	0x33d
 593 033d 0E       		.uleb128 0xe
 594 033e AA050000 		.4byte	.LASF63
 595 0342 14       		.byte	0x14
 596 0343 07       		.byte	0x7
 597 0344 4D01     		.2byte	0x14d
 598 0346 8C030000 		.4byte	0x38c
 599 034a 0D       		.uleb128 0xd
 600 034b 0C020000 		.4byte	.LASF64
 601 034f 07       		.byte	0x7
 602 0350 4E01     		.2byte	0x14e
 603 0352 71060000 		.4byte	0x671
 604 0356 00       		.byte	0
 605 0357 0D       		.uleb128 0xd
 606 0358 E0010000 		.4byte	.LASF65
 607 035c 07       		.byte	0x7
 608 035d 4F01     		.2byte	0x14f
 609 035f 71060000 		.4byte	0x671
 610 0363 04       		.byte	0x4
 611 0364 0D       		.uleb128 0xd
 612 0365 35020000 		.4byte	.LASF66
 613 0369 07       		.byte	0x7
 614 036a 5001     		.2byte	0x150
 615 036c 58010000 		.4byte	0x158
 616 0370 08       		.byte	0x8
 617 0371 0D       		.uleb128 0xd
 618 0372 58070000 		.4byte	.LASF67
 619 0376 07       		.byte	0x7
 620 0377 5101     		.2byte	0x151
ARM GAS  C:\Users\jo\AppData\Local\Temp\ccmd5NIP.s 			page 12


 621 0379 16030000 		.4byte	0x316
 622 037d 0C       		.byte	0xc
 623 037e 0D       		.uleb128 0xd
 624 037f E5060000 		.4byte	.LASF68
 625 0383 07       		.byte	0x7
 626 0384 5301     		.2byte	0x153
 627 0386 B4000000 		.4byte	0xb4
 628 038a 10       		.byte	0x10
 629 038b 00       		.byte	0
 630 038c 02       		.uleb128 0x2
 631 038d C4000000 		.4byte	.LASF69
 632 0391 06       		.byte	0x6
 633 0392 61       		.byte	0x61
 634 0393 97030000 		.4byte	0x397
 635 0397 0E       		.uleb128 0xe
 636 0398 21030000 		.4byte	.LASF70
 637 039c 10       		.byte	0x10
 638 039d 07       		.byte	0x7
 639 039e 5D01     		.2byte	0x15d
 640 03a0 D9030000 		.4byte	0x3d9
 641 03a4 0D       		.uleb128 0xd
 642 03a5 0C020000 		.4byte	.LASF64
 643 03a9 07       		.byte	0x7
 644 03aa 5E01     		.2byte	0x15e
 645 03ac 71060000 		.4byte	0x671
 646 03b0 00       		.byte	0
 647 03b1 0D       		.uleb128 0xd
 648 03b2 E0010000 		.4byte	.LASF65
 649 03b6 07       		.byte	0x7
 650 03b7 6001     		.2byte	0x160
 651 03b9 71060000 		.4byte	0x671
 652 03bd 04       		.byte	0x4
 653 03be 0D       		.uleb128 0xd
 654 03bf 35020000 		.4byte	.LASF66
 655 03c3 07       		.byte	0x7
 656 03c4 6201     		.2byte	0x162
 657 03c6 58010000 		.4byte	0x158
 658 03ca 08       		.byte	0x8
 659 03cb 0D       		.uleb128 0xd
 660 03cc 4F030000 		.4byte	.LASF71
 661 03d0 07       		.byte	0x7
 662 03d1 6A01     		.2byte	0x16a
 663 03d3 58010000 		.4byte	0x158
 664 03d7 0C       		.byte	0xc
 665 03d8 00       		.byte	0
 666 03d9 02       		.uleb128 0x2
 667 03da 4E000000 		.4byte	.LASF72
 668 03de 06       		.byte	0x6
 669 03df 66       		.byte	0x66
 670 03e0 E4030000 		.4byte	0x3e4
 671 03e4 0E       		.uleb128 0xe
 672 03e5 05040000 		.4byte	.LASF73
 673 03e9 04       		.byte	0x4
 674 03ea 07       		.byte	0x7
 675 03eb 8401     		.2byte	0x184
 676 03ed FF030000 		.4byte	0x3ff
 677 03f1 0D       		.uleb128 0xd
ARM GAS  C:\Users\jo\AppData\Local\Temp\ccmd5NIP.s 			page 13


 678 03f2 AB060000 		.4byte	.LASF74
 679 03f6 07       		.byte	0x7
 680 03f7 8C01     		.2byte	0x18c
 681 03f9 77060000 		.4byte	0x677
 682 03fd 00       		.byte	0
 683 03fe 00       		.byte	0
 684 03ff 02       		.uleb128 0x2
 685 0400 89020000 		.4byte	.LASF75
 686 0404 06       		.byte	0x6
 687 0405 6B       		.byte	0x6b
 688 0406 0A040000 		.4byte	0x40a
 689 040a 11       		.uleb128 0x11
 690 040b 4B010000 		.4byte	.LASF76
 691 040f D801     		.2byte	0x1d8
 692 0411 07       		.byte	0x7
 693 0412 A401     		.2byte	0x1a4
 694 0414 66040000 		.4byte	0x466
 695 0418 0D       		.uleb128 0xd
 696 0419 03070000 		.4byte	.LASF77
 697 041d 07       		.byte	0x7
 698 041e A801     		.2byte	0x1a8
 699 0420 AF020000 		.4byte	0x2af
 700 0424 00       		.byte	0
 701 0425 0D       		.uleb128 0xd
 702 0426 3E010000 		.4byte	.LASF78
 703 042a 07       		.byte	0x7
 704 042b AC01     		.2byte	0x1ac
 705 042d 8C030000 		.4byte	0x38c
 706 0431 1C       		.byte	0x1c
 707 0432 0C       		.uleb128 0xc
 708 0433 64626700 		.ascii	"dbg\000"
 709 0437 07       		.byte	0x7
 710 0438 B001     		.2byte	0x1b0
 711 043a D9030000 		.4byte	0x3d9
 712 043e 2C       		.byte	0x2c
 713 043f 0D       		.uleb128 0xd
 714 0440 B9000000 		.4byte	.LASF79
 715 0444 07       		.byte	0x7
 716 0445 B401     		.2byte	0x1b4
 717 0447 63010000 		.4byte	0x163
 718 044b 30       		.byte	0x30
 719 044c 0C       		.uleb128 0xc
 720 044d 746D00   		.ascii	"tm\000"
 721 0450 07       		.byte	0x7
 722 0451 B901     		.2byte	0x1b9
 723 0453 F1050000 		.4byte	0x5f1
 724 0457 74       		.byte	0x74
 725 0458 0D       		.uleb128 0xd
 726 0459 F0010000 		.4byte	.LASF80
 727 045d 07       		.byte	0x7
 728 045e C501     		.2byte	0x1c5
 729 0460 7C060000 		.4byte	0x67c
 730 0464 78       		.byte	0x78
 731 0465 00       		.byte	0
 732 0466 02       		.uleb128 0x2
 733 0467 D7010000 		.4byte	.LASF81
 734 046b 08       		.byte	0x8
ARM GAS  C:\Users\jo\AppData\Local\Temp\ccmd5NIP.s 			page 14


 735 046c 85       		.byte	0x85
 736 046d B4000000 		.4byte	0xb4
 737 0471 02       		.uleb128 0x2
 738 0472 C1020000 		.4byte	.LASF82
 739 0476 08       		.byte	0x8
 740 0477 8D       		.byte	0x8d
 741 0478 FB000000 		.4byte	0xfb
 742 047c 0A       		.uleb128 0xa
 743 047d C3060000 		.4byte	.LASF83
 744 0481 04       		.byte	0x4
 745 0482 08       		.byte	0x8
 746 0483 A9       		.byte	0xa9
 747 0484 95040000 		.4byte	0x495
 748 0488 12       		.uleb128 0x12
 749 0489 72313300 		.ascii	"r13\000"
 750 048d 08       		.byte	0x8
 751 048e AA       		.byte	0xaa
 752 048f D6050000 		.4byte	0x5d6
 753 0493 00       		.byte	0
 754 0494 00       		.byte	0
 755 0495 0A       		.uleb128 0xa
 756 0496 42000000 		.4byte	.LASF84
 757 049a 64       		.byte	0x64
 758 049b 09       		.byte	0x9
 759 049c F4       		.byte	0xf4
 760 049d D6050000 		.4byte	0x5d6
 761 04a1 12       		.uleb128 0x12
 762 04a2 73313600 		.ascii	"s16\000"
 763 04a6 09       		.byte	0x9
 764 04a7 F6       		.byte	0xf6
 765 04a8 66040000 		.4byte	0x466
 766 04ac 00       		.byte	0
 767 04ad 12       		.uleb128 0x12
 768 04ae 73313700 		.ascii	"s17\000"
 769 04b2 09       		.byte	0x9
 770 04b3 F7       		.byte	0xf7
 771 04b4 66040000 		.4byte	0x466
 772 04b8 04       		.byte	0x4
 773 04b9 12       		.uleb128 0x12
 774 04ba 73313800 		.ascii	"s18\000"
 775 04be 09       		.byte	0x9
 776 04bf F8       		.byte	0xf8
 777 04c0 66040000 		.4byte	0x466
 778 04c4 08       		.byte	0x8
 779 04c5 12       		.uleb128 0x12
 780 04c6 73313900 		.ascii	"s19\000"
 781 04ca 09       		.byte	0x9
 782 04cb F9       		.byte	0xf9
 783 04cc 66040000 		.4byte	0x466
 784 04d0 0C       		.byte	0xc
 785 04d1 12       		.uleb128 0x12
 786 04d2 73323000 		.ascii	"s20\000"
 787 04d6 09       		.byte	0x9
 788 04d7 FA       		.byte	0xfa
 789 04d8 66040000 		.4byte	0x466
 790 04dc 10       		.byte	0x10
 791 04dd 12       		.uleb128 0x12
ARM GAS  C:\Users\jo\AppData\Local\Temp\ccmd5NIP.s 			page 15


 792 04de 73323100 		.ascii	"s21\000"
 793 04e2 09       		.byte	0x9
 794 04e3 FB       		.byte	0xfb
 795 04e4 66040000 		.4byte	0x466
 796 04e8 14       		.byte	0x14
 797 04e9 12       		.uleb128 0x12
 798 04ea 73323200 		.ascii	"s22\000"
 799 04ee 09       		.byte	0x9
 800 04ef FC       		.byte	0xfc
 801 04f0 66040000 		.4byte	0x466
 802 04f4 18       		.byte	0x18
 803 04f5 12       		.uleb128 0x12
 804 04f6 73323300 		.ascii	"s23\000"
 805 04fa 09       		.byte	0x9
 806 04fb FD       		.byte	0xfd
 807 04fc 66040000 		.4byte	0x466
 808 0500 1C       		.byte	0x1c
 809 0501 12       		.uleb128 0x12
 810 0502 73323400 		.ascii	"s24\000"
 811 0506 09       		.byte	0x9
 812 0507 FE       		.byte	0xfe
 813 0508 66040000 		.4byte	0x466
 814 050c 20       		.byte	0x20
 815 050d 12       		.uleb128 0x12
 816 050e 73323500 		.ascii	"s25\000"
 817 0512 09       		.byte	0x9
 818 0513 FF       		.byte	0xff
 819 0514 66040000 		.4byte	0x466
 820 0518 24       		.byte	0x24
 821 0519 0C       		.uleb128 0xc
 822 051a 73323600 		.ascii	"s26\000"
 823 051e 09       		.byte	0x9
 824 051f 0001     		.2byte	0x100
 825 0521 66040000 		.4byte	0x466
 826 0525 28       		.byte	0x28
 827 0526 0C       		.uleb128 0xc
 828 0527 73323700 		.ascii	"s27\000"
 829 052b 09       		.byte	0x9
 830 052c 0101     		.2byte	0x101
 831 052e 66040000 		.4byte	0x466
 832 0532 2C       		.byte	0x2c
 833 0533 0C       		.uleb128 0xc
 834 0534 73323800 		.ascii	"s28\000"
 835 0538 09       		.byte	0x9
 836 0539 0201     		.2byte	0x102
 837 053b 66040000 		.4byte	0x466
 838 053f 30       		.byte	0x30
 839 0540 0C       		.uleb128 0xc
 840 0541 73323900 		.ascii	"s29\000"
 841 0545 09       		.byte	0x9
 842 0546 0301     		.2byte	0x103
 843 0548 66040000 		.4byte	0x466
 844 054c 34       		.byte	0x34
 845 054d 0C       		.uleb128 0xc
 846 054e 73333000 		.ascii	"s30\000"
 847 0552 09       		.byte	0x9
 848 0553 0401     		.2byte	0x104
ARM GAS  C:\Users\jo\AppData\Local\Temp\ccmd5NIP.s 			page 16


 849 0555 66040000 		.4byte	0x466
 850 0559 38       		.byte	0x38
 851 055a 0C       		.uleb128 0xc
 852 055b 73333100 		.ascii	"s31\000"
 853 055f 09       		.byte	0x9
 854 0560 0501     		.2byte	0x105
 855 0562 66040000 		.4byte	0x466
 856 0566 3C       		.byte	0x3c
 857 0567 0C       		.uleb128 0xc
 858 0568 723400   		.ascii	"r4\000"
 859 056b 09       		.byte	0x9
 860 056c 0701     		.2byte	0x107
 861 056e 66040000 		.4byte	0x466
 862 0572 40       		.byte	0x40
 863 0573 0C       		.uleb128 0xc
 864 0574 723500   		.ascii	"r5\000"
 865 0577 09       		.byte	0x9
 866 0578 0801     		.2byte	0x108
 867 057a 66040000 		.4byte	0x466
 868 057e 44       		.byte	0x44
 869 057f 0C       		.uleb128 0xc
 870 0580 723600   		.ascii	"r6\000"
 871 0583 09       		.byte	0x9
 872 0584 0901     		.2byte	0x109
 873 0586 66040000 		.4byte	0x466
 874 058a 48       		.byte	0x48
 875 058b 0C       		.uleb128 0xc
 876 058c 723700   		.ascii	"r7\000"
 877 058f 09       		.byte	0x9
 878 0590 0A01     		.2byte	0x10a
 879 0592 66040000 		.4byte	0x466
 880 0596 4C       		.byte	0x4c
 881 0597 0C       		.uleb128 0xc
 882 0598 723800   		.ascii	"r8\000"
 883 059b 09       		.byte	0x9
 884 059c 0B01     		.2byte	0x10b
 885 059e 66040000 		.4byte	0x466
 886 05a2 50       		.byte	0x50
 887 05a3 0C       		.uleb128 0xc
 888 05a4 723900   		.ascii	"r9\000"
 889 05a7 09       		.byte	0x9
 890 05a8 0C01     		.2byte	0x10c
 891 05aa 66040000 		.4byte	0x466
 892 05ae 54       		.byte	0x54
 893 05af 0C       		.uleb128 0xc
 894 05b0 72313000 		.ascii	"r10\000"
 895 05b4 09       		.byte	0x9
 896 05b5 0D01     		.2byte	0x10d
 897 05b7 66040000 		.4byte	0x466
 898 05bb 58       		.byte	0x58
 899 05bc 0C       		.uleb128 0xc
 900 05bd 72313100 		.ascii	"r11\000"
 901 05c1 09       		.byte	0x9
 902 05c2 0E01     		.2byte	0x10e
 903 05c4 66040000 		.4byte	0x466
 904 05c8 5C       		.byte	0x5c
 905 05c9 0C       		.uleb128 0xc
ARM GAS  C:\Users\jo\AppData\Local\Temp\ccmd5NIP.s 			page 17


 906 05ca 6C7200   		.ascii	"lr\000"
 907 05cd 09       		.byte	0x9
 908 05ce 0F01     		.2byte	0x10f
 909 05d0 66040000 		.4byte	0x466
 910 05d4 60       		.byte	0x60
 911 05d5 00       		.byte	0
 912 05d6 06       		.uleb128 0x6
 913 05d7 04       		.byte	0x4
 914 05d8 95040000 		.4byte	0x495
 915 05dc 13       		.uleb128 0x13
 916 05dd 04       		.byte	0x4
 917 05de 0A       		.byte	0xa
 918 05df 38       		.byte	0x38
 919 05e0 F1050000 		.4byte	0x5f1
 920 05e4 0B       		.uleb128 0xb
 921 05e5 B5060000 		.4byte	.LASF85
 922 05e9 0A       		.byte	0xa
 923 05ea 3C       		.byte	0x3c
 924 05eb 0B010000 		.4byte	0x10b
 925 05ef 00       		.byte	0
 926 05f0 00       		.byte	0
 927 05f1 02       		.uleb128 0x2
 928 05f2 74030000 		.4byte	.LASF86
 929 05f6 0A       		.byte	0xa
 930 05f7 3D       		.byte	0x3d
 931 05f8 DC050000 		.4byte	0x5dc
 932 05fc 06       		.uleb128 0x6
 933 05fd 04       		.byte	0x4
 934 05fe 63010000 		.4byte	0x163
 935 0602 14       		.uleb128 0x14
 936 0603 04       		.byte	0x4
 937 0604 07       		.byte	0x7
 938 0605 F6       		.byte	0xf6
 939 0606 3A060000 		.4byte	0x63a
 940 060a 15       		.uleb128 0x15
 941 060b 21000000 		.4byte	.LASF87
 942 060f 07       		.byte	0x7
 943 0610 FD       		.byte	0xfd
 944 0611 42010000 		.4byte	0x142
 945 0615 16       		.uleb128 0x16
 946 0616 B0000000 		.4byte	.LASF88
 947 061a 07       		.byte	0x7
 948 061b 0401     		.2byte	0x104
 949 061d 42010000 		.4byte	0x142
 950 0621 16       		.uleb128 0x16
 951 0622 27070000 		.4byte	.LASF89
 952 0626 07       		.byte	0x7
 953 0627 0B01     		.2byte	0x10b
 954 0629 B4000000 		.4byte	0xb4
 955 062d 16       		.uleb128 0x16
 956 062e 54040000 		.4byte	.LASF90
 957 0632 07       		.byte	0x7
 958 0633 1201     		.2byte	0x112
 959 0635 4D010000 		.4byte	0x14d
 960 0639 00       		.byte	0
 961 063a 0A       		.uleb128 0xa
 962 063b FF030000 		.4byte	.LASF91
ARM GAS  C:\Users\jo\AppData\Local\Temp\ccmd5NIP.s 			page 18


 963 063f 10       		.byte	0x10
 964 0640 0B       		.byte	0xb
 965 0641 39       		.byte	0x39
 966 0642 6B060000 		.4byte	0x66b
 967 0646 0B       		.uleb128 0xb
 968 0647 2C010000 		.4byte	.LASF92
 969 064b 0B       		.byte	0xb
 970 064c 3A       		.byte	0x3a
 971 064d 7F020000 		.4byte	0x27f
 972 0651 00       		.byte	0
 973 0652 0B       		.uleb128 0xb
 974 0653 4A070000 		.4byte	.LASF93
 975 0657 0B       		.byte	0xb
 976 0658 3C       		.byte	0x3c
 977 0659 FC050000 		.4byte	0x5fc
 978 065d 08       		.byte	0x8
 979 065e 0B       		.uleb128 0xb
 980 065f 7B060000 		.4byte	.LASF94
 981 0663 0B       		.byte	0xb
 982 0664 3E       		.byte	0x3e
 983 0665 97060000 		.4byte	0x697
 984 0669 0C       		.byte	0xc
 985 066a 00       		.byte	0
 986 066b 06       		.uleb128 0x6
 987 066c 04       		.byte	0x4
 988 066d 3A060000 		.4byte	0x63a
 989 0671 06       		.uleb128 0x6
 990 0672 04       		.byte	0x4
 991 0673 32030000 		.4byte	0x332
 992 0677 09       		.uleb128 0x9
 993 0678 BD000000 		.4byte	0xbd
 994 067c 17       		.uleb128 0x17
 995 067d 71040000 		.4byte	0x471
 996 0681 8C060000 		.4byte	0x68c
 997 0685 18       		.uleb128 0x18
 998 0686 AD000000 		.4byte	0xad
 999 068a 2B       		.byte	0x2b
 1000 068b 00       		.byte	0
 1001 068c 02       		.uleb128 0x2
 1002 068d E8010000 		.4byte	.LASF95
 1003 0691 0B       		.byte	0xb
 1004 0692 34       		.byte	0x34
 1005 0693 3A060000 		.4byte	0x63a
 1006 0697 06       		.uleb128 0x6
 1007 0698 04       		.byte	0x4
 1008 0699 8C060000 		.4byte	0x68c
 1009 069d 03       		.uleb128 0x3
 1010 069e 01       		.byte	0x1
 1011 069f 02       		.byte	0x2
 1012 06a0 15040000 		.4byte	.LASF96
 1013 06a4 02       		.uleb128 0x2
 1014 06a5 53020000 		.4byte	.LASF97
 1015 06a9 0C       		.byte	0xc
 1016 06aa 2B       		.byte	0x2b
 1017 06ab CF000000 		.4byte	0xcf
 1018 06af 02       		.uleb128 0x2
 1019 06b0 45010000 		.4byte	.LASF98
ARM GAS  C:\Users\jo\AppData\Local\Temp\ccmd5NIP.s 			page 19


 1020 06b4 0C       		.byte	0xc
 1021 06b5 2D       		.byte	0x2d
 1022 06b6 50000000 		.4byte	0x50
 1023 06ba 02       		.uleb128 0x2
 1024 06bb 48030000 		.4byte	.LASF99
 1025 06bf 0C       		.byte	0xc
 1026 06c0 30       		.byte	0x30
 1027 06c1 DA000000 		.4byte	0xda
 1028 06c5 19       		.uleb128 0x19
 1029 06c6 01       		.byte	0x1
 1030 06c7 0D       		.byte	0xd
 1031 06c8 3B       		.byte	0x3b
 1032 06c9 0A070000 		.4byte	0x70a
 1033 06cd 1A       		.uleb128 0x1a
 1034 06ce 69030000 		.4byte	.LASF100
 1035 06d2 00       		.sleb128 0
 1036 06d3 1A       		.uleb128 0x1a
 1037 06d4 51060000 		.4byte	.LASF101
 1038 06d8 01       		.sleb128 1
 1039 06d9 1A       		.uleb128 0x1a
 1040 06da CC020000 		.4byte	.LASF102
 1041 06de 02       		.sleb128 2
 1042 06df 1A       		.uleb128 0x1a
 1043 06e0 74010000 		.4byte	.LASF103
 1044 06e4 03       		.sleb128 3
 1045 06e5 1A       		.uleb128 0x1a
 1046 06e6 85030000 		.4byte	.LASF104
 1047 06ea 04       		.sleb128 4
 1048 06eb 1A       		.uleb128 0x1a
 1049 06ec 9E000000 		.4byte	.LASF105
 1050 06f0 05       		.sleb128 5
 1051 06f1 1A       		.uleb128 0x1a
 1052 06f2 C7030000 		.4byte	.LASF106
 1053 06f6 06       		.sleb128 6
 1054 06f7 1A       		.uleb128 0x1a
 1055 06f8 A2010000 		.4byte	.LASF107
 1056 06fc 08       		.sleb128 8
 1057 06fd 1A       		.uleb128 0x1a
 1058 06fe 07030000 		.4byte	.LASF108
 1059 0702 0A       		.sleb128 10
 1060 0703 1A       		.uleb128 0x1a
 1061 0704 91050000 		.4byte	.LASF109
 1062 0708 0B       		.sleb128 11
 1063 0709 00       		.byte	0
 1064 070a 02       		.uleb128 0x2
 1065 070b 0D000000 		.4byte	.LASF110
 1066 070f 0D       		.byte	0xd
 1067 0710 46       		.byte	0x46
 1068 0711 C5060000 		.4byte	0x6c5
 1069 0715 06       		.uleb128 0x6
 1070 0716 04       		.byte	0x4
 1071 0717 AF060000 		.4byte	0x6af
 1072 071b 06       		.uleb128 0x6
 1073 071c 04       		.byte	0x4
 1074 071d BA060000 		.4byte	0x6ba
 1075 0721 19       		.uleb128 0x19
 1076 0722 01       		.byte	0x1
ARM GAS  C:\Users\jo\AppData\Local\Temp\ccmd5NIP.s 			page 20


 1077 0723 0E       		.byte	0xe
 1078 0724 71       		.byte	0x71
 1079 0725 5A070000 		.4byte	0x75a
 1080 0729 1A       		.uleb128 0x1a
 1081 072a 7F020000 		.4byte	.LASF111
 1082 072e 00       		.sleb128 0
 1083 072f 1A       		.uleb128 0x1a
 1084 0730 65020000 		.4byte	.LASF112
 1085 0734 01       		.sleb128 1
 1086 0735 1A       		.uleb128 0x1a
 1087 0736 71060000 		.4byte	.LASF113
 1088 073a 02       		.sleb128 2
 1089 073b 1A       		.uleb128 0x1a
 1090 073c CB060000 		.4byte	.LASF114
 1091 0740 03       		.sleb128 3
 1092 0741 1A       		.uleb128 0x1a
 1093 0742 49020000 		.4byte	.LASF115
 1094 0746 04       		.sleb128 4
 1095 0747 1A       		.uleb128 0x1a
 1096 0748 28000000 		.4byte	.LASF116
 1097 074c 05       		.sleb128 5
 1098 074d 1A       		.uleb128 0x1a
 1099 074e 8D010000 		.4byte	.LASF117
 1100 0752 06       		.sleb128 6
 1101 0753 1A       		.uleb128 0x1a
 1102 0754 58020000 		.4byte	.LASF118
 1103 0758 07       		.sleb128 7
 1104 0759 00       		.byte	0
 1105 075a 02       		.uleb128 0x2
 1106 075b 5E010000 		.4byte	.LASF119
 1107 075f 0E       		.byte	0xe
 1108 0760 7A       		.byte	0x7a
 1109 0761 21070000 		.4byte	0x721
 1110 0765 06       		.uleb128 0x6
 1111 0766 04       		.byte	0x4
 1112 0767 6B070000 		.4byte	0x76b
 1113 076b 07       		.uleb128 0x7
 1114 076c AF060000 		.4byte	0x6af
 1115 0770 1B       		.uleb128 0x1b
 1116 0771 19070000 		.4byte	.LASF124
 1117 0775 01       		.byte	0x1
 1118 0776 35       		.byte	0x35
 1119 0777 5A070000 		.4byte	0x75a
 1120 077b 00000000 		.4byte	.LFB256
 1121 077f 48000000 		.4byte	.LFE256-.LFB256
 1122 0783 01       		.uleb128 0x1
 1123 0784 9C       		.byte	0x9c
 1124 0785 F6070000 		.4byte	0x7f6
 1125 0789 1C       		.uleb128 0x1c
 1126 078a 34010000 		.4byte	.LASF120
 1127 078e 01       		.byte	0x1
 1128 078f 35       		.byte	0x35
 1129 0790 AF060000 		.4byte	0x6af
 1130 0794 00000000 		.4byte	.LLST0
 1131 0798 1C       		.uleb128 0x1c
 1132 0799 19010000 		.4byte	.LASF121
 1133 079d 01       		.byte	0x1
ARM GAS  C:\Users\jo\AppData\Local\Temp\ccmd5NIP.s 			page 21


 1134 079e 35       		.byte	0x35
 1135 079f A4060000 		.4byte	0x6a4
 1136 07a3 49000000 		.4byte	.LLST1
 1137 07a7 1C       		.uleb128 0x1c
 1138 07a8 83050000 		.4byte	.LASF122
 1139 07ac 01       		.byte	0x1
 1140 07ad 36       		.byte	0x36
 1141 07ae 65070000 		.4byte	0x765
 1142 07b2 6A000000 		.4byte	.LLST2
 1143 07b6 1C       		.uleb128 0x1c
 1144 07b7 38030000 		.4byte	.LASF123
 1145 07bb 01       		.byte	0x1
 1146 07bc 36       		.byte	0x36
 1147 07bd BA060000 		.4byte	0x6ba
 1148 07c1 96000000 		.4byte	.LLST3
 1149 07c5 1D       		.uleb128 0x1d
 1150 07c6 11070000 		.4byte	.LASF128
 1151 07ca 01       		.byte	0x1
 1152 07cb 38       		.byte	0x38
 1153 07cc 5A070000 		.4byte	0x75a
 1154 07d0 B7000000 		.4byte	.LLST4
 1155 07d4 1E       		.uleb128 0x1e
 1156 07d5 34000000 		.4byte	.LVL8
 1157 07d9 99080000 		.4byte	0x899
 1158 07dd 1F       		.uleb128 0x1f
 1159 07de 01       		.uleb128 0x1
 1160 07df 52       		.byte	0x52
 1161 07e0 03       		.uleb128 0x3
 1162 07e1 91       		.byte	0x91
 1163 07e2 6C       		.sleb128 -20
 1164 07e3 06       		.byte	0x6
 1165 07e4 1F       		.uleb128 0x1f
 1166 07e5 01       		.uleb128 0x1
 1167 07e6 51       		.byte	0x51
 1168 07e7 03       		.uleb128 0x3
 1169 07e8 F3       		.byte	0xf3
 1170 07e9 01       		.uleb128 0x1
 1171 07ea 52       		.byte	0x52
 1172 07eb 1F       		.uleb128 0x1f
 1173 07ec 01       		.uleb128 0x1
 1174 07ed 50       		.byte	0x50
 1175 07ee 05       		.uleb128 0x5
 1176 07ef 03       		.byte	0x3
 1177 07f0 02000000 		.4byte	.LANCHOR0+2
 1178 07f4 00       		.byte	0
 1179 07f5 00       		.byte	0
 1180 07f6 1B       		.uleb128 0x1b
 1181 07f7 B2030000 		.4byte	.LASF125
 1182 07fb 01       		.byte	0x1
 1183 07fc 51       		.byte	0x51
 1184 07fd 0A070000 		.4byte	0x70a
 1185 0801 00000000 		.4byte	.LFB257
 1186 0805 24000000 		.4byte	.LFE257-.LFB257
 1187 0809 01       		.uleb128 0x1
 1188 080a 9C       		.byte	0x9c
 1189 080b 50080000 		.4byte	0x850
 1190 080f 1C       		.uleb128 0x1c
ARM GAS  C:\Users\jo\AppData\Local\Temp\ccmd5NIP.s 			page 22


 1191 0810 2C020000 		.4byte	.LASF126
 1192 0814 01       		.byte	0x1
 1193 0815 51       		.byte	0x51
 1194 0816 15070000 		.4byte	0x715
 1195 081a 04010000 		.4byte	.LLST5
 1196 081e 1C       		.uleb128 0x1c
 1197 081f DF060000 		.4byte	.LASF127
 1198 0823 01       		.byte	0x1
 1199 0824 51       		.byte	0x51
 1200 0825 1B070000 		.4byte	0x71b
 1201 0829 32010000 		.4byte	.LLST6
 1202 082d 1E       		.uleb128 0x1e
 1203 082e 14000000 		.4byte	.LVL13
 1204 0832 99080000 		.4byte	0x899
 1205 0836 1F       		.uleb128 0x1f
 1206 0837 01       		.uleb128 0x1
 1207 0838 52       		.byte	0x52
 1208 0839 02       		.uleb128 0x2
 1209 083a 74       		.byte	0x74
 1210 083b 7F       		.sleb128 -1
 1211 083c 1F       		.uleb128 0x1f
 1212 083d 01       		.uleb128 0x1
 1213 083e 51       		.byte	0x51
 1214 083f 05       		.uleb128 0x5
 1215 0840 03       		.byte	0x3
 1216 0841 00000000 		.4byte	.LANCHOR0
 1217 0845 1F       		.uleb128 0x1f
 1218 0846 01       		.uleb128 0x1
 1219 0847 50       		.byte	0x50
 1220 0848 05       		.uleb128 0x5
 1221 0849 F3       		.byte	0xf3
 1222 084a 01       		.uleb128 0x1
 1223 084b 50       		.byte	0x50
 1224 084c 23       		.byte	0x23
 1225 084d 01       		.uleb128 0x1
 1226 084e 00       		.byte	0
 1227 084f 00       		.byte	0
 1228 0850 17       		.uleb128 0x17
 1229 0851 AF060000 		.4byte	0x6af
 1230 0855 60080000 		.4byte	0x860
 1231 0859 18       		.uleb128 0x18
 1232 085a AD000000 		.4byte	0xad
 1233 085e 1F       		.byte	0x1f
 1234 085f 00       		.byte	0
 1235 0860 20       		.uleb128 0x20
 1236 0861 F2020000 		.4byte	.LASF129
 1237 0865 01       		.byte	0x1
 1238 0866 2F       		.byte	0x2f
 1239 0867 50080000 		.4byte	0x850
 1240 086b 05       		.uleb128 0x5
 1241 086c 03       		.byte	0x3
 1242 086d 00000000 		.4byte	ucMBSlaveID
 1243 0871 20       		.uleb128 0x20
 1244 0872 1D020000 		.4byte	.LASF130
 1245 0876 01       		.byte	0x1
 1246 0877 30       		.byte	0x30
 1247 0878 BA060000 		.4byte	0x6ba
ARM GAS  C:\Users\jo\AppData\Local\Temp\ccmd5NIP.s 			page 23


 1248 087c 05       		.uleb128 0x5
 1249 087d 03       		.byte	0x3
 1250 087e 00000000 		.4byte	usMBSlaveIDLen
 1251 0882 21       		.uleb128 0x21
 1252 0883 DA000000 		.4byte	.LASF131
 1253 0887 0F       		.byte	0xf
 1254 0888 A706     		.2byte	0x6a7
 1255 088a 06010000 		.4byte	0x106
 1256 088e 22       		.uleb128 0x22
 1257 088f 636800   		.ascii	"ch\000"
 1258 0892 07       		.byte	0x7
 1259 0893 EB01     		.2byte	0x1eb
 1260 0895 FF030000 		.4byte	0x3ff
 1261 0899 23       		.uleb128 0x23
 1262 089a BC060000 		.4byte	.LASF135
 1263 089e B4000000 		.4byte	0xb4
 1264 08a2 10       		.uleb128 0x10
 1265 08a3 B4000000 		.4byte	0xb4
 1266 08a7 10       		.uleb128 0x10
 1267 08a8 C8000000 		.4byte	0xc8
 1268 08ac 10       		.uleb128 0x10
 1269 08ad AD000000 		.4byte	0xad
 1270 08b1 00       		.byte	0
 1271 08b2 00       		.byte	0
 1272              		.section	.debug_abbrev,"",%progbits
 1273              	.Ldebug_abbrev0:
 1274 0000 01       		.uleb128 0x1
 1275 0001 11       		.uleb128 0x11
 1276 0002 01       		.byte	0x1
 1277 0003 25       		.uleb128 0x25
 1278 0004 0E       		.uleb128 0xe
 1279 0005 13       		.uleb128 0x13
 1280 0006 0B       		.uleb128 0xb
 1281 0007 03       		.uleb128 0x3
 1282 0008 0E       		.uleb128 0xe
 1283 0009 1B       		.uleb128 0x1b
 1284 000a 0E       		.uleb128 0xe
 1285 000b 55       		.uleb128 0x55
 1286 000c 17       		.uleb128 0x17
 1287 000d 11       		.uleb128 0x11
 1288 000e 01       		.uleb128 0x1
 1289 000f 10       		.uleb128 0x10
 1290 0010 17       		.uleb128 0x17
 1291 0011 00       		.byte	0
 1292 0012 00       		.byte	0
 1293 0013 02       		.uleb128 0x2
 1294 0014 16       		.uleb128 0x16
 1295 0015 00       		.byte	0
 1296 0016 03       		.uleb128 0x3
 1297 0017 0E       		.uleb128 0xe
 1298 0018 3A       		.uleb128 0x3a
 1299 0019 0B       		.uleb128 0xb
 1300 001a 3B       		.uleb128 0x3b
 1301 001b 0B       		.uleb128 0xb
 1302 001c 49       		.uleb128 0x49
 1303 001d 13       		.uleb128 0x13
 1304 001e 00       		.byte	0
ARM GAS  C:\Users\jo\AppData\Local\Temp\ccmd5NIP.s 			page 24


 1305 001f 00       		.byte	0
 1306 0020 03       		.uleb128 0x3
 1307 0021 24       		.uleb128 0x24
 1308 0022 00       		.byte	0
 1309 0023 0B       		.uleb128 0xb
 1310 0024 0B       		.uleb128 0xb
 1311 0025 3E       		.uleb128 0x3e
 1312 0026 0B       		.uleb128 0xb
 1313 0027 03       		.uleb128 0x3
 1314 0028 0E       		.uleb128 0xe
 1315 0029 00       		.byte	0
 1316 002a 00       		.byte	0
 1317 002b 04       		.uleb128 0x4
 1318 002c 24       		.uleb128 0x24
 1319 002d 00       		.byte	0
 1320 002e 0B       		.uleb128 0xb
 1321 002f 0B       		.uleb128 0xb
 1322 0030 3E       		.uleb128 0x3e
 1323 0031 0B       		.uleb128 0xb
 1324 0032 03       		.uleb128 0x3
 1325 0033 08       		.uleb128 0x8
 1326 0034 00       		.byte	0
 1327 0035 00       		.byte	0
 1328 0036 05       		.uleb128 0x5
 1329 0037 0F       		.uleb128 0xf
 1330 0038 00       		.byte	0
 1331 0039 0B       		.uleb128 0xb
 1332 003a 0B       		.uleb128 0xb
 1333 003b 00       		.byte	0
 1334 003c 00       		.byte	0
 1335 003d 06       		.uleb128 0x6
 1336 003e 0F       		.uleb128 0xf
 1337 003f 00       		.byte	0
 1338 0040 0B       		.uleb128 0xb
 1339 0041 0B       		.uleb128 0xb
 1340 0042 49       		.uleb128 0x49
 1341 0043 13       		.uleb128 0x13
 1342 0044 00       		.byte	0
 1343 0045 00       		.byte	0
 1344 0046 07       		.uleb128 0x7
 1345 0047 26       		.uleb128 0x26
 1346 0048 00       		.byte	0
 1347 0049 49       		.uleb128 0x49
 1348 004a 13       		.uleb128 0x13
 1349 004b 00       		.byte	0
 1350 004c 00       		.byte	0
 1351 004d 08       		.uleb128 0x8
 1352 004e 26       		.uleb128 0x26
 1353 004f 00       		.byte	0
 1354 0050 00       		.byte	0
 1355 0051 00       		.byte	0
 1356 0052 09       		.uleb128 0x9
 1357 0053 35       		.uleb128 0x35
 1358 0054 00       		.byte	0
 1359 0055 49       		.uleb128 0x49
 1360 0056 13       		.uleb128 0x13
 1361 0057 00       		.byte	0
ARM GAS  C:\Users\jo\AppData\Local\Temp\ccmd5NIP.s 			page 25


 1362 0058 00       		.byte	0
 1363 0059 0A       		.uleb128 0xa
 1364 005a 13       		.uleb128 0x13
 1365 005b 01       		.byte	0x1
 1366 005c 03       		.uleb128 0x3
 1367 005d 0E       		.uleb128 0xe
 1368 005e 0B       		.uleb128 0xb
 1369 005f 0B       		.uleb128 0xb
 1370 0060 3A       		.uleb128 0x3a
 1371 0061 0B       		.uleb128 0xb
 1372 0062 3B       		.uleb128 0x3b
 1373 0063 0B       		.uleb128 0xb
 1374 0064 01       		.uleb128 0x1
 1375 0065 13       		.uleb128 0x13
 1376 0066 00       		.byte	0
 1377 0067 00       		.byte	0
 1378 0068 0B       		.uleb128 0xb
 1379 0069 0D       		.uleb128 0xd
 1380 006a 00       		.byte	0
 1381 006b 03       		.uleb128 0x3
 1382 006c 0E       		.uleb128 0xe
 1383 006d 3A       		.uleb128 0x3a
 1384 006e 0B       		.uleb128 0xb
 1385 006f 3B       		.uleb128 0x3b
 1386 0070 0B       		.uleb128 0xb
 1387 0071 49       		.uleb128 0x49
 1388 0072 13       		.uleb128 0x13
 1389 0073 38       		.uleb128 0x38
 1390 0074 0B       		.uleb128 0xb
 1391 0075 00       		.byte	0
 1392 0076 00       		.byte	0
 1393 0077 0C       		.uleb128 0xc
 1394 0078 0D       		.uleb128 0xd
 1395 0079 00       		.byte	0
 1396 007a 03       		.uleb128 0x3
 1397 007b 08       		.uleb128 0x8
 1398 007c 3A       		.uleb128 0x3a
 1399 007d 0B       		.uleb128 0xb
 1400 007e 3B       		.uleb128 0x3b
 1401 007f 05       		.uleb128 0x5
 1402 0080 49       		.uleb128 0x49
 1403 0081 13       		.uleb128 0x13
 1404 0082 38       		.uleb128 0x38
 1405 0083 0B       		.uleb128 0xb
 1406 0084 00       		.byte	0
 1407 0085 00       		.byte	0
 1408 0086 0D       		.uleb128 0xd
 1409 0087 0D       		.uleb128 0xd
 1410 0088 00       		.byte	0
 1411 0089 03       		.uleb128 0x3
 1412 008a 0E       		.uleb128 0xe
 1413 008b 3A       		.uleb128 0x3a
 1414 008c 0B       		.uleb128 0xb
 1415 008d 3B       		.uleb128 0x3b
 1416 008e 05       		.uleb128 0x5
 1417 008f 49       		.uleb128 0x49
 1418 0090 13       		.uleb128 0x13
ARM GAS  C:\Users\jo\AppData\Local\Temp\ccmd5NIP.s 			page 26


 1419 0091 38       		.uleb128 0x38
 1420 0092 0B       		.uleb128 0xb
 1421 0093 00       		.byte	0
 1422 0094 00       		.byte	0
 1423 0095 0E       		.uleb128 0xe
 1424 0096 13       		.uleb128 0x13
 1425 0097 01       		.byte	0x1
 1426 0098 03       		.uleb128 0x3
 1427 0099 0E       		.uleb128 0xe
 1428 009a 0B       		.uleb128 0xb
 1429 009b 0B       		.uleb128 0xb
 1430 009c 3A       		.uleb128 0x3a
 1431 009d 0B       		.uleb128 0xb
 1432 009e 3B       		.uleb128 0x3b
 1433 009f 05       		.uleb128 0x5
 1434 00a0 01       		.uleb128 0x1
 1435 00a1 13       		.uleb128 0x13
 1436 00a2 00       		.byte	0
 1437 00a3 00       		.byte	0
 1438 00a4 0F       		.uleb128 0xf
 1439 00a5 15       		.uleb128 0x15
 1440 00a6 01       		.byte	0x1
 1441 00a7 27       		.uleb128 0x27
 1442 00a8 19       		.uleb128 0x19
 1443 00a9 01       		.uleb128 0x1
 1444 00aa 13       		.uleb128 0x13
 1445 00ab 00       		.byte	0
 1446 00ac 00       		.byte	0
 1447 00ad 10       		.uleb128 0x10
 1448 00ae 05       		.uleb128 0x5
 1449 00af 00       		.byte	0
 1450 00b0 49       		.uleb128 0x49
 1451 00b1 13       		.uleb128 0x13
 1452 00b2 00       		.byte	0
 1453 00b3 00       		.byte	0
 1454 00b4 11       		.uleb128 0x11
 1455 00b5 13       		.uleb128 0x13
 1456 00b6 01       		.byte	0x1
 1457 00b7 03       		.uleb128 0x3
 1458 00b8 0E       		.uleb128 0xe
 1459 00b9 0B       		.uleb128 0xb
 1460 00ba 05       		.uleb128 0x5
 1461 00bb 3A       		.uleb128 0x3a
 1462 00bc 0B       		.uleb128 0xb
 1463 00bd 3B       		.uleb128 0x3b
 1464 00be 05       		.uleb128 0x5
 1465 00bf 01       		.uleb128 0x1
 1466 00c0 13       		.uleb128 0x13
 1467 00c1 00       		.byte	0
 1468 00c2 00       		.byte	0
 1469 00c3 12       		.uleb128 0x12
 1470 00c4 0D       		.uleb128 0xd
 1471 00c5 00       		.byte	0
 1472 00c6 03       		.uleb128 0x3
 1473 00c7 08       		.uleb128 0x8
 1474 00c8 3A       		.uleb128 0x3a
 1475 00c9 0B       		.uleb128 0xb
ARM GAS  C:\Users\jo\AppData\Local\Temp\ccmd5NIP.s 			page 27


 1476 00ca 3B       		.uleb128 0x3b
 1477 00cb 0B       		.uleb128 0xb
 1478 00cc 49       		.uleb128 0x49
 1479 00cd 13       		.uleb128 0x13
 1480 00ce 38       		.uleb128 0x38
 1481 00cf 0B       		.uleb128 0xb
 1482 00d0 00       		.byte	0
 1483 00d1 00       		.byte	0
 1484 00d2 13       		.uleb128 0x13
 1485 00d3 13       		.uleb128 0x13
 1486 00d4 01       		.byte	0x1
 1487 00d5 0B       		.uleb128 0xb
 1488 00d6 0B       		.uleb128 0xb
 1489 00d7 3A       		.uleb128 0x3a
 1490 00d8 0B       		.uleb128 0xb
 1491 00d9 3B       		.uleb128 0x3b
 1492 00da 0B       		.uleb128 0xb
 1493 00db 01       		.uleb128 0x1
 1494 00dc 13       		.uleb128 0x13
 1495 00dd 00       		.byte	0
 1496 00de 00       		.byte	0
 1497 00df 14       		.uleb128 0x14
 1498 00e0 17       		.uleb128 0x17
 1499 00e1 01       		.byte	0x1
 1500 00e2 0B       		.uleb128 0xb
 1501 00e3 0B       		.uleb128 0xb
 1502 00e4 3A       		.uleb128 0x3a
 1503 00e5 0B       		.uleb128 0xb
 1504 00e6 3B       		.uleb128 0x3b
 1505 00e7 0B       		.uleb128 0xb
 1506 00e8 01       		.uleb128 0x1
 1507 00e9 13       		.uleb128 0x13
 1508 00ea 00       		.byte	0
 1509 00eb 00       		.byte	0
 1510 00ec 15       		.uleb128 0x15
 1511 00ed 0D       		.uleb128 0xd
 1512 00ee 00       		.byte	0
 1513 00ef 03       		.uleb128 0x3
 1514 00f0 0E       		.uleb128 0xe
 1515 00f1 3A       		.uleb128 0x3a
 1516 00f2 0B       		.uleb128 0xb
 1517 00f3 3B       		.uleb128 0x3b
 1518 00f4 0B       		.uleb128 0xb
 1519 00f5 49       		.uleb128 0x49
 1520 00f6 13       		.uleb128 0x13
 1521 00f7 00       		.byte	0
 1522 00f8 00       		.byte	0
 1523 00f9 16       		.uleb128 0x16
 1524 00fa 0D       		.uleb128 0xd
 1525 00fb 00       		.byte	0
 1526 00fc 03       		.uleb128 0x3
 1527 00fd 0E       		.uleb128 0xe
 1528 00fe 3A       		.uleb128 0x3a
 1529 00ff 0B       		.uleb128 0xb
 1530 0100 3B       		.uleb128 0x3b
 1531 0101 05       		.uleb128 0x5
 1532 0102 49       		.uleb128 0x49
ARM GAS  C:\Users\jo\AppData\Local\Temp\ccmd5NIP.s 			page 28


 1533 0103 13       		.uleb128 0x13
 1534 0104 00       		.byte	0
 1535 0105 00       		.byte	0
 1536 0106 17       		.uleb128 0x17
 1537 0107 01       		.uleb128 0x1
 1538 0108 01       		.byte	0x1
 1539 0109 49       		.uleb128 0x49
 1540 010a 13       		.uleb128 0x13
 1541 010b 01       		.uleb128 0x1
 1542 010c 13       		.uleb128 0x13
 1543 010d 00       		.byte	0
 1544 010e 00       		.byte	0
 1545 010f 18       		.uleb128 0x18
 1546 0110 21       		.uleb128 0x21
 1547 0111 00       		.byte	0
 1548 0112 49       		.uleb128 0x49
 1549 0113 13       		.uleb128 0x13
 1550 0114 2F       		.uleb128 0x2f
 1551 0115 0B       		.uleb128 0xb
 1552 0116 00       		.byte	0
 1553 0117 00       		.byte	0
 1554 0118 19       		.uleb128 0x19
 1555 0119 04       		.uleb128 0x4
 1556 011a 01       		.byte	0x1
 1557 011b 0B       		.uleb128 0xb
 1558 011c 0B       		.uleb128 0xb
 1559 011d 3A       		.uleb128 0x3a
 1560 011e 0B       		.uleb128 0xb
 1561 011f 3B       		.uleb128 0x3b
 1562 0120 0B       		.uleb128 0xb
 1563 0121 01       		.uleb128 0x1
 1564 0122 13       		.uleb128 0x13
 1565 0123 00       		.byte	0
 1566 0124 00       		.byte	0
 1567 0125 1A       		.uleb128 0x1a
 1568 0126 28       		.uleb128 0x28
 1569 0127 00       		.byte	0
 1570 0128 03       		.uleb128 0x3
 1571 0129 0E       		.uleb128 0xe
 1572 012a 1C       		.uleb128 0x1c
 1573 012b 0D       		.uleb128 0xd
 1574 012c 00       		.byte	0
 1575 012d 00       		.byte	0
 1576 012e 1B       		.uleb128 0x1b
 1577 012f 2E       		.uleb128 0x2e
 1578 0130 01       		.byte	0x1
 1579 0131 3F       		.uleb128 0x3f
 1580 0132 19       		.uleb128 0x19
 1581 0133 03       		.uleb128 0x3
 1582 0134 0E       		.uleb128 0xe
 1583 0135 3A       		.uleb128 0x3a
 1584 0136 0B       		.uleb128 0xb
 1585 0137 3B       		.uleb128 0x3b
 1586 0138 0B       		.uleb128 0xb
 1587 0139 27       		.uleb128 0x27
 1588 013a 19       		.uleb128 0x19
 1589 013b 49       		.uleb128 0x49
ARM GAS  C:\Users\jo\AppData\Local\Temp\ccmd5NIP.s 			page 29


 1590 013c 13       		.uleb128 0x13
 1591 013d 11       		.uleb128 0x11
 1592 013e 01       		.uleb128 0x1
 1593 013f 12       		.uleb128 0x12
 1594 0140 06       		.uleb128 0x6
 1595 0141 40       		.uleb128 0x40
 1596 0142 18       		.uleb128 0x18
 1597 0143 9742     		.uleb128 0x2117
 1598 0145 19       		.uleb128 0x19
 1599 0146 01       		.uleb128 0x1
 1600 0147 13       		.uleb128 0x13
 1601 0148 00       		.byte	0
 1602 0149 00       		.byte	0
 1603 014a 1C       		.uleb128 0x1c
 1604 014b 05       		.uleb128 0x5
 1605 014c 00       		.byte	0
 1606 014d 03       		.uleb128 0x3
 1607 014e 0E       		.uleb128 0xe
 1608 014f 3A       		.uleb128 0x3a
 1609 0150 0B       		.uleb128 0xb
 1610 0151 3B       		.uleb128 0x3b
 1611 0152 0B       		.uleb128 0xb
 1612 0153 49       		.uleb128 0x49
 1613 0154 13       		.uleb128 0x13
 1614 0155 02       		.uleb128 0x2
 1615 0156 17       		.uleb128 0x17
 1616 0157 00       		.byte	0
 1617 0158 00       		.byte	0
 1618 0159 1D       		.uleb128 0x1d
 1619 015a 34       		.uleb128 0x34
 1620 015b 00       		.byte	0
 1621 015c 03       		.uleb128 0x3
 1622 015d 0E       		.uleb128 0xe
 1623 015e 3A       		.uleb128 0x3a
 1624 015f 0B       		.uleb128 0xb
 1625 0160 3B       		.uleb128 0x3b
 1626 0161 0B       		.uleb128 0xb
 1627 0162 49       		.uleb128 0x49
 1628 0163 13       		.uleb128 0x13
 1629 0164 02       		.uleb128 0x2
 1630 0165 17       		.uleb128 0x17
 1631 0166 00       		.byte	0
 1632 0167 00       		.byte	0
 1633 0168 1E       		.uleb128 0x1e
 1634 0169 898201   		.uleb128 0x4109
 1635 016c 01       		.byte	0x1
 1636 016d 11       		.uleb128 0x11
 1637 016e 01       		.uleb128 0x1
 1638 016f 31       		.uleb128 0x31
 1639 0170 13       		.uleb128 0x13
 1640 0171 00       		.byte	0
 1641 0172 00       		.byte	0
 1642 0173 1F       		.uleb128 0x1f
 1643 0174 8A8201   		.uleb128 0x410a
 1644 0177 00       		.byte	0
 1645 0178 02       		.uleb128 0x2
 1646 0179 18       		.uleb128 0x18
ARM GAS  C:\Users\jo\AppData\Local\Temp\ccmd5NIP.s 			page 30


 1647 017a 9142     		.uleb128 0x2111
 1648 017c 18       		.uleb128 0x18
 1649 017d 00       		.byte	0
 1650 017e 00       		.byte	0
 1651 017f 20       		.uleb128 0x20
 1652 0180 34       		.uleb128 0x34
 1653 0181 00       		.byte	0
 1654 0182 03       		.uleb128 0x3
 1655 0183 0E       		.uleb128 0xe
 1656 0184 3A       		.uleb128 0x3a
 1657 0185 0B       		.uleb128 0xb
 1658 0186 3B       		.uleb128 0x3b
 1659 0187 0B       		.uleb128 0xb
 1660 0188 49       		.uleb128 0x49
 1661 0189 13       		.uleb128 0x13
 1662 018a 02       		.uleb128 0x2
 1663 018b 18       		.uleb128 0x18
 1664 018c 00       		.byte	0
 1665 018d 00       		.byte	0
 1666 018e 21       		.uleb128 0x21
 1667 018f 34       		.uleb128 0x34
 1668 0190 00       		.byte	0
 1669 0191 03       		.uleb128 0x3
 1670 0192 0E       		.uleb128 0xe
 1671 0193 3A       		.uleb128 0x3a
 1672 0194 0B       		.uleb128 0xb
 1673 0195 3B       		.uleb128 0x3b
 1674 0196 05       		.uleb128 0x5
 1675 0197 49       		.uleb128 0x49
 1676 0198 13       		.uleb128 0x13
 1677 0199 3F       		.uleb128 0x3f
 1678 019a 19       		.uleb128 0x19
 1679 019b 3C       		.uleb128 0x3c
 1680 019c 19       		.uleb128 0x19
 1681 019d 00       		.byte	0
 1682 019e 00       		.byte	0
 1683 019f 22       		.uleb128 0x22
 1684 01a0 34       		.uleb128 0x34
 1685 01a1 00       		.byte	0
 1686 01a2 03       		.uleb128 0x3
 1687 01a3 08       		.uleb128 0x8
 1688 01a4 3A       		.uleb128 0x3a
 1689 01a5 0B       		.uleb128 0xb
 1690 01a6 3B       		.uleb128 0x3b
 1691 01a7 05       		.uleb128 0x5
 1692 01a8 49       		.uleb128 0x49
 1693 01a9 13       		.uleb128 0x13
 1694 01aa 3F       		.uleb128 0x3f
 1695 01ab 19       		.uleb128 0x19
 1696 01ac 3C       		.uleb128 0x3c
 1697 01ad 19       		.uleb128 0x19
 1698 01ae 00       		.byte	0
 1699 01af 00       		.byte	0
 1700 01b0 23       		.uleb128 0x23
 1701 01b1 2E       		.uleb128 0x2e
 1702 01b2 01       		.byte	0x1
 1703 01b3 3F       		.uleb128 0x3f
ARM GAS  C:\Users\jo\AppData\Local\Temp\ccmd5NIP.s 			page 31


 1704 01b4 19       		.uleb128 0x19
 1705 01b5 03       		.uleb128 0x3
 1706 01b6 0E       		.uleb128 0xe
 1707 01b7 27       		.uleb128 0x27
 1708 01b8 19       		.uleb128 0x19
 1709 01b9 49       		.uleb128 0x49
 1710 01ba 13       		.uleb128 0x13
 1711 01bb 34       		.uleb128 0x34
 1712 01bc 19       		.uleb128 0x19
 1713 01bd 3C       		.uleb128 0x3c
 1714 01be 19       		.uleb128 0x19
 1715 01bf 00       		.byte	0
 1716 01c0 00       		.byte	0
 1717 01c1 00       		.byte	0
 1718              		.section	.debug_loc,"",%progbits
 1719              	.Ldebug_loc0:
 1720              	.LLST0:
 1721 0000 00000000 		.4byte	.LVL0
 1722 0004 06000000 		.4byte	.LVL1
 1723 0008 0100     		.2byte	0x1
 1724 000a 50       		.byte	0x50
 1725 000b 06000000 		.4byte	.LVL1
 1726 000f 08000000 		.4byte	.LVL2
 1727 0013 0400     		.2byte	0x4
 1728 0015 F3       		.byte	0xf3
 1729 0016 01       		.uleb128 0x1
 1730 0017 50       		.byte	0x50
 1731 0018 9F       		.byte	0x9f
 1732 0019 08000000 		.4byte	.LVL2
 1733 001d 1A000000 		.4byte	.LVL4
 1734 0021 0100     		.2byte	0x1
 1735 0023 50       		.byte	0x50
 1736 0024 1A000000 		.4byte	.LVL4
 1737 0028 33000000 		.4byte	.LVL8-1
 1738 002c 0500     		.2byte	0x5
 1739 002e 03       		.byte	0x3
 1740 002f 00000000 		.4byte	ucMBSlaveID
 1741 0033 33000000 		.4byte	.LVL8-1
 1742 0037 48000000 		.4byte	.LFE256
 1743 003b 0400     		.2byte	0x4
 1744 003d F3       		.byte	0xf3
 1745 003e 01       		.uleb128 0x1
 1746 003f 50       		.byte	0x50
 1747 0040 9F       		.byte	0x9f
 1748 0041 00000000 		.4byte	0
 1749 0045 00000000 		.4byte	0
 1750              	.LLST1:
 1751 0049 00000000 		.4byte	.LVL0
 1752 004d 0E000000 		.4byte	.LVL3
 1753 0051 0100     		.2byte	0x1
 1754 0053 51       		.byte	0x51
 1755 0054 0E000000 		.4byte	.LVL3
 1756 0058 48000000 		.4byte	.LFE256
 1757 005c 0400     		.2byte	0x4
 1758 005e F3       		.byte	0xf3
 1759 005f 01       		.uleb128 0x1
 1760 0060 51       		.byte	0x51
ARM GAS  C:\Users\jo\AppData\Local\Temp\ccmd5NIP.s 			page 32


 1761 0061 9F       		.byte	0x9f
 1762 0062 00000000 		.4byte	0
 1763 0066 00000000 		.4byte	0
 1764              	.LLST2:
 1765 006a 00000000 		.4byte	.LVL0
 1766 006e 2E000000 		.4byte	.LVL7
 1767 0072 0100     		.2byte	0x1
 1768 0074 52       		.byte	0x52
 1769 0075 2E000000 		.4byte	.LVL7
 1770 0079 33000000 		.4byte	.LVL8-1
 1771 007d 0100     		.2byte	0x1
 1772 007f 51       		.byte	0x51
 1773 0080 33000000 		.4byte	.LVL8-1
 1774 0084 48000000 		.4byte	.LFE256
 1775 0088 0400     		.2byte	0x4
 1776 008a F3       		.byte	0xf3
 1777 008b 01       		.uleb128 0x1
 1778 008c 52       		.byte	0x52
 1779 008d 9F       		.byte	0x9f
 1780 008e 00000000 		.4byte	0
 1781 0092 00000000 		.4byte	0
 1782              	.LLST3:
 1783 0096 00000000 		.4byte	.LVL0
 1784 009a 33000000 		.4byte	.LVL8-1
 1785 009e 0100     		.2byte	0x1
 1786 00a0 53       		.byte	0x53
 1787 00a1 33000000 		.4byte	.LVL8-1
 1788 00a5 48000000 		.4byte	.LFE256
 1789 00a9 0400     		.2byte	0x4
 1790 00ab F3       		.byte	0xf3
 1791 00ac 01       		.uleb128 0x1
 1792 00ad 53       		.byte	0x53
 1793 00ae 9F       		.byte	0x9f
 1794 00af 00000000 		.4byte	0
 1795 00b3 00000000 		.4byte	0
 1796              	.LLST4:
 1797 00b7 00000000 		.4byte	.LVL0
 1798 00bb 06000000 		.4byte	.LVL1
 1799 00bf 0200     		.2byte	0x2
 1800 00c1 30       		.byte	0x30
 1801 00c2 9F       		.byte	0x9f
 1802 00c3 06000000 		.4byte	.LVL1
 1803 00c7 08000000 		.4byte	.LVL2
 1804 00cb 0100     		.2byte	0x1
 1805 00cd 50       		.byte	0x50
 1806 00ce 08000000 		.4byte	.LVL2
 1807 00d2 24000000 		.4byte	.LVL5
 1808 00d6 0200     		.2byte	0x2
 1809 00d8 30       		.byte	0x30
 1810 00d9 9F       		.byte	0x9f
 1811 00da 24000000 		.4byte	.LVL5
 1812 00de 28000000 		.4byte	.LVL6
 1813 00e2 0100     		.2byte	0x1
 1814 00e4 50       		.byte	0x50
 1815 00e5 28000000 		.4byte	.LVL6
 1816 00e9 38000000 		.4byte	.LVL9
 1817 00ed 0200     		.2byte	0x2
ARM GAS  C:\Users\jo\AppData\Local\Temp\ccmd5NIP.s 			page 33


 1818 00ef 30       		.byte	0x30
 1819 00f0 9F       		.byte	0x9f
 1820 00f1 38000000 		.4byte	.LVL9
 1821 00f5 48000000 		.4byte	.LFE256
 1822 00f9 0100     		.2byte	0x1
 1823 00fb 50       		.byte	0x50
 1824 00fc 00000000 		.4byte	0
 1825 0100 00000000 		.4byte	0
 1826              	.LLST5:
 1827 0104 00000000 		.4byte	.LVL10
 1828 0108 10000000 		.4byte	.LVL12
 1829 010c 0100     		.2byte	0x1
 1830 010e 50       		.byte	0x50
 1831 010f 10000000 		.4byte	.LVL12
 1832 0113 13000000 		.4byte	.LVL13-1
 1833 0117 0300     		.2byte	0x3
 1834 0119 70       		.byte	0x70
 1835 011a 7F       		.sleb128 -1
 1836 011b 9F       		.byte	0x9f
 1837 011c 13000000 		.4byte	.LVL13-1
 1838 0120 24000000 		.4byte	.LFE257
 1839 0124 0400     		.2byte	0x4
 1840 0126 F3       		.byte	0xf3
 1841 0127 01       		.uleb128 0x1
 1842 0128 50       		.byte	0x50
 1843 0129 9F       		.byte	0x9f
 1844 012a 00000000 		.4byte	0
 1845 012e 00000000 		.4byte	0
 1846              	.LLST6:
 1847 0132 00000000 		.4byte	.LVL10
 1848 0136 0C000000 		.4byte	.LVL11
 1849 013a 0100     		.2byte	0x1
 1850 013c 51       		.byte	0x51
 1851 013d 0C000000 		.4byte	.LVL11
 1852 0141 1A000000 		.4byte	.LVL14
 1853 0145 0100     		.2byte	0x1
 1854 0147 55       		.byte	0x55
 1855 0148 1A000000 		.4byte	.LVL14
 1856 014c 24000000 		.4byte	.LFE257
 1857 0150 0400     		.2byte	0x4
 1858 0152 F3       		.byte	0xf3
 1859 0153 01       		.uleb128 0x1
 1860 0154 51       		.byte	0x51
 1861 0155 9F       		.byte	0x9f
 1862 0156 00000000 		.4byte	0
 1863 015a 00000000 		.4byte	0
 1864              		.section	.debug_aranges,"",%progbits
 1865 0000 24000000 		.4byte	0x24
 1866 0004 0200     		.2byte	0x2
 1867 0006 00000000 		.4byte	.Ldebug_info0
 1868 000a 04       		.byte	0x4
 1869 000b 00       		.byte	0
 1870 000c 0000     		.2byte	0
 1871 000e 0000     		.2byte	0
 1872 0010 00000000 		.4byte	.LFB256
 1873 0014 48000000 		.4byte	.LFE256-.LFB256
 1874 0018 00000000 		.4byte	.LFB257
ARM GAS  C:\Users\jo\AppData\Local\Temp\ccmd5NIP.s 			page 34


 1875 001c 24000000 		.4byte	.LFE257-.LFB257
 1876 0020 00000000 		.4byte	0
 1877 0024 00000000 		.4byte	0
 1878              		.section	.debug_ranges,"",%progbits
 1879              	.Ldebug_ranges0:
 1880 0000 00000000 		.4byte	.LFB256
 1881 0004 48000000 		.4byte	.LFE256
 1882 0008 00000000 		.4byte	.LFB257
 1883 000c 24000000 		.4byte	.LFE257
 1884 0010 00000000 		.4byte	0
 1885 0014 00000000 		.4byte	0
 1886              		.section	.debug_line,"",%progbits
 1887              	.Ldebug_line0:
 1888 0000 DC020000 		.section	.debug_str,"MS",%progbits,1
 1888      02008902 
 1888      00000201 
 1888      FB0E0D00 
 1888      01010101 
 1889              	.LASF53:
 1890 0000 72656164 		.ascii	"ready_list_t\000"
 1890      795F6C69 
 1890      73745F74 
 1890      00
 1891              	.LASF110:
 1892 000d 654D4245 		.ascii	"eMBException\000"
 1892      78636570 
 1892      74696F6E 
 1892      00
 1893              	.LASF2:
 1894 001a 73697A65 		.ascii	"size_t\000"
 1894      5F7400
 1895              	.LASF87:
 1896 0021 7264796D 		.ascii	"rdymsg\000"
 1896      736700
 1897              	.LASF116:
 1898 0028 4D425F45 		.ascii	"MB_EIO\000"
 1898      494F00
 1899              	.LASF21:
 1900 002f 75696E74 		.ascii	"uint64_t\000"
 1900      36345F74 
 1900      00
 1901              	.LASF3:
 1902 0038 5F5F7569 		.ascii	"__uint8_t\000"
 1902      6E74385F 
 1902      7400
 1903              	.LASF84:
 1904 0042 706F7274 		.ascii	"port_intctx\000"
 1904      5F696E74 
 1904      63747800 
 1905              	.LASF72:
 1906 004e 73797374 		.ascii	"system_debug_t\000"
 1906      656D5F64 
 1906      65627567 
 1906      5F7400
 1907              	.LASF133:
 1908 005d 46726565 		.ascii	"FreeModbus/modbus/functions/mbfuncother.c\000"
 1908      4D6F6462 
ARM GAS  C:\Users\jo\AppData\Local\Temp\ccmd5NIP.s 			page 35


 1908      75732F6D 
 1908      6F646275 
 1908      732F6675 
 1909              	.LASF14:
 1910 0087 6C6F6E67 		.ascii	"long long unsigned int\000"
 1910      206C6F6E 
 1910      6720756E 
 1910      7369676E 
 1910      65642069 
 1911              	.LASF105:
 1912 009e 4D425F45 		.ascii	"MB_EX_ACKNOWLEDGE\000"
 1912      585F4143 
 1912      4B4E4F57 
 1912      4C454447 
 1912      4500
 1913              	.LASF88:
 1914 00b0 65786974 		.ascii	"exitcode\000"
 1914      636F6465 
 1914      00
 1915              	.LASF79:
 1916 00b9 6D61696E 		.ascii	"mainthread\000"
 1916      74687265 
 1916      616400
 1917              	.LASF69:
 1918 00c4 76697274 		.ascii	"virtual_timers_list_t\000"
 1918      75616C5F 
 1918      74696D65 
 1918      72735F6C 
 1918      6973745F 
 1919              	.LASF131:
 1920 00da 49544D5F 		.ascii	"ITM_RxBuffer\000"
 1920      52784275 
 1920      66666572 
 1920      00
 1921              	.LASF52:
 1922 00e7 63685F74 		.ascii	"ch_threads_queue\000"
 1922      68726561 
 1922      64735F71 
 1922      75657565 
 1922      00
 1923              	.LASF33:
 1924 00f8 705F7072 		.ascii	"p_prio\000"
 1924      696F00
 1925              	.LASF12:
 1926 00ff 6C6F6E67 		.ascii	"long long int\000"
 1926      206C6F6E 
 1926      6720696E 
 1926      7400
 1927              	.LASF1:
 1928 010d 7369676E 		.ascii	"signed char\000"
 1928      65642063 
 1928      68617200 
 1929              	.LASF121:
 1930 0119 78497352 		.ascii	"xIsRunning\000"
 1930      756E6E69 
 1930      6E6700
 1931              	.LASF47:
ARM GAS  C:\Users\jo\AppData\Local\Temp\ccmd5NIP.s 			page 36


 1932 0124 705F6D70 		.ascii	"p_mpool\000"
 1932      6F6F6C00 
 1933              	.LASF92:
 1934 012c 6D5F7175 		.ascii	"m_queue\000"
 1934      65756500 
 1935              	.LASF120:
 1936 0134 7563536C 		.ascii	"ucSlaveID\000"
 1936      61766549 
 1936      4400
 1937              	.LASF78:
 1938 013e 76746C69 		.ascii	"vtlist\000"
 1938      737400
 1939              	.LASF98:
 1940 0145 55434841 		.ascii	"UCHAR\000"
 1940      5200
 1941              	.LASF76:
 1942 014b 63685F73 		.ascii	"ch_system\000"
 1942      79737465 
 1942      6D00
 1943              	.LASF9:
 1944 0155 6C6F6E67 		.ascii	"long int\000"
 1944      20696E74 
 1944      00
 1945              	.LASF119:
 1946 015e 654D4245 		.ascii	"eMBErrorCode\000"
 1946      72726F72 
 1946      436F6465 
 1946      00
 1947              	.LASF24:
 1948 016b 74737461 		.ascii	"tstate_t\000"
 1948      74655F74 
 1948      00
 1949              	.LASF103:
 1950 0174 4D425F45 		.ascii	"MB_EX_ILLEGAL_DATA_VALUE\000"
 1950      585F494C 
 1950      4C454741 
 1950      4C5F4441 
 1950      54415F56 
 1951              	.LASF117:
 1952 018d 4D425F45 		.ascii	"MB_EILLSTATE\000"
 1952      494C4C53 
 1952      54415445 
 1952      00
 1953              	.LASF35:
 1954 019a 705F6E65 		.ascii	"p_newer\000"
 1954      77657200 
 1955              	.LASF107:
 1956 01a2 4D425F45 		.ascii	"MB_EX_MEMORY_PARITY_ERROR\000"
 1956      585F4D45 
 1956      4D4F5259 
 1956      5F504152 
 1956      4954595F 
 1957              	.LASF7:
 1958 01bc 73686F72 		.ascii	"short unsigned int\000"
 1958      7420756E 
 1958      7369676E 
 1958      65642069 
ARM GAS  C:\Users\jo\AppData\Local\Temp\ccmd5NIP.s 			page 37


 1958      6E7400
 1959              	.LASF58:
 1960 01cf 725F6E65 		.ascii	"r_newer\000"
 1960      77657200 
 1961              	.LASF81:
 1962 01d7 72656761 		.ascii	"regarm_t\000"
 1962      726D5F74 
 1962      00
 1963              	.LASF65:
 1964 01e0 76745F70 		.ascii	"vt_prev\000"
 1964      72657600 
 1965              	.LASF95:
 1966 01e8 6D757465 		.ascii	"mutex_t\000"
 1966      785F7400 
 1967              	.LASF80:
 1968 01f0 69646C65 		.ascii	"idle_thread_wa\000"
 1968      5F746872 
 1968      6561645F 
 1968      776100
 1969              	.LASF0:
 1970 01ff 756E7369 		.ascii	"unsigned int\000"
 1970      676E6564 
 1970      20696E74 
 1970      00
 1971              	.LASF64:
 1972 020c 76745F6E 		.ascii	"vt_next\000"
 1972      65787400 
 1973              	.LASF18:
 1974 0214 75696E74 		.ascii	"uint16_t\000"
 1974      31365F74 
 1974      00
 1975              	.LASF130:
 1976 021d 75734D42 		.ascii	"usMBSlaveIDLen\000"
 1976      536C6176 
 1976      6549444C 
 1976      656E00
 1977              	.LASF126:
 1978 022c 70756346 		.ascii	"pucFrame\000"
 1978      72616D65 
 1978      00
 1979              	.LASF66:
 1980 0235 76745F64 		.ascii	"vt_delta\000"
 1980      656C7461 
 1980      00
 1981              	.LASF42:
 1982 023e 705F6D73 		.ascii	"p_msgqueue\000"
 1982      67717565 
 1982      756500
 1983              	.LASF115:
 1984 0249 4D425F45 		.ascii	"MB_ENORES\000"
 1984      4E4F5245 
 1984      5300
 1985              	.LASF97:
 1986 0253 424F4F4C 		.ascii	"BOOL\000"
 1986      00
 1987              	.LASF118:
 1988 0258 4D425F45 		.ascii	"MB_ETIMEDOUT\000"
ARM GAS  C:\Users\jo\AppData\Local\Temp\ccmd5NIP.s 			page 38


 1988      54494D45 
 1988      444F5554 
 1988      00
 1989              	.LASF112:
 1990 0265 4D425F45 		.ascii	"MB_ENOREG\000"
 1990      4E4F5245 
 1990      4700
 1991              	.LASF49:
 1992 026f 63685F74 		.ascii	"ch_thread\000"
 1992      68726561 
 1992      6400
 1993              	.LASF27:
 1994 0279 6D73675F 		.ascii	"msg_t\000"
 1994      7400
 1995              	.LASF111:
 1996 027f 4D425F45 		.ascii	"MB_ENOERR\000"
 1996      4E4F4552 
 1996      5200
 1997              	.LASF75:
 1998 0289 63685F73 		.ascii	"ch_system_t\000"
 1998      79737465 
 1998      6D5F7400 
 1999              	.LASF23:
 2000 0295 746D6F64 		.ascii	"tmode_t\000"
 2000      655F7400 
 2001              	.LASF54:
 2002 029d 63685F72 		.ascii	"ch_ready_list\000"
 2002      65616479 
 2002      5F6C6973 
 2002      7400
 2003              	.LASF28:
 2004 02ab 6576656E 		.ascii	"eventmask_t\000"
 2004      746D6173 
 2004      6B5F7400 
 2005              	.LASF8:
 2006 02b7 5F5F696E 		.ascii	"__int32_t\000"
 2006      7433325F 
 2006      7400
 2007              	.LASF82:
 2008 02c1 73746B61 		.ascii	"stkalign_t\000"
 2008      6C69676E 
 2008      5F7400
 2009              	.LASF102:
 2010 02cc 4D425F45 		.ascii	"MB_EX_ILLEGAL_DATA_ADDRESS\000"
 2010      585F494C 
 2010      4C454741 
 2010      4C5F4441 
 2010      54415F41 
 2011              	.LASF13:
 2012 02e7 5F5F7569 		.ascii	"__uint64_t\000"
 2012      6E743634 
 2012      5F7400
 2013              	.LASF129:
 2014 02f2 75634D42 		.ascii	"ucMBSlaveID\000"
 2014      536C6176 
 2014      65494400 
 2015              	.LASF15:
ARM GAS  C:\Users\jo\AppData\Local\Temp\ccmd5NIP.s 			page 39


 2016 02fe 73697A65 		.ascii	"sizetype\000"
 2016      74797065 
 2016      00
 2017              	.LASF108:
 2018 0307 4D425F45 		.ascii	"MB_EX_GATEWAY_PATH_FAILED\000"
 2018      585F4741 
 2018      54455741 
 2018      595F5041 
 2018      54485F46 
 2019              	.LASF70:
 2020 0321 63685F76 		.ascii	"ch_virtual_timers_list\000"
 2020      69727475 
 2020      616C5F74 
 2020      696D6572 
 2020      735F6C69 
 2021              	.LASF123:
 2022 0338 75734164 		.ascii	"usAdditionalLen\000"
 2022      64697469 
 2022      6F6E616C 
 2022      4C656E00 
 2023              	.LASF99:
 2024 0348 5553484F 		.ascii	"USHORT\000"
 2024      525400
 2025              	.LASF71:
 2026 034f 76745F6C 		.ascii	"vt_lasttime\000"
 2026      61737474 
 2026      696D6500 
 2027              	.LASF36:
 2028 035b 705F6F6C 		.ascii	"p_older\000"
 2028      64657200 
 2029              	.LASF57:
 2030 0363 725F6374 		.ascii	"r_ctx\000"
 2030      7800
 2031              	.LASF100:
 2032 0369 4D425F45 		.ascii	"MB_EX_NONE\000"
 2032      585F4E4F 
 2032      4E4500
 2033              	.LASF86:
 2034 0374 746D5F63 		.ascii	"tm_calibration_t\000"
 2034      616C6962 
 2034      72617469 
 2034      6F6E5F74 
 2034      00
 2035              	.LASF104:
 2036 0385 4D425F45 		.ascii	"MB_EX_SLAVE_DEVICE_FAILURE\000"
 2036      585F534C 
 2036      4156455F 
 2036      44455649 
 2036      43455F46 
 2037              	.LASF60:
 2038 03a0 725F6375 		.ascii	"r_current\000"
 2038      7272656E 
 2038      7400
 2039              	.LASF59:
 2040 03aa 725F6F6C 		.ascii	"r_older\000"
 2040      64657200 
 2041              	.LASF125:
ARM GAS  C:\Users\jo\AppData\Local\Temp\ccmd5NIP.s 			page 40


 2042 03b2 654D4246 		.ascii	"eMBFuncReportSlaveID\000"
 2042      756E6352 
 2042      65706F72 
 2042      74536C61 
 2042      76654944 
 2043              	.LASF106:
 2044 03c7 4D425F45 		.ascii	"MB_EX_SLAVE_BUSY\000"
 2044      585F534C 
 2044      4156455F 
 2044      42555359 
 2044      00
 2045              	.LASF25:
 2046 03d8 74726566 		.ascii	"trefs_t\000"
 2046      735F7400 
 2047              	.LASF62:
 2048 03e0 76697274 		.ascii	"virtual_timer_t\000"
 2048      75616C5F 
 2048      74696D65 
 2048      725F7400 
 2049              	.LASF32:
 2050 03f0 705F7072 		.ascii	"p_prev\000"
 2050      657600
 2051              	.LASF26:
 2052 03f7 74707269 		.ascii	"tprio_t\000"
 2052      6F5F7400 
 2053              	.LASF91:
 2054 03ff 6D757465 		.ascii	"mutex\000"
 2054      7800
 2055              	.LASF73:
 2056 0405 63685F73 		.ascii	"ch_system_debug\000"
 2056      79737465 
 2056      6D5F6465 
 2056      62756700 
 2057              	.LASF96:
 2058 0415 5F426F6F 		.ascii	"_Bool\000"
 2058      6C00
 2059              	.LASF19:
 2060 041b 696E7433 		.ascii	"int32_t\000"
 2060      325F7400 
 2061              	.LASF4:
 2062 0423 756E7369 		.ascii	"unsigned char\000"
 2062      676E6564 
 2062      20636861 
 2062      7200
 2063              	.LASF45:
 2064 0431 705F6D74 		.ascii	"p_mtxlist\000"
 2064      786C6973 
 2064      7400
 2065              	.LASF5:
 2066 043b 73686F72 		.ascii	"short int\000"
 2066      7420696E 
 2066      7400
 2067              	.LASF38:
 2068 0445 705F7374 		.ascii	"p_state\000"
 2068      61746500 
 2069              	.LASF56:
 2070 044d 725F7072 		.ascii	"r_prio\000"
ARM GAS  C:\Users\jo\AppData\Local\Temp\ccmd5NIP.s 			page 41


 2070      696F00
 2071              	.LASF90:
 2072 0454 65776D61 		.ascii	"ewmask\000"
 2072      736B00
 2073              	.LASF31:
 2074 045b 705F6E65 		.ascii	"p_next\000"
 2074      787400
 2075              	.LASF132:
 2076 0462 474E5520 		.ascii	"GNU C 4.9.3 20141119 (release) [ARM/embedded-4_9-br"
 2076      4320342E 
 2076      392E3320 
 2076      32303134 
 2076      31313139 
 2077 0495 616E6368 		.ascii	"anch revision 218278] -mcpu=cortex-m4 -mfloat-abi=h"
 2077      20726576 
 2077      6973696F 
 2077      6E203231 
 2077      38323738 
 2078 04c8 61726420 		.ascii	"ard -mfpu=fpv4-sp-d16 -mno-thumb-interwork -mthumb "
 2078      2D6D6670 
 2078      753D6670 
 2078      76342D73 
 2078      702D6431 
 2079 04fb 2D676764 		.ascii	"-ggdb -O2 -fomit-frame-pointer -falign-functions=16"
 2079      62202D4F 
 2079      32202D66 
 2079      6F6D6974 
 2079      2D667261 
 2080 052e 202D6666 		.ascii	" -ffunction-sections -fdata-sections -fno-common -f"
 2080      756E6374 
 2080      696F6E2D 
 2080      73656374 
 2080      696F6E73 
 2081 0561 73696E67 		.ascii	"single-precision-constant\000"
 2081      6C652D70 
 2081      72656369 
 2081      73696F6E 
 2081      2D636F6E 
 2082              	.LASF39:
 2083 057b 705F666C 		.ascii	"p_flags\000"
 2083      61677300 
 2084              	.LASF122:
 2085 0583 70756341 		.ascii	"pucAdditional\000"
 2085      64646974 
 2085      696F6E61 
 2085      6C00
 2086              	.LASF109:
 2087 0591 4D425F45 		.ascii	"MB_EX_GATEWAY_TGT_FAILED\000"
 2087      585F4741 
 2087      54455741 
 2087      595F5447 
 2087      545F4641 
 2088              	.LASF63:
 2089 05aa 63685F76 		.ascii	"ch_virtual_timer\000"
 2089      69727475 
 2089      616C5F74 
 2089      696D6572 
ARM GAS  C:\Users\jo\AppData\Local\Temp\ccmd5NIP.s 			page 42


 2089      00
 2090              	.LASF44:
 2091 05bb 705F6570 		.ascii	"p_epending\000"
 2091      656E6469 
 2091      6E6700
 2092              	.LASF20:
 2093 05c6 75696E74 		.ascii	"uint32_t\000"
 2093      33325F74 
 2093      00
 2094              	.LASF55:
 2095 05cf 725F7175 		.ascii	"r_queue\000"
 2095      65756500 
 2096              	.LASF50:
 2097 05d7 63685F74 		.ascii	"ch_threads_list\000"
 2097      68726561 
 2097      64735F6C 
 2097      69737400 
 2098              	.LASF11:
 2099 05e7 6C6F6E67 		.ascii	"long unsigned int\000"
 2099      20756E73 
 2099      69676E65 
 2099      6420696E 
 2099      7400
 2100              	.LASF16:
 2101 05f9 63686172 		.ascii	"char\000"
 2101      00
 2102              	.LASF134:
 2103 05fe 433A5C55 		.ascii	"C:\\Users\\jo\\Documents\\GitHub\\ChibiOS\\demos\\S"
 2103      73657273 
 2103      5C6A6F5C 
 2103      446F6375 
 2103      6D656E74 
 2104 062a 544D3332 		.ascii	"TM32\\RT-STM32F407-DISCOVERY\000"
 2104      5C52542D 
 2104      53544D33 
 2104      32463430 
 2104      372D4449 
 2105              	.LASF6:
 2106 0646 5F5F7569 		.ascii	"__uint16_t\000"
 2106      6E743136 
 2106      5F7400
 2107              	.LASF101:
 2108 0651 4D425F45 		.ascii	"MB_EX_ILLEGAL_FUNCTION\000"
 2108      585F494C 
 2108      4C454741 
 2108      4C5F4655 
 2108      4E435449 
 2109              	.LASF30:
 2110 0668 74687265 		.ascii	"thread_t\000"
 2110      61645F74 
 2110      00
 2111              	.LASF113:
 2112 0671 4D425F45 		.ascii	"MB_EINVAL\000"
 2112      494E5641 
 2112      4C00
 2113              	.LASF94:
 2114 067b 6D5F6E65 		.ascii	"m_next\000"
ARM GAS  C:\Users\jo\AppData\Local\Temp\ccmd5NIP.s 			page 43


 2114      787400
 2115              	.LASF29:
 2116 0682 73797374 		.ascii	"systime_t\000"
 2116      696D655F 
 2116      7400
 2117              	.LASF46:
 2118 068c 705F7265 		.ascii	"p_realprio\000"
 2118      616C7072 
 2118      696F00
 2119              	.LASF61:
 2120 0697 76746675 		.ascii	"vtfunc_t\000"
 2120      6E635F74 
 2120      00
 2121              	.LASF10:
 2122 06a0 5F5F7569 		.ascii	"__uint32_t\000"
 2122      6E743332 
 2122      5F7400
 2123              	.LASF74:
 2124 06ab 70616E69 		.ascii	"panic_msg\000"
 2124      635F6D73 
 2124      6700
 2125              	.LASF85:
 2126 06b5 6F666673 		.ascii	"offset\000"
 2126      657400
 2127              	.LASF135:
 2128 06bc 6D656D63 		.ascii	"memcpy\000"
 2128      707900
 2129              	.LASF83:
 2130 06c3 636F6E74 		.ascii	"context\000"
 2130      65787400 
 2131              	.LASF114:
 2132 06cb 4D425F45 		.ascii	"MB_EPORTERR\000"
 2132      504F5254 
 2132      45525200 
 2133              	.LASF22:
 2134 06d7 7274636E 		.ascii	"rtcnt_t\000"
 2134      745F7400 
 2135              	.LASF127:
 2136 06df 75734C65 		.ascii	"usLen\000"
 2136      6E00
 2137              	.LASF68:
 2138 06e5 76745F70 		.ascii	"vt_par\000"
 2138      617200
 2139              	.LASF51:
 2140 06ec 74687265 		.ascii	"threads_queue_t\000"
 2140      6164735F 
 2140      71756575 
 2140      655F7400 
 2141              	.LASF40:
 2142 06fc 705F7265 		.ascii	"p_refs\000"
 2142      667300
 2143              	.LASF77:
 2144 0703 726C6973 		.ascii	"rlist\000"
 2144      7400
 2145              	.LASF17:
 2146 0709 75696E74 		.ascii	"uint8_t\000"
 2146      385F7400 
ARM GAS  C:\Users\jo\AppData\Local\Temp\ccmd5NIP.s 			page 44


 2147              	.LASF128:
 2148 0711 65537461 		.ascii	"eStatus\000"
 2148      74757300 
 2149              	.LASF124:
 2150 0719 654D4253 		.ascii	"eMBSetSlaveID\000"
 2150      6574536C 
 2150      61766549 
 2150      4400
 2151              	.LASF89:
 2152 0727 77746F62 		.ascii	"wtobjp\000"
 2152      6A7000
 2153              	.LASF37:
 2154 072e 705F6E61 		.ascii	"p_name\000"
 2154      6D6500
 2155              	.LASF48:
 2156 0735 74687265 		.ascii	"threads_list_t\000"
 2156      6164735F 
 2156      6C697374 
 2156      5F7400
 2157              	.LASF43:
 2158 0744 705F6D73 		.ascii	"p_msg\000"
 2158      6700
 2159              	.LASF93:
 2160 074a 6D5F6F77 		.ascii	"m_owner\000"
 2160      6E657200 
 2161              	.LASF34:
 2162 0752 705F6374 		.ascii	"p_ctx\000"
 2162      7800
 2163              	.LASF67:
 2164 0758 76745F66 		.ascii	"vt_func\000"
 2164      756E6300 
 2165              	.LASF41:
 2166 0760 705F7761 		.ascii	"p_waiting\000"
 2166      6974696E 
 2166      6700
 2167              		.ident	"GCC: (GNU Tools for ARM Embedded Processors) 4.9.3 20141119 (release) [ARM/embedded-4_9-br
ARM GAS  C:\Users\jo\AppData\Local\Temp\ccmd5NIP.s 			page 45


DEFINED SYMBOLS
                            *ABS*:00000000 mbfuncother.c
C:\Users\jo\AppData\Local\Temp\ccmd5NIP.s:21     .text.eMBSetSlaveID:00000000 $t
C:\Users\jo\AppData\Local\Temp\ccmd5NIP.s:27     .text.eMBSetSlaveID:00000000 eMBSetSlaveID
C:\Users\jo\AppData\Local\Temp\ccmd5NIP.s:110    .text.eMBSetSlaveID:00000040 $d
C:\Users\jo\AppData\Local\Temp\ccmd5NIP.s:116    .text.eMBFuncReportSlaveID:00000000 $t
C:\Users\jo\AppData\Local\Temp\ccmd5NIP.s:122    .text.eMBFuncReportSlaveID:00000000 eMBFuncReportSlaveID
C:\Users\jo\AppData\Local\Temp\ccmd5NIP.s:160    .text.eMBFuncReportSlaveID:0000001c $d
C:\Users\jo\AppData\Local\Temp\ccmd5NIP.s:166    .bss.usMBSlaveIDLen:00000000 $d
C:\Users\jo\AppData\Local\Temp\ccmd5NIP.s:170    .bss.usMBSlaveIDLen:00000000 usMBSlaveIDLen
C:\Users\jo\AppData\Local\Temp\ccmd5NIP.s:173    .bss.ucMBSlaveID:00000000 $d
C:\Users\jo\AppData\Local\Temp\ccmd5NIP.s:177    .bss.ucMBSlaveID:00000000 ucMBSlaveID
                     .debug_frame:00000010 $d
C:\Users\jo\AppData\Local\Temp\ccmd5NIP.s:115    .text.eMBSetSlaveID:00000048 $t
C:\Users\jo\AppData\Local\Temp\ccmd5NIP.s:165    .text.eMBFuncReportSlaveID:00000024 $t

UNDEFINED SYMBOLS
memcpy
