ARM GAS  C:\Users\jo\AppData\Local\Temp\cceM8YCK.s 			page 1


   1              		.syntax unified
   2              		.cpu cortex-m4
   3              		.eabi_attribute 27, 3
   4              		.eabi_attribute 28, 1
   5              		.fpu fpv4-sp-d16
   6              		.eabi_attribute 20, 1
   7              		.eabi_attribute 21, 1
   8              		.eabi_attribute 23, 3
   9              		.eabi_attribute 24, 1
  10              		.eabi_attribute 25, 1
  11              		.eabi_attribute 26, 1
  12              		.eabi_attribute 30, 2
  13              		.eabi_attribute 34, 1
  14              		.eabi_attribute 18, 4
  15              		.thumb
  16              		.file	"mbfunccoils_m.c"
  17              		.text
  18              	.Ltext0:
  19              		.cfi_sections	.debug_frame
  20              		.section	.text.chprintf.constprop.0,"ax",%progbits
  21              		.align	2
  22              		.p2align 4,,15
  23              		.thumb
  24              		.thumb_func
  25              		.type	chprintf.constprop.0, %function
  26              	chprintf.constprop.0:
  27              	.LFB262:
  28              		.file 1 "../../../os/hal/lib/streams/chprintf.h"
  29              		.loc 1 69 0
  30              		.cfi_startproc
  31              		@ args = 4, pretend = 12, frame = 8
  32              		@ frame_needed = 0, uses_anonymous_args = 1
  33              	.LVL0:
  34 0000 0EB4     		push	{r1, r2, r3}
  35              		.cfi_def_cfa_offset 12
  36              		.cfi_offset 1, -12
  37              		.cfi_offset 2, -8
  38              		.cfi_offset 3, -4
  39 0002 00B5     		push	{lr}
  40              		.cfi_def_cfa_offset 16
  41              		.cfi_offset 14, -16
  42 0004 82B0     		sub	sp, sp, #8
  43              		.cfi_def_cfa_offset 24
  44              		.loc 1 73 0
  45 0006 04AB     		add	r3, sp, #16
  46              		.loc 1 74 0
  47 0008 1A46     		mov	r2, r3
  48 000a 0549     		ldr	r1, .L3
  49 000c 0548     		ldr	r0, .L3+4
  50              	.LVL1:
  51              		.loc 1 73 0
  52 000e 0193     		str	r3, [sp, #4]
  53              		.loc 1 74 0
  54 0010 FFF7FEFF 		bl	chvprintf
  55              	.LVL2:
  56              		.loc 1 78 0
  57 0014 02B0     		add	sp, sp, #8
ARM GAS  C:\Users\jo\AppData\Local\Temp\cceM8YCK.s 			page 2


  58              		.cfi_def_cfa_offset 16
  59              		@ sp needed
  60 0016 5DF804EB 		ldr	lr, [sp], #4
  61              		.cfi_restore 14
  62              		.cfi_def_cfa_offset 12
  63 001a 03B0     		add	sp, sp, #12
  64              		.cfi_restore 3
  65              		.cfi_restore 2
  66              		.cfi_restore 1
  67              		.cfi_def_cfa_offset 0
  68 001c 7047     		bx	lr
  69              	.L4:
  70 001e 00BF     		.align	2
  71              	.L3:
  72 0020 00000000 		.word	.LC0
  73 0024 00000000 		.word	itm_port
  74              		.cfi_endproc
  75              	.LFE262:
  76              		.size	chprintf.constprop.0, .-chprintf.constprop.0
  77 0028 AFF30080 		.section	.text.eMBMasterReqReadCoils,"ax",%progbits
  77      AFF30080 
  78              		.align	2
  79              		.p2align 4,,15
  80              		.global	eMBMasterReqReadCoils
  81              		.thumb
  82              		.thumb_func
  83              		.type	eMBMasterReqReadCoils, %function
  84              	eMBMasterReqReadCoils:
  85              	.LFB256:
  86              		.file 2 "FreeModbus/modbus/functions/mbfunccoils_m.c"
  87              		.loc 2 96 0
  88              		.cfi_startproc
  89              		@ args = 0, pretend = 0, frame = 32
  90              		@ frame_needed = 0, uses_anonymous_args = 0
  91              	.LVL3:
  92 0000 2DE9F04F 		push	{r4, r5, r6, r7, r8, r9, r10, fp, lr}
  93              		.cfi_def_cfa_offset 36
  94              		.cfi_offset 4, -36
  95              		.cfi_offset 5, -32
  96              		.cfi_offset 6, -28
  97              		.cfi_offset 7, -24
  98              		.cfi_offset 8, -20
  99              		.cfi_offset 9, -16
 100              		.cfi_offset 10, -12
 101              		.cfi_offset 11, -8
 102              		.cfi_offset 14, -4
 103 0004 0746     		mov	r7, r0
 104 0006 8DB0     		sub	sp, sp, #52
 105              		.cfi_def_cfa_offset 88
 106              		.loc 2 100 0
 107 0008 1846     		mov	r0, r3
 108              	.LVL4:
 109              		.loc 2 96 0
 110 000a 8946     		mov	r9, r1
 111 000c 9046     		mov	r8, r2
 112 000e 9A46     		mov	r10, r3
 113              		.loc 2 100 0
ARM GAS  C:\Users\jo\AppData\Local\Temp\cceM8YCK.s 			page 3


 114 0010 FFF7FEFF 		bl	xMBMasterRunResTake
 115              	.LVL5:
 116 0014 304B     		ldr	r3, .L15
 117 0016 314A     		ldr	r2, .L15+4
 118 0018 3149     		ldr	r1, .L15+8
 119              		.loc 2 102 0
 120 001a 324D     		ldr	r5, .L15+12
 121              		.loc 2 100 0
 122 001c 0028     		cmp	r0, #0
 123 001e 18BF     		it	ne
 124 0020 1A46     		movne	r2, r3
 125 0022 3148     		ldr	r0, .L15+16
 126 0024 FFF7FEFF 		bl	chprintf.constprop.0
 127              	.LVL6:
 128              		.loc 2 102 0
 129 0028 DFF8C4E0 		ldr	lr, .L15+24
 130 002c ADF82890 		strh	r9, [sp, #40]	@ movhi
 131 0030 BEF80030 		ldrh	r3, [lr]
 132 0034 ADF82430 		strh	r3, [sp, #36]	@ movhi
 133 0038 4FF0010B 		mov	fp, #1
 134 003c 0024     		movs	r4, #0
 135 003e ADF82A80 		strh	r8, [sp, #42]	@ movhi
 136 0042 8DF826B0 		strb	fp, [sp, #38]
 137 0046 8DF82C40 		strb	r4, [sp, #44]
 138 004a 8DF82D40 		strb	r4, [sp, #45]
 139 004e 0CAA     		add	r2, sp, #48
 140 0050 12E90700 		ldmdb	r2, {r0, r1, r2}
 141 0054 8DE80700 		stmia	sp, {r0, r1, r2}
 142 0058 0795     		str	r5, [sp, #28]
 143 005a 8DF81870 		strb	r7, [sp, #24]
 144 005e 8DF820B0 		strb	fp, [sp, #32]
 145 0062 ADF82240 		strh	r4, [sp, #34]	@ movhi
 146 0066 03EB0B05 		add	r5, r3, fp
 147 006a 06AE     		add	r6, sp, #24
 148 006c 96E80E00 		ldmia	r6, {r1, r2, r3}
 149 0070 1E48     		ldr	r0, .L15+20
 150 0072 AEF80050 		strh	r5, [lr]	@ movhi
 151 0076 FFF7FEFF 		bl	populate
 152              	.LVL7:
 153              		.loc 2 104 0
 154 007a 102F     		cmp	r7, #16
 155 007c 03D9     		bls	.L13
 156 007e 0220     		movs	r0, #2
 157              	.L7:
 158              	.LVL8:
 159              		.loc 2 122 0
 160 0080 0DB0     		add	sp, sp, #52
 161              		.cfi_remember_state
 162              		.cfi_def_cfa_offset 36
 163              		@ sp needed
 164 0082 BDE8F08F 		pop	{r4, r5, r6, r7, r8, r9, r10, fp, pc}
 165              	.LVL9:
 166              	.L13:
 167              		.cfi_restore_state
 168              		.loc 2 105 0
 169 0086 5046     		mov	r0, r10
 170 0088 FFF7FEFF 		bl	xMBMasterRunResTake
ARM GAS  C:\Users\jo\AppData\Local\Temp\cceM8YCK.s 			page 4


 171              	.LVL10:
 172 008c 18B9     		cbnz	r0, .L14
 173 008e 0520     		movs	r0, #5
 174              	.LVL11:
 175              		.loc 2 122 0
 176 0090 0DB0     		add	sp, sp, #52
 177              		.cfi_remember_state
 178              		.cfi_def_cfa_offset 36
 179              		@ sp needed
 180 0092 BDE8F08F 		pop	{r4, r5, r6, r7, r8, r9, r10, fp, pc}
 181              	.LVL12:
 182              	.L14:
 183              		.cfi_restore_state
 184              		.loc 2 108 0
 185 0096 05A8     		add	r0, sp, #20
 186 0098 FFF7FEFF 		bl	vMBMasterGetPDUSndBuf
 187              	.LVL13:
 188              		.loc 2 109 0
 189 009c 3846     		mov	r0, r7
 190 009e FFF7FEFF 		bl	vMBMasterSetDestAddress
 191              	.LVL14:
 192              		.loc 2 110 0
 193 00a2 059B     		ldr	r3, [sp, #20]
 194 00a4 83F800B0 		strb	fp, [r3]
 195              		.loc 2 111 0
 196 00a8 059B     		ldr	r3, [sp, #20]
 197 00aa 4FEA1922 		lsr	r2, r9, #8
 198 00ae 5A70     		strb	r2, [r3, #1]
 199              		.loc 2 112 0
 200 00b0 059B     		ldr	r3, [sp, #20]
 201 00b2 83F80290 		strb	r9, [r3, #2]
 202              		.loc 2 113 0
 203 00b6 059B     		ldr	r3, [sp, #20]
 204 00b8 4FEA1822 		lsr	r2, r8, #8
 205 00bc DA70     		strb	r2, [r3, #3]
 206              		.loc 2 114 0
 207 00be 059B     		ldr	r3, [sp, #20]
 208              		.loc 2 115 0
 209 00c0 0520     		movs	r0, #5
 210              		.loc 2 114 0
 211 00c2 83F80480 		strb	r8, [r3, #4]
 212              		.loc 2 115 0
 213 00c6 FFF7FEFF 		bl	vMBMasterSetPDUSndLength
 214              	.LVL15:
 215              		.loc 2 116 0
 216 00ca 0820     		movs	r0, #8
 217 00cc FFF7FEFF 		bl	xMBMasterPortEventPost
 218              	.LVL16:
 219              		.loc 2 117 0
 220 00d0 FFF7FEFF 		bl	xMBMasterRunResLock
 221              	.LVL17:
 222              		.loc 2 98 0
 223 00d4 2046     		mov	r0, r4
 224 00d6 D3E7     		b	.L7
 225              	.L16:
 226              		.align	2
 227              	.L15:
ARM GAS  C:\Users\jo\AppData\Local\Temp\cceM8YCK.s 			page 5


 228 00d8 14000000 		.word	.LC1
 229 00dc 1C000000 		.word	.LC2
 230 00e0 00000000 		.word	.LC0
 231 00e4 24000000 		.word	.LC3
 232 00e8 00000000 		.word	itm_port
 233 00ec 00000000 		.word	list_RTC
 234 00f0 00000000 		.word	.LANCHOR0
 235              		.cfi_endproc
 236              	.LFE256:
 237              		.size	eMBMasterReqReadCoils, .-eMBMasterReqReadCoils
 238 00f4 AFF30080 		.section	.text.eMBMasterFuncReadCoils,"ax",%progbits
 238      AFF30080 
 238      AFF30080 
 239              		.align	2
 240              		.p2align 4,,15
 241              		.global	eMBMasterFuncReadCoils
 242              		.thumb
 243              		.thumb_func
 244              		.type	eMBMasterFuncReadCoils, %function
 245              	eMBMasterFuncReadCoils:
 246              	.LFB257:
 247              		.loc 2 126 0
 248              		.cfi_startproc
 249              		@ args = 0, pretend = 0, frame = 56
 250              		@ frame_needed = 0, uses_anonymous_args = 0
 251              	.LVL18:
 252 0000 2DE9F043 		push	{r4, r5, r6, r7, r8, r9, lr}
 253              		.cfi_def_cfa_offset 28
 254              		.cfi_offset 4, -28
 255              		.cfi_offset 5, -24
 256              		.cfi_offset 6, -20
 257              		.cfi_offset 7, -16
 258              		.cfi_offset 8, -12
 259              		.cfi_offset 9, -8
 260              		.cfi_offset 14, -4
 261 0004 93B0     		sub	sp, sp, #76
 262              		.cfi_def_cfa_offset 104
 263              		.loc 2 126 0
 264 0006 0646     		mov	r6, r0
 265 0008 0C46     		mov	r4, r1
 266              		.loc 2 136 0
 267 000a FFF7FEFF 		bl	xMBMasterRequestIsBroadcast
 268              	.LVL19:
 269 000e 0028     		cmp	r0, #0
 270 0010 73D1     		bne	.L24
 271              		.loc 2 140 0
 272 0012 2388     		ldrh	r3, [r4]
 273 0014 012B     		cmp	r3, #1
 274 0016 04D8     		bhi	.L20
 275              	.L23:
 276              		.loc 2 187 0
 277 0018 0324     		movs	r4, #3
 278              	.LVL20:
 279              	.L19:
 280              		.loc 2 190 0
 281 001a 2046     		mov	r0, r4
 282 001c 13B0     		add	sp, sp, #76
ARM GAS  C:\Users\jo\AppData\Local\Temp\cceM8YCK.s 			page 6


 283              		.cfi_remember_state
 284              		.cfi_def_cfa_offset 28
 285              		@ sp needed
 286 001e BDE8F083 		pop	{r4, r5, r6, r7, r8, r9, pc}
 287              	.LVL21:
 288              	.L20:
 289              		.cfi_restore_state
 290              		.loc 2 142 0
 291 0022 05A8     		add	r0, sp, #20
 292 0024 FFF7FEFF 		bl	vMBMasterGetPDUSndBuf
 293              	.LVL22:
 294              		.loc 2 143 0
 295 0028 059B     		ldr	r3, [sp, #20]
 296              		.loc 2 147 0
 297 002a DD78     		ldrb	r5, [r3, #3]	@ zero_extendqisi2
 298              		.loc 2 148 0
 299 002c 1A79     		ldrb	r2, [r3, #4]	@ zero_extendqisi2
 300              		.loc 2 143 0
 301 002e 5F78     		ldrb	r7, [r3, #1]	@ zero_extendqisi2
 302              	.LVL23:
 303              		.loc 2 144 0
 304 0030 9978     		ldrb	r1, [r3, #2]	@ zero_extendqisi2
 305              	.LVL24:
 306              		.loc 2 148 0
 307 0032 42EA0525 		orr	r5, r2, r5, lsl #8
 308              	.LVL25:
 309              		.loc 2 152 0
 310 0036 6B07     		lsls	r3, r5, #29
 311 0038 64D0     		beq	.L21
 312              		.loc 2 154 0
 313 003a EB08     		lsrs	r3, r5, #3
 314 003c 0133     		adds	r3, r3, #1
 315 003e DBB2     		uxtb	r3, r3
 316              	.LVL26:
 317              	.L22:
 318              		.loc 2 164 0 discriminator 1
 319 0040 7278     		ldrb	r2, [r6, #1]	@ zero_extendqisi2
 320 0042 9A42     		cmp	r2, r3
 321 0044 E8D1     		bne	.L23
 322              		.loc 2 144 0
 323 0046 41EA0727 		orr	r7, r1, r7, lsl #8
 324              	.LVL27:
 325              		.loc 2 145 0
 326 004a 0137     		adds	r7, r7, #1
 327 004c BFB2     		uxth	r7, r7
 328              		.loc 2 168 0
 329 004e 3946     		mov	r1, r7
 330              	.LVL28:
 331 0050 2A46     		mov	r2, r5
 332 0052 0023     		movs	r3, #0
 333              	.LVL29:
 334 0054 B01C     		adds	r0, r6, #2
 335 0056 FFF7FEFF 		bl	eMBMasterRegCoilsCB
 336              	.LVL30:
 337              		.loc 2 169 0
 338 005a DFF8C090 		ldr	r9, .L32+12
 339              		.loc 2 168 0
ARM GAS  C:\Users\jo\AppData\Local\Temp\cceM8YCK.s 			page 7


 340 005e 0446     		mov	r4, r0
 341              	.LVL31:
 342              		.loc 2 169 0
 343 0060 FFF7FEFF 		bl	ucMBMasterGetDestAddress
 344              	.LVL32:
 345 0064 0026     		movs	r6, #0
 346              	.LVL33:
 347 0066 B9F80030 		ldrh	r3, [r9]
 348 006a ADF82430 		strh	r3, [sp, #36]	@ movhi
 349 006e 4FF00108 		mov	r8, #1
 350 0072 09AB     		add	r3, sp, #36
 351 0074 ADF82870 		strh	r7, [sp, #40]	@ movhi
 352 0078 ADF82A50 		strh	r5, [sp, #42]	@ movhi
 353 007c 8DF82C60 		strb	r6, [sp, #44]
 354 0080 8DF82D60 		strb	r6, [sp, #45]
 355 0084 8DF82680 		strb	r8, [sp, #38]
 356 0088 8DF81800 		strb	r0, [sp, #24]
 357 008c 93E80700 		ldmia	r3, {r0, r1, r2}
 358 0090 8DE80700 		stmia	sp, {r0, r1, r2}
 359 0094 1E4B     		ldr	r3, .L32
 360 0096 0793     		str	r3, [sp, #28]
 361 0098 8DF82060 		strb	r6, [sp, #32]
 362 009c ADF82260 		strh	r6, [sp, #34]	@ movhi
 363 00a0 06AB     		add	r3, sp, #24
 364 00a2 0ECB     		ldmia	r3, {r1, r2, r3}
 365 00a4 1B48     		ldr	r0, .L32+4
 366 00a6 FFF7FEFF 		bl	populate
 367              	.LVL34:
 368              		.loc 2 172 0
 369 00aa 34B3     		cbz	r4, .L24
 370              		.loc 2 174 0
 371 00ac 2046     		mov	r0, r4
 372 00ae FFF7FEFF 		bl	prveMBError2Exception
 373              	.LVL35:
 374 00b2 0446     		mov	r4, r0
 375              	.LVL36:
 376              		.loc 2 175 0
 377 00b4 FFF7FEFF 		bl	ucMBMasterGetDestAddress
 378              	.LVL37:
 379 00b8 B9F80030 		ldrh	r3, [r9]
 380 00bc ADF83C30 		strh	r3, [sp, #60]	@ movhi
 381 00c0 8DF83E80 		strb	r8, [sp, #62]
 382 00c4 12AB     		add	r3, sp, #72
 383 00c6 ADF84070 		strh	r7, [sp, #64]	@ movhi
 384 00ca ADF84250 		strh	r5, [sp, #66]	@ movhi
 385 00ce 8DF84460 		strb	r6, [sp, #68]
 386 00d2 8DF84560 		strb	r6, [sp, #69]
 387 00d6 8DF83000 		strb	r0, [sp, #48]
 388 00da 13E90700 		ldmdb	r3, {r0, r1, r2}
 389 00de 8DE80700 		stmia	sp, {r0, r1, r2}
 390 00e2 0D4B     		ldr	r3, .L32+8
 391 00e4 0D93     		str	r3, [sp, #52]
 392 00e6 8DF83880 		strb	r8, [sp, #56]
 393 00ea ADF83A60 		strh	r6, [sp, #58]	@ movhi
 394 00ee 0CAB     		add	r3, sp, #48
 395 00f0 0ECB     		ldmia	r3, {r1, r2, r3}
 396 00f2 0848     		ldr	r0, .L32+4
ARM GAS  C:\Users\jo\AppData\Local\Temp\cceM8YCK.s 			page 8


 397 00f4 FFF7FEFF 		bl	populate
 398              	.LVL38:
 399 00f8 8FE7     		b	.L19
 400              	.LVL39:
 401              	.L24:
 402              		.loc 2 138 0
 403 00fa 0024     		movs	r4, #0
 404              	.LVL40:
 405              		.loc 2 190 0
 406 00fc 2046     		mov	r0, r4
 407 00fe 13B0     		add	sp, sp, #76
 408              		.cfi_remember_state
 409              		.cfi_def_cfa_offset 28
 410              		@ sp needed
 411 0100 BDE8F083 		pop	{r4, r5, r6, r7, r8, r9, pc}
 412              	.LVL41:
 413              	.L21:
 414              		.cfi_restore_state
 415              		.loc 2 164 0
 416 0104 002D     		cmp	r5, #0
 417 0106 87D0     		beq	.L23
 418              		.loc 2 158 0
 419 0108 C5F3C703 		ubfx	r3, r5, #3, #8
 420 010c 98E7     		b	.L22
 421              	.L33:
 422 010e 00BF     		.align	2
 423              	.L32:
 424 0110 24000000 		.word	.LC3
 425 0114 00000000 		.word	list_RTC
 426 0118 28000000 		.word	.LC4
 427 011c 00000000 		.word	.LANCHOR0
 428              		.cfi_endproc
 429              	.LFE257:
 430              		.size	eMBMasterFuncReadCoils, .-eMBMasterFuncReadCoils
 431              		.section	.text.eMBMasterReqWriteCoil,"ax",%progbits
 432              		.align	2
 433              		.p2align 4,,15
 434              		.global	eMBMasterReqWriteCoil
 435              		.thumb
 436              		.thumb_func
 437              		.type	eMBMasterReqWriteCoil, %function
 438              	eMBMasterReqWriteCoil:
 439              	.LFB258:
 440              		.loc 2 209 0
 441              		.cfi_startproc
 442              		@ args = 0, pretend = 0, frame = 16
 443              		@ frame_needed = 0, uses_anonymous_args = 0
 444              	.LVL42:
 445              		.loc 2 213 0
 446 0000 1029     		cmp	r1, #16
 447 0002 01D9     		bls	.L44
 448 0004 0220     		movs	r0, #2
 449              	.LVL43:
 450              		.loc 2 230 0
 451 0006 7047     		bx	lr
 452              	.LVL44:
 453              	.L44:
ARM GAS  C:\Users\jo\AppData\Local\Temp\cceM8YCK.s 			page 9


 454              		.loc 2 209 0
 455 0008 10B5     		push	{r4, lr}
 456              		.cfi_def_cfa_offset 8
 457              		.cfi_offset 4, -8
 458              		.cfi_offset 14, -4
 459              		.loc 2 214 0
 460 000a B2F57F4F 		cmp	r2, #65280
 461              		.loc 2 209 0
 462 000e 84B0     		sub	sp, sp, #16
 463              		.cfi_def_cfa_offset 24
 464 0010 0446     		mov	r4, r0
 465              		.loc 2 214 0
 466 0012 03D0     		beq	.L36
 467              		.loc 2 214 0 is_stmt 0 discriminator 1
 468 0014 12B1     		cbz	r2, .L36
 469              		.loc 2 213 0 is_stmt 1
 470 0016 0220     		movs	r0, #2
 471              	.LVL45:
 472              	.L35:
 473              		.loc 2 230 0
 474 0018 04B0     		add	sp, sp, #16
 475              		.cfi_remember_state
 476              		.cfi_def_cfa_offset 8
 477              		@ sp needed
 478 001a 10BD     		pop	{r4, pc}
 479              	.LVL46:
 480              	.L36:
 481              		.cfi_restore_state
 482              		.loc 2 215 0
 483 001c 1846     		mov	r0, r3
 484              	.LVL47:
 485 001e 8DE80600 		stmia	sp, {r1, r2}
 486 0022 FFF7FEFF 		bl	xMBMasterRunResTake
 487              	.LVL48:
 488 0026 10B9     		cbnz	r0, .L45
 489 0028 0520     		movs	r0, #5
 490              	.LVL49:
 491              		.loc 2 230 0
 492 002a 04B0     		add	sp, sp, #16
 493              		.cfi_remember_state
 494              		.cfi_def_cfa_offset 8
 495              		@ sp needed
 496 002c 10BD     		pop	{r4, pc}
 497              	.LVL50:
 498              	.L45:
 499              		.cfi_restore_state
 500              		.loc 2 218 0
 501 002e 03A8     		add	r0, sp, #12
 502 0030 FFF7FEFF 		bl	vMBMasterGetPDUSndBuf
 503              	.LVL51:
 504              		.loc 2 219 0
 505 0034 2046     		mov	r0, r4
 506 0036 FFF7FEFF 		bl	vMBMasterSetDestAddress
 507              	.LVL52:
 508              		.loc 2 220 0
 509 003a 039B     		ldr	r3, [sp, #12]
 510              		.loc 2 222 0
ARM GAS  C:\Users\jo\AppData\Local\Temp\cceM8YCK.s 			page 10


 511 003c 0099     		ldr	r1, [sp]
 512              		.loc 2 223 0
 513 003e 019A     		ldr	r2, [sp, #4]
 514              		.loc 2 220 0
 515 0040 0520     		movs	r0, #5
 516 0042 1870     		strb	r0, [r3]
 517              		.loc 2 221 0
 518 0044 039B     		ldr	r3, [sp, #12]
 519 0046 0024     		movs	r4, #0
 520 0048 5C70     		strb	r4, [r3, #1]
 521              		.loc 2 222 0
 522 004a 039B     		ldr	r3, [sp, #12]
 523 004c 9970     		strb	r1, [r3, #2]
 524              		.loc 2 223 0
 525 004e 039B     		ldr	r3, [sp, #12]
 526 0050 110A     		lsrs	r1, r2, #8
 527 0052 D970     		strb	r1, [r3, #3]
 528              		.loc 2 224 0
 529 0054 039B     		ldr	r3, [sp, #12]
 530 0056 1A71     		strb	r2, [r3, #4]
 531              		.loc 2 225 0
 532 0058 FFF7FEFF 		bl	vMBMasterSetPDUSndLength
 533              	.LVL53:
 534              		.loc 2 226 0
 535 005c 0820     		movs	r0, #8
 536 005e FFF7FEFF 		bl	xMBMasterPortEventPost
 537              	.LVL54:
 538              		.loc 2 227 0
 539 0062 FFF7FEFF 		bl	eMBMasterWaitRequestFinish
 540              	.LVL55:
 541 0066 D7E7     		b	.L35
 542              		.cfi_endproc
 543              	.LFE258:
 544              		.size	eMBMasterReqWriteCoil, .-eMBMasterReqWriteCoil
 545 0068 AFF30080 		.section	.text.eMBMasterFuncWriteCoil,"ax",%progbits
 545      AFF30080 
 546              		.align	2
 547              		.p2align 4,,15
 548              		.global	eMBMasterFuncWriteCoil
 549              		.thumb
 550              		.thumb_func
 551              		.type	eMBMasterFuncWriteCoil, %function
 552              	eMBMasterFuncWriteCoil:
 553              	.LFB259:
 554              		.loc 2 234 0
 555              		.cfi_startproc
 556              		@ args = 0, pretend = 0, frame = 8
 557              		@ frame_needed = 0, uses_anonymous_args = 0
 558              	.LVL56:
 559              		.loc 2 241 0
 560 0000 0B88     		ldrh	r3, [r1]
 561 0002 052B     		cmp	r3, #5
 562 0004 01D0     		beq	.L56
 563              	.LVL57:
 564              	.L51:
 565              		.loc 2 278 0
 566 0006 0320     		movs	r0, #3
ARM GAS  C:\Users\jo\AppData\Local\Temp\cceM8YCK.s 			page 11


 567              	.LVL58:
 568 0008 7047     		bx	lr
 569              	.LVL59:
 570              	.L56:
 571              		.loc 2 247 0
 572 000a 0379     		ldrb	r3, [r0, #4]	@ zero_extendqisi2
 573              		.loc 2 243 0
 574 000c 4178     		ldrb	r1, [r0, #1]	@ zero_extendqisi2
 575              	.LVL60:
 576              		.loc 2 244 0
 577 000e 8278     		ldrb	r2, [r0, #2]	@ zero_extendqisi2
 578              	.LVL61:
 579              		.loc 2 247 0
 580 0010 002B     		cmp	r3, #0
 581 0012 F8D1     		bne	.L51
 582              		.loc 2 234 0 discriminator 1
 583 0014 10B5     		push	{r4, lr}
 584              		.cfi_def_cfa_offset 8
 585              		.cfi_offset 4, -8
 586              		.cfi_offset 14, -4
 587              		.loc 2 248 0 discriminator 1
 588 0016 C478     		ldrb	r4, [r0, #3]	@ zero_extendqisi2
 589 0018 601E     		subs	r0, r4, #1
 590              	.LVL62:
 591              		.loc 2 247 0 discriminator 1
 592 001a C0B2     		uxtb	r0, r0
 593 001c FD28     		cmp	r0, #253
 594              		.loc 2 234 0 discriminator 1
 595 001e 82B0     		sub	sp, sp, #8
 596              		.cfi_def_cfa_offset 16
 597              		.loc 2 247 0 discriminator 1
 598 0020 02D8     		bhi	.L57
 599              		.loc 2 278 0
 600 0022 0320     		movs	r0, #3
 601              	.LVL63:
 602              	.L47:
 603              		.loc 2 281 0
 604 0024 02B0     		add	sp, sp, #8
 605              		.cfi_remember_state
 606              		.cfi_def_cfa_offset 8
 607              		@ sp needed
 608 0026 10BD     		pop	{r4, pc}
 609              	.LVL64:
 610              	.L57:
 611              		.cfi_restore_state
 612              		.loc 2 252 0
 613 0028 FF2C     		cmp	r4, #255
 614              		.loc 2 244 0
 615 002a 42EA0122 		orr	r2, r2, r1, lsl #8
 616              	.LVL65:
 617              		.loc 2 251 0
 618 002e 8DF80530 		strb	r3, [sp, #5]
 619              		.loc 2 245 0
 620 0032 02F10101 		add	r1, r2, #1
 621              	.LVL66:
 622              		.loc 2 254 0
 623 0036 08BF     		it	eq
ARM GAS  C:\Users\jo\AppData\Local\Temp\cceM8YCK.s 			page 12


 624 0038 0123     		moveq	r3, #1
 625              		.loc 2 260 0
 626 003a 0122     		movs	r2, #1
 627              		.loc 2 258 0
 628 003c 8DF80430 		strb	r3, [sp, #4]
 629              		.loc 2 260 0
 630 0040 89B2     		uxth	r1, r1
 631 0042 1346     		mov	r3, r2
 632 0044 01A8     		add	r0, sp, #4
 633 0046 FFF7FEFF 		bl	eMBMasterRegCoilsCB
 634              	.LVL67:
 635              		.loc 2 264 0
 636 004a 00B9     		cbnz	r0, .L58
 637 004c EAE7     		b	.L47
 638              	.L58:
 639              		.loc 2 266 0
 640 004e FFF7FEFF 		bl	prveMBError2Exception
 641              	.LVL68:
 642 0052 E7E7     		b	.L47
 643              		.cfi_endproc
 644              	.LFE259:
 645              		.size	eMBMasterFuncWriteCoil, .-eMBMasterFuncWriteCoil
 646 0054 AFF30080 		.section	.text.eMBMasterReqWriteMultipleCoils,"ax",%progbits
 646      AFF30080 
 646      AFF30080 
 647              		.align	2
 648              		.p2align 4,,15
 649              		.global	eMBMasterReqWriteMultipleCoils
 650              		.thumb
 651              		.thumb_func
 652              		.type	eMBMasterReqWriteMultipleCoils, %function
 653              	eMBMasterReqWriteMultipleCoils:
 654              	.LFB260:
 655              		.loc 2 303 0
 656              		.cfi_startproc
 657              		@ args = 4, pretend = 0, frame = 24
 658              		@ frame_needed = 0, uses_anonymous_args = 0
 659              	.LVL69:
 660 0000 30B5     		push	{r4, r5, lr}
 661              		.cfi_def_cfa_offset 12
 662              		.cfi_offset 4, -12
 663              		.cfi_offset 5, -8
 664              		.cfi_offset 14, -4
 665              		.loc 2 309 0
 666 0002 1028     		cmp	r0, #16
 667              		.loc 2 303 0
 668 0004 87B0     		sub	sp, sp, #28
 669              		.cfi_def_cfa_offset 40
 670              		.loc 2 303 0
 671 0006 0446     		mov	r4, r0
 672              	.LVL70:
 673              		.loc 2 309 0
 674 0008 02D9     		bls	.L71
 675              	.L66:
 676 000a 0220     		movs	r0, #2
 677              	.LVL71:
 678              	.L60:
ARM GAS  C:\Users\jo\AppData\Local\Temp\cceM8YCK.s 			page 13


 679              		.loc 2 340 0
 680 000c 07B0     		add	sp, sp, #28
 681              		.cfi_remember_state
 682              		.cfi_def_cfa_offset 12
 683              		@ sp needed
 684 000e 30BD     		pop	{r4, r5, pc}
 685              	.LVL72:
 686              	.L71:
 687              		.cfi_restore_state
 688              		.loc 2 310 0
 689 0010 B2F5F66F 		cmp	r2, #1968
 690 0014 F9D8     		bhi	.L66
 691              		.loc 2 311 0
 692 0016 0A98     		ldr	r0, [sp, #40]
 693              	.LVL73:
 694 0018 0393     		str	r3, [sp, #12]
 695 001a 0292     		str	r2, [sp, #8]
 696 001c 0191     		str	r1, [sp, #4]
 697 001e FFF7FEFF 		bl	xMBMasterRunResTake
 698              	.LVL74:
 699 0022 08B9     		cbnz	r0, .L72
 700 0024 0520     		movs	r0, #5
 701 0026 F1E7     		b	.L60
 702              	.L72:
 703              		.loc 2 314 0
 704 0028 05A8     		add	r0, sp, #20
 705 002a FFF7FEFF 		bl	vMBMasterGetPDUSndBuf
 706              	.LVL75:
 707              		.loc 2 315 0
 708 002e 2046     		mov	r0, r4
 709 0030 FFF7FEFF 		bl	vMBMasterSetDestAddress
 710              	.LVL76:
 711              		.loc 2 316 0
 712 0034 0598     		ldr	r0, [sp, #20]
 713              		.loc 2 317 0
 714 0036 0199     		ldr	r1, [sp, #4]
 715              		.loc 2 319 0
 716 0038 029A     		ldr	r2, [sp, #8]
 717              		.loc 2 321 0
 718 003a 039B     		ldr	r3, [sp, #12]
 719              		.loc 2 316 0
 720 003c 0F24     		movs	r4, #15
 721 003e 0470     		strb	r4, [r0]
 722              		.loc 2 317 0
 723 0040 0598     		ldr	r0, [sp, #20]
 724 0042 0C0A     		lsrs	r4, r1, #8
 725 0044 4470     		strb	r4, [r0, #1]
 726              		.loc 2 318 0
 727 0046 0598     		ldr	r0, [sp, #20]
 728 0048 8170     		strb	r1, [r0, #2]
 729              		.loc 2 319 0
 730 004a 0599     		ldr	r1, [sp, #20]
 731 004c 100A     		lsrs	r0, r2, #8
 732 004e C870     		strb	r0, [r1, #3]
 733              		.loc 2 320 0
 734 0050 059C     		ldr	r4, [sp, #20]
 735              		.loc 2 321 0
ARM GAS  C:\Users\jo\AppData\Local\Temp\cceM8YCK.s 			page 14


 736 0052 12F0070F 		tst	r2, #7
 737              		.loc 2 320 0
 738 0056 2271     		strb	r2, [r4, #4]
 739              		.loc 2 321 0
 740 0058 1BD0     		beq	.L61
 741              		.loc 2 323 0
 742 005a D008     		lsrs	r0, r2, #3
 743 005c 0130     		adds	r0, r0, #1
 744 005e C0B2     		uxtb	r0, r0
 745              	.LVL77:
 746              		.loc 2 329 0
 747 0060 6071     		strb	r0, [r4, #5]
 748              		.loc 2 330 0
 749 0062 A11D     		adds	r1, r4, #6
 750              		.loc 2 331 0
 751 0064 80B2     		uxth	r0, r0
 752              	.LVL78:
 753              	.L62:
 754 0066 451E     		subs	r5, r0, #1
 755 0068 13FA85F5 		uxtah	r5, r3, r5
 756 006c 013B     		subs	r3, r3, #1
 757 006e 00E0     		b	.L64
 758              	.LVL79:
 759              	.L73:
 760 0070 0599     		ldr	r1, [sp, #20]
 761              	.L64:
 762              	.LVL80:
 763              		.loc 2 333 0
 764 0072 13F8012F 		ldrb	r2, [r3, #1]!	@ zero_extendqisi2
 765              	.LVL81:
 766 0076 4C1C     		adds	r4, r1, #1
 767              		.loc 2 331 0
 768 0078 AB42     		cmp	r3, r5
 769              		.loc 2 333 0
 770 007a 0594     		str	r4, [sp, #20]
 771 007c 0A70     		strb	r2, [r1]
 772              		.loc 2 331 0
 773 007e F7D1     		bne	.L73
 774              	.L63:
 775              		.loc 2 335 0
 776 0080 0630     		adds	r0, r0, #6
 777 0082 FFF7FEFF 		bl	vMBMasterSetPDUSndLength
 778              	.LVL82:
 779              		.loc 2 336 0
 780 0086 0820     		movs	r0, #8
 781 0088 FFF7FEFF 		bl	xMBMasterPortEventPost
 782              	.LVL83:
 783              		.loc 2 337 0
 784 008c FFF7FEFF 		bl	eMBMasterWaitRequestFinish
 785              	.LVL84:
 786 0090 BCE7     		b	.L60
 787              	.LVL85:
 788              	.L61:
 789              		.loc 2 327 0
 790 0092 C2F3C702 		ubfx	r2, r2, #3, #8
 791              	.LVL86:
 792              		.loc 2 330 0
ARM GAS  C:\Users\jo\AppData\Local\Temp\cceM8YCK.s 			page 15


 793 0096 A11D     		adds	r1, r4, #6
 794              		.loc 2 329 0
 795 0098 6271     		strb	r2, [r4, #5]
 796              		.loc 2 330 0
 797 009a 0591     		str	r1, [sp, #20]
 798              		.loc 2 331 0
 799 009c 90B2     		uxth	r0, r2
 800 009e 002A     		cmp	r2, #0
 801 00a0 E1D1     		bne	.L62
 802 00a2 1046     		mov	r0, r2
 803 00a4 ECE7     		b	.L63
 804              		.cfi_endproc
 805              	.LFE260:
 806              		.size	eMBMasterReqWriteMultipleCoils, .-eMBMasterReqWriteMultipleCoils
 807 00a6 00BFAFF3 		.section	.text.eMBMasterFuncWriteMultipleCoils,"ax",%progbits
 807      0080AFF3 
 807      0080
 808              		.align	2
 809              		.p2align 4,,15
 810              		.global	eMBMasterFuncWriteMultipleCoils
 811              		.thumb
 812              		.thumb_func
 813              		.type	eMBMasterFuncWriteMultipleCoils, %function
 814              	eMBMasterFuncWriteMultipleCoils:
 815              	.LFB261:
 816              		.loc 2 344 0
 817              		.cfi_startproc
 818              		@ args = 0, pretend = 0, frame = 8
 819              		@ frame_needed = 0, uses_anonymous_args = 0
 820              	.LVL87:
 821 0000 30B5     		push	{r4, r5, lr}
 822              		.cfi_def_cfa_offset 12
 823              		.cfi_offset 4, -12
 824              		.cfi_offset 5, -8
 825              		.cfi_offset 14, -4
 826              		.loc 2 355 0
 827 0002 0B88     		ldrh	r3, [r1]
 828 0004 052B     		cmp	r3, #5
 829              		.loc 2 344 0
 830 0006 83B0     		sub	sp, sp, #12
 831              		.cfi_def_cfa_offset 24
 832              		.loc 2 344 0
 833 0008 0446     		mov	r4, r0
 834              		.loc 2 355 0
 835 000a 05D0     		beq	.L78
 836              		.loc 2 355 0 is_stmt 0 discriminator 1
 837 000c FFF7FEFF 		bl	xMBMasterRequestIsBroadcast
 838              	.LVL88:
 839 0010 10B9     		cbnz	r0, .L78
 840              	.LVL89:
 841              	.L81:
 842              		.loc 2 398 0 is_stmt 1
 843 0012 0320     		movs	r0, #3
 844              	.LVL90:
 845              	.L79:
 846              		.loc 2 401 0
 847 0014 03B0     		add	sp, sp, #12
ARM GAS  C:\Users\jo\AppData\Local\Temp\cceM8YCK.s 			page 16


 848              		.cfi_remember_state
 849              		.cfi_def_cfa_offset 12
 850              		@ sp needed
 851 0016 30BD     		pop	{r4, r5, pc}
 852              	.LVL91:
 853              	.L78:
 854              		.cfi_restore_state
 855              		.loc 2 357 0
 856 0018 01A8     		add	r0, sp, #4
 857 001a FFF7FEFF 		bl	vMBMasterGetPDUSndBuf
 858              	.LVL92:
 859              		.loc 2 363 0
 860 001e 2379     		ldrb	r3, [r4, #4]	@ zero_extendqisi2
 861              		.loc 2 362 0
 862 0020 E278     		ldrb	r2, [r4, #3]	@ zero_extendqisi2
 863              		.loc 2 365 0
 864 0022 0198     		ldr	r0, [sp, #4]
 865              		.loc 2 358 0
 866 0024 6578     		ldrb	r5, [r4, #1]	@ zero_extendqisi2
 867              	.LVL93:
 868              		.loc 2 365 0
 869 0026 4179     		ldrb	r1, [r0, #5]	@ zero_extendqisi2
 870              		.loc 2 359 0
 871 0028 A478     		ldrb	r4, [r4, #2]	@ zero_extendqisi2
 872              	.LVL94:
 873              		.loc 2 363 0
 874 002a 43EA0222 		orr	r2, r3, r2, lsl #8
 875              	.LVL95:
 876              		.loc 2 368 0
 877 002e 5307     		lsls	r3, r2, #29
 878 0030 0ED0     		beq	.L89
 879              		.loc 2 370 0
 880 0032 D308     		lsrs	r3, r2, #3
 881 0034 0133     		adds	r3, r3, #1
 882 0036 DBB2     		uxtb	r3, r3
 883              	.L80:
 884              	.LVL96:
 885              		.loc 2 377 0 discriminator 1
 886 0038 8B42     		cmp	r3, r1
 887 003a EAD1     		bne	.L81
 888              		.loc 2 359 0
 889 003c 44EA0521 		orr	r1, r4, r5, lsl #8
 890              	.LVL97:
 891              		.loc 2 360 0
 892 0040 0131     		adds	r1, r1, #1
 893              		.loc 2 379 0
 894 0042 89B2     		uxth	r1, r1
 895 0044 0630     		adds	r0, r0, #6
 896              	.LVL98:
 897 0046 0123     		movs	r3, #1
 898              	.LVL99:
 899 0048 FFF7FEFF 		bl	eMBMasterRegCoilsCB
 900              	.LVL100:
 901              		.loc 2 384 0
 902 004c 28B9     		cbnz	r0, .L90
 903 004e E1E7     		b	.L79
 904              	.LVL101:
ARM GAS  C:\Users\jo\AppData\Local\Temp\cceM8YCK.s 			page 17


 905              	.L89:
 906              		.loc 2 377 0
 907 0050 002A     		cmp	r2, #0
 908 0052 DED0     		beq	.L81
 909              		.loc 2 374 0
 910 0054 C2F3C703 		ubfx	r3, r2, #3, #8
 911 0058 EEE7     		b	.L80
 912              	.LVL102:
 913              	.L90:
 914              		.loc 2 386 0
 915 005a FFF7FEFF 		bl	prveMBError2Exception
 916              	.LVL103:
 917 005e D9E7     		b	.L79
 918              		.cfi_endproc
 919              	.LFE261:
 920              		.size	eMBMasterFuncWriteMultipleCoils, .-eMBMasterFuncWriteMultipleCoils
 921              		.section	.rodata.str1.4,"aMS",%progbits,1
 922              		.align	2
 923              	.LC0:
 924 0000 5265736F 		.ascii	"Resource Taken %s\012\000"
 924      75726365 
 924      2054616B 
 924      656E2025 
 924      730A00
 925 0013 00       		.space	1
 926              	.LC1:
 927 0014 74727565 		.ascii	"true\000"
 927      00
 928 0019 000000   		.space	3
 929              	.LC2:
 930 001c 66616C73 		.ascii	"false\000"
 930      6500
 931 0022 0000     		.space	2
 932              	.LC3:
 933 0024 52544300 		.ascii	"RTC\000"
 934              	.LC4:
 935 0028 52544328 		.ascii	"RTC(E)\000"
 935      452900
 936 002f 00       		.section	.bss.nReqs,"aw",%nobits
 937              		.align	1
 938              		.set	.LANCHOR0,. + 0
 939              		.type	nReqs, %object
 940              		.size	nReqs, 2
 941              	nReqs:
 942 0000 0000     		.space	2
 943              		.text
 944              	.Letext0:
 945              		.file 3 "c:\\program files\\gnu tools arm embedded\\4.9 2014q4\\lib\\gcc\\arm-none-eabi\\4.9.3\\in
 946              		.file 4 "c:\\program files\\gnu tools arm embedded\\4.9 2014q4\\arm-none-eabi\\include\\machine\\_
 947              		.file 5 "c:\\program files\\gnu tools arm embedded\\4.9 2014q4\\arm-none-eabi\\include\\stdint.h"
 948              		.file 6 "./ArrayList.h"
 949              		.file 7 "../../../os/rt/ports/ARMCMx/compilers/GCC/chtypes.h"
 950              		.file 8 "../../../os/rt/include/chsystypes.h"
 951              		.file 9 "../../../os/rt/include/chschd.h"
 952              		.file 10 "../../../os/rt/ports/ARMCMx/chcore.h"
 953              		.file 11 "../../../os/rt/ports/ARMCMx/chcore_v7m.h"
 954              		.file 12 "c:\\program files\\gnu tools arm embedded\\4.9 2014q4\\lib\\gcc\\arm-none-eabi\\4.9.3\\i
ARM GAS  C:\Users\jo\AppData\Local\Temp\cceM8YCK.s 			page 18


 955              		.file 13 "<built-in>"
 956              		.file 14 "../../../os/rt/include/chtm.h"
 957              		.file 15 "../../../os/rt/include/chmtx.h"
 958              		.file 16 "../../../os/rt/include/chstreams.h"
 959              		.file 17 "./ITM_trace.h"
 960              		.file 18 "FreeModbus/port/port.h"
 961              		.file 19 "FreeModbus/modbus/include/mbport.h"
 962              		.file 20 "FreeModbus/modbus/include/mbproto.h"
 963              		.file 21 "FreeModbus/modbus/include/mb.h"
 964              		.file 22 "FreeModbus/modbus/include/mb_m.h"
 965              		.file 23 "../../../os/ext/CMSIS/include/core_cm4.h"