ARM GAS  C:\Users\jo\AppData\Local\Temp\ccRedE1P.s 			page 1


   1              		.syntax unified
   2              		.cpu cortex-m4
   3              		.eabi_attribute 27, 3
   4              		.eabi_attribute 28, 1
   5              		.fpu fpv4-sp-d16
   6              		.eabi_attribute 20, 1
   7              		.eabi_attribute 21, 1
   8              		.eabi_attribute 23, 3
   9              		.eabi_attribute 24, 1
  10              		.eabi_attribute 25, 1
  11              		.eabi_attribute 26, 1
  12              		.eabi_attribute 30, 2
  13              		.eabi_attribute 34, 1
  14              		.eabi_attribute 18, 4
  15              		.thumb
  16              		.file	"mbrtu_m.c"
  17              		.text
  18              	.Ltext0:
  19              		.cfi_sections	.debug_frame
  20              		.section	.text.eMBMasterRTUInit,"ax",%progbits
  21              		.align	2
  22              		.p2align 4,,15
  23              		.global	eMBMasterRTUInit
  24              		.thumb
  25              		.thumb_func
  26              		.type	eMBMasterRTUInit, %function
  27              	eMBMasterRTUInit:
  28              	.LFB256:
  29              		.file 1 "FreeModbus/modbus/rtu/mbrtu_m.c"
  30              		.loc 1 91 0
  31              		.cfi_startproc
  32              		@ args = 0, pretend = 0, frame = 0
  33              		@ frame_needed = 0, uses_anonymous_args = 0
  34              	.LVL0:
  35 0000 70B5     		push	{r4, r5, r6, lr}
  36              		.cfi_def_cfa_offset 16
  37              		.cfi_offset 4, -16
  38              		.cfi_offset 5, -12
  39              		.cfi_offset 6, -8
  40              		.cfi_offset 14, -4
  41              		.loc 1 91 0
  42 0002 1546     		mov	r5, r2
  43 0004 0646     		mov	r6, r0
  44 0006 0C46     		mov	r4, r1
  45              		.loc 1 95 0
  46 0008 FFF7FEFF 		bl	EnterCriticalSection
  47              	.LVL1:
  48              		.loc 1 98 0
  49 000c 3046     		mov	r0, r6
  50 000e 2146     		mov	r1, r4
  51 0010 2B46     		mov	r3, r5
  52 0012 0822     		movs	r2, #8
  53 0014 FFF7FEFF 		bl	xMBMasterPortSerialInit
  54              	.LVL2:
  55 0018 0128     		cmp	r0, #1
  56 001a 04D0     		beq	.L9
  57              		.loc 1 100 0
ARM GAS  C:\Users\jo\AppData\Local\Temp\ccRedE1P.s 			page 2


  58 001c 0324     		movs	r4, #3
  59              	.LVL3:
  60              		.loc 1 128 0
  61 001e FFF7FEFF 		bl	ExitCriticalSection
  62              	.LVL4:
  63              		.loc 1 131 0
  64 0022 2046     		mov	r0, r4
  65 0024 70BD     		pop	{r4, r5, r6, pc}
  66              	.LVL5:
  67              	.L9:
  68              		.loc 1 107 0
  69 0026 B4F5964F 		cmp	r4, #19200
  70 002a 0ED8     		bhi	.L5
  71              	.LVL6:
  72              		.loc 1 121 0
  73 002c 0848     		ldr	r0, .L10
  74 002e 6400     		lsls	r4, r4, #1
  75              	.LVL7:
  76 0030 B0FBF4F4 		udiv	r4, r0, r4
  77              	.LVL8:
  78 0034 A0B2     		uxth	r0, r4
  79              	.LVL9:
  80              	.L3:
  81              		.loc 1 123 0
  82 0036 FFF7FEFF 		bl	xMBMasterPortTimersInit
  83              	.LVL10:
  84 003a 0128     		cmp	r0, #1
  85              		.loc 1 125 0
  86 003c 0CBF     		ite	eq
  87 003e 0024     		moveq	r4, #0
  88 0040 0324     		movne	r4, #3
  89              	.LVL11:
  90              		.loc 1 128 0
  91 0042 FFF7FEFF 		bl	ExitCriticalSection
  92              	.LVL12:
  93              		.loc 1 131 0
  94 0046 2046     		mov	r0, r4
  95 0048 70BD     		pop	{r4, r5, r6, pc}
  96              	.LVL13:
  97              	.L5:
  98 004a 2320     		movs	r0, #35
  99 004c F3E7     		b	.L3
 100              	.L11:
 101 004e 00BF     		.align	2
 102              	.L10:
 103 0050 A07F1700 		.word	1540000
 104              		.cfi_endproc
 105              	.LFE256:
 106              		.size	eMBMasterRTUInit, .-eMBMasterRTUInit
 107 0054 AFF30080 		.section	.text.eMBMasterRTUStart,"ax",%progbits
 107      AFF30080 
 107      AFF30080 
 108              		.align	2
 109              		.p2align 4,,15
 110              		.global	eMBMasterRTUStart
 111              		.thumb
 112              		.thumb_func
ARM GAS  C:\Users\jo\AppData\Local\Temp\ccRedE1P.s 			page 3


 113              		.type	eMBMasterRTUStart, %function
 114              	eMBMasterRTUStart:
 115              	.LFB257:
 116              		.loc 1 135 0
 117              		.cfi_startproc
 118              		@ args = 0, pretend = 0, frame = 0
 119              		@ frame_needed = 0, uses_anonymous_args = 0
 120 0000 08B5     		push	{r3, lr}
 121              		.cfi_def_cfa_offset 8
 122              		.cfi_offset 3, -8
 123              		.cfi_offset 14, -4
 124              		.loc 1 136 0
 125 0002 FFF7FEFF 		bl	EnterCriticalSection
 126              	.LVL14:
 127              		.loc 1 142 0
 128 0006 0023     		movs	r3, #0
 129 0008 054A     		ldr	r2, .L14
 130              		.loc 1 143 0
 131 000a 1946     		mov	r1, r3
 132 000c 0120     		movs	r0, #1
 133              		.loc 1 142 0
 134 000e 1370     		strb	r3, [r2]
 135              		.loc 1 143 0
 136 0010 FFF7FEFF 		bl	vMBMasterPortSerialEnable
 137              	.LVL15:
 138              		.loc 1 144 0
 139 0014 FFF7FEFF 		bl	vMBMasterPortTimersT35Enable
 140              	.LVL16:
 141              		.loc 1 147 0
 142 0018 BDE80840 		pop	{r3, lr}
 143              		.cfi_restore 14
 144              		.cfi_restore 3
 145              		.cfi_def_cfa_offset 0
 146              		.loc 1 146 0
 147 001c FFF7FEBF 		b	ExitCriticalSection
 148              	.LVL17:
 149              	.L15:
 150              		.align	2
 151              	.L14:
 152 0020 00000000 		.word	.LANCHOR0
 153              		.cfi_endproc
 154              	.LFE257:
 155              		.size	eMBMasterRTUStart, .-eMBMasterRTUStart
 156 0024 AFF30080 		.section	.text.eMBMasterRTUStop,"ax",%progbits
 156      AFF30080 
 156      AFF30080 
 157              		.align	2
 158              		.p2align 4,,15
 159              		.global	eMBMasterRTUStop
 160              		.thumb
 161              		.thumb_func
 162              		.type	eMBMasterRTUStop, %function
 163              	eMBMasterRTUStop:
 164              	.LFB258:
 165              		.loc 1 151 0
 166              		.cfi_startproc
 167              		@ args = 0, pretend = 0, frame = 0
ARM GAS  C:\Users\jo\AppData\Local\Temp\ccRedE1P.s 			page 4


 168              		@ frame_needed = 0, uses_anonymous_args = 0
 169 0000 08B5     		push	{r3, lr}
 170              		.cfi_def_cfa_offset 8
 171              		.cfi_offset 3, -8
 172              		.cfi_offset 14, -4
 173              		.loc 1 152 0
 174 0002 FFF7FEFF 		bl	EnterCriticalSection
 175              	.LVL18:
 176              		.loc 1 153 0
 177 0006 0020     		movs	r0, #0
 178 0008 0146     		mov	r1, r0
 179 000a FFF7FEFF 		bl	vMBMasterPortSerialEnable
 180              	.LVL19:
 181              		.loc 1 154 0
 182 000e FFF7FEFF 		bl	vMBMasterPortTimersDisable
 183              	.LVL20:
 184              		.loc 1 156 0
 185 0012 BDE80840 		pop	{r3, lr}
 186              		.cfi_restore 14
 187              		.cfi_restore 3
 188              		.cfi_def_cfa_offset 0
 189              		.loc 1 155 0
 190 0016 FFF7FEBF 		b	ExitCriticalSection
 191              	.LVL21:
 192              		.cfi_endproc
 193              	.LFE258:
 194              		.size	eMBMasterRTUStop, .-eMBMasterRTUStop
 195 001a 00BFAFF3 		.section	.text.eMBMasterRTUReceive,"ax",%progbits
 195      0080
 196              		.align	2
 197              		.p2align 4,,15
 198              		.global	eMBMasterRTUReceive
 199              		.thumb
 200              		.thumb_func
 201              		.type	eMBMasterRTUReceive, %function
 202              	eMBMasterRTUReceive:
 203              	.LFB259:
 204              		.loc 1 160 0
 205              		.cfi_startproc
 206              		@ args = 0, pretend = 0, frame = 0
 207              		@ frame_needed = 0, uses_anonymous_args = 0
 208              	.LVL22:
 209 0000 2DE9F041 		push	{r4, r5, r6, r7, r8, lr}
 210              		.cfi_def_cfa_offset 24
 211              		.cfi_offset 4, -24
 212              		.cfi_offset 5, -20
 213              		.cfi_offset 6, -16
 214              		.cfi_offset 7, -12
 215              		.cfi_offset 8, -8
 216              		.cfi_offset 14, -4
 217              		.loc 1 164 0
 218 0004 164C     		ldr	r4, .L25
 219              		.loc 1 160 0
 220 0006 0746     		mov	r7, r0
 221 0008 0D46     		mov	r5, r1
 222 000a 1646     		mov	r6, r2
 223              		.loc 1 163 0
ARM GAS  C:\Users\jo\AppData\Local\Temp\ccRedE1P.s 			page 5


 224 000c FFF7FEFF 		bl	EnterCriticalSection
 225              	.LVL23:
 226              		.loc 1 164 0
 227 0010 2388     		ldrh	r3, [r4]
 228 0012 9BB2     		uxth	r3, r3
 229 0014 FF2B     		cmp	r3, #255
 230 0016 1DD8     		bhi	.L24
 231              		.loc 1 167 0
 232 0018 2388     		ldrh	r3, [r4]
 233 001a 9BB2     		uxth	r3, r3
 234 001c 032B     		cmp	r3, #3
 235 001e 06D8     		bhi	.L20
 236              	.L22:
 237              		.loc 1 185 0
 238 0020 4FF00508 		mov	r8, #5
 239              	.L21:
 240              	.LVL24:
 241              		.loc 1 188 0
 242 0024 FFF7FEFF 		bl	ExitCriticalSection
 243              	.LVL25:
 244              		.loc 1 190 0
 245 0028 4046     		mov	r0, r8
 246 002a BDE8F081 		pop	{r4, r5, r6, r7, r8, pc}
 247              	.LVL26:
 248              	.L20:
 249              		.loc 1 168 0
 250 002e 2188     		ldrh	r1, [r4]
 251 0030 DFF83C80 		ldr	r8, .L25+16
 252 0034 89B2     		uxth	r1, r1
 253 0036 4046     		mov	r0, r8
 254 0038 FFF7FEFF 		bl	usMBCRC16
 255              	.LVL27:
 256 003c 0028     		cmp	r0, #0
 257 003e EFD1     		bne	.L22
 258              		.loc 1 173 0
 259 0040 4346     		mov	r3, r8
 260              		.loc 1 161 0
 261 0042 8046     		mov	r8, r0
 262              		.loc 1 173 0
 263 0044 13F8011B 		ldrb	r1, [r3], #1	@ zero_extendqisi2
 264              		.loc 1 178 0
 265 0048 2288     		ldrh	r2, [r4]
 266              		.loc 1 173 0
 267 004a 3970     		strb	r1, [r7]
 268              		.loc 1 178 0
 269 004c 033A     		subs	r2, r2, #3
 270 004e 3280     		strh	r2, [r6]	@ movhi
 271              		.loc 1 181 0
 272 0050 2B60     		str	r3, [r5]
 273 0052 E7E7     		b	.L21
 274              	.L24:
 275              		.loc 1 164 0 discriminator 1
 276 0054 0348     		ldr	r0, .L25+4
 277 0056 044A     		ldr	r2, .L25+8
 278 0058 044B     		ldr	r3, .L25+12
 279 005a A421     		movs	r1, #164
 280 005c FFF7FEFF 		bl	__assert_func
ARM GAS  C:\Users\jo\AppData\Local\Temp\ccRedE1P.s 			page 6


 281              	.LVL28:
 282              	.L26:
 283              		.align	2
 284              	.L25:
 285 0060 00000000 		.word	.LANCHOR1
 286 0064 00000000 		.word	.LC0
 287 0068 00000000 		.word	.LANCHOR2
 288 006c 20000000 		.word	.LC1
 289 0070 00000000 		.word	.LANCHOR3
 290              		.cfi_endproc
 291              	.LFE259:
 292              		.size	eMBMasterRTUReceive, .-eMBMasterRTUReceive
 293 0074 AFF30080 		.section	.text.eMBMasterRTUSend,"ax",%progbits
 293      AFF30080 
 293      AFF30080 
 294              		.align	2
 295              		.p2align 4,,15
 296              		.global	eMBMasterRTUSend
 297              		.thumb
 298              		.thumb_func
 299              		.type	eMBMasterRTUSend, %function
 300              	eMBMasterRTUSend:
 301              	.LFB260:
 302              		.loc 1 194 0
 303              		.cfi_startproc
 304              		@ args = 0, pretend = 0, frame = 16
 305              		@ frame_needed = 0, uses_anonymous_args = 0
 306              	.LVL29:
 307              		.loc 1 198 0
 308 0000 1028     		cmp	r0, #16
 309 0002 01D9     		bls	.L34
 310 0004 0220     		movs	r0, #2
 311              	.LVL30:
 312 0006 7047     		bx	lr
 313              	.LVL31:
 314              	.L34:
 315              		.loc 1 194 0
 316 0008 F0B5     		push	{r4, r5, r6, r7, lr}
 317              		.cfi_def_cfa_offset 20
 318              		.cfi_offset 4, -20
 319              		.cfi_offset 5, -16
 320              		.cfi_offset 6, -12
 321              		.cfi_offset 7, -8
 322              		.cfi_offset 14, -4
 323 000a 85B0     		sub	sp, sp, #20
 324              		.cfi_def_cfa_offset 40
 325 000c 0392     		str	r2, [sp, #12]
 326 000e 0291     		str	r1, [sp, #8]
 327 0010 0190     		str	r0, [sp, #4]
 328              		.loc 1 200 0
 329 0012 FFF7FEFF 		bl	EnterCriticalSection
 330              	.LVL32:
 331              		.loc 1 206 0
 332 0016 1C4B     		ldr	r3, .L36
 333 0018 1D78     		ldrb	r5, [r3]	@ zero_extendqisi2
 334 001a EDB2     		uxtb	r5, r5
 335 001c 01A8     		add	r0, sp, #4
ARM GAS  C:\Users\jo\AppData\Local\Temp\ccRedE1P.s 			page 7


 336 001e 012D     		cmp	r5, #1
 337 0020 07C8     		ldmia	r0, {r0, r1, r2}
 338 0022 05D0     		beq	.L35
 339              		.loc 1 227 0
 340 0024 0524     		movs	r4, #5
 341              	.L29:
 342              	.LVL33:
 343              		.loc 1 229 0
 344 0026 FFF7FEFF 		bl	ExitCriticalSection
 345              	.LVL34:
 346              		.loc 1 230 0
 347 002a 2046     		mov	r0, r4
 348              		.loc 1 231 0
 349 002c 05B0     		add	sp, sp, #20
 350              		.cfi_remember_state
 351              		.cfi_def_cfa_offset 20
 352              		@ sp needed
 353 002e F0BD     		pop	{r4, r5, r6, r7, pc}
 354              	.LVL35:
 355              	.L35:
 356              		.cfi_restore_state
 357              		.loc 1 210 0
 358 0030 164C     		ldr	r4, .L36+4
 359              		.loc 1 209 0
 360 0032 174E     		ldr	r6, .L36+8
 361              		.loc 1 210 0
 362 0034 2580     		strh	r5, [r4]	@ movhi
 363              		.loc 1 213 0
 364 0036 01F8010C 		strb	r0, [r1, #-1]
 365              		.loc 1 214 0
 366 003a 2388     		ldrh	r3, [r4]
 367              		.loc 1 218 0
 368 003c 154F     		ldr	r7, .L36+12
 369              		.loc 1 214 0
 370 003e 12FA83F2 		uxtah	r2, r2, r3
 371 0042 92B2     		uxth	r2, r2
 372 0044 2280     		strh	r2, [r4]	@ movhi
 373              		.loc 1 217 0
 374 0046 2288     		ldrh	r2, [r4]
 375              		.loc 1 209 0
 376 0048 4B1E     		subs	r3, r1, #1
 377              		.loc 1 217 0
 378 004a 1846     		mov	r0, r3
 379 004c 91B2     		uxth	r1, r2
 380              		.loc 1 209 0
 381 004e 3360     		str	r3, [r6]
 382              		.loc 1 217 0
 383 0050 FFF7FEFF 		bl	usMBCRC16
 384              	.LVL36:
 385              		.loc 1 218 0
 386 0054 2388     		ldrh	r3, [r4]
 387              		.loc 1 222 0
 388 0056 DFF840E0 		ldr	lr, .L36+16
 389              		.loc 1 218 0
 390 005a 9BB2     		uxth	r3, r3
 391 005c 5A1C     		adds	r2, r3, #1
 392 005e C1B2     		uxtb	r1, r0
ARM GAS  C:\Users\jo\AppData\Local\Temp\ccRedE1P.s 			page 8


 393 0060 92B2     		uxth	r2, r2
 394 0062 2280     		strh	r2, [r4]	@ movhi
 395 0064 F954     		strb	r1, [r7, r3]
 396              		.loc 1 219 0
 397 0066 2388     		ldrh	r3, [r4]
 398 0068 9BB2     		uxth	r3, r3
 399 006a 5E1C     		adds	r6, r3, #1
 400 006c C0F30722 		ubfx	r2, r0, #8, #8
 401 0070 B6B2     		uxth	r6, r6
 402              		.loc 1 223 0
 403 0072 0020     		movs	r0, #0
 404              	.LVL37:
 405 0074 2946     		mov	r1, r5
 406              		.loc 1 219 0
 407 0076 2680     		strh	r6, [r4]	@ movhi
 408 0078 FA54     		strb	r2, [r7, r3]
 409              		.loc 1 195 0
 410 007a 0446     		mov	r4, r0
 411              		.loc 1 222 0
 412 007c 8EF80050 		strb	r5, [lr]
 413              		.loc 1 223 0
 414 0080 FFF7FEFF 		bl	vMBMasterPortSerialEnable
 415              	.LVL38:
 416 0084 CFE7     		b	.L29
 417              	.L37:
 418 0086 00BF     		.align	2
 419              	.L36:
 420 0088 00000000 		.word	.LANCHOR0
 421 008c 00000000 		.word	.LANCHOR5
 422 0090 00000000 		.word	.LANCHOR4
 423 0094 00000000 		.word	.LANCHOR6
 424 0098 00000000 		.word	.LANCHOR7
 425              		.cfi_endproc
 426              	.LFE260:
 427              		.size	eMBMasterRTUSend, .-eMBMasterRTUSend
 428 009c AFF30080 		.section	.text.xMBMasterRTUReceiveFSM,"ax",%progbits
 429              		.align	2
 430              		.p2align 4,,15
 431              		.global	xMBMasterRTUReceiveFSM
 432              		.thumb
 433              		.thumb_func
 434              		.type	xMBMasterRTUReceiveFSM, %function
 435              	xMBMasterRTUReceiveFSM:
 436              	.LFB261:
 437              		.loc 1 235 0
 438              		.cfi_startproc
 439              		@ args = 0, pretend = 0, frame = 8
 440              		@ frame_needed = 0, uses_anonymous_args = 0
 441              	.LVL39:
 442 0000 F0B5     		push	{r4, r5, r6, r7, lr}
 443              		.cfi_def_cfa_offset 20
 444              		.cfi_offset 4, -20
 445              		.cfi_offset 5, -16
 446              		.cfi_offset 6, -12
 447              		.cfi_offset 7, -8
 448              		.cfi_offset 14, -4
 449              		.loc 1 239 0
ARM GAS  C:\Users\jo\AppData\Local\Temp\ccRedE1P.s 			page 9


 450 0002 224C     		ldr	r4, .L56
 451 0004 2378     		ldrb	r3, [r4]	@ zero_extendqisi2
 452              		.loc 1 235 0
 453 0006 83B0     		sub	sp, sp, #12
 454              		.cfi_def_cfa_offset 32
 455              		.loc 1 239 0
 456 0008 13B1     		cbz	r3, .L39
 457              		.loc 1 239 0 is_stmt 0 discriminator 1
 458 000a 2378     		ldrb	r3, [r4]	@ zero_extendqisi2
 459 000c 022B     		cmp	r3, #2
 460 000e 37D1     		bne	.L55
 461              	.L39:
 462              		.loc 1 244 0 is_stmt 1
 463 0010 1F4D     		ldr	r5, .L56+4
 464              		.loc 1 242 0
 465 0012 0DF10700 		add	r0, sp, #7
 466 0016 FFF7FEFF 		bl	xMBMasterPortSerialGetByte
 467              	.LVL40:
 468              		.loc 1 244 0
 469 001a 2B78     		ldrb	r3, [r5]	@ zero_extendqisi2
 470 001c 032B     		cmp	r3, #3
 471 001e 13D8     		bhi	.L40
 472 0020 DFE803F0 		tbb	[pc, r3]
 473              	.L42:
 474 0024 10       		.byte	(.L47-.L42)/2
 475 0025 15       		.byte	(.L43-.L42)/2
 476 0026 02       		.byte	(.L44-.L42)/2
 477 0027 10       		.byte	(.L47-.L42)/2
 478              		.p2align 1
 479              	.L44:
 480              		.loc 1 288 0
 481 0028 1A4A     		ldr	r2, .L56+8
 482 002a 1388     		ldrh	r3, [r2]
 483 002c 9BB2     		uxth	r3, r3
 484 002e FF2B     		cmp	r3, #255
 485 0030 23D8     		bhi	.L46
 486              		.loc 1 290 0
 487 0032 1388     		ldrh	r3, [r2]
 488 0034 1848     		ldr	r0, .L56+12
 489 0036 9DF80740 		ldrb	r4, [sp, #7]	@ zero_extendqisi2
 490 003a 9BB2     		uxth	r3, r3
 491 003c 591C     		adds	r1, r3, #1
 492 003e 89B2     		uxth	r1, r1
 493 0040 1180     		strh	r1, [r2]	@ movhi
 494 0042 C454     		strb	r4, [r0, r3]
 495              	.L47:
 496              		.loc 1 296 0
 497 0044 FFF7FEFF 		bl	vMBMasterPortTimersT35Enable
 498              	.LVL41:
 499              	.L40:
 500              		.loc 1 300 0
 501 0048 0020     		movs	r0, #0
 502 004a 03B0     		add	sp, sp, #12
 503              		.cfi_remember_state
 504              		.cfi_def_cfa_offset 20
 505              		@ sp needed
 506 004c F0BD     		pop	{r4, r5, r6, r7, pc}
ARM GAS  C:\Users\jo\AppData\Local\Temp\ccRedE1P.s 			page 10


 507              	.L43:
 508              		.cfi_restore_state
 509              		.loc 1 270 0
 510 004e FFF7FEFF 		bl	vMBMasterPortTimersDisable
 511              	.LVL42:
 512              		.loc 1 273 0
 513 0052 104A     		ldr	r2, .L56+8
 514              		.loc 1 274 0
 515 0054 104E     		ldr	r6, .L56+12
 516 0056 9DF80770 		ldrb	r7, [sp, #7]	@ zero_extendqisi2
 517              		.loc 1 271 0
 518 005a 0023     		movs	r3, #0
 519 005c 2370     		strb	r3, [r4]
 520              		.loc 1 273 0
 521 005e 1380     		strh	r3, [r2]	@ movhi
 522              		.loc 1 274 0
 523 0060 1388     		ldrh	r3, [r2]
 524 0062 9BB2     		uxth	r3, r3
 525 0064 591C     		adds	r1, r3, #1
 526 0066 89B2     		uxth	r1, r1
 527              		.loc 1 275 0
 528 0068 0220     		movs	r0, #2
 529              		.loc 1 274 0
 530 006a 1180     		strh	r1, [r2]	@ movhi
 531 006c F754     		strb	r7, [r6, r3]
 532              		.loc 1 275 0
 533 006e 2870     		strb	r0, [r5]
 534              		.loc 1 279 0
 535 0070 FFF7FEFF 		bl	vMBMasterPortTimersT35Enable
 536              	.LVL43:
 537              		.loc 1 300 0
 538 0074 0020     		movs	r0, #0
 539 0076 03B0     		add	sp, sp, #12
 540              		.cfi_remember_state
 541              		.cfi_def_cfa_offset 20
 542              		@ sp needed
 543 0078 F0BD     		pop	{r4, r5, r6, r7, pc}
 544              	.L46:
 545              		.cfi_restore_state
 546              		.loc 1 294 0
 547 007a 0323     		movs	r3, #3
 548 007c 2B70     		strb	r3, [r5]
 549 007e E1E7     		b	.L47
 550              	.L55:
 551              		.loc 1 239 0 discriminator 2
 552 0080 0648     		ldr	r0, .L56+16
 553 0082 074A     		ldr	r2, .L56+20
 554 0084 074B     		ldr	r3, .L56+24
 555 0086 EF21     		movs	r1, #239
 556 0088 FFF7FEFF 		bl	__assert_func
 557              	.LVL44:
 558              	.L57:
 559              		.align	2
 560              	.L56:
 561 008c 00000000 		.word	.LANCHOR7
 562 0090 00000000 		.word	.LANCHOR0
 563 0094 00000000 		.word	.LANCHOR1
ARM GAS  C:\Users\jo\AppData\Local\Temp\ccRedE1P.s 			page 11


 564 0098 00000000 		.word	.LANCHOR3
 565 009c 00000000 		.word	.LC0
 566 00a0 00000000 		.word	.LANCHOR8
 567 00a4 4C000000 		.word	.LC2
 568              		.cfi_endproc
 569              	.LFE261:
 570              		.size	xMBMasterRTUReceiveFSM, .-xMBMasterRTUReceiveFSM
 571 00a8 AFF30080 		.section	.text.xMBMasterRTUTransmitFSM,"ax",%progbits
 571      AFF30080 
 572              		.align	2
 573              		.p2align 4,,15
 574              		.global	xMBMasterRTUTransmitFSM
 575              		.thumb
 576              		.thumb_func
 577              		.type	xMBMasterRTUTransmitFSM, %function
 578              	xMBMasterRTUTransmitFSM:
 579              	.LFB262:
 580              		.loc 1 304 0
 581              		.cfi_startproc
 582              		@ args = 0, pretend = 0, frame = 0
 583              		@ frame_needed = 0, uses_anonymous_args = 0
 584              	.LVL45:
 585 0000 38B5     		push	{r3, r4, r5, lr}
 586              		.cfi_def_cfa_offset 16
 587              		.cfi_offset 3, -16
 588              		.cfi_offset 4, -12
 589              		.cfi_offset 5, -8
 590              		.cfi_offset 14, -4
 591              		.loc 1 307 0
 592 0002 204B     		ldr	r3, .L69
 593 0004 1878     		ldrb	r0, [r3]	@ zero_extendqisi2
 594 0006 C0B2     		uxtb	r0, r0
 595 0008 0128     		cmp	r0, #1
 596 000a 33D1     		bne	.L66
 597              		.loc 1 309 0
 598 000c 1E4C     		ldr	r4, .L69+4
 599 000e 2378     		ldrb	r3, [r4]	@ zero_extendqisi2
 600 0010 03F0FF01 		and	r1, r3, #255
 601 0014 CBB1     		cbz	r3, .L61
 602 0016 0129     		cmp	r1, #1
 603 0018 15D1     		bne	.L60
 604              		.loc 1 320 0
 605 001a 1C4D     		ldr	r5, .L69+8
 606 001c 2B88     		ldrh	r3, [r5]
 607 001e 9BB2     		uxth	r3, r3
 608 0020 BBB9     		cbnz	r3, .L67
 609              		.loc 1 328 0
 610 0022 1B4A     		ldr	r2, .L69+12
 611 0024 1B4D     		ldr	r5, .L69+16
 612 0026 1278     		ldrb	r2, [r2]	@ zero_extendqisi2
 613 0028 B2FA82F2 		clz	r2, r2
 614              		.loc 1 331 0
 615 002c 0846     		mov	r0, r1
 616              		.loc 1 328 0
 617 002e 5209     		lsrs	r2, r2, #5
 618              		.loc 1 331 0
 619 0030 1946     		mov	r1, r3
ARM GAS  C:\Users\jo\AppData\Local\Temp\ccRedE1P.s 			page 12


 620              		.loc 1 328 0
 621 0032 2A70     		strb	r2, [r5]
 622              		.loc 1 331 0
 623 0034 FFF7FEFF 		bl	vMBMasterPortSerialEnable
 624              	.LVL46:
 625              		.loc 1 332 0
 626 0038 0223     		movs	r3, #2
 627 003a 2370     		strb	r3, [r4]
 628              		.loc 1 335 0
 629 003c 2B78     		ldrb	r3, [r5]	@ zero_extendqisi2
 630 003e 012B     		cmp	r3, #1
 631 0040 15D0     		beq	.L68
 632              		.loc 1 342 0
 633 0042 FFF7FEFF 		bl	vMBMasterPortTimersRespondTimeoutEnable
 634              	.LVL47:
 635              	.L60:
 636              		.loc 1 349 0
 637 0046 0020     		movs	r0, #0
 638 0048 38BD     		pop	{r3, r4, r5, pc}
 639              	.L61:
 640              		.loc 1 315 0
 641 004a FFF7FEFF 		bl	vMBMasterPortSerialEnable
 642              	.LVL48:
 643              		.loc 1 349 0
 644 004e 0020     		movs	r0, #0
 645 0050 38BD     		pop	{r3, r4, r5, pc}
 646              	.L67:
 647              		.loc 1 322 0
 648 0052 114C     		ldr	r4, .L69+20
 649 0054 2368     		ldr	r3, [r4]
 650 0056 1878     		ldrb	r0, [r3]	@ zero_extendqisi2
 651 0058 FFF7FEFF 		bl	xMBMasterPortSerialPutByte
 652              	.LVL49:
 653              		.loc 1 324 0
 654 005c 2B88     		ldrh	r3, [r5]
 655              		.loc 1 323 0
 656 005e 2268     		ldr	r2, [r4]
 657              		.loc 1 324 0
 658 0060 013B     		subs	r3, r3, #1
 659              		.loc 1 323 0
 660 0062 0132     		adds	r2, r2, #1
 661              		.loc 1 324 0
 662 0064 9BB2     		uxth	r3, r3
 663              		.loc 1 323 0
 664 0066 2260     		str	r2, [r4]
 665              		.loc 1 324 0
 666 0068 2B80     		strh	r3, [r5]	@ movhi
 667              		.loc 1 349 0
 668 006a 0020     		movs	r0, #0
 669 006c 38BD     		pop	{r3, r4, r5, pc}
 670              	.L68:
 671              		.loc 1 337 0
 672 006e FFF7FEFF 		bl	vMBMasterPortTimersConvertDelayEnable
 673              	.LVL50:
 674 0072 E8E7     		b	.L60
 675              	.L66:
 676              		.loc 1 307 0 discriminator 1
ARM GAS  C:\Users\jo\AppData\Local\Temp\ccRedE1P.s 			page 13


 677 0074 0948     		ldr	r0, .L69+24
 678 0076 0A4A     		ldr	r2, .L69+28
 679 0078 0A4B     		ldr	r3, .L69+32
 680 007a 40F23311 		movw	r1, #307
 681 007e FFF7FEFF 		bl	__assert_func
 682              	.LVL51:
 683              	.L70:
 684 0082 00BF     		.align	2
 685              	.L69:
 686 0084 00000000 		.word	.LANCHOR0
 687 0088 00000000 		.word	.LANCHOR7
 688 008c 00000000 		.word	.LANCHOR5
 689 0090 00000000 		.word	.LANCHOR6
 690 0094 00000000 		.word	.LANCHOR10
 691 0098 00000000 		.word	.LANCHOR4
 692 009c 00000000 		.word	.LC0
 693 00a0 00000000 		.word	.LANCHOR9
 694 00a4 94000000 		.word	.LC3
 695              		.cfi_endproc
 696              	.LFE262:
 697              		.size	xMBMasterRTUTransmitFSM, .-xMBMasterRTUTransmitFSM
 698 00a8 AFF30080 		.section	.text.xMBMasterRTUTimerExpired,"ax",%progbits
 698      AFF30080 
 699              		.align	2
 700              		.p2align 4,,15
 701              		.global	xMBMasterRTUTimerExpired
 702              		.thumb
 703              		.thumb_func
 704              		.type	xMBMasterRTUTimerExpired, %function
 705              	xMBMasterRTUTimerExpired:
 706              	.LFB263:
 707              		.loc 1 353 0
 708              		.cfi_startproc
 709              		@ args = 0, pretend = 0, frame = 0
 710              		@ frame_needed = 0, uses_anonymous_args = 0
 711              	.LVL52:
 712              		.loc 1 355 0
 713 0000 2D4B     		ldr	r3, .L99
 714              		.loc 1 353 0
 715 0002 70B5     		push	{r4, r5, r6, lr}
 716              		.cfi_def_cfa_offset 16
 717              		.cfi_offset 4, -16
 718              		.cfi_offset 5, -12
 719              		.cfi_offset 6, -8
 720              		.cfi_offset 14, -4
 721              		.loc 1 355 0
 722 0004 4FF40072 		mov	r2, #512
 723              		.loc 1 357 0
 724 0008 2C4D     		ldr	r5, .L99+4
 725              		.loc 1 355 0
 726 000a 5A83     		strh	r2, [r3, #26]	@ movhi
 727              		.loc 1 357 0
 728 000c 2878     		ldrb	r0, [r5]	@ zero_extendqisi2
 729 000e C0B2     		uxtb	r0, r0
 730 0010 0228     		cmp	r0, #2
 731 0012 16D0     		beq	.L94
 732 0014 0328     		cmp	r0, #3
ARM GAS  C:\Users\jo\AppData\Local\Temp\ccRedE1P.s 			page 14


 733 0016 10D0     		beq	.L74
 734 0018 0028     		cmp	r0, #0
 735 001a 35D0     		beq	.L95
 736              		.loc 1 378 0
 737 001c 2B78     		ldrb	r3, [r5]	@ zero_extendqisi2
 738 001e 03F0FF06 		and	r6, r3, #255
 739 0022 8BB1     		cbz	r3, .L76
 740              		.loc 1 378 0 is_stmt 0 discriminator 1
 741 0024 2B78     		ldrb	r3, [r5]	@ zero_extendqisi2
 742 0026 022B     		cmp	r3, #2
 743 0028 05D0     		beq	.L84
 744              		.loc 1 378 0 discriminator 2
 745 002a 2B78     		ldrb	r3, [r5]	@ zero_extendqisi2
 746 002c 032B     		cmp	r3, #3
 747 002e 02D0     		beq	.L84
 748              		.loc 1 378 0 discriminator 3
 749 0030 2B78     		ldrb	r3, [r5]	@ zero_extendqisi2
 750 0032 012B     		cmp	r3, #1
 751 0034 39D1     		bne	.L96
 752              	.L84:
 753              		.loc 1 354 0 is_stmt 1
 754 0036 0026     		movs	r6, #0
 755 0038 06E0     		b	.L76
 756              	.L74:
 757              		.loc 1 372 0
 758 003a 0220     		movs	r0, #2
 759 003c FFF7FEFF 		bl	vMBMasterSetErrorType
 760              	.LVL53:
 761              		.loc 1 373 0
 762 0040 1020     		movs	r0, #16
 763              	.L94:
 764 0042 FFF7FEFF 		bl	xMBMasterPortEventPost
 765              	.LVL54:
 766 0046 0646     		mov	r6, r0
 767              	.LVL55:
 768              	.L76:
 769              		.loc 1 383 0
 770 0048 0120     		movs	r0, #1
 771              		.loc 1 385 0
 772 004a 1D4C     		ldr	r4, .L99+8
 773              		.loc 1 383 0
 774 004c 2870     		strb	r0, [r5]
 775              		.loc 1 385 0
 776 004e 2378     		ldrb	r3, [r4]	@ zero_extendqisi2
 777 0050 022B     		cmp	r3, #2
 778 0052 0CD1     		bne	.L92
 779              		.loc 1 391 0
 780 0054 1B4B     		ldr	r3, .L99+12
 781 0056 1B78     		ldrb	r3, [r3]	@ zero_extendqisi2
 782 0058 DBB1     		cbz	r3, .L97
 783              	.L79:
 784              		.loc 1 402 0
 785 005a 0023     		movs	r3, #0
 786 005c 2370     		strb	r3, [r4]
 787              		.loc 1 404 0
 788 005e FFF7FEFF 		bl	vMBMasterPortTimersDisable
 789              	.LVL56:
ARM GAS  C:\Users\jo\AppData\Local\Temp\ccRedE1P.s 			page 15


 790              		.loc 1 406 0
 791 0062 194B     		ldr	r3, .L99+16
 792 0064 1B78     		ldrb	r3, [r3]	@ zero_extendqisi2
 793 0066 022B     		cmp	r3, #2
 794 0068 1AD0     		beq	.L98
 795              		.loc 1 411 0
 796 006a 3046     		mov	r0, r6
 797 006c 70BD     		pop	{r4, r5, r6, pc}
 798              	.LVL57:
 799              	.L92:
 800              		.loc 1 398 0
 801 006e 2378     		ldrb	r3, [r4]	@ zero_extendqisi2
 802 0070 022B     		cmp	r3, #2
 803 0072 F2D0     		beq	.L79
 804              		.loc 1 398 0 is_stmt 0 discriminator 1
 805 0074 2378     		ldrb	r3, [r4]	@ zero_extendqisi2
 806 0076 002B     		cmp	r3, #0
 807 0078 EFD0     		beq	.L79
 808              		.loc 1 398 0 discriminator 2
 809 007a 1448     		ldr	r0, .L99+20
 810 007c 144A     		ldr	r2, .L99+24
 811 007e 154B     		ldr	r3, .L99+28
 812 0080 40F28F11 		movw	r1, #399
 813 0084 FFF7FEFF 		bl	__assert_func
 814              	.LVL58:
 815              	.L95:
 816              		.loc 1 361 0 is_stmt 1
 817 0088 0120     		movs	r0, #1
 818 008a FFF7FEFF 		bl	xMBMasterPortEventPost
 819              	.LVL59:
 820 008e 0646     		mov	r6, r0
 821              	.LVL60:
 822              		.loc 1 362 0
 823 0090 DAE7     		b	.L76
 824              	.L97:
 825              		.loc 1 392 0
 826 0092 FFF7FEFF 		bl	vMBMasterSetErrorType
 827              	.LVL61:
 828              		.loc 1 393 0
 829 0096 1020     		movs	r0, #16
 830 0098 FFF7FEFF 		bl	xMBMasterPortEventPost
 831              	.LVL62:
 832 009c 0646     		mov	r6, r0
 833              	.LVL63:
 834 009e DCE7     		b	.L79
 835              	.L98:
 836              		.loc 1 407 0
 837 00a0 0420     		movs	r0, #4
 838              		.loc 1 411 0
 839 00a2 BDE87040 		pop	{r4, r5, r6, lr}
 840              		.cfi_remember_state
 841              		.cfi_restore 14
 842              		.cfi_restore 6
 843              		.cfi_restore 5
 844              		.cfi_restore 4
 845              		.cfi_def_cfa_offset 0
 846              	.LVL64:
ARM GAS  C:\Users\jo\AppData\Local\Temp\ccRedE1P.s 			page 16


 847              		.loc 1 407 0
 848 00a6 FFF7FEBF 		b	xMBMasterPortEventPost
 849              	.LVL65:
 850              	.L96:
 851              		.cfi_restore_state
 852              		.loc 1 378 0 discriminator 4
 853 00aa 0848     		ldr	r0, .L99+20
 854 00ac 084A     		ldr	r2, .L99+24
 855 00ae 0A4B     		ldr	r3, .L99+32
 856 00b0 4FF4BE71 		mov	r1, #380
 857 00b4 FFF7FEFF 		bl	__assert_func
 858              	.LVL66:
 859              	.L100:
 860              		.align	2
 861              	.L99:
 862 00b8 00080240 		.word	1073874944
 863 00bc 00000000 		.word	.LANCHOR0
 864 00c0 00000000 		.word	.LANCHOR7
 865 00c4 00000000 		.word	.LANCHOR10
 866 00c8 00000000 		.word	.LANCHOR12
 867 00cc 00000000 		.word	.LC0
 868 00d0 00000000 		.word	.LANCHOR11
 869 00d4 44010000 		.word	.LC5
 870 00d8 B4000000 		.word	.LC4
 871              		.cfi_endproc
 872              	.LFE263:
 873              		.size	xMBMasterRTUTimerExpired, .-xMBMasterRTUTimerExpired
 874 00dc AFF30080 		.section	.text.vMBMasterGetRTUSndBuf,"ax",%progbits
 875              		.align	2
 876              		.p2align 4,,15
 877              		.global	vMBMasterGetRTUSndBuf
 878              		.thumb
 879              		.thumb_func
 880              		.type	vMBMasterGetRTUSndBuf, %function
 881              	vMBMasterGetRTUSndBuf:
 882              	.LFB264:
 883              		.loc 1 416 0
 884              		.cfi_startproc
 885              		@ args = 0, pretend = 0, frame = 0
 886              		@ frame_needed = 0, uses_anonymous_args = 0
 887              		@ link register save eliminated.
 888              	.LVL67:
 889              		.loc 1 417 0
 890 0000 014B     		ldr	r3, .L102
 891 0002 0360     		str	r3, [r0]
 892 0004 7047     		bx	lr
 893              	.L103:
 894 0006 00BF     		.align	2
 895              	.L102:
 896 0008 00000000 		.word	.LANCHOR6
 897              		.cfi_endproc
 898              	.LFE264:
 899              		.size	vMBMasterGetRTUSndBuf, .-vMBMasterGetRTUSndBuf
 900 000c AFF30080 		.section	.text.vMBMasterGetPDUSndBuf,"ax",%progbits
 901              		.align	2
 902              		.p2align 4,,15
 903              		.global	vMBMasterGetPDUSndBuf
ARM GAS  C:\Users\jo\AppData\Local\Temp\ccRedE1P.s 			page 17


 904              		.thumb
 905              		.thumb_func
 906              		.type	vMBMasterGetPDUSndBuf, %function
 907              	vMBMasterGetPDUSndBuf:
 908              	.LFB265:
 909              		.loc 1 423 0
 910              		.cfi_startproc
 911              		@ args = 0, pretend = 0, frame = 0
 912              		@ frame_needed = 0, uses_anonymous_args = 0
 913              		@ link register save eliminated.
 914              	.LVL68:
 915              		.loc 1 424 0
 916 0000 014B     		ldr	r3, .L105
 917 0002 0360     		str	r3, [r0]
 918 0004 7047     		bx	lr
 919              	.L106:
 920 0006 00BF     		.align	2
 921              	.L105:
 922 0008 01000000 		.word	.LANCHOR6+1
 923              		.cfi_endproc
 924              	.LFE265:
 925              		.size	vMBMasterGetPDUSndBuf, .-vMBMasterGetPDUSndBuf
 926 000c AFF30080 		.section	.text.vMBMasterSetPDUSndLength,"ax",%progbits
 927              		.align	2
 928              		.p2align 4,,15
 929              		.global	vMBMasterSetPDUSndLength
 930              		.thumb
 931              		.thumb_func
 932              		.type	vMBMasterSetPDUSndLength, %function
 933              	vMBMasterSetPDUSndLength:
 934              	.LFB266:
 935              		.loc 1 430 0
 936              		.cfi_startproc
 937              		@ args = 0, pretend = 0, frame = 0
 938              		@ frame_needed = 0, uses_anonymous_args = 0
 939              		@ link register save eliminated.
 940              	.LVL69:
 941              		.loc 1 431 0
 942 0000 014B     		ldr	r3, .L108
 943 0002 1880     		strh	r0, [r3]	@ movhi
 944 0004 7047     		bx	lr
 945              	.L109:
 946 0006 00BF     		.align	2
 947              	.L108:
 948 0008 00000000 		.word	.LANCHOR13
 949              		.cfi_endproc
 950              	.LFE266:
 951              		.size	vMBMasterSetPDUSndLength, .-vMBMasterSetPDUSndLength
 952 000c AFF30080 		.section	.text.usMBMasterGetPDUSndLength,"ax",%progbits
 953              		.align	2
 954              		.p2align 4,,15
 955              		.global	usMBMasterGetPDUSndLength
 956              		.thumb
 957              		.thumb_func
 958              		.type	usMBMasterGetPDUSndLength, %function
 959              	usMBMasterGetPDUSndLength:
 960              	.LFB267:
ARM GAS  C:\Users\jo\AppData\Local\Temp\ccRedE1P.s 			page 18


 961              		.loc 1 437 0
 962              		.cfi_startproc
 963              		@ args = 0, pretend = 0, frame = 0
 964              		@ frame_needed = 0, uses_anonymous_args = 0
 965              		@ link register save eliminated.
 966              		.loc 1 438 0
 967 0000 014B     		ldr	r3, .L111
 968 0002 1888     		ldrh	r0, [r3]
 969              		.loc 1 439 0
 970 0004 80B2     		uxth	r0, r0
 971 0006 7047     		bx	lr
 972              	.L112:
 973              		.align	2
 974              	.L111:
 975 0008 00000000 		.word	.LANCHOR13
 976              		.cfi_endproc
 977              	.LFE267:
 978              		.size	usMBMasterGetPDUSndLength, .-usMBMasterGetPDUSndLength
 979 000c AFF30080 		.section	.text.vMBMasterSetCurTimerMode,"ax",%progbits
 980              		.align	2
 981              		.p2align 4,,15
 982              		.global	vMBMasterSetCurTimerMode
 983              		.thumb
 984              		.thumb_func
 985              		.type	vMBMasterSetCurTimerMode, %function
 986              	vMBMasterSetCurTimerMode:
 987              	.LFB268:
 988              		.loc 1 444 0
 989              		.cfi_startproc
 990              		@ args = 0, pretend = 0, frame = 0
 991              		@ frame_needed = 0, uses_anonymous_args = 0
 992              		@ link register save eliminated.
 993              	.LVL70:
 994              		.loc 1 445 0
 995 0000 014B     		ldr	r3, .L114
 996 0002 1870     		strb	r0, [r3]
 997 0004 7047     		bx	lr
 998              	.L115:
 999 0006 00BF     		.align	2
 1000              	.L114:
 1001 0008 00000000 		.word	.LANCHOR12
 1002              		.cfi_endproc
 1003              	.LFE268:
 1004              		.size	vMBMasterSetCurTimerMode, .-vMBMasterSetCurTimerMode
 1005 000c AFF30080 		.section	.text.xMBMasterRequestIsBroadcast,"ax",%progbits
 1006              		.align	2
 1007              		.p2align 4,,15
 1008              		.global	xMBMasterRequestIsBroadcast
 1009              		.thumb
 1010              		.thumb_func
 1011              		.type	xMBMasterRequestIsBroadcast, %function
 1012              	xMBMasterRequestIsBroadcast:
 1013              	.LFB269:
 1014              		.loc 1 450 0
 1015              		.cfi_startproc
 1016              		@ args = 0, pretend = 0, frame = 0
 1017              		@ frame_needed = 0, uses_anonymous_args = 0
ARM GAS  C:\Users\jo\AppData\Local\Temp\ccRedE1P.s 			page 19


 1018              		@ link register save eliminated.
 1019              		.loc 1 451 0
 1020 0000 014B     		ldr	r3, .L117
 1021 0002 1878     		ldrb	r0, [r3]	@ zero_extendqisi2
 1022              		.loc 1 452 0
 1023 0004 7047     		bx	lr
 1024              	.L118:
 1025 0006 00BF     		.align	2
 1026              	.L117:
 1027 0008 00000000 		.word	.LANCHOR10
 1028              		.cfi_endproc
 1029              	.LFE269:
 1030              		.size	xMBMasterRequestIsBroadcast, .-xMBMasterRequestIsBroadcast
 1031 000c AFF30080 		.section	.rodata.__FUNCTION__.9293,"a",%progbits
 1032              		.align	2
 1033              		.set	.LANCHOR9,. + 0
 1034              		.type	__FUNCTION__.9293, %object
 1035              		.size	__FUNCTION__.9293, 24
 1036              	__FUNCTION__.9293:
 1037 0000 784D424D 		.ascii	"xMBMasterRTUTransmitFSM\000"
 1037      61737465 
 1037      72525455 
 1037      5472616E 
 1037      736D6974 
 1038              		.section	.bss.ucMasterRTURcvBuf,"aw",%nobits
 1039              		.align	2
 1040              		.set	.LANCHOR3,. + 0
 1041              		.type	ucMasterRTURcvBuf, %object
 1042              		.size	ucMasterRTURcvBuf, 256
 1043              	ucMasterRTURcvBuf:
 1044 0000 00000000 		.space	256
 1044      00000000 
 1044      00000000 
 1044      00000000 
 1044      00000000 
 1045              		.section	.bss.xFrameIsBroadcast,"aw",%nobits
 1046              		.set	.LANCHOR10,. + 0
 1047              		.type	xFrameIsBroadcast, %object
 1048              		.size	xFrameIsBroadcast, 1
 1049              	xFrameIsBroadcast:
 1050 0000 00       		.space	1
 1051              		.section	.bss.usMasterSndBufferCount,"aw",%nobits
 1052              		.align	1
 1053              		.set	.LANCHOR5,. + 0
 1054              		.type	usMasterSndBufferCount, %object
 1055              		.size	usMasterSndBufferCount, 2
 1056              	usMasterSndBufferCount:
 1057 0000 0000     		.space	2
 1058              		.section	.bss.usMasterRcvBufferPos,"aw",%nobits
 1059              		.align	1
 1060              		.set	.LANCHOR1,. + 0
 1061              		.type	usMasterRcvBufferPos, %object
 1062              		.size	usMasterRcvBufferPos, 2
 1063              	usMasterRcvBufferPos:
 1064 0000 0000     		.space	2
 1065              		.section	.rodata.__FUNCTION__.9306,"a",%progbits
 1066              		.align	2
ARM GAS  C:\Users\jo\AppData\Local\Temp\ccRedE1P.s 			page 20


 1067              		.set	.LANCHOR11,. + 0
 1068              		.type	__FUNCTION__.9306, %object
 1069              		.size	__FUNCTION__.9306, 25
 1070              	__FUNCTION__.9306:
 1071 0000 784D424D 		.ascii	"xMBMasterRTUTimerExpired\000"
 1071      61737465 
 1071      72525455 
 1071      54696D65 
 1071      72457870 
 1072 0019 000000   		.section	.bss.usMasterSendPDULength,"aw",%nobits
 1073              		.align	1
 1074              		.set	.LANCHOR13,. + 0
 1075              		.type	usMasterSendPDULength, %object
 1076              		.size	usMasterSendPDULength, 2
 1077              	usMasterSendPDULength:
 1078 0000 0000     		.space	2
 1079              		.section	.rodata.str1.4,"aMS",%progbits,1
 1080              		.align	2
 1081              	.LC0:
 1082 0000 46726565 		.ascii	"FreeModbus/modbus/rtu/mbrtu_m.c\000"
 1082      4D6F6462 
 1082      75732F6D 
 1082      6F646275 
 1082      732F7274 
 1083              	.LC1:
 1084 0020 75734D61 		.ascii	"usMasterRcvBufferPos < MB_SER_PDU_SIZE_MAX\000"
 1084      73746572 
 1084      52637642 
 1084      75666665 
 1084      72506F73 
 1085 004b 00       		.space	1
 1086              	.LC2:
 1087 004c 28206553 		.ascii	"( eSndState == STATE_M_TX_IDLE ) || ( eSndState == "
 1087      6E645374 
 1087      61746520 
 1087      3D3D2053 
 1087      54415445 
 1088 007f 53544154 		.ascii	"STATE_M_TX_XFWR )\000"
 1088      455F4D5F 
 1088      54585F58 
 1088      46575220 
 1088      2900
 1089 0091 000000   		.space	3
 1090              	.LC3:
 1091 0094 65526376 		.ascii	"eRcvState == STATE_M_RX_IDLE\000"
 1091      53746174 
 1091      65203D3D 
 1091      20535441 
 1091      54455F4D 
 1092 00b1 000000   		.space	3
 1093              	.LC4:
 1094 00b4 28206552 		.ascii	"( eRcvState == STATE_M_RX_INIT ) || ( eRcvState == "
 1094      63765374 
 1094      61746520 
 1094      3D3D2053 
 1094      54415445 
 1095 00e7 53544154 		.ascii	"STATE_M_RX_RCV ) || ( eRcvState == STATE_M_RX_ERROR"
ARM GAS  C:\Users\jo\AppData\Local\Temp\ccRedE1P.s 			page 21


 1095      455F4D5F 
 1095      52585F52 
 1095      43562029 
 1095      207C7C20 
 1096 011a 2029207C 		.ascii	" ) || ( eRcvState == STATE_M_RX_IDLE )\000"
 1096      7C202820 
 1096      65526376 
 1096      53746174 
 1096      65203D3D 
 1097 0141 000000   		.space	3
 1098              	.LC5:
 1099 0144 28206553 		.ascii	"( eSndState == STATE_M_TX_XFWR ) || ( eSndState == "
 1099      6E645374 
 1099      61746520 
 1099      3D3D2053 
 1099      54415445 
 1100 0177 53544154 		.ascii	"STATE_M_TX_IDLE )\000"
 1100      455F4D5F 
 1100      54585F49 
 1100      444C4520 
 1100      2900
 1101 0189 000000   		.section	.rodata.__FUNCTION__.9270,"a",%progbits
 1102              		.align	2
 1103              		.set	.LANCHOR2,. + 0
 1104              		.type	__FUNCTION__.9270, %object
 1105              		.size	__FUNCTION__.9270, 20
 1106              	__FUNCTION__.9270:
 1107 0000 654D424D 		.ascii	"eMBMasterRTUReceive\000"
 1107      61737465 
 1107      72525455 
 1107      52656365 
 1107      69766500 
 1108              		.section	.bss.eMasterCurTimerMode,"aw",%nobits
 1109              		.set	.LANCHOR12,. + 0
 1110              		.type	eMasterCurTimerMode, %object
 1111              		.size	eMasterCurTimerMode, 1
 1112              	eMasterCurTimerMode:
 1113 0000 00       		.space	1
 1114              		.section	.bss.eSndState,"aw",%nobits
 1115              		.set	.LANCHOR7,. + 0
 1116              		.type	eSndState, %object
 1117              		.size	eSndState, 1
 1118              	eSndState:
 1119 0000 00       		.space	1
 1120              		.section	.bss.eRcvState,"aw",%nobits
 1121              		.set	.LANCHOR0,. + 0
 1122              		.type	eRcvState, %object
 1123              		.size	eRcvState, 1
 1124              	eRcvState:
 1125 0000 00       		.space	1
 1126              		.section	.rodata.__FUNCTION__.9283,"a",%progbits
 1127              		.align	2
 1128              		.set	.LANCHOR8,. + 0
 1129              		.type	__FUNCTION__.9283, %object
 1130              		.size	__FUNCTION__.9283, 23
 1131              	__FUNCTION__.9283:
 1132 0000 784D424D 		.ascii	"xMBMasterRTUReceiveFSM\000"
ARM GAS  C:\Users\jo\AppData\Local\Temp\ccRedE1P.s 			page 22


 1132      61737465 
 1132      72525455 
 1132      52656365 
 1132      69766546 
 1133 0017 00       		.section	.bss.pucMasterSndBufferCur,"aw",%nobits
 1134              		.align	2
 1135              		.set	.LANCHOR4,. + 0
 1136              		.type	pucMasterSndBufferCur, %object
 1137              		.size	pucMasterSndBufferCur, 4
 1138              	pucMasterSndBufferCur:
 1139 0000 00000000 		.space	4
 1140              		.section	.bss.ucMasterRTUSndBuf,"aw",%nobits
 1141              		.align	2
 1142              		.set	.LANCHOR6,. + 0
 1143              		.type	ucMasterRTUSndBuf, %object
 1144              		.size	ucMasterRTUSndBuf, 253
 1145              	ucMasterRTUSndBuf:
 1146 0000 00000000 		.space	253
 1146      00000000 
 1146      00000000 
 1146      00000000 
 1146      00000000 
 1147 00fd 000000   		.text
 1148              	.Letext0:
 1149              		.file 2 "c:\\program files\\gnu tools arm embedded\\4.9 2014q4\\lib\\gcc\\arm-none-eabi\\4.9.3\\in
 1150              		.file 3 "c:\\program files\\gnu tools arm embedded\\4.9 2014q4\\arm-none-eabi\\include\\machine\\_
 1151              		.file 4 "c:\\program files\\gnu tools arm embedded\\4.9 2014q4\\arm-none-eabi\\include\\stdint.h"
 1152              		.file 5 "../../../os/rt/ports/ARMCMx/compilers/GCC/chtypes.h"
 1153              		.file 6 "../../../os/rt/include/chsystypes.h"
 1154              		.file 7 "../../../os/rt/include/chschd.h"
 1155              		.file 8 "../../../os/rt/ports/ARMCMx/chcore.h"
 1156              		.file 9 "../../../os/rt/ports/ARMCMx/chcore_v7m.h"
 1157              		.file 10 "../../../os/rt/include/chtm.h"
 1158              		.file 11 "../../../os/rt/include/chmtx.h"
 1159              		.file 12 "../../../os/hal/ports/STM32/LLD/GPIOv2/pal_lld.h"
 1160              		.file 13 "FreeModbus/port/port.h"
 1161              		.file 14 "FreeModbus/modbus/include/mbport.h"
 1162              		.file 15 "FreeModbus/modbus/include/mb.h"
 1163              		.file 16 "FreeModbus/modbus/include/mb_m.h"
 1164              		.file 17 "FreeModbus/modbus/rtu/mbcrc.h"
 1165              		.file 18 "c:\\program files\\gnu tools arm embedded\\4.9 2014q4\\arm-none-eabi\\include\\assert.h"
 1166              		.file 19 "../../../os/ext/CMSIS/include/core_cm4.h"