ARM GAS  C:\Users\jo\AppData\Local\Temp\ccRedE1P.s 			page 1


   1              		.syntax unified
   2              		.cpu cortex-m4
   3              		.eabi_attribute 27, 3
   4              		.eabi_attribute 28, 1
   5              		.fpu fpv4-sp-d16
   6              		.eabi_attribute 20, 1
   7              		.eabi_attribute 21, 1
   8              		.eabi_attribute 23, 3
   9              		.eabi_attribute 24, 1
  10              		.eabi_attribute 25, 1
  11              		.eabi_attribute 26, 1
  12              		.eabi_attribute 30, 2
  13              		.eabi_attribute 34, 1
  14              		.eabi_attribute 18, 4
  15              		.thumb
  16              		.file	"mbrtu_m.c"
  17              		.text
  18              	.Ltext0:
  19              		.cfi_sections	.debug_frame
  20              		.section	.text.eMBMasterRTUInit,"ax",%progbits
  21              		.align	2
  22              		.p2align 4,,15
  23              		.global	eMBMasterRTUInit
  24              		.thumb
  25              		.thumb_func
  26              		.type	eMBMasterRTUInit, %function
  27              	eMBMasterRTUInit:
  28              	.LFB256:
  29              		.file 1 "FreeModbus/modbus/rtu/mbrtu_m.c"
  30              		.loc 1 91 0
  31              		.cfi_startproc
  32              		@ args = 0, pretend = 0, frame = 0
  33              		@ frame_needed = 0, uses_anonymous_args = 0
  34              	.LVL0:
  35 0000 70B5     		push	{r4, r5, r6, lr}
  36              		.cfi_def_cfa_offset 16
  37              		.cfi_offset 4, -16
  38              		.cfi_offset 5, -12
  39              		.cfi_offset 6, -8
  40              		.cfi_offset 14, -4
  41              		.loc 1 91 0
  42 0002 1546     		mov	r5, r2
  43 0004 0646     		mov	r6, r0
  44 0006 0C46     		mov	r4, r1
  45              		.loc 1 95 0
  46 0008 FFF7FEFF 		bl	EnterCriticalSection
  47              	.LVL1:
  48              		.loc 1 98 0
  49 000c 3046     		mov	r0, r6
  50 000e 2146     		mov	r1, r4
  51 0010 2B46     		mov	r3, r5
  52 0012 0822     		movs	r2, #8
  53 0014 FFF7FEFF 		bl	xMBMasterPortSerialInit
  54              	.LVL2:
  55 0018 0128     		cmp	r0, #1
  56 001a 04D0     		beq	.L9
  57              		.loc 1 100 0
ARM GAS  C:\Users\jo\AppData\Local\Temp\ccRedE1P.s 			page 2


  58 001c 0324     		movs	r4, #3
  59              	.LVL3:
  60              		.loc 1 128 0
  61 001e FFF7FEFF 		bl	ExitCriticalSection
  62              	.LVL4:
  63              		.loc 1 131 0
  64 0022 2046     		mov	r0, r4
  65 0024 70BD     		pop	{r4, r5, r6, pc}
  66              	.LVL5:
  67              	.L9:
  68              		.loc 1 107 0
  69 0026 B4F5964F 		cmp	r4, #19200
  70 002a 0ED8     		bhi	.L5
  71              	.LVL6:
  72              		.loc 1 121 0
  73 002c 0848     		ldr	r0, .L10
  74 002e 6400     		lsls	r4, r4, #1
  75              	.LVL7:
  76 0030 B0FBF4F4 		udiv	r4, r0, r4
  77              	.LVL8:
  78 0034 A0B2     		uxth	r0, r4
  79              	.LVL9:
  80              	.L3:
  81              		.loc 1 123 0
  82 0036 FFF7FEFF 		bl	xMBMasterPortTimersInit
  83              	.LVL10:
  84 003a 0128     		cmp	r0, #1
  85              		.loc 1 125 0
  86 003c 0CBF     		ite	eq
  87 003e 0024     		moveq	r4, #0
  88 0040 0324     		movne	r4, #3
  89              	.LVL11:
  90              		.loc 1 128 0
  91 0042 FFF7FEFF 		bl	ExitCriticalSection
  92              	.LVL12:
  93              		.loc 1 131 0
  94 0046 2046     		mov	r0, r4
  95 0048 70BD     		pop	{r4, r5, r6, pc}
  96              	.LVL13:
  97              	.L5:
  98 004a 2320     		movs	r0, #35
  99 004c F3E7     		b	.L3
 100              	.L11:
 101 004e 00BF     		.align	2
 102              	.L10:
 103 0050 A07F1700 		.word	1540000
 104              		.cfi_endproc
 105              	.LFE256:
 106              		.size	eMBMasterRTUInit, .-eMBMasterRTUInit
 107 0054 AFF30080 		.section	.text.eMBMasterRTUStart,"ax",%progbits
 107      AFF30080 
 107      AFF30080 
 108              		.align	2
 109              		.p2align 4,,15
 110              		.global	eMBMasterRTUStart
 111              		.thumb
 112              		.thumb_func
ARM GAS  C:\Users\jo\AppData\Local\Temp\ccRedE1P.s 			page 3


 113              		.type	eMBMasterRTUStart, %function
 114              	eMBMasterRTUStart:
 115              	.LFB257:
 116              		.loc 1 135 0
 117              		.cfi_startproc
 118              		@ args = 0, pretend = 0, frame = 0
 119              		@ frame_needed = 0, uses_anonymous_args = 0
 120 0000 08B5     		push	{r3, lr}
 121              		.cfi_def_cfa_offset 8
 122              		.cfi_offset 3, -8
 123              		.cfi_offset 14, -4
 124              		.loc 1 136 0
 125 0002 FFF7FEFF 		bl	EnterCriticalSection
 126              	.LVL14:
 127              		.loc 1 142 0
 128 0006 0023     		movs	r3, #0
 129 0008 054A     		ldr	r2, .L14
 130              		.loc 1 143 0
 131 000a 1946     		mov	r1, r3
 132 000c 0120     		movs	r0, #1
 133              		.loc 1 142 0
 134 000e 1370     		strb	r3, [r2]
 135              		.loc 1 143 0
 136 0010 FFF7FEFF 		bl	vMBMasterPortSerialEnable
 137              	.LVL15:
 138              		.loc 1 144 0
 139 0014 FFF7FEFF 		bl	vMBMasterPortTimersT35Enable
 140              	.LVL16:
 141              		.loc 1 147 0
 142 0018 BDE80840 		pop	{r3, lr}
 143              		.cfi_restore 14
 144              		.cfi_restore 3
 145              		.cfi_def_cfa_offset 0
 146              		.loc 1 146 0
 147 001c FFF7FEBF 		b	ExitCriticalSection
 148              	.LVL17:
 149              	.L15:
 150              		.align	2
 151              	.L14:
 152 0020 00000000 		.word	.LANCHOR0
 153              		.cfi_endproc
 154              	.LFE257:
 155              		.size	eMBMasterRTUStart, .-eMBMasterRTUStart
 156 0024 AFF30080 		.section	.text.eMBMasterRTUStop,"ax",%progbits
 156      AFF30080 
 156      AFF30080 
 157              		.align	2
 158              		.p2align 4,,15
 159              		.global	eMBMasterRTUStop
 160              		.thumb
 161              		.thumb_func
 162              		.type	eMBMasterRTUStop, %function
 163              	eMBMasterRTUStop:
 164              	.LFB258:
 165              		.loc 1 151 0
 166              		.cfi_startproc
 167              		@ args = 0, pretend = 0, frame = 0
ARM GAS  C:\Users\jo\AppData\Local\Temp\ccRedE1P.s 			page 4


 168              		@ frame_needed = 0, uses_anonymous_args = 0
 169 0000 08B5     		push	{r3, lr}
 170              		.cfi_def_cfa_offset 8
 171              		.cfi_offset 3, -8
 172              		.cfi_offset 14, -4
 173              		.loc 1 152 0
 174 0002 FFF7FEFF 		bl	EnterCriticalSection
 175              	.LVL18:
 176              		.loc 1 153 0
 177 0006 0020     		movs	r0, #0
 178 0008 0146     		mov	r1, r0
 179 000a FFF7FEFF 		bl	vMBMasterPortSerialEnable
 180              	.LVL19:
 181              		.loc 1 154 0
 182 000e FFF7FEFF 		bl	vMBMasterPortTimersDisable
 183              	.LVL20:
 184              		.loc 1 156 0
 185 0012 BDE80840 		pop	{r3, lr}
 186              		.cfi_restore 14
 187              		.cfi_restore 3
 188              		.cfi_def_cfa_offset 0
 189              		.loc 1 155 0
 190 0016 FFF7FEBF 		b	ExitCriticalSection
 191              	.LVL21:
 192              		.cfi_endproc
 193              	.LFE258:
 194              		.size	eMBMasterRTUStop, .-eMBMasterRTUStop
 195 001a 00BFAFF3 		.section	.text.eMBMasterRTUReceive,"ax",%progbits
 195      0080
 196              		.align	2
 197              		.p2align 4,,15
 198              		.global	eMBMasterRTUReceive
 199              		.thumb
 200              		.thumb_func
 201              		.type	eMBMasterRTUReceive, %function
 202              	eMBMasterRTUReceive:
 203              	.LFB259:
 204              		.loc 1 160 0
 205              		.cfi_startproc
 206              		@ args = 0, pretend = 0, frame = 0
 207              		@ frame_needed = 0, uses_anonymous_args = 0
 208              	.LVL22:
 209 0000 2DE9F041 		push	{r4, r5, r6, r7, r8, lr}
 210              		.cfi_def_cfa_offset 24
 211              		.cfi_offset 4, -24
 212              		.cfi_offset 5, -20
 213              		.cfi_offset 6, -16
 214              		.cfi_offset 7, -12
 215              		.cfi_offset 8, -8
 216              		.cfi_offset 14, -4
 217              		.loc 1 164 0
 218 0004 164C     		ldr	r4, .L25
 219              		.loc 1 160 0
 220 0006 0746     		mov	r7, r0
 221 0008 0D46     		mov	r5, r1
 222 000a 1646     		mov	r6, r2
 223              		.loc 1 163 0
ARM GAS  C:\Users\jo\AppData\Local\Temp\ccRedE1P.s 			page 5


 224 000c FFF7FEFF 		bl	EnterCriticalSection
 225              	.LVL23:
 226              		.loc 1 164 0
 227 0010 2388     		ldrh	r3, [r4]
 228 0012 9BB2     		uxth	r3, r3
 229 0014 FF2B     		cmp	r3, #255
 230 0016 1DD8     		bhi	.L24
 231              		.loc 1 167 0
 232 0018 2388     		ldrh	r3, [r4]
 233 001a 9BB2     		uxth	r3, r3
 234 001c 032B     		cmp	r3, #3
 235 001e 06D8     		bhi	.L20
 236              	.L22:
 237              		.loc 1 185 0
 238 0020 4FF00508 		mov	r8, #5
 239              	.L21:
 240              	.LVL24:
 241              		.loc 1 188 0
 242 0024 FFF7FEFF 		bl	ExitCriticalSection
 243              	.LVL25:
 244              		.loc 1 190 0
 245 0028 4046     		mov	r0, r8
 246 002a BDE8F081 		pop	{r4, r5, r6, r7, r8, pc}
 247              	.LVL26:
 248              	.L20:
 249              		.loc 1 168 0
 250 002e 2188     		ldrh	r1, [r4]
 251 0030 DFF83C80 		ldr	r8, .L25+16
 252 0034 89B2     		uxth	r1, r1
 253 0036 4046     		mov	r0, r8
 254 0038 FFF7FEFF 		bl	usMBCRC16
 255              	.LVL27:
 256 003c 0028     		cmp	r0, #0
 257 003e EFD1     		bne	.L22
 258              		.loc 1 173 0
 259 0040 4346     		mov	r3, r8
 260              		.loc 1 161 0
 261 0042 8046     		mov	r8, r0
 262              		.loc 1 173 0
 263 0044 13F8011B 		ldrb	r1, [r3], #1	@ zero_extendqisi2
 264              		.loc 1 178 0
 265 0048 2288     		ldrh	r2, [r4]
 266              		.loc 1 173 0
 267 004a 3970     		strb	r1, [r7]
 268              		.loc 1 178 0
 269 004c 033A     		subs	r2, r2, #3
 270 004e 3280     		strh	r2, [r6]	@ movhi
 271              		.loc 1 181 0
 272 0050 2B60     		str	r3, [r5]
 273 0052 E7E7     		b	.L21
 274              	.L24:
 275              		.loc 1 164 0 discriminator 1
 276 0054 0348     		ldr	r0, .L25+4
 277 0056 044A     		ldr	r2, .L25+8
 278 0058 044B     		ldr	r3, .L25+12
 279 005a A421     		movs	r1, #164
 280 005c FFF7FEFF 		bl	__assert_func
ARM GAS  C:\Users\jo\AppData\Local\Temp\ccRedE1P.s 			page 6


 281              	.LVL28:
 282              	.L26:
 283              		.align	2
 284              	.L25:
 285 0060 00000000 		.word	.LANCHOR1
 286 0064 00000000 		.word	.LC0
 287 0068 00000000 		.word	.LANCHOR2
 288 006c 20000000 		.word	.LC1
 289 0070 00000000 		.word	.LANCHOR3
 290              		.cfi_endproc
 291              	.LFE259:
 292              		.size	eMBMasterRTUReceive, .-eMBMasterRTUReceive
 293 0074 AFF30080 		.section	.text.eMBMasterRTUSend,"ax",%progbits
 293      AFF30080 
 293      AFF30080 
 294              		.align	2
 295              		.p2align 4,,15
 296              		.global	eMBMasterRTUSend
 297              		.thumb
 298              		.thumb_func
 299              		.type	eMBMasterRTUSend, %function
 300              	eMBMasterRTUSend:
 301              	.LFB260:
 302              		.loc 1 194 0
 303              		.cfi_startproc
 304              		@ args = 0, pretend = 0, frame = 16
 305              		@ frame_needed = 0, uses_anonymous_args = 0
 306              	.LVL29:
 307              		.loc 1 198 0
 308 0000 1028     		cmp	r0, #16
 309 0002 01D9     		bls	.L34
 310 0004 0220     		movs	r0, #2
 311              	.LVL30:
 312 0006 7047     		bx	lr
 313              	.LVL31:
 314              	.L34:
 315              		.loc 1 194 0
 316 0008 F0B5     		push	{r4, r5, r6, r7, lr}
 317              		.cfi_def_cfa_offset 20
 318              		.cfi_offset 4, -20
 319              		.cfi_offset 5, -16
 320              		.cfi_offset 6, -12
 321              		.cfi_offset 7, -8
 322              		.cfi_offset 14, -4
 323 000a 85B0     		sub	sp, sp, #20
 324              		.cfi_def_cfa_offset 40
 325 000c 0392     		str	r2, [sp, #12]
 326 000e 0291     		str	r1, [sp, #8]
 327 0010 0190     		str	r0, [sp, #4]
 328              		.loc 1 200 0
 329 0012 FFF7FEFF 		bl	EnterCriticalSection
 330              	.LVL32:
 331              		.loc 1 206 0
 332 0016 1C4B     		ldr	r3, .L36
 333 0018 1D78     		ldrb	r5, [r3]	@ zero_extendqisi2
 334 001a EDB2     		uxtb	r5, r5
 335 001c 01A8     		add	r0, sp, #4
ARM GAS  C:\Users\jo\AppData\Local\Temp\ccRedE1P.s 			page 7


 336 001e 012D     		cmp	r5, #1
 337 0020 07C8     		ldmia	r0, {r0, r1, r2}
 338 0022 05D0     		beq	.L35
 339              		.loc 1 227 0
 340 0024 0524     		movs	r4, #5
 341              	.L29:
 342              	.LVL33:
 343              		.loc 1 229 0
 344 0026 FFF7FEFF 		bl	ExitCriticalSection
 345              	.LVL34:
 346              		.loc 1 230 0
 347 002a 2046     		mov	r0, r4
 348              		.loc 1 231 0
 349 002c 05B0     		add	sp, sp, #20
 350              		.cfi_remember_state
 351              		.cfi_def_cfa_offset 20
 352              		@ sp needed
 353 002e F0BD     		pop	{r4, r5, r6, r7, pc}
 354              	.LVL35:
 355              	.L35:
 356              		.cfi_restore_state
 357              		.loc 1 210 0
 358 0030 164C     		ldr	r4, .L36+4
 359              		.loc 1 209 0
 360 0032 174E     		ldr	r6, .L36+8
 361              		.loc 1 210 0
 362 0034 2580     		strh	r5, [r4]	@ movhi
 363              		.loc 1 213 0
 364 0036 01F8010C 		strb	r0, [r1, #-1]
 365              		.loc 1 214 0
 366 003a 2388     		ldrh	r3, [r4]
 367              		.loc 1 218 0
 368 003c 154F     		ldr	r7, .L36+12
 369              		.loc 1 214 0
 370 003e 12FA83F2 		uxtah	r2, r2, r3
 371 0042 92B2     		uxth	r2, r2
 372 0044 2280     		strh	r2, [r4]	@ movhi
 373              		.loc 1 217 0
 374 0046 2288     		ldrh	r2, [r4]
 375              		.loc 1 209 0
 376 0048 4B1E     		subs	r3, r1, #1
 377              		.loc 1 217 0
 378 004a 1846     		mov	r0, r3
 379 004c 91B2     		uxth	r1, r2
 380              		.loc 1 209 0
 381 004e 3360     		str	r3, [r6]
 382              		.loc 1 217 0
 383 0050 FFF7FEFF 		bl	usMBCRC16
 384              	.LVL36:
 385              		.loc 1 218 0
 386 0054 2388     		ldrh	r3, [r4]
 387              		.loc 1 222 0
 388 0056 DFF840E0 		ldr	lr, .L36+16
 389              		.loc 1 218 0
 390 005a 9BB2     		uxth	r3, r3
 391 005c 5A1C     		adds	r2, r3, #1
 392 005e C1B2     		uxtb	r1, r0
ARM GAS  C:\Users\jo\AppData\Local\Temp\ccRedE1P.s 			page 8


 393 0060 92B2     		uxth	r2, r2
 394 0062 2280     		strh	r2, [r4]	@ movhi
 395 0064 F954     		strb	r1, [r7, r3]
 396              		.loc 1 219 0
 397 0066 2388     		ldrh	r3, [r4]
 398 0068 9BB2     		uxth	r3, r3
 399 006a 5E1C     		adds	r6, r3, #1
 400 006c C0F30722 		ubfx	r2, r0, #8, #8
 401 0070 B6B2     		uxth	r6, r6
 402              		.loc 1 223 0
 403 0072 0020     		movs	r0, #0
 404              	.LVL37:
 405 0074 2946     		mov	r1, r5
 406              		.loc 1 219 0
 407 0076 2680     		strh	r6, [r4]	@ movhi
 408 0078 FA54     		strb	r2, [r7, r3]
 409              		.loc 1 195 0
 410 007a 0446     		mov	r4, r0
 411              		.loc 1 222 0
 412 007c 8EF80050 		strb	r5, [lr]
 413              		.loc 1 223 0
 414 0080 FFF7FEFF 		bl	vMBMasterPortSerialEnable
 415              	.LVL38:
 416 0084 CFE7     		b	.L29
 417              	.L37:
 418 0086 00BF     		.align	2
 419              	.L36:
 420 0088 00000000 		.word	.LANCHOR0
 421 008c 00000000 		.word	.LANCHOR5
 422 0090 00000000 		.word	.LANCHOR4
 423 0094 00000000 		.word	.LANCHOR6
 424 0098 00000000 		.word	.LANCHOR7
 425              		.cfi_endproc
 426              	.LFE260:
 427              		.size	eMBMasterRTUSend, .-eMBMasterRTUSend
 428 009c AFF30080 		.section	.text.xMBMasterRTUReceiveFSM,"ax",%progbits
 429              		.align	2
 430              		.p2align 4,,15
 431              		.global	xMBMasterRTUReceiveFSM
 432              		.thumb
 433              		.thumb_func
 434              		.type	xMBMasterRTUReceiveFSM, %function
 435              	xMBMasterRTUReceiveFSM:
 436              	.LFB261:
 437              		.loc 1 235 0
 438              		.cfi_startproc
 439              		@ args = 0, pretend = 0, frame = 8
 440              		@ frame_needed = 0, uses_anonymous_args = 0
 441              	.LVL39:
 442 0000 F0B5     		push	{r4, r5, r6, r7, lr}
 443              		.cfi_def_cfa_offset 20
 444              		.cfi_offset 4, -20
 445              		.cfi_offset 5, -16
 446              		.cfi_offset 6, -12
 447              		.cfi_offset 7, -8
 448              		.cfi_offset 14, -4
 449              		.loc 1 239 0
ARM GAS  C:\Users\jo\AppData\Local\Temp\ccRedE1P.s 			page 9


 450 0002 224C     		ldr	r4, .L56
 451 0004 2378     		ldrb	r3, [r4]	@ zero_extendqisi2
 452              		.loc 1 235 0
 453 0006 83B0     		sub	sp, sp, #12
 454              		.cfi_def_cfa_offset 32
 455              		.loc 1 239 0
 456 0008 13B1     		cbz	r3, .L39
 457              		.loc 1 239 0 is_stmt 0 discriminator 1
 458 000a 2378     		ldrb	r3, [r4]	@ zero_extendqisi2
 459 000c 022B     		cmp	r3, #2
 460 000e 37D1     		bne	.L55
 461              	.L39:
 462              		.loc 1 244 0 is_stmt 1
 463 0010 1F4D     		ldr	r5, .L56+4
 464              		.loc 1 242 0
 465 0012 0DF10700 		add	r0, sp, #7
 466 0016 FFF7FEFF 		bl	xMBMasterPortSerialGetByte
 467              	.LVL40:
 468              		.loc 1 244 0
 469 001a 2B78     		ldrb	r3, [r5]	@ zero_extendqisi2
 470 001c 032B     		cmp	r3, #3
 471 001e 13D8     		bhi	.L40
 472 0020 DFE803F0 		tbb	[pc, r3]
 473              	.L42:
 474 0024 10       		.byte	(.L47-.L42)/2
 475 0025 15       		.byte	(.L43-.L42)/2
 476 0026 02       		.byte	(.L44-.L42)/2
 477 0027 10       		.byte	(.L47-.L42)/2
 478              		.p2align 1
 479              	.L44:
 480              		.loc 1 288 0
 481 0028 1A4A     		ldr	r2, .L56+8
 482 002a 1388     		ldrh	r3, [r2]
 483 002c 9BB2     		uxth	r3, r3
 484 002e FF2B     		cmp	r3, #255
 485 0030 23D8     		bhi	.L46
 486              		.loc 1 290 0
 487 0032 1388     		ldrh	r3, [r2]
 488 0034 1848     		ldr	r0, .L56+12
 489 0036 9DF80740 		ldrb	r4, [sp, #7]	@ zero_extendqisi2
 490 003a 9BB2     		uxth	r3, r3
 491 003c 591C     		adds	r1, r3, #1
 492 003e 89B2     		uxth	r1, r1
 493 0040 1180     		strh	r1, [r2]	@ movhi
 494 0042 C454     		strb	r4, [r0, r3]
 495              	.L47:
 496              		.loc 1 296 0
 497 0044 FFF7FEFF 		bl	vMBMasterPortTimersT35Enable
 498              	.LVL41:
 499              	.L40:
 500              		.loc 1 300 0
 501 0048 0020     		movs	r0, #0
 502 004a 03B0     		add	sp, sp, #12
 503              		.cfi_remember_state
 504              		.cfi_def_cfa_offset 20
 505              		@ sp needed
 506 004c F0BD     		pop	{r4, r5, r6, r7, pc}
ARM GAS  C:\Users\jo\AppData\Local\Temp\ccRedE1P.s 			page 10


 507              	.L43:
 508              		.cfi_restore_state
 509              		.loc 1 270 0
 510 004e FFF7FEFF 		bl	vMBMasterPortTimersDisable
 511              	.LVL42:
 512              		.loc 1 273 0
 513 0052 104A     		ldr	r2, .L56+8
 514              		.loc 1 274 0
 515 0054 104E     		ldr	r6, .L56+12
 516 0056 9DF80770 		ldrb	r7, [sp, #7]	@ zero_extendqisi2
 517              		.loc 1 271 0
 518 005a 0023     		movs	r3, #0
 519 005c 2370     		strb	r3, [r4]
 520              		.loc 1 273 0
 521 005e 1380     		strh	r3, [r2]	@ movhi
 522              		.loc 1 274 0
 523 0060 1388     		ldrh	r3, [r2]
 524 0062 9BB2     		uxth	r3, r3
 525 0064 591C     		adds	r1, r3, #1
 526 0066 89B2     		uxth	r1, r1
 527              		.loc 1 275 0
 528 0068 0220     		movs	r0, #2
 529              		.loc 1 274 0
 530 006a 1180     		strh	r1, [r2]	@ movhi
 531 006c F754     		strb	r7, [r6, r3]
 532              		.loc 1 275 0
 533 006e 2870     		strb	r0, [r5]
 534              		.loc 1 279 0
 535 0070 FFF7FEFF 		bl	vMBMasterPortTimersT35Enable
 536              	.LVL43:
 537              		.loc 1 300 0
 538 0074 0020     		movs	r0, #0
 539 0076 03B0     		add	sp, sp, #12
 540              		.cfi_remember_state
 541              		.cfi_def_cfa_offset 20
 542              		@ sp needed
 543 0078 F0BD     		pop	{r4, r5, r6, r7, pc}
 544              	.L46:
 545              		.cfi_restore_state
 546              		.loc 1 294 0
 547 007a 0323     		movs	r3, #3
 548 007c 2B70     		strb	r3, [r5]
 549 007e E1E7     		b	.L47
 550              	.L55:
 551              		.loc 1 239 0 discriminator 2
 552 0080 0648     		ldr	r0, .L56+16
 553 0082 074A     		ldr	r2, .L56+20
 554 0084 074B     		ldr	r3, .L56+24
 555 0086 EF21     		movs	r1, #239
 556 0088 FFF7FEFF 		bl	__assert_func
 557              	.LVL44:
 558              	.L57:
 559              		.align	2
 560              	.L56:
 561 008c 00000000 		.word	.LANCHOR7
 562 0090 00000000 		.word	.LANCHOR0
 563 0094 00000000 		.word	.LANCHOR1
ARM GAS  C:\Users\jo\AppData\Local\Temp\ccRedE1P.s 			page 11


 564 0098 00000000 		.word	.LANCHOR3
 565 009c 00000000 		.word	.LC0
 566 00a0 00000000 		.word	.LANCHOR8
 567 00a4 4C000000 		.word	.LC2
 568              		.cfi_endproc
 569              	.LFE261:
 570              		.size	xMBMasterRTUReceiveFSM, .-xMBMasterRTUReceiveFSM
 571 00a8 AFF30080 		.section	.text.xMBMasterRTUTransmitFSM,"ax",%progbits
 571      AFF30080 
 572              		.align	2
 573              		.p2align 4,,15
 574              		.global	xMBMasterRTUTransmitFSM
 575              		.thumb
 576              		.thumb_func
 577              		.type	xMBMasterRTUTransmitFSM, %function
 578              	xMBMasterRTUTransmitFSM:
 579              	.LFB262:
 580              		.loc 1 304 0
 581              		.cfi_startproc
 582              		@ args = 0, pretend = 0, frame = 0
 583              		@ frame_needed = 0, uses_anonymous_args = 0
 584              	.LVL45:
 585 0000 38B5     		push	{r3, r4, r5, lr}
 586              		.cfi_def_cfa_offset 16
 587              		.cfi_offset 3, -16
 588              		.cfi_offset 4, -12
 589              		.cfi_offset 5, -8
 590              		.cfi_offset 14, -4
 591              		.loc 1 307 0
 592 0002 204B     		ldr	r3, .L69
 593 0004 1878     		ldrb	r0, [r3]	@ zero_extendqisi2
 594 0006 C0B2     		uxtb	r0, r0
 595 0008 0128     		cmp	r0, #1
 596 000a 33D1     		bne	.L66
 597              		.loc 1 309 0
 598 000c 1E4C     		ldr	r4, .L69+4
 599 000e 2378     		ldrb	r3, [r4]	@ zero_extendqisi2
 600 0010 03F0FF01 		and	r1, r3, #255
 601 0014 CBB1     		cbz	r3, .L61
 602 0016 0129     		cmp	r1, #1
 603 0018 15D1     		bne	.L60
 604              		.loc 1 320 0
 605 001a 1C4D     		ldr	r5, .L69+8
 606 001c 2B88     		ldrh	r3, [r5]
 607 001e 9BB2     		uxth	r3, r3
 608 0020 BBB9     		cbnz	r3, .L67
 609              		.loc 1 328 0
 610 0022 1B4A     		ldr	r2, .L69+12
 611 0024 1B4D     		ldr	r5, .L69+16
 612 0026 1278     		ldrb	r2, [r2]	@ zero_extendqisi2
 613 0028 B2FA82F2 		clz	r2, r2
 614              		.loc 1 331 0
 615 002c 0846     		mov	r0, r1
 616              		.loc 1 328 0
 617 002e 5209     		lsrs	r2, r2, #5
 618              		.loc 1 331 0
 619 0030 1946     		mov	r1, r3
ARM GAS  C:\Users\jo\AppData\Local\Temp\ccRedE1P.s 			page 12


 620              		.loc 1 328 0
 621 0032 2A70     		strb	r2, [r5]
 622              		.loc 1 331 0
 623 0034 FFF7FEFF 		bl	vMBMasterPortSerialEnable
 624              	.LVL46:
 625              		.loc 1 332 0
 626 0038 0223     		movs	r3, #2
 627 003a 2370     		strb	r3, [r4]
 628              		.loc 1 335 0
 629 003c 2B78     		ldrb	r3, [r5]	@ zero_extendqisi2
 630 003e 012B     		cmp	r3, #1
 631 0040 15D0     		beq	.L68
 632              		.loc 1 342 0
 633 0042 FFF7FEFF 		bl	vMBMasterPortTimersRespondTimeoutEnable
 634              	.LVL47:
 635              	.L60:
 636              		.loc 1 349 0
 637 0046 0020     		movs	r0, #0
 638 0048 38BD     		pop	{r3, r4, r5, pc}
 639              	.L61:
 640              		.loc 1 315 0
 641 004a FFF7FEFF 		bl	vMBMasterPortSerialEnable
 642              	.LVL48:
 643              		.loc 1 349 0
 644 004e 0020     		movs	r0, #0
 645 0050 38BD     		pop	{r3, r4, r5, pc}
 646              	.L67:
 647              		.loc 1 322 0
 648 0052 114C     		ldr	r4, .L69+20
 649 0054 2368     		ldr	r3, [r4]
 650 0056 1878     		ldrb	r0, [r3]	@ zero_extendqisi2
 651 0058 FFF7FEFF 		bl	xMBMasterPortSerialPutByte
 652              	.LVL49:
 653              		.loc 1 324 0
 654 005c 2B88     		ldrh	r3, [r5]
 655              		.loc 1 323 0
 656 005e 2268     		ldr	r2, [r4]
 657              		.loc 1 324 0
 658 0060 013B     		subs	r3, r3, #1
 659              		.loc 1 323 0
 660 0062 0132     		adds	r2, r2, #1
 661              		.loc 1 324 0
 662 0064 9BB2     		uxth	r3, r3
 663              		.loc 1 323 0
 664 0066 2260     		str	r2, [r4]
 665              		.loc 1 324 0
 666 0068 2B80     		strh	r3, [r5]	@ movhi
 667              		.loc 1 349 0
 668 006a 0020     		movs	r0, #0
 669 006c 38BD     		pop	{r3, r4, r5, pc}
 670              	.L68:
 671              		.loc 1 337 0
 672 006e FFF7FEFF 		bl	vMBMasterPortTimersConvertDelayEnable
 673              	.LVL50:
 674 0072 E8E7     		b	.L60
 675              	.L66:
 676              		.loc 1 307 0 discriminator 1
ARM GAS  C:\Users\jo\AppData\Local\Temp\ccRedE1P.s 			page 13


 677 0074 0948     		ldr	r0, .L69+24
 678 0076 0A4A     		ldr	r2, .L69+28
 679 0078 0A4B     		ldr	r3, .L69+32
 680 007a 40F23311 		movw	r1, #307
 681 007e FFF7FEFF 		bl	__assert_func
 682              	.LVL51:
 683              	.L70:
 684 0082 00BF     		.align	2
 685              	.L69:
 686 0084 00000000 		.word	.LANCHOR0
 687 0088 00000000 		.word	.LANCHOR7
 688 008c 00000000 		.word	.LANCHOR5
 689 0090 00000000 		.word	.LANCHOR6
 690 0094 00000000 		.word	.LANCHOR10
 691 0098 00000000 		.word	.LANCHOR4
 692 009c 00000000 		.word	.LC0
 693 00a0 00000000 		.word	.LANCHOR9
 694 00a4 94000000 		.word	.LC3
 695              		.cfi_endproc
 696              	.LFE262:
 697              		.size	xMBMasterRTUTransmitFSM, .-xMBMasterRTUTransmitFSM
 698 00a8 AFF30080 		.section	.text.xMBMasterRTUTimerExpired,"ax",%progbits
 698      AFF30080 
 699              		.align	2
 700              		.p2align 4,,15
 701              		.global	xMBMasterRTUTimerExpired
 702              		.thumb
 703              		.thumb_func
 704              		.type	xMBMasterRTUTimerExpired, %function
 705              	xMBMasterRTUTimerExpired:
 706              	.LFB263:
 707              		.loc 1 353 0
 708              		.cfi_startproc
 709              		@ args = 0, pretend = 0, frame = 0
 710              		@ frame_needed = 0, uses_anonymous_args = 0
 711              	.LVL52:
 712              		.loc 1 355 0
 713 0000 2D4B     		ldr	r3, .L99
 714              		.loc 1 353 0
 715 0002 70B5     		push	{r4, r5, r6, lr}
 716              		.cfi_def_cfa_offset 16
 717              		.cfi_offset 4, -16
 718              		.cfi_offset 5, -12
 719              		.cfi_offset 6, -8
 720              		.cfi_offset 14, -4
 721              		.loc 1 355 0
 722 0004 4FF40072 		mov	r2, #512
 723              		.loc 1 357 0
 724 0008 2C4D     		ldr	r5, .L99+4
 725              		.loc 1 355 0
 726 000a 5A83     		strh	r2, [r3, #26]	@ movhi
 727              		.loc 1 357 0
 728 000c 2878     		ldrb	r0, [r5]	@ zero_extendqisi2
 729 000e C0B2     		uxtb	r0, r0
 730 0010 0228     		cmp	r0, #2
 731 0012 16D0     		beq	.L94
 732 0014 0328     		cmp	r0, #3
ARM GAS  C:\Users\jo\AppData\Local\Temp\ccRedE1P.s 			page 14


 733 0016 10D0     		beq	.L74
 734 0018 0028     		cmp	r0, #0
 735 001a 35D0     		beq	.L95
 736              		.loc 1 378 0
 737 001c 2B78     		ldrb	r3, [r5]	@ zero_extendqisi2
 738 001e 03F0FF06 		and	r6, r3, #255
 739 0022 8BB1     		cbz	r3, .L76
 740              		.loc 1 378 0 is_stmt 0 discriminator 1
 741 0024 2B78     		ldrb	r3, [r5]	@ zero_extendqisi2
 742 0026 022B     		cmp	r3, #2
 743 0028 05D0     		beq	.L84
 744              		.loc 1 378 0 discriminator 2
 745 002a 2B78     		ldrb	r3, [r5]	@ zero_extendqisi2
 746 002c 032B     		cmp	r3, #3
 747 002e 02D0     		beq	.L84
 748              		.loc 1 378 0 discriminator 3
 749 0030 2B78     		ldrb	r3, [r5]	@ zero_extendqisi2
 750 0032 012B     		cmp	r3, #1
 751 0034 39D1     		bne	.L96
 752              	.L84:
 753              		.loc 1 354 0 is_stmt 1
 754 0036 0026     		movs	r6, #0
 755 0038 06E0     		b	.L76
 756              	.L74:
 757              		.loc 1 372 0
 758 003a 0220     		movs	r0, #2
 759 003c FFF7FEFF 		bl	vMBMasterSetErrorType
 760              	.LVL53:
 761              		.loc 1 373 0
 762 0040 1020     		movs	r0, #16
 763              	.L94:
 764 0042 FFF7FEFF 		bl	xMBMasterPortEventPost
 765              	.LVL54:
 766 0046 0646     		mov	r6, r0
 767              	.LVL55:
 768              	.L76:
 769              		.loc 1 383 0
 770 0048 0120     		movs	r0, #1
 771              		.loc 1 385 0
 772 004a 1D4C     		ldr	r4, .L99+8
 773              		.loc 1 383 0
 774 004c 2870     		strb	r0, [r5]
 775              		.loc 1 385 0
 776 004e 2378     		ldrb	r3, [r4]	@ zero_extendqisi2
 777 0050 022B     		cmp	r3, #2
 778 0052 0CD1     		bne	.L92
 779              		.loc 1 391 0
 780 0054 1B4B     		ldr	r3, .L99+12
 781 0056 1B78     		ldrb	r3, [r3]	@ zero_extendqisi2
 782 0058 DBB1     		cbz	r3, .L97
 783              	.L79:
 784              		.loc 1 402 0
 785 005a 0023     		movs	r3, #0
 786 005c 2370     		strb	r3, [r4]
 787              		.loc 1 404 0
 788 005e FFF7FEFF 		bl	vMBMasterPortTimersDisable
 789              	.LVL56:
ARM GAS  C:\Users\jo\AppData\Local\Temp\ccRedE1P.s 			page 15


 790              		.loc 1 406 0
 791 0062 194B     		ldr	r3, .L99+16
 792 0064 1B78     		ldrb	r3, [r3]	@ zero_extendqisi2
 793 0066 022B     		cmp	r3, #2
 794 0068 1AD0     		beq	.L98
 795              		.loc 1 411 0
 796 006a 3046     		mov	r0, r6
 797 006c 70BD     		pop	{r4, r5, r6, pc}
 798              	.LVL57:
 799              	.L92:
 800              		.loc 1 398 0
 801 006e 2378     		ldrb	r3, [r4]	@ zero_extendqisi2
 802 0070 022B     		cmp	r3, #2
 803 0072 F2D0     		beq	.L79
 804              		.loc 1 398 0 is_stmt 0 discriminator 1
 805 0074 2378     		ldrb	r3, [r4]	@ zero_extendqisi2
 806 0076 002B     		cmp	r3, #0
 807 0078 EFD0     		beq	.L79
 808              		.loc 1 398 0 discriminator 2
 809 007a 1448     		ldr	r0, .L99+20
 810 007c 144A     		ldr	r2, .L99+24
 811 007e 154B     		ldr	r3, .L99+28
 812 0080 40F28F11 		movw	r1, #399
 813 0084 FFF7FEFF 		bl	__assert_func
 814              	.LVL58:
 815              	.L95:
 816              		.loc 1 361 0 is_stmt 1
 817 0088 0120     		movs	r0, #1
 818 008a FFF7FEFF 		bl	xMBMasterPortEventPost
 819              	.LVL59:
 820 008e 0646     		mov	r6, r0
 821              	.LVL60:
 822              		.loc 1 362 0
 823 0090 DAE7     		b	.L76
 824              	.L97:
 825              		.loc 1 392 0
 826 0092 FFF7FEFF 		bl	vMBMasterSetErrorType
 827              	.LVL61:
 828              		.loc 1 393 0
 829 0096 1020     		movs	r0, #16
 830 0098 FFF7FEFF 		bl	xMBMasterPortEventPost
 831              	.LVL62:
 832 009c 0646     		mov	r6, r0
 833              	.LVL63:
 834 009e DCE7     		b	.L79
 835              	.L98:
 836              		.loc 1 407 0
 837 00a0 0420     		movs	r0, #4
 838              		.loc 1 411 0
 839 00a2 BDE87040 		pop	{r4, r5, r6, lr}
 840              		.cfi_remember_state
 841              		.cfi_restore 14
 842              		.cfi_restore 6
 843              		.cfi_restore 5
 844              		.cfi_restore 4
 845              		.cfi_def_cfa_offset 0
 846              	.LVL64:
ARM GAS  C:\Users\jo\AppData\Local\Temp\ccRedE1P.s 			page 16


 847              		.loc 1 407 0
 848 00a6 FFF7FEBF 		b	xMBMasterPortEventPost
 849              	.LVL65:
 850              	.L96:
 851              		.cfi_restore_state
 852              		.loc 1 378 0 discriminator 4
 853 00aa 0848     		ldr	r0, .L99+20
 854 00ac 084A     		ldr	r2, .L99+24
 855 00ae 0A4B     		ldr	r3, .L99+32
 856 00b0 4FF4BE71 		mov	r1, #380
 857 00b4 FFF7FEFF 		bl	__assert_func
 858              	.LVL66:
 859              	.L100:
 860              		.align	2
 861              	.L99:
 862 00b8 00080240 		.word	1073874944
 863 00bc 00000000 		.word	.LANCHOR0
 864 00c0 00000000 		.word	.LANCHOR7
 865 00c4 00000000 		.word	.LANCHOR10
 866 00c8 00000000 		.word	.LANCHOR12
 867 00cc 00000000 		.word	.LC0
 868 00d0 00000000 		.word	.LANCHOR11
 869 00d4 44010000 		.word	.LC5
 870 00d8 B4000000 		.word	.LC4
 871              		.cfi_endproc
 872              	.LFE263:
 873              		.size	xMBMasterRTUTimerExpired, .-xMBMasterRTUTimerExpired
 874 00dc AFF30080 		.section	.text.vMBMasterGetRTUSndBuf,"ax",%progbits
 875              		.align	2
 876              		.p2align 4,,15
 877              		.global	vMBMasterGetRTUSndBuf
 878              		.thumb
 879              		.thumb_func
 880              		.type	vMBMasterGetRTUSndBuf, %function
 881              	vMBMasterGetRTUSndBuf:
 882              	.LFB264:
 883              		.loc 1 416 0
 884              		.cfi_startproc
 885              		@ args = 0, pretend = 0, frame = 0
 886              		@ frame_needed = 0, uses_anonymous_args = 0
 887              		@ link register save eliminated.
 888              	.LVL67:
 889              		.loc 1 417 0
 890 0000 014B     		ldr	r3, .L102
 891 0002 0360     		str	r3, [r0]
 892 0004 7047     		bx	lr
 893              	.L103:
 894 0006 00BF     		.align	2
 895              	.L102:
 896 0008 00000000 		.word	.LANCHOR6
 897              		.cfi_endproc
 898              	.LFE264:
 899              		.size	vMBMasterGetRTUSndBuf, .-vMBMasterGetRTUSndBuf
 900 000c AFF30080 		.section	.text.vMBMasterGetPDUSndBuf,"ax",%progbits
 901              		.align	2
 902              		.p2align 4,,15
 903              		.global	vMBMasterGetPDUSndBuf
ARM GAS  C:\Users\jo\AppData\Local\Temp\ccRedE1P.s 			page 17


 904              		.thumb
 905              		.thumb_func
 906              		.type	vMBMasterGetPDUSndBuf, %function
 907              	vMBMasterGetPDUSndBuf:
 908              	.LFB265:
 909              		.loc 1 423 0
 910              		.cfi_startproc
 911              		@ args = 0, pretend = 0, frame = 0
 912              		@ frame_needed = 0, uses_anonymous_args = 0
 913              		@ link register save eliminated.
 914              	.LVL68:
 915              		.loc 1 424 0
 916 0000 014B     		ldr	r3, .L105
 917 0002 0360     		str	r3, [r0]
 918 0004 7047     		bx	lr
 919              	.L106:
 920 0006 00BF     		.align	2
 921              	.L105:
 922 0008 01000000 		.word	.LANCHOR6+1
 923              		.cfi_endproc
 924              	.LFE265:
 925              		.size	vMBMasterGetPDUSndBuf, .-vMBMasterGetPDUSndBuf
 926 000c AFF30080 		.section	.text.vMBMasterSetPDUSndLength,"ax",%progbits
 927              		.align	2
 928              		.p2align 4,,15
 929              		.global	vMBMasterSetPDUSndLength
 930              		.thumb
 931              		.thumb_func
 932              		.type	vMBMasterSetPDUSndLength, %function
 933              	vMBMasterSetPDUSndLength:
 934              	.LFB266:
 935              		.loc 1 430 0
 936              		.cfi_startproc
 937              		@ args = 0, pretend = 0, frame = 0
 938              		@ frame_needed = 0, uses_anonymous_args = 0
 939              		@ link register save eliminated.
 940              	.LVL69:
 941              		.loc 1 431 0
 942 0000 014B     		ldr	r3, .L108
 943 0002 1880     		strh	r0, [r3]	@ movhi
 944 0004 7047     		bx	lr
 945              	.L109:
 946 0006 00BF     		.align	2
 947              	.L108:
 948 0008 00000000 		.word	.LANCHOR13
 949              		.cfi_endproc
 950              	.LFE266:
 951              		.size	vMBMasterSetPDUSndLength, .-vMBMasterSetPDUSndLength
 952 000c AFF30080 		.section	.text.usMBMasterGetPDUSndLength,"ax",%progbits
 953              		.align	2
 954              		.p2align 4,,15
 955              		.global	usMBMasterGetPDUSndLength
 956              		.thumb
 957              		.thumb_func
 958              		.type	usMBMasterGetPDUSndLength, %function
 959              	usMBMasterGetPDUSndLength:
 960              	.LFB267:
ARM GAS  C:\Users\jo\AppData\Local\Temp\ccRedE1P.s 			page 18


 961              		.loc 1 437 0
 962              		.cfi_startproc
 963              		@ args = 0, pretend = 0, frame = 0
 964              		@ frame_needed = 0, uses_anonymous_args = 0
 965              		@ link register save eliminated.
 966              		.loc 1 438 0
 967 0000 014B     		ldr	r3, .L111
 968 0002 1888     		ldrh	r0, [r3]
 969              		.loc 1 439 0
 970 0004 80B2     		uxth	r0, r0
 971 0006 7047     		bx	lr
 972              	.L112:
 973              		.align	2
 974              	.L111:
 975 0008 00000000 		.word	.LANCHOR13
 976              		.cfi_endproc
 977              	.LFE267:
 978              		.size	usMBMasterGetPDUSndLength, .-usMBMasterGetPDUSndLength
 979 000c AFF30080 		.section	.text.vMBMasterSetCurTimerMode,"ax",%progbits
 980              		.align	2
 981              		.p2align 4,,15
 982              		.global	vMBMasterSetCurTimerMode
 983              		.thumb
 984              		.thumb_func
 985              		.type	vMBMasterSetCurTimerMode, %function
 986              	vMBMasterSetCurTimerMode:
 987              	.LFB268:
 988              		.loc 1 444 0
 989              		.cfi_startproc
 990              		@ args = 0, pretend = 0, frame = 0
 991              		@ frame_needed = 0, uses_anonymous_args = 0
 992              		@ link register save eliminated.
 993              	.LVL70:
 994              		.loc 1 445 0
 995 0000 014B     		ldr	r3, .L114
 996 0002 1870     		strb	r0, [r3]
 997 0004 7047     		bx	lr
 998              	.L115:
 999 0006 00BF     		.align	2
 1000              	.L114:
 1001 0008 00000000 		.word	.LANCHOR12
 1002              		.cfi_endproc
 1003              	.LFE268:
 1004              		.size	vMBMasterSetCurTimerMode, .-vMBMasterSetCurTimerMode
 1005 000c AFF30080 		.section	.text.xMBMasterRequestIsBroadcast,"ax",%progbits
 1006              		.align	2
 1007              		.p2align 4,,15
 1008              		.global	xMBMasterRequestIsBroadcast
 1009              		.thumb
 1010              		.thumb_func
 1011              		.type	xMBMasterRequestIsBroadcast, %function
 1012              	xMBMasterRequestIsBroadcast:
 1013              	.LFB269:
 1014              		.loc 1 450 0
 1015              		.cfi_startproc
 1016              		@ args = 0, pretend = 0, frame = 0
 1017              		@ frame_needed = 0, uses_anonymous_args = 0
ARM GAS  C:\Users\jo\AppData\Local\Temp\ccRedE1P.s 			page 19


 1018              		@ link register save eliminated.
 1019              		.loc 1 451 0
 1020 0000 014B     		ldr	r3, .L117
 1021 0002 1878     		ldrb	r0, [r3]	@ zero_extendqisi2
 1022              		.loc 1 452 0
 1023 0004 7047     		bx	lr
 1024              	.L118:
 1025 0006 00BF     		.align	2
 1026              	.L117:
 1027 0008 00000000 		.word	.LANCHOR10
 1028              		.cfi_endproc
 1029              	.LFE269:
 1030              		.size	xMBMasterRequestIsBroadcast, .-xMBMasterRequestIsBroadcast
 1031 000c AFF30080 		.section	.rodata.__FUNCTION__.9293,"a",%progbits
 1032              		.align	2
 1033              		.set	.LANCHOR9,. + 0
 1034              		.type	__FUNCTION__.9293, %object
 1035              		.size	__FUNCTION__.9293, 24
 1036              	__FUNCTION__.9293:
 1037 0000 784D424D 		.ascii	"xMBMasterRTUTransmitFSM\000"
 1037      61737465 
 1037      72525455 
 1037      5472616E 
 1037      736D6974 
 1038              		.section	.bss.ucMasterRTURcvBuf,"aw",%nobits
 1039              		.align	2
 1040              		.set	.LANCHOR3,. + 0
 1041              		.type	ucMasterRTURcvBuf, %object
 1042              		.size	ucMasterRTURcvBuf, 256
 1043              	ucMasterRTURcvBuf:
 1044 0000 00000000 		.space	256
 1044      00000000 
 1044      00000000 
 1044      00000000 
 1044      00000000 
 1045              		.section	.bss.xFrameIsBroadcast,"aw",%nobits
 1046              		.set	.LANCHOR10,. + 0
 1047              		.type	xFrameIsBroadcast, %object
 1048              		.size	xFrameIsBroadcast, 1
 1049              	xFrameIsBroadcast:
 1050 0000 00       		.space	1
 1051              		.section	.bss.usMasterSndBufferCount,"aw",%nobits
 1052              		.align	1
 1053              		.set	.LANCHOR5,. + 0
 1054              		.type	usMasterSndBufferCount, %object
 1055              		.size	usMasterSndBufferCount, 2
 1056              	usMasterSndBufferCount:
 1057 0000 0000     		.space	2
 1058              		.section	.bss.usMasterRcvBufferPos,"aw",%nobits
 1059              		.align	1
 1060              		.set	.LANCHOR1,. + 0
 1061              		.type	usMasterRcvBufferPos, %object
 1062              		.size	usMasterRcvBufferPos, 2
 1063              	usMasterRcvBufferPos:
 1064 0000 0000     		.space	2
 1065              		.section	.rodata.__FUNCTION__.9306,"a",%progbits
 1066              		.align	2
ARM GAS  C:\Users\jo\AppData\Local\Temp\ccRedE1P.s 			page 20


 1067              		.set	.LANCHOR11,. + 0
 1068              		.type	__FUNCTION__.9306, %object
 1069              		.size	__FUNCTION__.9306, 25
 1070              	__FUNCTION__.9306:
 1071 0000 784D424D 		.ascii	"xMBMasterRTUTimerExpired\000"
 1071      61737465 
 1071      72525455 
 1071      54696D65 
 1071      72457870 
 1072 0019 000000   		.section	.bss.usMasterSendPDULength,"aw",%nobits
 1073              		.align	1
 1074              		.set	.LANCHOR13,. + 0
 1075              		.type	usMasterSendPDULength, %object
 1076              		.size	usMasterSendPDULength, 2
 1077              	usMasterSendPDULength:
 1078 0000 0000     		.space	2
 1079              		.section	.rodata.str1.4,"aMS",%progbits,1
 1080              		.align	2
 1081              	.LC0:
 1082 0000 46726565 		.ascii	"FreeModbus/modbus/rtu/mbrtu_m.c\000"
 1082      4D6F6462 
 1082      75732F6D 
 1082      6F646275 
 1082      732F7274 
 1083              	.LC1:
 1084 0020 75734D61 		.ascii	"usMasterRcvBufferPos < MB_SER_PDU_SIZE_MAX\000"
 1084      73746572 
 1084      52637642 
 1084      75666665 
 1084      72506F73 
 1085 004b 00       		.space	1
 1086              	.LC2:
 1087 004c 28206553 		.ascii	"( eSndState == STATE_M_TX_IDLE ) || ( eSndState == "
 1087      6E645374 
 1087      61746520 
 1087      3D3D2053 
 1087      54415445 
 1088 007f 53544154 		.ascii	"STATE_M_TX_XFWR )\000"
 1088      455F4D5F 
 1088      54585F58 
 1088      46575220 
 1088      2900
 1089 0091 000000   		.space	3
 1090              	.LC3:
 1091 0094 65526376 		.ascii	"eRcvState == STATE_M_RX_IDLE\000"
 1091      53746174 
 1091      65203D3D 
 1091      20535441 
 1091      54455F4D 
 1092 00b1 000000   		.space	3
 1093              	.LC4:
 1094 00b4 28206552 		.ascii	"( eRcvState == STATE_M_RX_INIT ) || ( eRcvState == "
 1094      63765374 
 1094      61746520 
 1094      3D3D2053 
 1094      54415445 
 1095 00e7 53544154 		.ascii	"STATE_M_RX_RCV ) || ( eRcvState == STATE_M_RX_ERROR"
ARM GAS  C:\Users\jo\AppData\Local\Temp\ccRedE1P.s 			page 21


 1095      455F4D5F 
 1095      52585F52 
 1095      43562029 
 1095      207C7C20 
 1096 011a 2029207C 		.ascii	" ) || ( eRcvState == STATE_M_RX_IDLE )\000"
 1096      7C202820 
 1096      65526376 
 1096      53746174 
 1096      65203D3D 
 1097 0141 000000   		.space	3
 1098              	.LC5:
 1099 0144 28206553 		.ascii	"( eSndState == STATE_M_TX_XFWR ) || ( eSndState == "
 1099      6E645374 
 1099      61746520 
 1099      3D3D2053 
 1099      54415445 
 1100 0177 53544154 		.ascii	"STATE_M_TX_IDLE )\000"
 1100      455F4D5F 
 1100      54585F49 
 1100      444C4520 
 1100      2900
 1101 0189 000000   		.section	.rodata.__FUNCTION__.9270,"a",%progbits
 1102              		.align	2
 1103              		.set	.LANCHOR2,. + 0
 1104              		.type	__FUNCTION__.9270, %object
 1105              		.size	__FUNCTION__.9270, 20
 1106              	__FUNCTION__.9270:
 1107 0000 654D424D 		.ascii	"eMBMasterRTUReceive\000"
 1107      61737465 
 1107      72525455 
 1107      52656365 
 1107      69766500 
 1108              		.section	.bss.eMasterCurTimerMode,"aw",%nobits
 1109              		.set	.LANCHOR12,. + 0
 1110              		.type	eMasterCurTimerMode, %object
 1111              		.size	eMasterCurTimerMode, 1
 1112              	eMasterCurTimerMode:
 1113 0000 00       		.space	1
 1114              		.section	.bss.eSndState,"aw",%nobits
 1115              		.set	.LANCHOR7,. + 0
 1116              		.type	eSndState, %object
 1117              		.size	eSndState, 1
 1118              	eSndState:
 1119 0000 00       		.space	1
 1120              		.section	.bss.eRcvState,"aw",%nobits
 1121              		.set	.LANCHOR0,. + 0
 1122              		.type	eRcvState, %object
 1123              		.size	eRcvState, 1
 1124              	eRcvState:
 1125 0000 00       		.space	1
 1126              		.section	.rodata.__FUNCTION__.9283,"a",%progbits
 1127              		.align	2
 1128              		.set	.LANCHOR8,. + 0
 1129              		.type	__FUNCTION__.9283, %object
 1130              		.size	__FUNCTION__.9283, 23
 1131              	__FUNCTION__.9283:
 1132 0000 784D424D 		.ascii	"xMBMasterRTUReceiveFSM\000"
ARM GAS  C:\Users\jo\AppData\Local\Temp\ccRedE1P.s 			page 22


 1132      61737465 
 1132      72525455 
 1132      52656365 
 1132      69766546 
 1133 0017 00       		.section	.bss.pucMasterSndBufferCur,"aw",%nobits
 1134              		.align	2
 1135              		.set	.LANCHOR4,. + 0
 1136              		.type	pucMasterSndBufferCur, %object
 1137              		.size	pucMasterSndBufferCur, 4
 1138              	pucMasterSndBufferCur:
 1139 0000 00000000 		.space	4
 1140              		.section	.bss.ucMasterRTUSndBuf,"aw",%nobits
 1141              		.align	2
 1142              		.set	.LANCHOR6,. + 0
 1143              		.type	ucMasterRTUSndBuf, %object
 1144              		.size	ucMasterRTUSndBuf, 253
 1145              	ucMasterRTUSndBuf:
 1146 0000 00000000 		.space	253
 1146      00000000 
 1146      00000000 
 1146      00000000 
 1146      00000000 
 1147 00fd 000000   		.text
 1148              	.Letext0:
 1149              		.file 2 "c:\\program files\\gnu tools arm embedded\\4.9 2014q4\\lib\\gcc\\arm-none-eabi\\4.9.3\\in
 1150              		.file 3 "c:\\program files\\gnu tools arm embedded\\4.9 2014q4\\arm-none-eabi\\include\\machine\\_
 1151              		.file 4 "c:\\program files\\gnu tools arm embedded\\4.9 2014q4\\arm-none-eabi\\include\\stdint.h"
 1152              		.file 5 "../../../os/rt/ports/ARMCMx/compilers/GCC/chtypes.h"
 1153              		.file 6 "../../../os/rt/include/chsystypes.h"
 1154              		.file 7 "../../../os/rt/include/chschd.h"
 1155              		.file 8 "../../../os/rt/ports/ARMCMx/chcore.h"
 1156              		.file 9 "../../../os/rt/ports/ARMCMx/chcore_v7m.h"
 1157              		.file 10 "../../../os/rt/include/chtm.h"
 1158              		.file 11 "../../../os/rt/include/chmtx.h"
 1159              		.file 12 "../../../os/hal/ports/STM32/LLD/GPIOv2/pal_lld.h"
 1160              		.file 13 "FreeModbus/port/port.h"
 1161              		.file 14 "FreeModbus/modbus/include/mbport.h"
 1162              		.file 15 "FreeModbus/modbus/include/mb.h"
 1163              		.file 16 "FreeModbus/modbus/include/mb_m.h"
 1164              		.file 17 "FreeModbus/modbus/rtu/mbcrc.h"
 1165              		.file 18 "c:\\program files\\gnu tools arm embedded\\4.9 2014q4\\arm-none-eabi\\include\\assert.h"
 1166              		.file 19 "../../../os/ext/CMSIS/include/core_cm4.h"
 1167              		.section	.debug_info,"",%progbits
 1168              	.Ldebug_info0:
 1169 0000 20110000 		.4byte	0x1120
 1170 0004 0400     		.2byte	0x4
 1171 0006 00000000 		.4byte	.Ldebug_abbrev0
 1172 000a 04       		.byte	0x4
 1173 000b 01       		.uleb128 0x1
 1174 000c DF070000 		.4byte	.LASF211
 1175 0010 01       		.byte	0x1
 1176 0011 2D030000 		.4byte	.LASF212
 1177 0015 F8090000 		.4byte	.LASF213
 1178 0019 00000000 		.4byte	.Ldebug_ranges0+0
 1179 001d 00000000 		.4byte	0
 1180 0021 00000000 		.4byte	.Ldebug_line0
 1181 0025 02       		.uleb128 0x2
ARM GAS  C:\Users\jo\AppData\Local\Temp\ccRedE1P.s 			page 23


 1182 0026 04       		.byte	0x4
 1183 0027 07       		.byte	0x7
 1184 0028 EB090000 		.4byte	.LASF0
 1185 002c 03       		.uleb128 0x3
 1186 002d 0D000000 		.4byte	.LASF2
 1187 0031 02       		.byte	0x2
 1188 0032 D4       		.byte	0xd4
 1189 0033 25000000 		.4byte	0x25
 1190 0037 04       		.uleb128 0x4
 1191 0038 04       		.byte	0x4
 1192 0039 05       		.byte	0x5
 1193 003a 696E7400 		.ascii	"int\000"
 1194 003e 02       		.uleb128 0x2
 1195 003f 01       		.byte	0x1
 1196 0040 06       		.byte	0x6
 1197 0041 E7010000 		.4byte	.LASF1
 1198 0045 03       		.uleb128 0x3
 1199 0046 2B000000 		.4byte	.LASF3
 1200 004a 03       		.byte	0x3
 1201 004b 1D       		.byte	0x1d
 1202 004c 50000000 		.4byte	0x50
 1203 0050 02       		.uleb128 0x2
 1204 0051 01       		.byte	0x1
 1205 0052 08       		.byte	0x8
 1206 0053 76070000 		.4byte	.LASF4
 1207 0057 02       		.uleb128 0x2
 1208 0058 02       		.byte	0x2
 1209 0059 05       		.byte	0x5
 1210 005a A4070000 		.4byte	.LASF5
 1211 005e 03       		.uleb128 0x3
 1212 005f 400A0000 		.4byte	.LASF6
 1213 0063 03       		.byte	0x3
 1214 0064 2B       		.byte	0x2b
 1215 0065 69000000 		.4byte	0x69
 1216 0069 02       		.uleb128 0x2
 1217 006a 02       		.byte	0x2
 1218 006b 07       		.byte	0x7
 1219 006c 55030000 		.4byte	.LASF7
 1220 0070 03       		.uleb128 0x3
 1221 0071 0C010000 		.4byte	.LASF8
 1222 0075 03       		.byte	0x3
 1223 0076 3F       		.byte	0x3f
 1224 0077 7B000000 		.4byte	0x7b
 1225 007b 02       		.uleb128 0x2
 1226 007c 04       		.byte	0x4
 1227 007d 05       		.byte	0x5
 1228 007e 8C020000 		.4byte	.LASF9
 1229 0082 03       		.uleb128 0x3
 1230 0083 9B0A0000 		.4byte	.LASF10
 1231 0087 03       		.byte	0x3
 1232 0088 41       		.byte	0x41
 1233 0089 8D000000 		.4byte	0x8d
 1234 008d 02       		.uleb128 0x2
 1235 008e 04       		.byte	0x4
 1236 008f 07       		.byte	0x7
 1237 0090 B7090000 		.4byte	.LASF11
 1238 0094 02       		.uleb128 0x2
ARM GAS  C:\Users\jo\AppData\Local\Temp\ccRedE1P.s 			page 24


 1239 0095 08       		.byte	0x8
 1240 0096 05       		.byte	0x5
 1241 0097 D9010000 		.4byte	.LASF12
 1242 009b 03       		.uleb128 0x3
 1243 009c 01070000 		.4byte	.LASF13
 1244 00a0 03       		.byte	0x3
 1245 00a1 5B       		.byte	0x5b
 1246 00a2 A6000000 		.4byte	0xa6
 1247 00a6 02       		.uleb128 0x2
 1248 00a7 08       		.byte	0x8
 1249 00a8 07       		.byte	0x7
 1250 00a9 D6000000 		.4byte	.LASF14
 1251 00ad 02       		.uleb128 0x2
 1252 00ae 04       		.byte	0x4
 1253 00af 07       		.byte	0x7
 1254 00b0 D6050000 		.4byte	.LASF15
 1255 00b4 05       		.uleb128 0x5
 1256 00b5 04       		.byte	0x4
 1257 00b6 02       		.uleb128 0x2
 1258 00b7 01       		.byte	0x1
 1259 00b8 08       		.byte	0x8
 1260 00b9 C9090000 		.4byte	.LASF16
 1261 00bd 06       		.uleb128 0x6
 1262 00be 04       		.byte	0x4
 1263 00bf C3000000 		.4byte	0xc3
 1264 00c3 07       		.uleb128 0x7
 1265 00c4 B6000000 		.4byte	0xb6
 1266 00c8 08       		.uleb128 0x8
 1267 00c9 B6000000 		.4byte	0xb6
 1268 00cd D8000000 		.4byte	0xd8
 1269 00d1 09       		.uleb128 0x9
 1270 00d2 AD000000 		.4byte	0xad
 1271 00d6 17       		.byte	0x17
 1272 00d7 00       		.byte	0
 1273 00d8 08       		.uleb128 0x8
 1274 00d9 B6000000 		.4byte	0xb6
 1275 00dd E8000000 		.4byte	0xe8
 1276 00e1 09       		.uleb128 0x9
 1277 00e2 AD000000 		.4byte	0xad
 1278 00e6 18       		.byte	0x18
 1279 00e7 00       		.byte	0
 1280 00e8 03       		.uleb128 0x3
 1281 00e9 CB0B0000 		.4byte	.LASF17
 1282 00ed 04       		.byte	0x4
 1283 00ee 15       		.byte	0x15
 1284 00ef 45000000 		.4byte	0x45
 1285 00f3 03       		.uleb128 0x3
 1286 00f4 EE040000 		.4byte	.LASF18
 1287 00f8 04       		.byte	0x4
 1288 00f9 21       		.byte	0x21
 1289 00fa 5E000000 		.4byte	0x5e
 1290 00fe 03       		.uleb128 0x3
 1291 00ff 6E070000 		.4byte	.LASF19
 1292 0103 04       		.byte	0x4
 1293 0104 2C       		.byte	0x2c
 1294 0105 70000000 		.4byte	0x70
 1295 0109 03       		.uleb128 0x3
ARM GAS  C:\Users\jo\AppData\Local\Temp\ccRedE1P.s 			page 25


 1296 010a 7B090000 		.4byte	.LASF20
 1297 010e 04       		.byte	0x4
 1298 010f 2D       		.byte	0x2d
 1299 0110 82000000 		.4byte	0x82
 1300 0114 03       		.uleb128 0x3
 1301 0115 22000000 		.4byte	.LASF21
 1302 0119 04       		.byte	0x4
 1303 011a 39       		.byte	0x39
 1304 011b 9B000000 		.4byte	0x9b
 1305 011f 0A       		.uleb128 0xa
 1306 0120 FE000000 		.4byte	0xfe
 1307 0124 0A       		.uleb128 0xa
 1308 0125 09010000 		.4byte	0x109
 1309 0129 03       		.uleb128 0x3
 1310 012a F70A0000 		.4byte	.LASF22
 1311 012e 05       		.byte	0x5
 1312 012f 45       		.byte	0x45
 1313 0130 09010000 		.4byte	0x109
 1314 0134 03       		.uleb128 0x3
 1315 0135 E6040000 		.4byte	.LASF23
 1316 0139 05       		.byte	0x5
 1317 013a 48       		.byte	0x48
 1318 013b E8000000 		.4byte	0xe8
 1319 013f 03       		.uleb128 0x3
 1320 0140 C9020000 		.4byte	.LASF24
 1321 0144 05       		.byte	0x5
 1322 0145 49       		.byte	0x49
 1323 0146 E8000000 		.4byte	0xe8
 1324 014a 03       		.uleb128 0x3
 1325 014b 16070000 		.4byte	.LASF25
 1326 014f 05       		.byte	0x5
 1327 0150 4A       		.byte	0x4a
 1328 0151 E8000000 		.4byte	0xe8
 1329 0155 03       		.uleb128 0x3
 1330 0156 4A070000 		.4byte	.LASF26
 1331 015a 05       		.byte	0x5
 1332 015b 4C       		.byte	0x4c
 1333 015c 09010000 		.4byte	0x109
 1334 0160 03       		.uleb128 0x3
 1335 0161 A8040000 		.4byte	.LASF27
 1336 0165 05       		.byte	0x5
 1337 0166 4D       		.byte	0x4d
 1338 0167 FE000000 		.4byte	0xfe
 1339 016b 03       		.uleb128 0x3
 1340 016c 2E050000 		.4byte	.LASF28
 1341 0170 05       		.byte	0x5
 1342 0171 4F       		.byte	0x4f
 1343 0172 09010000 		.4byte	0x109
 1344 0176 03       		.uleb128 0x3
 1345 0177 7D0A0000 		.4byte	.LASF29
 1346 017b 06       		.byte	0x6
 1347 017c 33       		.byte	0x33
 1348 017d 09010000 		.4byte	0x109
 1349 0181 03       		.uleb128 0x3
 1350 0182 630A0000 		.4byte	.LASF30
 1351 0186 06       		.byte	0x6
 1352 0187 3F       		.byte	0x3f
ARM GAS  C:\Users\jo\AppData\Local\Temp\ccRedE1P.s 			page 26


 1353 0188 8C010000 		.4byte	0x18c
 1354 018c 0B       		.uleb128 0xb
 1355 018d 82040000 		.4byte	.LASF49
 1356 0191 44       		.byte	0x44
 1357 0192 07       		.byte	0x7
 1358 0193 BE       		.byte	0xbe
 1359 0194 79020000 		.4byte	0x279
 1360 0198 0C       		.uleb128 0xc
 1361 0199 D8070000 		.4byte	.LASF31
 1362 019d 07       		.byte	0x7
 1363 019e BF       		.byte	0xbf
 1364 019f 1A060000 		.4byte	0x61a
 1365 01a3 00       		.byte	0
 1366 01a4 0C       		.uleb128 0xc
 1367 01a5 2E070000 		.4byte	.LASF32
 1368 01a9 07       		.byte	0x7
 1369 01aa C1       		.byte	0xc1
 1370 01ab 1A060000 		.4byte	0x61a
 1371 01af 04       		.byte	0x4
 1372 01b0 0C       		.uleb128 0xc
 1373 01b1 BC010000 		.4byte	.LASF33
 1374 01b5 07       		.byte	0x7
 1375 01b6 C3       		.byte	0xc3
 1376 01b7 55010000 		.4byte	0x155
 1377 01bb 08       		.byte	0x8
 1378 01bc 0C       		.uleb128 0xc
 1379 01bd B00C0000 		.4byte	.LASF34
 1380 01c1 07       		.byte	0x7
 1381 01c2 C4       		.byte	0xc4
 1382 01c3 9A040000 		.4byte	0x49a
 1383 01c7 0C       		.byte	0xc
 1384 01c8 0C       		.uleb128 0xc
 1385 01c9 4D030000 		.4byte	.LASF35
 1386 01cd 07       		.byte	0x7
 1387 01ce C6       		.byte	0xc6
 1388 01cf 1A060000 		.4byte	0x61a
 1389 01d3 10       		.byte	0x10
 1390 01d4 0C       		.uleb128 0xc
 1391 01d5 4C060000 		.4byte	.LASF36
 1392 01d9 07       		.byte	0x7
 1393 01da C7       		.byte	0xc7
 1394 01db 1A060000 		.4byte	0x61a
 1395 01df 14       		.byte	0x14
 1396 01e0 0C       		.uleb128 0xc
 1397 01e1 260C0000 		.4byte	.LASF37
 1398 01e5 07       		.byte	0x7
 1399 01e6 CE       		.byte	0xce
 1400 01e7 BD000000 		.4byte	0xbd
 1401 01eb 18       		.byte	0x18
 1402 01ec 0C       		.uleb128 0xc
 1403 01ed AE070000 		.4byte	.LASF38
 1404 01f1 07       		.byte	0x7
 1405 01f2 D9       		.byte	0xd9
 1406 01f3 3F010000 		.4byte	0x13f
 1407 01f7 1C       		.byte	0x1c
 1408 01f8 0C       		.uleb128 0xc
 1409 01f9 F8080000 		.4byte	.LASF39
ARM GAS  C:\Users\jo\AppData\Local\Temp\ccRedE1P.s 			page 27


 1410 01fd 07       		.byte	0x7
 1411 01fe DD       		.byte	0xdd
 1412 01ff 34010000 		.4byte	0x134
 1413 0203 1D       		.byte	0x1d
 1414 0204 0C       		.uleb128 0xc
 1415 0205 6C0B0000 		.4byte	.LASF40
 1416 0209 07       		.byte	0x7
 1417 020a E2       		.byte	0xe2
 1418 020b 4A010000 		.4byte	0x14a
 1419 020f 1E       		.byte	0x1e
 1420 0210 0D       		.uleb128 0xd
 1421 0211 705F7500 		.ascii	"p_u\000"
 1422 0215 07       		.byte	0x7
 1423 0216 1401     		.2byte	0x114
 1424 0218 20060000 		.4byte	0x620
 1425 021c 20       		.byte	0x20
 1426 021d 0E       		.uleb128 0xe
 1427 021e BE0C0000 		.4byte	.LASF41
 1428 0222 07       		.byte	0x7
 1429 0223 1901     		.2byte	0x119
 1430 0225 79020000 		.4byte	0x279
 1431 0229 24       		.byte	0x24
 1432 022a 0E       		.uleb128 0xe
 1433 022b 0B040000 		.4byte	.LASF42
 1434 022f 07       		.byte	0x7
 1435 0230 1F01     		.2byte	0x11f
 1436 0232 9D020000 		.4byte	0x29d
 1437 0236 28       		.byte	0x28
 1438 0237 0E       		.uleb128 0xe
 1439 0238 640C0000 		.4byte	.LASF43
 1440 023c 07       		.byte	0x7
 1441 023d 2301     		.2byte	0x123
 1442 023f 60010000 		.4byte	0x160
 1443 0243 30       		.byte	0x30
 1444 0244 0E       		.uleb128 0xe
 1445 0245 4F090000 		.4byte	.LASF44
 1446 0249 07       		.byte	0x7
 1447 024a 2901     		.2byte	0x129
 1448 024c 6B010000 		.4byte	0x16b
 1449 0250 34       		.byte	0x34
 1450 0251 0E       		.uleb128 0xe
 1451 0252 9A070000 		.4byte	.LASF45
 1452 0256 07       		.byte	0x7
 1453 0257 3001     		.2byte	0x130
 1454 0259 89060000 		.4byte	0x689
 1455 025d 38       		.byte	0x38
 1456 025e 0E       		.uleb128 0xe
 1457 025f 870A0000 		.4byte	.LASF46
 1458 0263 07       		.byte	0x7
 1459 0264 3401     		.2byte	0x134
 1460 0266 55010000 		.4byte	0x155
 1461 026a 3C       		.byte	0x3c
 1462 026b 0E       		.uleb128 0xe
 1463 026c F8010000 		.4byte	.LASF47
 1464 0270 07       		.byte	0x7
 1465 0271 3A01     		.2byte	0x13a
 1466 0273 B4000000 		.4byte	0xb4
ARM GAS  C:\Users\jo\AppData\Local\Temp\ccRedE1P.s 			page 28


 1467 0277 40       		.byte	0x40
 1468 0278 00       		.byte	0
 1469 0279 03       		.uleb128 0x3
 1470 027a 380C0000 		.4byte	.LASF48
 1471 027e 06       		.byte	0x6
 1472 027f 44       		.byte	0x44
 1473 0280 84020000 		.4byte	0x284
 1474 0284 0B       		.uleb128 0xb
 1475 0285 8C090000 		.4byte	.LASF50
 1476 0289 04       		.byte	0x4
 1477 028a 07       		.byte	0x7
 1478 028b AC       		.byte	0xac
 1479 028c 9D020000 		.4byte	0x29d
 1480 0290 0C       		.uleb128 0xc
 1481 0291 D8070000 		.4byte	.LASF31
 1482 0295 07       		.byte	0x7
 1483 0296 AD       		.byte	0xad
 1484 0297 1A060000 		.4byte	0x61a
 1485 029b 00       		.byte	0
 1486 029c 00       		.byte	0
 1487 029d 03       		.uleb128 0x3
 1488 029e 5C0B0000 		.4byte	.LASF51
 1489 02a2 06       		.byte	0x6
 1490 02a3 4B       		.byte	0x4b
 1491 02a4 A8020000 		.4byte	0x2a8
 1492 02a8 0B       		.uleb128 0xb
 1493 02a9 9A010000 		.4byte	.LASF52
 1494 02ad 08       		.byte	0x8
 1495 02ae 07       		.byte	0x7
 1496 02af B3       		.byte	0xb3
 1497 02b0 CD020000 		.4byte	0x2cd
 1498 02b4 0C       		.uleb128 0xc
 1499 02b5 D8070000 		.4byte	.LASF31
 1500 02b9 07       		.byte	0x7
 1501 02ba B4       		.byte	0xb4
 1502 02bb 1A060000 		.4byte	0x61a
 1503 02bf 00       		.byte	0
 1504 02c0 0C       		.uleb128 0xc
 1505 02c1 2E070000 		.4byte	.LASF32
 1506 02c5 07       		.byte	0x7
 1507 02c6 B5       		.byte	0xb5
 1508 02c7 1A060000 		.4byte	0x61a
 1509 02cb 04       		.byte	0x4
 1510 02cc 00       		.byte	0
 1511 02cd 03       		.uleb128 0x3
 1512 02ce 00000000 		.4byte	.LASF53
 1513 02d2 06       		.byte	0x6
 1514 02d3 52       		.byte	0x52
 1515 02d4 D8020000 		.4byte	0x2d8
 1516 02d8 0F       		.uleb128 0xf
 1517 02d9 20050000 		.4byte	.LASF54
 1518 02dd 1C       		.byte	0x1c
 1519 02de 07       		.byte	0x7
 1520 02df 7201     		.2byte	0x172
 1521 02e1 34030000 		.4byte	0x334
 1522 02e5 0E       		.uleb128 0xe
 1523 02e6 84090000 		.4byte	.LASF55
ARM GAS  C:\Users\jo\AppData\Local\Temp\ccRedE1P.s 			page 29


 1524 02ea 07       		.byte	0x7
 1525 02eb 7301     		.2byte	0x173
 1526 02ed 9D020000 		.4byte	0x29d
 1527 02f1 00       		.byte	0
 1528 02f2 0E       		.uleb128 0xe
 1529 02f3 CA070000 		.4byte	.LASF56
 1530 02f7 07       		.byte	0x7
 1531 02f8 7401     		.2byte	0x174
 1532 02fa 55010000 		.4byte	0x155
 1533 02fe 08       		.byte	0x8
 1534 02ff 0E       		.uleb128 0xe
 1535 0300 6A060000 		.4byte	.LASF57
 1536 0304 07       		.byte	0x7
 1537 0305 7601     		.2byte	0x176
 1538 0307 9A040000 		.4byte	0x49a
 1539 030b 0C       		.byte	0xc
 1540 030c 0E       		.uleb128 0xe
 1541 030d 70030000 		.4byte	.LASF58
 1542 0311 07       		.byte	0x7
 1543 0312 7901     		.2byte	0x179
 1544 0314 1A060000 		.4byte	0x61a
 1545 0318 10       		.byte	0x10
 1546 0319 0E       		.uleb128 0xe
 1547 031a F9060000 		.4byte	.LASF59
 1548 031e 07       		.byte	0x7
 1549 031f 7A01     		.2byte	0x17a
 1550 0321 1A060000 		.4byte	0x61a
 1551 0325 14       		.byte	0x14
 1552 0326 0E       		.uleb128 0xe
 1553 0327 EF060000 		.4byte	.LASF60
 1554 032b 07       		.byte	0x7
 1555 032c 7D01     		.2byte	0x17d
 1556 032e 1A060000 		.4byte	0x61a
 1557 0332 18       		.byte	0x18
 1558 0333 00       		.byte	0
 1559 0334 03       		.uleb128 0x3
 1560 0335 920A0000 		.4byte	.LASF61
 1561 0339 06       		.byte	0x6
 1562 033a 57       		.byte	0x57
 1563 033b 3F030000 		.4byte	0x33f
 1564 033f 06       		.uleb128 0x6
 1565 0340 04       		.byte	0x4
 1566 0341 45030000 		.4byte	0x345
 1567 0345 10       		.uleb128 0x10
 1568 0346 50030000 		.4byte	0x350
 1569 034a 11       		.uleb128 0x11
 1570 034b B4000000 		.4byte	0xb4
 1571 034f 00       		.byte	0
 1572 0350 03       		.uleb128 0x3
 1573 0351 1E070000 		.4byte	.LASF62
 1574 0355 06       		.byte	0x6
 1575 0356 5C       		.byte	0x5c
 1576 0357 5B030000 		.4byte	0x35b
 1577 035b 0F       		.uleb128 0xf
 1578 035c 530C0000 		.4byte	.LASF63
 1579 0360 14       		.byte	0x14
 1580 0361 07       		.byte	0x7
ARM GAS  C:\Users\jo\AppData\Local\Temp\ccRedE1P.s 			page 30


 1581 0362 4D01     		.2byte	0x14d
 1582 0364 AA030000 		.4byte	0x3aa
 1583 0368 0E       		.uleb128 0xe
 1584 0369 E2030000 		.4byte	.LASF64
 1585 036d 07       		.byte	0x7
 1586 036e 4E01     		.2byte	0x14e
 1587 0370 8F060000 		.4byte	0x68f
 1588 0374 00       		.byte	0
 1589 0375 0E       		.uleb128 0xe
 1590 0376 81030000 		.4byte	.LASF65
 1591 037a 07       		.byte	0x7
 1592 037b 4F01     		.2byte	0x14f
 1593 037d 8F060000 		.4byte	0x68f
 1594 0381 04       		.byte	0x4
 1595 0382 0E       		.uleb128 0xe
 1596 0383 02040000 		.4byte	.LASF66
 1597 0387 07       		.byte	0x7
 1598 0388 5001     		.2byte	0x150
 1599 038a 76010000 		.4byte	0x176
 1600 038e 08       		.byte	0x8
 1601 038f 0E       		.uleb128 0xe
 1602 0390 B60C0000 		.4byte	.LASF67
 1603 0394 07       		.byte	0x7
 1604 0395 5101     		.2byte	0x151
 1605 0397 34030000 		.4byte	0x334
 1606 039b 0C       		.byte	0xc
 1607 039c 0E       		.uleb128 0xe
 1608 039d 240B0000 		.4byte	.LASF68
 1609 03a1 07       		.byte	0x7
 1610 03a2 5301     		.2byte	0x153
 1611 03a4 B4000000 		.4byte	0xb4
 1612 03a8 10       		.byte	0x10
 1613 03a9 00       		.byte	0
 1614 03aa 03       		.uleb128 0x3
 1615 03ab 16010000 		.4byte	.LASF69
 1616 03af 06       		.byte	0x6
 1617 03b0 61       		.byte	0x61
 1618 03b1 B5030000 		.4byte	0x3b5
 1619 03b5 0F       		.uleb128 0xf
 1620 03b6 DF050000 		.4byte	.LASF70
 1621 03ba 10       		.byte	0x10
 1622 03bb 07       		.byte	0x7
 1623 03bc 5D01     		.2byte	0x15d
 1624 03be F7030000 		.4byte	0x3f7
 1625 03c2 0E       		.uleb128 0xe
 1626 03c3 E2030000 		.4byte	.LASF64
 1627 03c7 07       		.byte	0x7
 1628 03c8 5E01     		.2byte	0x15e
 1629 03ca 8F060000 		.4byte	0x68f
 1630 03ce 00       		.byte	0
 1631 03cf 0E       		.uleb128 0xe
 1632 03d0 81030000 		.4byte	.LASF65
 1633 03d4 07       		.byte	0x7
 1634 03d5 6001     		.2byte	0x160
 1635 03d7 8F060000 		.4byte	0x68f
 1636 03db 04       		.byte	0x4
 1637 03dc 0E       		.uleb128 0xe
ARM GAS  C:\Users\jo\AppData\Local\Temp\ccRedE1P.s 			page 31


 1638 03dd 02040000 		.4byte	.LASF66
 1639 03e1 07       		.byte	0x7
 1640 03e2 6201     		.2byte	0x162
 1641 03e4 76010000 		.4byte	0x176
 1642 03e8 08       		.byte	0x8
 1643 03e9 0E       		.uleb128 0xe
 1644 03ea 40060000 		.4byte	.LASF71
 1645 03ee 07       		.byte	0x7
 1646 03ef 6A01     		.2byte	0x16a
 1647 03f1 76010000 		.4byte	0x176
 1648 03f5 0C       		.byte	0xc
 1649 03f6 00       		.byte	0
 1650 03f7 03       		.uleb128 0x3
 1651 03f8 6C000000 		.4byte	.LASF72
 1652 03fc 06       		.byte	0x6
 1653 03fd 66       		.byte	0x66
 1654 03fe 02040000 		.4byte	0x402
 1655 0402 0F       		.uleb128 0xf
 1656 0403 58070000 		.4byte	.LASF73
 1657 0407 04       		.byte	0x4
 1658 0408 07       		.byte	0x7
 1659 0409 8401     		.2byte	0x184
 1660 040b 1D040000 		.4byte	0x41d
 1661 040f 0E       		.uleb128 0xe
 1662 0410 B00A0000 		.4byte	.LASF74
 1663 0414 07       		.byte	0x7
 1664 0415 8C01     		.2byte	0x18c
 1665 0417 95060000 		.4byte	0x695
 1666 041b 00       		.byte	0
 1667 041c 00       		.byte	0
 1668 041d 03       		.uleb128 0x3
 1669 041e C5040000 		.4byte	.LASF75
 1670 0422 06       		.byte	0x6
 1671 0423 6B       		.byte	0x6b
 1672 0424 28040000 		.4byte	0x428
 1673 0428 12       		.uleb128 0x12
 1674 0429 82020000 		.4byte	.LASF76
 1675 042d D801     		.2byte	0x1d8
 1676 042f 07       		.byte	0x7
 1677 0430 A401     		.2byte	0x1a4
 1678 0432 84040000 		.4byte	0x484
 1679 0436 0E       		.uleb128 0xe
 1680 0437 9C0B0000 		.4byte	.LASF77
 1681 043b 07       		.byte	0x7
 1682 043c A801     		.2byte	0x1a8
 1683 043e CD020000 		.4byte	0x2cd
 1684 0442 00       		.byte	0
 1685 0443 0E       		.uleb128 0xe
 1686 0444 89030000 		.4byte	.LASF78
 1687 0448 07       		.byte	0x7
 1688 0449 AC01     		.2byte	0x1ac
 1689 044b AA030000 		.4byte	0x3aa
 1690 044f 1C       		.byte	0x1c
 1691 0450 0D       		.uleb128 0xd
 1692 0451 64626700 		.ascii	"dbg\000"
 1693 0455 07       		.byte	0x7
 1694 0456 B001     		.2byte	0x1b0
ARM GAS  C:\Users\jo\AppData\Local\Temp\ccRedE1P.s 			page 32


 1695 0458 F7030000 		.4byte	0x3f7
 1696 045c 2C       		.byte	0x2c
 1697 045d 0E       		.uleb128 0xe
 1698 045e 9D040000 		.4byte	.LASF79
 1699 0462 07       		.byte	0x7
 1700 0463 B401     		.2byte	0x1b4
 1701 0465 81010000 		.4byte	0x181
 1702 0469 30       		.byte	0x30
 1703 046a 0D       		.uleb128 0xd
 1704 046b 746D00   		.ascii	"tm\000"
 1705 046e 07       		.byte	0x7
 1706 046f B901     		.2byte	0x1b9
 1707 0471 0F060000 		.4byte	0x60f
 1708 0475 74       		.byte	0x74
 1709 0476 0E       		.uleb128 0xe
 1710 0477 A5030000 		.4byte	.LASF80
 1711 047b 07       		.byte	0x7
 1712 047c C501     		.2byte	0x1c5
 1713 047e 9A060000 		.4byte	0x69a
 1714 0482 78       		.byte	0x78
 1715 0483 00       		.byte	0
 1716 0484 03       		.uleb128 0x3
 1717 0485 78030000 		.4byte	.LASF81
 1718 0489 08       		.byte	0x8
 1719 048a 85       		.byte	0x85
 1720 048b B4000000 		.4byte	0xb4
 1721 048f 03       		.uleb128 0x3
 1722 0490 52050000 		.4byte	.LASF82
 1723 0494 08       		.byte	0x8
 1724 0495 8D       		.byte	0x8d
 1725 0496 14010000 		.4byte	0x114
 1726 049a 0B       		.uleb128 0xb
 1727 049b E30A0000 		.4byte	.LASF83
 1728 049f 04       		.byte	0x4
 1729 04a0 08       		.byte	0x8
 1730 04a1 A9       		.byte	0xa9
 1731 04a2 B3040000 		.4byte	0x4b3
 1732 04a6 13       		.uleb128 0x13
 1733 04a7 72313300 		.ascii	"r13\000"
 1734 04ab 08       		.byte	0x8
 1735 04ac AA       		.byte	0xaa
 1736 04ad F4050000 		.4byte	0x5f4
 1737 04b1 00       		.byte	0
 1738 04b2 00       		.byte	0
 1739 04b3 0B       		.uleb128 0xb
 1740 04b4 4A000000 		.4byte	.LASF84
 1741 04b8 64       		.byte	0x64
 1742 04b9 09       		.byte	0x9
 1743 04ba F4       		.byte	0xf4
 1744 04bb F4050000 		.4byte	0x5f4
 1745 04bf 13       		.uleb128 0x13
 1746 04c0 73313600 		.ascii	"s16\000"
 1747 04c4 09       		.byte	0x9
 1748 04c5 F6       		.byte	0xf6
 1749 04c6 84040000 		.4byte	0x484
 1750 04ca 00       		.byte	0
 1751 04cb 13       		.uleb128 0x13
ARM GAS  C:\Users\jo\AppData\Local\Temp\ccRedE1P.s 			page 33


 1752 04cc 73313700 		.ascii	"s17\000"
 1753 04d0 09       		.byte	0x9
 1754 04d1 F7       		.byte	0xf7
 1755 04d2 84040000 		.4byte	0x484
 1756 04d6 04       		.byte	0x4
 1757 04d7 13       		.uleb128 0x13
 1758 04d8 73313800 		.ascii	"s18\000"
 1759 04dc 09       		.byte	0x9
 1760 04dd F8       		.byte	0xf8
 1761 04de 84040000 		.4byte	0x484
 1762 04e2 08       		.byte	0x8
 1763 04e3 13       		.uleb128 0x13
 1764 04e4 73313900 		.ascii	"s19\000"
 1765 04e8 09       		.byte	0x9
 1766 04e9 F9       		.byte	0xf9
 1767 04ea 84040000 		.4byte	0x484
 1768 04ee 0C       		.byte	0xc
 1769 04ef 13       		.uleb128 0x13
 1770 04f0 73323000 		.ascii	"s20\000"
 1771 04f4 09       		.byte	0x9
 1772 04f5 FA       		.byte	0xfa
 1773 04f6 84040000 		.4byte	0x484
 1774 04fa 10       		.byte	0x10
 1775 04fb 13       		.uleb128 0x13
 1776 04fc 73323100 		.ascii	"s21\000"
 1777 0500 09       		.byte	0x9
 1778 0501 FB       		.byte	0xfb
 1779 0502 84040000 		.4byte	0x484
 1780 0506 14       		.byte	0x14
 1781 0507 13       		.uleb128 0x13
 1782 0508 73323200 		.ascii	"s22\000"
 1783 050c 09       		.byte	0x9
 1784 050d FC       		.byte	0xfc
 1785 050e 84040000 		.4byte	0x484
 1786 0512 18       		.byte	0x18
 1787 0513 13       		.uleb128 0x13
 1788 0514 73323300 		.ascii	"s23\000"
 1789 0518 09       		.byte	0x9
 1790 0519 FD       		.byte	0xfd
 1791 051a 84040000 		.4byte	0x484
 1792 051e 1C       		.byte	0x1c
 1793 051f 13       		.uleb128 0x13
 1794 0520 73323400 		.ascii	"s24\000"
 1795 0524 09       		.byte	0x9
 1796 0525 FE       		.byte	0xfe
 1797 0526 84040000 		.4byte	0x484
 1798 052a 20       		.byte	0x20
 1799 052b 13       		.uleb128 0x13
 1800 052c 73323500 		.ascii	"s25\000"
 1801 0530 09       		.byte	0x9
 1802 0531 FF       		.byte	0xff
 1803 0532 84040000 		.4byte	0x484
 1804 0536 24       		.byte	0x24
 1805 0537 0D       		.uleb128 0xd
 1806 0538 73323600 		.ascii	"s26\000"
 1807 053c 09       		.byte	0x9
 1808 053d 0001     		.2byte	0x100
ARM GAS  C:\Users\jo\AppData\Local\Temp\ccRedE1P.s 			page 34


 1809 053f 84040000 		.4byte	0x484
 1810 0543 28       		.byte	0x28
 1811 0544 0D       		.uleb128 0xd
 1812 0545 73323700 		.ascii	"s27\000"
 1813 0549 09       		.byte	0x9
 1814 054a 0101     		.2byte	0x101
 1815 054c 84040000 		.4byte	0x484
 1816 0550 2C       		.byte	0x2c
 1817 0551 0D       		.uleb128 0xd
 1818 0552 73323800 		.ascii	"s28\000"
 1819 0556 09       		.byte	0x9
 1820 0557 0201     		.2byte	0x102
 1821 0559 84040000 		.4byte	0x484
 1822 055d 30       		.byte	0x30
 1823 055e 0D       		.uleb128 0xd
 1824 055f 73323900 		.ascii	"s29\000"
 1825 0563 09       		.byte	0x9
 1826 0564 0301     		.2byte	0x103
 1827 0566 84040000 		.4byte	0x484
 1828 056a 34       		.byte	0x34
 1829 056b 0D       		.uleb128 0xd
 1830 056c 73333000 		.ascii	"s30\000"
 1831 0570 09       		.byte	0x9
 1832 0571 0401     		.2byte	0x104
 1833 0573 84040000 		.4byte	0x484
 1834 0577 38       		.byte	0x38
 1835 0578 0D       		.uleb128 0xd
 1836 0579 73333100 		.ascii	"s31\000"
 1837 057d 09       		.byte	0x9
 1838 057e 0501     		.2byte	0x105
 1839 0580 84040000 		.4byte	0x484
 1840 0584 3C       		.byte	0x3c
 1841 0585 0D       		.uleb128 0xd
 1842 0586 723400   		.ascii	"r4\000"
 1843 0589 09       		.byte	0x9
 1844 058a 0701     		.2byte	0x107
 1845 058c 84040000 		.4byte	0x484
 1846 0590 40       		.byte	0x40
 1847 0591 0D       		.uleb128 0xd
 1848 0592 723500   		.ascii	"r5\000"
 1849 0595 09       		.byte	0x9
 1850 0596 0801     		.2byte	0x108
 1851 0598 84040000 		.4byte	0x484
 1852 059c 44       		.byte	0x44
 1853 059d 0D       		.uleb128 0xd
 1854 059e 723600   		.ascii	"r6\000"
 1855 05a1 09       		.byte	0x9
 1856 05a2 0901     		.2byte	0x109
 1857 05a4 84040000 		.4byte	0x484
 1858 05a8 48       		.byte	0x48
 1859 05a9 0D       		.uleb128 0xd
 1860 05aa 723700   		.ascii	"r7\000"
 1861 05ad 09       		.byte	0x9
 1862 05ae 0A01     		.2byte	0x10a
 1863 05b0 84040000 		.4byte	0x484
 1864 05b4 4C       		.byte	0x4c
 1865 05b5 0D       		.uleb128 0xd
ARM GAS  C:\Users\jo\AppData\Local\Temp\ccRedE1P.s 			page 35


 1866 05b6 723800   		.ascii	"r8\000"
 1867 05b9 09       		.byte	0x9
 1868 05ba 0B01     		.2byte	0x10b
 1869 05bc 84040000 		.4byte	0x484
 1870 05c0 50       		.byte	0x50
 1871 05c1 0D       		.uleb128 0xd
 1872 05c2 723900   		.ascii	"r9\000"
 1873 05c5 09       		.byte	0x9
 1874 05c6 0C01     		.2byte	0x10c
 1875 05c8 84040000 		.4byte	0x484
 1876 05cc 54       		.byte	0x54
 1877 05cd 0D       		.uleb128 0xd
 1878 05ce 72313000 		.ascii	"r10\000"
 1879 05d2 09       		.byte	0x9
 1880 05d3 0D01     		.2byte	0x10d
 1881 05d5 84040000 		.4byte	0x484
 1882 05d9 58       		.byte	0x58
 1883 05da 0D       		.uleb128 0xd
 1884 05db 72313100 		.ascii	"r11\000"
 1885 05df 09       		.byte	0x9
 1886 05e0 0E01     		.2byte	0x10e
 1887 05e2 84040000 		.4byte	0x484
 1888 05e6 5C       		.byte	0x5c
 1889 05e7 0D       		.uleb128 0xd
 1890 05e8 6C7200   		.ascii	"lr\000"
 1891 05eb 09       		.byte	0x9
 1892 05ec 0F01     		.2byte	0x10f
 1893 05ee 84040000 		.4byte	0x484
 1894 05f2 60       		.byte	0x60
 1895 05f3 00       		.byte	0
 1896 05f4 06       		.uleb128 0x6
 1897 05f5 04       		.byte	0x4
 1898 05f6 B3040000 		.4byte	0x4b3
 1899 05fa 14       		.uleb128 0x14
 1900 05fb 04       		.byte	0x4
 1901 05fc 0A       		.byte	0xa
 1902 05fd 38       		.byte	0x38
 1903 05fe 0F060000 		.4byte	0x60f
 1904 0602 0C       		.uleb128 0xc
 1905 0603 C40A0000 		.4byte	.LASF85
 1906 0607 0A       		.byte	0xa
 1907 0608 3C       		.byte	0x3c
 1908 0609 29010000 		.4byte	0x129
 1909 060d 00       		.byte	0
 1910 060e 00       		.byte	0
 1911 060f 03       		.uleb128 0x3
 1912 0610 2F060000 		.4byte	.LASF86
 1913 0614 0A       		.byte	0xa
 1914 0615 3D       		.byte	0x3d
 1915 0616 FA050000 		.4byte	0x5fa
 1916 061a 06       		.uleb128 0x6
 1917 061b 04       		.byte	0x4
 1918 061c 81010000 		.4byte	0x181
 1919 0620 15       		.uleb128 0x15
 1920 0621 04       		.byte	0x4
 1921 0622 07       		.byte	0x7
 1922 0623 F6       		.byte	0xf6
ARM GAS  C:\Users\jo\AppData\Local\Temp\ccRedE1P.s 			page 36


 1923 0624 58060000 		.4byte	0x658
 1924 0628 16       		.uleb128 0x16
 1925 0629 14000000 		.4byte	.LASF87
 1926 062d 07       		.byte	0x7
 1927 062e FD       		.byte	0xfd
 1928 062f 60010000 		.4byte	0x160
 1929 0633 17       		.uleb128 0x17
 1930 0634 F3000000 		.4byte	.LASF88
 1931 0638 07       		.byte	0x7
 1932 0639 0401     		.2byte	0x104
 1933 063b 60010000 		.4byte	0x160
 1934 063f 17       		.uleb128 0x17
 1935 0640 110C0000 		.4byte	.LASF89
 1936 0644 07       		.byte	0x7
 1937 0645 0B01     		.2byte	0x10b
 1938 0647 B4000000 		.4byte	0xb4
 1939 064b 17       		.uleb128 0x17
 1940 064c D1070000 		.4byte	.LASF90
 1941 0650 07       		.byte	0x7
 1942 0651 1201     		.2byte	0x112
 1943 0653 6B010000 		.4byte	0x16b
 1944 0657 00       		.byte	0
 1945 0658 0B       		.uleb128 0xb
 1946 0659 52070000 		.4byte	.LASF91
 1947 065d 10       		.byte	0x10
 1948 065e 0B       		.byte	0xb
 1949 065f 39       		.byte	0x39
 1950 0660 89060000 		.4byte	0x689
 1951 0664 0C       		.uleb128 0xc
 1952 0665 00020000 		.4byte	.LASF92
 1953 0669 0B       		.byte	0xb
 1954 066a 3A       		.byte	0x3a
 1955 066b 9D020000 		.4byte	0x29d
 1956 066f 00       		.byte	0
 1957 0670 0C       		.uleb128 0xc
 1958 0671 A80C0000 		.4byte	.LASF93
 1959 0675 0B       		.byte	0xb
 1960 0676 3C       		.byte	0x3c
 1961 0677 1A060000 		.4byte	0x61a
 1962 067b 08       		.byte	0x8
 1963 067c 0C       		.uleb128 0xc
 1964 067d F2030000 		.4byte	.LASF94
 1965 0681 0B       		.byte	0xb
 1966 0682 3E       		.byte	0x3e
 1967 0683 B5060000 		.4byte	0x6b5
 1968 0687 0C       		.byte	0xc
 1969 0688 00       		.byte	0
 1970 0689 06       		.uleb128 0x6
 1971 068a 04       		.byte	0x4
 1972 068b 58060000 		.4byte	0x658
 1973 068f 06       		.uleb128 0x6
 1974 0690 04       		.byte	0x4
 1975 0691 50030000 		.4byte	0x350
 1976 0695 0A       		.uleb128 0xa
 1977 0696 BD000000 		.4byte	0xbd
 1978 069a 08       		.uleb128 0x8
 1979 069b 8F040000 		.4byte	0x48f
ARM GAS  C:\Users\jo\AppData\Local\Temp\ccRedE1P.s 			page 37


 1980 069f AA060000 		.4byte	0x6aa
 1981 06a3 09       		.uleb128 0x9
 1982 06a4 AD000000 		.4byte	0xad
 1983 06a8 2B       		.byte	0x2b
 1984 06a9 00       		.byte	0
 1985 06aa 03       		.uleb128 0x3
 1986 06ab 9D030000 		.4byte	.LASF95
 1987 06af 0B       		.byte	0xb
 1988 06b0 34       		.byte	0x34
 1989 06b1 58060000 		.4byte	0x658
 1990 06b5 06       		.uleb128 0x6
 1991 06b6 04       		.byte	0x4
 1992 06b7 AA060000 		.4byte	0x6aa
 1993 06bb 02       		.uleb128 0x2
 1994 06bc 01       		.byte	0x1
 1995 06bd 02       		.byte	0x2
 1996 06be 68070000 		.4byte	.LASF96
 1997 06c2 14       		.uleb128 0x14
 1998 06c3 04       		.byte	0x4
 1999 06c4 0C       		.byte	0xc
 2000 06c5 B3       		.byte	0xb3
 2001 06c6 E3060000 		.4byte	0x6e3
 2002 06ca 13       		.uleb128 0x13
 2003 06cb 73657400 		.ascii	"set\000"
 2004 06cf 0C       		.byte	0xc
 2005 06d0 B4       		.byte	0xb4
 2006 06d1 F3000000 		.4byte	0xf3
 2007 06d5 00       		.byte	0
 2008 06d6 0C       		.uleb128 0xc
 2009 06d7 F6050000 		.4byte	.LASF97
 2010 06db 0C       		.byte	0xc
 2011 06dc B5       		.byte	0xb5
 2012 06dd F3000000 		.4byte	0xf3
 2013 06e1 02       		.byte	0x2
 2014 06e2 00       		.byte	0
 2015 06e3 15       		.uleb128 0x15
 2016 06e4 04       		.byte	0x4
 2017 06e5 0C       		.byte	0xc
 2018 06e6 B1       		.byte	0xb1
 2019 06e7 FE060000 		.4byte	0x6fe
 2020 06eb 18       		.uleb128 0x18
 2021 06ec 5700     		.ascii	"W\000"
 2022 06ee 0C       		.byte	0xc
 2023 06ef B2       		.byte	0xb2
 2024 06f0 09010000 		.4byte	0x109
 2025 06f4 18       		.uleb128 0x18
 2026 06f5 4800     		.ascii	"H\000"
 2027 06f7 0C       		.byte	0xc
 2028 06f8 B6       		.byte	0xb6
 2029 06f9 C2060000 		.4byte	0x6c2
 2030 06fd 00       		.byte	0
 2031 06fe 14       		.uleb128 0x14
 2032 06ff 2C       		.byte	0x2c
 2033 0700 0C       		.byte	0xc
 2034 0701 A9       		.byte	0xa9
 2035 0702 8B070000 		.4byte	0x78b
 2036 0706 0C       		.uleb128 0xc
ARM GAS  C:\Users\jo\AppData\Local\Temp\ccRedE1P.s 			page 38


 2037 0707 D0000000 		.4byte	.LASF98
 2038 070b 0C       		.byte	0xc
 2039 070c AB       		.byte	0xab
 2040 070d 24010000 		.4byte	0x124
 2041 0711 00       		.byte	0
 2042 0712 0C       		.uleb128 0xc
 2043 0713 43000000 		.4byte	.LASF99
 2044 0717 0C       		.byte	0xc
 2045 0718 AC       		.byte	0xac
 2046 0719 24010000 		.4byte	0x124
 2047 071d 04       		.byte	0x4
 2048 071e 0C       		.uleb128 0xc
 2049 071f 68030000 		.4byte	.LASF100
 2050 0723 0C       		.byte	0xc
 2051 0724 AD       		.byte	0xad
 2052 0725 24010000 		.4byte	0x124
 2053 0729 08       		.byte	0x8
 2054 072a 0C       		.uleb128 0xc
 2055 072b ED000000 		.4byte	.LASF101
 2056 072f 0C       		.byte	0xc
 2057 0730 AE       		.byte	0xae
 2058 0731 24010000 		.4byte	0x124
 2059 0735 0C       		.byte	0xc
 2060 0736 13       		.uleb128 0x13
 2061 0737 49445200 		.ascii	"IDR\000"
 2062 073b 0C       		.byte	0xc
 2063 073c AF       		.byte	0xaf
 2064 073d 24010000 		.4byte	0x124
 2065 0741 10       		.byte	0x10
 2066 0742 13       		.uleb128 0x13
 2067 0743 4F445200 		.ascii	"ODR\000"
 2068 0747 0C       		.byte	0xc
 2069 0748 B0       		.byte	0xb0
 2070 0749 24010000 		.4byte	0x124
 2071 074d 14       		.byte	0x14
 2072 074e 0C       		.uleb128 0xc
 2073 074f F3010000 		.4byte	.LASF102
 2074 0753 0C       		.byte	0xc
 2075 0754 B7       		.byte	0xb7
 2076 0755 8B070000 		.4byte	0x78b
 2077 0759 18       		.byte	0x18
 2078 075a 0C       		.uleb128 0xc
 2079 075b 3B040000 		.4byte	.LASF103
 2080 075f 0C       		.byte	0xc
 2081 0760 B8       		.byte	0xb8
 2082 0761 24010000 		.4byte	0x124
 2083 0765 1C       		.byte	0x1c
 2084 0766 0C       		.uleb128 0xc
 2085 0767 11070000 		.4byte	.LASF104
 2086 076b 0C       		.byte	0xc
 2087 076c B9       		.byte	0xb9
 2088 076d 24010000 		.4byte	0x124
 2089 0771 20       		.byte	0x20
 2090 0772 0C       		.uleb128 0xc
 2091 0773 0C070000 		.4byte	.LASF105
 2092 0777 0C       		.byte	0xc
 2093 0778 BA       		.byte	0xba
ARM GAS  C:\Users\jo\AppData\Local\Temp\ccRedE1P.s 			page 39


 2094 0779 24010000 		.4byte	0x124
 2095 077d 24       		.byte	0x24
 2096 077e 13       		.uleb128 0x13
 2097 077f 42525200 		.ascii	"BRR\000"
 2098 0783 0C       		.byte	0xc
 2099 0784 BB       		.byte	0xbb
 2100 0785 24010000 		.4byte	0x124
 2101 0789 28       		.byte	0x28
 2102 078a 00       		.byte	0
 2103 078b 0A       		.uleb128 0xa
 2104 078c E3060000 		.4byte	0x6e3
 2105 0790 03       		.uleb128 0x3
 2106 0791 90030000 		.4byte	.LASF106
 2107 0795 0C       		.byte	0xc
 2108 0796 BC       		.byte	0xbc
 2109 0797 FE060000 		.4byte	0x6fe
 2110 079b 19       		.uleb128 0x19
 2111 079c 80000000 		.4byte	.LASF107
 2112 07a0 0C       		.byte	0xc
 2113 07a1 0E01     		.2byte	0x10e
 2114 07a3 09010000 		.4byte	0x109
 2115 07a7 03       		.uleb128 0x3
 2116 07a8 7B000000 		.4byte	.LASF108
 2117 07ac 0D       		.byte	0xd
 2118 07ad 2B       		.byte	0x2b
 2119 07ae E8000000 		.4byte	0xe8
 2120 07b2 03       		.uleb128 0x3
 2121 07b3 6C020000 		.4byte	.LASF109
 2122 07b7 0D       		.byte	0xd
 2123 07b8 2D       		.byte	0x2d
 2124 07b9 50000000 		.4byte	0x50
 2125 07bd 03       		.uleb128 0x3
 2126 07be 780A0000 		.4byte	.LASF110
 2127 07c2 0D       		.byte	0xd
 2128 07c3 2E       		.byte	0x2e
 2129 07c4 B6000000 		.4byte	0xb6
 2130 07c8 03       		.uleb128 0x3
 2131 07c9 18060000 		.4byte	.LASF111
 2132 07cd 0D       		.byte	0xd
 2133 07ce 30       		.byte	0x30
 2134 07cf F3000000 		.4byte	0xf3
 2135 07d3 03       		.uleb128 0x3
 2136 07d4 08020000 		.4byte	.LASF112
 2137 07d8 0D       		.byte	0xd
 2138 07d9 33       		.byte	0x33
 2139 07da 09010000 		.4byte	0x109
 2140 07de 1A       		.uleb128 0x1a
 2141 07df 02       		.byte	0x2
 2142 07e0 0E       		.byte	0xe
 2143 07e1 34       		.byte	0x34
 2144 07e2 20080000 		.4byte	0x820
 2145 07e6 1B       		.uleb128 0x1b
 2146 07e7 6B090000 		.4byte	.LASF113
 2147 07eb 01       		.sleb128 1
 2148 07ec 1B       		.uleb128 0x1b
 2149 07ed B4030000 		.4byte	.LASF114
 2150 07f1 02       		.sleb128 2
ARM GAS  C:\Users\jo\AppData\Local\Temp\ccRedE1P.s 			page 40


 2151 07f2 1B       		.uleb128 0x1b
 2152 07f3 1B030000 		.4byte	.LASF115
 2153 07f7 04       		.sleb128 4
 2154 07f8 1B       		.uleb128 0x1b
 2155 07f9 7D0C0000 		.4byte	.LASF116
 2156 07fd 08       		.sleb128 8
 2157 07fe 1B       		.uleb128 0x1b
 2158 07ff 40040000 		.4byte	.LASF117
 2159 0803 10       		.sleb128 16
 2160 0804 1B       		.uleb128 0x1b
 2161 0805 41020000 		.4byte	.LASF118
 2162 0809 20       		.sleb128 32
 2163 080a 1B       		.uleb128 0x1b
 2164 080b 62040000 		.4byte	.LASF119
 2165 080f C000     		.sleb128 64
 2166 0811 1B       		.uleb128 0x1b
 2167 0812 CE090000 		.4byte	.LASF120
 2168 0816 8001     		.sleb128 128
 2169 0818 1B       		.uleb128 0x1b
 2170 0819 8F050000 		.4byte	.LASF121
 2171 081d 8002     		.sleb128 256
 2172 081f 00       		.byte	0
 2173 0820 03       		.uleb128 0x3
 2174 0821 F4020000 		.4byte	.LASF122
 2175 0825 0E       		.byte	0xe
 2176 0826 3E       		.byte	0x3e
 2177 0827 DE070000 		.4byte	0x7de
 2178 082b 1A       		.uleb128 0x1a
 2179 082c 01       		.byte	0x1
 2180 082d 0E       		.byte	0xe
 2181 082e 41       		.byte	0x41
 2182 082f 4C080000 		.4byte	0x84c
 2183 0833 1B       		.uleb128 0x1b
 2184 0834 470C0000 		.4byte	.LASF123
 2185 0838 00       		.sleb128 0
 2186 0839 1B       		.uleb128 0x1b
 2187 083a B20B0000 		.4byte	.LASF124
 2188 083e 01       		.sleb128 1
 2189 083f 1B       		.uleb128 0x1b
 2190 0840 920C0000 		.4byte	.LASF125
 2191 0844 02       		.sleb128 2
 2192 0845 1B       		.uleb128 0x1b
 2193 0846 44010000 		.4byte	.LASF126
 2194 084a 04       		.sleb128 4
 2195 084b 00       		.byte	0
 2196 084c 03       		.uleb128 0x3
 2197 084d 3A050000 		.4byte	.LASF127
 2198 0851 0E       		.byte	0xe
 2199 0852 46       		.byte	0x46
 2200 0853 2B080000 		.4byte	0x82b
 2201 0857 1A       		.uleb128 0x1a
 2202 0858 01       		.byte	0x1
 2203 0859 0E       		.byte	0xe
 2204 085a 50       		.byte	0x50
 2205 085b 72080000 		.4byte	0x872
 2206 085f 1B       		.uleb128 0x1b
 2207 0860 E8020000 		.4byte	.LASF128
ARM GAS  C:\Users\jo\AppData\Local\Temp\ccRedE1P.s 			page 41


 2208 0864 00       		.sleb128 0
 2209 0865 1B       		.uleb128 0x1b
 2210 0866 2D0C0000 		.4byte	.LASF129
 2211 086a 01       		.sleb128 1
 2212 086b 1B       		.uleb128 0x1b
 2213 086c 6C0A0000 		.4byte	.LASF130
 2214 0870 02       		.sleb128 2
 2215 0871 00       		.byte	0
 2216 0872 03       		.uleb128 0x3
 2217 0873 A60A0000 		.4byte	.LASF131
 2218 0877 0E       		.byte	0xe
 2219 0878 54       		.byte	0x54
 2220 0879 57080000 		.4byte	0x857
 2221 087d 06       		.uleb128 0x6
 2222 087e 04       		.byte	0x4
 2223 087f B2070000 		.4byte	0x7b2
 2224 0883 06       		.uleb128 0x6
 2225 0884 04       		.byte	0x4
 2226 0885 C8070000 		.4byte	0x7c8
 2227 0889 1A       		.uleb128 0x1a
 2228 088a 01       		.byte	0x1
 2229 088b 0F       		.byte	0xf
 2230 088c 71       		.byte	0x71
 2231 088d C2080000 		.4byte	0x8c2
 2232 0891 1B       		.uleb128 0x1b
 2233 0892 BB040000 		.4byte	.LASF132
 2234 0896 00       		.sleb128 0
 2235 0897 1B       		.uleb128 0x1b
 2236 0898 58040000 		.4byte	.LASF133
 2237 089c 01       		.sleb128 1
 2238 089d 1B       		.uleb128 0x1b
 2239 089e FC050000 		.4byte	.LASF134
 2240 08a2 02       		.sleb128 2
 2241 08a3 1B       		.uleb128 0x1b
 2242 08a4 EB0A0000 		.4byte	.LASF135
 2243 08a8 03       		.sleb128 3
 2244 08a9 1B       		.uleb128 0x1b
 2245 08aa 16040000 		.4byte	.LASF136
 2246 08ae 04       		.sleb128 4
 2247 08af 1B       		.uleb128 0x1b
 2248 08b0 1B000000 		.4byte	.LASF137
 2249 08b4 05       		.sleb128 5
 2250 08b5 1B       		.uleb128 0x1b
 2251 08b6 67050000 		.4byte	.LASF138
 2252 08ba 06       		.sleb128 6
 2253 08bb 1B       		.uleb128 0x1b
 2254 08bc C9050000 		.4byte	.LASF139
 2255 08c0 07       		.sleb128 7
 2256 08c1 00       		.byte	0
 2257 08c2 03       		.uleb128 0x3
 2258 08c3 BC020000 		.4byte	.LASF140
 2259 08c7 0F       		.byte	0xf
 2260 08c8 7A       		.byte	0x7a
 2261 08c9 89080000 		.4byte	0x889
 2262 08cd 1A       		.uleb128 0x1a
 2263 08ce 01       		.byte	0x1
 2264 08cf 10       		.byte	0x10
ARM GAS  C:\Users\jo\AppData\Local\Temp\ccRedE1P.s 			page 42


 2265 08d0 5C       		.byte	0x5c
 2266 08d1 E8080000 		.4byte	0x8e8
 2267 08d5 1B       		.uleb128 0x1b
 2268 08d6 AE040000 		.4byte	.LASF141
 2269 08da 00       		.sleb128 0
 2270 08db 1B       		.uleb128 0x1b
 2271 08dc 26090000 		.4byte	.LASF142
 2272 08e0 01       		.sleb128 1
 2273 08e1 1B       		.uleb128 0x1b
 2274 08e2 0E020000 		.4byte	.LASF143
 2275 08e6 02       		.sleb128 2
 2276 08e7 00       		.byte	0
 2277 08e8 03       		.uleb128 0x3
 2278 08e9 6A0C0000 		.4byte	.LASF144
 2279 08ed 10       		.byte	0x10
 2280 08ee 60       		.byte	0x60
 2281 08ef CD080000 		.4byte	0x8cd
 2282 08f3 06       		.uleb128 0x6
 2283 08f4 04       		.byte	0x4
 2284 08f5 7D080000 		.4byte	0x87d
 2285 08f9 06       		.uleb128 0x6
 2286 08fa 04       		.byte	0x4
 2287 08fb FF080000 		.4byte	0x8ff
 2288 08ff 07       		.uleb128 0x7
 2289 0900 B2070000 		.4byte	0x7b2
 2290 0904 1A       		.uleb128 0x1a
 2291 0905 01       		.byte	0x1
 2292 0906 01       		.byte	0x1
 2293 0907 3A       		.byte	0x3a
 2294 0908 25090000 		.4byte	0x925
 2295 090c 1B       		.uleb128 0x1b
 2296 090d FC000000 		.4byte	.LASF145
 2297 0911 00       		.sleb128 0
 2298 0912 1B       		.uleb128 0x1b
 2299 0913 A20B0000 		.4byte	.LASF146
 2300 0917 01       		.sleb128 1
 2301 0918 1B       		.uleb128 0x1b
 2302 0919 11050000 		.4byte	.LASF147
 2303 091d 02       		.sleb128 2
 2304 091e 1B       		.uleb128 0x1b
 2305 091f 8C040000 		.4byte	.LASF148
 2306 0923 03       		.sleb128 3
 2307 0924 00       		.byte	0
 2308 0925 03       		.uleb128 0x3
 2309 0926 EF0B0000 		.4byte	.LASF149
 2310 092a 01       		.byte	0x1
 2311 092b 3F       		.byte	0x3f
 2312 092c 04090000 		.4byte	0x904
 2313 0930 1A       		.uleb128 0x1a
 2314 0931 01       		.byte	0x1
 2315 0932 01       		.byte	0x1
 2316 0933 42       		.byte	0x42
 2317 0934 4B090000 		.4byte	0x94b
 2318 0938 1B       		.uleb128 0x1b
 2319 0939 010C0000 		.4byte	.LASF150
 2320 093d 00       		.sleb128 0
 2321 093e 1B       		.uleb128 0x1b
ARM GAS  C:\Users\jo\AppData\Local\Temp\ccRedE1P.s 			page 43


 2322 093f 70060000 		.4byte	.LASF151
 2323 0943 01       		.sleb128 1
 2324 0944 1B       		.uleb128 0x1b
 2325 0945 1F060000 		.4byte	.LASF152
 2326 0949 02       		.sleb128 2
 2327 094a 00       		.byte	0
 2328 094b 03       		.uleb128 0x3
 2329 094c 730B0000 		.4byte	.LASF153
 2330 0950 01       		.byte	0x1
 2331 0951 46       		.byte	0x46
 2332 0952 30090000 		.4byte	0x930
 2333 0956 1C       		.uleb128 0x1c
 2334 0957 AB010000 		.4byte	.LASF161
 2335 095b 01       		.byte	0x1
 2336 095c 5A       		.byte	0x5a
 2337 095d C2080000 		.4byte	0x8c2
 2338 0961 00000000 		.4byte	.LFB256
 2339 0965 54000000 		.4byte	.LFE256-.LFB256
 2340 0969 01       		.uleb128 0x1
 2341 096a 9C       		.byte	0x9c
 2342 096b 040A0000 		.4byte	0xa04
 2343 096f 1D       		.uleb128 0x1d
 2344 0970 5E010000 		.4byte	.LASF154
 2345 0974 01       		.byte	0x1
 2346 0975 5A       		.byte	0x5a
 2347 0976 B2070000 		.4byte	0x7b2
 2348 097a 00000000 		.4byte	.LLST0
 2349 097e 1D       		.uleb128 0x1d
 2350 097f DB040000 		.4byte	.LASF155
 2351 0983 01       		.byte	0x1
 2352 0984 5A       		.byte	0x5a
 2353 0985 D3070000 		.4byte	0x7d3
 2354 0989 21000000 		.4byte	.LLST1
 2355 098d 1D       		.uleb128 0x1d
 2356 098e 2B0B0000 		.4byte	.LASF156
 2357 0992 01       		.byte	0x1
 2358 0993 5A       		.byte	0x5a
 2359 0994 72080000 		.4byte	0x872
 2360 0998 71000000 		.4byte	.LLST2
 2361 099c 1E       		.uleb128 0x1e
 2362 099d EA030000 		.4byte	.LASF157
 2363 09a1 01       		.byte	0x1
 2364 09a2 5C       		.byte	0x5c
 2365 09a3 C2080000 		.4byte	0x8c2
 2366 09a7 92000000 		.4byte	.LLST3
 2367 09ab 1E       		.uleb128 0x1e
 2368 09ac 3F090000 		.4byte	.LASF158
 2369 09b0 01       		.byte	0x1
 2370 09b1 5D       		.byte	0x5d
 2371 09b2 D3070000 		.4byte	0x7d3
 2372 09b6 D4000000 		.4byte	.LLST4
 2373 09ba 1F       		.uleb128 0x1f
 2374 09bb 0C000000 		.4byte	.LVL1
 2375 09bf 1D100000 		.4byte	0x101d
 2376 09c3 20       		.uleb128 0x20
 2377 09c4 18000000 		.4byte	.LVL2
 2378 09c8 24100000 		.4byte	0x1024
ARM GAS  C:\Users\jo\AppData\Local\Temp\ccRedE1P.s 			page 44


 2379 09cc E8090000 		.4byte	0x9e8
 2380 09d0 21       		.uleb128 0x21
 2381 09d1 01       		.uleb128 0x1
 2382 09d2 53       		.byte	0x53
 2383 09d3 02       		.uleb128 0x2
 2384 09d4 75       		.byte	0x75
 2385 09d5 00       		.sleb128 0
 2386 09d6 21       		.uleb128 0x21
 2387 09d7 01       		.uleb128 0x1
 2388 09d8 52       		.byte	0x52
 2389 09d9 01       		.uleb128 0x1
 2390 09da 38       		.byte	0x38
 2391 09db 21       		.uleb128 0x21
 2392 09dc 01       		.uleb128 0x1
 2393 09dd 51       		.byte	0x51
 2394 09de 02       		.uleb128 0x2
 2395 09df 74       		.byte	0x74
 2396 09e0 00       		.sleb128 0
 2397 09e1 21       		.uleb128 0x21
 2398 09e2 01       		.uleb128 0x1
 2399 09e3 50       		.byte	0x50
 2400 09e4 02       		.uleb128 0x2
 2401 09e5 76       		.byte	0x76
 2402 09e6 00       		.sleb128 0
 2403 09e7 00       		.byte	0
 2404 09e8 1F       		.uleb128 0x1f
 2405 09e9 22000000 		.4byte	.LVL4
 2406 09ed 48100000 		.4byte	0x1048
 2407 09f1 1F       		.uleb128 0x1f
 2408 09f2 3A000000 		.4byte	.LVL10
 2409 09f6 4F100000 		.4byte	0x104f
 2410 09fa 1F       		.uleb128 0x1f
 2411 09fb 46000000 		.4byte	.LVL12
 2412 09ff 48100000 		.4byte	0x1048
 2413 0a03 00       		.byte	0
 2414 0a04 22       		.uleb128 0x22
 2415 0a05 DD0B0000 		.4byte	.LASF159
 2416 0a09 01       		.byte	0x1
 2417 0a0a 86       		.byte	0x86
 2418 0a0b 00000000 		.4byte	.LFB257
 2419 0a0f 24000000 		.4byte	.LFE257-.LFB257
 2420 0a13 01       		.uleb128 0x1
 2421 0a14 9C       		.byte	0x9c
 2422 0a15 4D0A0000 		.4byte	0xa4d
 2423 0a19 1F       		.uleb128 0x1f
 2424 0a1a 06000000 		.4byte	.LVL14
 2425 0a1e 1D100000 		.4byte	0x101d
 2426 0a22 20       		.uleb128 0x20
 2427 0a23 14000000 		.4byte	.LVL15
 2428 0a27 64100000 		.4byte	0x1064
 2429 0a2b 3A0A0000 		.4byte	0xa3a
 2430 0a2f 21       		.uleb128 0x21
 2431 0a30 01       		.uleb128 0x1
 2432 0a31 51       		.byte	0x51
 2433 0a32 01       		.uleb128 0x1
 2434 0a33 30       		.byte	0x30
 2435 0a34 21       		.uleb128 0x21
ARM GAS  C:\Users\jo\AppData\Local\Temp\ccRedE1P.s 			page 45


 2436 0a35 01       		.uleb128 0x1
 2437 0a36 50       		.byte	0x50
 2438 0a37 01       		.uleb128 0x1
 2439 0a38 31       		.byte	0x31
 2440 0a39 00       		.byte	0
 2441 0a3a 1F       		.uleb128 0x1f
 2442 0a3b 18000000 		.4byte	.LVL16
 2443 0a3f 7A100000 		.4byte	0x107a
 2444 0a43 23       		.uleb128 0x23
 2445 0a44 20000000 		.4byte	.LVL17
 2446 0a48 48100000 		.4byte	0x1048
 2447 0a4c 00       		.byte	0
 2448 0a4d 22       		.uleb128 0x22
 2449 0a4e 5A090000 		.4byte	.LASF160
 2450 0a52 01       		.byte	0x1
 2451 0a53 96       		.byte	0x96
 2452 0a54 00000000 		.4byte	.LFB258
 2453 0a58 1A000000 		.4byte	.LFE258-.LFB258
 2454 0a5c 01       		.uleb128 0x1
 2455 0a5d 9C       		.byte	0x9c
 2456 0a5e 960A0000 		.4byte	0xa96
 2457 0a62 1F       		.uleb128 0x1f
 2458 0a63 06000000 		.4byte	.LVL18
 2459 0a67 1D100000 		.4byte	0x101d
 2460 0a6b 20       		.uleb128 0x20
 2461 0a6c 0E000000 		.4byte	.LVL19
 2462 0a70 64100000 		.4byte	0x1064
 2463 0a74 830A0000 		.4byte	0xa83
 2464 0a78 21       		.uleb128 0x21
 2465 0a79 01       		.uleb128 0x1
 2466 0a7a 51       		.byte	0x51
 2467 0a7b 01       		.uleb128 0x1
 2468 0a7c 30       		.byte	0x30
 2469 0a7d 21       		.uleb128 0x21
 2470 0a7e 01       		.uleb128 0x1
 2471 0a7f 50       		.byte	0x50
 2472 0a80 01       		.uleb128 0x1
 2473 0a81 30       		.byte	0x30
 2474 0a82 00       		.byte	0
 2475 0a83 1F       		.uleb128 0x1f
 2476 0a84 12000000 		.4byte	.LVL20
 2477 0a88 81100000 		.4byte	0x1081
 2478 0a8c 23       		.uleb128 0x23
 2479 0a8d 1A000000 		.4byte	.LVL21
 2480 0a91 48100000 		.4byte	0x1048
 2481 0a95 00       		.byte	0
 2482 0a96 1C       		.uleb128 0x1c
 2483 0a97 07030000 		.4byte	.LASF162
 2484 0a9b 01       		.byte	0x1
 2485 0a9c 9F       		.byte	0x9f
 2486 0a9d C2080000 		.4byte	0x8c2
 2487 0aa1 00000000 		.4byte	.LFB259
 2488 0aa5 74000000 		.4byte	.LFE259-.LFB259
 2489 0aa9 01       		.uleb128 0x1
 2490 0aaa 9C       		.byte	0x9c
 2491 0aab 4C0B0000 		.4byte	0xb4c
 2492 0aaf 1D       		.uleb128 0x1d
ARM GAS  C:\Users\jo\AppData\Local\Temp\ccRedE1P.s 			page 46


 2493 0ab0 35000000 		.4byte	.LASF163
 2494 0ab4 01       		.byte	0x1
 2495 0ab5 9F       		.byte	0x9f
 2496 0ab6 7D080000 		.4byte	0x87d
 2497 0aba 1E010000 		.4byte	.LLST5
 2498 0abe 1D       		.uleb128 0x1d
 2499 0abf F9030000 		.4byte	.LASF164
 2500 0ac3 01       		.byte	0x1
 2501 0ac4 9F       		.byte	0x9f
 2502 0ac5 F3080000 		.4byte	0x8f3
 2503 0ac9 3C010000 		.4byte	.LLST6
 2504 0acd 1D       		.uleb128 0x1d
 2505 0ace D30B0000 		.4byte	.LASF165
 2506 0ad2 01       		.byte	0x1
 2507 0ad3 9F       		.byte	0x9f
 2508 0ad4 83080000 		.4byte	0x883
 2509 0ad8 5A010000 		.4byte	.LLST7
 2510 0adc 1E       		.uleb128 0x1e
 2511 0add EA030000 		.4byte	.LASF157
 2512 0ae1 01       		.byte	0x1
 2513 0ae2 A1       		.byte	0xa1
 2514 0ae3 C2080000 		.4byte	0x8c2
 2515 0ae7 78010000 		.4byte	.LLST8
 2516 0aeb 24       		.uleb128 0x24
 2517 0aec 2E040000 		.4byte	.LASF173
 2518 0af0 5C0B0000 		.4byte	0xb5c
 2519 0af4 05       		.uleb128 0x5
 2520 0af5 03       		.byte	0x3
 2521 0af6 00000000 		.4byte	__FUNCTION__.9270
 2522 0afa 1F       		.uleb128 0x1f
 2523 0afb 10000000 		.4byte	.LVL23
 2524 0aff 1D100000 		.4byte	0x101d
 2525 0b03 1F       		.uleb128 0x1f
 2526 0b04 28000000 		.4byte	.LVL25
 2527 0b08 48100000 		.4byte	0x1048
 2528 0b0c 20       		.uleb128 0x20
 2529 0b0d 3C000000 		.4byte	.LVL27
 2530 0b11 88100000 		.4byte	0x1088
 2531 0b15 200B0000 		.4byte	0xb20
 2532 0b19 21       		.uleb128 0x21
 2533 0b1a 01       		.uleb128 0x1
 2534 0b1b 50       		.byte	0x50
 2535 0b1c 02       		.uleb128 0x2
 2536 0b1d 78       		.byte	0x78
 2537 0b1e 00       		.sleb128 0
 2538 0b1f 00       		.byte	0
 2539 0b20 25       		.uleb128 0x25
 2540 0b21 60000000 		.4byte	.LVL28
 2541 0b25 A2100000 		.4byte	0x10a2
 2542 0b29 21       		.uleb128 0x21
 2543 0b2a 01       		.uleb128 0x1
 2544 0b2b 53       		.byte	0x53
 2545 0b2c 05       		.uleb128 0x5
 2546 0b2d 03       		.byte	0x3
 2547 0b2e 20000000 		.4byte	.LC1
 2548 0b32 21       		.uleb128 0x21
 2549 0b33 01       		.uleb128 0x1
ARM GAS  C:\Users\jo\AppData\Local\Temp\ccRedE1P.s 			page 47


 2550 0b34 52       		.byte	0x52
 2551 0b35 05       		.uleb128 0x5
 2552 0b36 03       		.byte	0x3
 2553 0b37 00000000 		.4byte	.LANCHOR2
 2554 0b3b 21       		.uleb128 0x21
 2555 0b3c 01       		.uleb128 0x1
 2556 0b3d 51       		.byte	0x51
 2557 0b3e 02       		.uleb128 0x2
 2558 0b3f 08       		.byte	0x8
 2559 0b40 A4       		.byte	0xa4
 2560 0b41 21       		.uleb128 0x21
 2561 0b42 01       		.uleb128 0x1
 2562 0b43 50       		.byte	0x50
 2563 0b44 05       		.uleb128 0x5
 2564 0b45 03       		.byte	0x3
 2565 0b46 00000000 		.4byte	.LC0
 2566 0b4a 00       		.byte	0
 2567 0b4b 00       		.byte	0
 2568 0b4c 08       		.uleb128 0x8
 2569 0b4d B6000000 		.4byte	0xb6
 2570 0b51 5C0B0000 		.4byte	0xb5c
 2571 0b55 09       		.uleb128 0x9
 2572 0b56 AD000000 		.4byte	0xad
 2573 0b5a 13       		.byte	0x13
 2574 0b5b 00       		.byte	0
 2575 0b5c 07       		.uleb128 0x7
 2576 0b5d 4C0B0000 		.4byte	0xb4c
 2577 0b61 1C       		.uleb128 0x1c
 2578 0b62 95020000 		.4byte	.LASF166
 2579 0b66 01       		.byte	0x1
 2580 0b67 C1       		.byte	0xc1
 2581 0b68 C2080000 		.4byte	0x8c2
 2582 0b6c 00000000 		.4byte	.LFB260
 2583 0b70 9C000000 		.4byte	.LFE260-.LFB260
 2584 0b74 01       		.uleb128 0x1
 2585 0b75 9C       		.byte	0x9c
 2586 0b76 050C0000 		.4byte	0xc05
 2587 0b7a 1D       		.uleb128 0x1d
 2588 0b7b 25020000 		.4byte	.LASF167
 2589 0b7f 01       		.byte	0x1
 2590 0b80 C1       		.byte	0xc1
 2591 0b81 B2070000 		.4byte	0x7b2
 2592 0b85 A3010000 		.4byte	.LLST9
 2593 0b89 1D       		.uleb128 0x1d
 2594 0b8a F9030000 		.4byte	.LASF164
 2595 0b8e 01       		.byte	0x1
 2596 0b8f C1       		.byte	0xc1
 2597 0b90 F9080000 		.4byte	0x8f9
 2598 0b94 DD010000 		.4byte	.LLST10
 2599 0b98 1D       		.uleb128 0x1d
 2600 0b99 84070000 		.4byte	.LASF168
 2601 0b9d 01       		.byte	0x1
 2602 0b9e C1       		.byte	0xc1
 2603 0b9f C8070000 		.4byte	0x7c8
 2604 0ba3 FC010000 		.4byte	.LLST11
 2605 0ba7 1E       		.uleb128 0x1e
 2606 0ba8 EA030000 		.4byte	.LASF157
ARM GAS  C:\Users\jo\AppData\Local\Temp\ccRedE1P.s 			page 48


 2607 0bac 01       		.byte	0x1
 2608 0bad C3       		.byte	0xc3
 2609 0bae C2080000 		.4byte	0x8c2
 2610 0bb2 1D020000 		.4byte	.LLST12
 2611 0bb6 1E       		.uleb128 0x1e
 2612 0bb7 E7060000 		.4byte	.LASF169
 2613 0bbb 01       		.byte	0x1
 2614 0bbc C4       		.byte	0xc4
 2615 0bbd C8070000 		.4byte	0x7c8
 2616 0bc1 48020000 		.4byte	.LLST13
 2617 0bc5 1F       		.uleb128 0x1f
 2618 0bc6 16000000 		.4byte	.LVL32
 2619 0bca 1D100000 		.4byte	0x101d
 2620 0bce 1F       		.uleb128 0x1f
 2621 0bcf 2A000000 		.4byte	.LVL34
 2622 0bd3 48100000 		.4byte	0x1048
 2623 0bd7 20       		.uleb128 0x20
 2624 0bd8 54000000 		.4byte	.LVL36
 2625 0bdc 88100000 		.4byte	0x1088
 2626 0be0 EE0B0000 		.4byte	0xbee
 2627 0be4 21       		.uleb128 0x21
 2628 0be5 01       		.uleb128 0x1
 2629 0be6 50       		.byte	0x50
 2630 0be7 05       		.uleb128 0x5
 2631 0be8 91       		.byte	0x91
 2632 0be9 60       		.sleb128 -32
 2633 0bea 06       		.byte	0x6
 2634 0beb 31       		.byte	0x31
 2635 0bec 1C       		.byte	0x1c
 2636 0bed 00       		.byte	0
 2637 0bee 25       		.uleb128 0x25
 2638 0bef 84000000 		.4byte	.LVL38
 2639 0bf3 64100000 		.4byte	0x1064
 2640 0bf7 21       		.uleb128 0x21
 2641 0bf8 01       		.uleb128 0x1
 2642 0bf9 51       		.byte	0x51
 2643 0bfa 02       		.uleb128 0x2
 2644 0bfb 75       		.byte	0x75
 2645 0bfc 00       		.sleb128 0
 2646 0bfd 21       		.uleb128 0x21
 2647 0bfe 01       		.uleb128 0x1
 2648 0bff 50       		.byte	0x50
 2649 0c00 02       		.uleb128 0x2
 2650 0c01 74       		.byte	0x74
 2651 0c02 00       		.sleb128 0
 2652 0c03 00       		.byte	0
 2653 0c04 00       		.byte	0
 2654 0c05 1C       		.uleb128 0x1c
 2655 0c06 850B0000 		.4byte	.LASF170
 2656 0c0a 01       		.byte	0x1
 2657 0c0b EA       		.byte	0xea
 2658 0c0c A7070000 		.4byte	0x7a7
 2659 0c10 00000000 		.4byte	.LFB261
 2660 0c14 A8000000 		.4byte	.LFE261-.LFB261
 2661 0c18 01       		.uleb128 0x1
 2662 0c19 9C       		.byte	0x9c
 2663 0c1a A20C0000 		.4byte	0xca2
ARM GAS  C:\Users\jo\AppData\Local\Temp\ccRedE1P.s 			page 49


 2664 0c1e 26       		.uleb128 0x26
 2665 0c1f 72020000 		.4byte	.LASF171
 2666 0c23 01       		.byte	0x1
 2667 0c24 EC       		.byte	0xec
 2668 0c25 A7070000 		.4byte	0x7a7
 2669 0c29 00       		.byte	0
 2670 0c2a 27       		.uleb128 0x27
 2671 0c2b C9000000 		.4byte	.LASF172
 2672 0c2f 01       		.byte	0x1
 2673 0c30 ED       		.byte	0xed
 2674 0c31 B2070000 		.4byte	0x7b2
 2675 0c35 02       		.uleb128 0x2
 2676 0c36 91       		.byte	0x91
 2677 0c37 67       		.sleb128 -25
 2678 0c38 24       		.uleb128 0x24
 2679 0c39 2E040000 		.4byte	.LASF173
 2680 0c3d B20C0000 		.4byte	0xcb2
 2681 0c41 05       		.uleb128 0x5
 2682 0c42 03       		.byte	0x3
 2683 0c43 00000000 		.4byte	__FUNCTION__.9283
 2684 0c47 20       		.uleb128 0x20
 2685 0c48 1A000000 		.4byte	.LVL40
 2686 0c4c C2100000 		.4byte	0x10c2
 2687 0c50 5B0C0000 		.4byte	0xc5b
 2688 0c54 21       		.uleb128 0x21
 2689 0c55 01       		.uleb128 0x1
 2690 0c56 50       		.byte	0x50
 2691 0c57 02       		.uleb128 0x2
 2692 0c58 91       		.byte	0x91
 2693 0c59 67       		.sleb128 -25
 2694 0c5a 00       		.byte	0
 2695 0c5b 1F       		.uleb128 0x1f
 2696 0c5c 48000000 		.4byte	.LVL41
 2697 0c60 7A100000 		.4byte	0x107a
 2698 0c64 1F       		.uleb128 0x1f
 2699 0c65 52000000 		.4byte	.LVL42
 2700 0c69 81100000 		.4byte	0x1081
 2701 0c6d 1F       		.uleb128 0x1f
 2702 0c6e 74000000 		.4byte	.LVL43
 2703 0c72 7A100000 		.4byte	0x107a
 2704 0c76 25       		.uleb128 0x25
 2705 0c77 8C000000 		.4byte	.LVL44
 2706 0c7b A2100000 		.4byte	0x10a2
 2707 0c7f 21       		.uleb128 0x21
 2708 0c80 01       		.uleb128 0x1
 2709 0c81 53       		.byte	0x53
 2710 0c82 05       		.uleb128 0x5
 2711 0c83 03       		.byte	0x3
 2712 0c84 4C000000 		.4byte	.LC2
 2713 0c88 21       		.uleb128 0x21
 2714 0c89 01       		.uleb128 0x1
 2715 0c8a 52       		.byte	0x52
 2716 0c8b 05       		.uleb128 0x5
 2717 0c8c 03       		.byte	0x3
 2718 0c8d 00000000 		.4byte	.LANCHOR8
 2719 0c91 21       		.uleb128 0x21
 2720 0c92 01       		.uleb128 0x1
ARM GAS  C:\Users\jo\AppData\Local\Temp\ccRedE1P.s 			page 50


 2721 0c93 51       		.byte	0x51
 2722 0c94 02       		.uleb128 0x2
 2723 0c95 08       		.byte	0x8
 2724 0c96 EF       		.byte	0xef
 2725 0c97 21       		.uleb128 0x21
 2726 0c98 01       		.uleb128 0x1
 2727 0c99 50       		.byte	0x50
 2728 0c9a 05       		.uleb128 0x5
 2729 0c9b 03       		.byte	0x3
 2730 0c9c 00000000 		.4byte	.LC0
 2731 0ca0 00       		.byte	0
 2732 0ca1 00       		.byte	0
 2733 0ca2 08       		.uleb128 0x8
 2734 0ca3 B6000000 		.4byte	0xb6
 2735 0ca7 B20C0000 		.4byte	0xcb2
 2736 0cab 09       		.uleb128 0x9
 2737 0cac AD000000 		.4byte	0xad
 2738 0cb0 16       		.byte	0x16
 2739 0cb1 00       		.byte	0
 2740 0cb2 07       		.uleb128 0x7
 2741 0cb3 A20C0000 		.4byte	0xca2
 2742 0cb7 28       		.uleb128 0x28
 2743 0cb8 2C010000 		.4byte	.LASF174
 2744 0cbc 01       		.byte	0x1
 2745 0cbd 2F01     		.2byte	0x12f
 2746 0cbf A7070000 		.4byte	0x7a7
 2747 0cc3 00000000 		.4byte	.LFB262
 2748 0cc7 A8000000 		.4byte	.LFE262-.LFB262
 2749 0ccb 01       		.uleb128 0x1
 2750 0ccc 9C       		.byte	0x9c
 2751 0ccd 470D0000 		.4byte	0xd47
 2752 0cd1 29       		.uleb128 0x29
 2753 0cd2 D1040000 		.4byte	.LASF175
 2754 0cd6 01       		.byte	0x1
 2755 0cd7 3101     		.2byte	0x131
 2756 0cd9 A7070000 		.4byte	0x7a7
 2757 0cdd 00       		.byte	0
 2758 0cde 24       		.uleb128 0x24
 2759 0cdf 2E040000 		.4byte	.LASF173
 2760 0ce3 470D0000 		.4byte	0xd47
 2761 0ce7 05       		.uleb128 0x5
 2762 0ce8 03       		.byte	0x3
 2763 0ce9 00000000 		.4byte	__FUNCTION__.9293
 2764 0ced 1F       		.uleb128 0x1f
 2765 0cee 38000000 		.4byte	.LVL46
 2766 0cf2 64100000 		.4byte	0x1064
 2767 0cf6 1F       		.uleb128 0x1f
 2768 0cf7 46000000 		.4byte	.LVL47
 2769 0cfb DD100000 		.4byte	0x10dd
 2770 0cff 1F       		.uleb128 0x1f
 2771 0d00 4E000000 		.4byte	.LVL48
 2772 0d04 64100000 		.4byte	0x1064
 2773 0d08 1F       		.uleb128 0x1f
 2774 0d09 5C000000 		.4byte	.LVL49
 2775 0d0d E4100000 		.4byte	0x10e4
 2776 0d11 1F       		.uleb128 0x1f
 2777 0d12 72000000 		.4byte	.LVL50
ARM GAS  C:\Users\jo\AppData\Local\Temp\ccRedE1P.s 			page 51


 2778 0d16 F9100000 		.4byte	0x10f9
 2779 0d1a 25       		.uleb128 0x25
 2780 0d1b 82000000 		.4byte	.LVL51
 2781 0d1f A2100000 		.4byte	0x10a2
 2782 0d23 21       		.uleb128 0x21
 2783 0d24 01       		.uleb128 0x1
 2784 0d25 53       		.byte	0x53
 2785 0d26 05       		.uleb128 0x5
 2786 0d27 03       		.byte	0x3
 2787 0d28 94000000 		.4byte	.LC3
 2788 0d2c 21       		.uleb128 0x21
 2789 0d2d 01       		.uleb128 0x1
 2790 0d2e 52       		.byte	0x52
 2791 0d2f 05       		.uleb128 0x5
 2792 0d30 03       		.byte	0x3
 2793 0d31 00000000 		.4byte	.LANCHOR9
 2794 0d35 21       		.uleb128 0x21
 2795 0d36 01       		.uleb128 0x1
 2796 0d37 51       		.byte	0x51
 2797 0d38 03       		.uleb128 0x3
 2798 0d39 0A       		.byte	0xa
 2799 0d3a 3301     		.2byte	0x133
 2800 0d3c 21       		.uleb128 0x21
 2801 0d3d 01       		.uleb128 0x1
 2802 0d3e 50       		.byte	0x50
 2803 0d3f 05       		.uleb128 0x5
 2804 0d40 03       		.byte	0x3
 2805 0d41 00000000 		.4byte	.LC0
 2806 0d45 00       		.byte	0
 2807 0d46 00       		.byte	0
 2808 0d47 07       		.uleb128 0x7
 2809 0d48 C8000000 		.4byte	0xc8
 2810 0d4c 28       		.uleb128 0x28
 2811 0d4d B0050000 		.4byte	.LASF176
 2812 0d51 01       		.byte	0x1
 2813 0d52 6001     		.2byte	0x160
 2814 0d54 A7070000 		.4byte	0x7a7
 2815 0d58 00000000 		.4byte	.LFB263
 2816 0d5c DC000000 		.4byte	.LFE263-.LFB263
 2817 0d60 01       		.uleb128 0x1
 2818 0d61 9C       		.byte	0x9c
 2819 0d62 490E0000 		.4byte	0xe49
 2820 0d66 2A       		.uleb128 0x2a
 2821 0d67 D1040000 		.4byte	.LASF175
 2822 0d6b 01       		.byte	0x1
 2823 0d6c 6201     		.2byte	0x162
 2824 0d6e A7070000 		.4byte	0x7a7
 2825 0d72 5B020000 		.4byte	.LLST14
 2826 0d76 24       		.uleb128 0x24
 2827 0d77 2E040000 		.4byte	.LASF173
 2828 0d7b 490E0000 		.4byte	0xe49
 2829 0d7f 05       		.uleb128 0x5
 2830 0d80 03       		.byte	0x3
 2831 0d81 00000000 		.4byte	__FUNCTION__.9306
 2832 0d85 20       		.uleb128 0x20
 2833 0d86 40000000 		.4byte	.LVL53
 2834 0d8a 00110000 		.4byte	0x1100
ARM GAS  C:\Users\jo\AppData\Local\Temp\ccRedE1P.s 			page 52


 2835 0d8e 980D0000 		.4byte	0xd98
 2836 0d92 21       		.uleb128 0x21
 2837 0d93 01       		.uleb128 0x1
 2838 0d94 50       		.byte	0x50
 2839 0d95 01       		.uleb128 0x1
 2840 0d96 32       		.byte	0x32
 2841 0d97 00       		.byte	0
 2842 0d98 1F       		.uleb128 0x1f
 2843 0d99 46000000 		.4byte	.LVL54
 2844 0d9d 12110000 		.4byte	0x1112
 2845 0da1 1F       		.uleb128 0x1f
 2846 0da2 62000000 		.4byte	.LVL56
 2847 0da6 81100000 		.4byte	0x1081
 2848 0daa 20       		.uleb128 0x20
 2849 0dab 88000000 		.4byte	.LVL58
 2850 0daf A2100000 		.4byte	0x10a2
 2851 0db3 DA0D0000 		.4byte	0xdda
 2852 0db7 21       		.uleb128 0x21
 2853 0db8 01       		.uleb128 0x1
 2854 0db9 53       		.byte	0x53
 2855 0dba 05       		.uleb128 0x5
 2856 0dbb 03       		.byte	0x3
 2857 0dbc 44010000 		.4byte	.LC5
 2858 0dc0 21       		.uleb128 0x21
 2859 0dc1 01       		.uleb128 0x1
 2860 0dc2 52       		.byte	0x52
 2861 0dc3 05       		.uleb128 0x5
 2862 0dc4 03       		.byte	0x3
 2863 0dc5 00000000 		.4byte	.LANCHOR11
 2864 0dc9 21       		.uleb128 0x21
 2865 0dca 01       		.uleb128 0x1
 2866 0dcb 51       		.byte	0x51
 2867 0dcc 03       		.uleb128 0x3
 2868 0dcd 0A       		.byte	0xa
 2869 0dce 8F01     		.2byte	0x18f
 2870 0dd0 21       		.uleb128 0x21
 2871 0dd1 01       		.uleb128 0x1
 2872 0dd2 50       		.byte	0x50
 2873 0dd3 05       		.uleb128 0x5
 2874 0dd4 03       		.byte	0x3
 2875 0dd5 00000000 		.4byte	.LC0
 2876 0dd9 00       		.byte	0
 2877 0dda 20       		.uleb128 0x20
 2878 0ddb 8E000000 		.4byte	.LVL59
 2879 0ddf 12110000 		.4byte	0x1112
 2880 0de3 ED0D0000 		.4byte	0xded
 2881 0de7 21       		.uleb128 0x21
 2882 0de8 01       		.uleb128 0x1
 2883 0de9 50       		.byte	0x50
 2884 0dea 01       		.uleb128 0x1
 2885 0deb 31       		.byte	0x31
 2886 0dec 00       		.byte	0
 2887 0ded 1F       		.uleb128 0x1f
 2888 0dee 96000000 		.4byte	.LVL61
 2889 0df2 00110000 		.4byte	0x1100
 2890 0df6 20       		.uleb128 0x20
 2891 0df7 9C000000 		.4byte	.LVL62
ARM GAS  C:\Users\jo\AppData\Local\Temp\ccRedE1P.s 			page 53


 2892 0dfb 12110000 		.4byte	0x1112
 2893 0dff 090E0000 		.4byte	0xe09
 2894 0e03 21       		.uleb128 0x21
 2895 0e04 01       		.uleb128 0x1
 2896 0e05 50       		.byte	0x50
 2897 0e06 01       		.uleb128 0x1
 2898 0e07 40       		.byte	0x40
 2899 0e08 00       		.byte	0
 2900 0e09 2B       		.uleb128 0x2b
 2901 0e0a AA000000 		.4byte	.LVL65
 2902 0e0e 12110000 		.4byte	0x1112
 2903 0e12 1C0E0000 		.4byte	0xe1c
 2904 0e16 21       		.uleb128 0x21
 2905 0e17 01       		.uleb128 0x1
 2906 0e18 50       		.byte	0x50
 2907 0e19 01       		.uleb128 0x1
 2908 0e1a 34       		.byte	0x34
 2909 0e1b 00       		.byte	0
 2910 0e1c 25       		.uleb128 0x25
 2911 0e1d B8000000 		.4byte	.LVL66
 2912 0e21 A2100000 		.4byte	0x10a2
 2913 0e25 21       		.uleb128 0x21
 2914 0e26 01       		.uleb128 0x1
 2915 0e27 53       		.byte	0x53
 2916 0e28 05       		.uleb128 0x5
 2917 0e29 03       		.byte	0x3
 2918 0e2a B4000000 		.4byte	.LC4
 2919 0e2e 21       		.uleb128 0x21
 2920 0e2f 01       		.uleb128 0x1
 2921 0e30 52       		.byte	0x52
 2922 0e31 05       		.uleb128 0x5
 2923 0e32 03       		.byte	0x3
 2924 0e33 00000000 		.4byte	.LANCHOR11
 2925 0e37 21       		.uleb128 0x21
 2926 0e38 01       		.uleb128 0x1
 2927 0e39 51       		.byte	0x51
 2928 0e3a 03       		.uleb128 0x3
 2929 0e3b 0A       		.byte	0xa
 2930 0e3c 7C01     		.2byte	0x17c
 2931 0e3e 21       		.uleb128 0x21
 2932 0e3f 01       		.uleb128 0x1
 2933 0e40 50       		.byte	0x50
 2934 0e41 05       		.uleb128 0x5
 2935 0e42 03       		.byte	0x3
 2936 0e43 00000000 		.4byte	.LC0
 2937 0e47 00       		.byte	0
 2938 0e48 00       		.byte	0
 2939 0e49 07       		.uleb128 0x7
 2940 0e4a D8000000 		.4byte	0xd8
 2941 0e4e 2C       		.uleb128 0x2c
 2942 0e4f A6020000 		.4byte	.LASF177
 2943 0e53 01       		.byte	0x1
 2944 0e54 9F01     		.2byte	0x19f
 2945 0e56 00000000 		.4byte	.LFB264
 2946 0e5a 0C000000 		.4byte	.LFE264-.LFB264
 2947 0e5e 01       		.uleb128 0x1
 2948 0e5f 9C       		.byte	0x9c
ARM GAS  C:\Users\jo\AppData\Local\Temp\ccRedE1P.s 			page 54


 2949 0e60 730E0000 		.4byte	0xe73
 2950 0e64 2D       		.uleb128 0x2d
 2951 0e65 F9030000 		.4byte	.LASF164
 2952 0e69 01       		.byte	0x1
 2953 0e6a 9F01     		.2byte	0x19f
 2954 0e6c F3080000 		.4byte	0x8f3
 2955 0e70 01       		.uleb128 0x1
 2956 0e71 50       		.byte	0x50
 2957 0e72 00       		.byte	0
 2958 0e73 2C       		.uleb128 0x2c
 2959 0e74 C3010000 		.4byte	.LASF178
 2960 0e78 01       		.byte	0x1
 2961 0e79 A601     		.2byte	0x1a6
 2962 0e7b 00000000 		.4byte	.LFB265
 2963 0e7f 0C000000 		.4byte	.LFE265-.LFB265
 2964 0e83 01       		.uleb128 0x1
 2965 0e84 9C       		.byte	0x9c
 2966 0e85 980E0000 		.4byte	0xe98
 2967 0e89 2D       		.uleb128 0x2d
 2968 0e8a F9030000 		.4byte	.LASF164
 2969 0e8e 01       		.byte	0x1
 2970 0e8f A601     		.2byte	0x1a6
 2971 0e91 F3080000 		.4byte	0x8f3
 2972 0e95 01       		.uleb128 0x1
 2973 0e96 50       		.byte	0x50
 2974 0e97 00       		.byte	0
 2975 0e98 2C       		.uleb128 0x2c
 2976 0e99 B4060000 		.4byte	.LASF179
 2977 0e9d 01       		.byte	0x1
 2978 0e9e AD01     		.2byte	0x1ad
 2979 0ea0 00000000 		.4byte	.LFB266
 2980 0ea4 0C000000 		.4byte	.LFE266-.LFB266
 2981 0ea8 01       		.uleb128 0x1
 2982 0ea9 9C       		.byte	0x9c
 2983 0eaa BD0E0000 		.4byte	0xebd
 2984 0eae 2D       		.uleb128 0x2d
 2985 0eaf 20040000 		.4byte	.LASF180
 2986 0eb3 01       		.byte	0x1
 2987 0eb4 AD01     		.2byte	0x1ad
 2988 0eb6 C8070000 		.4byte	0x7c8
 2989 0eba 01       		.uleb128 0x1
 2990 0ebb 50       		.byte	0x50
 2991 0ebc 00       		.byte	0
 2992 0ebd 2E       		.uleb128 0x2e
 2993 0ebe CD060000 		.4byte	.LASF183
 2994 0ec2 01       		.byte	0x1
 2995 0ec3 B401     		.2byte	0x1b4
 2996 0ec5 C8070000 		.4byte	0x7c8
 2997 0ec9 00000000 		.4byte	.LFB267
 2998 0ecd 0C000000 		.4byte	.LFE267-.LFB267
 2999 0ed1 01       		.uleb128 0x1
 3000 0ed2 9C       		.byte	0x9c
 3001 0ed3 2C       		.uleb128 0x2c
 3002 0ed4 81010000 		.4byte	.LASF181
 3003 0ed8 01       		.byte	0x1
 3004 0ed9 BB01     		.2byte	0x1bb
 3005 0edb 00000000 		.4byte	.LFB268
ARM GAS  C:\Users\jo\AppData\Local\Temp\ccRedE1P.s 			page 55


 3006 0edf 0C000000 		.4byte	.LFE268-.LFB268
 3007 0ee3 01       		.uleb128 0x1
 3008 0ee4 9C       		.byte	0x9c
 3009 0ee5 F80E0000 		.4byte	0xef8
 3010 0ee9 2D       		.uleb128 0x2d
 3011 0eea 34020000 		.4byte	.LASF182
 3012 0eee 01       		.byte	0x1
 3013 0eef BB01     		.2byte	0x1bb
 3014 0ef1 E8080000 		.4byte	0x8e8
 3015 0ef5 01       		.uleb128 0x1
 3016 0ef6 50       		.byte	0x50
 3017 0ef7 00       		.byte	0
 3018 0ef8 2E       		.uleb128 0x2e
 3019 0ef9 65010000 		.4byte	.LASF184
 3020 0efd 01       		.byte	0x1
 3021 0efe C201     		.2byte	0x1c2
 3022 0f00 A7070000 		.4byte	0x7a7
 3023 0f04 00000000 		.4byte	.LFB269
 3024 0f08 0C000000 		.4byte	.LFE269-.LFB269
 3025 0f0c 01       		.uleb128 0x1
 3026 0f0d 9C       		.byte	0x9c
 3027 0f0e 27       		.uleb128 0x27
 3028 0f0f BA0A0000 		.4byte	.LASF185
 3029 0f13 01       		.byte	0x1
 3030 0f14 49       		.byte	0x49
 3031 0f15 1F0F0000 		.4byte	0xf1f
 3032 0f19 05       		.uleb128 0x5
 3033 0f1a 03       		.byte	0x3
 3034 0f1b 00000000 		.4byte	eSndState
 3035 0f1f 0A       		.uleb128 0xa
 3036 0f20 4B090000 		.4byte	0x94b
 3037 0f24 27       		.uleb128 0x27
 3038 0f25 1A0B0000 		.4byte	.LASF186
 3039 0f29 01       		.byte	0x1
 3040 0f2a 4A       		.byte	0x4a
 3041 0f2b 350F0000 		.4byte	0xf35
 3042 0f2f 05       		.uleb128 0x5
 3043 0f30 03       		.byte	0x3
 3044 0f31 00000000 		.4byte	eRcvState
 3045 0f35 0A       		.uleb128 0xa
 3046 0f36 25090000 		.4byte	0x925
 3047 0f3a 08       		.uleb128 0x8
 3048 0f3b B2070000 		.4byte	0x7b2
 3049 0f3f 4A0F0000 		.4byte	0xf4a
 3050 0f43 09       		.uleb128 0x9
 3051 0f44 AD000000 		.4byte	0xad
 3052 0f48 FC       		.byte	0xfc
 3053 0f49 00       		.byte	0
 3054 0f4a 27       		.uleb128 0x27
 3055 0f4b 5A020000 		.4byte	.LASF187
 3056 0f4f 01       		.byte	0x1
 3057 0f50 4C       		.byte	0x4c
 3058 0f51 5B0F0000 		.4byte	0xf5b
 3059 0f55 05       		.uleb128 0x5
 3060 0f56 03       		.byte	0x3
 3061 0f57 00000000 		.4byte	ucMasterRTUSndBuf
 3062 0f5b 0A       		.uleb128 0xa
ARM GAS  C:\Users\jo\AppData\Local\Temp\ccRedE1P.s 			page 56


 3063 0f5c 3A0F0000 		.4byte	0xf3a
 3064 0f60 08       		.uleb128 0x8
 3065 0f61 B2070000 		.4byte	0x7b2
 3066 0f65 700F0000 		.4byte	0xf70
 3067 0f69 09       		.uleb128 0x9
 3068 0f6a AD000000 		.4byte	0xad
 3069 0f6e FF       		.byte	0xff
 3070 0f6f 00       		.byte	0
 3071 0f70 27       		.uleb128 0x27
 3072 0f71 4A0B0000 		.4byte	.LASF188
 3073 0f75 01       		.byte	0x1
 3074 0f76 4D       		.byte	0x4d
 3075 0f77 810F0000 		.4byte	0xf81
 3076 0f7b 05       		.uleb128 0x5
 3077 0f7c 03       		.byte	0x3
 3078 0f7d 00000000 		.4byte	ucMasterRTURcvBuf
 3079 0f81 0A       		.uleb128 0xa
 3080 0f82 600F0000 		.4byte	0xf60
 3081 0f86 27       		.uleb128 0x27
 3082 0f87 54060000 		.4byte	.LASF189
 3083 0f8b 01       		.byte	0x1
 3084 0f8c 4E       		.byte	0x4e
 3085 0f8d 970F0000 		.4byte	0xf97
 3086 0f91 05       		.uleb128 0x5
 3087 0f92 03       		.byte	0x3
 3088 0f93 00000000 		.4byte	usMasterSendPDULength
 3089 0f97 0A       		.uleb128 0xa
 3090 0f98 C8070000 		.4byte	0x7c8
 3091 0f9c 27       		.uleb128 0x27
 3092 0f9d 56000000 		.4byte	.LASF190
 3093 0fa1 01       		.byte	0x1
 3094 0fa2 50       		.byte	0x50
 3095 0fa3 AD0F0000 		.4byte	0xfad
 3096 0fa7 05       		.uleb128 0x5
 3097 0fa8 03       		.byte	0x3
 3098 0fa9 00000000 		.4byte	pucMasterSndBufferCur
 3099 0fad 06       		.uleb128 0x6
 3100 0fae 04       		.byte	0x4
 3101 0faf B30F0000 		.4byte	0xfb3
 3102 0fb3 0A       		.uleb128 0xa
 3103 0fb4 B2070000 		.4byte	0x7b2
 3104 0fb8 27       		.uleb128 0x27
 3105 0fb9 80060000 		.4byte	.LASF191
 3106 0fbd 01       		.byte	0x1
 3107 0fbe 51       		.byte	0x51
 3108 0fbf 970F0000 		.4byte	0xf97
 3109 0fc3 05       		.uleb128 0x5
 3110 0fc4 03       		.byte	0x3
 3111 0fc5 00000000 		.4byte	usMasterSndBufferCount
 3112 0fc9 27       		.uleb128 0x27
 3113 0fca CD030000 		.4byte	.LASF192
 3114 0fce 01       		.byte	0x1
 3115 0fcf 53       		.byte	0x53
 3116 0fd0 970F0000 		.4byte	0xf97
 3117 0fd4 05       		.uleb128 0x5
 3118 0fd5 03       		.byte	0x3
 3119 0fd6 00000000 		.4byte	usMasterRcvBufferPos
ARM GAS  C:\Users\jo\AppData\Local\Temp\ccRedE1P.s 			page 57


 3120 0fda 27       		.uleb128 0x27
 3121 0fdb 06060000 		.4byte	.LASF193
 3122 0fdf 01       		.byte	0x1
 3123 0fe0 54       		.byte	0x54
 3124 0fe1 EB0F0000 		.4byte	0xfeb
 3125 0fe5 05       		.uleb128 0x5
 3126 0fe6 03       		.byte	0x3
 3127 0fe7 00000000 		.4byte	xFrameIsBroadcast
 3128 0feb 0A       		.uleb128 0xa
 3129 0fec A7070000 		.4byte	0x7a7
 3130 0ff0 27       		.uleb128 0x27
 3131 0ff1 B5000000 		.4byte	.LASF194
 3132 0ff5 01       		.byte	0x1
 3133 0ff6 56       		.byte	0x56
 3134 0ff7 01100000 		.4byte	0x1001
 3135 0ffb 05       		.uleb128 0x5
 3136 0ffc 03       		.byte	0x3
 3137 0ffd 00000000 		.4byte	eMasterCurTimerMode
 3138 1001 0A       		.uleb128 0xa
 3139 1002 E8080000 		.4byte	0x8e8
 3140 1006 2F       		.uleb128 0x2f
 3141 1007 8D070000 		.4byte	.LASF195
 3142 100b 13       		.byte	0x13
 3143 100c A706     		.2byte	0x6a7
 3144 100e 1F010000 		.4byte	0x11f
 3145 1012 30       		.uleb128 0x30
 3146 1013 636800   		.ascii	"ch\000"
 3147 1016 07       		.byte	0x7
 3148 1017 EB01     		.2byte	0x1eb
 3149 1019 1D040000 		.4byte	0x41d
 3150 101d 31       		.uleb128 0x31
 3151 101e 35070000 		.4byte	.LASF196
 3152 1022 0D       		.byte	0xd
 3153 1023 3E       		.byte	0x3e
 3154 1024 32       		.uleb128 0x32
 3155 1025 4B0A0000 		.4byte	.LASF198
 3156 1029 0E       		.byte	0xe
 3157 102a 7A       		.byte	0x7a
 3158 102b A7070000 		.4byte	0x7a7
 3159 102f 48100000 		.4byte	0x1048
 3160 1033 11       		.uleb128 0x11
 3161 1034 B2070000 		.4byte	0x7b2
 3162 1038 11       		.uleb128 0x11
 3163 1039 D3070000 		.4byte	0x7d3
 3164 103d 11       		.uleb128 0x11
 3165 103e B2070000 		.4byte	0x7b2
 3166 1042 11       		.uleb128 0x11
 3167 1043 72080000 		.4byte	0x872
 3168 1047 00       		.byte	0
 3169 1048 31       		.uleb128 0x31
 3170 1049 B6070000 		.4byte	.LASF197
 3171 104d 0D       		.byte	0xd
 3172 104e 3F       		.byte	0x3f
 3173 104f 32       		.uleb128 0x32
 3174 1050 CB0A0000 		.4byte	.LASF199
 3175 1054 0E       		.byte	0xe
 3176 1055 90       		.byte	0x90
ARM GAS  C:\Users\jo\AppData\Local\Temp\ccRedE1P.s 			page 58


 3177 1056 A7070000 		.4byte	0x7a7
 3178 105a 64100000 		.4byte	0x1064
 3179 105e 11       		.uleb128 0x11
 3180 105f C8070000 		.4byte	0x7c8
 3181 1063 00       		.byte	0
 3182 1064 33       		.uleb128 0x33
 3183 1065 F7040000 		.4byte	.LASF203
 3184 1069 0E       		.byte	0xe
 3185 106a 81       		.byte	0x81
 3186 106b 7A100000 		.4byte	0x107a
 3187 106f 11       		.uleb128 0x11
 3188 1070 A7070000 		.4byte	0x7a7
 3189 1074 11       		.uleb128 0x11
 3190 1075 A7070000 		.4byte	0x7a7
 3191 1079 00       		.byte	0
 3192 107a 31       		.uleb128 0x31
 3193 107b 97060000 		.4byte	.LASF200
 3194 107f 0E       		.byte	0xe
 3195 1080 94       		.byte	0x94
 3196 1081 31       		.uleb128 0x31
 3197 1082 74050000 		.4byte	.LASF201
 3198 1086 0E       		.byte	0xe
 3199 1087 9A       		.byte	0x9a
 3200 1088 32       		.uleb128 0x32
 3201 1089 5D050000 		.4byte	.LASF202
 3202 108d 11       		.byte	0x11
 3203 108e 22       		.byte	0x22
 3204 108f C8070000 		.4byte	0x7c8
 3205 1093 A2100000 		.4byte	0x10a2
 3206 1097 11       		.uleb128 0x11
 3207 1098 7D080000 		.4byte	0x87d
 3208 109c 11       		.uleb128 0x11
 3209 109d C8070000 		.4byte	0x7c8
 3210 10a1 00       		.byte	0
 3211 10a2 33       		.uleb128 0x33
 3212 10a3 180C0000 		.4byte	.LASF204
 3213 10a7 12       		.byte	0x12
 3214 10a8 29       		.byte	0x29
 3215 10a9 C2100000 		.4byte	0x10c2
 3216 10ad 11       		.uleb128 0x11
 3217 10ae BD000000 		.4byte	0xbd
 3218 10b2 11       		.uleb128 0x11
 3219 10b3 37000000 		.4byte	0x37
 3220 10b7 11       		.uleb128 0x11
 3221 10b8 BD000000 		.4byte	0xbd
 3222 10bc 11       		.uleb128 0x11
 3223 10bd BD000000 		.4byte	0xbd
 3224 10c1 00       		.byte	0
 3225 10c2 32       		.uleb128 0x32
 3226 10c3 9C090000 		.4byte	.LASF205
 3227 10c7 0E       		.byte	0xe
 3228 10c8 83       		.byte	0x83
 3229 10c9 A7070000 		.4byte	0x7a7
 3230 10cd D7100000 		.4byte	0x10d7
 3231 10d1 11       		.uleb128 0x11
 3232 10d2 D7100000 		.4byte	0x10d7
 3233 10d6 00       		.byte	0
ARM GAS  C:\Users\jo\AppData\Local\Temp\ccRedE1P.s 			page 59


 3234 10d7 06       		.uleb128 0x6
 3235 10d8 04       		.byte	0x4
 3236 10d9 BD070000 		.4byte	0x7bd
 3237 10dd 31       		.uleb128 0x31
 3238 10de 8D000000 		.4byte	.LASF206
 3239 10e2 0E       		.byte	0xe
 3240 10e3 98       		.byte	0x98
 3241 10e4 32       		.uleb128 0x32
 3242 10e5 FF0A0000 		.4byte	.LASF207
 3243 10e9 0E       		.byte	0xe
 3244 10ea 85       		.byte	0x85
 3245 10eb A7070000 		.4byte	0x7a7
 3246 10ef F9100000 		.4byte	0x10f9
 3247 10f3 11       		.uleb128 0x11
 3248 10f4 BD070000 		.4byte	0x7bd
 3249 10f8 00       		.byte	0
 3250 10f9 31       		.uleb128 0x31
 3251 10fa 00090000 		.4byte	.LASF208
 3252 10fe 0E       		.byte	0xe
 3253 10ff 96       		.byte	0x96
 3254 1100 34       		.uleb128 0x34
 3255 1101 D2020000 		.4byte	.LASF209
 3256 1105 10       		.byte	0x10
 3257 1106 9601     		.2byte	0x196
 3258 1108 12110000 		.4byte	0x1112
 3259 110c 11       		.uleb128 0x11
 3260 110d 4C080000 		.4byte	0x84c
 3261 1111 00       		.byte	0
 3262 1112 35       		.uleb128 0x35
 3263 1113 330B0000 		.4byte	.LASF210
 3264 1117 0E       		.byte	0xe
 3265 1118 5F       		.byte	0x5f
 3266 1119 A7070000 		.4byte	0x7a7
 3267 111d 11       		.uleb128 0x11
 3268 111e 20080000 		.4byte	0x820
 3269 1122 00       		.byte	0
 3270 1123 00       		.byte	0
 3271              		.section	.debug_abbrev,"",%progbits
 3272              	.Ldebug_abbrev0:
 3273 0000 01       		.uleb128 0x1
 3274 0001 11       		.uleb128 0x11
 3275 0002 01       		.byte	0x1
 3276 0003 25       		.uleb128 0x25
 3277 0004 0E       		.uleb128 0xe
 3278 0005 13       		.uleb128 0x13
 3279 0006 0B       		.uleb128 0xb
 3280 0007 03       		.uleb128 0x3
 3281 0008 0E       		.uleb128 0xe
 3282 0009 1B       		.uleb128 0x1b
 3283 000a 0E       		.uleb128 0xe
 3284 000b 55       		.uleb128 0x55
 3285 000c 17       		.uleb128 0x17
 3286 000d 11       		.uleb128 0x11
 3287 000e 01       		.uleb128 0x1
 3288 000f 10       		.uleb128 0x10
 3289 0010 17       		.uleb128 0x17
 3290 0011 00       		.byte	0
ARM GAS  C:\Users\jo\AppData\Local\Temp\ccRedE1P.s 			page 60


 3291 0012 00       		.byte	0
 3292 0013 02       		.uleb128 0x2
 3293 0014 24       		.uleb128 0x24
 3294 0015 00       		.byte	0
 3295 0016 0B       		.uleb128 0xb
 3296 0017 0B       		.uleb128 0xb
 3297 0018 3E       		.uleb128 0x3e
 3298 0019 0B       		.uleb128 0xb
 3299 001a 03       		.uleb128 0x3
 3300 001b 0E       		.uleb128 0xe
 3301 001c 00       		.byte	0
 3302 001d 00       		.byte	0
 3303 001e 03       		.uleb128 0x3
 3304 001f 16       		.uleb128 0x16
 3305 0020 00       		.byte	0
 3306 0021 03       		.uleb128 0x3
 3307 0022 0E       		.uleb128 0xe
 3308 0023 3A       		.uleb128 0x3a
 3309 0024 0B       		.uleb128 0xb
 3310 0025 3B       		.uleb128 0x3b
 3311 0026 0B       		.uleb128 0xb
 3312 0027 49       		.uleb128 0x49
 3313 0028 13       		.uleb128 0x13
 3314 0029 00       		.byte	0
 3315 002a 00       		.byte	0
 3316 002b 04       		.uleb128 0x4
 3317 002c 24       		.uleb128 0x24
 3318 002d 00       		.byte	0
 3319 002e 0B       		.uleb128 0xb
 3320 002f 0B       		.uleb128 0xb
 3321 0030 3E       		.uleb128 0x3e
 3322 0031 0B       		.uleb128 0xb
 3323 0032 03       		.uleb128 0x3
 3324 0033 08       		.uleb128 0x8
 3325 0034 00       		.byte	0
 3326 0035 00       		.byte	0
 3327 0036 05       		.uleb128 0x5
 3328 0037 0F       		.uleb128 0xf
 3329 0038 00       		.byte	0
 3330 0039 0B       		.uleb128 0xb
 3331 003a 0B       		.uleb128 0xb
 3332 003b 00       		.byte	0
 3333 003c 00       		.byte	0
 3334 003d 06       		.uleb128 0x6
 3335 003e 0F       		.uleb128 0xf
 3336 003f 00       		.byte	0
 3337 0040 0B       		.uleb128 0xb
 3338 0041 0B       		.uleb128 0xb
 3339 0042 49       		.uleb128 0x49
 3340 0043 13       		.uleb128 0x13
 3341 0044 00       		.byte	0
 3342 0045 00       		.byte	0
 3343 0046 07       		.uleb128 0x7
 3344 0047 26       		.uleb128 0x26
 3345 0048 00       		.byte	0
 3346 0049 49       		.uleb128 0x49
 3347 004a 13       		.uleb128 0x13
ARM GAS  C:\Users\jo\AppData\Local\Temp\ccRedE1P.s 			page 61


 3348 004b 00       		.byte	0
 3349 004c 00       		.byte	0
 3350 004d 08       		.uleb128 0x8
 3351 004e 01       		.uleb128 0x1
 3352 004f 01       		.byte	0x1
 3353 0050 49       		.uleb128 0x49
 3354 0051 13       		.uleb128 0x13
 3355 0052 01       		.uleb128 0x1
 3356 0053 13       		.uleb128 0x13
 3357 0054 00       		.byte	0
 3358 0055 00       		.byte	0
 3359 0056 09       		.uleb128 0x9
 3360 0057 21       		.uleb128 0x21
 3361 0058 00       		.byte	0
 3362 0059 49       		.uleb128 0x49
 3363 005a 13       		.uleb128 0x13
 3364 005b 2F       		.uleb128 0x2f
 3365 005c 0B       		.uleb128 0xb
 3366 005d 00       		.byte	0
 3367 005e 00       		.byte	0
 3368 005f 0A       		.uleb128 0xa
 3369 0060 35       		.uleb128 0x35
 3370 0061 00       		.byte	0
 3371 0062 49       		.uleb128 0x49
 3372 0063 13       		.uleb128 0x13
 3373 0064 00       		.byte	0
 3374 0065 00       		.byte	0
 3375 0066 0B       		.uleb128 0xb
 3376 0067 13       		.uleb128 0x13
 3377 0068 01       		.byte	0x1
 3378 0069 03       		.uleb128 0x3
 3379 006a 0E       		.uleb128 0xe
 3380 006b 0B       		.uleb128 0xb
 3381 006c 0B       		.uleb128 0xb
 3382 006d 3A       		.uleb128 0x3a
 3383 006e 0B       		.uleb128 0xb
 3384 006f 3B       		.uleb128 0x3b
 3385 0070 0B       		.uleb128 0xb
 3386 0071 01       		.uleb128 0x1
 3387 0072 13       		.uleb128 0x13
 3388 0073 00       		.byte	0
 3389 0074 00       		.byte	0
 3390 0075 0C       		.uleb128 0xc
 3391 0076 0D       		.uleb128 0xd
 3392 0077 00       		.byte	0
 3393 0078 03       		.uleb128 0x3
 3394 0079 0E       		.uleb128 0xe
 3395 007a 3A       		.uleb128 0x3a
 3396 007b 0B       		.uleb128 0xb
 3397 007c 3B       		.uleb128 0x3b
 3398 007d 0B       		.uleb128 0xb
 3399 007e 49       		.uleb128 0x49
 3400 007f 13       		.uleb128 0x13
 3401 0080 38       		.uleb128 0x38
 3402 0081 0B       		.uleb128 0xb
 3403 0082 00       		.byte	0
 3404 0083 00       		.byte	0
ARM GAS  C:\Users\jo\AppData\Local\Temp\ccRedE1P.s 			page 62


 3405 0084 0D       		.uleb128 0xd
 3406 0085 0D       		.uleb128 0xd
 3407 0086 00       		.byte	0
 3408 0087 03       		.uleb128 0x3
 3409 0088 08       		.uleb128 0x8
 3410 0089 3A       		.uleb128 0x3a
 3411 008a 0B       		.uleb128 0xb
 3412 008b 3B       		.uleb128 0x3b
 3413 008c 05       		.uleb128 0x5
 3414 008d 49       		.uleb128 0x49
 3415 008e 13       		.uleb128 0x13
 3416 008f 38       		.uleb128 0x38
 3417 0090 0B       		.uleb128 0xb
 3418 0091 00       		.byte	0
 3419 0092 00       		.byte	0
 3420 0093 0E       		.uleb128 0xe
 3421 0094 0D       		.uleb128 0xd
 3422 0095 00       		.byte	0
 3423 0096 03       		.uleb128 0x3
 3424 0097 0E       		.uleb128 0xe
 3425 0098 3A       		.uleb128 0x3a
 3426 0099 0B       		.uleb128 0xb
 3427 009a 3B       		.uleb128 0x3b
 3428 009b 05       		.uleb128 0x5
 3429 009c 49       		.uleb128 0x49
 3430 009d 13       		.uleb128 0x13
 3431 009e 38       		.uleb128 0x38
 3432 009f 0B       		.uleb128 0xb
 3433 00a0 00       		.byte	0
 3434 00a1 00       		.byte	0
 3435 00a2 0F       		.uleb128 0xf
 3436 00a3 13       		.uleb128 0x13
 3437 00a4 01       		.byte	0x1
 3438 00a5 03       		.uleb128 0x3
 3439 00a6 0E       		.uleb128 0xe
 3440 00a7 0B       		.uleb128 0xb
 3441 00a8 0B       		.uleb128 0xb
 3442 00a9 3A       		.uleb128 0x3a
 3443 00aa 0B       		.uleb128 0xb
 3444 00ab 3B       		.uleb128 0x3b
 3445 00ac 05       		.uleb128 0x5
 3446 00ad 01       		.uleb128 0x1
 3447 00ae 13       		.uleb128 0x13
 3448 00af 00       		.byte	0
 3449 00b0 00       		.byte	0
 3450 00b1 10       		.uleb128 0x10
 3451 00b2 15       		.uleb128 0x15
 3452 00b3 01       		.byte	0x1
 3453 00b4 27       		.uleb128 0x27
 3454 00b5 19       		.uleb128 0x19
 3455 00b6 01       		.uleb128 0x1
 3456 00b7 13       		.uleb128 0x13
 3457 00b8 00       		.byte	0
 3458 00b9 00       		.byte	0
 3459 00ba 11       		.uleb128 0x11
 3460 00bb 05       		.uleb128 0x5
 3461 00bc 00       		.byte	0
ARM GAS  C:\Users\jo\AppData\Local\Temp\ccRedE1P.s 			page 63


 3462 00bd 49       		.uleb128 0x49
 3463 00be 13       		.uleb128 0x13
 3464 00bf 00       		.byte	0
 3465 00c0 00       		.byte	0
 3466 00c1 12       		.uleb128 0x12
 3467 00c2 13       		.uleb128 0x13
 3468 00c3 01       		.byte	0x1
 3469 00c4 03       		.uleb128 0x3
 3470 00c5 0E       		.uleb128 0xe
 3471 00c6 0B       		.uleb128 0xb
 3472 00c7 05       		.uleb128 0x5
 3473 00c8 3A       		.uleb128 0x3a
 3474 00c9 0B       		.uleb128 0xb
 3475 00ca 3B       		.uleb128 0x3b
 3476 00cb 05       		.uleb128 0x5
 3477 00cc 01       		.uleb128 0x1
 3478 00cd 13       		.uleb128 0x13
 3479 00ce 00       		.byte	0
 3480 00cf 00       		.byte	0
 3481 00d0 13       		.uleb128 0x13
 3482 00d1 0D       		.uleb128 0xd
 3483 00d2 00       		.byte	0
 3484 00d3 03       		.uleb128 0x3
 3485 00d4 08       		.uleb128 0x8
 3486 00d5 3A       		.uleb128 0x3a
 3487 00d6 0B       		.uleb128 0xb
 3488 00d7 3B       		.uleb128 0x3b
 3489 00d8 0B       		.uleb128 0xb
 3490 00d9 49       		.uleb128 0x49
 3491 00da 13       		.uleb128 0x13
 3492 00db 38       		.uleb128 0x38
 3493 00dc 0B       		.uleb128 0xb
 3494 00dd 00       		.byte	0
 3495 00de 00       		.byte	0
 3496 00df 14       		.uleb128 0x14
 3497 00e0 13       		.uleb128 0x13
 3498 00e1 01       		.byte	0x1
 3499 00e2 0B       		.uleb128 0xb
 3500 00e3 0B       		.uleb128 0xb
 3501 00e4 3A       		.uleb128 0x3a
 3502 00e5 0B       		.uleb128 0xb
 3503 00e6 3B       		.uleb128 0x3b
 3504 00e7 0B       		.uleb128 0xb
 3505 00e8 01       		.uleb128 0x1
 3506 00e9 13       		.uleb128 0x13
 3507 00ea 00       		.byte	0
 3508 00eb 00       		.byte	0
 3509 00ec 15       		.uleb128 0x15
 3510 00ed 17       		.uleb128 0x17
 3511 00ee 01       		.byte	0x1
 3512 00ef 0B       		.uleb128 0xb
 3513 00f0 0B       		.uleb128 0xb
 3514 00f1 3A       		.uleb128 0x3a
 3515 00f2 0B       		.uleb128 0xb
 3516 00f3 3B       		.uleb128 0x3b
 3517 00f4 0B       		.uleb128 0xb
 3518 00f5 01       		.uleb128 0x1
ARM GAS  C:\Users\jo\AppData\Local\Temp\ccRedE1P.s 			page 64


 3519 00f6 13       		.uleb128 0x13
 3520 00f7 00       		.byte	0
 3521 00f8 00       		.byte	0
 3522 00f9 16       		.uleb128 0x16
 3523 00fa 0D       		.uleb128 0xd
 3524 00fb 00       		.byte	0
 3525 00fc 03       		.uleb128 0x3
 3526 00fd 0E       		.uleb128 0xe
 3527 00fe 3A       		.uleb128 0x3a
 3528 00ff 0B       		.uleb128 0xb
 3529 0100 3B       		.uleb128 0x3b
 3530 0101 0B       		.uleb128 0xb
 3531 0102 49       		.uleb128 0x49
 3532 0103 13       		.uleb128 0x13
 3533 0104 00       		.byte	0
 3534 0105 00       		.byte	0
 3535 0106 17       		.uleb128 0x17
 3536 0107 0D       		.uleb128 0xd
 3537 0108 00       		.byte	0
 3538 0109 03       		.uleb128 0x3
 3539 010a 0E       		.uleb128 0xe
 3540 010b 3A       		.uleb128 0x3a
 3541 010c 0B       		.uleb128 0xb
 3542 010d 3B       		.uleb128 0x3b
 3543 010e 05       		.uleb128 0x5
 3544 010f 49       		.uleb128 0x49
 3545 0110 13       		.uleb128 0x13
 3546 0111 00       		.byte	0
 3547 0112 00       		.byte	0
 3548 0113 18       		.uleb128 0x18
 3549 0114 0D       		.uleb128 0xd
 3550 0115 00       		.byte	0
 3551 0116 03       		.uleb128 0x3
 3552 0117 08       		.uleb128 0x8
 3553 0118 3A       		.uleb128 0x3a
 3554 0119 0B       		.uleb128 0xb
 3555 011a 3B       		.uleb128 0x3b
 3556 011b 0B       		.uleb128 0xb
 3557 011c 49       		.uleb128 0x49
 3558 011d 13       		.uleb128 0x13
 3559 011e 00       		.byte	0
 3560 011f 00       		.byte	0
 3561 0120 19       		.uleb128 0x19
 3562 0121 16       		.uleb128 0x16
 3563 0122 00       		.byte	0
 3564 0123 03       		.uleb128 0x3
 3565 0124 0E       		.uleb128 0xe
 3566 0125 3A       		.uleb128 0x3a
 3567 0126 0B       		.uleb128 0xb
 3568 0127 3B       		.uleb128 0x3b
 3569 0128 05       		.uleb128 0x5
 3570 0129 49       		.uleb128 0x49
 3571 012a 13       		.uleb128 0x13
 3572 012b 00       		.byte	0
 3573 012c 00       		.byte	0
 3574 012d 1A       		.uleb128 0x1a
 3575 012e 04       		.uleb128 0x4
ARM GAS  C:\Users\jo\AppData\Local\Temp\ccRedE1P.s 			page 65


 3576 012f 01       		.byte	0x1
 3577 0130 0B       		.uleb128 0xb
 3578 0131 0B       		.uleb128 0xb
 3579 0132 3A       		.uleb128 0x3a
 3580 0133 0B       		.uleb128 0xb
 3581 0134 3B       		.uleb128 0x3b
 3582 0135 0B       		.uleb128 0xb
 3583 0136 01       		.uleb128 0x1
 3584 0137 13       		.uleb128 0x13
 3585 0138 00       		.byte	0
 3586 0139 00       		.byte	0
 3587 013a 1B       		.uleb128 0x1b
 3588 013b 28       		.uleb128 0x28
 3589 013c 00       		.byte	0
 3590 013d 03       		.uleb128 0x3
 3591 013e 0E       		.uleb128 0xe
 3592 013f 1C       		.uleb128 0x1c
 3593 0140 0D       		.uleb128 0xd
 3594 0141 00       		.byte	0
 3595 0142 00       		.byte	0
 3596 0143 1C       		.uleb128 0x1c
 3597 0144 2E       		.uleb128 0x2e
 3598 0145 01       		.byte	0x1
 3599 0146 3F       		.uleb128 0x3f
 3600 0147 19       		.uleb128 0x19
 3601 0148 03       		.uleb128 0x3
 3602 0149 0E       		.uleb128 0xe
 3603 014a 3A       		.uleb128 0x3a
 3604 014b 0B       		.uleb128 0xb
 3605 014c 3B       		.uleb128 0x3b
 3606 014d 0B       		.uleb128 0xb
 3607 014e 27       		.uleb128 0x27
 3608 014f 19       		.uleb128 0x19
 3609 0150 49       		.uleb128 0x49
 3610 0151 13       		.uleb128 0x13
 3611 0152 11       		.uleb128 0x11
 3612 0153 01       		.uleb128 0x1
 3613 0154 12       		.uleb128 0x12
 3614 0155 06       		.uleb128 0x6
 3615 0156 40       		.uleb128 0x40
 3616 0157 18       		.uleb128 0x18
 3617 0158 9742     		.uleb128 0x2117
 3618 015a 19       		.uleb128 0x19
 3619 015b 01       		.uleb128 0x1
 3620 015c 13       		.uleb128 0x13
 3621 015d 00       		.byte	0
 3622 015e 00       		.byte	0
 3623 015f 1D       		.uleb128 0x1d
 3624 0160 05       		.uleb128 0x5
 3625 0161 00       		.byte	0
 3626 0162 03       		.uleb128 0x3
 3627 0163 0E       		.uleb128 0xe
 3628 0164 3A       		.uleb128 0x3a
 3629 0165 0B       		.uleb128 0xb
 3630 0166 3B       		.uleb128 0x3b
 3631 0167 0B       		.uleb128 0xb
 3632 0168 49       		.uleb128 0x49
ARM GAS  C:\Users\jo\AppData\Local\Temp\ccRedE1P.s 			page 66


 3633 0169 13       		.uleb128 0x13
 3634 016a 02       		.uleb128 0x2
 3635 016b 17       		.uleb128 0x17
 3636 016c 00       		.byte	0
 3637 016d 00       		.byte	0
 3638 016e 1E       		.uleb128 0x1e
 3639 016f 34       		.uleb128 0x34
 3640 0170 00       		.byte	0
 3641 0171 03       		.uleb128 0x3
 3642 0172 0E       		.uleb128 0xe
 3643 0173 3A       		.uleb128 0x3a
 3644 0174 0B       		.uleb128 0xb
 3645 0175 3B       		.uleb128 0x3b
 3646 0176 0B       		.uleb128 0xb
 3647 0177 49       		.uleb128 0x49
 3648 0178 13       		.uleb128 0x13
 3649 0179 02       		.uleb128 0x2
 3650 017a 17       		.uleb128 0x17
 3651 017b 00       		.byte	0
 3652 017c 00       		.byte	0
 3653 017d 1F       		.uleb128 0x1f
 3654 017e 898201   		.uleb128 0x4109
 3655 0181 00       		.byte	0
 3656 0182 11       		.uleb128 0x11
 3657 0183 01       		.uleb128 0x1
 3658 0184 31       		.uleb128 0x31
 3659 0185 13       		.uleb128 0x13
 3660 0186 00       		.byte	0
 3661 0187 00       		.byte	0
 3662 0188 20       		.uleb128 0x20
 3663 0189 898201   		.uleb128 0x4109
 3664 018c 01       		.byte	0x1
 3665 018d 11       		.uleb128 0x11
 3666 018e 01       		.uleb128 0x1
 3667 018f 31       		.uleb128 0x31
 3668 0190 13       		.uleb128 0x13
 3669 0191 01       		.uleb128 0x1
 3670 0192 13       		.uleb128 0x13
 3671 0193 00       		.byte	0
 3672 0194 00       		.byte	0
 3673 0195 21       		.uleb128 0x21
 3674 0196 8A8201   		.uleb128 0x410a
 3675 0199 00       		.byte	0
 3676 019a 02       		.uleb128 0x2
 3677 019b 18       		.uleb128 0x18
 3678 019c 9142     		.uleb128 0x2111
 3679 019e 18       		.uleb128 0x18
 3680 019f 00       		.byte	0
 3681 01a0 00       		.byte	0
 3682 01a1 22       		.uleb128 0x22
 3683 01a2 2E       		.uleb128 0x2e
 3684 01a3 01       		.byte	0x1
 3685 01a4 3F       		.uleb128 0x3f
 3686 01a5 19       		.uleb128 0x19
 3687 01a6 03       		.uleb128 0x3
 3688 01a7 0E       		.uleb128 0xe
 3689 01a8 3A       		.uleb128 0x3a
ARM GAS  C:\Users\jo\AppData\Local\Temp\ccRedE1P.s 			page 67


 3690 01a9 0B       		.uleb128 0xb
 3691 01aa 3B       		.uleb128 0x3b
 3692 01ab 0B       		.uleb128 0xb
 3693 01ac 27       		.uleb128 0x27
 3694 01ad 19       		.uleb128 0x19
 3695 01ae 11       		.uleb128 0x11
 3696 01af 01       		.uleb128 0x1
 3697 01b0 12       		.uleb128 0x12
 3698 01b1 06       		.uleb128 0x6
 3699 01b2 40       		.uleb128 0x40
 3700 01b3 18       		.uleb128 0x18
 3701 01b4 9742     		.uleb128 0x2117
 3702 01b6 19       		.uleb128 0x19
 3703 01b7 01       		.uleb128 0x1
 3704 01b8 13       		.uleb128 0x13
 3705 01b9 00       		.byte	0
 3706 01ba 00       		.byte	0
 3707 01bb 23       		.uleb128 0x23
 3708 01bc 898201   		.uleb128 0x4109
 3709 01bf 00       		.byte	0
 3710 01c0 11       		.uleb128 0x11
 3711 01c1 01       		.uleb128 0x1
 3712 01c2 9542     		.uleb128 0x2115
 3713 01c4 19       		.uleb128 0x19
 3714 01c5 31       		.uleb128 0x31
 3715 01c6 13       		.uleb128 0x13
 3716 01c7 00       		.byte	0
 3717 01c8 00       		.byte	0
 3718 01c9 24       		.uleb128 0x24
 3719 01ca 34       		.uleb128 0x34
 3720 01cb 00       		.byte	0
 3721 01cc 03       		.uleb128 0x3
 3722 01cd 0E       		.uleb128 0xe
 3723 01ce 49       		.uleb128 0x49
 3724 01cf 13       		.uleb128 0x13
 3725 01d0 34       		.uleb128 0x34
 3726 01d1 19       		.uleb128 0x19
 3727 01d2 02       		.uleb128 0x2
 3728 01d3 18       		.uleb128 0x18
 3729 01d4 00       		.byte	0
 3730 01d5 00       		.byte	0
 3731 01d6 25       		.uleb128 0x25
 3732 01d7 898201   		.uleb128 0x4109
 3733 01da 01       		.byte	0x1
 3734 01db 11       		.uleb128 0x11
 3735 01dc 01       		.uleb128 0x1
 3736 01dd 31       		.uleb128 0x31
 3737 01de 13       		.uleb128 0x13
 3738 01df 00       		.byte	0
 3739 01e0 00       		.byte	0
 3740 01e1 26       		.uleb128 0x26
 3741 01e2 34       		.uleb128 0x34
 3742 01e3 00       		.byte	0
 3743 01e4 03       		.uleb128 0x3
 3744 01e5 0E       		.uleb128 0xe
 3745 01e6 3A       		.uleb128 0x3a
 3746 01e7 0B       		.uleb128 0xb
ARM GAS  C:\Users\jo\AppData\Local\Temp\ccRedE1P.s 			page 68


 3747 01e8 3B       		.uleb128 0x3b
 3748 01e9 0B       		.uleb128 0xb
 3749 01ea 49       		.uleb128 0x49
 3750 01eb 13       		.uleb128 0x13
 3751 01ec 1C       		.uleb128 0x1c
 3752 01ed 0B       		.uleb128 0xb
 3753 01ee 00       		.byte	0
 3754 01ef 00       		.byte	0
 3755 01f0 27       		.uleb128 0x27
 3756 01f1 34       		.uleb128 0x34
 3757 01f2 00       		.byte	0
 3758 01f3 03       		.uleb128 0x3
 3759 01f4 0E       		.uleb128 0xe
 3760 01f5 3A       		.uleb128 0x3a
 3761 01f6 0B       		.uleb128 0xb
 3762 01f7 3B       		.uleb128 0x3b
 3763 01f8 0B       		.uleb128 0xb
 3764 01f9 49       		.uleb128 0x49
 3765 01fa 13       		.uleb128 0x13
 3766 01fb 02       		.uleb128 0x2
 3767 01fc 18       		.uleb128 0x18
 3768 01fd 00       		.byte	0
 3769 01fe 00       		.byte	0
 3770 01ff 28       		.uleb128 0x28
 3771 0200 2E       		.uleb128 0x2e
 3772 0201 01       		.byte	0x1
 3773 0202 3F       		.uleb128 0x3f
 3774 0203 19       		.uleb128 0x19
 3775 0204 03       		.uleb128 0x3
 3776 0205 0E       		.uleb128 0xe
 3777 0206 3A       		.uleb128 0x3a
 3778 0207 0B       		.uleb128 0xb
 3779 0208 3B       		.uleb128 0x3b
 3780 0209 05       		.uleb128 0x5
 3781 020a 27       		.uleb128 0x27
 3782 020b 19       		.uleb128 0x19
 3783 020c 49       		.uleb128 0x49
 3784 020d 13       		.uleb128 0x13
 3785 020e 11       		.uleb128 0x11
 3786 020f 01       		.uleb128 0x1
 3787 0210 12       		.uleb128 0x12
 3788 0211 06       		.uleb128 0x6
 3789 0212 40       		.uleb128 0x40
 3790 0213 18       		.uleb128 0x18
 3791 0214 9742     		.uleb128 0x2117
 3792 0216 19       		.uleb128 0x19
 3793 0217 01       		.uleb128 0x1
 3794 0218 13       		.uleb128 0x13
 3795 0219 00       		.byte	0
 3796 021a 00       		.byte	0
 3797 021b 29       		.uleb128 0x29
 3798 021c 34       		.uleb128 0x34
 3799 021d 00       		.byte	0
 3800 021e 03       		.uleb128 0x3
 3801 021f 0E       		.uleb128 0xe
 3802 0220 3A       		.uleb128 0x3a
 3803 0221 0B       		.uleb128 0xb
ARM GAS  C:\Users\jo\AppData\Local\Temp\ccRedE1P.s 			page 69


 3804 0222 3B       		.uleb128 0x3b
 3805 0223 05       		.uleb128 0x5
 3806 0224 49       		.uleb128 0x49
 3807 0225 13       		.uleb128 0x13
 3808 0226 1C       		.uleb128 0x1c
 3809 0227 0B       		.uleb128 0xb
 3810 0228 00       		.byte	0
 3811 0229 00       		.byte	0
 3812 022a 2A       		.uleb128 0x2a
 3813 022b 34       		.uleb128 0x34
 3814 022c 00       		.byte	0
 3815 022d 03       		.uleb128 0x3
 3816 022e 0E       		.uleb128 0xe
 3817 022f 3A       		.uleb128 0x3a
 3818 0230 0B       		.uleb128 0xb
 3819 0231 3B       		.uleb128 0x3b
 3820 0232 05       		.uleb128 0x5
 3821 0233 49       		.uleb128 0x49
 3822 0234 13       		.uleb128 0x13
 3823 0235 02       		.uleb128 0x2
 3824 0236 17       		.uleb128 0x17
 3825 0237 00       		.byte	0
 3826 0238 00       		.byte	0
 3827 0239 2B       		.uleb128 0x2b
 3828 023a 898201   		.uleb128 0x4109
 3829 023d 01       		.byte	0x1
 3830 023e 11       		.uleb128 0x11
 3831 023f 01       		.uleb128 0x1
 3832 0240 9542     		.uleb128 0x2115
 3833 0242 19       		.uleb128 0x19
 3834 0243 31       		.uleb128 0x31
 3835 0244 13       		.uleb128 0x13
 3836 0245 01       		.uleb128 0x1
 3837 0246 13       		.uleb128 0x13
 3838 0247 00       		.byte	0
 3839 0248 00       		.byte	0
 3840 0249 2C       		.uleb128 0x2c
 3841 024a 2E       		.uleb128 0x2e
 3842 024b 01       		.byte	0x1
 3843 024c 3F       		.uleb128 0x3f
 3844 024d 19       		.uleb128 0x19
 3845 024e 03       		.uleb128 0x3
 3846 024f 0E       		.uleb128 0xe
 3847 0250 3A       		.uleb128 0x3a
 3848 0251 0B       		.uleb128 0xb
 3849 0252 3B       		.uleb128 0x3b
 3850 0253 05       		.uleb128 0x5
 3851 0254 27       		.uleb128 0x27
 3852 0255 19       		.uleb128 0x19
 3853 0256 11       		.uleb128 0x11
 3854 0257 01       		.uleb128 0x1
 3855 0258 12       		.uleb128 0x12
 3856 0259 06       		.uleb128 0x6
 3857 025a 40       		.uleb128 0x40
 3858 025b 18       		.uleb128 0x18
 3859 025c 9742     		.uleb128 0x2117
 3860 025e 19       		.uleb128 0x19
ARM GAS  C:\Users\jo\AppData\Local\Temp\ccRedE1P.s 			page 70


 3861 025f 01       		.uleb128 0x1
 3862 0260 13       		.uleb128 0x13
 3863 0261 00       		.byte	0
 3864 0262 00       		.byte	0
 3865 0263 2D       		.uleb128 0x2d
 3866 0264 05       		.uleb128 0x5
 3867 0265 00       		.byte	0
 3868 0266 03       		.uleb128 0x3
 3869 0267 0E       		.uleb128 0xe
 3870 0268 3A       		.uleb128 0x3a
 3871 0269 0B       		.uleb128 0xb
 3872 026a 3B       		.uleb128 0x3b
 3873 026b 05       		.uleb128 0x5
 3874 026c 49       		.uleb128 0x49
 3875 026d 13       		.uleb128 0x13
 3876 026e 02       		.uleb128 0x2
 3877 026f 18       		.uleb128 0x18
 3878 0270 00       		.byte	0
 3879 0271 00       		.byte	0
 3880 0272 2E       		.uleb128 0x2e
 3881 0273 2E       		.uleb128 0x2e
 3882 0274 00       		.byte	0
 3883 0275 3F       		.uleb128 0x3f
 3884 0276 19       		.uleb128 0x19
 3885 0277 03       		.uleb128 0x3
 3886 0278 0E       		.uleb128 0xe
 3887 0279 3A       		.uleb128 0x3a
 3888 027a 0B       		.uleb128 0xb
 3889 027b 3B       		.uleb128 0x3b
 3890 027c 05       		.uleb128 0x5
 3891 027d 27       		.uleb128 0x27
 3892 027e 19       		.uleb128 0x19
 3893 027f 49       		.uleb128 0x49
 3894 0280 13       		.uleb128 0x13
 3895 0281 11       		.uleb128 0x11
 3896 0282 01       		.uleb128 0x1
 3897 0283 12       		.uleb128 0x12
 3898 0284 06       		.uleb128 0x6
 3899 0285 40       		.uleb128 0x40
 3900 0286 18       		.uleb128 0x18
 3901 0287 9742     		.uleb128 0x2117
 3902 0289 19       		.uleb128 0x19
 3903 028a 00       		.byte	0
 3904 028b 00       		.byte	0
 3905 028c 2F       		.uleb128 0x2f
 3906 028d 34       		.uleb128 0x34
 3907 028e 00       		.byte	0
 3908 028f 03       		.uleb128 0x3
 3909 0290 0E       		.uleb128 0xe
 3910 0291 3A       		.uleb128 0x3a
 3911 0292 0B       		.uleb128 0xb
 3912 0293 3B       		.uleb128 0x3b
 3913 0294 05       		.uleb128 0x5
 3914 0295 49       		.uleb128 0x49
 3915 0296 13       		.uleb128 0x13
 3916 0297 3F       		.uleb128 0x3f
 3917 0298 19       		.uleb128 0x19
ARM GAS  C:\Users\jo\AppData\Local\Temp\ccRedE1P.s 			page 71


 3918 0299 3C       		.uleb128 0x3c
 3919 029a 19       		.uleb128 0x19
 3920 029b 00       		.byte	0
 3921 029c 00       		.byte	0
 3922 029d 30       		.uleb128 0x30
 3923 029e 34       		.uleb128 0x34
 3924 029f 00       		.byte	0
 3925 02a0 03       		.uleb128 0x3
 3926 02a1 08       		.uleb128 0x8
 3927 02a2 3A       		.uleb128 0x3a
 3928 02a3 0B       		.uleb128 0xb
 3929 02a4 3B       		.uleb128 0x3b
 3930 02a5 05       		.uleb128 0x5
 3931 02a6 49       		.uleb128 0x49
 3932 02a7 13       		.uleb128 0x13
 3933 02a8 3F       		.uleb128 0x3f
 3934 02a9 19       		.uleb128 0x19
 3935 02aa 3C       		.uleb128 0x3c
 3936 02ab 19       		.uleb128 0x19
 3937 02ac 00       		.byte	0
 3938 02ad 00       		.byte	0
 3939 02ae 31       		.uleb128 0x31
 3940 02af 2E       		.uleb128 0x2e
 3941 02b0 00       		.byte	0
 3942 02b1 3F       		.uleb128 0x3f
 3943 02b2 19       		.uleb128 0x19
 3944 02b3 03       		.uleb128 0x3
 3945 02b4 0E       		.uleb128 0xe
 3946 02b5 3A       		.uleb128 0x3a
 3947 02b6 0B       		.uleb128 0xb
 3948 02b7 3B       		.uleb128 0x3b
 3949 02b8 0B       		.uleb128 0xb
 3950 02b9 27       		.uleb128 0x27
 3951 02ba 19       		.uleb128 0x19
 3952 02bb 3C       		.uleb128 0x3c
 3953 02bc 19       		.uleb128 0x19
 3954 02bd 00       		.byte	0
 3955 02be 00       		.byte	0
 3956 02bf 32       		.uleb128 0x32
 3957 02c0 2E       		.uleb128 0x2e
 3958 02c1 01       		.byte	0x1
 3959 02c2 3F       		.uleb128 0x3f
 3960 02c3 19       		.uleb128 0x19
 3961 02c4 03       		.uleb128 0x3
 3962 02c5 0E       		.uleb128 0xe
 3963 02c6 3A       		.uleb128 0x3a
 3964 02c7 0B       		.uleb128 0xb
 3965 02c8 3B       		.uleb128 0x3b
 3966 02c9 0B       		.uleb128 0xb
 3967 02ca 27       		.uleb128 0x27
 3968 02cb 19       		.uleb128 0x19
 3969 02cc 49       		.uleb128 0x49
 3970 02cd 13       		.uleb128 0x13
 3971 02ce 3C       		.uleb128 0x3c
 3972 02cf 19       		.uleb128 0x19
 3973 02d0 01       		.uleb128 0x1
 3974 02d1 13       		.uleb128 0x13
ARM GAS  C:\Users\jo\AppData\Local\Temp\ccRedE1P.s 			page 72


 3975 02d2 00       		.byte	0
 3976 02d3 00       		.byte	0
 3977 02d4 33       		.uleb128 0x33
 3978 02d5 2E       		.uleb128 0x2e
 3979 02d6 01       		.byte	0x1
 3980 02d7 3F       		.uleb128 0x3f
 3981 02d8 19       		.uleb128 0x19
 3982 02d9 03       		.uleb128 0x3
 3983 02da 0E       		.uleb128 0xe
 3984 02db 3A       		.uleb128 0x3a
 3985 02dc 0B       		.uleb128 0xb
 3986 02dd 3B       		.uleb128 0x3b
 3987 02de 0B       		.uleb128 0xb
 3988 02df 27       		.uleb128 0x27
 3989 02e0 19       		.uleb128 0x19
 3990 02e1 3C       		.uleb128 0x3c
 3991 02e2 19       		.uleb128 0x19
 3992 02e3 01       		.uleb128 0x1
 3993 02e4 13       		.uleb128 0x13
 3994 02e5 00       		.byte	0
 3995 02e6 00       		.byte	0
 3996 02e7 34       		.uleb128 0x34
 3997 02e8 2E       		.uleb128 0x2e
 3998 02e9 01       		.byte	0x1
 3999 02ea 3F       		.uleb128 0x3f
 4000 02eb 19       		.uleb128 0x19
 4001 02ec 03       		.uleb128 0x3
 4002 02ed 0E       		.uleb128 0xe
 4003 02ee 3A       		.uleb128 0x3a
 4004 02ef 0B       		.uleb128 0xb
 4005 02f0 3B       		.uleb128 0x3b
 4006 02f1 05       		.uleb128 0x5
 4007 02f2 27       		.uleb128 0x27
 4008 02f3 19       		.uleb128 0x19
 4009 02f4 3C       		.uleb128 0x3c
 4010 02f5 19       		.uleb128 0x19
 4011 02f6 01       		.uleb128 0x1
 4012 02f7 13       		.uleb128 0x13
 4013 02f8 00       		.byte	0
 4014 02f9 00       		.byte	0
 4015 02fa 35       		.uleb128 0x35
 4016 02fb 2E       		.uleb128 0x2e
 4017 02fc 01       		.byte	0x1
 4018 02fd 3F       		.uleb128 0x3f
 4019 02fe 19       		.uleb128 0x19
 4020 02ff 03       		.uleb128 0x3
 4021 0300 0E       		.uleb128 0xe
 4022 0301 3A       		.uleb128 0x3a
 4023 0302 0B       		.uleb128 0xb
 4024 0303 3B       		.uleb128 0x3b
 4025 0304 0B       		.uleb128 0xb
 4026 0305 27       		.uleb128 0x27
 4027 0306 19       		.uleb128 0x19
 4028 0307 49       		.uleb128 0x49
 4029 0308 13       		.uleb128 0x13
 4030 0309 3C       		.uleb128 0x3c
 4031 030a 19       		.uleb128 0x19
ARM GAS  C:\Users\jo\AppData\Local\Temp\ccRedE1P.s 			page 73


 4032 030b 00       		.byte	0
 4033 030c 00       		.byte	0
 4034 030d 00       		.byte	0
 4035              		.section	.debug_loc,"",%progbits
 4036              	.Ldebug_loc0:
 4037              	.LLST0:
 4038 0000 00000000 		.4byte	.LVL0
 4039 0004 0B000000 		.4byte	.LVL1-1
 4040 0008 0100     		.2byte	0x1
 4041 000a 50       		.byte	0x50
 4042 000b 0B000000 		.4byte	.LVL1-1
 4043 000f 54000000 		.4byte	.LFE256
 4044 0013 0400     		.2byte	0x4
 4045 0015 F3       		.byte	0xf3
 4046 0016 01       		.uleb128 0x1
 4047 0017 50       		.byte	0x50
 4048 0018 9F       		.byte	0x9f
 4049 0019 00000000 		.4byte	0
 4050 001d 00000000 		.4byte	0
 4051              	.LLST1:
 4052 0021 00000000 		.4byte	.LVL0
 4053 0025 0B000000 		.4byte	.LVL1-1
 4054 0029 0100     		.2byte	0x1
 4055 002b 51       		.byte	0x51
 4056 002c 0B000000 		.4byte	.LVL1-1
 4057 0030 1E000000 		.4byte	.LVL3
 4058 0034 0100     		.2byte	0x1
 4059 0036 54       		.byte	0x54
 4060 0037 1E000000 		.4byte	.LVL3
 4061 003b 26000000 		.4byte	.LVL5
 4062 003f 0400     		.2byte	0x4
 4063 0041 F3       		.byte	0xf3
 4064 0042 01       		.uleb128 0x1
 4065 0043 51       		.byte	0x51
 4066 0044 9F       		.byte	0x9f
 4067 0045 26000000 		.4byte	.LVL5
 4068 0049 30000000 		.4byte	.LVL7
 4069 004d 0100     		.2byte	0x1
 4070 004f 54       		.byte	0x54
 4071 0050 30000000 		.4byte	.LVL7
 4072 0054 4A000000 		.4byte	.LVL13
 4073 0058 0400     		.2byte	0x4
 4074 005a F3       		.byte	0xf3
 4075 005b 01       		.uleb128 0x1
 4076 005c 51       		.byte	0x51
 4077 005d 9F       		.byte	0x9f
 4078 005e 4A000000 		.4byte	.LVL13
 4079 0062 54000000 		.4byte	.LFE256
 4080 0066 0100     		.2byte	0x1
 4081 0068 54       		.byte	0x54
 4082 0069 00000000 		.4byte	0
 4083 006d 00000000 		.4byte	0
 4084              	.LLST2:
 4085 0071 00000000 		.4byte	.LVL0
 4086 0075 0B000000 		.4byte	.LVL1-1
 4087 0079 0100     		.2byte	0x1
 4088 007b 52       		.byte	0x52
ARM GAS  C:\Users\jo\AppData\Local\Temp\ccRedE1P.s 			page 74


 4089 007c 0B000000 		.4byte	.LVL1-1
 4090 0080 54000000 		.4byte	.LFE256
 4091 0084 0400     		.2byte	0x4
 4092 0086 F3       		.byte	0xf3
 4093 0087 01       		.uleb128 0x1
 4094 0088 52       		.byte	0x52
 4095 0089 9F       		.byte	0x9f
 4096 008a 00000000 		.4byte	0
 4097 008e 00000000 		.4byte	0
 4098              	.LLST3:
 4099 0092 00000000 		.4byte	.LVL0
 4100 0096 1E000000 		.4byte	.LVL3
 4101 009a 0200     		.2byte	0x2
 4102 009c 30       		.byte	0x30
 4103 009d 9F       		.byte	0x9f
 4104 009e 1E000000 		.4byte	.LVL3
 4105 00a2 26000000 		.4byte	.LVL5
 4106 00a6 0100     		.2byte	0x1
 4107 00a8 54       		.byte	0x54
 4108 00a9 26000000 		.4byte	.LVL5
 4109 00ad 42000000 		.4byte	.LVL11
 4110 00b1 0200     		.2byte	0x2
 4111 00b3 30       		.byte	0x30
 4112 00b4 9F       		.byte	0x9f
 4113 00b5 42000000 		.4byte	.LVL11
 4114 00b9 4A000000 		.4byte	.LVL13
 4115 00bd 0100     		.2byte	0x1
 4116 00bf 54       		.byte	0x54
 4117 00c0 4A000000 		.4byte	.LVL13
 4118 00c4 54000000 		.4byte	.LFE256
 4119 00c8 0200     		.2byte	0x2
 4120 00ca 30       		.byte	0x30
 4121 00cb 9F       		.byte	0x9f
 4122 00cc 00000000 		.4byte	0
 4123 00d0 00000000 		.4byte	0
 4124              	.LLST4:
 4125 00d4 2C000000 		.4byte	.LVL6
 4126 00d8 30000000 		.4byte	.LVL7
 4127 00dc 1100     		.2byte	0x11
 4128 00de 0C       		.byte	0xc
 4129 00df A07F1700 		.4byte	0x177fa0
 4130 00e3 F7       		.byte	0xf7
 4131 00e4 25       		.uleb128 0x25
 4132 00e5 74       		.byte	0x74
 4133 00e6 00       		.sleb128 0
 4134 00e7 31       		.byte	0x31
 4135 00e8 24       		.byte	0x24
 4136 00e9 F7       		.byte	0xf7
 4137 00ea 25       		.uleb128 0x25
 4138 00eb 1B       		.byte	0x1b
 4139 00ec F7       		.byte	0xf7
 4140 00ed 00       		.uleb128 0
 4141 00ee 9F       		.byte	0x9f
 4142 00ef 30000000 		.4byte	.LVL7
 4143 00f3 34000000 		.4byte	.LVL8
 4144 00f7 1200     		.2byte	0x12
 4145 00f9 0C       		.byte	0xc
ARM GAS  C:\Users\jo\AppData\Local\Temp\ccRedE1P.s 			page 75


 4146 00fa A07F1700 		.4byte	0x177fa0
 4147 00fe F7       		.byte	0xf7
 4148 00ff 25       		.uleb128 0x25
 4149 0100 F3       		.byte	0xf3
 4150 0101 01       		.uleb128 0x1
 4151 0102 51       		.byte	0x51
 4152 0103 31       		.byte	0x31
 4153 0104 24       		.byte	0x24
 4154 0105 F7       		.byte	0xf7
 4155 0106 25       		.uleb128 0x25
 4156 0107 1B       		.byte	0x1b
 4157 0108 F7       		.byte	0xf7
 4158 0109 00       		.uleb128 0
 4159 010a 9F       		.byte	0x9f
 4160 010b 34000000 		.4byte	.LVL8
 4161 010f 36000000 		.4byte	.LVL9
 4162 0113 0100     		.2byte	0x1
 4163 0115 54       		.byte	0x54
 4164 0116 00000000 		.4byte	0
 4165 011a 00000000 		.4byte	0
 4166              	.LLST5:
 4167 011e 00000000 		.4byte	.LVL22
 4168 0122 0F000000 		.4byte	.LVL23-1
 4169 0126 0100     		.2byte	0x1
 4170 0128 50       		.byte	0x50
 4171 0129 0F000000 		.4byte	.LVL23-1
 4172 012d 74000000 		.4byte	.LFE259
 4173 0131 0100     		.2byte	0x1
 4174 0133 57       		.byte	0x57
 4175 0134 00000000 		.4byte	0
 4176 0138 00000000 		.4byte	0
 4177              	.LLST6:
 4178 013c 00000000 		.4byte	.LVL22
 4179 0140 0F000000 		.4byte	.LVL23-1
 4180 0144 0100     		.2byte	0x1
 4181 0146 51       		.byte	0x51
 4182 0147 0F000000 		.4byte	.LVL23-1
 4183 014b 74000000 		.4byte	.LFE259
 4184 014f 0100     		.2byte	0x1
 4185 0151 55       		.byte	0x55
 4186 0152 00000000 		.4byte	0
 4187 0156 00000000 		.4byte	0
 4188              	.LLST7:
 4189 015a 00000000 		.4byte	.LVL22
 4190 015e 0F000000 		.4byte	.LVL23-1
 4191 0162 0100     		.2byte	0x1
 4192 0164 52       		.byte	0x52
 4193 0165 0F000000 		.4byte	.LVL23-1
 4194 0169 74000000 		.4byte	.LFE259
 4195 016d 0100     		.2byte	0x1
 4196 016f 56       		.byte	0x56
 4197 0170 00000000 		.4byte	0
 4198 0174 00000000 		.4byte	0
 4199              	.LLST8:
 4200 0178 00000000 		.4byte	.LVL22
 4201 017c 24000000 		.4byte	.LVL24
 4202 0180 0200     		.2byte	0x2
ARM GAS  C:\Users\jo\AppData\Local\Temp\ccRedE1P.s 			page 76


 4203 0182 30       		.byte	0x30
 4204 0183 9F       		.byte	0x9f
 4205 0184 24000000 		.4byte	.LVL24
 4206 0188 2E000000 		.4byte	.LVL26
 4207 018c 0100     		.2byte	0x1
 4208 018e 58       		.byte	0x58
 4209 018f 2E000000 		.4byte	.LVL26
 4210 0193 74000000 		.4byte	.LFE259
 4211 0197 0200     		.2byte	0x2
 4212 0199 30       		.byte	0x30
 4213 019a 9F       		.byte	0x9f
 4214 019b 00000000 		.4byte	0
 4215 019f 00000000 		.4byte	0
 4216              	.LLST9:
 4217 01a3 00000000 		.4byte	.LVL29
 4218 01a7 06000000 		.4byte	.LVL30
 4219 01ab 0100     		.2byte	0x1
 4220 01ad 50       		.byte	0x50
 4221 01ae 06000000 		.4byte	.LVL30
 4222 01b2 08000000 		.4byte	.LVL31
 4223 01b6 0400     		.2byte	0x4
 4224 01b8 F3       		.byte	0xf3
 4225 01b9 01       		.uleb128 0x1
 4226 01ba 50       		.byte	0x50
 4227 01bb 9F       		.byte	0x9f
 4228 01bc 08000000 		.4byte	.LVL31
 4229 01c0 15000000 		.4byte	.LVL32-1
 4230 01c4 0100     		.2byte	0x1
 4231 01c6 50       		.byte	0x50
 4232 01c7 15000000 		.4byte	.LVL32-1
 4233 01cb 9C000000 		.4byte	.LFE260
 4234 01cf 0400     		.2byte	0x4
 4235 01d1 F3       		.byte	0xf3
 4236 01d2 01       		.uleb128 0x1
 4237 01d3 50       		.byte	0x50
 4238 01d4 9F       		.byte	0x9f
 4239 01d5 00000000 		.4byte	0
 4240 01d9 00000000 		.4byte	0
 4241              	.LLST10:
 4242 01dd 00000000 		.4byte	.LVL29
 4243 01e1 15000000 		.4byte	.LVL32-1
 4244 01e5 0100     		.2byte	0x1
 4245 01e7 51       		.byte	0x51
 4246 01e8 15000000 		.4byte	.LVL32-1
 4247 01ec 9C000000 		.4byte	.LFE260
 4248 01f0 0200     		.2byte	0x2
 4249 01f2 91       		.byte	0x91
 4250 01f3 60       		.sleb128 -32
 4251 01f4 00000000 		.4byte	0
 4252 01f8 00000000 		.4byte	0
 4253              	.LLST11:
 4254 01fc 00000000 		.4byte	.LVL29
 4255 0200 15000000 		.4byte	.LVL32-1
 4256 0204 0100     		.2byte	0x1
 4257 0206 52       		.byte	0x52
 4258 0207 15000000 		.4byte	.LVL32-1
 4259 020b 9C000000 		.4byte	.LFE260
ARM GAS  C:\Users\jo\AppData\Local\Temp\ccRedE1P.s 			page 77


 4260 020f 0400     		.2byte	0x4
 4261 0211 F3       		.byte	0xf3
 4262 0212 01       		.uleb128 0x1
 4263 0213 52       		.byte	0x52
 4264 0214 9F       		.byte	0x9f
 4265 0215 00000000 		.4byte	0
 4266 0219 00000000 		.4byte	0
 4267              	.LLST12:
 4268 021d 00000000 		.4byte	.LVL29
 4269 0221 26000000 		.4byte	.LVL33
 4270 0225 0200     		.2byte	0x2
 4271 0227 30       		.byte	0x30
 4272 0228 9F       		.byte	0x9f
 4273 0229 26000000 		.4byte	.LVL33
 4274 022d 30000000 		.4byte	.LVL35
 4275 0231 0100     		.2byte	0x1
 4276 0233 54       		.byte	0x54
 4277 0234 30000000 		.4byte	.LVL35
 4278 0238 9C000000 		.4byte	.LFE260
 4279 023c 0200     		.2byte	0x2
 4280 023e 30       		.byte	0x30
 4281 023f 9F       		.byte	0x9f
 4282 0240 00000000 		.4byte	0
 4283 0244 00000000 		.4byte	0
 4284              	.LLST13:
 4285 0248 54000000 		.4byte	.LVL36
 4286 024c 74000000 		.4byte	.LVL37
 4287 0250 0100     		.2byte	0x1
 4288 0252 50       		.byte	0x50
 4289 0253 00000000 		.4byte	0
 4290 0257 00000000 		.4byte	0
 4291              	.LLST14:
 4292 025b 00000000 		.4byte	.LVL52
 4293 025f 48000000 		.4byte	.LVL55
 4294 0263 0200     		.2byte	0x2
 4295 0265 30       		.byte	0x30
 4296 0266 9F       		.byte	0x9f
 4297 0267 48000000 		.4byte	.LVL55
 4298 026b 88000000 		.4byte	.LVL58
 4299 026f 0100     		.2byte	0x1
 4300 0271 56       		.byte	0x56
 4301 0272 88000000 		.4byte	.LVL58
 4302 0276 90000000 		.4byte	.LVL60
 4303 027a 0200     		.2byte	0x2
 4304 027c 30       		.byte	0x30
 4305 027d 9F       		.byte	0x9f
 4306 027e 90000000 		.4byte	.LVL60
 4307 0282 A6000000 		.4byte	.LVL64
 4308 0286 0100     		.2byte	0x1
 4309 0288 56       		.byte	0x56
 4310 0289 AA000000 		.4byte	.LVL65
 4311 028d DC000000 		.4byte	.LFE263
 4312 0291 0200     		.2byte	0x2
 4313 0293 30       		.byte	0x30
 4314 0294 9F       		.byte	0x9f
 4315 0295 00000000 		.4byte	0
 4316 0299 00000000 		.4byte	0
ARM GAS  C:\Users\jo\AppData\Local\Temp\ccRedE1P.s 			page 78


 4317              		.section	.debug_aranges,"",%progbits
 4318 0000 84000000 		.4byte	0x84
 4319 0004 0200     		.2byte	0x2
 4320 0006 00000000 		.4byte	.Ldebug_info0
 4321 000a 04       		.byte	0x4
 4322 000b 00       		.byte	0
 4323 000c 0000     		.2byte	0
 4324 000e 0000     		.2byte	0
 4325 0010 00000000 		.4byte	.LFB256
 4326 0014 54000000 		.4byte	.LFE256-.LFB256
 4327 0018 00000000 		.4byte	.LFB257
 4328 001c 24000000 		.4byte	.LFE257-.LFB257
 4329 0020 00000000 		.4byte	.LFB258
 4330 0024 1A000000 		.4byte	.LFE258-.LFB258
 4331 0028 00000000 		.4byte	.LFB259
 4332 002c 74000000 		.4byte	.LFE259-.LFB259
 4333 0030 00000000 		.4byte	.LFB260
 4334 0034 9C000000 		.4byte	.LFE260-.LFB260
 4335 0038 00000000 		.4byte	.LFB261
 4336 003c A8000000 		.4byte	.LFE261-.LFB261
 4337 0040 00000000 		.4byte	.LFB262
 4338 0044 A8000000 		.4byte	.LFE262-.LFB262
 4339 0048 00000000 		.4byte	.LFB263
 4340 004c DC000000 		.4byte	.LFE263-.LFB263
 4341 0050 00000000 		.4byte	.LFB264
 4342 0054 0C000000 		.4byte	.LFE264-.LFB264
 4343 0058 00000000 		.4byte	.LFB265
 4344 005c 0C000000 		.4byte	.LFE265-.LFB265
 4345 0060 00000000 		.4byte	.LFB266
 4346 0064 0C000000 		.4byte	.LFE266-.LFB266
 4347 0068 00000000 		.4byte	.LFB267
 4348 006c 0C000000 		.4byte	.LFE267-.LFB267
 4349 0070 00000000 		.4byte	.LFB268
 4350 0074 0C000000 		.4byte	.LFE268-.LFB268
 4351 0078 00000000 		.4byte	.LFB269
 4352 007c 0C000000 		.4byte	.LFE269-.LFB269
 4353 0080 00000000 		.4byte	0
 4354 0084 00000000 		.4byte	0
 4355              		.section	.debug_ranges,"",%progbits
 4356              	.Ldebug_ranges0:
 4357 0000 00000000 		.4byte	.LFB256
 4358 0004 54000000 		.4byte	.LFE256
 4359 0008 00000000 		.4byte	.LFB257
 4360 000c 24000000 		.4byte	.LFE257
 4361 0010 00000000 		.4byte	.LFB258
 4362 0014 1A000000 		.4byte	.LFE258
 4363 0018 00000000 		.4byte	.LFB259
 4364 001c 74000000 		.4byte	.LFE259
 4365 0020 00000000 		.4byte	.LFB260
 4366 0024 9C000000 		.4byte	.LFE260
 4367 0028 00000000 		.4byte	.LFB261
 4368 002c A8000000 		.4byte	.LFE261
 4369 0030 00000000 		.4byte	.LFB262
 4370 0034 A8000000 		.4byte	.LFE262
 4371 0038 00000000 		.4byte	.LFB263
 4372 003c DC000000 		.4byte	.LFE263
 4373 0040 00000000 		.4byte	.LFB264
ARM GAS  C:\Users\jo\AppData\Local\Temp\ccRedE1P.s 			page 79


 4374 0044 0C000000 		.4byte	.LFE264
 4375 0048 00000000 		.4byte	.LFB265
 4376 004c 0C000000 		.4byte	.LFE265
 4377 0050 00000000 		.4byte	.LFB266
 4378 0054 0C000000 		.4byte	.LFE266
 4379 0058 00000000 		.4byte	.LFB267
 4380 005c 0C000000 		.4byte	.LFE267
 4381 0060 00000000 		.4byte	.LFB268
 4382 0064 0C000000 		.4byte	.LFE268
 4383 0068 00000000 		.4byte	.LFB269
 4384 006c 0C000000 		.4byte	.LFE269
 4385 0070 00000000 		.4byte	0
 4386 0074 00000000 		.4byte	0
 4387              		.section	.debug_line,"",%progbits
 4388              	.Ldebug_line0:
 4389 0000 D1040000 		.section	.debug_str,"MS",%progbits,1
 4389      0200D302 
 4389      00000201 
 4389      FB0E0D00 
 4389      01010101 
 4390              	.LASF53:
 4391 0000 72656164 		.ascii	"ready_list_t\000"
 4391      795F6C69 
 4391      73745F74 
 4391      00
 4392              	.LASF2:
 4393 000d 73697A65 		.ascii	"size_t\000"
 4393      5F7400
 4394              	.LASF87:
 4395 0014 7264796D 		.ascii	"rdymsg\000"
 4395      736700
 4396              	.LASF137:
 4397 001b 4D425F45 		.ascii	"MB_EIO\000"
 4397      494F00
 4398              	.LASF21:
 4399 0022 75696E74 		.ascii	"uint64_t\000"
 4399      36345F74 
 4399      00
 4400              	.LASF3:
 4401 002b 5F5F7569 		.ascii	"__uint8_t\000"
 4401      6E74385F 
 4401      7400
 4402              	.LASF163:
 4403 0035 70756352 		.ascii	"pucRcvAddress\000"
 4403      63764164 
 4403      64726573 
 4403      7300
 4404              	.LASF99:
 4405 0043 4F545950 		.ascii	"OTYPER\000"
 4405      455200
 4406              	.LASF84:
 4407 004a 706F7274 		.ascii	"port_intctx\000"
 4407      5F696E74 
 4407      63747800 
 4408              	.LASF190:
 4409 0056 7075634D 		.ascii	"pucMasterSndBufferCur\000"
 4409      61737465 
ARM GAS  C:\Users\jo\AppData\Local\Temp\ccRedE1P.s 			page 80


 4409      72536E64 
 4409      42756666 
 4409      65724375 
 4410              	.LASF72:
 4411 006c 73797374 		.ascii	"system_debug_t\000"
 4411      656D5F64 
 4411      65627567 
 4411      5F7400
 4412              	.LASF108:
 4413 007b 424F4F4C 		.ascii	"BOOL\000"
 4413      00
 4414              	.LASF107:
 4415 0080 696F706F 		.ascii	"ioportmask_t\000"
 4415      72746D61 
 4415      736B5F74 
 4415      00
 4416              	.LASF206:
 4417 008d 764D424D 		.ascii	"vMBMasterPortTimersRespondTimeoutEnable\000"
 4417      61737465 
 4417      72506F72 
 4417      7454696D 
 4417      65727352 
 4418              	.LASF194:
 4419 00b5 654D6173 		.ascii	"eMasterCurTimerMode\000"
 4419      74657243 
 4419      75725469 
 4419      6D65724D 
 4419      6F646500 
 4420              	.LASF172:
 4421 00c9 75634279 		.ascii	"ucByte\000"
 4421      746500
 4422              	.LASF98:
 4423 00d0 4D4F4445 		.ascii	"MODER\000"
 4423      5200
 4424              	.LASF14:
 4425 00d6 6C6F6E67 		.ascii	"long long unsigned int\000"
 4425      206C6F6E 
 4425      6720756E 
 4425      7369676E 
 4425      65642069 
 4426              	.LASF101:
 4427 00ed 50555044 		.ascii	"PUPDR\000"
 4427      5200
 4428              	.LASF88:
 4429 00f3 65786974 		.ascii	"exitcode\000"
 4429      636F6465 
 4429      00
 4430              	.LASF145:
 4431 00fc 53544154 		.ascii	"STATE_M_RX_INIT\000"
 4431      455F4D5F 
 4431      52585F49 
 4431      4E495400 
 4432              	.LASF8:
 4433 010c 5F5F696E 		.ascii	"__int32_t\000"
 4433      7433325F 
 4433      7400
 4434              	.LASF69:
ARM GAS  C:\Users\jo\AppData\Local\Temp\ccRedE1P.s 			page 81


 4435 0116 76697274 		.ascii	"virtual_timers_list_t\000"
 4435      75616C5F 
 4435      74696D65 
 4435      72735F6C 
 4435      6973745F 
 4436              	.LASF174:
 4437 012c 784D424D 		.ascii	"xMBMasterRTUTransmitFSM\000"
 4437      61737465 
 4437      72525455 
 4437      5472616E 
 4437      736D6974 
 4438              	.LASF126:
 4439 0144 45565F45 		.ascii	"EV_ERROR_EXECUTE_FUNCTION\000"
 4439      52524F52 
 4439      5F455845 
 4439      43555445 
 4439      5F46554E 
 4440              	.LASF154:
 4441 015e 7563506F 		.ascii	"ucPort\000"
 4441      727400
 4442              	.LASF184:
 4443 0165 784D424D 		.ascii	"xMBMasterRequestIsBroadcast\000"
 4443      61737465 
 4443      72526571 
 4443      75657374 
 4443      49734272 
 4444              	.LASF181:
 4445 0181 764D424D 		.ascii	"vMBMasterSetCurTimerMode\000"
 4445      61737465 
 4445      72536574 
 4445      43757254 
 4445      696D6572 
 4446              	.LASF52:
 4447 019a 63685F74 		.ascii	"ch_threads_queue\000"
 4447      68726561 
 4447      64735F71 
 4447      75657565 
 4447      00
 4448              	.LASF161:
 4449 01ab 654D424D 		.ascii	"eMBMasterRTUInit\000"
 4449      61737465 
 4449      72525455 
 4449      496E6974 
 4449      00
 4450              	.LASF33:
 4451 01bc 705F7072 		.ascii	"p_prio\000"
 4451      696F00
 4452              	.LASF178:
 4453 01c3 764D424D 		.ascii	"vMBMasterGetPDUSndBuf\000"
 4453      61737465 
 4453      72476574 
 4453      50445553 
 4453      6E644275 
 4454              	.LASF12:
 4455 01d9 6C6F6E67 		.ascii	"long long int\000"
 4455      206C6F6E 
 4455      6720696E 
ARM GAS  C:\Users\jo\AppData\Local\Temp\ccRedE1P.s 			page 82


 4455      7400
 4456              	.LASF1:
 4457 01e7 7369676E 		.ascii	"signed char\000"
 4457      65642063 
 4457      68617200 
 4458              	.LASF102:
 4459 01f3 42535252 		.ascii	"BSRR\000"
 4459      00
 4460              	.LASF47:
 4461 01f8 705F6D70 		.ascii	"p_mpool\000"
 4461      6F6F6C00 
 4462              	.LASF92:
 4463 0200 6D5F7175 		.ascii	"m_queue\000"
 4463      65756500 
 4464              	.LASF112:
 4465 0208 554C4F4E 		.ascii	"ULONG\000"
 4465      4700
 4466              	.LASF143:
 4467 020e 4D425F54 		.ascii	"MB_TMODE_CONVERT_DELAY\000"
 4467      4D4F4445 
 4467      5F434F4E 
 4467      56455254 
 4467      5F44454C 
 4468              	.LASF167:
 4469 0225 7563536C 		.ascii	"ucSlaveAddress\000"
 4469      61766541 
 4469      64647265 
 4469      737300
 4470              	.LASF182:
 4471 0234 654D4254 		.ascii	"eMBTimerMode\000"
 4471      696D6572 
 4471      4D6F6465 
 4471      00
 4472              	.LASF118:
 4473 0241 45565F4D 		.ascii	"EV_MASTER_PROCESS_SUCESS\000"
 4473      41535445 
 4473      525F5052 
 4473      4F434553 
 4473      535F5355 
 4474              	.LASF187:
 4475 025a 75634D61 		.ascii	"ucMasterRTUSndBuf\000"
 4475      73746572 
 4475      52545553 
 4475      6E644275 
 4475      6600
 4476              	.LASF109:
 4477 026c 55434841 		.ascii	"UCHAR\000"
 4477      5200
 4478              	.LASF171:
 4479 0272 78546173 		.ascii	"xTaskNeedSwitch\000"
 4479      6B4E6565 
 4479      64537769 
 4479      74636800 
 4480              	.LASF76:
 4481 0282 63685F73 		.ascii	"ch_system\000"
 4481      79737465 
 4481      6D00
ARM GAS  C:\Users\jo\AppData\Local\Temp\ccRedE1P.s 			page 83


 4482              	.LASF9:
 4483 028c 6C6F6E67 		.ascii	"long int\000"
 4483      20696E74 
 4483      00
 4484              	.LASF166:
 4485 0295 654D424D 		.ascii	"eMBMasterRTUSend\000"
 4485      61737465 
 4485      72525455 
 4485      53656E64 
 4485      00
 4486              	.LASF177:
 4487 02a6 764D424D 		.ascii	"vMBMasterGetRTUSndBuf\000"
 4487      61737465 
 4487      72476574 
 4487      52545553 
 4487      6E644275 
 4488              	.LASF140:
 4489 02bc 654D4245 		.ascii	"eMBErrorCode\000"
 4489      72726F72 
 4489      436F6465 
 4489      00
 4490              	.LASF24:
 4491 02c9 74737461 		.ascii	"tstate_t\000"
 4491      74655F74 
 4491      00
 4492              	.LASF209:
 4493 02d2 764D424D 		.ascii	"vMBMasterSetErrorType\000"
 4493      61737465 
 4493      72536574 
 4493      4572726F 
 4493      72547970 
 4494              	.LASF128:
 4495 02e8 4D425F50 		.ascii	"MB_PAR_NONE\000"
 4495      41525F4E 
 4495      4F4E4500 
 4496              	.LASF122:
 4497 02f4 654D424D 		.ascii	"eMBMasterEventType\000"
 4497      61737465 
 4497      72457665 
 4497      6E745479 
 4497      706500
 4498              	.LASF162:
 4499 0307 654D424D 		.ascii	"eMBMasterRTUReceive\000"
 4499      61737465 
 4499      72525455 
 4499      52656365 
 4499      69766500 
 4500              	.LASF115:
 4501 031b 45565F4D 		.ascii	"EV_MASTER_EXECUTE\000"
 4501      41535445 
 4501      525F4558 
 4501      45435554 
 4501      4500
 4502              	.LASF212:
 4503 032d 46726565 		.ascii	"FreeModbus/modbus/rtu/mbrtu_m.c\000"
 4503      4D6F6462 
 4503      75732F6D 
ARM GAS  C:\Users\jo\AppData\Local\Temp\ccRedE1P.s 			page 84


 4503      6F646275 
 4503      732F7274 
 4504              	.LASF35:
 4505 034d 705F6E65 		.ascii	"p_newer\000"
 4505      77657200 
 4506              	.LASF7:
 4507 0355 73686F72 		.ascii	"short unsigned int\000"
 4507      7420756E 
 4507      7369676E 
 4507      65642069 
 4507      6E7400
 4508              	.LASF100:
 4509 0368 4F535045 		.ascii	"OSPEEDR\000"
 4509      45445200 
 4510              	.LASF58:
 4511 0370 725F6E65 		.ascii	"r_newer\000"
 4511      77657200 
 4512              	.LASF81:
 4513 0378 72656761 		.ascii	"regarm_t\000"
 4513      726D5F74 
 4513      00
 4514              	.LASF65:
 4515 0381 76745F70 		.ascii	"vt_prev\000"
 4515      72657600 
 4516              	.LASF78:
 4517 0389 76746C69 		.ascii	"vtlist\000"
 4517      737400
 4518              	.LASF106:
 4519 0390 73746D33 		.ascii	"stm32_gpio_t\000"
 4519      325F6770 
 4519      696F5F74 
 4519      00
 4520              	.LASF95:
 4521 039d 6D757465 		.ascii	"mutex_t\000"
 4521      785F7400 
 4522              	.LASF80:
 4523 03a5 69646C65 		.ascii	"idle_thread_wa\000"
 4523      5F746872 
 4523      6561645F 
 4523      776100
 4524              	.LASF114:
 4525 03b4 45565F4D 		.ascii	"EV_MASTER_FRAME_RECEIVED\000"
 4525      41535445 
 4525      525F4652 
 4525      414D455F 
 4525      52454345 
 4526              	.LASF192:
 4527 03cd 75734D61 		.ascii	"usMasterRcvBufferPos\000"
 4527      73746572 
 4527      52637642 
 4527      75666665 
 4527      72506F73 
 4528              	.LASF64:
 4529 03e2 76745F6E 		.ascii	"vt_next\000"
 4529      65787400 
 4530              	.LASF157:
 4531 03ea 65537461 		.ascii	"eStatus\000"
ARM GAS  C:\Users\jo\AppData\Local\Temp\ccRedE1P.s 			page 85


 4531      74757300 
 4532              	.LASF94:
 4533 03f2 6D5F6E65 		.ascii	"m_next\000"
 4533      787400
 4534              	.LASF164:
 4535 03f9 70756346 		.ascii	"pucFrame\000"
 4535      72616D65 
 4535      00
 4536              	.LASF66:
 4537 0402 76745F64 		.ascii	"vt_delta\000"
 4537      656C7461 
 4537      00
 4538              	.LASF42:
 4539 040b 705F6D73 		.ascii	"p_msgqueue\000"
 4539      67717565 
 4539      756500
 4540              	.LASF136:
 4541 0416 4D425F45 		.ascii	"MB_ENORES\000"
 4541      4E4F5245 
 4541      5300
 4542              	.LASF180:
 4543 0420 53656E64 		.ascii	"SendPDULength\000"
 4543      5044554C 
 4543      656E6774 
 4543      6800
 4544              	.LASF173:
 4545 042e 5F5F4655 		.ascii	"__FUNCTION__\000"
 4545      4E435449 
 4545      4F4E5F5F 
 4545      00
 4546              	.LASF103:
 4547 043b 4C434B52 		.ascii	"LCKR\000"
 4547      00
 4548              	.LASF117:
 4549 0440 45565F4D 		.ascii	"EV_MASTER_ERROR_PROCESS\000"
 4549      41535445 
 4549      525F4552 
 4549      524F525F 
 4549      50524F43 
 4550              	.LASF133:
 4551 0458 4D425F45 		.ascii	"MB_ENOREG\000"
 4551      4E4F5245 
 4551      4700
 4552              	.LASF119:
 4553 0462 45565F4D 		.ascii	"EV_MASTER_ERROR_RESPOND_TIMEOUT\000"
 4553      41535445 
 4553      525F4552 
 4553      524F525F 
 4553      52455350 
 4554              	.LASF49:
 4555 0482 63685F74 		.ascii	"ch_thread\000"
 4555      68726561 
 4555      6400
 4556              	.LASF148:
 4557 048c 53544154 		.ascii	"STATE_M_RX_ERROR\000"
 4557      455F4D5F 
 4557      52585F45 
ARM GAS  C:\Users\jo\AppData\Local\Temp\ccRedE1P.s 			page 86


 4557      52524F52 
 4557      00
 4558              	.LASF79:
 4559 049d 6D61696E 		.ascii	"mainthread\000"
 4559      74687265 
 4559      616400
 4560              	.LASF27:
 4561 04a8 6D73675F 		.ascii	"msg_t\000"
 4561      7400
 4562              	.LASF141:
 4563 04ae 4D425F54 		.ascii	"MB_TMODE_T35\000"
 4563      4D4F4445 
 4563      5F543335 
 4563      00
 4564              	.LASF132:
 4565 04bb 4D425F45 		.ascii	"MB_ENOERR\000"
 4565      4E4F4552 
 4565      5200
 4566              	.LASF75:
 4567 04c5 63685F73 		.ascii	"ch_system_t\000"
 4567      79737465 
 4567      6D5F7400 
 4568              	.LASF175:
 4569 04d1 784E6565 		.ascii	"xNeedPoll\000"
 4569      64506F6C 
 4569      6C00
 4570              	.LASF155:
 4571 04db 756C4261 		.ascii	"ulBaudRate\000"
 4571      75645261 
 4571      746500
 4572              	.LASF23:
 4573 04e6 746D6F64 		.ascii	"tmode_t\000"
 4573      655F7400 
 4574              	.LASF18:
 4575 04ee 75696E74 		.ascii	"uint16_t\000"
 4575      31365F74 
 4575      00
 4576              	.LASF203:
 4577 04f7 764D424D 		.ascii	"vMBMasterPortSerialEnable\000"
 4577      61737465 
 4577      72506F72 
 4577      74536572 
 4577      69616C45 
 4578              	.LASF147:
 4579 0511 53544154 		.ascii	"STATE_M_RX_RCV\000"
 4579      455F4D5F 
 4579      52585F52 
 4579      435600
 4580              	.LASF54:
 4581 0520 63685F72 		.ascii	"ch_ready_list\000"
 4581      65616479 
 4581      5F6C6973 
 4581      7400
 4582              	.LASF28:
 4583 052e 6576656E 		.ascii	"eventmask_t\000"
 4583      746D6173 
 4583      6B5F7400 
ARM GAS  C:\Users\jo\AppData\Local\Temp\ccRedE1P.s 			page 87


 4584              	.LASF127:
 4585 053a 654D424D 		.ascii	"eMBMasterErrorEventType\000"
 4585      61737465 
 4585      72457272 
 4585      6F724576 
 4585      656E7454 
 4586              	.LASF82:
 4587 0552 73746B61 		.ascii	"stkalign_t\000"
 4587      6C69676E 
 4587      5F7400
 4588              	.LASF202:
 4589 055d 75734D42 		.ascii	"usMBCRC16\000"
 4589      43524331 
 4589      3600
 4590              	.LASF138:
 4591 0567 4D425F45 		.ascii	"MB_EILLSTATE\000"
 4591      494C4C53 
 4591      54415445 
 4591      00
 4592              	.LASF201:
 4593 0574 764D424D 		.ascii	"vMBMasterPortTimersDisable\000"
 4593      61737465 
 4593      72506F72 
 4593      7454696D 
 4593      65727344 
 4594              	.LASF121:
 4595 058f 45565F4D 		.ascii	"EV_MASTER_ERROR_EXECUTE_FUNCTION\000"
 4595      41535445 
 4595      525F4552 
 4595      524F525F 
 4595      45584543 
 4596              	.LASF176:
 4597 05b0 784D424D 		.ascii	"xMBMasterRTUTimerExpired\000"
 4597      61737465 
 4597      72525455 
 4597      54696D65 
 4597      72457870 
 4598              	.LASF139:
 4599 05c9 4D425F45 		.ascii	"MB_ETIMEDOUT\000"
 4599      54494D45 
 4599      444F5554 
 4599      00
 4600              	.LASF15:
 4601 05d6 73697A65 		.ascii	"sizetype\000"
 4601      74797065 
 4601      00
 4602              	.LASF70:
 4603 05df 63685F76 		.ascii	"ch_virtual_timers_list\000"
 4603      69727475 
 4603      616C5F74 
 4603      696D6572 
 4603      735F6C69 
 4604              	.LASF97:
 4605 05f6 636C6561 		.ascii	"clear\000"
 4605      7200
 4606              	.LASF134:
 4607 05fc 4D425F45 		.ascii	"MB_EINVAL\000"
ARM GAS  C:\Users\jo\AppData\Local\Temp\ccRedE1P.s 			page 88


 4607      494E5641 
 4607      4C00
 4608              	.LASF193:
 4609 0606 78467261 		.ascii	"xFrameIsBroadcast\000"
 4609      6D654973 
 4609      42726F61 
 4609      64636173 
 4609      7400
 4610              	.LASF111:
 4611 0618 5553484F 		.ascii	"USHORT\000"
 4611      525400
 4612              	.LASF152:
 4613 061f 53544154 		.ascii	"STATE_M_TX_XFWR\000"
 4613      455F4D5F 
 4613      54585F58 
 4613      46575200 
 4614              	.LASF86:
 4615 062f 746D5F63 		.ascii	"tm_calibration_t\000"
 4615      616C6962 
 4615      72617469 
 4615      6F6E5F74 
 4615      00
 4616              	.LASF71:
 4617 0640 76745F6C 		.ascii	"vt_lasttime\000"
 4617      61737474 
 4617      696D6500 
 4618              	.LASF36:
 4619 064c 705F6F6C 		.ascii	"p_older\000"
 4619      64657200 
 4620              	.LASF189:
 4621 0654 75734D61 		.ascii	"usMasterSendPDULength\000"
 4621      73746572 
 4621      53656E64 
 4621      5044554C 
 4621      656E6774 
 4622              	.LASF57:
 4623 066a 725F6374 		.ascii	"r_ctx\000"
 4623      7800
 4624              	.LASF151:
 4625 0670 53544154 		.ascii	"STATE_M_TX_XMIT\000"
 4625      455F4D5F 
 4625      54585F58 
 4625      4D495400 
 4626              	.LASF191:
 4627 0680 75734D61 		.ascii	"usMasterSndBufferCount\000"
 4627      73746572 
 4627      536E6442 
 4627      75666665 
 4627      72436F75 
 4628              	.LASF200:
 4629 0697 764D424D 		.ascii	"vMBMasterPortTimersT35Enable\000"
 4629      61737465 
 4629      72506F72 
 4629      7454696D 
 4629      65727354 
 4630              	.LASF179:
 4631 06b4 764D424D 		.ascii	"vMBMasterSetPDUSndLength\000"
ARM GAS  C:\Users\jo\AppData\Local\Temp\ccRedE1P.s 			page 89


 4631      61737465 
 4631      72536574 
 4631      50445553 
 4631      6E644C65 
 4632              	.LASF183:
 4633 06cd 75734D42 		.ascii	"usMBMasterGetPDUSndLength\000"
 4633      4D617374 
 4633      65724765 
 4633      74504455 
 4633      536E644C 
 4634              	.LASF169:
 4635 06e7 75734352 		.ascii	"usCRC16\000"
 4635      43313600 
 4636              	.LASF60:
 4637 06ef 725F6375 		.ascii	"r_current\000"
 4637      7272656E 
 4637      7400
 4638              	.LASF59:
 4639 06f9 725F6F6C 		.ascii	"r_older\000"
 4639      64657200 
 4640              	.LASF13:
 4641 0701 5F5F7569 		.ascii	"__uint64_t\000"
 4641      6E743634 
 4641      5F7400
 4642              	.LASF105:
 4643 070c 41465248 		.ascii	"AFRH\000"
 4643      00
 4644              	.LASF104:
 4645 0711 4146524C 		.ascii	"AFRL\000"
 4645      00
 4646              	.LASF25:
 4647 0716 74726566 		.ascii	"trefs_t\000"
 4647      735F7400 
 4648              	.LASF62:
 4649 071e 76697274 		.ascii	"virtual_timer_t\000"
 4649      75616C5F 
 4649      74696D65 
 4649      725F7400 
 4650              	.LASF32:
 4651 072e 705F7072 		.ascii	"p_prev\000"
 4651      657600
 4652              	.LASF196:
 4653 0735 456E7465 		.ascii	"EnterCriticalSection\000"
 4653      72437269 
 4653      74696361 
 4653      6C536563 
 4653      74696F6E 
 4654              	.LASF26:
 4655 074a 74707269 		.ascii	"tprio_t\000"
 4655      6F5F7400 
 4656              	.LASF91:
 4657 0752 6D757465 		.ascii	"mutex\000"
 4657      7800
 4658              	.LASF73:
 4659 0758 63685F73 		.ascii	"ch_system_debug\000"
 4659      79737465 
 4659      6D5F6465 
ARM GAS  C:\Users\jo\AppData\Local\Temp\ccRedE1P.s 			page 90


 4659      62756700 
 4660              	.LASF96:
 4661 0768 5F426F6F 		.ascii	"_Bool\000"
 4661      6C00
 4662              	.LASF19:
 4663 076e 696E7433 		.ascii	"int32_t\000"
 4663      325F7400 
 4664              	.LASF4:
 4665 0776 756E7369 		.ascii	"unsigned char\000"
 4665      676E6564 
 4665      20636861 
 4665      7200
 4666              	.LASF168:
 4667 0784 75734C65 		.ascii	"usLength\000"
 4667      6E677468 
 4667      00
 4668              	.LASF195:
 4669 078d 49544D5F 		.ascii	"ITM_RxBuffer\000"
 4669      52784275 
 4669      66666572 
 4669      00
 4670              	.LASF45:
 4671 079a 705F6D74 		.ascii	"p_mtxlist\000"
 4671      786C6973 
 4671      7400
 4672              	.LASF5:
 4673 07a4 73686F72 		.ascii	"short int\000"
 4673      7420696E 
 4673      7400
 4674              	.LASF38:
 4675 07ae 705F7374 		.ascii	"p_state\000"
 4675      61746500 
 4676              	.LASF197:
 4677 07b6 45786974 		.ascii	"ExitCriticalSection\000"
 4677      43726974 
 4677      6963616C 
 4677      53656374 
 4677      696F6E00 
 4678              	.LASF56:
 4679 07ca 725F7072 		.ascii	"r_prio\000"
 4679      696F00
 4680              	.LASF90:
 4681 07d1 65776D61 		.ascii	"ewmask\000"
 4681      736B00
 4682              	.LASF31:
 4683 07d8 705F6E65 		.ascii	"p_next\000"
 4683      787400
 4684              	.LASF211:
 4685 07df 474E5520 		.ascii	"GNU C 4.9.3 20141119 (release) [ARM/embedded-4_9-br"
 4685      4320342E 
 4685      392E3320 
 4685      32303134 
 4685      31313139 
 4686 0812 616E6368 		.ascii	"anch revision 218278] -mcpu=cortex-m4 -mfloat-abi=h"
 4686      20726576 
 4686      6973696F 
 4686      6E203231 
ARM GAS  C:\Users\jo\AppData\Local\Temp\ccRedE1P.s 			page 91


 4686      38323738 
 4687 0845 61726420 		.ascii	"ard -mfpu=fpv4-sp-d16 -mno-thumb-interwork -mthumb "
 4687      2D6D6670 
 4687      753D6670 
 4687      76342D73 
 4687      702D6431 
 4688 0878 2D676764 		.ascii	"-ggdb -O2 -fomit-frame-pointer -falign-functions=16"
 4688      62202D4F 
 4688      32202D66 
 4688      6F6D6974 
 4688      2D667261 
 4689 08ab 202D6666 		.ascii	" -ffunction-sections -fdata-sections -fno-common -f"
 4689      756E6374 
 4689      696F6E2D 
 4689      73656374 
 4689      696F6E73 
 4690 08de 73696E67 		.ascii	"single-precision-constant\000"
 4690      6C652D70 
 4690      72656369 
 4690      73696F6E 
 4690      2D636F6E 
 4691              	.LASF39:
 4692 08f8 705F666C 		.ascii	"p_flags\000"
 4692      61677300 
 4693              	.LASF208:
 4694 0900 764D424D 		.ascii	"vMBMasterPortTimersConvertDelayEnable\000"
 4694      61737465 
 4694      72506F72 
 4694      7454696D 
 4694      65727343 
 4695              	.LASF142:
 4696 0926 4D425F54 		.ascii	"MB_TMODE_RESPOND_TIMEOUT\000"
 4696      4D4F4445 
 4696      5F524553 
 4696      504F4E44 
 4696      5F54494D 
 4697              	.LASF158:
 4698 093f 75735469 		.ascii	"usTimerT35_50us\000"
 4698      6D657254 
 4698      33355F35 
 4698      30757300 
 4699              	.LASF44:
 4700 094f 705F6570 		.ascii	"p_epending\000"
 4700      656E6469 
 4700      6E6700
 4701              	.LASF160:
 4702 095a 654D424D 		.ascii	"eMBMasterRTUStop\000"
 4702      61737465 
 4702      72525455 
 4702      53746F70 
 4702      00
 4703              	.LASF113:
 4704 096b 45565F4D 		.ascii	"EV_MASTER_READY\000"
 4704      41535445 
 4704      525F5245 
 4704      41445900 
 4705              	.LASF20:
ARM GAS  C:\Users\jo\AppData\Local\Temp\ccRedE1P.s 			page 92


 4706 097b 75696E74 		.ascii	"uint32_t\000"
 4706      33325F74 
 4706      00
 4707              	.LASF55:
 4708 0984 725F7175 		.ascii	"r_queue\000"
 4708      65756500 
 4709              	.LASF50:
 4710 098c 63685F74 		.ascii	"ch_threads_list\000"
 4710      68726561 
 4710      64735F6C 
 4710      69737400 
 4711              	.LASF205:
 4712 099c 784D424D 		.ascii	"xMBMasterPortSerialGetByte\000"
 4712      61737465 
 4712      72506F72 
 4712      74536572 
 4712      69616C47 
 4713              	.LASF11:
 4714 09b7 6C6F6E67 		.ascii	"long unsigned int\000"
 4714      20756E73 
 4714      69676E65 
 4714      6420696E 
 4714      7400
 4715              	.LASF16:
 4716 09c9 63686172 		.ascii	"char\000"
 4716      00
 4717              	.LASF120:
 4718 09ce 45565F4D 		.ascii	"EV_MASTER_ERROR_RECEIVE_DATA\000"
 4718      41535445 
 4718      525F4552 
 4718      524F525F 
 4718      52454345 
 4719              	.LASF0:
 4720 09eb 756E7369 		.ascii	"unsigned int\000"
 4720      676E6564 
 4720      20696E74 
 4720      00
 4721              	.LASF213:
 4722 09f8 433A5C55 		.ascii	"C:\\Users\\jo\\Documents\\GitHub\\ChibiOS\\demos\\S"
 4722      73657273 
 4722      5C6A6F5C 
 4722      446F6375 
 4722      6D656E74 
 4723 0a24 544D3332 		.ascii	"TM32\\RT-STM32F407-DISCOVERY\000"
 4723      5C52542D 
 4723      53544D33 
 4723      32463430 
 4723      372D4449 
 4724              	.LASF6:
 4725 0a40 5F5F7569 		.ascii	"__uint16_t\000"
 4725      6E743136 
 4725      5F7400
 4726              	.LASF198:
 4727 0a4b 784D424D 		.ascii	"xMBMasterPortSerialInit\000"
 4727      61737465 
 4727      72506F72 
 4727      74536572 
ARM GAS  C:\Users\jo\AppData\Local\Temp\ccRedE1P.s 			page 93


 4727      69616C49 
 4728              	.LASF30:
 4729 0a63 74687265 		.ascii	"thread_t\000"
 4729      61645F74 
 4729      00
 4730              	.LASF130:
 4731 0a6c 4D425F50 		.ascii	"MB_PAR_EVEN\000"
 4731      41525F45 
 4731      56454E00 
 4732              	.LASF110:
 4733 0a78 43484152 		.ascii	"CHAR\000"
 4733      00
 4734              	.LASF29:
 4735 0a7d 73797374 		.ascii	"systime_t\000"
 4735      696D655F 
 4735      7400
 4736              	.LASF46:
 4737 0a87 705F7265 		.ascii	"p_realprio\000"
 4737      616C7072 
 4737      696F00
 4738              	.LASF61:
 4739 0a92 76746675 		.ascii	"vtfunc_t\000"
 4739      6E635F74 
 4739      00
 4740              	.LASF10:
 4741 0a9b 5F5F7569 		.ascii	"__uint32_t\000"
 4741      6E743332 
 4741      5F7400
 4742              	.LASF131:
 4743 0aa6 654D4250 		.ascii	"eMBParity\000"
 4743      61726974 
 4743      7900
 4744              	.LASF74:
 4745 0ab0 70616E69 		.ascii	"panic_msg\000"
 4745      635F6D73 
 4745      6700
 4746              	.LASF185:
 4747 0aba 65536E64 		.ascii	"eSndState\000"
 4747      53746174 
 4747      6500
 4748              	.LASF85:
 4749 0ac4 6F666673 		.ascii	"offset\000"
 4749      657400
 4750              	.LASF199:
 4751 0acb 784D424D 		.ascii	"xMBMasterPortTimersInit\000"
 4751      61737465 
 4751      72506F72 
 4751      7454696D 
 4751      65727349 
 4752              	.LASF83:
 4753 0ae3 636F6E74 		.ascii	"context\000"
 4753      65787400 
 4754              	.LASF135:
 4755 0aeb 4D425F45 		.ascii	"MB_EPORTERR\000"
 4755      504F5254 
 4755      45525200 
 4756              	.LASF22:
ARM GAS  C:\Users\jo\AppData\Local\Temp\ccRedE1P.s 			page 94


 4757 0af7 7274636E 		.ascii	"rtcnt_t\000"
 4757      745F7400 
 4758              	.LASF207:
 4759 0aff 784D424D 		.ascii	"xMBMasterPortSerialPutByte\000"
 4759      61737465 
 4759      72506F72 
 4759      74536572 
 4759      69616C50 
 4760              	.LASF186:
 4761 0b1a 65526376 		.ascii	"eRcvState\000"
 4761      53746174 
 4761      6500
 4762              	.LASF68:
 4763 0b24 76745F70 		.ascii	"vt_par\000"
 4763      617200
 4764              	.LASF156:
 4765 0b2b 65506172 		.ascii	"eParity\000"
 4765      69747900 
 4766              	.LASF210:
 4767 0b33 784D424D 		.ascii	"xMBMasterPortEventPost\000"
 4767      61737465 
 4767      72506F72 
 4767      74457665 
 4767      6E74506F 
 4768              	.LASF188:
 4769 0b4a 75634D61 		.ascii	"ucMasterRTURcvBuf\000"
 4769      73746572 
 4769      52545552 
 4769      63764275 
 4769      6600
 4770              	.LASF51:
 4771 0b5c 74687265 		.ascii	"threads_queue_t\000"
 4771      6164735F 
 4771      71756575 
 4771      655F7400 
 4772              	.LASF40:
 4773 0b6c 705F7265 		.ascii	"p_refs\000"
 4773      667300
 4774              	.LASF153:
 4775 0b73 654D424D 		.ascii	"eMBMasterSndState\000"
 4775      61737465 
 4775      72536E64 
 4775      53746174 
 4775      6500
 4776              	.LASF170:
 4777 0b85 784D424D 		.ascii	"xMBMasterRTUReceiveFSM\000"
 4777      61737465 
 4777      72525455 
 4777      52656365 
 4777      69766546 
 4778              	.LASF77:
 4779 0b9c 726C6973 		.ascii	"rlist\000"
 4779      7400
 4780              	.LASF146:
 4781 0ba2 53544154 		.ascii	"STATE_M_RX_IDLE\000"
 4781      455F4D5F 
 4781      52585F49 
ARM GAS  C:\Users\jo\AppData\Local\Temp\ccRedE1P.s 			page 95


 4781      444C4500 
 4782              	.LASF124:
 4783 0bb2 45565F45 		.ascii	"EV_ERROR_RESPOND_TIMEOUT\000"
 4783      52524F52 
 4783      5F524553 
 4783      504F4E44 
 4783      5F54494D 
 4784              	.LASF17:
 4785 0bcb 75696E74 		.ascii	"uint8_t\000"
 4785      385F7400 
 4786              	.LASF165:
 4787 0bd3 7075734C 		.ascii	"pusLength\000"
 4787      656E6774 
 4787      6800
 4788              	.LASF159:
 4789 0bdd 654D424D 		.ascii	"eMBMasterRTUStart\000"
 4789      61737465 
 4789      72525455 
 4789      53746172 
 4789      7400
 4790              	.LASF149:
 4791 0bef 654D424D 		.ascii	"eMBMasterRcvState\000"
 4791      61737465 
 4791      72526376 
 4791      53746174 
 4791      6500
 4792              	.LASF150:
 4793 0c01 53544154 		.ascii	"STATE_M_TX_IDLE\000"
 4793      455F4D5F 
 4793      54585F49 
 4793      444C4500 
 4794              	.LASF89:
 4795 0c11 77746F62 		.ascii	"wtobjp\000"
 4795      6A7000
 4796              	.LASF204:
 4797 0c18 5F5F6173 		.ascii	"__assert_func\000"
 4797      73657274 
 4797      5F66756E 
 4797      6300
 4798              	.LASF37:
 4799 0c26 705F6E61 		.ascii	"p_name\000"
 4799      6D6500
 4800              	.LASF129:
 4801 0c2d 4D425F50 		.ascii	"MB_PAR_ODD\000"
 4801      41525F4F 
 4801      444400
 4802              	.LASF48:
 4803 0c38 74687265 		.ascii	"threads_list_t\000"
 4803      6164735F 
 4803      6C697374 
 4803      5F7400
 4804              	.LASF123:
 4805 0c47 45565F4E 		.ascii	"EV_NO_ERROR\000"
 4805      4F5F4552 
 4805      524F5200 
 4806              	.LASF63:
 4807 0c53 63685F76 		.ascii	"ch_virtual_timer\000"
ARM GAS  C:\Users\jo\AppData\Local\Temp\ccRedE1P.s 			page 96


 4807      69727475 
 4807      616C5F74 
 4807      696D6572 
 4807      00
 4808              	.LASF43:
 4809 0c64 705F6D73 		.ascii	"p_msg\000"
 4809      6700
 4810              	.LASF144:
 4811 0c6a 654D424D 		.ascii	"eMBMasterTimerMode\000"
 4811      61737465 
 4811      7254696D 
 4811      65724D6F 
 4811      646500
 4812              	.LASF116:
 4813 0c7d 45565F4D 		.ascii	"EV_MASTER_FRAME_SENT\000"
 4813      41535445 
 4813      525F4652 
 4813      414D455F 
 4813      53454E54 
 4814              	.LASF125:
 4815 0c92 45565F45 		.ascii	"EV_ERROR_RECEIVE_DATA\000"
 4815      52524F52 
 4815      5F524543 
 4815      45495645 
 4815      5F444154 
 4816              	.LASF93:
 4817 0ca8 6D5F6F77 		.ascii	"m_owner\000"
 4817      6E657200 
 4818              	.LASF34:
 4819 0cb0 705F6374 		.ascii	"p_ctx\000"
 4819      7800
 4820              	.LASF67:
 4821 0cb6 76745F66 		.ascii	"vt_func\000"
 4821      756E6300 
 4822              	.LASF41:
 4823 0cbe 705F7761 		.ascii	"p_waiting\000"
 4823      6974696E 
 4823      6700
 4824              		.ident	"GCC: (GNU Tools for ARM Embedded Processors) 4.9.3 20141119 (release) [ARM/embedded-4_9-br
ARM GAS  C:\Users\jo\AppData\Local\Temp\ccRedE1P.s 			page 97


DEFINED SYMBOLS
                            *ABS*:00000000 mbrtu_m.c
C:\Users\jo\AppData\Local\Temp\ccRedE1P.s:21     .text.eMBMasterRTUInit:00000000 $t
C:\Users\jo\AppData\Local\Temp\ccRedE1P.s:27     .text.eMBMasterRTUInit:00000000 eMBMasterRTUInit
C:\Users\jo\AppData\Local\Temp\ccRedE1P.s:103    .text.eMBMasterRTUInit:00000050 $d
C:\Users\jo\AppData\Local\Temp\ccRedE1P.s:108    .text.eMBMasterRTUStart:00000000 $t
C:\Users\jo\AppData\Local\Temp\ccRedE1P.s:114    .text.eMBMasterRTUStart:00000000 eMBMasterRTUStart
C:\Users\jo\AppData\Local\Temp\ccRedE1P.s:152    .text.eMBMasterRTUStart:00000020 $d
C:\Users\jo\AppData\Local\Temp\ccRedE1P.s:157    .text.eMBMasterRTUStop:00000000 $t
C:\Users\jo\AppData\Local\Temp\ccRedE1P.s:163    .text.eMBMasterRTUStop:00000000 eMBMasterRTUStop
C:\Users\jo\AppData\Local\Temp\ccRedE1P.s:196    .text.eMBMasterRTUReceive:00000000 $t
C:\Users\jo\AppData\Local\Temp\ccRedE1P.s:202    .text.eMBMasterRTUReceive:00000000 eMBMasterRTUReceive
C:\Users\jo\AppData\Local\Temp\ccRedE1P.s:285    .text.eMBMasterRTUReceive:00000060 $d
C:\Users\jo\AppData\Local\Temp\ccRedE1P.s:294    .text.eMBMasterRTUSend:00000000 $t
C:\Users\jo\AppData\Local\Temp\ccRedE1P.s:300    .text.eMBMasterRTUSend:00000000 eMBMasterRTUSend
C:\Users\jo\AppData\Local\Temp\ccRedE1P.s:420    .text.eMBMasterRTUSend:00000088 $d
C:\Users\jo\AppData\Local\Temp\ccRedE1P.s:429    .text.xMBMasterRTUReceiveFSM:00000000 $t
C:\Users\jo\AppData\Local\Temp\ccRedE1P.s:435    .text.xMBMasterRTUReceiveFSM:00000000 xMBMasterRTUReceiveFSM
C:\Users\jo\AppData\Local\Temp\ccRedE1P.s:474    .text.xMBMasterRTUReceiveFSM:00000024 $d
C:\Users\jo\AppData\Local\Temp\ccRedE1P.s:478    .text.xMBMasterRTUReceiveFSM:00000028 $t
C:\Users\jo\AppData\Local\Temp\ccRedE1P.s:561    .text.xMBMasterRTUReceiveFSM:0000008c $d
C:\Users\jo\AppData\Local\Temp\ccRedE1P.s:572    .text.xMBMasterRTUTransmitFSM:00000000 $t
C:\Users\jo\AppData\Local\Temp\ccRedE1P.s:578    .text.xMBMasterRTUTransmitFSM:00000000 xMBMasterRTUTransmitFSM
C:\Users\jo\AppData\Local\Temp\ccRedE1P.s:686    .text.xMBMasterRTUTransmitFSM:00000084 $d
C:\Users\jo\AppData\Local\Temp\ccRedE1P.s:699    .text.xMBMasterRTUTimerExpired:00000000 $t
C:\Users\jo\AppData\Local\Temp\ccRedE1P.s:705    .text.xMBMasterRTUTimerExpired:00000000 xMBMasterRTUTimerExpired
C:\Users\jo\AppData\Local\Temp\ccRedE1P.s:862    .text.xMBMasterRTUTimerExpired:000000b8 $d
C:\Users\jo\AppData\Local\Temp\ccRedE1P.s:875    .text.vMBMasterGetRTUSndBuf:00000000 $t
C:\Users\jo\AppData\Local\Temp\ccRedE1P.s:881    .text.vMBMasterGetRTUSndBuf:00000000 vMBMasterGetRTUSndBuf
C:\Users\jo\AppData\Local\Temp\ccRedE1P.s:896    .text.vMBMasterGetRTUSndBuf:00000008 $d
C:\Users\jo\AppData\Local\Temp\ccRedE1P.s:901    .text.vMBMasterGetPDUSndBuf:00000000 $t
C:\Users\jo\AppData\Local\Temp\ccRedE1P.s:907    .text.vMBMasterGetPDUSndBuf:00000000 vMBMasterGetPDUSndBuf
C:\Users\jo\AppData\Local\Temp\ccRedE1P.s:922    .text.vMBMasterGetPDUSndBuf:00000008 $d
C:\Users\jo\AppData\Local\Temp\ccRedE1P.s:927    .text.vMBMasterSetPDUSndLength:00000000 $t
C:\Users\jo\AppData\Local\Temp\ccRedE1P.s:933    .text.vMBMasterSetPDUSndLength:00000000 vMBMasterSetPDUSndLength
C:\Users\jo\AppData\Local\Temp\ccRedE1P.s:948    .text.vMBMasterSetPDUSndLength:00000008 $d
C:\Users\jo\AppData\Local\Temp\ccRedE1P.s:953    .text.usMBMasterGetPDUSndLength:00000000 $t
C:\Users\jo\AppData\Local\Temp\ccRedE1P.s:959    .text.usMBMasterGetPDUSndLength:00000000 usMBMasterGetPDUSndLength
C:\Users\jo\AppData\Local\Temp\ccRedE1P.s:975    .text.usMBMasterGetPDUSndLength:00000008 $d
C:\Users\jo\AppData\Local\Temp\ccRedE1P.s:980    .text.vMBMasterSetCurTimerMode:00000000 $t
C:\Users\jo\AppData\Local\Temp\ccRedE1P.s:986    .text.vMBMasterSetCurTimerMode:00000000 vMBMasterSetCurTimerMode
C:\Users\jo\AppData\Local\Temp\ccRedE1P.s:1001   .text.vMBMasterSetCurTimerMode:00000008 $d
C:\Users\jo\AppData\Local\Temp\ccRedE1P.s:1006   .text.xMBMasterRequestIsBroadcast:00000000 $t
C:\Users\jo\AppData\Local\Temp\ccRedE1P.s:1012   .text.xMBMasterRequestIsBroadcast:00000000 xMBMasterRequestIsBroadcast
C:\Users\jo\AppData\Local\Temp\ccRedE1P.s:1027   .text.xMBMasterRequestIsBroadcast:00000008 $d
C:\Users\jo\AppData\Local\Temp\ccRedE1P.s:1032   .rodata.__FUNCTION__.9293:00000000 $d
C:\Users\jo\AppData\Local\Temp\ccRedE1P.s:1036   .rodata.__FUNCTION__.9293:00000000 __FUNCTION__.9293
C:\Users\jo\AppData\Local\Temp\ccRedE1P.s:1039   .bss.ucMasterRTURcvBuf:00000000 $d
C:\Users\jo\AppData\Local\Temp\ccRedE1P.s:1043   .bss.ucMasterRTURcvBuf:00000000 ucMasterRTURcvBuf
C:\Users\jo\AppData\Local\Temp\ccRedE1P.s:1049   .bss.xFrameIsBroadcast:00000000 xFrameIsBroadcast
C:\Users\jo\AppData\Local\Temp\ccRedE1P.s:1050   .bss.xFrameIsBroadcast:00000000 $d
C:\Users\jo\AppData\Local\Temp\ccRedE1P.s:1052   .bss.usMasterSndBufferCount:00000000 $d
C:\Users\jo\AppData\Local\Temp\ccRedE1P.s:1056   .bss.usMasterSndBufferCount:00000000 usMasterSndBufferCount
C:\Users\jo\AppData\Local\Temp\ccRedE1P.s:1059   .bss.usMasterRcvBufferPos:00000000 $d
C:\Users\jo\AppData\Local\Temp\ccRedE1P.s:1063   .bss.usMasterRcvBufferPos:00000000 usMasterRcvBufferPos
C:\Users\jo\AppData\Local\Temp\ccRedE1P.s:1066   .rodata.__FUNCTION__.9306:00000000 $d
C:\Users\jo\AppData\Local\Temp\ccRedE1P.s:1070   .rodata.__FUNCTION__.9306:00000000 __FUNCTION__.9306
ARM GAS  C:\Users\jo\AppData\Local\Temp\ccRedE1P.s 			page 98


C:\Users\jo\AppData\Local\Temp\ccRedE1P.s:1073   .bss.usMasterSendPDULength:00000000 $d
C:\Users\jo\AppData\Local\Temp\ccRedE1P.s:1077   .bss.usMasterSendPDULength:00000000 usMasterSendPDULength
C:\Users\jo\AppData\Local\Temp\ccRedE1P.s:1080   .rodata.str1.4:00000000 $d
C:\Users\jo\AppData\Local\Temp\ccRedE1P.s:1102   .rodata.__FUNCTION__.9270:00000000 $d
C:\Users\jo\AppData\Local\Temp\ccRedE1P.s:1106   .rodata.__FUNCTION__.9270:00000000 __FUNCTION__.9270
C:\Users\jo\AppData\Local\Temp\ccRedE1P.s:1112   .bss.eMasterCurTimerMode:00000000 eMasterCurTimerMode
C:\Users\jo\AppData\Local\Temp\ccRedE1P.s:1113   .bss.eMasterCurTimerMode:00000000 $d
C:\Users\jo\AppData\Local\Temp\ccRedE1P.s:1118   .bss.eSndState:00000000 eSndState
C:\Users\jo\AppData\Local\Temp\ccRedE1P.s:1119   .bss.eSndState:00000000 $d
C:\Users\jo\AppData\Local\Temp\ccRedE1P.s:1124   .bss.eRcvState:00000000 eRcvState
C:\Users\jo\AppData\Local\Temp\ccRedE1P.s:1125   .bss.eRcvState:00000000 $d
C:\Users\jo\AppData\Local\Temp\ccRedE1P.s:1127   .rodata.__FUNCTION__.9283:00000000 $d
C:\Users\jo\AppData\Local\Temp\ccRedE1P.s:1131   .rodata.__FUNCTION__.9283:00000000 __FUNCTION__.9283
C:\Users\jo\AppData\Local\Temp\ccRedE1P.s:1134   .bss.pucMasterSndBufferCur:00000000 $d
C:\Users\jo\AppData\Local\Temp\ccRedE1P.s:1138   .bss.pucMasterSndBufferCur:00000000 pucMasterSndBufferCur
C:\Users\jo\AppData\Local\Temp\ccRedE1P.s:1141   .bss.ucMasterRTUSndBuf:00000000 $d
C:\Users\jo\AppData\Local\Temp\ccRedE1P.s:1145   .bss.ucMasterRTUSndBuf:00000000 ucMasterRTUSndBuf
                     .debug_frame:00000010 $d
C:\Users\jo\AppData\Local\Temp\ccRedE1P.s:107    .text.eMBMasterRTUInit:00000054 $t
C:\Users\jo\AppData\Local\Temp\ccRedE1P.s:156    .text.eMBMasterRTUStart:00000024 $t
C:\Users\jo\AppData\Local\Temp\ccRedE1P.s:293    .text.eMBMasterRTUReceive:00000074 $t
C:\Users\jo\AppData\Local\Temp\ccRedE1P.s:428    .text.eMBMasterRTUSend:0000009c $t
C:\Users\jo\AppData\Local\Temp\ccRedE1P.s:571    .text.xMBMasterRTUReceiveFSM:000000a8 $t
C:\Users\jo\AppData\Local\Temp\ccRedE1P.s:698    .text.xMBMasterRTUTransmitFSM:000000a8 $t
C:\Users\jo\AppData\Local\Temp\ccRedE1P.s:874    .text.xMBMasterRTUTimerExpired:000000dc $t
C:\Users\jo\AppData\Local\Temp\ccRedE1P.s:900    .text.vMBMasterGetRTUSndBuf:0000000c $t
C:\Users\jo\AppData\Local\Temp\ccRedE1P.s:926    .text.vMBMasterGetPDUSndBuf:0000000c $t
C:\Users\jo\AppData\Local\Temp\ccRedE1P.s:952    .text.vMBMasterSetPDUSndLength:0000000c $t
C:\Users\jo\AppData\Local\Temp\ccRedE1P.s:979    .text.usMBMasterGetPDUSndLength:0000000c $t
C:\Users\jo\AppData\Local\Temp\ccRedE1P.s:1005   .text.vMBMasterSetCurTimerMode:0000000c $t
C:\Users\jo\AppData\Local\Temp\ccRedE1P.s:1031   .text.xMBMasterRequestIsBroadcast:0000000c $t

UNDEFINED SYMBOLS
EnterCriticalSection
xMBMasterPortSerialInit
ExitCriticalSection
xMBMasterPortTimersInit
vMBMasterPortSerialEnable
vMBMasterPortTimersT35Enable
vMBMasterPortTimersDisable
usMBCRC16
__assert_func
xMBMasterPortSerialGetByte
vMBMasterPortTimersRespondTimeoutEnable
xMBMasterPortSerialPutByte
vMBMasterPortTimersConvertDelayEnable
vMBMasterSetErrorType
xMBMasterPortEventPost
