ARM GAS  C:\Users\jo\AppData\Local\Temp\ccYEnDGd.s 			page 1


   1              		.syntax unified
   2              		.cpu cortex-m4
   3              		.eabi_attribute 27, 3
   4              		.eabi_attribute 28, 1
   5              		.fpu fpv4-sp-d16
   6              		.eabi_attribute 20, 1
   7              		.eabi_attribute 21, 1
   8              		.eabi_attribute 23, 3
   9              		.eabi_attribute 24, 1
  10              		.eabi_attribute 25, 1
  11              		.eabi_attribute 26, 1
  12              		.eabi_attribute 30, 2
  13              		.eabi_attribute 34, 1
  14              		.eabi_attribute 18, 4
  15              		.thumb
  16              		.file	"mbutils.c"
  17              		.text
  18              	.Ltext0:
  19              		.cfi_sections	.debug_frame
  20              		.section	.text.xMBUtilSetBits,"ax",%progbits
  21              		.align	2
  22              		.p2align 4,,15
  23              		.global	xMBUtilSetBits
  24              		.thumb
  25              		.thumb_func
  26              		.type	xMBUtilSetBits, %function
  27              	xMBUtilSetBits:
  28              	.LFB256:
  29              		.file 1 "FreeModbus/modbus/functions/mbutils.c"
  30              		.loc 1 49 0
  31              		.cfi_startproc
  32              		@ args = 0, pretend = 0, frame = 0
  33              		@ frame_needed = 0, uses_anonymous_args = 0
  34              	.LVL0:
  35              		.loc 1 56 0
  36 0000 082A     		cmp	r2, #8
  37              		.loc 1 49 0
  38 0002 F8B5     		push	{r3, r4, r5, r6, r7, lr}
  39              		.cfi_def_cfa_offset 24
  40              		.cfi_offset 3, -24
  41              		.cfi_offset 4, -20
  42              		.cfi_offset 5, -16
  43              		.cfi_offset 6, -12
  44              		.cfi_offset 7, -8
  45              		.cfi_offset 14, -4
  46              		.loc 1 49 0
  47 0004 1646     		mov	r6, r2
  48              	.LVL1:
  49              		.loc 1 56 0
  50 0006 16D8     		bhi	.L5
  51              		.loc 1 61 0
  52 0008 CC08     		lsrs	r4, r1, #3
  53              	.LVL2:
  54              		.loc 1 70 0
  55 000a 0122     		movs	r2, #1
  56              	.LVL3:
  57              		.loc 1 75 0
ARM GAS  C:\Users\jo\AppData\Local\Temp\ccYEnDGd.s 			page 2


  58 000c A518     		adds	r5, r4, r2
  59              	.LVL4:
  60              		.loc 1 70 0
  61 000e B240     		lsls	r2, r2, r6
  62              		.loc 1 75 0
  63 0010 475D     		ldrb	r7, [r0, r5]	@ zero_extendqisi2
  64 0012 065D     		ldrb	r6, [r0, r4]	@ zero_extendqisi2
  65              	.LVL5:
  66              		.loc 1 70 0
  67 0014 013A     		subs	r2, r2, #1
  68              		.loc 1 71 0
  69 0016 A1EBC401 		sub	r1, r1, r4, lsl #3
  70              	.LVL6:
  71 001a 92B2     		uxth	r2, r2
  72 001c 8A40     		lsls	r2, r2, r1
  73              		.loc 1 75 0
  74 001e 46EA0726 		orr	r6, r6, r7, lsl #8
  75              		.loc 1 67 0
  76 0022 89B2     		uxth	r1, r1
  77 0024 8B40     		lsls	r3, r3, r1
  78              	.LVL7:
  79              		.loc 1 78 0
  80 0026 26EA0202 		bic	r2, r6, r2
  81 002a 1A43     		orrs	r2, r2, r3
  82 002c 92B2     		uxth	r2, r2
  83              	.LVL8:
  84              		.loc 1 82 0
  85 002e 130A     		lsrs	r3, r2, #8
  86              		.loc 1 81 0
  87 0030 0255     		strb	r2, [r0, r4]
  88              		.loc 1 82 0
  89 0032 4355     		strb	r3, [r0, r5]
  90 0034 F8BD     		pop	{r3, r4, r5, r6, r7, pc}
  91              	.LVL9:
  92              	.L5:
  93              		.loc 1 56 0 discriminator 1
  94 0036 0348     		ldr	r0, .L6
  95              	.LVL10:
  96 0038 034A     		ldr	r2, .L6+4
  97              	.LVL11:
  98 003a 044B     		ldr	r3, .L6+8
  99              	.LVL12:
 100 003c 3821     		movs	r1, #56
 101              	.LVL13:
 102 003e FFF7FEFF 		bl	__assert_func
 103              	.LVL14:
 104              	.L7:
 105 0042 00BF     		.align	2
 106              	.L6:
 107 0044 00000000 		.word	.LC0
 108 0048 00000000 		.word	.LANCHOR0
 109 004c 28000000 		.word	.LC1
 110              		.cfi_endproc
 111              	.LFE256:
 112              		.size	xMBUtilSetBits, .-xMBUtilSetBits
 113              		.section	.text.xMBUtilGetBits,"ax",%progbits
 114              		.align	2
ARM GAS  C:\Users\jo\AppData\Local\Temp\ccYEnDGd.s 			page 3


 115              		.p2align 4,,15
 116              		.global	xMBUtilGetBits
 117              		.thumb
 118              		.thumb_func
 119              		.type	xMBUtilGetBits, %function
 120              	xMBUtilGetBits:
 121              	.LFB257:
 122              		.loc 1 87 0
 123              		.cfi_startproc
 124              		@ args = 0, pretend = 0, frame = 0
 125              		@ frame_needed = 0, uses_anonymous_args = 0
 126              		@ link register save eliminated.
 127              	.LVL15:
 128 0000 10B4     		push	{r4}
 129              		.cfi_def_cfa_offset 4
 130              		.cfi_offset 4, -4
 131              		.loc 1 95 0
 132 0002 CB08     		lsrs	r3, r1, #3
 133              	.LVL16:
 134              		.loc 1 105 0
 135 0004 C418     		adds	r4, r0, r3
 136              	.LVL17:
 137 0006 C05C     		ldrb	r0, [r0, r3]	@ zero_extendqisi2
 138              	.LVL18:
 139 0008 6478     		ldrb	r4, [r4, #1]	@ zero_extendqisi2
 140              	.LVL19:
 141              		.loc 1 98 0
 142 000a A1EBC301 		sub	r1, r1, r3, lsl #3
 143              	.LVL20:
 144              		.loc 1 101 0
 145 000e 0123     		movs	r3, #1
 146              	.LVL21:
 147              		.loc 1 108 0
 148 0010 40EA0420 		orr	r0, r0, r4, lsl #8
 149              	.LVL22:
 150 0014 89B2     		uxth	r1, r1
 151              		.loc 1 101 0
 152 0016 9340     		lsls	r3, r3, r2
 153              		.loc 1 108 0
 154 0018 0841     		asrs	r0, r0, r1
 155              	.LVL23:
 156              		.loc 1 101 0
 157 001a 013B     		subs	r3, r3, #1
 158              		.loc 1 111 0
 159 001c 1840     		ands	r0, r0, r3
 160              	.LVL24:
 161              		.loc 1 114 0
 162 001e C0B2     		uxtb	r0, r0
 163 0020 5DF8044B 		ldr	r4, [sp], #4
 164              		.cfi_restore 4
 165              		.cfi_def_cfa_offset 0
 166 0024 7047     		bx	lr
 167              		.cfi_endproc
 168              	.LFE257:
 169              		.size	xMBUtilGetBits, .-xMBUtilGetBits
 170 0026 00BFAFF3 		.section	.text.prveMBError2Exception,"ax",%progbits
 170      0080AFF3 
ARM GAS  C:\Users\jo\AppData\Local\Temp\ccYEnDGd.s 			page 4


 170      0080
 171              		.align	2
 172              		.p2align 4,,15
 173              		.global	prveMBError2Exception
 174              		.thumb
 175              		.thumb_func
 176              		.type	prveMBError2Exception, %function
 177              	prveMBError2Exception:
 178              	.LFB258:
 179              		.loc 1 118 0
 180              		.cfi_startproc
 181              		@ args = 0, pretend = 0, frame = 0
 182              		@ frame_needed = 0, uses_anonymous_args = 0
 183              		@ link register save eliminated.
 184              	.LVL25:
 185 0000 0728     		cmp	r0, #7
 186 0002 9ABF     		itte	ls
 187 0004 014B     		ldrls	r3, .L13
 188 0006 185C     		ldrbls	r0, [r3, r0]	@ zero_extendqisi2
 189              	.LVL26:
 190              		.loc 1 118 0
 191 0008 0420     		movhi	r0, #4
 192              	.LVL27:
 193              		.loc 1 141 0
 194 000a 7047     		bx	lr
 195              	.L14:
 196              		.align	2
 197              	.L13:
 198 000c 00000000 		.word	.LANCHOR1
 199              		.cfi_endproc
 200              	.LFE258:
 201              		.size	prveMBError2Exception, .-prveMBError2Exception
 202              		.section	.rodata.CSWTCH.7,"a",%progbits
 203              		.align	2
 204              		.set	.LANCHOR1,. + 0
 205              		.type	CSWTCH.7, %object
 206              		.size	CSWTCH.7, 8
 207              	CSWTCH.7:
 208 0000 00       		.byte	0
 209 0001 02       		.byte	2
 210 0002 04       		.byte	4
 211 0003 04       		.byte	4
 212 0004 04       		.byte	4
 213 0005 04       		.byte	4
 214 0006 04       		.byte	4
 215 0007 06       		.byte	6
 216              		.section	.rodata.__FUNCTION__.9022,"a",%progbits
 217              		.align	2
 218              		.set	.LANCHOR0,. + 0
 219              		.type	__FUNCTION__.9022, %object
 220              		.size	__FUNCTION__.9022, 15
 221              	__FUNCTION__.9022:
 222 0000 784D4255 		.ascii	"xMBUtilSetBits\000"
 222      74696C53 
 222      65744269 
 222      747300
 223 000f 00       		.section	.rodata.str1.4,"aMS",%progbits,1
ARM GAS  C:\Users\jo\AppData\Local\Temp\ccYEnDGd.s 			page 5


 224              		.align	2
 225              	.LC0:
 226 0000 46726565 		.ascii	"FreeModbus/modbus/functions/mbutils.c\000"
 226      4D6F6462 
 226      75732F6D 
 226      6F646275 
 226      732F6675 
 227 0026 0000     		.space	2
 228              	.LC1:
 229 0028 75634E42 		.ascii	"ucNBits <= 8\000"
 229      69747320 
 229      3C3D2038 
 229      00
 230 0035 000000   		.text
 231              	.Letext0:
 232              		.file 2 "c:\\program files\\gnu tools arm embedded\\4.9 2014q4\\lib\\gcc\\arm-none-eabi\\4.9.3\\in
 233              		.file 3 "c:\\program files\\gnu tools arm embedded\\4.9 2014q4\\arm-none-eabi\\include\\machine\\_
 234              		.file 4 "c:\\program files\\gnu tools arm embedded\\4.9 2014q4\\arm-none-eabi\\include\\stdint.h"
 235              		.file 5 "../../../os/rt/ports/ARMCMx/compilers/GCC/chtypes.h"
 236              		.file 6 "../../../os/rt/include/chsystypes.h"
 237              		.file 7 "../../../os/rt/include/chschd.h"
 238              		.file 8 "../../../os/rt/ports/ARMCMx/chcore.h"
 239              		.file 9 "../../../os/rt/ports/ARMCMx/chcore_v7m.h"
 240              		.file 10 "../../../os/rt/include/chtm.h"
 241              		.file 11 "../../../os/rt/include/chmtx.h"
 242              		.file 12 "FreeModbus/port/port.h"
 243              		.file 13 "FreeModbus/modbus/include/mbproto.h"
 244              		.file 14 "FreeModbus/modbus/include/mb.h"
 245              		.file 15 "../../../os/ext/CMSIS/include/core_cm4.h"
 246              		.file 16 "c:\\program files\\gnu tools arm embedded\\4.9 2014q4\\arm-none-eabi\\include\\assert.h"
 247              		.section	.debug_info,"",%progbits
 248              	.Ldebug_info0:
 249 0000 18090000 		.4byte	0x918
 250 0004 0400     		.2byte	0x4
 251 0006 00000000 		.4byte	.Ldebug_abbrev0
 252 000a 04       		.byte	0x4
 253 000b 01       		.uleb128 0x1
 254 000c 52040000 		.4byte	.LASF134
 255 0010 01       		.byte	0x1
 256 0011 9D050000 		.4byte	.LASF135
 257 0015 06060000 		.4byte	.LASF136
 258 0019 00000000 		.4byte	.Ldebug_ranges0+0
 259 001d 00000000 		.4byte	0
 260 0021 00000000 		.4byte	.Ldebug_line0
 261 0025 02       		.uleb128 0x2
 262 0026 1A000000 		.4byte	.LASF2
 263 002a 02       		.byte	0x2
 264 002b D4       		.byte	0xd4
 265 002c 30000000 		.4byte	0x30
 266 0030 03       		.uleb128 0x3
 267 0031 04       		.byte	0x4
 268 0032 07       		.byte	0x7
 269 0033 D9010000 		.4byte	.LASF0
 270 0037 04       		.uleb128 0x4
 271 0038 04       		.byte	0x4
 272 0039 05       		.byte	0x5
 273 003a 696E7400 		.ascii	"int\000"
ARM GAS  C:\Users\jo\AppData\Local\Temp\ccYEnDGd.s 			page 6


 274 003e 03       		.uleb128 0x3
 275 003f 01       		.byte	0x1
 276 0040 06       		.byte	0x6
 277 0041 F5000000 		.4byte	.LASF1
 278 0045 02       		.uleb128 0x2
 279 0046 40000000 		.4byte	.LASF3
 280 004a 03       		.byte	0x3
 281 004b 1D       		.byte	0x1d
 282 004c 50000000 		.4byte	0x50
 283 0050 03       		.uleb128 0x3
 284 0051 01       		.byte	0x1
 285 0052 08       		.byte	0x8
 286 0053 F2030000 		.4byte	.LASF4
 287 0057 03       		.uleb128 0x3
 288 0058 02       		.byte	0x2
 289 0059 05       		.byte	0x5
 290 005a 28040000 		.4byte	.LASF5
 291 005e 02       		.uleb128 0x2
 292 005f 4E060000 		.4byte	.LASF6
 293 0063 03       		.byte	0x3
 294 0064 2B       		.byte	0x2b
 295 0065 69000000 		.4byte	0x69
 296 0069 03       		.uleb128 0x3
 297 006a 02       		.byte	0x2
 298 006b 07       		.byte	0x7
 299 006c 96010000 		.4byte	.LASF7
 300 0070 02       		.uleb128 0x2
 301 0071 8C020000 		.4byte	.LASF8
 302 0075 03       		.byte	0x3
 303 0076 3F       		.byte	0x3f
 304 0077 7B000000 		.4byte	0x7b
 305 007b 03       		.uleb128 0x3
 306 007c 04       		.byte	0x4
 307 007d 05       		.byte	0x5
 308 007e 2F010000 		.4byte	.LASF9
 309 0082 02       		.uleb128 0x2
 310 0083 A8060000 		.4byte	.LASF10
 311 0087 03       		.byte	0x3
 312 0088 41       		.byte	0x41
 313 0089 8D000000 		.4byte	0x8d
 314 008d 03       		.uleb128 0x3
 315 008e 04       		.byte	0x4
 316 008f 07       		.byte	0x7
 317 0090 EF050000 		.4byte	.LASF11
 318 0094 03       		.uleb128 0x3
 319 0095 08       		.byte	0x8
 320 0096 05       		.byte	0x5
 321 0097 E7000000 		.4byte	.LASF12
 322 009b 02       		.uleb128 0x2
 323 009c 7F030000 		.4byte	.LASF13
 324 00a0 03       		.byte	0x3
 325 00a1 5B       		.byte	0x5b
 326 00a2 A6000000 		.4byte	0xa6
 327 00a6 03       		.uleb128 0x3
 328 00a7 08       		.byte	0x8
 329 00a8 07       		.byte	0x7
 330 00a9 72000000 		.4byte	.LASF14
ARM GAS  C:\Users\jo\AppData\Local\Temp\ccYEnDGd.s 			page 7


 331 00ad 03       		.uleb128 0x3
 332 00ae 04       		.byte	0x4
 333 00af 07       		.byte	0x7
 334 00b0 CC020000 		.4byte	.LASF15
 335 00b4 05       		.uleb128 0x5
 336 00b5 04       		.byte	0x4
 337 00b6 03       		.uleb128 0x3
 338 00b7 01       		.byte	0x1
 339 00b8 08       		.byte	0x8
 340 00b9 01060000 		.4byte	.LASF16
 341 00bd 06       		.uleb128 0x6
 342 00be 04       		.byte	0x4
 343 00bf C3000000 		.4byte	0xc3
 344 00c3 07       		.uleb128 0x7
 345 00c4 B6000000 		.4byte	0xb6
 346 00c8 02       		.uleb128 0x2
 347 00c9 28070000 		.4byte	.LASF17
 348 00cd 04       		.byte	0x4
 349 00ce 15       		.byte	0x15
 350 00cf 45000000 		.4byte	0x45
 351 00d3 02       		.uleb128 0x2
 352 00d4 EE010000 		.4byte	.LASF18
 353 00d8 04       		.byte	0x4
 354 00d9 21       		.byte	0x21
 355 00da 5E000000 		.4byte	0x5e
 356 00de 02       		.uleb128 0x2
 357 00df EA030000 		.4byte	.LASF19
 358 00e3 04       		.byte	0x4
 359 00e4 2C       		.byte	0x2c
 360 00e5 70000000 		.4byte	0x70
 361 00e9 02       		.uleb128 0x2
 362 00ea CE050000 		.4byte	.LASF20
 363 00ee 04       		.byte	0x4
 364 00ef 2D       		.byte	0x2d
 365 00f0 82000000 		.4byte	0x82
 366 00f4 02       		.uleb128 0x2
 367 00f5 37000000 		.4byte	.LASF21
 368 00f9 04       		.byte	0x4
 369 00fa 39       		.byte	0x39
 370 00fb 9B000000 		.4byte	0x9b
 371 00ff 08       		.uleb128 0x8
 372 0100 DE000000 		.4byte	0xde
 373 0104 02       		.uleb128 0x2
 374 0105 E2060000 		.4byte	.LASF22
 375 0109 05       		.byte	0x5
 376 010a 45       		.byte	0x45
 377 010b E9000000 		.4byte	0xe9
 378 010f 02       		.uleb128 0x2
 379 0110 6A020000 		.4byte	.LASF23
 380 0114 05       		.byte	0x5
 381 0115 48       		.byte	0x48
 382 0116 C8000000 		.4byte	0xc8
 383 011a 02       		.uleb128 0x2
 384 011b 45010000 		.4byte	.LASF24
 385 011f 05       		.byte	0x5
 386 0120 49       		.byte	0x49
 387 0121 C8000000 		.4byte	0xc8
ARM GAS  C:\Users\jo\AppData\Local\Temp\ccYEnDGd.s 			page 8


 388 0125 02       		.uleb128 0x2
 389 0126 9B030000 		.4byte	.LASF25
 390 012a 05       		.byte	0x5
 391 012b 4A       		.byte	0x4a
 392 012c C8000000 		.4byte	0xc8
 393 0130 02       		.uleb128 0x2
 394 0131 BA030000 		.4byte	.LASF26
 395 0135 05       		.byte	0x5
 396 0136 4C       		.byte	0x4c
 397 0137 E9000000 		.4byte	0xe9
 398 013b 02       		.uleb128 0x2
 399 013c 4E020000 		.4byte	.LASF27
 400 0140 05       		.byte	0x5
 401 0141 4D       		.byte	0x4d
 402 0142 DE000000 		.4byte	0xde
 403 0146 02       		.uleb128 0x2
 404 0147 80020000 		.4byte	.LASF28
 405 014b 05       		.byte	0x5
 406 014c 4F       		.byte	0x4f
 407 014d E9000000 		.4byte	0xe9
 408 0151 02       		.uleb128 0x2
 409 0152 8A060000 		.4byte	.LASF29
 410 0156 06       		.byte	0x6
 411 0157 33       		.byte	0x33
 412 0158 E9000000 		.4byte	0xe9
 413 015c 02       		.uleb128 0x2
 414 015d 70060000 		.4byte	.LASF30
 415 0161 06       		.byte	0x6
 416 0162 3F       		.byte	0x3f
 417 0163 67010000 		.4byte	0x167
 418 0167 09       		.uleb128 0x9
 419 0168 44020000 		.4byte	.LASF49
 420 016c 44       		.byte	0x44
 421 016d 07       		.byte	0x7
 422 016e BE       		.byte	0xbe
 423 016f 54020000 		.4byte	0x254
 424 0173 0A       		.uleb128 0xa
 425 0174 4B040000 		.4byte	.LASF31
 426 0178 07       		.byte	0x7
 427 0179 BF       		.byte	0xbf
 428 017a F5050000 		.4byte	0x5f5
 429 017e 00       		.byte	0
 430 017f 0A       		.uleb128 0xa
 431 0180 B3030000 		.4byte	.LASF32
 432 0184 07       		.byte	0x7
 433 0185 C1       		.byte	0xc1
 434 0186 F5050000 		.4byte	0x5f5
 435 018a 04       		.byte	0x4
 436 018b 0A       		.uleb128 0xa
 437 018c E0000000 		.4byte	.LASF33
 438 0190 07       		.byte	0x7
 439 0191 C3       		.byte	0xc3
 440 0192 30010000 		.4byte	0x130
 441 0196 08       		.byte	0x8
 442 0197 0A       		.uleb128 0xa
 443 0198 73070000 		.4byte	.LASF34
 444 019c 07       		.byte	0x7
ARM GAS  C:\Users\jo\AppData\Local\Temp\ccYEnDGd.s 			page 9


 445 019d C4       		.byte	0xc4
 446 019e 75040000 		.4byte	0x475
 447 01a2 0C       		.byte	0xc
 448 01a3 0A       		.uleb128 0xa
 449 01a4 74010000 		.4byte	.LASF35
 450 01a8 07       		.byte	0x7
 451 01a9 C6       		.byte	0xc6
 452 01aa F5050000 		.4byte	0x5f5
 453 01ae 10       		.byte	0x10
 454 01af 0A       		.uleb128 0xa
 455 01b0 19030000 		.4byte	.LASF36
 456 01b4 07       		.byte	0x7
 457 01b5 C7       		.byte	0xc7
 458 01b6 F5050000 		.4byte	0x5f5
 459 01ba 14       		.byte	0x14
 460 01bb 0A       		.uleb128 0xa
 461 01bc 4F070000 		.4byte	.LASF37
 462 01c0 07       		.byte	0x7
 463 01c1 CE       		.byte	0xce
 464 01c2 BD000000 		.4byte	0xbd
 465 01c6 18       		.byte	0x18
 466 01c7 0A       		.uleb128 0xa
 467 01c8 16040000 		.4byte	.LASF38
 468 01cc 07       		.byte	0x7
 469 01cd D9       		.byte	0xd9
 470 01ce 1A010000 		.4byte	0x11a
 471 01d2 1C       		.byte	0x1c
 472 01d3 0A       		.uleb128 0xa
 473 01d4 6B050000 		.4byte	.LASF39
 474 01d8 07       		.byte	0x7
 475 01d9 DD       		.byte	0xdd
 476 01da 0F010000 		.4byte	0x10f
 477 01de 1D       		.byte	0x1d
 478 01df 0A       		.uleb128 0xa
 479 01e0 09070000 		.4byte	.LASF40
 480 01e4 07       		.byte	0x7
 481 01e5 E2       		.byte	0xe2
 482 01e6 25010000 		.4byte	0x125
 483 01ea 1E       		.byte	0x1e
 484 01eb 0B       		.uleb128 0xb
 485 01ec 705F7500 		.ascii	"p_u\000"
 486 01f0 07       		.byte	0x7
 487 01f1 1401     		.2byte	0x114
 488 01f3 FB050000 		.4byte	0x5fb
 489 01f7 20       		.byte	0x20
 490 01f8 0C       		.uleb128 0xc
 491 01f9 81070000 		.4byte	.LASF41
 492 01fd 07       		.byte	0x7
 493 01fe 1901     		.2byte	0x119
 494 0200 54020000 		.4byte	0x254
 495 0204 24       		.byte	0x24
 496 0205 0C       		.uleb128 0xc
 497 0206 00020000 		.4byte	.LASF42
 498 020a 07       		.byte	0x7
 499 020b 1F01     		.2byte	0x11f
 500 020d 78020000 		.4byte	0x278
 501 0211 28       		.byte	0x28
ARM GAS  C:\Users\jo\AppData\Local\Temp\ccYEnDGd.s 			page 10


 502 0212 0C       		.uleb128 0xc
 503 0213 65070000 		.4byte	.LASF43
 504 0217 07       		.byte	0x7
 505 0218 2301     		.2byte	0x123
 506 021a 3B010000 		.4byte	0x13b
 507 021e 30       		.byte	0x30
 508 021f 0C       		.uleb128 0xc
 509 0220 C3050000 		.4byte	.LASF44
 510 0224 07       		.byte	0x7
 511 0225 2901     		.2byte	0x129
 512 0227 46010000 		.4byte	0x146
 513 022b 34       		.byte	0x34
 514 022c 0C       		.uleb128 0xc
 515 022d 1E040000 		.4byte	.LASF45
 516 0231 07       		.byte	0x7
 517 0232 3001     		.2byte	0x130
 518 0234 64060000 		.4byte	0x664
 519 0238 38       		.byte	0x38
 520 0239 0C       		.uleb128 0xc
 521 023a 94060000 		.4byte	.LASF46
 522 023e 07       		.byte	0x7
 523 023f 3401     		.2byte	0x134
 524 0241 30010000 		.4byte	0x130
 525 0245 3C       		.byte	0x3c
 526 0246 0C       		.uleb128 0xc
 527 0247 08010000 		.4byte	.LASF47
 528 024b 07       		.byte	0x7
 529 024c 3A01     		.2byte	0x13a
 530 024e B4000000 		.4byte	0xb4
 531 0252 40       		.byte	0x40
 532 0253 00       		.byte	0
 533 0254 02       		.uleb128 0x2
 534 0255 56070000 		.4byte	.LASF48
 535 0259 06       		.byte	0x6
 536 025a 44       		.byte	0x44
 537 025b 5F020000 		.4byte	0x25f
 538 025f 09       		.uleb128 0x9
 539 0260 DF050000 		.4byte	.LASF50
 540 0264 04       		.byte	0x4
 541 0265 07       		.byte	0x7
 542 0266 AC       		.byte	0xac
 543 0267 78020000 		.4byte	0x278
 544 026b 0A       		.uleb128 0xa
 545 026c 4B040000 		.4byte	.LASF31
 546 0270 07       		.byte	0x7
 547 0271 AD       		.byte	0xad
 548 0272 F5050000 		.4byte	0x5f5
 549 0276 00       		.byte	0
 550 0277 00       		.byte	0
 551 0278 02       		.uleb128 0x2
 552 0279 F9060000 		.4byte	.LASF51
 553 027d 06       		.byte	0x6
 554 027e 4B       		.byte	0x4b
 555 027f 83020000 		.4byte	0x283
 556 0283 09       		.uleb128 0x9
 557 0284 CF000000 		.4byte	.LASF52
 558 0288 08       		.byte	0x8
ARM GAS  C:\Users\jo\AppData\Local\Temp\ccYEnDGd.s 			page 11


 559 0289 07       		.byte	0x7
 560 028a B3       		.byte	0xb3
 561 028b A8020000 		.4byte	0x2a8
 562 028f 0A       		.uleb128 0xa
 563 0290 4B040000 		.4byte	.LASF31
 564 0294 07       		.byte	0x7
 565 0295 B4       		.byte	0xb4
 566 0296 F5050000 		.4byte	0x5f5
 567 029a 00       		.byte	0
 568 029b 0A       		.uleb128 0xa
 569 029c B3030000 		.4byte	.LASF32
 570 02a0 07       		.byte	0x7
 571 02a1 B5       		.byte	0xb5
 572 02a2 F5050000 		.4byte	0x5f5
 573 02a6 04       		.byte	0x4
 574 02a7 00       		.byte	0
 575 02a8 02       		.uleb128 0x2
 576 02a9 00000000 		.4byte	.LASF53
 577 02ad 06       		.byte	0x6
 578 02ae 52       		.byte	0x52
 579 02af B3020000 		.4byte	0x2b3
 580 02b3 0D       		.uleb128 0xd
 581 02b4 72020000 		.4byte	.LASF54
 582 02b8 1C       		.byte	0x1c
 583 02b9 07       		.byte	0x7
 584 02ba 7201     		.2byte	0x172
 585 02bc 0F030000 		.4byte	0x30f
 586 02c0 0C       		.uleb128 0xc
 587 02c1 D7050000 		.4byte	.LASF55
 588 02c5 07       		.byte	0x7
 589 02c6 7301     		.2byte	0x173
 590 02c8 78020000 		.4byte	0x278
 591 02cc 00       		.byte	0
 592 02cd 0C       		.uleb128 0xc
 593 02ce 3D040000 		.4byte	.LASF56
 594 02d2 07       		.byte	0x7
 595 02d3 7401     		.2byte	0x174
 596 02d5 30010000 		.4byte	0x130
 597 02d9 08       		.byte	0x8
 598 02da 0C       		.uleb128 0xc
 599 02db 21030000 		.4byte	.LASF57
 600 02df 07       		.byte	0x7
 601 02e0 7601     		.2byte	0x176
 602 02e2 75040000 		.4byte	0x475
 603 02e6 0C       		.byte	0xc
 604 02e7 0C       		.uleb128 0xc
 605 02e8 A9010000 		.4byte	.LASF58
 606 02ec 07       		.byte	0x7
 607 02ed 7901     		.2byte	0x179
 608 02ef F5050000 		.4byte	0x5f5
 609 02f3 10       		.byte	0x10
 610 02f4 0C       		.uleb128 0xc
 611 02f5 68030000 		.4byte	.LASF59
 612 02f9 07       		.byte	0x7
 613 02fa 7A01     		.2byte	0x17a
 614 02fc F5050000 		.4byte	0x5f5
 615 0300 14       		.byte	0x14
ARM GAS  C:\Users\jo\AppData\Local\Temp\ccYEnDGd.s 			page 12


 616 0301 0C       		.uleb128 0xc
 617 0302 5E030000 		.4byte	.LASF60
 618 0306 07       		.byte	0x7
 619 0307 7D01     		.2byte	0x17d
 620 0309 F5050000 		.4byte	0x5f5
 621 030d 18       		.byte	0x18
 622 030e 00       		.byte	0
 623 030f 02       		.uleb128 0x2
 624 0310 9F060000 		.4byte	.LASF61
 625 0314 06       		.byte	0x6
 626 0315 57       		.byte	0x57
 627 0316 1A030000 		.4byte	0x31a
 628 031a 06       		.uleb128 0x6
 629 031b 04       		.byte	0x4
 630 031c 20030000 		.4byte	0x320
 631 0320 0E       		.uleb128 0xe
 632 0321 2B030000 		.4byte	0x32b
 633 0325 0F       		.uleb128 0xf
 634 0326 B4000000 		.4byte	0xb4
 635 032a 00       		.byte	0
 636 032b 02       		.uleb128 0x2
 637 032c A3030000 		.4byte	.LASF62
 638 0330 06       		.byte	0x6
 639 0331 5C       		.byte	0x5c
 640 0332 36030000 		.4byte	0x336
 641 0336 0D       		.uleb128 0xd
 642 0337 8C050000 		.4byte	.LASF63
 643 033b 14       		.byte	0x14
 644 033c 07       		.byte	0x7
 645 033d 4D01     		.2byte	0x14d
 646 033f 85030000 		.4byte	0x385
 647 0343 0C       		.uleb128 0xc
 648 0344 E6010000 		.4byte	.LASF64
 649 0348 07       		.byte	0x7
 650 0349 4E01     		.2byte	0x14e
 651 034b 6A060000 		.4byte	0x66a
 652 034f 00       		.byte	0
 653 0350 0C       		.uleb128 0xc
 654 0351 BA010000 		.4byte	.LASF65
 655 0355 07       		.byte	0x7
 656 0356 4F01     		.2byte	0x14f
 657 0358 6A060000 		.4byte	0x66a
 658 035c 04       		.byte	0x4
 659 035d 0C       		.uleb128 0xc
 660 035e F7010000 		.4byte	.LASF66
 661 0362 07       		.byte	0x7
 662 0363 5001     		.2byte	0x150
 663 0365 51010000 		.4byte	0x151
 664 0369 08       		.byte	0x8
 665 036a 0C       		.uleb128 0xc
 666 036b 79070000 		.4byte	.LASF67
 667 036f 07       		.byte	0x7
 668 0370 5101     		.2byte	0x151
 669 0372 0F030000 		.4byte	0x30f
 670 0376 0C       		.byte	0xc
 671 0377 0C       		.uleb128 0xc
 672 0378 F2060000 		.4byte	.LASF68
ARM GAS  C:\Users\jo\AppData\Local\Temp\ccYEnDGd.s 			page 13


 673 037c 07       		.byte	0x7
 674 037d 5301     		.2byte	0x153
 675 037f B4000000 		.4byte	0xb4
 676 0383 10       		.byte	0x10
 677 0384 00       		.byte	0
 678 0385 02       		.uleb128 0x2
 679 0386 AC000000 		.4byte	.LASF69
 680 038a 06       		.byte	0x6
 681 038b 61       		.byte	0x61
 682 038c 90030000 		.4byte	0x390
 683 0390 0D       		.uleb128 0xd
 684 0391 EF020000 		.4byte	.LASF70
 685 0395 10       		.byte	0x10
 686 0396 07       		.byte	0x7
 687 0397 5D01     		.2byte	0x15d
 688 0399 D2030000 		.4byte	0x3d2
 689 039d 0C       		.uleb128 0xc
 690 039e E6010000 		.4byte	.LASF64
 691 03a2 07       		.byte	0x7
 692 03a3 5E01     		.2byte	0x15e
 693 03a5 6A060000 		.4byte	0x66a
 694 03a9 00       		.byte	0
 695 03aa 0C       		.uleb128 0xc
 696 03ab BA010000 		.4byte	.LASF65
 697 03af 07       		.byte	0x7
 698 03b0 6001     		.2byte	0x160
 699 03b2 6A060000 		.4byte	0x66a
 700 03b6 04       		.byte	0x4
 701 03b7 0C       		.uleb128 0xc
 702 03b8 F7010000 		.4byte	.LASF66
 703 03bc 07       		.byte	0x7
 704 03bd 6201     		.2byte	0x162
 705 03bf 51010000 		.4byte	0x151
 706 03c3 08       		.byte	0x8
 707 03c4 0C       		.uleb128 0xc
 708 03c5 0D030000 		.4byte	.LASF71
 709 03c9 07       		.byte	0x7
 710 03ca 6A01     		.2byte	0x16a
 711 03cc 51010000 		.4byte	0x151
 712 03d0 0C       		.byte	0xc
 713 03d1 00       		.byte	0
 714 03d2 02       		.uleb128 0x2
 715 03d3 56000000 		.4byte	.LASF72
 716 03d7 06       		.byte	0x6
 717 03d8 66       		.byte	0x66
 718 03d9 DD030000 		.4byte	0x3dd
 719 03dd 0D       		.uleb128 0xd
 720 03de D4030000 		.4byte	.LASF73
 721 03e2 04       		.byte	0x4
 722 03e3 07       		.byte	0x7
 723 03e4 8401     		.2byte	0x184
 724 03e6 F8030000 		.4byte	0x3f8
 725 03ea 0C       		.uleb128 0xc
 726 03eb B3060000 		.4byte	.LASF74
 727 03ef 07       		.byte	0x7
 728 03f0 8C01     		.2byte	0x18c
 729 03f2 70060000 		.4byte	0x670
ARM GAS  C:\Users\jo\AppData\Local\Temp\ccYEnDGd.s 			page 14


 730 03f6 00       		.byte	0
 731 03f7 00       		.byte	0
 732 03f8 02       		.uleb128 0x2
 733 03f9 5E020000 		.4byte	.LASF75
 734 03fd 06       		.byte	0x6
 735 03fe 6B       		.byte	0x6b
 736 03ff 03040000 		.4byte	0x403
 737 0403 10       		.uleb128 0x10
 738 0404 25010000 		.4byte	.LASF76
 739 0408 D801     		.2byte	0x1d8
 740 040a 07       		.byte	0x7
 741 040b A401     		.2byte	0x1a4
 742 040d 5F040000 		.4byte	0x45f
 743 0411 0C       		.uleb128 0xc
 744 0412 22070000 		.4byte	.LASF77
 745 0416 07       		.byte	0x7
 746 0417 A801     		.2byte	0x1a8
 747 0419 A8020000 		.4byte	0x2a8
 748 041d 00       		.byte	0
 749 041e 0C       		.uleb128 0xc
 750 041f 18010000 		.4byte	.LASF78
 751 0423 07       		.byte	0x7
 752 0424 AC01     		.2byte	0x1ac
 753 0426 85030000 		.4byte	0x385
 754 042a 1C       		.byte	0x1c
 755 042b 0B       		.uleb128 0xb
 756 042c 64626700 		.ascii	"dbg\000"
 757 0430 07       		.byte	0x7
 758 0431 B001     		.2byte	0x1b0
 759 0433 D2030000 		.4byte	0x3d2
 760 0437 2C       		.byte	0x2c
 761 0438 0C       		.uleb128 0xc
 762 0439 A1000000 		.4byte	.LASF79
 763 043d 07       		.byte	0x7
 764 043e B401     		.2byte	0x1b4
 765 0440 5C010000 		.4byte	0x15c
 766 0444 30       		.byte	0x30
 767 0445 0B       		.uleb128 0xb
 768 0446 746D00   		.ascii	"tm\000"
 769 0449 07       		.byte	0x7
 770 044a B901     		.2byte	0x1b9
 771 044c EA050000 		.4byte	0x5ea
 772 0450 74       		.byte	0x74
 773 0451 0C       		.uleb128 0xc
 774 0452 CA010000 		.4byte	.LASF80
 775 0456 07       		.byte	0x7
 776 0457 C501     		.2byte	0x1c5
 777 0459 75060000 		.4byte	0x675
 778 045d 78       		.byte	0x78
 779 045e 00       		.byte	0
 780 045f 02       		.uleb128 0x2
 781 0460 B1010000 		.4byte	.LASF81
 782 0464 08       		.byte	0x8
 783 0465 85       		.byte	0x85
 784 0466 B4000000 		.4byte	0xb4
 785 046a 02       		.uleb128 0x2
 786 046b 96020000 		.4byte	.LASF82
ARM GAS  C:\Users\jo\AppData\Local\Temp\ccYEnDGd.s 			page 15


 787 046f 08       		.byte	0x8
 788 0470 8D       		.byte	0x8d
 789 0471 F4000000 		.4byte	0xf4
 790 0475 09       		.uleb128 0x9
 791 0476 CE060000 		.4byte	.LASF83
 792 047a 04       		.byte	0x4
 793 047b 08       		.byte	0x8
 794 047c A9       		.byte	0xa9
 795 047d 8E040000 		.4byte	0x48e
 796 0481 11       		.uleb128 0x11
 797 0482 72313300 		.ascii	"r13\000"
 798 0486 08       		.byte	0x8
 799 0487 AA       		.byte	0xaa
 800 0488 CF050000 		.4byte	0x5cf
 801 048c 00       		.byte	0
 802 048d 00       		.byte	0
 803 048e 09       		.uleb128 0x9
 804 048f 4A000000 		.4byte	.LASF84
 805 0493 64       		.byte	0x64
 806 0494 09       		.byte	0x9
 807 0495 F4       		.byte	0xf4
 808 0496 CF050000 		.4byte	0x5cf
 809 049a 11       		.uleb128 0x11
 810 049b 73313600 		.ascii	"s16\000"
 811 049f 09       		.byte	0x9
 812 04a0 F6       		.byte	0xf6
 813 04a1 5F040000 		.4byte	0x45f
 814 04a5 00       		.byte	0
 815 04a6 11       		.uleb128 0x11
 816 04a7 73313700 		.ascii	"s17\000"
 817 04ab 09       		.byte	0x9
 818 04ac F7       		.byte	0xf7
 819 04ad 5F040000 		.4byte	0x45f
 820 04b1 04       		.byte	0x4
 821 04b2 11       		.uleb128 0x11
 822 04b3 73313800 		.ascii	"s18\000"
 823 04b7 09       		.byte	0x9
 824 04b8 F8       		.byte	0xf8
 825 04b9 5F040000 		.4byte	0x45f
 826 04bd 08       		.byte	0x8
 827 04be 11       		.uleb128 0x11
 828 04bf 73313900 		.ascii	"s19\000"
 829 04c3 09       		.byte	0x9
 830 04c4 F9       		.byte	0xf9
 831 04c5 5F040000 		.4byte	0x45f
 832 04c9 0C       		.byte	0xc
 833 04ca 11       		.uleb128 0x11
 834 04cb 73323000 		.ascii	"s20\000"
 835 04cf 09       		.byte	0x9
 836 04d0 FA       		.byte	0xfa
 837 04d1 5F040000 		.4byte	0x45f
 838 04d5 10       		.byte	0x10
 839 04d6 11       		.uleb128 0x11
 840 04d7 73323100 		.ascii	"s21\000"
 841 04db 09       		.byte	0x9
 842 04dc FB       		.byte	0xfb
 843 04dd 5F040000 		.4byte	0x45f
ARM GAS  C:\Users\jo\AppData\Local\Temp\ccYEnDGd.s 			page 16


 844 04e1 14       		.byte	0x14
 845 04e2 11       		.uleb128 0x11
 846 04e3 73323200 		.ascii	"s22\000"
 847 04e7 09       		.byte	0x9
 848 04e8 FC       		.byte	0xfc
 849 04e9 5F040000 		.4byte	0x45f
 850 04ed 18       		.byte	0x18
 851 04ee 11       		.uleb128 0x11
 852 04ef 73323300 		.ascii	"s23\000"
 853 04f3 09       		.byte	0x9
 854 04f4 FD       		.byte	0xfd
 855 04f5 5F040000 		.4byte	0x45f
 856 04f9 1C       		.byte	0x1c
 857 04fa 11       		.uleb128 0x11
 858 04fb 73323400 		.ascii	"s24\000"
 859 04ff 09       		.byte	0x9
 860 0500 FE       		.byte	0xfe
 861 0501 5F040000 		.4byte	0x45f
 862 0505 20       		.byte	0x20
 863 0506 11       		.uleb128 0x11
 864 0507 73323500 		.ascii	"s25\000"
 865 050b 09       		.byte	0x9
 866 050c FF       		.byte	0xff
 867 050d 5F040000 		.4byte	0x45f
 868 0511 24       		.byte	0x24
 869 0512 0B       		.uleb128 0xb
 870 0513 73323600 		.ascii	"s26\000"
 871 0517 09       		.byte	0x9
 872 0518 0001     		.2byte	0x100
 873 051a 5F040000 		.4byte	0x45f
 874 051e 28       		.byte	0x28
 875 051f 0B       		.uleb128 0xb
 876 0520 73323700 		.ascii	"s27\000"
 877 0524 09       		.byte	0x9
 878 0525 0101     		.2byte	0x101
 879 0527 5F040000 		.4byte	0x45f
 880 052b 2C       		.byte	0x2c
 881 052c 0B       		.uleb128 0xb
 882 052d 73323800 		.ascii	"s28\000"
 883 0531 09       		.byte	0x9
 884 0532 0201     		.2byte	0x102
 885 0534 5F040000 		.4byte	0x45f
 886 0538 30       		.byte	0x30
 887 0539 0B       		.uleb128 0xb
 888 053a 73323900 		.ascii	"s29\000"
 889 053e 09       		.byte	0x9
 890 053f 0301     		.2byte	0x103
 891 0541 5F040000 		.4byte	0x45f
 892 0545 34       		.byte	0x34
 893 0546 0B       		.uleb128 0xb
 894 0547 73333000 		.ascii	"s30\000"
 895 054b 09       		.byte	0x9
 896 054c 0401     		.2byte	0x104
 897 054e 5F040000 		.4byte	0x45f
 898 0552 38       		.byte	0x38
 899 0553 0B       		.uleb128 0xb
 900 0554 73333100 		.ascii	"s31\000"
ARM GAS  C:\Users\jo\AppData\Local\Temp\ccYEnDGd.s 			page 17


 901 0558 09       		.byte	0x9
 902 0559 0501     		.2byte	0x105
 903 055b 5F040000 		.4byte	0x45f
 904 055f 3C       		.byte	0x3c
 905 0560 0B       		.uleb128 0xb
 906 0561 723400   		.ascii	"r4\000"
 907 0564 09       		.byte	0x9
 908 0565 0701     		.2byte	0x107
 909 0567 5F040000 		.4byte	0x45f
 910 056b 40       		.byte	0x40
 911 056c 0B       		.uleb128 0xb
 912 056d 723500   		.ascii	"r5\000"
 913 0570 09       		.byte	0x9
 914 0571 0801     		.2byte	0x108
 915 0573 5F040000 		.4byte	0x45f
 916 0577 44       		.byte	0x44
 917 0578 0B       		.uleb128 0xb
 918 0579 723600   		.ascii	"r6\000"
 919 057c 09       		.byte	0x9
 920 057d 0901     		.2byte	0x109
 921 057f 5F040000 		.4byte	0x45f
 922 0583 48       		.byte	0x48
 923 0584 0B       		.uleb128 0xb
 924 0585 723700   		.ascii	"r7\000"
 925 0588 09       		.byte	0x9
 926 0589 0A01     		.2byte	0x10a
 927 058b 5F040000 		.4byte	0x45f
 928 058f 4C       		.byte	0x4c
 929 0590 0B       		.uleb128 0xb
 930 0591 723800   		.ascii	"r8\000"
 931 0594 09       		.byte	0x9
 932 0595 0B01     		.2byte	0x10b
 933 0597 5F040000 		.4byte	0x45f
 934 059b 50       		.byte	0x50
 935 059c 0B       		.uleb128 0xb
 936 059d 723900   		.ascii	"r9\000"
 937 05a0 09       		.byte	0x9
 938 05a1 0C01     		.2byte	0x10c
 939 05a3 5F040000 		.4byte	0x45f
 940 05a7 54       		.byte	0x54
 941 05a8 0B       		.uleb128 0xb
 942 05a9 72313000 		.ascii	"r10\000"
 943 05ad 09       		.byte	0x9
 944 05ae 0D01     		.2byte	0x10d
 945 05b0 5F040000 		.4byte	0x45f
 946 05b4 58       		.byte	0x58
 947 05b5 0B       		.uleb128 0xb
 948 05b6 72313100 		.ascii	"r11\000"
 949 05ba 09       		.byte	0x9
 950 05bb 0E01     		.2byte	0x10e
 951 05bd 5F040000 		.4byte	0x45f
 952 05c1 5C       		.byte	0x5c
 953 05c2 0B       		.uleb128 0xb
 954 05c3 6C7200   		.ascii	"lr\000"
 955 05c6 09       		.byte	0x9
 956 05c7 0F01     		.2byte	0x10f
 957 05c9 5F040000 		.4byte	0x45f
ARM GAS  C:\Users\jo\AppData\Local\Temp\ccYEnDGd.s 			page 18


 958 05cd 60       		.byte	0x60
 959 05ce 00       		.byte	0
 960 05cf 06       		.uleb128 0x6
 961 05d0 04       		.byte	0x4
 962 05d1 8E040000 		.4byte	0x48e
 963 05d5 12       		.uleb128 0x12
 964 05d6 04       		.byte	0x4
 965 05d7 0A       		.byte	0xa
 966 05d8 38       		.byte	0x38
 967 05d9 EA050000 		.4byte	0x5ea
 968 05dd 0A       		.uleb128 0xa
 969 05de BD060000 		.4byte	.LASF85
 970 05e2 0A       		.byte	0xa
 971 05e3 3C       		.byte	0x3c
 972 05e4 04010000 		.4byte	0x104
 973 05e8 00       		.byte	0
 974 05e9 00       		.byte	0
 975 05ea 02       		.uleb128 0x2
 976 05eb 32030000 		.4byte	.LASF86
 977 05ef 0A       		.byte	0xa
 978 05f0 3D       		.byte	0x3d
 979 05f1 D5050000 		.4byte	0x5d5
 980 05f5 06       		.uleb128 0x6
 981 05f6 04       		.byte	0x4
 982 05f7 5C010000 		.4byte	0x15c
 983 05fb 13       		.uleb128 0x13
 984 05fc 04       		.byte	0x4
 985 05fd 07       		.byte	0x7
 986 05fe F6       		.byte	0xf6
 987 05ff 33060000 		.4byte	0x633
 988 0603 14       		.uleb128 0x14
 989 0604 29000000 		.4byte	.LASF87
 990 0608 07       		.byte	0x7
 991 0609 FD       		.byte	0xfd
 992 060a 3B010000 		.4byte	0x13b
 993 060e 15       		.uleb128 0x15
 994 060f 98000000 		.4byte	.LASF88
 995 0613 07       		.byte	0x7
 996 0614 0401     		.2byte	0x104
 997 0616 3B010000 		.4byte	0x13b
 998 061a 15       		.uleb128 0x15
 999 061b 3A070000 		.4byte	.LASF89
 1000 061f 07       		.byte	0x7
 1001 0620 0B01     		.2byte	0x10b
 1002 0622 B4000000 		.4byte	0xb4
 1003 0626 15       		.uleb128 0x15
 1004 0627 44040000 		.4byte	.LASF90
 1005 062b 07       		.byte	0x7
 1006 062c 1201     		.2byte	0x112
 1007 062e 46010000 		.4byte	0x146
 1008 0632 00       		.byte	0
 1009 0633 09       		.uleb128 0x9
 1010 0634 C2030000 		.4byte	.LASF91
 1011 0638 10       		.byte	0x10
 1012 0639 0B       		.byte	0xb
 1013 063a 39       		.byte	0x39
 1014 063b 64060000 		.4byte	0x664
ARM GAS  C:\Users\jo\AppData\Local\Temp\ccYEnDGd.s 			page 19


 1015 063f 0A       		.uleb128 0xa
 1016 0640 10010000 		.4byte	.LASF92
 1017 0644 0B       		.byte	0xb
 1018 0645 3A       		.byte	0x3a
 1019 0646 78020000 		.4byte	0x278
 1020 064a 00       		.byte	0
 1021 064b 0A       		.uleb128 0xa
 1022 064c 6B070000 		.4byte	.LASF93
 1023 0650 0B       		.byte	0xb
 1024 0651 3C       		.byte	0x3c
 1025 0652 F5050000 		.4byte	0x5f5
 1026 0656 08       		.byte	0x8
 1027 0657 0A       		.uleb128 0xa
 1028 0658 83060000 		.4byte	.LASF94
 1029 065c 0B       		.byte	0xb
 1030 065d 3E       		.byte	0x3e
 1031 065e 90060000 		.4byte	0x690
 1032 0662 0C       		.byte	0xc
 1033 0663 00       		.byte	0
 1034 0664 06       		.uleb128 0x6
 1035 0665 04       		.byte	0x4
 1036 0666 33060000 		.4byte	0x633
 1037 066a 06       		.uleb128 0x6
 1038 066b 04       		.byte	0x4
 1039 066c 2B030000 		.4byte	0x32b
 1040 0670 08       		.uleb128 0x8
 1041 0671 BD000000 		.4byte	0xbd
 1042 0675 16       		.uleb128 0x16
 1043 0676 6A040000 		.4byte	0x46a
 1044 067a 85060000 		.4byte	0x685
 1045 067e 17       		.uleb128 0x17
 1046 067f AD000000 		.4byte	0xad
 1047 0683 2B       		.byte	0x2b
 1048 0684 00       		.byte	0
 1049 0685 02       		.uleb128 0x2
 1050 0686 C2010000 		.4byte	.LASF95
 1051 068a 0B       		.byte	0xb
 1052 068b 34       		.byte	0x34
 1053 068c 33060000 		.4byte	0x633
 1054 0690 06       		.uleb128 0x6
 1055 0691 04       		.byte	0x4
 1056 0692 85060000 		.4byte	0x685
 1057 0696 03       		.uleb128 0x3
 1058 0697 01       		.byte	0x1
 1059 0698 02       		.byte	0x2
 1060 0699 E4030000 		.4byte	.LASF96
 1061 069d 02       		.uleb128 0x2
 1062 069e 1F010000 		.4byte	.LASF97
 1063 06a2 0C       		.byte	0xc
 1064 06a3 2D       		.byte	0x2d
 1065 06a4 50000000 		.4byte	0x50
 1066 06a8 02       		.uleb128 0x2
 1067 06a9 06030000 		.4byte	.LASF98
 1068 06ad 0C       		.byte	0xc
 1069 06ae 30       		.byte	0x30
 1070 06af D3000000 		.4byte	0xd3
 1071 06b3 18       		.uleb128 0x18
ARM GAS  C:\Users\jo\AppData\Local\Temp\ccYEnDGd.s 			page 20


 1072 06b4 01       		.byte	0x1
 1073 06b5 0D       		.byte	0xd
 1074 06b6 3B       		.byte	0x3b
 1075 06b7 F8060000 		.4byte	0x6f8
 1076 06bb 19       		.uleb128 0x19
 1077 06bc 27030000 		.4byte	.LASF99
 1078 06c0 00       		.sleb128 0
 1079 06c1 19       		.uleb128 0x19
 1080 06c2 59060000 		.4byte	.LASF100
 1081 06c6 01       		.sleb128 1
 1082 06c7 19       		.uleb128 0x19
 1083 06c8 A1020000 		.4byte	.LASF101
 1084 06cc 02       		.sleb128 2
 1085 06cd 19       		.uleb128 0x19
 1086 06ce 4E010000 		.4byte	.LASF102
 1087 06d2 03       		.sleb128 3
 1088 06d3 19       		.uleb128 0x19
 1089 06d4 43030000 		.4byte	.LASF103
 1090 06d8 04       		.sleb128 4
 1091 06d9 19       		.uleb128 0x19
 1092 06da 10070000 		.4byte	.LASF104
 1093 06de 05       		.sleb128 5
 1094 06df 19       		.uleb128 0x19
 1095 06e0 8A030000 		.4byte	.LASF105
 1096 06e4 06       		.sleb128 6
 1097 06e5 19       		.uleb128 0x19
 1098 06e6 7C010000 		.4byte	.LASF106
 1099 06ea 08       		.sleb128 8
 1100 06eb 19       		.uleb128 0x19
 1101 06ec D5020000 		.4byte	.LASF107
 1102 06f0 0A       		.sleb128 10
 1103 06f1 19       		.uleb128 0x19
 1104 06f2 73050000 		.4byte	.LASF108
 1105 06f6 0B       		.sleb128 11
 1106 06f7 00       		.byte	0
 1107 06f8 02       		.uleb128 0x2
 1108 06f9 0D000000 		.4byte	.LASF109
 1109 06fd 0D       		.byte	0xd
 1110 06fe 46       		.byte	0x46
 1111 06ff B3060000 		.4byte	0x6b3
 1112 0703 06       		.uleb128 0x6
 1113 0704 04       		.byte	0x4
 1114 0705 9D060000 		.4byte	0x69d
 1115 0709 18       		.uleb128 0x18
 1116 070a 01       		.byte	0x1
 1117 070b 0E       		.byte	0xe
 1118 070c 71       		.byte	0x71
 1119 070d 42070000 		.4byte	0x742
 1120 0711 19       		.uleb128 0x19
 1121 0712 54020000 		.4byte	.LASF110
 1122 0716 00       		.sleb128 0
 1123 0717 19       		.uleb128 0x19
 1124 0718 2F020000 		.4byte	.LASF111
 1125 071c 01       		.sleb128 1
 1126 071d 19       		.uleb128 0x19
 1127 071e 79060000 		.4byte	.LASF112
 1128 0722 02       		.sleb128 2
ARM GAS  C:\Users\jo\AppData\Local\Temp\ccYEnDGd.s 			page 21


 1129 0723 19       		.uleb128 0x19
 1130 0724 D6060000 		.4byte	.LASF113
 1131 0728 03       		.sleb128 3
 1132 0729 19       		.uleb128 0x19
 1133 072a 0B020000 		.4byte	.LASF114
 1134 072e 04       		.sleb128 4
 1135 072f 19       		.uleb128 0x19
 1136 0730 30000000 		.4byte	.LASF115
 1137 0734 05       		.sleb128 5
 1138 0735 19       		.uleb128 0x19
 1139 0736 67010000 		.4byte	.LASF116
 1140 073a 06       		.sleb128 6
 1141 073b 19       		.uleb128 0x19
 1142 073c 22020000 		.4byte	.LASF117
 1143 0740 07       		.sleb128 7
 1144 0741 00       		.byte	0
 1145 0742 02       		.uleb128 0x2
 1146 0743 38010000 		.4byte	.LASF118
 1147 0747 0E       		.byte	0xe
 1148 0748 7A       		.byte	0x7a
 1149 0749 09070000 		.4byte	0x709
 1150 074d 1A       		.uleb128 0x1a
 1151 074e 70030000 		.4byte	.LASF137
 1152 0752 01       		.byte	0x1
 1153 0753 2F       		.byte	0x2f
 1154 0754 00000000 		.4byte	.LFB256
 1155 0758 50000000 		.4byte	.LFE256-.LFB256
 1156 075c 01       		.uleb128 0x1
 1157 075d 9C       		.byte	0x9c
 1158 075e 20080000 		.4byte	0x820
 1159 0762 1B       		.uleb128 0x1b
 1160 0763 30070000 		.4byte	.LASF119
 1161 0767 01       		.byte	0x1
 1162 0768 2F       		.byte	0x2f
 1163 0769 03070000 		.4byte	0x703
 1164 076d 00000000 		.4byte	.LLST0
 1165 0771 1B       		.uleb128 0x1b
 1166 0772 C8030000 		.4byte	.LASF120
 1167 0776 01       		.byte	0x1
 1168 0777 2F       		.byte	0x2f
 1169 0778 A8060000 		.4byte	0x6a8
 1170 077c 21000000 		.4byte	.LLST1
 1171 0780 1B       		.uleb128 0x1b
 1172 0781 EA060000 		.4byte	.LASF121
 1173 0785 01       		.byte	0x1
 1174 0786 2F       		.byte	0x2f
 1175 0787 9D060000 		.4byte	0x69d
 1176 078b 5B000000 		.4byte	.LLST2
 1177 078f 1B       		.uleb128 0x1b
 1178 0790 21000000 		.4byte	.LASF122
 1179 0794 01       		.byte	0x1
 1180 0795 30       		.byte	0x30
 1181 0796 9D060000 		.4byte	0x69d
 1182 079a 95000000 		.4byte	.LLST3
 1183 079e 1C       		.uleb128 0x1c
 1184 079f C4060000 		.4byte	.LASF123
 1185 07a3 01       		.byte	0x1
ARM GAS  C:\Users\jo\AppData\Local\Temp\ccYEnDGd.s 			page 22


 1186 07a4 32       		.byte	0x32
 1187 07a5 A8060000 		.4byte	0x6a8
 1188 07a9 CF000000 		.4byte	.LLST4
 1189 07ad 1D       		.uleb128 0x1d
 1190 07ae 01010000 		.4byte	.LASF127
 1191 07b2 01       		.byte	0x1
 1192 07b3 33       		.byte	0x33
 1193 07b4 A8060000 		.4byte	0x6a8
 1194 07b8 1C       		.uleb128 0x1c
 1195 07b9 65000000 		.4byte	.LASF124
 1196 07bd 01       		.byte	0x1
 1197 07be 34       		.byte	0x34
 1198 07bf A8060000 		.4byte	0x6a8
 1199 07c3 19010000 		.4byte	.LLST5
 1200 07c7 1C       		.uleb128 0x1c
 1201 07c8 39020000 		.4byte	.LASF125
 1202 07cc 01       		.byte	0x1
 1203 07cd 35       		.byte	0x35
 1204 07ce A8060000 		.4byte	0x6a8
 1205 07d2 2C010000 		.4byte	.LLST6
 1206 07d6 1C       		.uleb128 0x1c
 1207 07d7 C4020000 		.4byte	.LASF126
 1208 07db 01       		.byte	0x1
 1209 07dc 36       		.byte	0x36
 1210 07dd A8060000 		.4byte	0x6a8
 1211 07e1 59010000 		.4byte	.LLST7
 1212 07e5 1E       		.uleb128 0x1e
 1213 07e6 15020000 		.4byte	.LASF128
 1214 07ea 30080000 		.4byte	0x830
 1215 07ee 05       		.uleb128 0x5
 1216 07ef 03       		.byte	0x3
 1217 07f0 00000000 		.4byte	__FUNCTION__.9022
 1218 07f4 1F       		.uleb128 0x1f
 1219 07f5 42000000 		.4byte	.LVL14
 1220 07f9 FF080000 		.4byte	0x8ff
 1221 07fd 20       		.uleb128 0x20
 1222 07fe 01       		.uleb128 0x1
 1223 07ff 53       		.byte	0x53
 1224 0800 05       		.uleb128 0x5
 1225 0801 03       		.byte	0x3
 1226 0802 28000000 		.4byte	.LC1
 1227 0806 20       		.uleb128 0x20
 1228 0807 01       		.uleb128 0x1
 1229 0808 52       		.byte	0x52
 1230 0809 05       		.uleb128 0x5
 1231 080a 03       		.byte	0x3
 1232 080b 00000000 		.4byte	.LANCHOR0
 1233 080f 20       		.uleb128 0x20
 1234 0810 01       		.uleb128 0x1
 1235 0811 51       		.byte	0x51
 1236 0812 02       		.uleb128 0x2
 1237 0813 08       		.byte	0x8
 1238 0814 38       		.byte	0x38
 1239 0815 20       		.uleb128 0x20
 1240 0816 01       		.uleb128 0x1
 1241 0817 50       		.byte	0x50
 1242 0818 05       		.uleb128 0x5
ARM GAS  C:\Users\jo\AppData\Local\Temp\ccYEnDGd.s 			page 23


 1243 0819 03       		.byte	0x3
 1244 081a 00000000 		.4byte	.LC0
 1245 081e 00       		.byte	0
 1246 081f 00       		.byte	0
 1247 0820 16       		.uleb128 0x16
 1248 0821 B6000000 		.4byte	0xb6
 1249 0825 30080000 		.4byte	0x830
 1250 0829 17       		.uleb128 0x17
 1251 082a AD000000 		.4byte	0xad
 1252 082e 0E       		.byte	0xe
 1253 082f 00       		.byte	0
 1254 0830 07       		.uleb128 0x7
 1255 0831 20080000 		.4byte	0x820
 1256 0835 21       		.uleb128 0x21
 1257 0836 89000000 		.4byte	.LASF129
 1258 083a 01       		.byte	0x1
 1259 083b 56       		.byte	0x56
 1260 083c 9D060000 		.4byte	0x69d
 1261 0840 00000000 		.4byte	.LFB257
 1262 0844 26000000 		.4byte	.LFE257-.LFB257
 1263 0848 01       		.uleb128 0x1
 1264 0849 9C       		.byte	0x9c
 1265 084a B2080000 		.4byte	0x8b2
 1266 084e 1B       		.uleb128 0x1b
 1267 084f 30070000 		.4byte	.LASF119
 1268 0853 01       		.byte	0x1
 1269 0854 56       		.byte	0x56
 1270 0855 03070000 		.4byte	0x703
 1271 0859 E9010000 		.4byte	.LLST8
 1272 085d 1B       		.uleb128 0x1b
 1273 085e C8030000 		.4byte	.LASF120
 1274 0862 01       		.byte	0x1
 1275 0863 56       		.byte	0x56
 1276 0864 A8060000 		.4byte	0x6a8
 1277 0868 0A020000 		.4byte	.LLST9
 1278 086c 22       		.uleb128 0x22
 1279 086d EA060000 		.4byte	.LASF121
 1280 0871 01       		.byte	0x1
 1281 0872 56       		.byte	0x56
 1282 0873 9D060000 		.4byte	0x69d
 1283 0877 01       		.uleb128 0x1
 1284 0878 52       		.byte	0x52
 1285 0879 1C       		.uleb128 0x1c
 1286 087a C4060000 		.4byte	.LASF123
 1287 087e 01       		.byte	0x1
 1288 087f 58       		.byte	0x58
 1289 0880 A8060000 		.4byte	0x6a8
 1290 0884 2B020000 		.4byte	.LLST10
 1291 0888 1D       		.uleb128 0x1d
 1292 0889 01010000 		.4byte	.LASF127
 1293 088d 01       		.byte	0x1
 1294 088e 59       		.byte	0x59
 1295 088f A8060000 		.4byte	0x6a8
 1296 0893 1C       		.uleb128 0x1c
 1297 0894 65000000 		.4byte	.LASF124
 1298 0898 01       		.byte	0x1
 1299 0899 5A       		.byte	0x5a
ARM GAS  C:\Users\jo\AppData\Local\Temp\ccYEnDGd.s 			page 24


 1300 089a A8060000 		.4byte	0x6a8
 1301 089e D2020000 		.4byte	.LLST11
 1302 08a2 1C       		.uleb128 0x1c
 1303 08a3 39020000 		.4byte	.LASF125
 1304 08a7 01       		.byte	0x1
 1305 08a8 5B       		.byte	0x5b
 1306 08a9 A8060000 		.4byte	0x6a8
 1307 08ad E5020000 		.4byte	.LLST12
 1308 08b1 00       		.byte	0
 1309 08b2 21       		.uleb128 0x21
 1310 08b3 00040000 		.4byte	.LASF130
 1311 08b7 01       		.byte	0x1
 1312 08b8 75       		.byte	0x75
 1313 08b9 F8060000 		.4byte	0x6f8
 1314 08bd 00000000 		.4byte	.LFB258
 1315 08c1 10000000 		.4byte	.LFE258-.LFB258
 1316 08c5 01       		.uleb128 0x1
 1317 08c6 9C       		.byte	0x9c
 1318 08c7 E8080000 		.4byte	0x8e8
 1319 08cb 1B       		.uleb128 0x1b
 1320 08cc 32040000 		.4byte	.LASF131
 1321 08d0 01       		.byte	0x1
 1322 08d1 75       		.byte	0x75
 1323 08d2 42070000 		.4byte	0x742
 1324 08d6 12030000 		.4byte	.LLST13
 1325 08da 23       		.uleb128 0x23
 1326 08db BC020000 		.4byte	.LASF132
 1327 08df 01       		.byte	0x1
 1328 08e0 77       		.byte	0x77
 1329 08e1 F8060000 		.4byte	0x6f8
 1330 08e5 01       		.uleb128 0x1
 1331 08e6 50       		.byte	0x50
 1332 08e7 00       		.byte	0
 1333 08e8 24       		.uleb128 0x24
 1334 08e9 C2000000 		.4byte	.LASF133
 1335 08ed 0F       		.byte	0xf
 1336 08ee A706     		.2byte	0x6a7
 1337 08f0 FF000000 		.4byte	0xff
 1338 08f4 25       		.uleb128 0x25
 1339 08f5 636800   		.ascii	"ch\000"
 1340 08f8 07       		.byte	0x7
 1341 08f9 EB01     		.2byte	0x1eb
 1342 08fb F8030000 		.4byte	0x3f8
 1343 08ff 26       		.uleb128 0x26
 1344 0900 41070000 		.4byte	.LASF138
 1345 0904 10       		.byte	0x10
 1346 0905 29       		.byte	0x29
 1347 0906 0F       		.uleb128 0xf
 1348 0907 BD000000 		.4byte	0xbd
 1349 090b 0F       		.uleb128 0xf
 1350 090c 37000000 		.4byte	0x37
 1351 0910 0F       		.uleb128 0xf
 1352 0911 BD000000 		.4byte	0xbd
 1353 0915 0F       		.uleb128 0xf
 1354 0916 BD000000 		.4byte	0xbd
 1355 091a 00       		.byte	0
 1356 091b 00       		.byte	0
ARM GAS  C:\Users\jo\AppData\Local\Temp\ccYEnDGd.s 			page 25


 1357              		.section	.debug_abbrev,"",%progbits
 1358              	.Ldebug_abbrev0:
 1359 0000 01       		.uleb128 0x1
 1360 0001 11       		.uleb128 0x11
 1361 0002 01       		.byte	0x1
 1362 0003 25       		.uleb128 0x25
 1363 0004 0E       		.uleb128 0xe
 1364 0005 13       		.uleb128 0x13
 1365 0006 0B       		.uleb128 0xb
 1366 0007 03       		.uleb128 0x3
 1367 0008 0E       		.uleb128 0xe
 1368 0009 1B       		.uleb128 0x1b
 1369 000a 0E       		.uleb128 0xe
 1370 000b 55       		.uleb128 0x55
 1371 000c 17       		.uleb128 0x17
 1372 000d 11       		.uleb128 0x11
 1373 000e 01       		.uleb128 0x1
 1374 000f 10       		.uleb128 0x10
 1375 0010 17       		.uleb128 0x17
 1376 0011 00       		.byte	0
 1377 0012 00       		.byte	0
 1378 0013 02       		.uleb128 0x2
 1379 0014 16       		.uleb128 0x16
 1380 0015 00       		.byte	0
 1381 0016 03       		.uleb128 0x3
 1382 0017 0E       		.uleb128 0xe
 1383 0018 3A       		.uleb128 0x3a
 1384 0019 0B       		.uleb128 0xb
 1385 001a 3B       		.uleb128 0x3b
 1386 001b 0B       		.uleb128 0xb
 1387 001c 49       		.uleb128 0x49
 1388 001d 13       		.uleb128 0x13
 1389 001e 00       		.byte	0
 1390 001f 00       		.byte	0
 1391 0020 03       		.uleb128 0x3
 1392 0021 24       		.uleb128 0x24
 1393 0022 00       		.byte	0
 1394 0023 0B       		.uleb128 0xb
 1395 0024 0B       		.uleb128 0xb
 1396 0025 3E       		.uleb128 0x3e
 1397 0026 0B       		.uleb128 0xb
 1398 0027 03       		.uleb128 0x3
 1399 0028 0E       		.uleb128 0xe
 1400 0029 00       		.byte	0
 1401 002a 00       		.byte	0
 1402 002b 04       		.uleb128 0x4
 1403 002c 24       		.uleb128 0x24
 1404 002d 00       		.byte	0
 1405 002e 0B       		.uleb128 0xb
 1406 002f 0B       		.uleb128 0xb
 1407 0030 3E       		.uleb128 0x3e
 1408 0031 0B       		.uleb128 0xb
 1409 0032 03       		.uleb128 0x3
 1410 0033 08       		.uleb128 0x8
 1411 0034 00       		.byte	0
 1412 0035 00       		.byte	0
 1413 0036 05       		.uleb128 0x5
ARM GAS  C:\Users\jo\AppData\Local\Temp\ccYEnDGd.s 			page 26


 1414 0037 0F       		.uleb128 0xf
 1415 0038 00       		.byte	0
 1416 0039 0B       		.uleb128 0xb
 1417 003a 0B       		.uleb128 0xb
 1418 003b 00       		.byte	0
 1419 003c 00       		.byte	0
 1420 003d 06       		.uleb128 0x6
 1421 003e 0F       		.uleb128 0xf
 1422 003f 00       		.byte	0
 1423 0040 0B       		.uleb128 0xb
 1424 0041 0B       		.uleb128 0xb
 1425 0042 49       		.uleb128 0x49
 1426 0043 13       		.uleb128 0x13
 1427 0044 00       		.byte	0
 1428 0045 00       		.byte	0
 1429 0046 07       		.uleb128 0x7
 1430 0047 26       		.uleb128 0x26
 1431 0048 00       		.byte	0
 1432 0049 49       		.uleb128 0x49
 1433 004a 13       		.uleb128 0x13
 1434 004b 00       		.byte	0
 1435 004c 00       		.byte	0
 1436 004d 08       		.uleb128 0x8
 1437 004e 35       		.uleb128 0x35
 1438 004f 00       		.byte	0
 1439 0050 49       		.uleb128 0x49
 1440 0051 13       		.uleb128 0x13
 1441 0052 00       		.byte	0
 1442 0053 00       		.byte	0
 1443 0054 09       		.uleb128 0x9
 1444 0055 13       		.uleb128 0x13
 1445 0056 01       		.byte	0x1
 1446 0057 03       		.uleb128 0x3
 1447 0058 0E       		.uleb128 0xe
 1448 0059 0B       		.uleb128 0xb
 1449 005a 0B       		.uleb128 0xb
 1450 005b 3A       		.uleb128 0x3a
 1451 005c 0B       		.uleb128 0xb
 1452 005d 3B       		.uleb128 0x3b
 1453 005e 0B       		.uleb128 0xb
 1454 005f 01       		.uleb128 0x1
 1455 0060 13       		.uleb128 0x13
 1456 0061 00       		.byte	0
 1457 0062 00       		.byte	0
 1458 0063 0A       		.uleb128 0xa
 1459 0064 0D       		.uleb128 0xd
 1460 0065 00       		.byte	0
 1461 0066 03       		.uleb128 0x3
 1462 0067 0E       		.uleb128 0xe
 1463 0068 3A       		.uleb128 0x3a
 1464 0069 0B       		.uleb128 0xb
 1465 006a 3B       		.uleb128 0x3b
 1466 006b 0B       		.uleb128 0xb
 1467 006c 49       		.uleb128 0x49
 1468 006d 13       		.uleb128 0x13
 1469 006e 38       		.uleb128 0x38
 1470 006f 0B       		.uleb128 0xb
ARM GAS  C:\Users\jo\AppData\Local\Temp\ccYEnDGd.s 			page 27


 1471 0070 00       		.byte	0
 1472 0071 00       		.byte	0
 1473 0072 0B       		.uleb128 0xb
 1474 0073 0D       		.uleb128 0xd
 1475 0074 00       		.byte	0
 1476 0075 03       		.uleb128 0x3
 1477 0076 08       		.uleb128 0x8
 1478 0077 3A       		.uleb128 0x3a
 1479 0078 0B       		.uleb128 0xb
 1480 0079 3B       		.uleb128 0x3b
 1481 007a 05       		.uleb128 0x5
 1482 007b 49       		.uleb128 0x49
 1483 007c 13       		.uleb128 0x13
 1484 007d 38       		.uleb128 0x38
 1485 007e 0B       		.uleb128 0xb
 1486 007f 00       		.byte	0
 1487 0080 00       		.byte	0
 1488 0081 0C       		.uleb128 0xc
 1489 0082 0D       		.uleb128 0xd
 1490 0083 00       		.byte	0
 1491 0084 03       		.uleb128 0x3
 1492 0085 0E       		.uleb128 0xe
 1493 0086 3A       		.uleb128 0x3a
 1494 0087 0B       		.uleb128 0xb
 1495 0088 3B       		.uleb128 0x3b
 1496 0089 05       		.uleb128 0x5
 1497 008a 49       		.uleb128 0x49
 1498 008b 13       		.uleb128 0x13
 1499 008c 38       		.uleb128 0x38
 1500 008d 0B       		.uleb128 0xb
 1501 008e 00       		.byte	0
 1502 008f 00       		.byte	0
 1503 0090 0D       		.uleb128 0xd
 1504 0091 13       		.uleb128 0x13
 1505 0092 01       		.byte	0x1
 1506 0093 03       		.uleb128 0x3
 1507 0094 0E       		.uleb128 0xe
 1508 0095 0B       		.uleb128 0xb
 1509 0096 0B       		.uleb128 0xb
 1510 0097 3A       		.uleb128 0x3a
 1511 0098 0B       		.uleb128 0xb
 1512 0099 3B       		.uleb128 0x3b
 1513 009a 05       		.uleb128 0x5
 1514 009b 01       		.uleb128 0x1
 1515 009c 13       		.uleb128 0x13
 1516 009d 00       		.byte	0
 1517 009e 00       		.byte	0
 1518 009f 0E       		.uleb128 0xe
 1519 00a0 15       		.uleb128 0x15
 1520 00a1 01       		.byte	0x1
 1521 00a2 27       		.uleb128 0x27
 1522 00a3 19       		.uleb128 0x19
 1523 00a4 01       		.uleb128 0x1
 1524 00a5 13       		.uleb128 0x13
 1525 00a6 00       		.byte	0
 1526 00a7 00       		.byte	0
 1527 00a8 0F       		.uleb128 0xf
ARM GAS  C:\Users\jo\AppData\Local\Temp\ccYEnDGd.s 			page 28


 1528 00a9 05       		.uleb128 0x5
 1529 00aa 00       		.byte	0
 1530 00ab 49       		.uleb128 0x49
 1531 00ac 13       		.uleb128 0x13
 1532 00ad 00       		.byte	0
 1533 00ae 00       		.byte	0
 1534 00af 10       		.uleb128 0x10
 1535 00b0 13       		.uleb128 0x13
 1536 00b1 01       		.byte	0x1
 1537 00b2 03       		.uleb128 0x3
 1538 00b3 0E       		.uleb128 0xe
 1539 00b4 0B       		.uleb128 0xb
 1540 00b5 05       		.uleb128 0x5
 1541 00b6 3A       		.uleb128 0x3a
 1542 00b7 0B       		.uleb128 0xb
 1543 00b8 3B       		.uleb128 0x3b
 1544 00b9 05       		.uleb128 0x5
 1545 00ba 01       		.uleb128 0x1
 1546 00bb 13       		.uleb128 0x13
 1547 00bc 00       		.byte	0
 1548 00bd 00       		.byte	0
 1549 00be 11       		.uleb128 0x11
 1550 00bf 0D       		.uleb128 0xd
 1551 00c0 00       		.byte	0
 1552 00c1 03       		.uleb128 0x3
 1553 00c2 08       		.uleb128 0x8
 1554 00c3 3A       		.uleb128 0x3a
 1555 00c4 0B       		.uleb128 0xb
 1556 00c5 3B       		.uleb128 0x3b
 1557 00c6 0B       		.uleb128 0xb
 1558 00c7 49       		.uleb128 0x49
 1559 00c8 13       		.uleb128 0x13
 1560 00c9 38       		.uleb128 0x38
 1561 00ca 0B       		.uleb128 0xb
 1562 00cb 00       		.byte	0
 1563 00cc 00       		.byte	0
 1564 00cd 12       		.uleb128 0x12
 1565 00ce 13       		.uleb128 0x13
 1566 00cf 01       		.byte	0x1
 1567 00d0 0B       		.uleb128 0xb
 1568 00d1 0B       		.uleb128 0xb
 1569 00d2 3A       		.uleb128 0x3a
 1570 00d3 0B       		.uleb128 0xb
 1571 00d4 3B       		.uleb128 0x3b
 1572 00d5 0B       		.uleb128 0xb
 1573 00d6 01       		.uleb128 0x1
 1574 00d7 13       		.uleb128 0x13
 1575 00d8 00       		.byte	0
 1576 00d9 00       		.byte	0
 1577 00da 13       		.uleb128 0x13
 1578 00db 17       		.uleb128 0x17
 1579 00dc 01       		.byte	0x1
 1580 00dd 0B       		.uleb128 0xb
 1581 00de 0B       		.uleb128 0xb
 1582 00df 3A       		.uleb128 0x3a
 1583 00e0 0B       		.uleb128 0xb
 1584 00e1 3B       		.uleb128 0x3b
ARM GAS  C:\Users\jo\AppData\Local\Temp\ccYEnDGd.s 			page 29


 1585 00e2 0B       		.uleb128 0xb
 1586 00e3 01       		.uleb128 0x1
 1587 00e4 13       		.uleb128 0x13
 1588 00e5 00       		.byte	0
 1589 00e6 00       		.byte	0
 1590 00e7 14       		.uleb128 0x14
 1591 00e8 0D       		.uleb128 0xd
 1592 00e9 00       		.byte	0
 1593 00ea 03       		.uleb128 0x3
 1594 00eb 0E       		.uleb128 0xe
 1595 00ec 3A       		.uleb128 0x3a
 1596 00ed 0B       		.uleb128 0xb
 1597 00ee 3B       		.uleb128 0x3b
 1598 00ef 0B       		.uleb128 0xb
 1599 00f0 49       		.uleb128 0x49
 1600 00f1 13       		.uleb128 0x13
 1601 00f2 00       		.byte	0
 1602 00f3 00       		.byte	0
 1603 00f4 15       		.uleb128 0x15
 1604 00f5 0D       		.uleb128 0xd
 1605 00f6 00       		.byte	0
 1606 00f7 03       		.uleb128 0x3
 1607 00f8 0E       		.uleb128 0xe
 1608 00f9 3A       		.uleb128 0x3a
 1609 00fa 0B       		.uleb128 0xb
 1610 00fb 3B       		.uleb128 0x3b
 1611 00fc 05       		.uleb128 0x5
 1612 00fd 49       		.uleb128 0x49
 1613 00fe 13       		.uleb128 0x13
 1614 00ff 00       		.byte	0
 1615 0100 00       		.byte	0
 1616 0101 16       		.uleb128 0x16
 1617 0102 01       		.uleb128 0x1
 1618 0103 01       		.byte	0x1
 1619 0104 49       		.uleb128 0x49
 1620 0105 13       		.uleb128 0x13
 1621 0106 01       		.uleb128 0x1
 1622 0107 13       		.uleb128 0x13
 1623 0108 00       		.byte	0
 1624 0109 00       		.byte	0
 1625 010a 17       		.uleb128 0x17
 1626 010b 21       		.uleb128 0x21
 1627 010c 00       		.byte	0
 1628 010d 49       		.uleb128 0x49
 1629 010e 13       		.uleb128 0x13
 1630 010f 2F       		.uleb128 0x2f
 1631 0110 0B       		.uleb128 0xb
 1632 0111 00       		.byte	0
 1633 0112 00       		.byte	0
 1634 0113 18       		.uleb128 0x18
 1635 0114 04       		.uleb128 0x4
 1636 0115 01       		.byte	0x1
 1637 0116 0B       		.uleb128 0xb
 1638 0117 0B       		.uleb128 0xb
 1639 0118 3A       		.uleb128 0x3a
 1640 0119 0B       		.uleb128 0xb
 1641 011a 3B       		.uleb128 0x3b
ARM GAS  C:\Users\jo\AppData\Local\Temp\ccYEnDGd.s 			page 30


 1642 011b 0B       		.uleb128 0xb
 1643 011c 01       		.uleb128 0x1
 1644 011d 13       		.uleb128 0x13
 1645 011e 00       		.byte	0
 1646 011f 00       		.byte	0
 1647 0120 19       		.uleb128 0x19
 1648 0121 28       		.uleb128 0x28
 1649 0122 00       		.byte	0
 1650 0123 03       		.uleb128 0x3
 1651 0124 0E       		.uleb128 0xe
 1652 0125 1C       		.uleb128 0x1c
 1653 0126 0D       		.uleb128 0xd
 1654 0127 00       		.byte	0
 1655 0128 00       		.byte	0
 1656 0129 1A       		.uleb128 0x1a
 1657 012a 2E       		.uleb128 0x2e
 1658 012b 01       		.byte	0x1
 1659 012c 3F       		.uleb128 0x3f
 1660 012d 19       		.uleb128 0x19
 1661 012e 03       		.uleb128 0x3
 1662 012f 0E       		.uleb128 0xe
 1663 0130 3A       		.uleb128 0x3a
 1664 0131 0B       		.uleb128 0xb
 1665 0132 3B       		.uleb128 0x3b
 1666 0133 0B       		.uleb128 0xb
 1667 0134 27       		.uleb128 0x27
 1668 0135 19       		.uleb128 0x19
 1669 0136 11       		.uleb128 0x11
 1670 0137 01       		.uleb128 0x1
 1671 0138 12       		.uleb128 0x12
 1672 0139 06       		.uleb128 0x6
 1673 013a 40       		.uleb128 0x40
 1674 013b 18       		.uleb128 0x18
 1675 013c 9742     		.uleb128 0x2117
 1676 013e 19       		.uleb128 0x19
 1677 013f 01       		.uleb128 0x1
 1678 0140 13       		.uleb128 0x13
 1679 0141 00       		.byte	0
 1680 0142 00       		.byte	0
 1681 0143 1B       		.uleb128 0x1b
 1682 0144 05       		.uleb128 0x5
 1683 0145 00       		.byte	0
 1684 0146 03       		.uleb128 0x3
 1685 0147 0E       		.uleb128 0xe
 1686 0148 3A       		.uleb128 0x3a
 1687 0149 0B       		.uleb128 0xb
 1688 014a 3B       		.uleb128 0x3b
 1689 014b 0B       		.uleb128 0xb
 1690 014c 49       		.uleb128 0x49
 1691 014d 13       		.uleb128 0x13
 1692 014e 02       		.uleb128 0x2
 1693 014f 17       		.uleb128 0x17
 1694 0150 00       		.byte	0
 1695 0151 00       		.byte	0
 1696 0152 1C       		.uleb128 0x1c
 1697 0153 34       		.uleb128 0x34
 1698 0154 00       		.byte	0
ARM GAS  C:\Users\jo\AppData\Local\Temp\ccYEnDGd.s 			page 31


 1699 0155 03       		.uleb128 0x3
 1700 0156 0E       		.uleb128 0xe
 1701 0157 3A       		.uleb128 0x3a
 1702 0158 0B       		.uleb128 0xb
 1703 0159 3B       		.uleb128 0x3b
 1704 015a 0B       		.uleb128 0xb
 1705 015b 49       		.uleb128 0x49
 1706 015c 13       		.uleb128 0x13
 1707 015d 02       		.uleb128 0x2
 1708 015e 17       		.uleb128 0x17
 1709 015f 00       		.byte	0
 1710 0160 00       		.byte	0
 1711 0161 1D       		.uleb128 0x1d
 1712 0162 34       		.uleb128 0x34
 1713 0163 00       		.byte	0
 1714 0164 03       		.uleb128 0x3
 1715 0165 0E       		.uleb128 0xe
 1716 0166 3A       		.uleb128 0x3a
 1717 0167 0B       		.uleb128 0xb
 1718 0168 3B       		.uleb128 0x3b
 1719 0169 0B       		.uleb128 0xb
 1720 016a 49       		.uleb128 0x49
 1721 016b 13       		.uleb128 0x13
 1722 016c 00       		.byte	0
 1723 016d 00       		.byte	0
 1724 016e 1E       		.uleb128 0x1e
 1725 016f 34       		.uleb128 0x34
 1726 0170 00       		.byte	0
 1727 0171 03       		.uleb128 0x3
 1728 0172 0E       		.uleb128 0xe
 1729 0173 49       		.uleb128 0x49
 1730 0174 13       		.uleb128 0x13
 1731 0175 34       		.uleb128 0x34
 1732 0176 19       		.uleb128 0x19
 1733 0177 02       		.uleb128 0x2
 1734 0178 18       		.uleb128 0x18
 1735 0179 00       		.byte	0
 1736 017a 00       		.byte	0
 1737 017b 1F       		.uleb128 0x1f
 1738 017c 898201   		.uleb128 0x4109
 1739 017f 01       		.byte	0x1
 1740 0180 11       		.uleb128 0x11
 1741 0181 01       		.uleb128 0x1
 1742 0182 31       		.uleb128 0x31
 1743 0183 13       		.uleb128 0x13
 1744 0184 00       		.byte	0
 1745 0185 00       		.byte	0
 1746 0186 20       		.uleb128 0x20
 1747 0187 8A8201   		.uleb128 0x410a
 1748 018a 00       		.byte	0
 1749 018b 02       		.uleb128 0x2
 1750 018c 18       		.uleb128 0x18
 1751 018d 9142     		.uleb128 0x2111
 1752 018f 18       		.uleb128 0x18
 1753 0190 00       		.byte	0
 1754 0191 00       		.byte	0
 1755 0192 21       		.uleb128 0x21
ARM GAS  C:\Users\jo\AppData\Local\Temp\ccYEnDGd.s 			page 32


 1756 0193 2E       		.uleb128 0x2e
 1757 0194 01       		.byte	0x1
 1758 0195 3F       		.uleb128 0x3f
 1759 0196 19       		.uleb128 0x19
 1760 0197 03       		.uleb128 0x3
 1761 0198 0E       		.uleb128 0xe
 1762 0199 3A       		.uleb128 0x3a
 1763 019a 0B       		.uleb128 0xb
 1764 019b 3B       		.uleb128 0x3b
 1765 019c 0B       		.uleb128 0xb
 1766 019d 27       		.uleb128 0x27
 1767 019e 19       		.uleb128 0x19
 1768 019f 49       		.uleb128 0x49
 1769 01a0 13       		.uleb128 0x13
 1770 01a1 11       		.uleb128 0x11
 1771 01a2 01       		.uleb128 0x1
 1772 01a3 12       		.uleb128 0x12
 1773 01a4 06       		.uleb128 0x6
 1774 01a5 40       		.uleb128 0x40
 1775 01a6 18       		.uleb128 0x18
 1776 01a7 9742     		.uleb128 0x2117
 1777 01a9 19       		.uleb128 0x19
 1778 01aa 01       		.uleb128 0x1
 1779 01ab 13       		.uleb128 0x13
 1780 01ac 00       		.byte	0
 1781 01ad 00       		.byte	0
 1782 01ae 22       		.uleb128 0x22
 1783 01af 05       		.uleb128 0x5
 1784 01b0 00       		.byte	0
 1785 01b1 03       		.uleb128 0x3
 1786 01b2 0E       		.uleb128 0xe
 1787 01b3 3A       		.uleb128 0x3a
 1788 01b4 0B       		.uleb128 0xb
 1789 01b5 3B       		.uleb128 0x3b
 1790 01b6 0B       		.uleb128 0xb
 1791 01b7 49       		.uleb128 0x49
 1792 01b8 13       		.uleb128 0x13
 1793 01b9 02       		.uleb128 0x2
 1794 01ba 18       		.uleb128 0x18
 1795 01bb 00       		.byte	0
 1796 01bc 00       		.byte	0
 1797 01bd 23       		.uleb128 0x23
 1798 01be 34       		.uleb128 0x34
 1799 01bf 00       		.byte	0
 1800 01c0 03       		.uleb128 0x3
 1801 01c1 0E       		.uleb128 0xe
 1802 01c2 3A       		.uleb128 0x3a
 1803 01c3 0B       		.uleb128 0xb
 1804 01c4 3B       		.uleb128 0x3b
 1805 01c5 0B       		.uleb128 0xb
 1806 01c6 49       		.uleb128 0x49
 1807 01c7 13       		.uleb128 0x13
 1808 01c8 02       		.uleb128 0x2
 1809 01c9 18       		.uleb128 0x18
 1810 01ca 00       		.byte	0
 1811 01cb 00       		.byte	0
 1812 01cc 24       		.uleb128 0x24
ARM GAS  C:\Users\jo\AppData\Local\Temp\ccYEnDGd.s 			page 33


 1813 01cd 34       		.uleb128 0x34
 1814 01ce 00       		.byte	0
 1815 01cf 03       		.uleb128 0x3
 1816 01d0 0E       		.uleb128 0xe
 1817 01d1 3A       		.uleb128 0x3a
 1818 01d2 0B       		.uleb128 0xb
 1819 01d3 3B       		.uleb128 0x3b
 1820 01d4 05       		.uleb128 0x5
 1821 01d5 49       		.uleb128 0x49
 1822 01d6 13       		.uleb128 0x13
 1823 01d7 3F       		.uleb128 0x3f
 1824 01d8 19       		.uleb128 0x19
 1825 01d9 3C       		.uleb128 0x3c
 1826 01da 19       		.uleb128 0x19
 1827 01db 00       		.byte	0
 1828 01dc 00       		.byte	0
 1829 01dd 25       		.uleb128 0x25
 1830 01de 34       		.uleb128 0x34
 1831 01df 00       		.byte	0
 1832 01e0 03       		.uleb128 0x3
 1833 01e1 08       		.uleb128 0x8
 1834 01e2 3A       		.uleb128 0x3a
 1835 01e3 0B       		.uleb128 0xb
 1836 01e4 3B       		.uleb128 0x3b
 1837 01e5 05       		.uleb128 0x5
 1838 01e6 49       		.uleb128 0x49
 1839 01e7 13       		.uleb128 0x13
 1840 01e8 3F       		.uleb128 0x3f
 1841 01e9 19       		.uleb128 0x19
 1842 01ea 3C       		.uleb128 0x3c
 1843 01eb 19       		.uleb128 0x19
 1844 01ec 00       		.byte	0
 1845 01ed 00       		.byte	0
 1846 01ee 26       		.uleb128 0x26
 1847 01ef 2E       		.uleb128 0x2e
 1848 01f0 01       		.byte	0x1
 1849 01f1 3F       		.uleb128 0x3f
 1850 01f2 19       		.uleb128 0x19
 1851 01f3 03       		.uleb128 0x3
 1852 01f4 0E       		.uleb128 0xe
 1853 01f5 3A       		.uleb128 0x3a
 1854 01f6 0B       		.uleb128 0xb
 1855 01f7 3B       		.uleb128 0x3b
 1856 01f8 0B       		.uleb128 0xb
 1857 01f9 27       		.uleb128 0x27
 1858 01fa 19       		.uleb128 0x19
 1859 01fb 3C       		.uleb128 0x3c
 1860 01fc 19       		.uleb128 0x19
 1861 01fd 00       		.byte	0
 1862 01fe 00       		.byte	0
 1863 01ff 00       		.byte	0
 1864              		.section	.debug_loc,"",%progbits
 1865              	.Ldebug_loc0:
 1866              	.LLST0:
 1867 0000 00000000 		.4byte	.LVL0
 1868 0004 38000000 		.4byte	.LVL10
 1869 0008 0100     		.2byte	0x1
ARM GAS  C:\Users\jo\AppData\Local\Temp\ccYEnDGd.s 			page 34


 1870 000a 50       		.byte	0x50
 1871 000b 38000000 		.4byte	.LVL10
 1872 000f 50000000 		.4byte	.LFE256
 1873 0013 0400     		.2byte	0x4
 1874 0015 F3       		.byte	0xf3
 1875 0016 01       		.uleb128 0x1
 1876 0017 50       		.byte	0x50
 1877 0018 9F       		.byte	0x9f
 1878 0019 00000000 		.4byte	0
 1879 001d 00000000 		.4byte	0
 1880              	.LLST1:
 1881 0021 00000000 		.4byte	.LVL0
 1882 0025 1A000000 		.4byte	.LVL6
 1883 0029 0100     		.2byte	0x1
 1884 002b 51       		.byte	0x51
 1885 002c 1A000000 		.4byte	.LVL6
 1886 0030 36000000 		.4byte	.LVL9
 1887 0034 0400     		.2byte	0x4
 1888 0036 F3       		.byte	0xf3
 1889 0037 01       		.uleb128 0x1
 1890 0038 51       		.byte	0x51
 1891 0039 9F       		.byte	0x9f
 1892 003a 36000000 		.4byte	.LVL9
 1893 003e 3E000000 		.4byte	.LVL13
 1894 0042 0100     		.2byte	0x1
 1895 0044 51       		.byte	0x51
 1896 0045 3E000000 		.4byte	.LVL13
 1897 0049 50000000 		.4byte	.LFE256
 1898 004d 0400     		.2byte	0x4
 1899 004f F3       		.byte	0xf3
 1900 0050 01       		.uleb128 0x1
 1901 0051 51       		.byte	0x51
 1902 0052 9F       		.byte	0x9f
 1903 0053 00000000 		.4byte	0
 1904 0057 00000000 		.4byte	0
 1905              	.LLST2:
 1906 005b 00000000 		.4byte	.LVL0
 1907 005f 0C000000 		.4byte	.LVL3
 1908 0063 0100     		.2byte	0x1
 1909 0065 52       		.byte	0x52
 1910 0066 0C000000 		.4byte	.LVL3
 1911 006a 36000000 		.4byte	.LVL9
 1912 006e 0400     		.2byte	0x4
 1913 0070 F3       		.byte	0xf3
 1914 0071 01       		.uleb128 0x1
 1915 0072 52       		.byte	0x52
 1916 0073 9F       		.byte	0x9f
 1917 0074 36000000 		.4byte	.LVL9
 1918 0078 3A000000 		.4byte	.LVL11
 1919 007c 0100     		.2byte	0x1
 1920 007e 52       		.byte	0x52
 1921 007f 3A000000 		.4byte	.LVL11
 1922 0083 50000000 		.4byte	.LFE256
 1923 0087 0400     		.2byte	0x4
 1924 0089 F3       		.byte	0xf3
 1925 008a 01       		.uleb128 0x1
 1926 008b 52       		.byte	0x52
ARM GAS  C:\Users\jo\AppData\Local\Temp\ccYEnDGd.s 			page 35


 1927 008c 9F       		.byte	0x9f
 1928 008d 00000000 		.4byte	0
 1929 0091 00000000 		.4byte	0
 1930              	.LLST3:
 1931 0095 00000000 		.4byte	.LVL0
 1932 0099 26000000 		.4byte	.LVL7
 1933 009d 0100     		.2byte	0x1
 1934 009f 53       		.byte	0x53
 1935 00a0 26000000 		.4byte	.LVL7
 1936 00a4 36000000 		.4byte	.LVL9
 1937 00a8 0400     		.2byte	0x4
 1938 00aa F3       		.byte	0xf3
 1939 00ab 01       		.uleb128 0x1
 1940 00ac 53       		.byte	0x53
 1941 00ad 9F       		.byte	0x9f
 1942 00ae 36000000 		.4byte	.LVL9
 1943 00b2 3C000000 		.4byte	.LVL12
 1944 00b6 0100     		.2byte	0x1
 1945 00b8 53       		.byte	0x53
 1946 00b9 3C000000 		.4byte	.LVL12
 1947 00bd 50000000 		.4byte	.LFE256
 1948 00c1 0400     		.2byte	0x4
 1949 00c3 F3       		.byte	0xf3
 1950 00c4 01       		.uleb128 0x1
 1951 00c5 53       		.byte	0x53
 1952 00c6 9F       		.byte	0x9f
 1953 00c7 00000000 		.4byte	0
 1954 00cb 00000000 		.4byte	0
 1955              	.LLST4:
 1956 00cf 0A000000 		.4byte	.LVL2
 1957 00d3 0E000000 		.4byte	.LVL4
 1958 00d7 0B00     		.2byte	0xb
 1959 00d9 70       		.byte	0x70
 1960 00da 00       		.sleb128 0
 1961 00db 74       		.byte	0x74
 1962 00dc 00       		.sleb128 0
 1963 00dd 22       		.byte	0x22
 1964 00de 94       		.byte	0x94
 1965 00df 01       		.byte	0x1
 1966 00e0 08       		.byte	0x8
 1967 00e1 FF       		.byte	0xff
 1968 00e2 1A       		.byte	0x1a
 1969 00e3 9F       		.byte	0x9f
 1970 00e4 0E000000 		.4byte	.LVL4
 1971 00e8 2E000000 		.4byte	.LVL8
 1972 00ec 1800     		.2byte	0x18
 1973 00ee 70       		.byte	0x70
 1974 00ef 00       		.sleb128 0
 1975 00f0 75       		.byte	0x75
 1976 00f1 00       		.sleb128 0
 1977 00f2 22       		.byte	0x22
 1978 00f3 94       		.byte	0x94
 1979 00f4 01       		.byte	0x1
 1980 00f5 08       		.byte	0x8
 1981 00f6 FF       		.byte	0xff
 1982 00f7 1A       		.byte	0x1a
 1983 00f8 38       		.byte	0x38
ARM GAS  C:\Users\jo\AppData\Local\Temp\ccYEnDGd.s 			page 36


 1984 00f9 24       		.byte	0x24
 1985 00fa 70       		.byte	0x70
 1986 00fb 00       		.sleb128 0
 1987 00fc 74       		.byte	0x74
 1988 00fd 00       		.sleb128 0
 1989 00fe 22       		.byte	0x22
 1990 00ff 94       		.byte	0x94
 1991 0100 01       		.byte	0x1
 1992 0101 08       		.byte	0x8
 1993 0102 FF       		.byte	0xff
 1994 0103 1A       		.byte	0x1a
 1995 0104 21       		.byte	0x21
 1996 0105 9F       		.byte	0x9f
 1997 0106 2E000000 		.4byte	.LVL8
 1998 010a 36000000 		.4byte	.LVL9
 1999 010e 0100     		.2byte	0x1
 2000 0110 52       		.byte	0x52
 2001 0111 00000000 		.4byte	0
 2002 0115 00000000 		.4byte	0
 2003              	.LLST5:
 2004 0119 0A000000 		.4byte	.LVL2
 2005 011d 36000000 		.4byte	.LVL9
 2006 0121 0100     		.2byte	0x1
 2007 0123 54       		.byte	0x54
 2008 0124 00000000 		.4byte	0
 2009 0128 00000000 		.4byte	0
 2010              	.LLST6:
 2011 012c 0A000000 		.4byte	.LVL2
 2012 0130 1A000000 		.4byte	.LVL6
 2013 0134 0800     		.2byte	0x8
 2014 0136 71       		.byte	0x71
 2015 0137 00       		.sleb128 0
 2016 0138 74       		.byte	0x74
 2017 0139 00       		.sleb128 0
 2018 013a 33       		.byte	0x33
 2019 013b 24       		.byte	0x24
 2020 013c 1C       		.byte	0x1c
 2021 013d 9F       		.byte	0x9f
 2022 013e 1A000000 		.4byte	.LVL6
 2023 0142 36000000 		.4byte	.LVL9
 2024 0146 0900     		.2byte	0x9
 2025 0148 F3       		.byte	0xf3
 2026 0149 01       		.uleb128 0x1
 2027 014a 51       		.byte	0x51
 2028 014b 74       		.byte	0x74
 2029 014c 00       		.sleb128 0
 2030 014d 33       		.byte	0x33
 2031 014e 24       		.byte	0x24
 2032 014f 1C       		.byte	0x1c
 2033 0150 9F       		.byte	0x9f
 2034 0151 00000000 		.4byte	0
 2035 0155 00000000 		.4byte	0
 2036              	.LLST7:
 2037 0159 06000000 		.4byte	.LVL1
 2038 015d 0A000000 		.4byte	.LVL2
 2039 0161 0600     		.2byte	0x6
 2040 0163 73       		.byte	0x73
ARM GAS  C:\Users\jo\AppData\Local\Temp\ccYEnDGd.s 			page 37


 2041 0164 00       		.sleb128 0
 2042 0165 08       		.byte	0x8
 2043 0166 FF       		.byte	0xff
 2044 0167 1A       		.byte	0x1a
 2045 0168 9F       		.byte	0x9f
 2046 0169 0A000000 		.4byte	.LVL2
 2047 016d 1A000000 		.4byte	.LVL6
 2048 0171 1200     		.2byte	0x12
 2049 0173 73       		.byte	0x73
 2050 0174 00       		.sleb128 0
 2051 0175 08       		.byte	0x8
 2052 0176 FF       		.byte	0xff
 2053 0177 1A       		.byte	0x1a
 2054 0178 71       		.byte	0x71
 2055 0179 00       		.sleb128 0
 2056 017a 74       		.byte	0x74
 2057 017b 00       		.sleb128 0
 2058 017c 33       		.byte	0x33
 2059 017d 24       		.byte	0x24
 2060 017e 1C       		.byte	0x1c
 2061 017f 0A       		.byte	0xa
 2062 0180 FFFF     		.2byte	0xffff
 2063 0182 1A       		.byte	0x1a
 2064 0183 24       		.byte	0x24
 2065 0184 9F       		.byte	0x9f
 2066 0185 1A000000 		.4byte	.LVL6
 2067 0189 26000000 		.4byte	.LVL7
 2068 018d 1300     		.2byte	0x13
 2069 018f 73       		.byte	0x73
 2070 0190 00       		.sleb128 0
 2071 0191 08       		.byte	0x8
 2072 0192 FF       		.byte	0xff
 2073 0193 1A       		.byte	0x1a
 2074 0194 F3       		.byte	0xf3
 2075 0195 01       		.uleb128 0x1
 2076 0196 51       		.byte	0x51
 2077 0197 74       		.byte	0x74
 2078 0198 00       		.sleb128 0
 2079 0199 33       		.byte	0x33
 2080 019a 24       		.byte	0x24
 2081 019b 1C       		.byte	0x1c
 2082 019c 0A       		.byte	0xa
 2083 019d FFFF     		.2byte	0xffff
 2084 019f 1A       		.byte	0x1a
 2085 01a0 24       		.byte	0x24
 2086 01a1 9F       		.byte	0x9f
 2087 01a2 26000000 		.4byte	.LVL7
 2088 01a6 36000000 		.4byte	.LVL9
 2089 01aa 1400     		.2byte	0x14
 2090 01ac F3       		.byte	0xf3
 2091 01ad 01       		.uleb128 0x1
 2092 01ae 53       		.byte	0x53
 2093 01af 08       		.byte	0x8
 2094 01b0 FF       		.byte	0xff
 2095 01b1 1A       		.byte	0x1a
 2096 01b2 F3       		.byte	0xf3
 2097 01b3 01       		.uleb128 0x1
ARM GAS  C:\Users\jo\AppData\Local\Temp\ccYEnDGd.s 			page 38


 2098 01b4 51       		.byte	0x51
 2099 01b5 74       		.byte	0x74
 2100 01b6 00       		.sleb128 0
 2101 01b7 33       		.byte	0x33
 2102 01b8 24       		.byte	0x24
 2103 01b9 1C       		.byte	0x1c
 2104 01ba 0A       		.byte	0xa
 2105 01bb FFFF     		.2byte	0xffff
 2106 01bd 1A       		.byte	0x1a
 2107 01be 24       		.byte	0x24
 2108 01bf 9F       		.byte	0x9f
 2109 01c0 36000000 		.4byte	.LVL9
 2110 01c4 3C000000 		.4byte	.LVL12
 2111 01c8 0600     		.2byte	0x6
 2112 01ca 73       		.byte	0x73
 2113 01cb 00       		.sleb128 0
 2114 01cc 08       		.byte	0x8
 2115 01cd FF       		.byte	0xff
 2116 01ce 1A       		.byte	0x1a
 2117 01cf 9F       		.byte	0x9f
 2118 01d0 3C000000 		.4byte	.LVL12
 2119 01d4 50000000 		.4byte	.LFE256
 2120 01d8 0700     		.2byte	0x7
 2121 01da F3       		.byte	0xf3
 2122 01db 01       		.uleb128 0x1
 2123 01dc 53       		.byte	0x53
 2124 01dd 08       		.byte	0x8
 2125 01de FF       		.byte	0xff
 2126 01df 1A       		.byte	0x1a
 2127 01e0 9F       		.byte	0x9f
 2128 01e1 00000000 		.4byte	0
 2129 01e5 00000000 		.4byte	0
 2130              	.LLST8:
 2131 01e9 00000000 		.4byte	.LVL15
 2132 01ed 08000000 		.4byte	.LVL18
 2133 01f1 0100     		.2byte	0x1
 2134 01f3 50       		.byte	0x50
 2135 01f4 08000000 		.4byte	.LVL18
 2136 01f8 26000000 		.4byte	.LFE257
 2137 01fc 0400     		.2byte	0x4
 2138 01fe F3       		.byte	0xf3
 2139 01ff 01       		.uleb128 0x1
 2140 0200 50       		.byte	0x50
 2141 0201 9F       		.byte	0x9f
 2142 0202 00000000 		.4byte	0
 2143 0206 00000000 		.4byte	0
 2144              	.LLST9:
 2145 020a 00000000 		.4byte	.LVL15
 2146 020e 0E000000 		.4byte	.LVL20
 2147 0212 0100     		.2byte	0x1
 2148 0214 51       		.byte	0x51
 2149 0215 0E000000 		.4byte	.LVL20
 2150 0219 26000000 		.4byte	.LFE257
 2151 021d 0400     		.2byte	0x4
 2152 021f F3       		.byte	0xf3
 2153 0220 01       		.uleb128 0x1
 2154 0221 51       		.byte	0x51
ARM GAS  C:\Users\jo\AppData\Local\Temp\ccYEnDGd.s 			page 39


 2155 0222 9F       		.byte	0x9f
 2156 0223 00000000 		.4byte	0
 2157 0227 00000000 		.4byte	0
 2158              	.LLST10:
 2159 022b 04000000 		.4byte	.LVL16
 2160 022f 06000000 		.4byte	.LVL17
 2161 0233 1A00     		.2byte	0x1a
 2162 0235 70       		.byte	0x70
 2163 0236 00       		.sleb128 0
 2164 0237 73       		.byte	0x73
 2165 0238 00       		.sleb128 0
 2166 0239 22       		.byte	0x22
 2167 023a 23       		.byte	0x23
 2168 023b 01       		.uleb128 0x1
 2169 023c 94       		.byte	0x94
 2170 023d 01       		.byte	0x1
 2171 023e 08       		.byte	0x8
 2172 023f FF       		.byte	0xff
 2173 0240 1A       		.byte	0x1a
 2174 0241 38       		.byte	0x38
 2175 0242 24       		.byte	0x24
 2176 0243 70       		.byte	0x70
 2177 0244 00       		.sleb128 0
 2178 0245 73       		.byte	0x73
 2179 0246 00       		.sleb128 0
 2180 0247 22       		.byte	0x22
 2181 0248 94       		.byte	0x94
 2182 0249 01       		.byte	0x1
 2183 024a 08       		.byte	0x8
 2184 024b FF       		.byte	0xff
 2185 024c 1A       		.byte	0x1a
 2186 024d 21       		.byte	0x21
 2187 024e 9F       		.byte	0x9f
 2188 024f 06000000 		.4byte	.LVL17
 2189 0253 08000000 		.4byte	.LVL18
 2190 0257 1700     		.2byte	0x17
 2191 0259 70       		.byte	0x70
 2192 025a 00       		.sleb128 0
 2193 025b 73       		.byte	0x73
 2194 025c 00       		.sleb128 0
 2195 025d 22       		.byte	0x22
 2196 025e 23       		.byte	0x23
 2197 025f 01       		.uleb128 0x1
 2198 0260 94       		.byte	0x94
 2199 0261 01       		.byte	0x1
 2200 0262 08       		.byte	0x8
 2201 0263 FF       		.byte	0xff
 2202 0264 1A       		.byte	0x1a
 2203 0265 38       		.byte	0x38
 2204 0266 24       		.byte	0x24
 2205 0267 74       		.byte	0x74
 2206 0268 00       		.sleb128 0
 2207 0269 94       		.byte	0x94
 2208 026a 01       		.byte	0x1
 2209 026b 08       		.byte	0x8
 2210 026c FF       		.byte	0xff
 2211 026d 1A       		.byte	0x1a
ARM GAS  C:\Users\jo\AppData\Local\Temp\ccYEnDGd.s 			page 40


 2212 026e 21       		.byte	0x21
 2213 026f 9F       		.byte	0x9f
 2214 0270 08000000 		.4byte	.LVL18
 2215 0274 0A000000 		.4byte	.LVL19
 2216 0278 1800     		.2byte	0x18
 2217 027a F3       		.byte	0xf3
 2218 027b 01       		.uleb128 0x1
 2219 027c 50       		.byte	0x50
 2220 027d 73       		.byte	0x73
 2221 027e 00       		.sleb128 0
 2222 027f 22       		.byte	0x22
 2223 0280 23       		.byte	0x23
 2224 0281 01       		.uleb128 0x1
 2225 0282 94       		.byte	0x94
 2226 0283 01       		.byte	0x1
 2227 0284 08       		.byte	0x8
 2228 0285 FF       		.byte	0xff
 2229 0286 1A       		.byte	0x1a
 2230 0287 38       		.byte	0x38
 2231 0288 24       		.byte	0x24
 2232 0289 74       		.byte	0x74
 2233 028a 00       		.sleb128 0
 2234 028b 94       		.byte	0x94
 2235 028c 01       		.byte	0x1
 2236 028d 08       		.byte	0x8
 2237 028e FF       		.byte	0xff
 2238 028f 1A       		.byte	0x1a
 2239 0290 21       		.byte	0x21
 2240 0291 9F       		.byte	0x9f
 2241 0292 0A000000 		.4byte	.LVL19
 2242 0296 10000000 		.4byte	.LVL21
 2243 029a 1600     		.2byte	0x16
 2244 029c F3       		.byte	0xf3
 2245 029d 01       		.uleb128 0x1
 2246 029e 50       		.byte	0x50
 2247 029f 73       		.byte	0x73
 2248 02a0 00       		.sleb128 0
 2249 02a1 22       		.byte	0x22
 2250 02a2 23       		.byte	0x23
 2251 02a3 01       		.uleb128 0x1
 2252 02a4 94       		.byte	0x94
 2253 02a5 01       		.byte	0x1
 2254 02a6 08       		.byte	0x8
 2255 02a7 FF       		.byte	0xff
 2256 02a8 1A       		.byte	0x1a
 2257 02a9 38       		.byte	0x38
 2258 02aa 24       		.byte	0x24
 2259 02ab 70       		.byte	0x70
 2260 02ac 00       		.sleb128 0
 2261 02ad 08       		.byte	0x8
 2262 02ae FF       		.byte	0xff
 2263 02af 1A       		.byte	0x1a
 2264 02b0 21       		.byte	0x21
 2265 02b1 9F       		.byte	0x9f
 2266 02b2 10000000 		.4byte	.LVL21
 2267 02b6 14000000 		.4byte	.LVL22
 2268 02ba 0E00     		.2byte	0xe
ARM GAS  C:\Users\jo\AppData\Local\Temp\ccYEnDGd.s 			page 41


 2269 02bc 74       		.byte	0x74
 2270 02bd 00       		.sleb128 0
 2271 02be 08       		.byte	0x8
 2272 02bf FF       		.byte	0xff
 2273 02c0 1A       		.byte	0x1a
 2274 02c1 38       		.byte	0x38
 2275 02c2 24       		.byte	0x24
 2276 02c3 70       		.byte	0x70
 2277 02c4 00       		.sleb128 0
 2278 02c5 08       		.byte	0x8
 2279 02c6 FF       		.byte	0xff
 2280 02c7 1A       		.byte	0x1a
 2281 02c8 21       		.byte	0x21
 2282 02c9 9F       		.byte	0x9f
 2283 02ca 00000000 		.4byte	0
 2284 02ce 00000000 		.4byte	0
 2285              	.LLST11:
 2286 02d2 04000000 		.4byte	.LVL16
 2287 02d6 10000000 		.4byte	.LVL21
 2288 02da 0100     		.2byte	0x1
 2289 02dc 53       		.byte	0x53
 2290 02dd 00000000 		.4byte	0
 2291 02e1 00000000 		.4byte	0
 2292              	.LLST12:
 2293 02e5 04000000 		.4byte	.LVL16
 2294 02e9 0E000000 		.4byte	.LVL20
 2295 02ed 0800     		.2byte	0x8
 2296 02ef 71       		.byte	0x71
 2297 02f0 00       		.sleb128 0
 2298 02f1 73       		.byte	0x73
 2299 02f2 00       		.sleb128 0
 2300 02f3 33       		.byte	0x33
 2301 02f4 24       		.byte	0x24
 2302 02f5 1C       		.byte	0x1c
 2303 02f6 9F       		.byte	0x9f
 2304 02f7 0E000000 		.4byte	.LVL20
 2305 02fb 10000000 		.4byte	.LVL21
 2306 02ff 0900     		.2byte	0x9
 2307 0301 F3       		.byte	0xf3
 2308 0302 01       		.uleb128 0x1
 2309 0303 51       		.byte	0x51
 2310 0304 73       		.byte	0x73
 2311 0305 00       		.sleb128 0
 2312 0306 33       		.byte	0x33
 2313 0307 24       		.byte	0x24
 2314 0308 1C       		.byte	0x1c
 2315 0309 9F       		.byte	0x9f
 2316 030a 00000000 		.4byte	0
 2317 030e 00000000 		.4byte	0
 2318              	.LLST13:
 2319 0312 00000000 		.4byte	.LVL25
 2320 0316 08000000 		.4byte	.LVL26
 2321 031a 0100     		.2byte	0x1
 2322 031c 50       		.byte	0x50
 2323 031d 08000000 		.4byte	.LVL26
 2324 0321 10000000 		.4byte	.LFE258
 2325 0325 0400     		.2byte	0x4
ARM GAS  C:\Users\jo\AppData\Local\Temp\ccYEnDGd.s 			page 42


 2326 0327 F3       		.byte	0xf3
 2327 0328 01       		.uleb128 0x1
 2328 0329 50       		.byte	0x50
 2329 032a 9F       		.byte	0x9f
 2330 032b 00000000 		.4byte	0
 2331 032f 00000000 		.4byte	0
 2332              		.section	.debug_aranges,"",%progbits
 2333 0000 2C000000 		.4byte	0x2c
 2334 0004 0200     		.2byte	0x2
 2335 0006 00000000 		.4byte	.Ldebug_info0
 2336 000a 04       		.byte	0x4
 2337 000b 00       		.byte	0
 2338 000c 0000     		.2byte	0
 2339 000e 0000     		.2byte	0
 2340 0010 00000000 		.4byte	.LFB256
 2341 0014 50000000 		.4byte	.LFE256-.LFB256
 2342 0018 00000000 		.4byte	.LFB257
 2343 001c 26000000 		.4byte	.LFE257-.LFB257
 2344 0020 00000000 		.4byte	.LFB258
 2345 0024 10000000 		.4byte	.LFE258-.LFB258
 2346 0028 00000000 		.4byte	0
 2347 002c 00000000 		.4byte	0
 2348              		.section	.debug_ranges,"",%progbits
 2349              	.Ldebug_ranges0:
 2350 0000 00000000 		.4byte	.LFB256
 2351 0004 50000000 		.4byte	.LFE256
 2352 0008 00000000 		.4byte	.LFB257
 2353 000c 26000000 		.4byte	.LFE257
 2354 0010 00000000 		.4byte	.LFB258
 2355 0014 10000000 		.4byte	.LFE258
 2356 0018 00000000 		.4byte	0
 2357 001c 00000000 		.4byte	0
 2358              		.section	.debug_line,"",%progbits
 2359              	.Ldebug_line0:
 2360 0000 FE020000 		.section	.debug_str,"MS",%progbits,1
 2360      02009102 
 2360      00000201 
 2360      FB0E0D00 
 2360      01010101 
 2361              	.LASF53:
 2362 0000 72656164 		.ascii	"ready_list_t\000"
 2362      795F6C69 
 2362      73745F74 
 2362      00
 2363              	.LASF109:
 2364 000d 654D4245 		.ascii	"eMBException\000"
 2364      78636570 
 2364      74696F6E 
 2364      00
 2365              	.LASF2:
 2366 001a 73697A65 		.ascii	"size_t\000"
 2366      5F7400
 2367              	.LASF122:
 2368 0021 75635661 		.ascii	"ucValue\000"
 2368      6C756500 
 2369              	.LASF87:
 2370 0029 7264796D 		.ascii	"rdymsg\000"
ARM GAS  C:\Users\jo\AppData\Local\Temp\ccYEnDGd.s 			page 43


 2370      736700
 2371              	.LASF115:
 2372 0030 4D425F45 		.ascii	"MB_EIO\000"
 2372      494F00
 2373              	.LASF21:
 2374 0037 75696E74 		.ascii	"uint64_t\000"
 2374      36345F74 
 2374      00
 2375              	.LASF3:
 2376 0040 5F5F7569 		.ascii	"__uint8_t\000"
 2376      6E74385F 
 2376      7400
 2377              	.LASF84:
 2378 004a 706F7274 		.ascii	"port_intctx\000"
 2378      5F696E74 
 2378      63747800 
 2379              	.LASF72:
 2380 0056 73797374 		.ascii	"system_debug_t\000"
 2380      656D5F64 
 2380      65627567 
 2380      5F7400
 2381              	.LASF124:
 2382 0065 75734279 		.ascii	"usByteOffset\000"
 2382      74654F66 
 2382      66736574 
 2382      00
 2383              	.LASF14:
 2384 0072 6C6F6E67 		.ascii	"long long unsigned int\000"
 2384      206C6F6E 
 2384      6720756E 
 2384      7369676E 
 2384      65642069 
 2385              	.LASF129:
 2386 0089 784D4255 		.ascii	"xMBUtilGetBits\000"
 2386      74696C47 
 2386      65744269 
 2386      747300
 2387              	.LASF88:
 2388 0098 65786974 		.ascii	"exitcode\000"
 2388      636F6465 
 2388      00
 2389              	.LASF79:
 2390 00a1 6D61696E 		.ascii	"mainthread\000"
 2390      74687265 
 2390      616400
 2391              	.LASF69:
 2392 00ac 76697274 		.ascii	"virtual_timers_list_t\000"
 2392      75616C5F 
 2392      74696D65 
 2392      72735F6C 
 2392      6973745F 
 2393              	.LASF133:
 2394 00c2 49544D5F 		.ascii	"ITM_RxBuffer\000"
 2394      52784275 
 2394      66666572 
 2394      00
 2395              	.LASF52:
ARM GAS  C:\Users\jo\AppData\Local\Temp\ccYEnDGd.s 			page 44


 2396 00cf 63685F74 		.ascii	"ch_threads_queue\000"
 2396      68726561 
 2396      64735F71 
 2396      75657565 
 2396      00
 2397              	.LASF33:
 2398 00e0 705F7072 		.ascii	"p_prio\000"
 2398      696F00
 2399              	.LASF12:
 2400 00e7 6C6F6E67 		.ascii	"long long int\000"
 2400      206C6F6E 
 2400      6720696E 
 2400      7400
 2401              	.LASF1:
 2402 00f5 7369676E 		.ascii	"signed char\000"
 2402      65642063 
 2402      68617200 
 2403              	.LASF127:
 2404 0101 75734D61 		.ascii	"usMask\000"
 2404      736B00
 2405              	.LASF47:
 2406 0108 705F6D70 		.ascii	"p_mpool\000"
 2406      6F6F6C00 
 2407              	.LASF92:
 2408 0110 6D5F7175 		.ascii	"m_queue\000"
 2408      65756500 
 2409              	.LASF78:
 2410 0118 76746C69 		.ascii	"vtlist\000"
 2410      737400
 2411              	.LASF97:
 2412 011f 55434841 		.ascii	"UCHAR\000"
 2412      5200
 2413              	.LASF76:
 2414 0125 63685F73 		.ascii	"ch_system\000"
 2414      79737465 
 2414      6D00
 2415              	.LASF9:
 2416 012f 6C6F6E67 		.ascii	"long int\000"
 2416      20696E74 
 2416      00
 2417              	.LASF118:
 2418 0138 654D4245 		.ascii	"eMBErrorCode\000"
 2418      72726F72 
 2418      436F6465 
 2418      00
 2419              	.LASF24:
 2420 0145 74737461 		.ascii	"tstate_t\000"
 2420      74655F74 
 2420      00
 2421              	.LASF102:
 2422 014e 4D425F45 		.ascii	"MB_EX_ILLEGAL_DATA_VALUE\000"
 2422      585F494C 
 2422      4C454741 
 2422      4C5F4441 
 2422      54415F56 
 2423              	.LASF116:
 2424 0167 4D425F45 		.ascii	"MB_EILLSTATE\000"
ARM GAS  C:\Users\jo\AppData\Local\Temp\ccYEnDGd.s 			page 45


 2424      494C4C53 
 2424      54415445 
 2424      00
 2425              	.LASF35:
 2426 0174 705F6E65 		.ascii	"p_newer\000"
 2426      77657200 
 2427              	.LASF106:
 2428 017c 4D425F45 		.ascii	"MB_EX_MEMORY_PARITY_ERROR\000"
 2428      585F4D45 
 2428      4D4F5259 
 2428      5F504152 
 2428      4954595F 
 2429              	.LASF7:
 2430 0196 73686F72 		.ascii	"short unsigned int\000"
 2430      7420756E 
 2430      7369676E 
 2430      65642069 
 2430      6E7400
 2431              	.LASF58:
 2432 01a9 725F6E65 		.ascii	"r_newer\000"
 2432      77657200 
 2433              	.LASF81:
 2434 01b1 72656761 		.ascii	"regarm_t\000"
 2434      726D5F74 
 2434      00
 2435              	.LASF65:
 2436 01ba 76745F70 		.ascii	"vt_prev\000"
 2436      72657600 
 2437              	.LASF95:
 2438 01c2 6D757465 		.ascii	"mutex_t\000"
 2438      785F7400 
 2439              	.LASF80:
 2440 01ca 69646C65 		.ascii	"idle_thread_wa\000"
 2440      5F746872 
 2440      6561645F 
 2440      776100
 2441              	.LASF0:
 2442 01d9 756E7369 		.ascii	"unsigned int\000"
 2442      676E6564 
 2442      20696E74 
 2442      00
 2443              	.LASF64:
 2444 01e6 76745F6E 		.ascii	"vt_next\000"
 2444      65787400 
 2445              	.LASF18:
 2446 01ee 75696E74 		.ascii	"uint16_t\000"
 2446      31365F74 
 2446      00
 2447              	.LASF66:
 2448 01f7 76745F64 		.ascii	"vt_delta\000"
 2448      656C7461 
 2448      00
 2449              	.LASF42:
 2450 0200 705F6D73 		.ascii	"p_msgqueue\000"
 2450      67717565 
 2450      756500
 2451              	.LASF114:
ARM GAS  C:\Users\jo\AppData\Local\Temp\ccYEnDGd.s 			page 46


 2452 020b 4D425F45 		.ascii	"MB_ENORES\000"
 2452      4E4F5245 
 2452      5300
 2453              	.LASF128:
 2454 0215 5F5F4655 		.ascii	"__FUNCTION__\000"
 2454      4E435449 
 2454      4F4E5F5F 
 2454      00
 2455              	.LASF117:
 2456 0222 4D425F45 		.ascii	"MB_ETIMEDOUT\000"
 2456      54494D45 
 2456      444F5554 
 2456      00
 2457              	.LASF111:
 2458 022f 4D425F45 		.ascii	"MB_ENOREG\000"
 2458      4E4F5245 
 2458      4700
 2459              	.LASF125:
 2460 0239 75734E50 		.ascii	"usNPreBits\000"
 2460      72654269 
 2460      747300
 2461              	.LASF49:
 2462 0244 63685F74 		.ascii	"ch_thread\000"
 2462      68726561 
 2462      6400
 2463              	.LASF27:
 2464 024e 6D73675F 		.ascii	"msg_t\000"
 2464      7400
 2465              	.LASF110:
 2466 0254 4D425F45 		.ascii	"MB_ENOERR\000"
 2466      4E4F4552 
 2466      5200
 2467              	.LASF75:
 2468 025e 63685F73 		.ascii	"ch_system_t\000"
 2468      79737465 
 2468      6D5F7400 
 2469              	.LASF23:
 2470 026a 746D6F64 		.ascii	"tmode_t\000"
 2470      655F7400 
 2471              	.LASF54:
 2472 0272 63685F72 		.ascii	"ch_ready_list\000"
 2472      65616479 
 2472      5F6C6973 
 2472      7400
 2473              	.LASF28:
 2474 0280 6576656E 		.ascii	"eventmask_t\000"
 2474      746D6173 
 2474      6B5F7400 
 2475              	.LASF8:
 2476 028c 5F5F696E 		.ascii	"__int32_t\000"
 2476      7433325F 
 2476      7400
 2477              	.LASF82:
 2478 0296 73746B61 		.ascii	"stkalign_t\000"
 2478      6C69676E 
 2478      5F7400
 2479              	.LASF101:
ARM GAS  C:\Users\jo\AppData\Local\Temp\ccYEnDGd.s 			page 47


 2480 02a1 4D425F45 		.ascii	"MB_EX_ILLEGAL_DATA_ADDRESS\000"
 2480      585F494C 
 2480      4C454741 
 2480      4C5F4441 
 2480      54415F41 
 2481              	.LASF132:
 2482 02bc 65537461 		.ascii	"eStatus\000"
 2482      74757300 
 2483              	.LASF126:
 2484 02c4 75735661 		.ascii	"usValue\000"
 2484      6C756500 
 2485              	.LASF15:
 2486 02cc 73697A65 		.ascii	"sizetype\000"
 2486      74797065 
 2486      00
 2487              	.LASF107:
 2488 02d5 4D425F45 		.ascii	"MB_EX_GATEWAY_PATH_FAILED\000"
 2488      585F4741 
 2488      54455741 
 2488      595F5041 
 2488      54485F46 
 2489              	.LASF70:
 2490 02ef 63685F76 		.ascii	"ch_virtual_timers_list\000"
 2490      69727475 
 2490      616C5F74 
 2490      696D6572 
 2490      735F6C69 
 2491              	.LASF98:
 2492 0306 5553484F 		.ascii	"USHORT\000"
 2492      525400
 2493              	.LASF71:
 2494 030d 76745F6C 		.ascii	"vt_lasttime\000"
 2494      61737474 
 2494      696D6500 
 2495              	.LASF36:
 2496 0319 705F6F6C 		.ascii	"p_older\000"
 2496      64657200 
 2497              	.LASF57:
 2498 0321 725F6374 		.ascii	"r_ctx\000"
 2498      7800
 2499              	.LASF99:
 2500 0327 4D425F45 		.ascii	"MB_EX_NONE\000"
 2500      585F4E4F 
 2500      4E4500
 2501              	.LASF86:
 2502 0332 746D5F63 		.ascii	"tm_calibration_t\000"
 2502      616C6962 
 2502      72617469 
 2502      6F6E5F74 
 2502      00
 2503              	.LASF103:
 2504 0343 4D425F45 		.ascii	"MB_EX_SLAVE_DEVICE_FAILURE\000"
 2504      585F534C 
 2504      4156455F 
 2504      44455649 
 2504      43455F46 
 2505              	.LASF60:
ARM GAS  C:\Users\jo\AppData\Local\Temp\ccYEnDGd.s 			page 48


 2506 035e 725F6375 		.ascii	"r_current\000"
 2506      7272656E 
 2506      7400
 2507              	.LASF59:
 2508 0368 725F6F6C 		.ascii	"r_older\000"
 2508      64657200 
 2509              	.LASF137:
 2510 0370 784D4255 		.ascii	"xMBUtilSetBits\000"
 2510      74696C53 
 2510      65744269 
 2510      747300
 2511              	.LASF13:
 2512 037f 5F5F7569 		.ascii	"__uint64_t\000"
 2512      6E743634 
 2512      5F7400
 2513              	.LASF105:
 2514 038a 4D425F45 		.ascii	"MB_EX_SLAVE_BUSY\000"
 2514      585F534C 
 2514      4156455F 
 2514      42555359 
 2514      00
 2515              	.LASF25:
 2516 039b 74726566 		.ascii	"trefs_t\000"
 2516      735F7400 
 2517              	.LASF62:
 2518 03a3 76697274 		.ascii	"virtual_timer_t\000"
 2518      75616C5F 
 2518      74696D65 
 2518      725F7400 
 2519              	.LASF32:
 2520 03b3 705F7072 		.ascii	"p_prev\000"
 2520      657600
 2521              	.LASF26:
 2522 03ba 74707269 		.ascii	"tprio_t\000"
 2522      6F5F7400 
 2523              	.LASF91:
 2524 03c2 6D757465 		.ascii	"mutex\000"
 2524      7800
 2525              	.LASF120:
 2526 03c8 75734269 		.ascii	"usBitOffset\000"
 2526      744F6666 
 2526      73657400 
 2527              	.LASF73:
 2528 03d4 63685F73 		.ascii	"ch_system_debug\000"
 2528      79737465 
 2528      6D5F6465 
 2528      62756700 
 2529              	.LASF96:
 2530 03e4 5F426F6F 		.ascii	"_Bool\000"
 2530      6C00
 2531              	.LASF19:
 2532 03ea 696E7433 		.ascii	"int32_t\000"
 2532      325F7400 
 2533              	.LASF4:
 2534 03f2 756E7369 		.ascii	"unsigned char\000"
 2534      676E6564 
 2534      20636861 
ARM GAS  C:\Users\jo\AppData\Local\Temp\ccYEnDGd.s 			page 49


 2534      7200
 2535              	.LASF130:
 2536 0400 70727665 		.ascii	"prveMBError2Exception\000"
 2536      4D424572 
 2536      726F7232 
 2536      45786365 
 2536      7074696F 
 2537              	.LASF38:
 2538 0416 705F7374 		.ascii	"p_state\000"
 2538      61746500 
 2539              	.LASF45:
 2540 041e 705F6D74 		.ascii	"p_mtxlist\000"
 2540      786C6973 
 2540      7400
 2541              	.LASF5:
 2542 0428 73686F72 		.ascii	"short int\000"
 2542      7420696E 
 2542      7400
 2543              	.LASF131:
 2544 0432 65457272 		.ascii	"eErrorCode\000"
 2544      6F72436F 
 2544      646500
 2545              	.LASF56:
 2546 043d 725F7072 		.ascii	"r_prio\000"
 2546      696F00
 2547              	.LASF90:
 2548 0444 65776D61 		.ascii	"ewmask\000"
 2548      736B00
 2549              	.LASF31:
 2550 044b 705F6E65 		.ascii	"p_next\000"
 2550      787400
 2551              	.LASF134:
 2552 0452 474E5520 		.ascii	"GNU C 4.9.3 20141119 (release) [ARM/embedded-4_9-br"
 2552      4320342E 
 2552      392E3320 
 2552      32303134 
 2552      31313139 
 2553 0485 616E6368 		.ascii	"anch revision 218278] -mcpu=cortex-m4 -mfloat-abi=h"
 2553      20726576 
 2553      6973696F 
 2553      6E203231 
 2553      38323738 
 2554 04b8 61726420 		.ascii	"ard -mfpu=fpv4-sp-d16 -mno-thumb-interwork -mthumb "
 2554      2D6D6670 
 2554      753D6670 
 2554      76342D73 
 2554      702D6431 
 2555 04eb 2D676764 		.ascii	"-ggdb -O2 -fomit-frame-pointer -falign-functions=16"
 2555      62202D4F 
 2555      32202D66 
 2555      6F6D6974 
 2555      2D667261 
 2556 051e 202D6666 		.ascii	" -ffunction-sections -fdata-sections -fno-common -f"
 2556      756E6374 
 2556      696F6E2D 
 2556      73656374 
 2556      696F6E73 
ARM GAS  C:\Users\jo\AppData\Local\Temp\ccYEnDGd.s 			page 50


 2557 0551 73696E67 		.ascii	"single-precision-constant\000"
 2557      6C652D70 
 2557      72656369 
 2557      73696F6E 
 2557      2D636F6E 
 2558              	.LASF39:
 2559 056b 705F666C 		.ascii	"p_flags\000"
 2559      61677300 
 2560              	.LASF108:
 2561 0573 4D425F45 		.ascii	"MB_EX_GATEWAY_TGT_FAILED\000"
 2561      585F4741 
 2561      54455741 
 2561      595F5447 
 2561      545F4641 
 2562              	.LASF63:
 2563 058c 63685F76 		.ascii	"ch_virtual_timer\000"
 2563      69727475 
 2563      616C5F74 
 2563      696D6572 
 2563      00
 2564              	.LASF135:
 2565 059d 46726565 		.ascii	"FreeModbus/modbus/functions/mbutils.c\000"
 2565      4D6F6462 
 2565      75732F6D 
 2565      6F646275 
 2565      732F6675 
 2566              	.LASF44:
 2567 05c3 705F6570 		.ascii	"p_epending\000"
 2567      656E6469 
 2567      6E6700
 2568              	.LASF20:
 2569 05ce 75696E74 		.ascii	"uint32_t\000"
 2569      33325F74 
 2569      00
 2570              	.LASF55:
 2571 05d7 725F7175 		.ascii	"r_queue\000"
 2571      65756500 
 2572              	.LASF50:
 2573 05df 63685F74 		.ascii	"ch_threads_list\000"
 2573      68726561 
 2573      64735F6C 
 2573      69737400 
 2574              	.LASF11:
 2575 05ef 6C6F6E67 		.ascii	"long unsigned int\000"
 2575      20756E73 
 2575      69676E65 
 2575      6420696E 
 2575      7400
 2576              	.LASF16:
 2577 0601 63686172 		.ascii	"char\000"
 2577      00
 2578              	.LASF136:
 2579 0606 433A5C55 		.ascii	"C:\\Users\\jo\\Documents\\GitHub\\ChibiOS\\demos\\S"
 2579      73657273 
 2579      5C6A6F5C 
 2579      446F6375 
 2579      6D656E74 
ARM GAS  C:\Users\jo\AppData\Local\Temp\ccYEnDGd.s 			page 51


 2580 0632 544D3332 		.ascii	"TM32\\RT-STM32F407-DISCOVERY\000"
 2580      5C52542D 
 2580      53544D33 
 2580      32463430 
 2580      372D4449 
 2581              	.LASF6:
 2582 064e 5F5F7569 		.ascii	"__uint16_t\000"
 2582      6E743136 
 2582      5F7400
 2583              	.LASF100:
 2584 0659 4D425F45 		.ascii	"MB_EX_ILLEGAL_FUNCTION\000"
 2584      585F494C 
 2584      4C454741 
 2584      4C5F4655 
 2584      4E435449 
 2585              	.LASF30:
 2586 0670 74687265 		.ascii	"thread_t\000"
 2586      61645F74 
 2586      00
 2587              	.LASF112:
 2588 0679 4D425F45 		.ascii	"MB_EINVAL\000"
 2588      494E5641 
 2588      4C00
 2589              	.LASF94:
 2590 0683 6D5F6E65 		.ascii	"m_next\000"
 2590      787400
 2591              	.LASF29:
 2592 068a 73797374 		.ascii	"systime_t\000"
 2592      696D655F 
 2592      7400
 2593              	.LASF46:
 2594 0694 705F7265 		.ascii	"p_realprio\000"
 2594      616C7072 
 2594      696F00
 2595              	.LASF61:
 2596 069f 76746675 		.ascii	"vtfunc_t\000"
 2596      6E635F74 
 2596      00
 2597              	.LASF10:
 2598 06a8 5F5F7569 		.ascii	"__uint32_t\000"
 2598      6E743332 
 2598      5F7400
 2599              	.LASF74:
 2600 06b3 70616E69 		.ascii	"panic_msg\000"
 2600      635F6D73 
 2600      6700
 2601              	.LASF85:
 2602 06bd 6F666673 		.ascii	"offset\000"
 2602      657400
 2603              	.LASF123:
 2604 06c4 7573576F 		.ascii	"usWordBuf\000"
 2604      72644275 
 2604      6600
 2605              	.LASF83:
 2606 06ce 636F6E74 		.ascii	"context\000"
 2606      65787400 
 2607              	.LASF113:
ARM GAS  C:\Users\jo\AppData\Local\Temp\ccYEnDGd.s 			page 52


 2608 06d6 4D425F45 		.ascii	"MB_EPORTERR\000"
 2608      504F5254 
 2608      45525200 
 2609              	.LASF22:
 2610 06e2 7274636E 		.ascii	"rtcnt_t\000"
 2610      745F7400 
 2611              	.LASF121:
 2612 06ea 75634E42 		.ascii	"ucNBits\000"
 2612      69747300 
 2613              	.LASF68:
 2614 06f2 76745F70 		.ascii	"vt_par\000"
 2614      617200
 2615              	.LASF51:
 2616 06f9 74687265 		.ascii	"threads_queue_t\000"
 2616      6164735F 
 2616      71756575 
 2616      655F7400 
 2617              	.LASF40:
 2618 0709 705F7265 		.ascii	"p_refs\000"
 2618      667300
 2619              	.LASF104:
 2620 0710 4D425F45 		.ascii	"MB_EX_ACKNOWLEDGE\000"
 2620      585F4143 
 2620      4B4E4F57 
 2620      4C454447 
 2620      4500
 2621              	.LASF77:
 2622 0722 726C6973 		.ascii	"rlist\000"
 2622      7400
 2623              	.LASF17:
 2624 0728 75696E74 		.ascii	"uint8_t\000"
 2624      385F7400 
 2625              	.LASF119:
 2626 0730 75634279 		.ascii	"ucByteBuf\000"
 2626      74654275 
 2626      6600
 2627              	.LASF89:
 2628 073a 77746F62 		.ascii	"wtobjp\000"
 2628      6A7000
 2629              	.LASF138:
 2630 0741 5F5F6173 		.ascii	"__assert_func\000"
 2630      73657274 
 2630      5F66756E 
 2630      6300
 2631              	.LASF37:
 2632 074f 705F6E61 		.ascii	"p_name\000"
 2632      6D6500
 2633              	.LASF48:
 2634 0756 74687265 		.ascii	"threads_list_t\000"
 2634      6164735F 
 2634      6C697374 
 2634      5F7400
 2635              	.LASF43:
 2636 0765 705F6D73 		.ascii	"p_msg\000"
 2636      6700
 2637              	.LASF93:
 2638 076b 6D5F6F77 		.ascii	"m_owner\000"
ARM GAS  C:\Users\jo\AppData\Local\Temp\ccYEnDGd.s 			page 53


 2638      6E657200 
 2639              	.LASF34:
 2640 0773 705F6374 		.ascii	"p_ctx\000"
 2640      7800
 2641              	.LASF67:
 2642 0779 76745F66 		.ascii	"vt_func\000"
 2642      756E6300 
 2643              	.LASF41:
 2644 0781 705F7761 		.ascii	"p_waiting\000"
 2644      6974696E 
 2644      6700
 2645              		.ident	"GCC: (GNU Tools for ARM Embedded Processors) 4.9.3 20141119 (release) [ARM/embedded-4_9-br
ARM GAS  C:\Users\jo\AppData\Local\Temp\ccYEnDGd.s 			page 54


DEFINED SYMBOLS
                            *ABS*:00000000 mbutils.c
C:\Users\jo\AppData\Local\Temp\ccYEnDGd.s:21     .text.xMBUtilSetBits:00000000 $t
C:\Users\jo\AppData\Local\Temp\ccYEnDGd.s:27     .text.xMBUtilSetBits:00000000 xMBUtilSetBits
C:\Users\jo\AppData\Local\Temp\ccYEnDGd.s:107    .text.xMBUtilSetBits:00000044 $d
C:\Users\jo\AppData\Local\Temp\ccYEnDGd.s:114    .text.xMBUtilGetBits:00000000 $t
C:\Users\jo\AppData\Local\Temp\ccYEnDGd.s:120    .text.xMBUtilGetBits:00000000 xMBUtilGetBits
C:\Users\jo\AppData\Local\Temp\ccYEnDGd.s:171    .text.prveMBError2Exception:00000000 $t
C:\Users\jo\AppData\Local\Temp\ccYEnDGd.s:177    .text.prveMBError2Exception:00000000 prveMBError2Exception
C:\Users\jo\AppData\Local\Temp\ccYEnDGd.s:198    .text.prveMBError2Exception:0000000c $d
C:\Users\jo\AppData\Local\Temp\ccYEnDGd.s:203    .rodata.CSWTCH.7:00000000 $d
C:\Users\jo\AppData\Local\Temp\ccYEnDGd.s:207    .rodata.CSWTCH.7:00000000 CSWTCH.7
C:\Users\jo\AppData\Local\Temp\ccYEnDGd.s:217    .rodata.__FUNCTION__.9022:00000000 $d
C:\Users\jo\AppData\Local\Temp\ccYEnDGd.s:221    .rodata.__FUNCTION__.9022:00000000 __FUNCTION__.9022
C:\Users\jo\AppData\Local\Temp\ccYEnDGd.s:224    .rodata.str1.4:00000000 $d
                     .debug_frame:00000010 $d

UNDEFINED SYMBOLS
__assert_func
