ARM GAS  C:\Users\jo\AppData\Local\Temp\ccYEnDGd.s 			page 1


   1              		.syntax unified
   2              		.cpu cortex-m4
   3              		.eabi_attribute 27, 3
   4              		.eabi_attribute 28, 1
   5              		.fpu fpv4-sp-d16
   6              		.eabi_attribute 20, 1
   7              		.eabi_attribute 21, 1
   8              		.eabi_attribute 23, 3
   9              		.eabi_attribute 24, 1
  10              		.eabi_attribute 25, 1
  11              		.eabi_attribute 26, 1
  12              		.eabi_attribute 30, 2
  13              		.eabi_attribute 34, 1
  14              		.eabi_attribute 18, 4
  15              		.thumb
  16              		.file	"mbutils.c"
  17              		.text
  18              	.Ltext0:
  19              		.cfi_sections	.debug_frame
  20              		.section	.text.xMBUtilSetBits,"ax",%progbits
  21              		.align	2
  22              		.p2align 4,,15
  23              		.global	xMBUtilSetBits
  24              		.thumb
  25              		.thumb_func
  26              		.type	xMBUtilSetBits, %function
  27              	xMBUtilSetBits:
  28              	.LFB256:
  29              		.file 1 "FreeModbus/modbus/functions/mbutils.c"
  30              		.loc 1 49 0
  31              		.cfi_startproc
  32              		@ args = 0, pretend = 0, frame = 0
  33              		@ frame_needed = 0, uses_anonymous_args = 0
  34              	.LVL0:
  35              		.loc 1 56 0
  36 0000 082A     		cmp	r2, #8
  37              		.loc 1 49 0
  38 0002 F8B5     		push	{r3, r4, r5, r6, r7, lr}
  39              		.cfi_def_cfa_offset 24
  40              		.cfi_offset 3, -24
  41              		.cfi_offset 4, -20
  42              		.cfi_offset 5, -16
  43              		.cfi_offset 6, -12
  44              		.cfi_offset 7, -8
  45              		.cfi_offset 14, -4
  46              		.loc 1 49 0
  47 0004 1646     		mov	r6, r2
  48              	.LVL1:
  49              		.loc 1 56 0
  50 0006 16D8     		bhi	.L5
  51              		.loc 1 61 0
  52 0008 CC08     		lsrs	r4, r1, #3
  53              	.LVL2:
  54              		.loc 1 70 0
  55 000a 0122     		movs	r2, #1
  56              	.LVL3:
  57              		.loc 1 75 0
ARM GAS  C:\Users\jo\AppData\Local\Temp\ccYEnDGd.s 			page 2


  58 000c A518     		adds	r5, r4, r2
  59              	.LVL4:
  60              		.loc 1 70 0
  61 000e B240     		lsls	r2, r2, r6
  62              		.loc 1 75 0
  63 0010 475D     		ldrb	r7, [r0, r5]	@ zero_extendqisi2
  64 0012 065D     		ldrb	r6, [r0, r4]	@ zero_extendqisi2
  65              	.LVL5:
  66              		.loc 1 70 0
  67 0014 013A     		subs	r2, r2, #1
  68              		.loc 1 71 0
  69 0016 A1EBC401 		sub	r1, r1, r4, lsl #3
  70              	.LVL6:
  71 001a 92B2     		uxth	r2, r2
  72 001c 8A40     		lsls	r2, r2, r1
  73              		.loc 1 75 0
  74 001e 46EA0726 		orr	r6, r6, r7, lsl #8
  75              		.loc 1 67 0
  76 0022 89B2     		uxth	r1, r1
  77 0024 8B40     		lsls	r3, r3, r1
  78              	.LVL7:
  79              		.loc 1 78 0
  80 0026 26EA0202 		bic	r2, r6, r2
  81 002a 1A43     		orrs	r2, r2, r3
  82 002c 92B2     		uxth	r2, r2
  83              	.LVL8:
  84              		.loc 1 82 0
  85 002e 130A     		lsrs	r3, r2, #8
  86              		.loc 1 81 0
  87 0030 0255     		strb	r2, [r0, r4]
  88              		.loc 1 82 0
  89 0032 4355     		strb	r3, [r0, r5]
  90 0034 F8BD     		pop	{r3, r4, r5, r6, r7, pc}
  91              	.LVL9:
  92              	.L5:
  93              		.loc 1 56 0 discriminator 1
  94 0036 0348     		ldr	r0, .L6
  95              	.LVL10:
  96 0038 034A     		ldr	r2, .L6+4
  97              	.LVL11:
  98 003a 044B     		ldr	r3, .L6+8
  99              	.LVL12:
 100 003c 3821     		movs	r1, #56
 101              	.LVL13:
 102 003e FFF7FEFF 		bl	__assert_func
 103              	.LVL14:
 104              	.L7:
 105 0042 00BF     		.align	2
 106              	.L6:
 107 0044 00000000 		.word	.LC0
 108 0048 00000000 		.word	.LANCHOR0
 109 004c 28000000 		.word	.LC1
 110              		.cfi_endproc
 111              	.LFE256:
 112              		.size	xMBUtilSetBits, .-xMBUtilSetBits
 113              		.section	.text.xMBUtilGetBits,"ax",%progbits
 114              		.align	2
ARM GAS  C:\Users\jo\AppData\Local\Temp\ccYEnDGd.s 			page 3


 115              		.p2align 4,,15
 116              		.global	xMBUtilGetBits
 117              		.thumb
 118              		.thumb_func
 119              		.type	xMBUtilGetBits, %function
 120              	xMBUtilGetBits:
 121              	.LFB257:
 122              		.loc 1 87 0
 123              		.cfi_startproc
 124              		@ args = 0, pretend = 0, frame = 0
 125              		@ frame_needed = 0, uses_anonymous_args = 0
 126              		@ link register save eliminated.
 127              	.LVL15:
 128 0000 10B4     		push	{r4}
 129              		.cfi_def_cfa_offset 4
 130              		.cfi_offset 4, -4
 131              		.loc 1 95 0
 132 0002 CB08     		lsrs	r3, r1, #3
 133              	.LVL16:
 134              		.loc 1 105 0
 135 0004 C418     		adds	r4, r0, r3
 136              	.LVL17:
 137 0006 C05C     		ldrb	r0, [r0, r3]	@ zero_extendqisi2
 138              	.LVL18:
 139 0008 6478     		ldrb	r4, [r4, #1]	@ zero_extendqisi2
 140              	.LVL19:
 141              		.loc 1 98 0
 142 000a A1EBC301 		sub	r1, r1, r3, lsl #3
 143              	.LVL20:
 144              		.loc 1 101 0
 145 000e 0123     		movs	r3, #1
 146              	.LVL21:
 147              		.loc 1 108 0
 148 0010 40EA0420 		orr	r0, r0, r4, lsl #8
 149              	.LVL22:
 150 0014 89B2     		uxth	r1, r1
 151              		.loc 1 101 0
 152 0016 9340     		lsls	r3, r3, r2
 153              		.loc 1 108 0
 154 0018 0841     		asrs	r0, r0, r1
 155              	.LVL23:
 156              		.loc 1 101 0
 157 001a 013B     		subs	r3, r3, #1
 158              		.loc 1 111 0
 159 001c 1840     		ands	r0, r0, r3
 160              	.LVL24:
 161              		.loc 1 114 0
 162 001e C0B2     		uxtb	r0, r0
 163 0020 5DF8044B 		ldr	r4, [sp], #4
 164              		.cfi_restore 4
 165              		.cfi_def_cfa_offset 0
 166 0024 7047     		bx	lr
 167              		.cfi_endproc
 168              	.LFE257:
 169              		.size	xMBUtilGetBits, .-xMBUtilGetBits
 170 0026 00BFAFF3 		.section	.text.prveMBError2Exception,"ax",%progbits
 170      0080AFF3 
ARM GAS  C:\Users\jo\AppData\Local\Temp\ccYEnDGd.s 			page 4


 170      0080
 171              		.align	2
 172              		.p2align 4,,15
 173              		.global	prveMBError2Exception
 174              		.thumb
 175              		.thumb_func
 176              		.type	prveMBError2Exception, %function
 177              	prveMBError2Exception:
 178              	.LFB258:
 179              		.loc 1 118 0
 180              		.cfi_startproc
 181              		@ args = 0, pretend = 0, frame = 0
 182              		@ frame_needed = 0, uses_anonymous_args = 0
 183              		@ link register save eliminated.
 184              	.LVL25:
 185 0000 0728     		cmp	r0, #7
 186 0002 9ABF     		itte	ls
 187 0004 014B     		ldrls	r3, .L13
 188 0006 185C     		ldrbls	r0, [r3, r0]	@ zero_extendqisi2
 189              	.LVL26:
 190              		.loc 1 118 0
 191 0008 0420     		movhi	r0, #4
 192              	.LVL27:
 193              		.loc 1 141 0
 194 000a 7047     		bx	lr
 195              	.L14:
 196              		.align	2
 197              	.L13:
 198 000c 00000000 		.word	.LANCHOR1
 199              		.cfi_endproc
 200              	.LFE258:
 201              		.size	prveMBError2Exception, .-prveMBError2Exception
 202              		.section	.rodata.CSWTCH.7,"a",%progbits
 203              		.align	2
 204              		.set	.LANCHOR1,. + 0
 205              		.type	CSWTCH.7, %object
 206              		.size	CSWTCH.7, 8
 207              	CSWTCH.7:
 208 0000 00       		.byte	0
 209 0001 02       		.byte	2
 210 0002 04       		.byte	4
 211 0003 04       		.byte	4
 212 0004 04       		.byte	4
 213 0005 04       		.byte	4
 214 0006 04       		.byte	4
 215 0007 06       		.byte	6
 216              		.section	.rodata.__FUNCTION__.9022,"a",%progbits
 217              		.align	2
 218              		.set	.LANCHOR0,. + 0
 219              		.type	__FUNCTION__.9022, %object
 220              		.size	__FUNCTION__.9022, 15
 221              	__FUNCTION__.9022:
 222 0000 784D4255 		.ascii	"xMBUtilSetBits\000"
 222      74696C53 
 222      65744269 
 222      747300
 223 000f 00       		.section	.rodata.str1.4,"aMS",%progbits,1
ARM GAS  C:\Users\jo\AppData\Local\Temp\ccYEnDGd.s 			page 5


 224              		.align	2
 225              	.LC0:
 226 0000 46726565 		.ascii	"FreeModbus/modbus/functions/mbutils.c\000"
 226      4D6F6462 
 226      75732F6D 
 226      6F646275 
 226      732F6675 
 227 0026 0000     		.space	2
 228              	.LC1:
 229 0028 75634E42 		.ascii	"ucNBits <= 8\000"
 229      69747320 
 229      3C3D2038 
 229      00
 230 0035 000000   		.text
 231              	.Letext0:
 232              		.file 2 "c:\\program files\\gnu tools arm embedded\\4.9 2014q4\\lib\\gcc\\arm-none-eabi\\4.9.3\\in
 233              		.file 3 "c:\\program files\\gnu tools arm embedded\\4.9 2014q4\\arm-none-eabi\\include\\machine\\_
 234              		.file 4 "c:\\program files\\gnu tools arm embedded\\4.9 2014q4\\arm-none-eabi\\include\\stdint.h"
 235              		.file 5 "../../../os/rt/ports/ARMCMx/compilers/GCC/chtypes.h"
 236              		.file 6 "../../../os/rt/include/chsystypes.h"
 237              		.file 7 "../../../os/rt/include/chschd.h"
 238              		.file 8 "../../../os/rt/ports/ARMCMx/chcore.h"
 239              		.file 9 "../../../os/rt/ports/ARMCMx/chcore_v7m.h"
 240              		.file 10 "../../../os/rt/include/chtm.h"
 241              		.file 11 "../../../os/rt/include/chmtx.h"
 242              		.file 12 "FreeModbus/port/port.h"
 243              		.file 13 "FreeModbus/modbus/include/mbproto.h"
 244              		.file 14 "FreeModbus/modbus/include/mb.h"
 245              		.file 15 "../../../os/ext/CMSIS/include/core_cm4.h"
 246              		.file 16 "c:\\program files\\gnu tools arm embedded\\4.9 2014q4\\arm-none-eabi\\include\\assert.h"