ARM GAS  C:\Users\jo\AppData\Local\Temp\cceq62By.s 			page 1


   1              		.syntax unified
   2              		.cpu cortex-m4
   3              		.eabi_attribute 27, 3
   4              		.eabi_attribute 28, 1
   5              		.fpu fpv4-sp-d16
   6              		.eabi_attribute 20, 1
   7              		.eabi_attribute 21, 1
   8              		.eabi_attribute 23, 3
   9              		.eabi_attribute 24, 1
  10              		.eabi_attribute 25, 1
  11              		.eabi_attribute 26, 1
  12              		.eabi_attribute 30, 2
  13              		.eabi_attribute 34, 1
  14              		.eabi_attribute 18, 4
  15              		.thumb
  16              		.file	"mem.c"
  17              		.text
  18              	.Ltext0:
  19              		.cfi_sections	.debug_frame
  20              		.section	.text.chprintf.constprop.0,"ax",%progbits
  21              		.align	2
  22              		.p2align 4,,15
  23              		.thumb
  24              		.thumb_func
  25              		.type	chprintf.constprop.0, %function
  26              	chprintf.constprop.0:
  27              	.LFB262:
  28              		.file 1 "../../../os/hal/lib/streams/chprintf.h"
  29              		.loc 1 69 0
  30              		.cfi_startproc
  31              		@ args = 4, pretend = 12, frame = 8
  32              		@ frame_needed = 0, uses_anonymous_args = 1
  33              	.LVL0:
  34 0000 0EB4     		push	{r1, r2, r3}
  35              		.cfi_def_cfa_offset 12
  36              		.cfi_offset 1, -12
  37              		.cfi_offset 2, -8
  38              		.cfi_offset 3, -4
  39 0002 00B5     		push	{lr}
  40              		.cfi_def_cfa_offset 16
  41              		.cfi_offset 14, -16
  42 0004 82B0     		sub	sp, sp, #8
  43              		.cfi_def_cfa_offset 24
  44              		.loc 1 73 0
  45 0006 04AB     		add	r3, sp, #16
  46              		.loc 1 74 0
  47 0008 1A46     		mov	r2, r3
  48 000a 0549     		ldr	r1, .L3
  49 000c 0548     		ldr	r0, .L3+4
  50              	.LVL1:
  51              		.loc 1 73 0
  52 000e 0193     		str	r3, [sp, #4]
  53              		.loc 1 74 0
  54 0010 FFF7FEFF 		bl	chvprintf
  55              	.LVL2:
  56              		.loc 1 78 0
  57 0014 02B0     		add	sp, sp, #8
ARM GAS  C:\Users\jo\AppData\Local\Temp\cceq62By.s 			page 2


  58              		.cfi_def_cfa_offset 16
  59              		@ sp needed
  60 0016 5DF804EB 		ldr	lr, [sp], #4
  61              		.cfi_restore 14
  62              		.cfi_def_cfa_offset 12
  63 001a 03B0     		add	sp, sp, #12
  64              		.cfi_restore 3
  65              		.cfi_restore 2
  66              		.cfi_restore 1
  67              		.cfi_def_cfa_offset 0
  68 001c 7047     		bx	lr
  69              	.L4:
  70 001e 00BF     		.align	2
  71              	.L3:
  72 0020 00000000 		.word	.LC0
  73 0024 00000000 		.word	itm_port
  74              		.cfi_endproc
  75              	.LFE262:
  76              		.size	chprintf.constprop.0, .-chprintf.constprop.0
  77 0028 AFF30080 		.section	.text.mem_init,"ax",%progbits
  77      AFF30080 
  78              		.align	2
  79              		.p2align 4,,15
  80              		.global	mem_init
  81              		.thumb
  82              		.thumb_func
  83              		.type	mem_init, %function
  84              	mem_init:
  85              	.LFB257:
  86              		.file 2 "../../../os/ext/lwip-1.4.1/src/core/mem.c"
  87              		.loc 2 275 0
  88              		.cfi_startproc
  89              		@ args = 0, pretend = 0, frame = 0
  90              		@ frame_needed = 0, uses_anonymous_args = 0
  91 0000 2DE9F041 		push	{r4, r5, r6, r7, r8, lr}
  92              		.cfi_def_cfa_offset 24
  93              		.cfi_offset 4, -24
  94              		.cfi_offset 5, -20
  95              		.cfi_offset 6, -16
  96              		.cfi_offset 7, -12
  97              		.cfi_offset 8, -8
  98              		.cfi_offset 14, -4
  99              		.loc 2 282 0
 100 0004 1A4B     		ldr	r3, .L10
 101              		.loc 2 297 0
 102 0006 1B4F     		ldr	r7, .L10+4
 103              		.loc 2 282 0
 104 0008 DFF88080 		ldr	r8, .L10+28
 105              		.loc 2 295 0
 106 000c DFF880C0 		ldr	ip, .L10+32
 107              		.loc 2 289 0
 108 0010 DFF880E0 		ldr	lr, .L10+36
 109              		.loc 2 299 0
 110 0014 1848     		ldr	r0, .L10+8
 111              		.loc 2 282 0
 112 0016 23F00303 		bic	r3, r3, #3
 113              		.loc 2 289 0
ARM GAS  C:\Users\jo\AppData\Local\Temp\cceq62By.s 			page 3


 114 001a 03F5AF54 		add	r4, r3, #5600
 115              		.loc 2 285 0
 116 001e 4FF4AF52 		mov	r2, #5600
 117              		.loc 2 290 0
 118 0022 0126     		movs	r6, #1
 119              		.loc 2 286 0
 120 0024 0025     		movs	r5, #0
 121              		.loc 2 290 0
 122 0026 2671     		strb	r6, [r4, #4]
 123              		.loc 2 291 0
 124 0028 2280     		strh	r2, [r4]	@ movhi
 125              		.loc 2 292 0
 126 002a 6280     		strh	r2, [r4, #2]	@ movhi
 127              		.loc 2 275 0
 128 002c 82B0     		sub	sp, sp, #8
 129              		.cfi_def_cfa_offset 32
 130              		.loc 2 285 0
 131 002e 1A80     		strh	r2, [r3]	@ movhi
 132              		.loc 2 286 0
 133 0030 5D80     		strh	r5, [r3, #2]	@ movhi
 134              		.loc 2 299 0
 135 0032 3146     		mov	r1, r6
 136              		.loc 2 297 0
 137 0034 A7F8A820 		strh	r2, [r7, #168]	@ movhi
 138              		.loc 2 287 0
 139 0038 1D71     		strb	r5, [r3, #4]
 140              		.loc 2 282 0
 141 003a C8F80030 		str	r3, [r8]
 142              	.LVL3:
 143              		.loc 2 295 0
 144 003e CCF80030 		str	r3, [ip]
 145              		.loc 2 289 0
 146 0042 CEF80040 		str	r4, [lr]
 147              		.loc 2 299 0
 148 0046 FFF7FEFF 		bl	sys_sem_new
 149              	.LVL4:
 150 004a 10B9     		cbnz	r0, .L9
 151              		.loc 2 302 0
 152 004c 02B0     		add	sp, sp, #8
 153              		.cfi_remember_state
 154              		.cfi_def_cfa_offset 24
 155              		@ sp needed
 156 004e BDE8F081 		pop	{r4, r5, r6, r7, r8, pc}
 157              	.LVL5:
 158              	.L9:
 159              		.cfi_restore_state
 160              		.loc 2 300 0 discriminator 1
 161 0052 0A4B     		ldr	r3, .L10+12
 162 0054 0093     		str	r3, [sp]
 163 0056 0A49     		ldr	r1, .L10+16
 164 0058 0A4A     		ldr	r2, .L10+20
 165 005a 0B48     		ldr	r0, .L10+24
 166 005c 4FF49673 		mov	r3, #300
 167 0060 FFF7FEFF 		bl	chprintf.constprop.0
 168              	.LVL6:
 169              	.LBB32:
 170              	.LBB33:
ARM GAS  C:\Users\jo\AppData\Local\Temp\cceq62By.s 			page 4


 171              		.file 3 "../../../os/hal/osal/rt/osal.h"
 172              		.loc 3 414 0 discriminator 1
 173 0064 0748     		ldr	r0, .L10+20
 174              	.LBE33:
 175              	.LBE32:
 176              		.loc 2 302 0 discriminator 1
 177 0066 02B0     		add	sp, sp, #8
 178              		.cfi_def_cfa_offset 24
 179              		@ sp needed
 180 0068 BDE8F041 		pop	{r4, r5, r6, r7, r8, lr}
 181              		.cfi_restore 14
 182              		.cfi_restore 8
 183              		.cfi_restore 7
 184              		.cfi_restore 6
 185              		.cfi_restore 5
 186              		.cfi_restore 4
 187              		.cfi_def_cfa_offset 0
 188              	.LBB35:
 189              	.LBB34:
 190              		.loc 3 414 0 discriminator 1
 191 006c FFF7FEBF 		b	chSysHalt
 192              	.LVL7:
 193              	.L11:
 194              		.align	2
 195              	.L10:
 196 0070 03000000 		.word	.LANCHOR0+3
 197 0074 00000000 		.word	lwip_stats
 198 0078 00000000 		.word	.LANCHOR4
 199 007c 44000000 		.word	.LC2
 200 0080 00000000 		.word	.LC0
 201 0084 28000000 		.word	.LC1
 202 0088 00000000 		.word	itm_port
 203 008c 00000000 		.word	.LANCHOR1
 204 0090 00000000 		.word	.LANCHOR3
 205 0094 00000000 		.word	.LANCHOR2
 206              	.LBE34:
 207              	.LBE35:
 208              		.cfi_endproc
 209              	.LFE257:
 210              		.size	mem_init, .-mem_init
 211 0098 AFF30080 		.section	.text.mem_free,"ax",%progbits
 211      AFF30080 
 212              		.align	2
 213              		.p2align 4,,15
 214              		.global	mem_free
 215              		.thumb
 216              		.thumb_func
 217              		.type	mem_free, %function
 218              	mem_free:
 219              	.LFB258:
 220              		.loc 2 312 0
 221              		.cfi_startproc
 222              		@ args = 0, pretend = 0, frame = 0
 223              		@ frame_needed = 0, uses_anonymous_args = 0
 224              	.LVL8:
 225              		.loc 2 316 0
 226 0000 0028     		cmp	r0, #0
ARM GAS  C:\Users\jo\AppData\Local\Temp\cceq62By.s 			page 5


 227 0002 00F0D680 		beq	.L39
 228              		.loc 2 312 0
 229 0006 2DE9F041 		push	{r4, r5, r6, r7, r8, lr}
 230              		.cfi_def_cfa_offset 24
 231              		.cfi_offset 4, -24
 232              		.cfi_offset 5, -20
 233              		.cfi_offset 6, -16
 234              		.cfi_offset 7, -12
 235              		.cfi_offset 8, -8
 236              		.cfi_offset 14, -4
 237              		.loc 2 320 0
 238 000a 8307     		lsls	r3, r0, #30
 239              		.loc 2 312 0
 240 000c 82B0     		sub	sp, sp, #8
 241              		.cfi_def_cfa_offset 32
 242 000e 0446     		mov	r4, r0
 243              		.loc 2 320 0
 244 0010 40F08380 		bne	.L40
 245              	.LVL9:
 246              	.L14:
 247              		.loc 2 322 0
 248 0014 674D     		ldr	r5, .L46
 249 0016 2B68     		ldr	r3, [r5]
 250 0018 9C42     		cmp	r4, r3
 251 001a 03D3     		bcc	.L15
 252              		.loc 2 322 0 is_stmt 0 discriminator 2
 253 001c 664E     		ldr	r6, .L46+4
 254 001e 3368     		ldr	r3, [r6]
 255 0020 9C42     		cmp	r4, r3
 256 0022 1BD3     		bcc	.L16
 257              	.L15:
 258              		.loc 2 322 0 discriminator 3
 259 0024 654B     		ldr	r3, .L46+8
 260 0026 0093     		str	r3, [sp]
 261 0028 6549     		ldr	r1, .L46+12
 262 002a 664A     		ldr	r2, .L46+16
 263 002c 6648     		ldr	r0, .L46+20
 264 002e 40F24313 		movw	r3, #323
 265 0032 FFF7FEFF 		bl	chprintf.constprop.0
 266              	.LVL10:
 267              	.LBB52:
 268              	.LBB53:
 269              		.loc 3 414 0 is_stmt 1 discriminator 3
 270 0036 6348     		ldr	r0, .L46+16
 271 0038 FFF7FEFF 		bl	chSysHalt
 272              	.LVL11:
 273              	.LBE53:
 274              	.LBE52:
 275              		.loc 2 325 0 discriminator 3
 276 003c 2B68     		ldr	r3, [r5]
 277 003e 9C42     		cmp	r4, r3
 278 0040 08D2     		bcs	.L17
 279              	.L18:
 280              		.loc 2 330 0
 281 0042 624A     		ldr	r2, .L46+24
 282 0044 B2F8B030 		ldrh	r3, [r2, #176]
 283 0048 0133     		adds	r3, r3, #1
ARM GAS  C:\Users\jo\AppData\Local\Temp\cceq62By.s 			page 6


 284 004a A2F8B030 		strh	r3, [r2, #176]	@ movhi
 285              		.loc 2 356 0
 286 004e 02B0     		add	sp, sp, #8
 287              		.cfi_remember_state
 288              		.cfi_def_cfa_offset 24
 289              		@ sp needed
 290 0050 BDE8F081 		pop	{r4, r5, r6, r7, r8, pc}
 291              	.LVL12:
 292              	.L17:
 293              		.cfi_restore_state
 294 0054 584E     		ldr	r6, .L46+4
 295              		.loc 2 325 0
 296 0056 3368     		ldr	r3, [r6]
 297 0058 9C42     		cmp	r4, r3
 298 005a F2D2     		bcs	.L18
 299              	.LVL13:
 300              	.L16:
 301              		.loc 2 335 0
 302 005c 5C48     		ldr	r0, .L46+28
 303 005e 0021     		movs	r1, #0
 304 0060 FFF7FEFF 		bl	sys_arch_sem_wait
 305              	.LVL14:
 306              		.loc 2 339 0
 307 0064 14F8043C 		ldrb	r3, [r4, #-4]	@ zero_extendqisi2
 308              		.loc 2 337 0
 309 0068 A4F10807 		sub	r7, r4, #8
 310              	.LVL15:
 311              		.loc 2 339 0
 312 006c 002B     		cmp	r3, #0
 313 006e 00F09380 		beq	.L41
 314              	.L19:
 315              		.loc 2 343 0
 316 0072 DFF86081 		ldr	r8, .L46+32
 317              		.loc 2 348 0
 318 0076 5548     		ldr	r0, .L46+24
 319              		.loc 2 343 0
 320 0078 D8F80030 		ldr	r3, [r8]
 321              		.loc 2 348 0
 322 007c 2968     		ldr	r1, [r5]
 323              		.loc 2 341 0
 324 007e 0022     		movs	r2, #0
 325 0080 04F8042C 		strb	r2, [r4, #-4]
 326              		.loc 2 343 0
 327 0084 9F42     		cmp	r7, r3
 328 0086 34F8082C 		ldrh	r2, [r4, #-8]
 329 008a B0F8AA30 		ldrh	r3, [r0, #170]
 330              		.loc 2 345 0
 331 008e 38BF     		it	cc
 332 0090 C8F80070 		strcc	r7, [r8]
 333 0094 9A1A     		subs	r2, r3, r2
 334              		.loc 2 348 0
 335 0096 7B1A     		subs	r3, r7, r1
 336 0098 1344     		add	r3, r3, r2
 337              	.LBB54:
 338              	.LBB55:
 339              		.loc 2 241 0
 340 009a 8F42     		cmp	r7, r1
ARM GAS  C:\Users\jo\AppData\Local\Temp\cceq62By.s 			page 7


 341              	.LBE55:
 342              	.LBE54:
 343              		.loc 2 348 0
 344 009c A0F8AA30 		strh	r3, [r0, #170]	@ movhi
 345              	.LVL16:
 346              	.LBB66:
 347              	.LBB64:
 348              		.loc 2 241 0
 349 00a0 6ED3     		bcc	.L42
 350              	.L21:
 351              		.loc 2 242 0
 352 00a2 3368     		ldr	r3, [r6]
 353 00a4 9F42     		cmp	r7, r3
 354 00a6 5FD2     		bcs	.L43
 355              	.L22:
 356              		.loc 2 243 0
 357 00a8 14F8043C 		ldrb	r3, [r4, #-4]	@ zero_extendqisi2
 358 00ac 002B     		cmp	r3, #0
 359 00ae 4FD1     		bne	.L44
 360              	.L23:
 361              		.loc 2 246 0
 362 00b0 34F8083C 		ldrh	r3, [r4, #-8]
 363 00b4 B3F5AF5F 		cmp	r3, #5600
 364 00b8 3CD8     		bhi	.L45
 365              	.L24:
 366              		.loc 2 248 0
 367 00ba 2A68     		ldr	r2, [r5]
 368 00bc 1344     		add	r3, r3, r2
 369              	.LVL17:
 370              		.loc 2 249 0
 371 00be 9F42     		cmp	r7, r3
 372 00c0 11D0     		beq	.L25
 373 00c2 1979     		ldrb	r1, [r3, #4]	@ zero_extendqisi2
 374 00c4 79B9     		cbnz	r1, .L25
 375 00c6 3168     		ldr	r1, [r6]
 376 00c8 8B42     		cmp	r3, r1
 377 00ca 0CD0     		beq	.L25
 378              		.loc 2 251 0
 379 00cc D8F80010 		ldr	r1, [r8]
 380 00d0 4048     		ldr	r0, .L46+32
 381 00d2 8B42     		cmp	r3, r1
 382              		.loc 2 254 0
 383 00d4 1988     		ldrh	r1, [r3]
 384 00d6 24F8081C 		strh	r1, [r4, #-8]	@ movhi
 385              		.loc 2 255 0
 386 00da 1B88     		ldrh	r3, [r3]
 387              	.LVL18:
 388              		.loc 2 252 0
 389 00dc 08BF     		it	eq
 390 00de 0760     		streq	r7, [r0]
 391              		.loc 2 255 0
 392 00e0 1344     		add	r3, r3, r2
 393 00e2 B91A     		subs	r1, r7, r2
 394 00e4 5980     		strh	r1, [r3, #2]	@ movhi
 395              	.L25:
 396              		.loc 2 259 0
 397 00e6 34F8063C 		ldrh	r3, [r4, #-6]
ARM GAS  C:\Users\jo\AppData\Local\Temp\cceq62By.s 			page 8


 398 00ea D118     		adds	r1, r2, r3
 399              	.LVL19:
 400              		.loc 2 260 0
 401 00ec 8F42     		cmp	r7, r1
 402 00ee 0ED0     		beq	.L27
 403 00f0 0879     		ldrb	r0, [r1, #4]	@ zero_extendqisi2
 404 00f2 60B9     		cbnz	r0, .L27
 405              		.loc 2 262 0
 406 00f4 D8F80000 		ldr	r0, [r8]
 407 00f8 364D     		ldr	r5, .L46+32
 408 00fa 8742     		cmp	r7, r0
 409              		.loc 2 263 0
 410 00fc 08BF     		it	eq
 411 00fe 2960     		streq	r1, [r5]
 412              		.loc 2 265 0
 413 0100 34F8081C 		ldrh	r1, [r4, #-8]
 414              	.LVL20:
 415 0104 D152     		strh	r1, [r2, r3]	@ movhi
 416              		.loc 2 266 0
 417 0106 34F8081C 		ldrh	r1, [r4, #-8]
 418 010a 0A44     		add	r2, r2, r1
 419              	.LVL21:
 420 010c 5380     		strh	r3, [r2, #2]	@ movhi
 421              	.L27:
 422              	.LBE64:
 423              	.LBE66:
 424              		.loc 2 355 0
 425 010e 3048     		ldr	r0, .L46+28
 426              		.loc 2 356 0
 427 0110 02B0     		add	sp, sp, #8
 428              		.cfi_remember_state
 429              		.cfi_def_cfa_offset 24
 430              		@ sp needed
 431 0112 BDE8F041 		pop	{r4, r5, r6, r7, r8, lr}
 432              		.cfi_restore 14
 433              		.cfi_restore 8
 434              		.cfi_restore 7
 435              		.cfi_restore 6
 436              		.cfi_restore 5
 437              		.cfi_restore 4
 438              		.cfi_def_cfa_offset 0
 439              	.LVL22:
 440              		.loc 2 355 0
 441 0116 FFF7FEBF 		b	sys_sem_signal
 442              	.LVL23:
 443              	.L40:
 444              		.cfi_restore_state
 445              		.loc 2 320 0 discriminator 1
 446 011a 284B     		ldr	r3, .L46+8
 447 011c 0093     		str	r3, [sp]
 448 011e 2849     		ldr	r1, .L46+12
 449 0120 2D4A     		ldr	r2, .L46+36
 450 0122 2948     		ldr	r0, .L46+20
 451              	.LVL24:
 452 0124 4FF4A073 		mov	r3, #320
 453 0128 FFF7FEFF 		bl	chprintf.constprop.0
 454              	.LVL25:
ARM GAS  C:\Users\jo\AppData\Local\Temp\cceq62By.s 			page 9


 455              	.LBB67:
 456              	.LBB68:
 457              		.loc 3 414 0 discriminator 1
 458 012c 2A48     		ldr	r0, .L46+36
 459 012e FFF7FEFF 		bl	chSysHalt
 460              	.LVL26:
 461 0132 6FE7     		b	.L14
 462              	.LVL27:
 463              	.L45:
 464              	.LBE68:
 465              	.LBE67:
 466              	.LBB69:
 467              	.LBB65:
 468              		.loc 2 246 0
 469 0134 214B     		ldr	r3, .L46+8
 470 0136 0093     		str	r3, [sp]
 471 0138 2149     		ldr	r1, .L46+12
 472 013a 284A     		ldr	r2, .L46+40
 473 013c 2248     		ldr	r0, .L46+20
 474 013e F623     		movs	r3, #246
 475 0140 FFF7FEFF 		bl	chprintf.constprop.0
 476              	.LVL28:
 477              	.LBB56:
 478              	.LBB57:
 479              		.loc 3 414 0
 480 0144 2548     		ldr	r0, .L46+40
 481 0146 FFF7FEFF 		bl	chSysHalt
 482              	.LVL29:
 483 014a 34F8083C 		ldrh	r3, [r4, #-8]
 484 014e B4E7     		b	.L24
 485              	.LVL30:
 486              	.L44:
 487              	.LBE57:
 488              	.LBE56:
 489              		.loc 2 243 0
 490 0150 1A4B     		ldr	r3, .L46+8
 491 0152 0093     		str	r3, [sp]
 492 0154 1A49     		ldr	r1, .L46+12
 493 0156 224A     		ldr	r2, .L46+44
 494 0158 1B48     		ldr	r0, .L46+20
 495 015a F323     		movs	r3, #243
 496 015c FFF7FEFF 		bl	chprintf.constprop.0
 497              	.LVL31:
 498              	.LBB58:
 499              	.LBB59:
 500              		.loc 3 414 0
 501 0160 1F48     		ldr	r0, .L46+44
 502 0162 FFF7FEFF 		bl	chSysHalt
 503              	.LVL32:
 504 0166 A3E7     		b	.L23
 505              	.LVL33:
 506              	.L43:
 507              	.LBE59:
 508              	.LBE58:
 509              		.loc 2 242 0
 510 0168 144B     		ldr	r3, .L46+8
 511 016a 0093     		str	r3, [sp]
ARM GAS  C:\Users\jo\AppData\Local\Temp\cceq62By.s 			page 10


 512 016c 1449     		ldr	r1, .L46+12
 513 016e 1D4A     		ldr	r2, .L46+48
 514 0170 1548     		ldr	r0, .L46+20
 515 0172 F223     		movs	r3, #242
 516 0174 FFF7FEFF 		bl	chprintf.constprop.0
 517              	.LVL34:
 518              	.LBB60:
 519              	.LBB61:
 520              		.loc 3 414 0
 521 0178 1A48     		ldr	r0, .L46+48
 522 017a FFF7FEFF 		bl	chSysHalt
 523              	.LVL35:
 524 017e 93E7     		b	.L22
 525              	.LVL36:
 526              	.L42:
 527              	.LBE61:
 528              	.LBE60:
 529              		.loc 2 241 0
 530 0180 0E4B     		ldr	r3, .L46+8
 531 0182 0093     		str	r3, [sp]
 532 0184 0E49     		ldr	r1, .L46+12
 533 0186 184A     		ldr	r2, .L46+52
 534 0188 0F48     		ldr	r0, .L46+20
 535 018a F123     		movs	r3, #241
 536 018c FFF7FEFF 		bl	chprintf.constprop.0
 537              	.LVL37:
 538              	.LBB62:
 539              	.LBB63:
 540              		.loc 3 414 0
 541 0190 1548     		ldr	r0, .L46+52
 542 0192 FFF7FEFF 		bl	chSysHalt
 543              	.LVL38:
 544 0196 84E7     		b	.L21
 545              	.LVL39:
 546              	.L41:
 547              	.LBE63:
 548              	.LBE62:
 549              	.LBE65:
 550              	.LBE69:
 551              		.loc 2 339 0 discriminator 1
 552 0198 084B     		ldr	r3, .L46+8
 553 019a 0093     		str	r3, [sp]
 554 019c 0849     		ldr	r1, .L46+12
 555 019e 134A     		ldr	r2, .L46+56
 556 01a0 0948     		ldr	r0, .L46+20
 557 01a2 40F25313 		movw	r3, #339
 558 01a6 FFF7FEFF 		bl	chprintf.constprop.0
 559              	.LVL40:
 560              	.LBB70:
 561              	.LBB71:
 562              		.loc 3 414 0 discriminator 1
 563 01aa 1048     		ldr	r0, .L46+56
 564 01ac FFF7FEFF 		bl	chSysHalt
 565              	.LVL41:
 566 01b0 5FE7     		b	.L19
 567              	.LVL42:
 568              	.L39:
ARM GAS  C:\Users\jo\AppData\Local\Temp\cceq62By.s 			page 11


 569              		.cfi_def_cfa_offset 0
 570              		.cfi_restore 4
 571              		.cfi_restore 5
 572              		.cfi_restore 6
 573              		.cfi_restore 7
 574              		.cfi_restore 8
 575              		.cfi_restore 14
 576 01b2 7047     		bx	lr
 577              	.L47:
 578              		.align	2
 579              	.L46:
 580 01b4 00000000 		.word	.LANCHOR1
 581 01b8 00000000 		.word	.LANCHOR2
 582 01bc 44000000 		.word	.LC2
 583 01c0 00000000 		.word	.LC0
 584 01c4 94000000 		.word	.LC4
 585 01c8 00000000 		.word	itm_port
 586 01cc 00000000 		.word	lwip_stats
 587 01d0 00000000 		.word	.LANCHOR4
 588 01d4 00000000 		.word	.LANCHOR3
 589 01d8 70000000 		.word	.LC3
 590 01dc 10010000 		.word	.LC9
 591 01e0 F4000000 		.word	.LC8
 592 01e4 D8000000 		.word	.LC7
 593 01e8 C0000000 		.word	.LC6
 594 01ec AC000000 		.word	.LC5
 595              	.LBE71:
 596              	.LBE70:
 597              		.cfi_endproc
 598              	.LFE258:
 599              		.size	mem_free, .-mem_free
 600              		.section	.text.mem_trim,"ax",%progbits
 601              		.align	2
 602              		.p2align 4,,15
 603              		.global	mem_trim
 604              		.thumb
 605              		.thumb_func
 606              		.type	mem_trim, %function
 607              	mem_trim:
 608              	.LFB259:
 609              		.loc 2 370 0
 610              		.cfi_startproc
 611              		@ args = 0, pretend = 0, frame = 0
 612              		@ frame_needed = 0, uses_anonymous_args = 0
 613              	.LVL43:
 614 0000 2DE9F041 		push	{r4, r5, r6, r7, r8, lr}
 615              		.cfi_def_cfa_offset 24
 616              		.cfi_offset 4, -24
 617              		.cfi_offset 5, -20
 618              		.cfi_offset 6, -16
 619              		.cfi_offset 7, -12
 620              		.cfi_offset 8, -8
 621              		.cfi_offset 14, -4
 622              		.loc 2 379 0
 623 0004 0331     		adds	r1, r1, #3
 624              	.LVL44:
 625 0006 4FF6FC75 		movw	r5, #65532
ARM GAS  C:\Users\jo\AppData\Local\Temp\cceq62By.s 			page 12


 626 000a 0D40     		ands	r5, r5, r1
 627              	.LVL45:
 628              		.loc 2 381 0
 629 000c 0B2D     		cmp	r5, #11
 630              		.loc 2 370 0
 631 000e 82B0     		sub	sp, sp, #8
 632              		.cfi_def_cfa_offset 32
 633              		.loc 2 381 0
 634 0010 6CD9     		bls	.L64
 635              		.loc 2 386 0
 636 0012 B5F5AF5F 		cmp	r5, #5600
 637 0016 70D8     		bhi	.L78
 638              	.LVL46:
 639              	.L49:
 640              		.loc 2 390 0
 641 0018 DFF87081 		ldr	r8, .L81+36
 642 001c D8F80030 		ldr	r3, [r8]
 643 0020 8342     		cmp	r3, r0
 644 0022 0446     		mov	r4, r0
 645              	.LVL47:
 646 0024 48D8     		bhi	.L51
 647              		.loc 2 390 0 is_stmt 0 discriminator 2
 648 0026 504A     		ldr	r2, .L81
 649 0028 1268     		ldr	r2, [r2]
 650 002a 9042     		cmp	r0, r2
 651 002c 44D2     		bcs	.L51
 652              	.LVL48:
 653              	.L52:
 654              		.loc 2 403 0 is_stmt 1
 655 002e A4F10807 		sub	r7, r4, #8
 656              	.LVL49:
 657 0032 34F8086C 		ldrh	r6, [r4, #-8]
 658              		.loc 2 405 0
 659 0036 FB1A     		subs	r3, r7, r3
 660 0038 9FB2     		uxth	r7, r3
 661              	.LVL50:
 662 003a 083E     		subs	r6, r6, #8
 663              		.loc 2 407 0
 664 003c F61B     		subs	r6, r6, r7
 665 003e B6B2     		uxth	r6, r6
 666              	.LVL51:
 667              		.loc 2 408 0
 668 0040 AE42     		cmp	r6, r5
 669 0042 60D3     		bcc	.L79
 670              		.loc 2 413 0
 671 0044 B542     		cmp	r5, r6
 672 0046 5CD0     		beq	.L80
 673              		.loc 2 419 0
 674 0048 0021     		movs	r1, #0
 675 004a 4848     		ldr	r0, .L81+4
 676 004c FFF7FEFF 		bl	sys_arch_sem_wait
 677              	.LVL52:
 678              		.loc 2 421 0
 679 0050 D8F80030 		ldr	r3, [r8]
 680 0054 34F8080C 		ldrh	r0, [r4, #-8]
 681 0058 1918     		adds	r1, r3, r0
 682              	.LVL53:
ARM GAS  C:\Users\jo\AppData\Local\Temp\cceq62By.s 			page 13


 683              		.loc 2 422 0
 684 005a 0A79     		ldrb	r2, [r1, #4]	@ zero_extendqisi2
 685 005c 002A     		cmp	r2, #0
 686 005e 60D1     		bne	.L56
 687              	.LBB72:
 688              		.loc 2 429 0
 689 0060 DFF824E1 		ldr	lr, .L81+32
 690              		.loc 2 426 0
 691 0064 33F800C0 		ldrh	ip, [r3, r0]
 692              	.LVL54:
 693              		.loc 2 429 0
 694 0068 DEF80000 		ldr	r0, [lr]
 695 006c 05F10802 		add	r2, r5, #8
 696              		.loc 2 428 0
 697 0070 3A44     		add	r2, r2, r7
 698 0072 92B2     		uxth	r2, r2
 699              	.LVL55:
 700              		.loc 2 429 0
 701 0074 8842     		cmp	r0, r1
 702              		.loc 2 430 0
 703 0076 03EB0201 		add	r1, r3, r2
 704              	.LVL56:
 705              		.loc 2 433 0
 706 007a 4FF00000 		mov	r0, #0
 707              		.loc 2 435 0
 708 007e A1F800C0 		strh	ip, [r1]	@ movhi
 709              	.LVL57:
 710              		.loc 2 437 0
 711 0082 4F80     		strh	r7, [r1, #2]	@ movhi
 712              		.loc 2 433 0
 713 0084 0871     		strb	r0, [r1, #4]
 714              		.loc 2 439 0
 715 0086 24F8082C 		strh	r2, [r4, #-8]	@ movhi
 716              		.loc 2 430 0
 717 008a 08BF     		it	eq
 718 008c CEF80010 		streq	r1, [lr]
 719              	.LVL58:
 720              		.loc 2 443 0
 721 0090 0988     		ldrh	r1, [r1]
 722              	.LVL59:
 723 0092 B1F5AF5F 		cmp	r1, #5600
 724 0096 01D0     		beq	.L62
 725              		.loc 2 444 0
 726 0098 0B44     		add	r3, r3, r1
 727              	.LVL60:
 728 009a 5A80     		strh	r2, [r3, #2]	@ movhi
 729              	.LVL61:
 730              	.L62:
 731              	.LBE72:
 732              		.loc 2 468 0
 733 009c 344A     		ldr	r2, .L81+8
 734 009e B2F8AA30 		ldrh	r3, [r2, #170]
 735 00a2 1D44     		add	r5, r5, r3
 736              	.LVL62:
 737 00a4 AE1B     		subs	r6, r5, r6
 738              	.LVL63:
 739 00a6 A2F8AA60 		strh	r6, [r2, #170]	@ movhi
ARM GAS  C:\Users\jo\AppData\Local\Temp\cceq62By.s 			page 14


 740              	.L60:
 741              		.loc 2 480 0
 742 00aa 3048     		ldr	r0, .L81+4
 743 00ac FFF7FEFF 		bl	sys_sem_signal
 744              	.LVL64:
 745              		.loc 2 481 0
 746 00b0 2046     		mov	r0, r4
 747              		.loc 2 482 0
 748 00b2 02B0     		add	sp, sp, #8
 749              		.cfi_remember_state
 750              		.cfi_def_cfa_offset 24
 751              		@ sp needed
 752 00b4 BDE8F081 		pop	{r4, r5, r6, r7, r8, pc}
 753              	.LVL65:
 754              	.L51:
 755              		.cfi_restore_state
 756              		.loc 2 390 0 discriminator 3
 757 00b8 2E4B     		ldr	r3, .L81+12
 758 00ba 0093     		str	r3, [sp]
 759 00bc 2E49     		ldr	r1, .L81+16
 760 00be 2F4A     		ldr	r2, .L81+20
 761 00c0 2F48     		ldr	r0, .L81+24
 762              	.LVL66:
 763 00c2 40F28713 		movw	r3, #391
 764 00c6 FFF7FEFF 		bl	chprintf.constprop.0
 765              	.LVL67:
 766              	.LBB73:
 767              	.LBB74:
 768              		.loc 3 414 0 discriminator 3
 769 00ca 2C48     		ldr	r0, .L81+20
 770 00cc FFF7FEFF 		bl	chSysHalt
 771              	.LVL68:
 772              	.LBE74:
 773              	.LBE73:
 774              		.loc 2 393 0 discriminator 3
 775 00d0 D8F80030 		ldr	r3, [r8]
 776 00d4 9C42     		cmp	r4, r3
 777 00d6 0BD2     		bcs	.L53
 778              	.L54:
 779              		.loc 2 398 0
 780 00d8 254A     		ldr	r2, .L81+8
 781 00da B2F8B030 		ldrh	r3, [r2, #176]
 782 00de 0133     		adds	r3, r3, #1
 783              		.loc 2 400 0
 784 00e0 2046     		mov	r0, r4
 785              		.loc 2 398 0
 786 00e2 A2F8B030 		strh	r3, [r2, #176]	@ movhi
 787              	.LVL69:
 788              	.L73:
 789              		.loc 2 482 0
 790 00e6 02B0     		add	sp, sp, #8
 791              		.cfi_remember_state
 792              		.cfi_def_cfa_offset 24
 793              		@ sp needed
 794 00e8 BDE8F081 		pop	{r4, r5, r6, r7, r8, pc}
 795              	.LVL70:
 796              	.L64:
ARM GAS  C:\Users\jo\AppData\Local\Temp\cceq62By.s 			page 15


 797              		.cfi_restore_state
 798              		.loc 2 383 0
 799 00ec 0C25     		movs	r5, #12
 800              	.LVL71:
 801 00ee 93E7     		b	.L49
 802              	.LVL72:
 803              	.L53:
 804 00f0 1D4A     		ldr	r2, .L81
 805              		.loc 2 393 0
 806 00f2 1268     		ldr	r2, [r2]
 807 00f4 9442     		cmp	r4, r2
 808 00f6 EFD2     		bcs	.L54
 809 00f8 99E7     		b	.L52
 810              	.LVL73:
 811              	.L78:
 812              		.loc 2 387 0
 813 00fa 0020     		movs	r0, #0
 814              	.LVL74:
 815              		.loc 2 482 0
 816 00fc 02B0     		add	sp, sp, #8
 817              		.cfi_remember_state
 818              		.cfi_def_cfa_offset 24
 819              		@ sp needed
 820 00fe BDE8F081 		pop	{r4, r5, r6, r7, r8, pc}
 821              	.LVL75:
 822              	.L80:
 823              		.cfi_restore_state
 824 0102 2046     		mov	r0, r4
 825 0104 EFE7     		b	.L73
 826              	.L79:
 827              		.loc 2 408 0 discriminator 1
 828 0106 1B4B     		ldr	r3, .L81+12
 829 0108 0093     		str	r3, [sp]
 830 010a 1B49     		ldr	r1, .L81+16
 831 010c 1D4A     		ldr	r2, .L81+28
 832 010e 1C48     		ldr	r0, .L81+24
 833 0110 4FF4CC73 		mov	r3, #408
 834 0114 FFF7FEFF 		bl	chprintf.constprop.0
 835              	.LVL76:
 836              	.LBB75:
 837              	.LBB76:
 838              		.loc 3 414 0 discriminator 1
 839 0118 1A48     		ldr	r0, .L81+28
 840 011a FFF7FEFF 		bl	chSysHalt
 841              	.LVL77:
 842              	.LBE76:
 843              	.LBE75:
 844              		.loc 2 411 0 discriminator 1
 845 011e 0020     		movs	r0, #0
 846 0120 E1E7     		b	.L73
 847              	.LVL78:
 848              	.L56:
 849              		.loc 2 448 0
 850 0122 05F11402 		add	r2, r5, #20
 851 0126 B242     		cmp	r2, r6
 852 0128 BFD8     		bhi	.L60
 853              		.loc 2 458 0
ARM GAS  C:\Users\jo\AppData\Local\Temp\cceq62By.s 			page 16


 854 012a 1749     		ldr	r1, .L81+32
 855              	.LVL79:
 856 012c 05F10802 		add	r2, r5, #8
 857              		.loc 2 456 0
 858 0130 3A44     		add	r2, r2, r7
 859 0132 1FFA82FC 		uxth	ip, r2
 860              	.LVL80:
 861              		.loc 2 458 0
 862 0136 0A68     		ldr	r2, [r1]
 863              		.loc 2 457 0
 864 0138 03EB0C0E 		add	lr, r3, ip
 865              	.LVL81:
 866              		.loc 2 458 0
 867 013c 9645     		cmp	lr, r2
 868              		.loc 2 459 0
 869 013e 38BF     		it	cc
 870 0140 C1F800E0 		strcc	lr, [r1]
 871              		.loc 2 461 0
 872 0144 0021     		movs	r1, #0
 873 0146 8EF80410 		strb	r1, [lr, #4]
 874              		.loc 2 462 0
 875 014a 23F80C00 		strh	r0, [r3, ip]	@ movhi
 876              		.loc 2 463 0
 877 014e AEF80270 		strh	r7, [lr, #2]	@ movhi
 878              		.loc 2 464 0
 879 0152 24F808CC 		strh	ip, [r4, #-8]	@ movhi
 880              		.loc 2 465 0
 881 0156 33F80C10 		ldrh	r1, [r3, ip]
 882 015a B1F5AF5F 		cmp	r1, #5600
 883              		.loc 2 466 0
 884 015e 1CBF     		itt	ne
 885 0160 5B18     		addne	r3, r3, r1
 886 0162 A3F802C0 		strhne	ip, [r3, #2]	@ movhi
 887 0166 99E7     		b	.L62
 888              	.L82:
 889              		.align	2
 890              	.L81:
 891 0168 00000000 		.word	.LANCHOR2
 892 016c 00000000 		.word	.LANCHOR4
 893 0170 00000000 		.word	lwip_stats
 894 0174 44000000 		.word	.LC2
 895 0178 00000000 		.word	.LC0
 896 017c 3C010000 		.word	.LC10
 897 0180 00000000 		.word	itm_port
 898 0184 54010000 		.word	.LC11
 899 0188 00000000 		.word	.LANCHOR3
 900 018c 00000000 		.word	.LANCHOR1
 901              		.cfi_endproc
 902              	.LFE259:
 903              		.size	mem_trim, .-mem_trim
 904              		.section	.text.mem_malloc,"ax",%progbits
 905              		.align	2
 906              		.p2align 4,,15
 907              		.global	mem_malloc
 908              		.thumb
 909              		.thumb_func
 910              		.type	mem_malloc, %function
ARM GAS  C:\Users\jo\AppData\Local\Temp\cceq62By.s 			page 17


 911              	mem_malloc:
 912              	.LFB260:
 913              		.loc 2 495 0
 914              		.cfi_startproc
 915              		@ args = 0, pretend = 0, frame = 0
 916              		@ frame_needed = 0, uses_anonymous_args = 0
 917              	.LVL82:
 918              		.loc 2 503 0
 919 0000 0028     		cmp	r0, #0
 920 0002 00F09380 		beq	.L126
 921              		.loc 2 495 0
 922 0006 2DE9F047 		push	{r4, r5, r6, r7, r8, r9, r10, lr}
 923              		.cfi_def_cfa_offset 32
 924              		.cfi_offset 4, -32
 925              		.cfi_offset 5, -28
 926              		.cfi_offset 6, -24
 927              		.cfi_offset 7, -20
 928              		.cfi_offset 8, -16
 929              		.cfi_offset 9, -12
 930              		.cfi_offset 10, -8
 931              		.cfi_offset 14, -4
 932              		.loc 2 509 0
 933 000a 0330     		adds	r0, r0, #3
 934              	.LVL83:
 935 000c 4FF6FC77 		movw	r7, #65532
 936 0010 0740     		ands	r7, r7, r0
 937              	.LVL84:
 938              		.loc 2 511 0
 939 0012 0B2F     		cmp	r7, #11
 940              		.loc 2 495 0
 941 0014 82B0     		sub	sp, sp, #8
 942              		.cfi_def_cfa_offset 40
 943              		.loc 2 511 0
 944 0016 34D9     		bls	.L103
 945              		.loc 2 516 0
 946 0018 B7F5AF5F 		cmp	r7, #5600
 947 001c 00F28280 		bhi	.L104
 948 0020 C7F5AF56 		rsb	r6, r7, #5600
 949              	.LVL85:
 950              	.L85:
 951              		.loc 2 521 0
 952 0024 6148     		ldr	r0, .L134
 953              		.loc 2 532 0
 954 0026 DFF8A881 		ldr	r8, .L134+36
 955              		.loc 2 521 0
 956 002a 0021     		movs	r1, #0
 957 002c FFF7FEFF 		bl	sys_arch_sem_wait
 958              	.LVL86:
 959              		.loc 2 532 0
 960 0030 DFF8A0C1 		ldr	ip, .L134+40
 961 0034 D8F800E0 		ldr	lr, [r8]
 962 0038 DCF80020 		ldr	r2, [ip]
 963 003c C2EB0E03 		rsb	r3, r2, lr
 964 0040 9BB2     		uxth	r3, r3
 965              	.LVL87:
 966 0042 9E42     		cmp	r6, r3
 967 0044 09DC     		bgt	.L100
ARM GAS  C:\Users\jo\AppData\Local\Temp\cceq62By.s 			page 18


 968 0046 0FE0     		b	.L86
 969              	.LVL88:
 970              	.L129:
 971              		.loc 2 549 0 discriminator 1
 972 0048 D45A     		ldrh	r4, [r2, r3]
 973 004a A4F10801 		sub	r1, r4, #8
 974 004e C91A     		subs	r1, r1, r3
 975              		.loc 2 548 0 discriminator 1
 976 0050 B942     		cmp	r1, r7
 977 0052 1AD2     		bcs	.L128
 978              		.loc 2 549 0
 979 0054 2346     		mov	r3, r4
 980              	.LVL89:
 981              		.loc 2 532 0
 982 0056 B342     		cmp	r3, r6
 983 0058 06DA     		bge	.L86
 984              	.LVL90:
 985              	.L100:
 986              		.loc 2 534 0
 987 005a D518     		adds	r5, r2, r3
 988              	.LVL91:
 989              		.loc 2 548 0
 990 005c 2879     		ldrb	r0, [r5, #4]	@ zero_extendqisi2
 991 005e 0028     		cmp	r0, #0
 992 0060 F2D0     		beq	.L129
 993 0062 D35A     		ldrh	r3, [r2, r3]
 994              	.LVL92:
 995              		.loc 2 532 0
 996 0064 B342     		cmp	r3, r6
 997 0066 F8DB     		blt	.L100
 998              	.LVL93:
 999              	.L86:
 1000              		.loc 2 629 0
 1001 0068 514A     		ldr	r2, .L134+4
 1002              		.loc 2 631 0
 1003 006a 5048     		ldr	r0, .L134
 1004              		.loc 2 629 0
 1005 006c B2F8AE30 		ldrh	r3, [r2, #174]
 1006              	.LVL94:
 1007 0070 0133     		adds	r3, r3, #1
 1008 0072 A2F8AE30 		strh	r3, [r2, #174]	@ movhi
 1009              		.loc 2 631 0
 1010 0076 FFF7FEFF 		bl	sys_sem_signal
 1011              	.LVL95:
 1012              		.loc 2 632 0
 1013 007a 0020     		movs	r0, #0
 1014              		.loc 2 633 0
 1015 007c 02B0     		add	sp, sp, #8
 1016              		.cfi_remember_state
 1017              		.cfi_def_cfa_offset 32
 1018              		@ sp needed
 1019 007e BDE8F087 		pop	{r4, r5, r6, r7, r8, r9, r10, pc}
 1020              	.LVL96:
 1021              	.L103:
 1022              		.cfi_restore_state
 1023 0082 41F2D456 		movw	r6, #5588
 1024              		.loc 2 513 0
ARM GAS  C:\Users\jo\AppData\Local\Temp\cceq62By.s 			page 19


 1025 0086 0C27     		movs	r7, #12
 1026              	.LVL97:
 1027 0088 CCE7     		b	.L85
 1028              	.LVL98:
 1029              	.L128:
 1030              		.loc 2 553 0
 1031 008a 07F11406 		add	r6, r7, #20
 1032 008e 8E42     		cmp	r6, r1
 1033 0090 22D9     		bls	.L130
 1034              		.loc 2 587 0
 1035 0092 4749     		ldr	r1, .L134+4
 1036              		.loc 2 586 0
 1037 0094 0122     		movs	r2, #1
 1038 0096 2A71     		strb	r2, [r5, #4]
 1039 0098 B1F8AA20 		ldrh	r2, [r1, #170]
 1040              		.loc 2 587 0
 1041 009c B1F8AC00 		ldrh	r0, [r1, #172]
 1042 00a0 1444     		add	r4, r4, r2
 1043 00a2 E31A     		subs	r3, r4, r3
 1044              	.LVL99:
 1045 00a4 9BB2     		uxth	r3, r3
 1046 00a6 9842     		cmp	r0, r3
 1047 00a8 A1F8AA30 		strh	r3, [r1, #170]	@ movhi
 1048 00ac 38BF     		it	cc
 1049 00ae A1F8AC30 		strhcc	r3, [r1, #172]	@ movhi
 1050 00b2 07F10806 		add	r6, r7, #8
 1051              	.L92:
 1052              		.loc 2 592 0
 1053 00b6 AE45     		cmp	lr, r5
 1054 00b8 5ED0     		beq	.L122
 1055 00ba 3E4C     		ldr	r4, .L134+8
 1056              	.L101:
 1057              		.loc 2 613 0
 1058 00bc 3B48     		ldr	r0, .L134
 1059 00be FFF7FEFF 		bl	sys_sem_signal
 1060              	.LVL100:
 1061              		.loc 2 614 0
 1062 00c2 2368     		ldr	r3, [r4]
 1063 00c4 2E44     		add	r6, r6, r5
 1064 00c6 B342     		cmp	r3, r6
 1065 00c8 49D3     		bcc	.L131
 1066              	.L98:
 1067              		.loc 2 616 0
 1068 00ca AB07     		lsls	r3, r5, #30
 1069 00cc 2FD1     		bne	.L132
 1070              	.L99:
 1071              		.loc 2 621 0
 1072 00ce 05F10800 		add	r0, r5, #8
 1073              		.loc 2 633 0
 1074 00d2 02B0     		add	sp, sp, #8
 1075              		.cfi_remember_state
 1076              		.cfi_def_cfa_offset 32
 1077              		@ sp needed
 1078 00d4 BDE8F087 		pop	{r4, r5, r6, r7, r8, r9, r10, pc}
 1079              	.LVL101:
 1080              	.L130:
 1081              		.cfi_restore_state
ARM GAS  C:\Users\jo\AppData\Local\Temp\cceq62By.s 			page 20


 1082 00d8 07F10806 		add	r6, r7, #8
 1083              		.loc 2 564 0
 1084 00dc 9919     		adds	r1, r3, r6
 1085 00de 89B2     		uxth	r1, r1
 1086              	.LVL102:
 1087              		.loc 2 566 0
 1088 00e0 02EB0109 		add	r9, r2, r1
 1089              	.LVL103:
 1090              		.loc 2 572 0
 1091 00e4 4FF0010A 		mov	r10, #1
 1092              		.loc 2 567 0
 1093 00e8 89F80400 		strb	r0, [r9, #4]
 1094              		.loc 2 568 0
 1095 00ec 5452     		strh	r4, [r2, r1]	@ movhi
 1096              		.loc 2 569 0
 1097 00ee A9F80230 		strh	r3, [r9, #2]	@ movhi
 1098              		.loc 2 571 0
 1099 00f2 2980     		strh	r1, [r5]	@ movhi
 1100              		.loc 2 574 0
 1101 00f4 535A     		ldrh	r3, [r2, r1]
 1102              	.LVL104:
 1103              		.loc 2 572 0
 1104 00f6 85F804A0 		strb	r10, [r5, #4]
 1105              		.loc 2 574 0
 1106 00fa B3F5AF5F 		cmp	r3, #5600
 1107              		.loc 2 575 0
 1108 00fe 18BF     		it	ne
 1109 0100 9B18     		addne	r3, r3, r2
 1110              		.loc 2 577 0
 1111 0102 2B4A     		ldr	r2, .L134+4
 1112              		.loc 2 575 0
 1113 0104 18BF     		it	ne
 1114 0106 5980     		strhne	r1, [r3, #2]	@ movhi
 1115              	.LVL105:
 1116 0108 B2F8AA30 		ldrh	r3, [r2, #170]
 1117              		.loc 2 577 0
 1118 010c B2F8AC10 		ldrh	r1, [r2, #172]
 1119              	.LVL106:
 1120 0110 0833     		adds	r3, r3, #8
 1121 0112 3B44     		add	r3, r3, r7
 1122 0114 9BB2     		uxth	r3, r3
 1123 0116 9942     		cmp	r1, r3
 1124 0118 A2F8AA30 		strh	r3, [r2, #170]	@ movhi
 1125 011c CBD2     		bcs	.L92
 1126              		.loc 2 577 0 is_stmt 0 discriminator 1
 1127 011e A2F8AC30 		strh	r3, [r2, #172]	@ movhi
 1128 0122 C8E7     		b	.L92
 1129              	.LVL107:
 1130              	.L104:
 1131              		.loc 2 504 0 is_stmt 1
 1132 0124 0020     		movs	r0, #0
 1133              		.loc 2 633 0
 1134 0126 02B0     		add	sp, sp, #8
 1135              		.cfi_def_cfa_offset 32
 1136              		@ sp needed
 1137 0128 BDE8F087 		pop	{r4, r5, r6, r7, r8, r9, r10, pc}
 1138              	.LVL108:
ARM GAS  C:\Users\jo\AppData\Local\Temp\cceq62By.s 			page 21


 1139              	.L126:
 1140              		.cfi_def_cfa_offset 0
 1141              		.cfi_restore 4
 1142              		.cfi_restore 5
 1143              		.cfi_restore 6
 1144              		.cfi_restore 7
 1145              		.cfi_restore 8
 1146              		.cfi_restore 9
 1147              		.cfi_restore 10
 1148              		.cfi_restore 14
 1149 012c 7047     		bx	lr
 1150              	.LVL109:
 1151              	.L132:
 1152              		.cfi_def_cfa_offset 40
 1153              		.cfi_offset 4, -32
 1154              		.cfi_offset 5, -28
 1155              		.cfi_offset 6, -24
 1156              		.cfi_offset 7, -20
 1157              		.cfi_offset 8, -16
 1158              		.cfi_offset 9, -12
 1159              		.cfi_offset 10, -8
 1160              		.cfi_offset 14, -4
 1161              		.loc 2 616 0 discriminator 1
 1162 012e 224C     		ldr	r4, .L134+12
 1163 0130 2249     		ldr	r1, .L134+16
 1164 0132 234A     		ldr	r2, .L134+20
 1165 0134 0094     		str	r4, [sp]
 1166 0136 40F26923 		movw	r3, #617
 1167 013a 2248     		ldr	r0, .L134+24
 1168 013c FFF7FEFF 		bl	chprintf.constprop.0
 1169              	.LVL110:
 1170              	.LBB77:
 1171              	.LBB78:
 1172              		.loc 3 414 0 discriminator 1
 1173 0140 1F48     		ldr	r0, .L134+20
 1174 0142 FFF7FEFF 		bl	chSysHalt
 1175              	.LVL111:
 1176              	.LBE78:
 1177              	.LBE77:
 1178              		.loc 2 618 0 discriminator 1
 1179 0146 0094     		str	r4, [sp]
 1180 0148 1C49     		ldr	r1, .L134+16
 1181 014a 1F4A     		ldr	r2, .L134+28
 1182 014c 1D48     		ldr	r0, .L134+24
 1183 014e 40F26B23 		movw	r3, #619
 1184 0152 FFF7FEFF 		bl	chprintf.constprop.0
 1185              	.LVL112:
 1186              	.LBB79:
 1187              	.LBB80:
 1188              		.loc 3 414 0 discriminator 1
 1189 0156 1C48     		ldr	r0, .L134+28
 1190 0158 FFF7FEFF 		bl	chSysHalt
 1191              	.LVL113:
 1192 015c B7E7     		b	.L99
 1193              	.LVL114:
 1194              	.L131:
 1195              	.LBE80:
ARM GAS  C:\Users\jo\AppData\Local\Temp\cceq62By.s 			page 22


 1196              	.LBE79:
 1197              		.loc 2 614 0 discriminator 1
 1198 015e 164B     		ldr	r3, .L134+12
 1199 0160 0093     		str	r3, [sp]
 1200 0162 1649     		ldr	r1, .L134+16
 1201 0164 194A     		ldr	r2, .L134+32
 1202 0166 1748     		ldr	r0, .L134+24
 1203 0168 40F26723 		movw	r3, #615
 1204 016c FFF7FEFF 		bl	chprintf.constprop.0
 1205              	.LVL115:
 1206              	.LBB81:
 1207              	.LBB82:
 1208              		.loc 3 414 0 discriminator 1
 1209 0170 1648     		ldr	r0, .L134+32
 1210 0172 FFF7FEFF 		bl	chSysHalt
 1211              	.LVL116:
 1212 0176 A8E7     		b	.L98
 1213              	.LVL117:
 1214              	.L122:
 1215              	.LBE82:
 1216              	.LBE81:
 1217              	.LBB83:
 1218              		.loc 2 595 0
 1219 0178 9EF80430 		ldrb	r3, [lr, #4]	@ zero_extendqisi2
 1220 017c 0D4C     		ldr	r4, .L134+8
 1221 017e 73B1     		cbz	r3, .L95
 1222 0180 2268     		ldr	r2, [r4]
 1223 0182 9645     		cmp	lr, r2
 1224 0184 0ED0     		beq	.L96
 1225 0186 DCF80010 		ldr	r1, [ip]
 1226 018a 01E0     		b	.L97
 1227              	.L133:
 1228              		.loc 2 595 0 is_stmt 0 discriminator 1
 1229 018c 9645     		cmp	lr, r2
 1230 018e 09D0     		beq	.L96
 1231              	.L97:
 1232              		.loc 2 607 0 is_stmt 1
 1233 0190 BEF800E0 		ldrh	lr, [lr]
 1234              	.LVL118:
 1235 0194 8E44     		add	lr, lr, r1
 1236              	.LVL119:
 1237              		.loc 2 595 0
 1238 0196 9EF80430 		ldrb	r3, [lr, #4]	@ zero_extendqisi2
 1239 019a 002B     		cmp	r3, #0
 1240 019c F6D1     		bne	.L133
 1241              	.L95:
 1242              		.loc 2 609 0
 1243 019e C8F800E0 		str	lr, [r8]
 1244 01a2 8BE7     		b	.L101
 1245              	.L96:
 1246 01a4 C8F80020 		str	r2, [r8]
 1247 01a8 88E7     		b	.L101
 1248              	.L135:
 1249 01aa 00BF     		.align	2
 1250              	.L134:
 1251 01ac 00000000 		.word	.LANCHOR4
 1252 01b0 00000000 		.word	lwip_stats
ARM GAS  C:\Users\jo\AppData\Local\Temp\cceq62By.s 			page 23


 1253 01b4 00000000 		.word	.LANCHOR2
 1254 01b8 44000000 		.word	.LC2
 1255 01bc 00000000 		.word	.LC0
 1256 01c0 A4010000 		.word	.LC13
 1257 01c4 00000000 		.word	itm_port
 1258 01c8 D4010000 		.word	.LC14
 1259 01cc 74010000 		.word	.LC12
 1260 01d0 00000000 		.word	.LANCHOR3
 1261 01d4 00000000 		.word	.LANCHOR1
 1262              	.LBE83:
 1263              		.cfi_endproc
 1264              	.LFE260:
 1265              		.size	mem_malloc, .-mem_malloc
 1266 01d8 AFF30080 		.section	.text.mem_calloc,"ax",%progbits
 1266      AFF30080 
 1267              		.align	2
 1268              		.p2align 4,,15
 1269              		.global	mem_calloc
 1270              		.thumb
 1271              		.thumb_func
 1272              		.type	mem_calloc, %function
 1273              	mem_calloc:
 1274              	.LFB261:
 1275              		.loc 2 647 0
 1276              		.cfi_startproc
 1277              		@ args = 0, pretend = 0, frame = 0
 1278              		@ frame_needed = 0, uses_anonymous_args = 0
 1279              	.LVL120:
 1280 0000 70B5     		push	{r4, r5, r6, lr}
 1281              		.cfi_def_cfa_offset 16
 1282              		.cfi_offset 4, -16
 1283              		.cfi_offset 5, -12
 1284              		.cfi_offset 6, -8
 1285              		.cfi_offset 14, -4
 1286              		.loc 2 647 0
 1287 0002 0446     		mov	r4, r0
 1288              		.loc 2 651 0
 1289 0004 10FB01F0 		smulbb	r0, r0, r1
 1290              	.LVL121:
 1291 0008 80B2     		uxth	r0, r0
 1292              		.loc 2 647 0
 1293 000a 0D46     		mov	r5, r1
 1294              		.loc 2 651 0
 1295 000c FFF7FEFF 		bl	mem_malloc
 1296              	.LVL122:
 1297              		.loc 2 652 0
 1298 0010 0646     		mov	r6, r0
 1299 0012 20B1     		cbz	r0, .L137
 1300              		.loc 2 654 0
 1301 0014 05FB04F2 		mul	r2, r5, r4
 1302 0018 0021     		movs	r1, #0
 1303 001a FFF7FEFF 		bl	memset
 1304              	.LVL123:
 1305              	.L137:
 1306              		.loc 2 657 0
 1307 001e 3046     		mov	r0, r6
 1308 0020 70BD     		pop	{r4, r5, r6, pc}
ARM GAS  C:\Users\jo\AppData\Local\Temp\cceq62By.s 			page 24


 1309              		.cfi_endproc
 1310              	.LFE261:
 1311              		.size	mem_calloc, .-mem_calloc
 1312              		.global	ram_heap
 1313 0022 00BFAFF3 		.section	.bss.ram_heap,"aw",%nobits
 1313      0080AFF3 
 1313      0080AFF3 
 1313      0080
 1314              		.align	2
 1315              		.set	.LANCHOR0,. + 0
 1316              		.type	ram_heap, %object
 1317              		.size	ram_heap, 5620
 1318              	ram_heap:
 1319 0000 00000000 		.space	5620
 1319      00000000 
 1319      00000000 
 1319      00000000 
 1319      00000000 
 1320              		.section	.bss.lfree,"aw",%nobits
 1321              		.align	2
 1322              		.set	.LANCHOR3,. + 0
 1323              		.type	lfree, %object
 1324              		.size	lfree, 4
 1325              	lfree:
 1326 0000 00000000 		.space	4
 1327              		.section	.bss.ram_end,"aw",%nobits
 1328              		.align	2
 1329              		.set	.LANCHOR2,. + 0
 1330              		.type	ram_end, %object
 1331              		.size	ram_end, 4
 1332              	ram_end:
 1333 0000 00000000 		.space	4
 1334              		.section	.bss.mem_mutex,"aw",%nobits
 1335              		.align	2
 1336              		.set	.LANCHOR4,. + 0
 1337              		.type	mem_mutex, %object
 1338              		.size	mem_mutex, 4
 1339              	mem_mutex:
 1340 0000 00000000 		.space	4
 1341              		.section	.rodata.str1.4,"aMS",%progbits,1
 1342              		.align	2
 1343              	.LC0:
 1344 0000 41737365 		.ascii	"Assertion \"%s\" failed at line %d in %s\012\000"
 1344      7274696F 
 1344      6E202225 
 1344      73222066 
 1344      61696C65 
 1345              	.LC1:
 1346 0028 6661696C 		.ascii	"failed to create mem_mutex\000"
 1346      65642074 
 1346      6F206372 
 1346      65617465 
 1346      206D656D 
 1347 0043 00       		.space	1
 1348              	.LC2:
 1349 0044 2E2E2F2E 		.ascii	"../../../os/ext/lwip-1.4.1/src/core/mem.c\000"
 1349      2E2F2E2E 
ARM GAS  C:\Users\jo\AppData\Local\Temp\cceq62By.s 			page 25


 1349      2F6F732F 
 1349      6578742F 
 1349      6C776970 
 1350 006e 0000     		.space	2
 1351              	.LC3:
 1352 0070 6D656D5F 		.ascii	"mem_free: sanity check alignment\000"
 1352      66726565 
 1352      3A207361 
 1352      6E697479 
 1352      20636865 
 1353 0091 000000   		.space	3
 1354              	.LC4:
 1355 0094 6D656D5F 		.ascii	"mem_free: legal memory\000"
 1355      66726565 
 1355      3A206C65 
 1355      67616C20 
 1355      6D656D6F 
 1356 00ab 00       		.space	1
 1357              	.LC5:
 1358 00ac 6D656D5F 		.ascii	"mem_free: mem->used\000"
 1358      66726565 
 1358      3A206D65 
 1358      6D2D3E75 
 1358      73656400 
 1359              	.LC6:
 1360 00c0 706C7567 		.ascii	"plug_holes: mem >= ram\000"
 1360      5F686F6C 
 1360      65733A20 
 1360      6D656D20 
 1360      3E3D2072 
 1361 00d7 00       		.space	1
 1362              	.LC7:
 1363 00d8 706C7567 		.ascii	"plug_holes: mem < ram_end\000"
 1363      5F686F6C 
 1363      65733A20 
 1363      6D656D20 
 1363      3C207261 
 1364 00f2 0000     		.space	2
 1365              	.LC8:
 1366 00f4 706C7567 		.ascii	"plug_holes: mem->used == 0\000"
 1366      5F686F6C 
 1366      65733A20 
 1366      6D656D2D 
 1366      3E757365 
 1367 010f 00       		.space	1
 1368              	.LC9:
 1369 0110 706C7567 		.ascii	"plug_holes: mem->next <= MEM_SIZE_ALIGNED\000"
 1369      5F686F6C 
 1369      65733A20 
 1369      6D656D2D 
 1369      3E6E6578 
 1370 013a 0000     		.space	2
 1371              	.LC10:
 1372 013c 6D656D5F 		.ascii	"mem_trim: legal memory\000"
 1372      7472696D 
 1372      3A206C65 
 1372      67616C20 
ARM GAS  C:\Users\jo\AppData\Local\Temp\cceq62By.s 			page 26


 1372      6D656D6F 
 1373 0153 00       		.space	1
 1374              	.LC11:
 1375 0154 6D656D5F 		.ascii	"mem_trim can only shrink memory\000"
 1375      7472696D 
 1375      2063616E 
 1375      206F6E6C 
 1375      79207368 
 1376              	.LC12:
 1377 0174 6D656D5F 		.ascii	"mem_malloc: allocated memory not above ram_end.\000"
 1377      6D616C6C 
 1377      6F633A20 
 1377      616C6C6F 
 1377      63617465 
 1378              	.LC13:
 1379 01a4 6D656D5F 		.ascii	"mem_malloc: allocated memory properly aligned.\000"
 1379      6D616C6C 
 1379      6F633A20 
 1379      616C6C6F 
 1379      63617465 
 1380 01d3 00       		.space	1
 1381              	.LC14:
 1382 01d4 6D656D5F 		.ascii	"mem_malloc: sanity check alignment\000"
 1382      6D616C6C 
 1382      6F633A20 
 1382      73616E69 
 1382      74792063 
 1383 01f7 00       		.section	.bss.ram,"aw",%nobits
 1384              		.align	2
 1385              		.set	.LANCHOR1,. + 0
 1386              		.type	ram, %object
 1387              		.size	ram, 4
 1388              	ram:
 1389 0000 00000000 		.space	4
 1390              		.text
 1391              	.Letext0:
 1392              		.file 4 "c:\\program files\\gnu tools arm embedded\\4.9 2014q4\\lib\\gcc\\arm-none-eabi\\4.9.3\\in
 1393              		.file 5 "c:\\program files\\gnu tools arm embedded\\4.9 2014q4\\arm-none-eabi\\include\\machine\\_
 1394              		.file 6 "c:\\program files\\gnu tools arm embedded\\4.9 2014q4\\arm-none-eabi\\include\\stdint.h"
 1395              		.file 7 "../../../os/rt/ports/ARMCMx/compilers/GCC/chtypes.h"
 1396              		.file 8 "../../../os/rt/include/chsystypes.h"
 1397              		.file 9 "../../../os/rt/include/chschd.h"
 1398              		.file 10 "../../../os/rt/ports/ARMCMx/chcore.h"
 1399              		.file 11 "../../../os/rt/ports/ARMCMx/chcore_v7m.h"
 1400              		.file 12 "c:\\program files\\gnu tools arm embedded\\4.9 2014q4\\lib\\gcc\\arm-none-eabi\\4.9.3\\i
 1401              		.file 13 "<built-in>"
 1402              		.file 14 "../../../os/rt/include/chtm.h"
 1403              		.file 15 "../../../os/rt/include/chmtx.h"
 1404              		.file 16 "../../../os/rt/include/chsem.h"
 1405              		.file 17 "../../../os/rt/include/chstreams.h"
 1406              		.file 18 "./ITM_trace.h"
 1407              		.file 19 "../../../os/various/lwip_bindings/arch/cc.h"
 1408              		.file 20 "../../../os/ext/lwip-1.4.1/src/include/lwip/mem.h"
 1409              		.file 21 "../../../os/ext/lwip-1.4.1/src/include/lwip/err.h"
 1410              		.file 22 "../../../os/various/lwip_bindings/arch/sys_arch.h"
 1411              		.file 23 "../../../os/ext/lwip-1.4.1/src/include/lwip/stats.h"
 1412              		.file 24 "../../../os/ext/CMSIS/include/core_cm4.h"
ARM GAS  C:\Users\jo\AppData\Local\Temp\cceq62By.s 			page 27


 1413              		.file 25 "../../../os/ext/lwip-1.4.1/src/include/lwip/sys.h"
 1414              		.file 26 "../../../os/rt/include/chsys.h"
 1415              		.file 27 "../../../os/ext/lwip-1.4.1/src/include/lwip/memp.h"