ARM GAS  C:\Users\jo\AppData\Local\Temp\ccT06EVW.s 			page 1


   1              		.syntax unified
   2              		.cpu cortex-m4
   3              		.eabi_attribute 27, 3
   4              		.eabi_attribute 28, 1
   5              		.fpu fpv4-sp-d16
   6              		.eabi_attribute 20, 1
   7              		.eabi_attribute 21, 1
   8              		.eabi_attribute 23, 3
   9              		.eabi_attribute 24, 1
  10              		.eabi_attribute 25, 1
  11              		.eabi_attribute 26, 1
  12              		.eabi_attribute 30, 2
  13              		.eabi_attribute 34, 1
  14              		.eabi_attribute 18, 4
  15              		.thumb
  16              		.file	"pbuf.c"
  17              		.text
  18              	.Ltext0:
  19              		.cfi_sections	.debug_frame
  20              		.section	.text.pbuf_free_ooseq_callback,"ax",%progbits
  21              		.align	2
  22              		.p2align 4,,15
  23              		.thumb
  24              		.thumb_func
  25              		.type	pbuf_free_ooseq_callback, %function
  26              	pbuf_free_ooseq_callback:
  27              	.LFB257:
  28              		.file 1 "../../../os/ext/lwip-1.4.1/src/core/pbuf.c"
  29              		.loc 1 144 0
  30              		.cfi_startproc
  31              		@ args = 0, pretend = 0, frame = 0
  32              		@ frame_needed = 0, uses_anonymous_args = 0
  33              	.LVL0:
  34              	.LBB96:
  35              	.LBB97:
  36              		.loc 1 127 0
  37 0000 094A     		ldr	r2, .L15
  38              		.loc 1 124 0
  39 0002 0A4B     		ldr	r3, .L15+4
  40              	.LBE97:
  41              	.LBE96:
  42              		.loc 1 144 0
  43 0004 10B5     		push	{r4, lr}
  44              		.cfi_def_cfa_offset 8
  45              		.cfi_offset 4, -8
  46              		.cfi_offset 14, -4
  47              	.LBB99:
  48              	.LBB98:
  49              		.loc 1 127 0
  50 0006 1468     		ldr	r4, [r2]
  51              	.LVL1:
  52              		.loc 1 124 0
  53 0008 0022     		movs	r2, #0
  54 000a 1A70     		strb	r2, [r3]
  55              		.loc 1 127 0
  56 000c 14B9     		cbnz	r4, .L6
  57 000e 09E0     		b	.L1
ARM GAS  C:\Users\jo\AppData\Local\Temp\ccT06EVW.s 			page 2


  58              	.LVL2:
  59              	.L5:
  60 0010 E468     		ldr	r4, [r4, #12]
  61              	.LVL3:
  62 0012 3CB1     		cbz	r4, .L1
  63              	.L6:
  64              		.loc 1 128 0
  65 0014 606F     		ldr	r0, [r4, #116]
  66 0016 0028     		cmp	r0, #0
  67 0018 FAD0     		beq	.L5
  68              		.loc 1 131 0
  69 001a FFF7FEFF 		bl	tcp_segs_free
  70              	.LVL4:
  71              		.loc 1 132 0
  72 001e 0023     		movs	r3, #0
  73 0020 6367     		str	r3, [r4, #116]
  74 0022 10BD     		pop	{r4, pc}
  75              	.LVL5:
  76              	.L1:
  77 0024 10BD     		pop	{r4, pc}
  78              	.LVL6:
  79              	.L16:
  80 0026 00BF     		.align	2
  81              	.L15:
  82 0028 00000000 		.word	tcp_active_pcbs
  83 002c 00000000 		.word	.LANCHOR0
  84              	.LBE98:
  85              	.LBE99:
  86              		.cfi_endproc
  87              	.LFE257:
  88              		.size	pbuf_free_ooseq_callback, .-pbuf_free_ooseq_callback
  89              		.section	.text.pbuf_pool_is_empty.part.0,"ax",%progbits
  90              		.align	2
  91              		.p2align 4,,15
  92              		.thumb
  93              		.thumb_func
  94              		.type	pbuf_pool_is_empty.part.0, %function
  95              	pbuf_pool_is_empty.part.0:
  96              	.LFB277:
  97              		.loc 1 152 0
  98              		.cfi_startproc
  99              		@ args = 0, pretend = 0, frame = 0
 100              		@ frame_needed = 0, uses_anonymous_args = 0
 101              		.loc 1 169 0
 102 0000 0021     		movs	r1, #0
 103              		.loc 1 152 0
 104 0002 08B5     		push	{r3, lr}
 105              		.cfi_def_cfa_offset 8
 106              		.cfi_offset 3, -8
 107              		.cfi_offset 14, -4
 108              		.loc 1 169 0
 109 0004 0A46     		mov	r2, r1
 110 0006 0448     		ldr	r0, .L23
 111 0008 FFF7FEFF 		bl	tcpip_callback_with_block
 112              	.LVL7:
 113 000c 10B1     		cbz	r0, .L17
 114 000e 034B     		ldr	r3, .L23+4
ARM GAS  C:\Users\jo\AppData\Local\Temp\ccT06EVW.s 			page 3


 115 0010 0022     		movs	r2, #0
 116 0012 1A70     		strb	r2, [r3]
 117              	.L17:
 118 0014 08BD     		pop	{r3, pc}
 119              	.L24:
 120 0016 00BF     		.align	2
 121              	.L23:
 122 0018 00000000 		.word	pbuf_free_ooseq_callback
 123 001c 00000000 		.word	.LANCHOR0
 124              		.cfi_endproc
 125              	.LFE277:
 126              		.size	pbuf_pool_is_empty.part.0, .-pbuf_pool_is_empty.part.0
 127              		.section	.text.chprintf.constprop.1,"ax",%progbits
 128              		.align	2
 129              		.p2align 4,,15
 130              		.thumb
 131              		.thumb_func
 132              		.type	chprintf.constprop.1, %function
 133              	chprintf.constprop.1:
 134              	.LFB278:
 135              		.file 2 "../../../os/hal/lib/streams/chprintf.h"
 136              		.loc 2 69 0
 137              		.cfi_startproc
 138              		@ args = 4, pretend = 12, frame = 8
 139              		@ frame_needed = 0, uses_anonymous_args = 1
 140              	.LVL8:
 141 0000 0EB4     		push	{r1, r2, r3}
 142              		.cfi_def_cfa_offset 12
 143              		.cfi_offset 1, -12
 144              		.cfi_offset 2, -8
 145              		.cfi_offset 3, -4
 146 0002 00B5     		push	{lr}
 147              		.cfi_def_cfa_offset 16
 148              		.cfi_offset 14, -16
 149 0004 82B0     		sub	sp, sp, #8
 150              		.cfi_def_cfa_offset 24
 151              		.loc 2 73 0
 152 0006 04AB     		add	r3, sp, #16
 153              		.loc 2 74 0
 154 0008 1A46     		mov	r2, r3
 155 000a 0549     		ldr	r1, .L27
 156 000c 0548     		ldr	r0, .L27+4
 157              	.LVL9:
 158              		.loc 2 73 0
 159 000e 0193     		str	r3, [sp, #4]
 160              		.loc 2 74 0
 161 0010 FFF7FEFF 		bl	chvprintf
 162              	.LVL10:
 163              		.loc 2 78 0
 164 0014 02B0     		add	sp, sp, #8
 165              		.cfi_def_cfa_offset 16
 166              		@ sp needed
 167 0016 5DF804EB 		ldr	lr, [sp], #4
 168              		.cfi_restore 14
 169              		.cfi_def_cfa_offset 12
 170 001a 03B0     		add	sp, sp, #12
 171              		.cfi_restore 3
ARM GAS  C:\Users\jo\AppData\Local\Temp\ccT06EVW.s 			page 4


 172              		.cfi_restore 2
 173              		.cfi_restore 1
 174              		.cfi_def_cfa_offset 0
 175 001c 7047     		bx	lr
 176              	.L28:
 177 001e 00BF     		.align	2
 178              	.L27:
 179 0020 00000000 		.word	.LC0
 180 0024 00000000 		.word	itm_port
 181              		.cfi_endproc
 182              	.LFE278:
 183              		.size	chprintf.constprop.1, .-chprintf.constprop.1
 184 0028 AFF30080 		.section	.text.pbuf_alloced_custom,"ax",%progbits
 184      AFF30080 
 185              		.align	2
 186              		.p2align 4,,15
 187              		.global	pbuf_alloced_custom
 188              		.thumb
 189              		.thumb_func
 190              		.type	pbuf_alloced_custom, %function
 191              	pbuf_alloced_custom:
 192              	.LFB260:
 193              		.loc 1 369 0
 194              		.cfi_startproc
 195              		@ args = 8, pretend = 0, frame = 0
 196              		@ frame_needed = 0, uses_anonymous_args = 0
 197              	.LVL11:
 198 0000 70B5     		push	{r4, r5, r6, lr}
 199              		.cfi_def_cfa_offset 16
 200              		.cfi_offset 4, -16
 201              		.cfi_offset 5, -12
 202              		.cfi_offset 6, -8
 203              		.cfi_offset 14, -4
 204 0002 82B0     		sub	sp, sp, #8
 205              		.cfi_def_cfa_offset 24
 206              		.loc 1 369 0
 207 0004 069D     		ldr	r5, [sp, #24]
 208 0006 BDF81C60 		ldrh	r6, [sp, #28]
 209              		.loc 1 374 0
 210 000a 0328     		cmp	r0, #3
 211 000c 22D8     		bhi	.L30
 212 000e DFE800F0 		tbb	[pc, r0]
 213              	.L32:
 214 0012 1B       		.byte	(.L31-.L32)/2
 215 0013 18       		.byte	(.L33-.L32)/2
 216 0014 02       		.byte	(.L39-.L32)/2
 217 0015 1E       		.byte	(.L35-.L32)/2
 218              		.p2align 1
 219              	.L39:
 220 0016 1024     		movs	r4, #16
 221 0018 1120     		movs	r0, #17
 222              	.LVL12:
 223              	.L34:
 224              		.loc 1 395 0
 225 001a 0C44     		add	r4, r4, r1
 226 001c B442     		cmp	r4, r6
 227 001e 2ADC     		bgt	.L40
ARM GAS  C:\Users\jo\AppData\Local\Temp\ccT06EVW.s 			page 5


 228              		.loc 1 400 0
 229 0020 0024     		movs	r4, #0
 230 0022 1C60     		str	r4, [r3]
 231              		.loc 1 401 0
 232 0024 2DB3     		cbz	r5, .L37
 233              		.loc 1 402 0
 234 0026 20F00300 		bic	r0, r0, #3
 235 002a 2844     		add	r0, r0, r5
 236 002c 5860     		str	r0, [r3, #4]
 237              	.L38:
 238              		.loc 1 409 0
 239 002e 0120     		movs	r0, #1
 240              		.loc 1 406 0
 241 0030 0224     		movs	r4, #2
 242              		.loc 1 409 0
 243 0032 D881     		strh	r0, [r3, #14]	@ movhi
 244              		.loc 1 407 0
 245 0034 1981     		strh	r1, [r3, #8]	@ movhi
 246 0036 5981     		strh	r1, [r3, #10]	@ movhi
 247              		.loc 1 408 0
 248 0038 1A73     		strb	r2, [r3, #12]
 249              		.loc 1 406 0
 250 003a 5C73     		strb	r4, [r3, #13]
 251              		.loc 1 410 0
 252 003c 1846     		mov	r0, r3
 253              	.L36:
 254              		.loc 1 411 0
 255 003e 02B0     		add	sp, sp, #8
 256              		.cfi_remember_state
 257              		.cfi_def_cfa_offset 16
 258              		@ sp needed
 259 0040 70BD     		pop	{r4, r5, r6, pc}
 260              	.LVL13:
 261              	.L33:
 262              		.cfi_restore_state
 263              		.loc 1 374 0
 264 0042 2424     		movs	r4, #36
 265 0044 2520     		movs	r0, #37
 266              	.LVL14:
 267 0046 E8E7     		b	.L34
 268              	.LVL15:
 269              	.L31:
 270 0048 3824     		movs	r4, #56
 271 004a 3920     		movs	r0, #57
 272              	.LVL16:
 273 004c E5E7     		b	.L34
 274              	.LVL17:
 275              	.L35:
 276              		.loc 1 389 0
 277 004e 0024     		movs	r4, #0
 278 0050 0320     		movs	r0, #3
 279              	.LVL18:
 280 0052 E2E7     		b	.L34
 281              	.LVL19:
 282              	.L30:
 283              		.loc 1 391 0 discriminator 1
 284 0054 094B     		ldr	r3, .L42
ARM GAS  C:\Users\jo\AppData\Local\Temp\ccT06EVW.s 			page 6


 285              	.LVL20:
 286 0056 0093     		str	r3, [sp]
 287 0058 0949     		ldr	r1, .L42+4
 288              	.LVL21:
 289 005a 0A4A     		ldr	r2, .L42+8
 290              	.LVL22:
 291 005c 0A48     		ldr	r0, .L42+12
 292              	.LVL23:
 293 005e 40F28713 		movw	r3, #391
 294 0062 FFF7FEFF 		bl	chprintf.constprop.1
 295              	.LVL24:
 296              	.LBB100:
 297              	.LBB101:
 298              		.file 3 "../../../os/hal/osal/rt/osal.h"
 299              		.loc 3 414 0 discriminator 1
 300 0066 0748     		ldr	r0, .L42+8
 301 0068 FFF7FEFF 		bl	chSysHalt
 302              	.LVL25:
 303              	.LBE101:
 304              	.LBE100:
 305              		.loc 1 392 0 discriminator 1
 306 006c 0020     		movs	r0, #0
 307              		.loc 1 411 0 discriminator 1
 308 006e 02B0     		add	sp, sp, #8
 309              		@ sp needed
 310 0070 70BD     		pop	{r4, r5, r6, pc}
 311              	.LVL26:
 312              	.L37:
 313              		.loc 1 404 0
 314 0072 5D60     		str	r5, [r3, #4]
 315 0074 DBE7     		b	.L38
 316              	.L40:
 317              		.loc 1 397 0
 318 0076 0020     		movs	r0, #0
 319 0078 E1E7     		b	.L36
 320              	.L43:
 321 007a 00BF     		.align	2
 322              	.L42:
 323 007c 4C000000 		.word	.LC2
 324 0080 00000000 		.word	.LC0
 325 0084 28000000 		.word	.LC1
 326 0088 00000000 		.word	itm_port
 327              		.cfi_endproc
 328              	.LFE260:
 329              		.size	pbuf_alloced_custom, .-pbuf_alloced_custom
 330 008c AFF30080 		.section	.text.pbuf_header,"ax",%progbits
 331              		.align	2
 332              		.p2align 4,,15
 333              		.global	pbuf_header
 334              		.thumb
 335              		.thumb_func
 336              		.type	pbuf_header, %function
 337              	pbuf_header:
 338              	.LFB262:
 339              		.loc 1 512 0
 340              		.cfi_startproc
 341              		@ args = 0, pretend = 0, frame = 0
ARM GAS  C:\Users\jo\AppData\Local\Temp\ccT06EVW.s 			page 7


 342              		@ frame_needed = 0, uses_anonymous_args = 0
 343              	.LVL27:
 344 0000 10B5     		push	{r4, lr}
 345              		.cfi_def_cfa_offset 8
 346              		.cfi_offset 4, -8
 347              		.cfi_offset 14, -4
 348              		.loc 1 517 0
 349 0002 0446     		mov	r4, r0
 350              		.loc 1 512 0
 351 0004 82B0     		sub	sp, sp, #8
 352              		.cfi_def_cfa_offset 16
 353              		.loc 1 517 0
 354 0006 0028     		cmp	r0, #0
 355 0008 44D0     		beq	.L65
 356              		.loc 1 518 0
 357 000a 0029     		cmp	r1, #0
 358 000c 1AD0     		beq	.L64
 359              		.loc 1 522 0
 360 000e 1CDB     		blt	.L66
 361              		.loc 1 527 0
 362 0010 8AB2     		uxth	r2, r1
 363              	.LVL28:
 364              	.L48:
 365              		.loc 1 540 0
 366 0012 237B     		ldrb	r3, [r4, #12]	@ zero_extendqisi2
 367              	.LVL29:
 368              		.loc 1 542 0
 369 0014 6068     		ldr	r0, [r4, #4]
 370              	.LVL30:
 371              		.loc 1 545 0
 372 0016 43B1     		cbz	r3, .L49
 373              		.loc 1 545 0 is_stmt 0 discriminator 1
 374 0018 032B     		cmp	r3, #3
 375 001a 06D0     		beq	.L49
 376              		.loc 1 559 0 is_stmt 1
 377 001c 013B     		subs	r3, r3, #1
 378              	.LVL31:
 379 001e 012B     		cmp	r3, #1
 380 0020 2AD8     		bhi	.L52
 381              		.loc 1 561 0
 382 0022 0029     		cmp	r1, #0
 383 0024 44DB     		blt	.L67
 384              	.LVL32:
 385              	.L56:
 386              		.loc 1 567 0
 387 0026 0120     		movs	r0, #1
 388              	.LVL33:
 389 0028 0DE0     		b	.L61
 390              	.LVL34:
 391              	.L49:
 392              		.loc 1 547 0
 393 002a 431A     		subs	r3, r0, r1
 394              	.LVL35:
 395              		.loc 1 549 0
 396 002c 04F11002 		add	r2, r4, #16
 397              	.LVL36:
 398 0030 9342     		cmp	r3, r2
ARM GAS  C:\Users\jo\AppData\Local\Temp\ccT06EVW.s 			page 8


 399              		.loc 1 547 0
 400 0032 6360     		str	r3, [r4, #4]
 401              		.loc 1 549 0
 402 0034 1CD3     		bcc	.L68
 403 0036 6389     		ldrh	r3, [r4, #10]
 404              	.LVL37:
 405              	.L53:
 406              		.loc 1 576 0
 407 0038 2289     		ldrh	r2, [r4, #8]
 408              		.loc 1 575 0
 409 003a 89B2     		uxth	r1, r1
 410 003c 0B44     		add	r3, r3, r1
 411              		.loc 1 576 0
 412 003e 1144     		add	r1, r1, r2
 413              	.LVL38:
 414              		.loc 1 575 0
 415 0040 6381     		strh	r3, [r4, #10]	@ movhi
 416              		.loc 1 576 0
 417 0042 2181     		strh	r1, [r4, #8]	@ movhi
 418              	.LVL39:
 419              	.L64:
 420              		.loc 1 581 0
 421 0044 0020     		movs	r0, #0
 422              	.L61:
 423              		.loc 1 582 0
 424 0046 02B0     		add	sp, sp, #8
 425              		.cfi_remember_state
 426              		.cfi_def_cfa_offset 8
 427              		@ sp needed
 428 0048 10BD     		pop	{r4, pc}
 429              	.LVL40:
 430              	.L66:
 431              		.cfi_restore_state
 432              		.loc 1 523 0
 433 004a 4A42     		negs	r2, r1
 434              		.loc 1 525 0
 435 004c 6389     		ldrh	r3, [r4, #10]
 436              		.loc 1 523 0
 437 004e 92B2     		uxth	r2, r2
 438              	.LVL41:
 439              		.loc 1 525 0
 440 0050 9342     		cmp	r3, r2
 441 0052 DED2     		bcs	.L48
 442              		.loc 1 525 0 is_stmt 0 discriminator 1
 443 0054 194B     		ldr	r3, .L69
 444 0056 0093     		str	r3, [sp]
 445 0058 1949     		ldr	r1, .L69+4
 446              	.LVL42:
 447 005a 1A4A     		ldr	r2, .L69+8
 448              	.LVL43:
 449 005c 1A48     		ldr	r0, .L69+12
 450              	.LVL44:
 451 005e 40F20D23 		movw	r3, #525
 452 0062 FFF7FEFF 		bl	chprintf.constprop.1
 453              	.LVL45:
 454              	.LBB102:
 455              	.LBB103:
ARM GAS  C:\Users\jo\AppData\Local\Temp\ccT06EVW.s 			page 9


 456              		.loc 3 414 0 is_stmt 1 discriminator 1
 457 0066 1748     		ldr	r0, .L69+8
 458 0068 FFF7FEFF 		bl	chSysHalt
 459              	.LVL46:
 460              	.LBE103:
 461              	.LBE102:
 462              		.loc 1 525 0 discriminator 1
 463 006c 0120     		movs	r0, #1
 464 006e EAE7     		b	.L61
 465              	.LVL47:
 466              	.L68:
 467              		.loc 1 554 0
 468 0070 6060     		str	r0, [r4, #4]
 469              		.loc 1 556 0
 470 0072 0120     		movs	r0, #1
 471              	.LVL48:
 472              		.loc 1 582 0
 473 0074 02B0     		add	sp, sp, #8
 474              		.cfi_remember_state
 475              		.cfi_def_cfa_offset 8
 476              		@ sp needed
 477 0076 10BD     		pop	{r4, pc}
 478              	.LVL49:
 479              	.L52:
 480              		.cfi_restore_state
 481              		.loc 1 571 0 discriminator 1
 482 0078 104B     		ldr	r3, .L69
 483              	.LVL50:
 484 007a 0093     		str	r3, [sp]
 485              	.LVL51:
 486 007c 1049     		ldr	r1, .L69+4
 487              	.LVL52:
 488 007e 134A     		ldr	r2, .L69+16
 489              	.LVL53:
 490 0080 1148     		ldr	r0, .L69+12
 491              	.LVL54:
 492 0082 40F23B23 		movw	r3, #571
 493 0086 FFF7FEFF 		bl	chprintf.constprop.1
 494              	.LVL55:
 495              	.LBB104:
 496              	.LBB105:
 497              		.loc 3 414 0 discriminator 1
 498 008a 1048     		ldr	r0, .L69+16
 499 008c FFF7FEFF 		bl	chSysHalt
 500              	.LVL56:
 501              	.LBE105:
 502              	.LBE104:
 503              		.loc 1 572 0 discriminator 1
 504 0090 0120     		movs	r0, #1
 505 0092 D8E7     		b	.L61
 506              	.LVL57:
 507              	.L65:
 508              		.loc 1 517 0 discriminator 1
 509 0094 094B     		ldr	r3, .L69
 510 0096 0093     		str	r3, [sp]
 511 0098 0949     		ldr	r1, .L69+4
 512              	.LVL58:
ARM GAS  C:\Users\jo\AppData\Local\Temp\ccT06EVW.s 			page 10


 513 009a 0D4A     		ldr	r2, .L69+20
 514 009c 0A48     		ldr	r0, .L69+12
 515              	.LVL59:
 516 009e 40F20523 		movw	r3, #517
 517 00a2 FFF7FEFF 		bl	chprintf.constprop.1
 518              	.LVL60:
 519              	.LBB106:
 520              	.LBB107:
 521              		.loc 3 414 0 discriminator 1
 522 00a6 0A48     		ldr	r0, .L69+20
 523 00a8 FFF7FEFF 		bl	chSysHalt
 524              	.LVL61:
 525              	.LBE107:
 526              	.LBE106:
 527              		.loc 1 519 0 discriminator 1
 528 00ac 2046     		mov	r0, r4
 529 00ae CAE7     		b	.L61
 530              	.LVL62:
 531              	.L67:
 532              		.loc 1 561 0 discriminator 1
 533 00b0 6389     		ldrh	r3, [r4, #10]
 534              	.LVL63:
 535 00b2 9A42     		cmp	r2, r3
 536 00b4 B7D8     		bhi	.L56
 537              		.loc 1 563 0
 538 00b6 401A     		subs	r0, r0, r1
 539              	.LVL64:
 540 00b8 6060     		str	r0, [r4, #4]
 541              	.LVL65:
 542 00ba BDE7     		b	.L53
 543              	.L70:
 544              		.align	2
 545              	.L69:
 546 00bc 4C000000 		.word	.LC2
 547 00c0 00000000 		.word	.LC0
 548 00c4 84000000 		.word	.LC4
 549 00c8 00000000 		.word	itm_port
 550 00cc A4000000 		.word	.LC5
 551 00d0 78000000 		.word	.LC3
 552              		.cfi_endproc
 553              	.LFE262:
 554              		.size	pbuf_header, .-pbuf_header
 555 00d4 AFF30080 		.section	.text.pbuf_free,"ax",%progbits
 555      AFF30080 
 555      AFF30080 
 556              		.align	2
 557              		.p2align 4,,15
 558              		.global	pbuf_free
 559              		.thumb
 560              		.thumb_func
 561              		.type	pbuf_free, %function
 562              	pbuf_free:
 563              	.LFB263:
 564              		.loc 1 619 0
 565              		.cfi_startproc
 566              		@ args = 0, pretend = 0, frame = 0
 567              		@ frame_needed = 0, uses_anonymous_args = 0
ARM GAS  C:\Users\jo\AppData\Local\Temp\ccT06EVW.s 			page 11


 568              	.LVL66:
 569 0000 F0B5     		push	{r4, r5, r6, r7, lr}
 570              		.cfi_def_cfa_offset 20
 571              		.cfi_offset 4, -20
 572              		.cfi_offset 5, -16
 573              		.cfi_offset 6, -12
 574              		.cfi_offset 7, -8
 575              		.cfi_offset 14, -4
 576              		.loc 1 624 0
 577 0002 0446     		mov	r4, r0
 578              		.loc 1 619 0
 579 0004 83B0     		sub	sp, sp, #12
 580              		.cfi_def_cfa_offset 32
 581              		.loc 1 624 0
 582 0006 0028     		cmp	r0, #0
 583 0008 5AD0     		beq	.L87
 584              		.loc 1 635 0
 585 000a 037B     		ldrb	r3, [r0, #12]	@ zero_extendqisi2
 586 000c 032B     		cmp	r3, #3
 587 000e 4AD8     		bhi	.L88
 588              	.LVL67:
 589              	.L74:
 590              		.loc 1 642 0
 591 0010 0025     		movs	r5, #0
 592              	.LBB108:
 593              		.loc 1 650 0
 594 0012 324E     		ldr	r6, .L94
 595 0014 08E0     		b	.L81
 596              	.LVL68:
 597              	.L91:
 598              	.LBB109:
 599              		.loc 1 664 0
 600 0016 2369     		ldr	r3, [r4, #16]
 601              	.LVL69:
 602 0018 002B     		cmp	r3, #0
 603 001a 37D0     		beq	.L89
 604              	.LVL70:
 605              	.L77:
 606              		.loc 1 665 0
 607 001c 2046     		mov	r0, r4
 608 001e 9847     		blx	r3
 609              	.LVL71:
 610              	.L78:
 611              	.LBE109:
 612              		.loc 1 680 0
 613 0020 0135     		adds	r5, r5, #1
 614              	.LVL72:
 615 0022 EDB2     		uxtb	r5, r5
 616              	.LVL73:
 617              	.LBE108:
 618              		.loc 1 642 0
 619 0024 C7B1     		cbz	r7, .L83
 620              	.L84:
 621 0026 3C46     		mov	r4, r7
 622              	.LVL74:
 623              	.L81:
 624              	.LBB115:
ARM GAS  C:\Users\jo\AppData\Local\Temp\ccT06EVW.s 			page 12


 625              		.loc 1 650 0
 626 0028 E389     		ldrh	r3, [r4, #14]
 627 002a C3B1     		cbz	r3, .L90
 628              	.L75:
 629              		.loc 1 652 0
 630 002c 013B     		subs	r3, r3, #1
 631 002e 9BB2     		uxth	r3, r3
 632 0030 E381     		strh	r3, [r4, #14]	@ movhi
 633              	.LVL75:
 634              		.loc 1 655 0
 635 0032 8BB9     		cbnz	r3, .L83
 636              		.loc 1 662 0
 637 0034 627B     		ldrb	r2, [r4, #13]	@ zero_extendqisi2
 638              		.loc 1 657 0
 639 0036 2768     		ldr	r7, [r4]
 640              	.LVL76:
 641              		.loc 1 659 0
 642 0038 237B     		ldrb	r3, [r4, #12]	@ zero_extendqisi2
 643              	.LVL77:
 644              		.loc 1 662 0
 645 003a 9207     		lsls	r2, r2, #30
 646 003c EBD4     		bmi	.L91
 647              		.loc 1 659 0
 648 003e 9BB2     		uxth	r3, r3
 649              	.LVL78:
 650              		.loc 1 670 0
 651 0040 032B     		cmp	r3, #3
 652 0042 1ED0     		beq	.L92
 653              		.loc 1 673 0
 654 0044 013B     		subs	r3, r3, #1
 655 0046 012B     		cmp	r3, #1
 656 0048 16D9     		bls	.L93
 657              		.loc 1 677 0
 658 004a 2046     		mov	r0, r4
 659              		.loc 1 680 0
 660 004c 0135     		adds	r5, r5, #1
 661              	.LVL79:
 662              		.loc 1 677 0
 663 004e FFF7FEFF 		bl	mem_free
 664              	.LVL80:
 665              		.loc 1 680 0
 666 0052 EDB2     		uxtb	r5, r5
 667              	.LVL81:
 668              	.LBE115:
 669              		.loc 1 642 0
 670 0054 002F     		cmp	r7, #0
 671 0056 E6D1     		bne	.L84
 672              	.LVL82:
 673              	.L83:
 674              		.loc 1 693 0
 675 0058 2846     		mov	r0, r5
 676              	.LVL83:
 677              	.L85:
 678              		.loc 1 694 0
 679 005a 03B0     		add	sp, sp, #12
 680              		.cfi_remember_state
 681              		.cfi_def_cfa_offset 20
ARM GAS  C:\Users\jo\AppData\Local\Temp\ccT06EVW.s 			page 13


 682              		@ sp needed
 683 005c F0BD     		pop	{r4, r5, r6, r7, pc}
 684              	.LVL84:
 685              	.L90:
 686              		.cfi_restore_state
 687              	.LBB116:
 688              		.loc 1 650 0 discriminator 1
 689 005e 40F28A23 		movw	r3, #650
 690 0062 1F49     		ldr	r1, .L94+4
 691 0064 1F4A     		ldr	r2, .L94+8
 692 0066 0096     		str	r6, [sp]
 693 0068 1F48     		ldr	r0, .L94+12
 694 006a FFF7FEFF 		bl	chprintf.constprop.1
 695              	.LVL85:
 696              	.LBB112:
 697              	.LBB113:
 698              		.loc 3 414 0 discriminator 1
 699 006e 1D48     		ldr	r0, .L94+8
 700 0070 FFF7FEFF 		bl	chSysHalt
 701              	.LVL86:
 702 0074 E389     		ldrh	r3, [r4, #14]
 703 0076 D9E7     		b	.L75
 704              	.LVL87:
 705              	.L93:
 706              	.LBE113:
 707              	.LBE112:
 708              		.loc 1 674 0
 709 0078 2146     		mov	r1, r4
 710 007a 0C20     		movs	r0, #12
 711 007c FFF7FEFF 		bl	memp_free
 712              	.LVL88:
 713 0080 CEE7     		b	.L78
 714              	.LVL89:
 715              	.L92:
 716              		.loc 1 671 0
 717 0082 2146     		mov	r1, r4
 718 0084 0D20     		movs	r0, #13
 719 0086 FFF7FEFF 		bl	memp_free
 720              	.LVL90:
 721 008a C9E7     		b	.L78
 722              	.LVL91:
 723              	.L89:
 724              	.LBB114:
 725              		.loc 1 664 0 discriminator 1
 726 008c 4FF42673 		mov	r3, #664
 727 0090 1349     		ldr	r1, .L94+4
 728 0092 164A     		ldr	r2, .L94+16
 729 0094 0096     		str	r6, [sp]
 730              	.LVL92:
 731 0096 1448     		ldr	r0, .L94+12
 732 0098 FFF7FEFF 		bl	chprintf.constprop.1
 733              	.LVL93:
 734              	.LBB110:
 735              	.LBB111:
 736              		.loc 3 414 0 discriminator 1
 737 009c 1348     		ldr	r0, .L94+16
 738 009e FFF7FEFF 		bl	chSysHalt
ARM GAS  C:\Users\jo\AppData\Local\Temp\ccT06EVW.s 			page 14


 739              	.LVL94:
 740 00a2 2369     		ldr	r3, [r4, #16]
 741 00a4 BAE7     		b	.L77
 742              	.LVL95:
 743              	.L88:
 744              	.LBE111:
 745              	.LBE110:
 746              	.LBE114:
 747              	.LBE116:
 748              		.loc 1 635 0 discriminator 1
 749 00a6 0D4B     		ldr	r3, .L94
 750 00a8 0093     		str	r3, [sp]
 751 00aa 0D49     		ldr	r1, .L94+4
 752 00ac 104A     		ldr	r2, .L94+20
 753 00ae 0E48     		ldr	r0, .L94+12
 754              	.LVL96:
 755 00b0 40F27D23 		movw	r3, #637
 756 00b4 FFF7FEFF 		bl	chprintf.constprop.1
 757              	.LVL97:
 758              	.LBB117:
 759              	.LBB118:
 760              		.loc 3 414 0 discriminator 1
 761 00b8 0D48     		ldr	r0, .L94+20
 762 00ba FFF7FEFF 		bl	chSysHalt
 763              	.LVL98:
 764 00be A7E7     		b	.L74
 765              	.LVL99:
 766              	.L87:
 767              	.LBE118:
 768              	.LBE117:
 769              		.loc 1 625 0 discriminator 1
 770 00c0 064B     		ldr	r3, .L94
 771 00c2 0093     		str	r3, [sp]
 772 00c4 0649     		ldr	r1, .L94+4
 773 00c6 0B4A     		ldr	r2, .L94+24
 774 00c8 0748     		ldr	r0, .L94+12
 775              	.LVL100:
 776 00ca 40F27123 		movw	r3, #625
 777 00ce FFF7FEFF 		bl	chprintf.constprop.1
 778              	.LVL101:
 779              	.LBB119:
 780              	.LBB120:
 781              		.loc 3 414 0 discriminator 1
 782 00d2 0848     		ldr	r0, .L94+24
 783 00d4 FFF7FEFF 		bl	chSysHalt
 784              	.LVL102:
 785              	.LBE120:
 786              	.LBE119:
 787              		.loc 1 629 0 discriminator 1
 788 00d8 2046     		mov	r0, r4
 789 00da BEE7     		b	.L85
 790              	.L95:
 791              		.align	2
 792              	.L94:
 793 00dc 4C000000 		.word	.LC2
 794 00e0 00000000 		.word	.LC0
 795 00e4 CC000000 		.word	.LC7
ARM GAS  C:\Users\jo\AppData\Local\Temp\ccT06EVW.s 			page 15


 796 00e8 00000000 		.word	itm_port
 797 00ec E4000000 		.word	.LC8
 798 00f0 B4000000 		.word	.LC6
 799 00f4 78000000 		.word	.LC3
 800              		.cfi_endproc
 801              	.LFE263:
 802              		.size	pbuf_free, .-pbuf_free
 803 00f8 AFF30080 		.section	.text.pbuf_alloc,"ax",%progbits
 803      AFF30080 
 804              		.align	2
 805              		.p2align 4,,15
 806              		.global	pbuf_alloc
 807              		.thumb
 808              		.thumb_func
 809              		.type	pbuf_alloc, %function
 810              	pbuf_alloc:
 811              	.LFB259:
 812              		.loc 1 208 0
 813              		.cfi_startproc
 814              		@ args = 0, pretend = 0, frame = 8
 815              		@ frame_needed = 0, uses_anonymous_args = 0
 816              	.LVL103:
 817 0000 2DE9F043 		push	{r4, r5, r6, r7, r8, r9, lr}
 818              		.cfi_def_cfa_offset 28
 819              		.cfi_offset 4, -28
 820              		.cfi_offset 5, -24
 821              		.cfi_offset 6, -20
 822              		.cfi_offset 7, -16
 823              		.cfi_offset 8, -12
 824              		.cfi_offset 9, -8
 825              		.cfi_offset 14, -4
 826 0004 0F46     		mov	r7, r1
 827 0006 85B0     		sub	sp, sp, #20
 828              		.cfi_def_cfa_offset 48
 829              		.loc 1 215 0
 830 0008 0328     		cmp	r0, #3
 831 000a 00F2B580 		bhi	.L97
 832 000e DFE800F0 		tbb	[pc, r0]
 833              	.L99:
 834 0012 9F       		.byte	(.L98-.L99)/2
 835 0013 9D       		.byte	(.L100-.L99)/2
 836 0014 02       		.byte	(.L120-.L99)/2
 837 0015 A1       		.byte	(.L102-.L99)/2
 838              		.p2align 1
 839              	.L120:
 840              		.loc 1 226 0
 841 0016 0E24     		movs	r4, #14
 842              	.L101:
 843              	.LVL104:
 844              		.loc 1 236 0
 845 0018 032A     		cmp	r2, #3
 846 001a 00F29D80 		bhi	.L104
 847 001e DFE802F0 		tbb	[pc, r2]
 848              	.L106:
 849 0022 75       		.byte	(.L105-.L106)/2
 850 0023 66       		.byte	(.L107-.L106)/2
 851 0024 66       		.byte	(.L107-.L106)/2
ARM GAS  C:\Users\jo\AppData\Local\Temp\ccT06EVW.s 			page 16


 852 0025 02       		.byte	(.L108-.L106)/2
 853              		.p2align 1
 854              	.L108:
 855              		.loc 1 239 0
 856 0026 0D20     		movs	r0, #13
 857              	.LVL105:
 858 0028 FFF7FEFF 		bl	memp_malloc
 859              	.LVL106:
 860              		.loc 1 241 0
 861 002c 0546     		mov	r5, r0
 862 002e 0028     		cmp	r0, #0
 863 0030 00F0D980 		beq	.L133
 864              		.loc 1 255 0
 865 0034 E61C     		adds	r6, r4, #3
 866 0036 26F00306 		bic	r6, r6, #3
 867 003a C6F5BD66 		rsb	r6, r6, #1512
 868 003e 0436     		adds	r6, r6, #4
 869              		.loc 1 249 0
 870 0040 0444     		add	r4, r4, r0
 871              	.LVL107:
 872              		.loc 1 255 0
 873 0042 BE42     		cmp	r6, r7
 874              		.loc 1 249 0
 875 0044 04F11304 		add	r4, r4, #19
 876              		.loc 1 255 0
 877 0048 A8BF     		it	ge
 878 004a 3E46     		movge	r6, r7
 879              		.loc 1 249 0
 880 004c 24F00304 		bic	r4, r4, #3
 881              		.loc 1 256 0
 882 0050 A319     		adds	r3, r4, r6
 883 0052 00F2FC58 		addw	r8, r0, #1532
 884              		.loc 1 255 0
 885 0056 B6B2     		uxth	r6, r6
 886              		.loc 1 245 0
 887 0058 0321     		movs	r1, #3
 888              		.loc 1 246 0
 889 005a 0022     		movs	r2, #0
 890              		.loc 1 256 0
 891 005c 9845     		cmp	r8, r3
 892              		.loc 1 253 0
 893 005e 0781     		strh	r7, [r0, #8]	@ movhi
 894              		.loc 1 249 0
 895 0060 4460     		str	r4, [r0, #4]
 896              		.loc 1 255 0
 897 0062 4681     		strh	r6, [r0, #10]	@ movhi
 898              		.loc 1 245 0
 899 0064 0173     		strb	r1, [r0, #12]
 900              		.loc 1 246 0
 901 0066 0260     		str	r2, [r0]
 902              		.loc 1 256 0
 903 0068 C0F0C980 		bcc	.L134
 904              	.LVL108:
 905              	.L111:
 906              		.loc 1 269 0
 907 006c BE1B     		subs	r6, r7, r6
 908              		.loc 1 262 0
ARM GAS  C:\Users\jo\AppData\Local\Temp\ccT06EVW.s 			page 17


 909 006e 0123     		movs	r3, #1
 910              		.loc 1 271 0
 911 0070 002E     		cmp	r6, #0
 912              		.loc 1 262 0
 913 0072 EB81     		strh	r3, [r5, #14]	@ movhi
 914              	.LVL109:
 915              		.loc 1 271 0
 916 0074 62DD     		ble	.L112
 917              		.loc 1 286 0
 918 0076 DFF8B091 		ldr	r9, .L138+12
 919              		.loc 1 271 0
 920 007a 2F46     		mov	r7, r5
 921 007c 19E0     		b	.L118
 922              	.LVL110:
 923              	.L115:
 924              		.loc 1 287 0
 925 007e B1B2     		uxth	r1, r6
 926              		.loc 1 289 0
 927 0080 40F2EC52 		movw	r2, #1516
 928 0084 8A42     		cmp	r2, r1
 929              		.loc 1 290 0
 930 0086 04F11003 		add	r3, r4, #16
 931              		.loc 1 289 0
 932 008a 28BF     		it	cs
 933 008c 0A46     		movcs	r2, r1
 934              		.loc 1 290 0
 935 008e 6360     		str	r3, [r4, #4]
 936              		.loc 1 291 0
 937 0090 9B07     		lsls	r3, r3, #30
 938              		.loc 1 287 0
 939 0092 2181     		strh	r1, [r4, #8]	@ movhi
 940              		.loc 1 289 0
 941 0094 6281     		strh	r2, [r4, #10]	@ movhi
 942              		.loc 1 291 0
 943 0096 40F09980 		bne	.L135
 944              	.L116:
 945              		.loc 1 293 0
 946 009a 6B89     		ldrh	r3, [r5, #10]
 947 009c 6A68     		ldr	r2, [r5, #4]
 948 009e 1344     		add	r3, r3, r2
 949 00a0 9845     		cmp	r8, r3
 950 00a2 C0F08680 		bcc	.L136
 951              	.L117:
 952              		.loc 1 298 0
 953 00a6 6289     		ldrh	r2, [r4, #10]
 954 00a8 B61A     		subs	r6, r6, r2
 955              	.LVL111:
 956              		.loc 1 296 0
 957 00aa 0123     		movs	r3, #1
 958              		.loc 1 271 0
 959 00ac 002E     		cmp	r6, #0
 960              		.loc 1 296 0
 961 00ae E381     		strh	r3, [r4, #14]	@ movhi
 962              		.loc 1 271 0
 963 00b0 44DD     		ble	.L112
 964              	.LVL112:
 965              	.L118:
ARM GAS  C:\Users\jo\AppData\Local\Temp\ccT06EVW.s 			page 18


 966              		.loc 1 272 0
 967 00b2 0D20     		movs	r0, #13
 968 00b4 FFF7FEFF 		bl	memp_malloc
 969              	.LVL113:
 970              		.loc 1 281 0
 971 00b8 0023     		movs	r3, #0
 972              		.loc 1 273 0
 973 00ba 0446     		mov	r4, r0
 974              		.loc 1 280 0
 975 00bc 0321     		movs	r1, #3
 976              		.loc 1 286 0
 977 00be 4FF6FF72 		movw	r2, #65535
 978              		.loc 1 273 0
 979 00c2 0028     		cmp	r0, #0
 980 00c4 67D0     		beq	.L137
 981              		.loc 1 286 0
 982 00c6 9642     		cmp	r6, r2
 983              		.loc 1 280 0
 984 00c8 0173     		strb	r1, [r0, #12]
 985              		.loc 1 281 0
 986 00ca 4373     		strb	r3, [r0, #13]
 987              		.loc 1 282 0
 988 00cc 0360     		str	r3, [r0]
 989              		.loc 1 284 0
 990 00ce 3860     		str	r0, [r7]
 991 00d0 0746     		mov	r7, r0
 992              	.LVL114:
 993              		.loc 1 286 0
 994 00d2 D4D1     		bne	.L115
 995              		.loc 1 286 0 is_stmt 0 discriminator 1
 996 00d4 CDF80090 		str	r9, [sp]
 997 00d8 5049     		ldr	r1, .L138
 998 00da 514A     		ldr	r2, .L138+4
 999 00dc 5148     		ldr	r0, .L138+8
 1000              	.LVL115:
 1001 00de 4FF48F73 		mov	r3, #286
 1002 00e2 FFF7FEFF 		bl	chprintf.constprop.1
 1003              	.LVL116:
 1004              	.LBB121:
 1005              	.LBB122:
 1006              		.loc 3 414 0 is_stmt 1 discriminator 1
 1007 00e6 4E48     		ldr	r0, .L138+4
 1008 00e8 FFF7FEFF 		bl	chSysHalt
 1009              	.LVL117:
 1010 00ec C7E7     		b	.L115
 1011              	.LVL118:
 1012              	.L107:
 1013              	.LBE122:
 1014              	.LBE121:
 1015              		.loc 1 326 0
 1016 00ee 0C20     		movs	r0, #12
 1017              	.LVL119:
 1018 00f0 0392     		str	r2, [sp, #12]
 1019 00f2 FFF7FEFF 		bl	memp_malloc
 1020              	.LVL120:
 1021              		.loc 1 327 0
 1022 00f6 0546     		mov	r5, r0
ARM GAS  C:\Users\jo\AppData\Local\Temp\ccT06EVW.s 			page 19


 1023 00f8 0028     		cmp	r0, #0
 1024 00fa 56D0     		beq	.L132
 1025              		.loc 1 334 0
 1026 00fc 0023     		movs	r3, #0
 1027              		.loc 1 337 0
 1028 00fe 039A     		ldr	r2, [sp, #12]
 1029              		.loc 1 335 0
 1030 0100 0781     		strh	r7, [r0, #8]	@ movhi
 1031 0102 4781     		strh	r7, [r0, #10]	@ movhi
 1032              		.loc 1 337 0
 1033 0104 0273     		strb	r2, [r0, #12]
 1034              		.loc 1 334 0
 1035 0106 4360     		str	r3, [r0, #4]
 1036              		.loc 1 336 0
 1037 0108 0360     		str	r3, [r0]
 1038              		.loc 1 338 0
 1039 010a 17E0     		b	.L112
 1040              	.LVL121:
 1041              	.L105:
 1042              		.loc 1 308 0
 1043 010c 04F11300 		add	r0, r4, #19
 1044              	.LVL122:
 1045 0110 FB1C     		adds	r3, r7, #3
 1046 0112 23F00303 		bic	r3, r3, #3
 1047 0116 20F00300 		bic	r0, r0, #3
 1048 011a 1844     		add	r0, r0, r3
 1049 011c 80B2     		uxth	r0, r0
 1050 011e FFF7FEFF 		bl	mem_malloc
 1051              	.LVL123:
 1052              		.loc 1 309 0
 1053 0122 0546     		mov	r5, r0
 1054 0124 0028     		cmp	r0, #0
 1055 0126 40D0     		beq	.L132
 1056              		.loc 1 313 0
 1057 0128 0444     		add	r4, r4, r0
 1058              	.LVL124:
 1059 012a 1334     		adds	r4, r4, #19
 1060              		.loc 1 315 0
 1061 012c 0023     		movs	r3, #0
 1062              		.loc 1 313 0
 1063 012e 24F00304 		bic	r4, r4, #3
 1064 0132 4460     		str	r4, [r0, #4]
 1065              		.loc 1 314 0
 1066 0134 0781     		strh	r7, [r0, #8]	@ movhi
 1067 0136 4781     		strh	r7, [r0, #10]	@ movhi
 1068              		.loc 1 315 0
 1069 0138 0360     		str	r3, [r0]
 1070              		.loc 1 316 0
 1071 013a 0373     		strb	r3, [r0, #12]
 1072              	.LVL125:
 1073              	.L112:
 1074              		.loc 1 344 0
 1075 013c 0122     		movs	r2, #1
 1076              		.loc 1 346 0
 1077 013e 0023     		movs	r3, #0
 1078              		.loc 1 348 0
 1079 0140 2846     		mov	r0, r5
ARM GAS  C:\Users\jo\AppData\Local\Temp\ccT06EVW.s 			page 20


 1080              		.loc 1 344 0
 1081 0142 EA81     		strh	r2, [r5, #14]	@ movhi
 1082              		.loc 1 346 0
 1083 0144 6B73     		strb	r3, [r5, #13]
 1084              		.loc 1 349 0
 1085 0146 05B0     		add	sp, sp, #20
 1086              		.cfi_remember_state
 1087              		.cfi_def_cfa_offset 28
 1088              		@ sp needed
 1089 0148 BDE8F083 		pop	{r4, r5, r6, r7, r8, r9, pc}
 1090              	.LVL126:
 1091              	.L100:
 1092              		.cfi_restore_state
 1093              		.loc 1 222 0
 1094 014c 2224     		movs	r4, #34
 1095 014e 63E7     		b	.L101
 1096              	.L98:
 1097              		.loc 1 218 0
 1098 0150 3624     		movs	r4, #54
 1099 0152 61E7     		b	.L101
 1100              	.L102:
 1101              	.LVL127:
 1102              		.loc 1 229 0
 1103 0154 0024     		movs	r4, #0
 1104              		.loc 1 230 0
 1105 0156 5FE7     		b	.L101
 1106              	.LVL128:
 1107              	.L104:
 1108              		.loc 1 340 0 discriminator 1
 1109 0158 334B     		ldr	r3, .L138+12
 1110 015a 0093     		str	r3, [sp]
 1111 015c 2F49     		ldr	r1, .L138
 1112              	.LVL129:
 1113 015e 334A     		ldr	r2, .L138+16
 1114              	.LVL130:
 1115 0160 3048     		ldr	r0, .L138+8
 1116              	.LVL131:
 1117 0162 4FF4AA73 		mov	r3, #340
 1118 0166 FFF7FEFF 		bl	chprintf.constprop.1
 1119              	.LVL132:
 1120              	.LBB123:
 1121              	.LBB124:
 1122              		.loc 3 414 0 discriminator 1
 1123 016a 3048     		ldr	r0, .L138+16
 1124 016c FFF7FEFF 		bl	chSysHalt
 1125              	.LVL133:
 1126              	.LBE124:
 1127              	.LBE123:
 1128              		.loc 1 341 0 discriminator 1
 1129 0170 0020     		movs	r0, #0
 1130              	.LVL134:
 1131              	.L103:
 1132              		.loc 1 349 0
 1133 0172 05B0     		add	sp, sp, #20
 1134              		.cfi_remember_state
 1135              		.cfi_def_cfa_offset 28
 1136              		@ sp needed
ARM GAS  C:\Users\jo\AppData\Local\Temp\ccT06EVW.s 			page 21


 1137 0174 BDE8F083 		pop	{r4, r5, r6, r7, r8, r9, pc}
 1138              	.LVL135:
 1139              	.L97:
 1140              		.loc 1 232 0 discriminator 1
 1141 0178 2B4B     		ldr	r3, .L138+12
 1142 017a 0093     		str	r3, [sp]
 1143 017c 2749     		ldr	r1, .L138
 1144              	.LVL136:
 1145 017e 2C4A     		ldr	r2, .L138+20
 1146              	.LVL137:
 1147 0180 2848     		ldr	r0, .L138+8
 1148              	.LVL138:
 1149 0182 E823     		movs	r3, #232
 1150 0184 FFF7FEFF 		bl	chprintf.constprop.1
 1151              	.LVL139:
 1152              	.LBB125:
 1153              	.LBB126:
 1154              		.loc 3 414 0 discriminator 1
 1155 0188 2948     		ldr	r0, .L138+20
 1156 018a FFF7FEFF 		bl	chSysHalt
 1157              	.LVL140:
 1158              	.LBE126:
 1159              	.LBE125:
 1160              		.loc 1 233 0 discriminator 1
 1161 018e 0020     		movs	r0, #0
 1162              		.loc 1 349 0 discriminator 1
 1163 0190 05B0     		add	sp, sp, #20
 1164              		@ sp needed
 1165 0192 BDE8F083 		pop	{r4, r5, r6, r7, r8, r9, pc}
 1166              	.LVL141:
 1167              	.L137:
 1168              		.cfi_restore_state
 1169              	.LBB127:
 1170              	.LBB128:
 1171              		.loc 1 163 0
 1172 0196 274B     		ldr	r3, .L138+24
 1173 0198 1A78     		ldrb	r2, [r3]	@ zero_extendqisi2
 1174              	.LVL142:
 1175              		.loc 1 164 0
 1176 019a 0121     		movs	r1, #1
 1177 019c 1970     		strb	r1, [r3]
 1178              		.loc 1 167 0
 1179 019e 0AB9     		cbnz	r2, .L114
 1180 01a0 FFF7FEFF 		bl	pbuf_pool_is_empty.part.0
 1181              	.LVL143:
 1182              	.L114:
 1183              	.LBE128:
 1184              	.LBE127:
 1185              		.loc 1 276 0
 1186 01a4 2846     		mov	r0, r5
 1187 01a6 FFF7FEFF 		bl	pbuf_free
 1188              	.LVL144:
 1189              	.L132:
 1190              		.loc 1 278 0
 1191 01aa 0020     		movs	r0, #0
 1192              		.loc 1 349 0
 1193 01ac 05B0     		add	sp, sp, #20
ARM GAS  C:\Users\jo\AppData\Local\Temp\ccT06EVW.s 			page 22


 1194              		.cfi_remember_state
 1195              		.cfi_def_cfa_offset 28
 1196              		@ sp needed
 1197 01ae BDE8F083 		pop	{r4, r5, r6, r7, r8, r9, pc}
 1198              	.LVL145:
 1199              	.L136:
 1200              		.cfi_restore_state
 1201              		.loc 1 293 0 discriminator 1
 1202 01b2 CDF80090 		str	r9, [sp]
 1203 01b6 1949     		ldr	r1, .L138
 1204 01b8 1F4A     		ldr	r2, .L138+28
 1205 01ba 1A48     		ldr	r0, .L138+8
 1206 01bc 40F22713 		movw	r3, #295
 1207 01c0 FFF7FEFF 		bl	chprintf.constprop.1
 1208              	.LVL146:
 1209              	.LBB129:
 1210              	.LBB130:
 1211              		.loc 3 414 0 discriminator 1
 1212 01c4 1C48     		ldr	r0, .L138+28
 1213 01c6 FFF7FEFF 		bl	chSysHalt
 1214              	.LVL147:
 1215 01ca 6CE7     		b	.L117
 1216              	.LVL148:
 1217              	.L135:
 1218              	.LBE130:
 1219              	.LBE129:
 1220              		.loc 1 291 0 discriminator 1
 1221 01cc CDF80090 		str	r9, [sp]
 1222 01d0 1249     		ldr	r1, .L138
 1223 01d2 1A4A     		ldr	r2, .L138+32
 1224 01d4 1348     		ldr	r0, .L138+8
 1225 01d6 4FF49273 		mov	r3, #292
 1226 01da FFF7FEFF 		bl	chprintf.constprop.1
 1227              	.LVL149:
 1228              	.LBB131:
 1229              	.LBB132:
 1230              		.loc 3 414 0 discriminator 1
 1231 01de 1748     		ldr	r0, .L138+32
 1232 01e0 FFF7FEFF 		bl	chSysHalt
 1233              	.LVL150:
 1234 01e4 59E7     		b	.L116
 1235              	.LVL151:
 1236              	.L133:
 1237              	.LBE132:
 1238              	.LBE131:
 1239              	.LBB133:
 1240              	.LBB134:
 1241              		.loc 1 163 0
 1242 01e6 134A     		ldr	r2, .L138+24
 1243 01e8 1378     		ldrb	r3, [r2]	@ zero_extendqisi2
 1244              	.LVL152:
 1245              		.loc 1 164 0
 1246 01ea 0121     		movs	r1, #1
 1247 01ec 1170     		strb	r1, [r2]
 1248              		.loc 1 167 0
 1249 01ee 03F0FF05 		and	r5, r3, #255
 1250 01f2 002B     		cmp	r3, #0
ARM GAS  C:\Users\jo\AppData\Local\Temp\ccT06EVW.s 			page 23


 1251 01f4 D9D1     		bne	.L132
 1252 01f6 FFF7FEFF 		bl	pbuf_pool_is_empty.part.0
 1253              	.LVL153:
 1254              	.LBE134:
 1255              	.LBE133:
 1256              		.loc 1 243 0
 1257 01fa 2846     		mov	r0, r5
 1258 01fc B9E7     		b	.L103
 1259              	.LVL154:
 1260              	.L134:
 1261              		.loc 1 256 0 discriminator 1
 1262 01fe 0A4B     		ldr	r3, .L138+12
 1263 0200 0093     		str	r3, [sp]
 1264 0202 0649     		ldr	r1, .L138
 1265 0204 0C4A     		ldr	r2, .L138+28
 1266 0206 0748     		ldr	r0, .L138+8
 1267              	.LVL155:
 1268 0208 4FF48173 		mov	r3, #258
 1269 020c FFF7FEFF 		bl	chprintf.constprop.1
 1270              	.LVL156:
 1271              	.LBB135:
 1272              	.LBB136:
 1273              		.loc 3 414 0 discriminator 1
 1274 0210 0948     		ldr	r0, .L138+28
 1275 0212 FFF7FEFF 		bl	chSysHalt
 1276              	.LVL157:
 1277 0216 6E89     		ldrh	r6, [r5, #10]
 1278 0218 28E7     		b	.L111
 1279              	.L139:
 1280 021a 00BF     		.align	2
 1281              	.L138:
 1282 021c 00000000 		.word	.LC0
 1283 0220 58010000 		.word	.LC11
 1284 0224 00000000 		.word	itm_port
 1285 0228 4C000000 		.word	.LC2
 1286 022c 9C010000 		.word	.LC13
 1287 0230 08010000 		.word	.LC9
 1288 0234 00000000 		.word	.LANCHOR0
 1289 0238 24010000 		.word	.LC10
 1290 023c 6C010000 		.word	.LC12
 1291              	.LBE136:
 1292              	.LBE135:
 1293              		.cfi_endproc
 1294              	.LFE259:
 1295              		.size	pbuf_alloc, .-pbuf_alloc
 1296              		.section	.text.pbuf_realloc,"ax",%progbits
 1297              		.align	2
 1298              		.p2align 4,,15
 1299              		.global	pbuf_realloc
 1300              		.thumb
 1301              		.thumb_func
 1302              		.type	pbuf_realloc, %function
 1303              	pbuf_realloc:
 1304              	.LFB261:
 1305              		.loc 1 431 0
 1306              		.cfi_startproc
 1307              		@ args = 0, pretend = 0, frame = 0
ARM GAS  C:\Users\jo\AppData\Local\Temp\ccT06EVW.s 			page 24


 1308              		@ frame_needed = 0, uses_anonymous_args = 0
 1309              	.LVL158:
 1310 0000 F0B5     		push	{r4, r5, r6, r7, lr}
 1311              		.cfi_def_cfa_offset 20
 1312              		.cfi_offset 4, -20
 1313              		.cfi_offset 5, -16
 1314              		.cfi_offset 6, -12
 1315              		.cfi_offset 7, -8
 1316              		.cfi_offset 14, -4
 1317 0002 0D46     		mov	r5, r1
 1318 0004 83B0     		sub	sp, sp, #12
 1319              		.cfi_def_cfa_offset 32
 1320              		.loc 1 436 0
 1321 0006 0446     		mov	r4, r0
 1322 0008 0028     		cmp	r0, #0
 1323 000a 59D0     		beq	.L154
 1324              	.LVL159:
 1325              	.L141:
 1326              		.loc 1 437 0
 1327 000c 237B     		ldrb	r3, [r4, #12]	@ zero_extendqisi2
 1328 000e 032B     		cmp	r3, #3
 1329 0010 0BD9     		bls	.L142
 1330              		.loc 1 437 0 is_stmt 0 discriminator 4
 1331 0012 394B     		ldr	r3, .L158
 1332 0014 0093     		str	r3, [sp]
 1333 0016 3948     		ldr	r0, .L158+4
 1334 0018 3949     		ldr	r1, .L158+8
 1335 001a 3A4A     		ldr	r2, .L158+12
 1336 001c 4FF4DC73 		mov	r3, #440
 1337 0020 FFF7FEFF 		bl	chprintf.constprop.1
 1338              	.LVL160:
 1339              	.LBB137:
 1340              	.LBB138:
 1341              		.loc 3 414 0 is_stmt 1 discriminator 4
 1342 0024 3748     		ldr	r0, .L158+12
 1343 0026 FFF7FEFF 		bl	chSysHalt
 1344              	.LVL161:
 1345              	.L142:
 1346              	.LBE138:
 1347              	.LBE137:
 1348              		.loc 1 443 0
 1349 002a 2689     		ldrh	r6, [r4, #8]
 1350 002c AE42     		cmp	r6, r5
 1351 002e 45D9     		bls	.L140
 1352              		.loc 1 450 0
 1353 0030 AE1B     		subs	r6, r5, r6
 1354              	.LVL162:
 1355              		.loc 1 460 0
 1356 0032 314F     		ldr	r7, .L158
 1357              		.loc 1 456 0
 1358 0034 04E0     		b	.L144
 1359              	.LVL163:
 1360              	.L145:
 1361              		.loc 1 461 0
 1362 0036 2389     		ldrh	r3, [r4, #8]
 1363 0038 3344     		add	r3, r3, r6
 1364 003a 2381     		strh	r3, [r4, #8]	@ movhi
ARM GAS  C:\Users\jo\AppData\Local\Temp\ccT06EVW.s 			page 25


 1365              		.loc 1 463 0
 1366 003c 2468     		ldr	r4, [r4]
 1367              	.LVL164:
 1368              		.loc 1 464 0
 1369 003e CCB1     		cbz	r4, .L155
 1370              	.L144:
 1371              		.loc 1 456 0
 1372 0040 6189     		ldrh	r1, [r4, #10]
 1373 0042 8D42     		cmp	r5, r1
 1374 0044 24D9     		bls	.L156
 1375              	.L147:
 1376              		.loc 1 460 0
 1377 0046 4FF6FE73 		movw	r3, #65534
 1378              		.loc 1 458 0
 1379 004a 691A     		subs	r1, r5, r1
 1380              		.loc 1 460 0
 1381 004c 9E42     		cmp	r6, r3
 1382              		.loc 1 458 0
 1383 004e 8DB2     		uxth	r5, r1
 1384              	.LVL165:
 1385              		.loc 1 460 0
 1386 0050 F1DD     		ble	.L145
 1387              		.loc 1 460 0 is_stmt 0 discriminator 1
 1388 0052 4FF4E673 		mov	r3, #460
 1389 0056 2A49     		ldr	r1, .L158+8
 1390 0058 2B4A     		ldr	r2, .L158+16
 1391 005a 0097     		str	r7, [sp]
 1392 005c 2748     		ldr	r0, .L158+4
 1393 005e FFF7FEFF 		bl	chprintf.constprop.1
 1394              	.LVL166:
 1395              	.LBB139:
 1396              	.LBB140:
 1397              		.loc 3 414 0 is_stmt 1 discriminator 1
 1398 0062 2948     		ldr	r0, .L158+16
 1399 0064 FFF7FEFF 		bl	chSysHalt
 1400              	.LVL167:
 1401              	.LBE140:
 1402              	.LBE139:
 1403              		.loc 1 461 0 discriminator 1
 1404 0068 2389     		ldrh	r3, [r4, #8]
 1405 006a 3344     		add	r3, r3, r6
 1406 006c 2381     		strh	r3, [r4, #8]	@ movhi
 1407              		.loc 1 463 0 discriminator 1
 1408 006e 2468     		ldr	r4, [r4]
 1409              	.LVL168:
 1410              		.loc 1 464 0 discriminator 1
 1411 0070 002C     		cmp	r4, #0
 1412 0072 E5D1     		bne	.L144
 1413              	.LVL169:
 1414              	.L155:
 1415 0074 2249     		ldr	r1, .L158+8
 1416 0076 254A     		ldr	r2, .L158+20
 1417 0078 0097     		str	r7, [sp]
 1418 007a 4FF4E873 		mov	r3, #464
 1419 007e 1F48     		ldr	r0, .L158+4
 1420 0080 FFF7FEFF 		bl	chprintf.constprop.1
 1421              	.LVL170:
ARM GAS  C:\Users\jo\AppData\Local\Temp\ccT06EVW.s 			page 26


 1422              	.LBB141:
 1423              	.LBB142:
 1424              		.loc 3 414 0 discriminator 1
 1425 0084 2148     		ldr	r0, .L158+20
 1426 0086 FFF7FEFF 		bl	chSysHalt
 1427              	.LVL171:
 1428              	.LBE142:
 1429              	.LBE141:
 1430              		.loc 1 456 0 discriminator 1
 1431 008a 6189     		ldrh	r1, [r4, #10]
 1432 008c 8D42     		cmp	r5, r1
 1433 008e DAD8     		bhi	.L147
 1434              	.LVL172:
 1435              	.L156:
 1436              		.loc 1 471 0
 1437 0090 237B     		ldrb	r3, [r4, #12]	@ zero_extendqisi2
 1438 0092 2646     		mov	r6, r4
 1439              	.LVL173:
 1440 0094 53B9     		cbnz	r3, .L148
 1441              		.loc 1 471 0 is_stmt 0 discriminator 1
 1442 0096 A942     		cmp	r1, r5
 1443 0098 08D0     		beq	.L148
 1444              		.loc 1 473 0 is_stmt 1
 1445 009a 6368     		ldr	r3, [r4, #4]
 1446 009c 1B1B     		subs	r3, r3, r4
 1447 009e E918     		adds	r1, r5, r3
 1448 00a0 89B2     		uxth	r1, r1
 1449 00a2 2046     		mov	r0, r4
 1450 00a4 FFF7FEFF 		bl	mem_trim
 1451              	.LVL174:
 1452              		.loc 1 474 0
 1453 00a8 0646     		mov	r6, r0
 1454 00aa B0B1     		cbz	r0, .L157
 1455              	.LVL175:
 1456              	.L148:
 1457              		.loc 1 481 0
 1458 00ac 3068     		ldr	r0, [r6]
 1459              		.loc 1 477 0
 1460 00ae 7581     		strh	r5, [r6, #10]	@ movhi
 1461              		.loc 1 478 0
 1462 00b0 3581     		strh	r5, [r6, #8]	@ movhi
 1463              		.loc 1 481 0
 1464 00b2 08B1     		cbz	r0, .L149
 1465              		.loc 1 483 0
 1466 00b4 FFF7FEFF 		bl	pbuf_free
 1467              	.LVL176:
 1468              	.L149:
 1469              		.loc 1 486 0
 1470 00b8 0023     		movs	r3, #0
 1471 00ba 3360     		str	r3, [r6]
 1472              	.LVL177:
 1473              	.L140:
 1474              		.loc 1 488 0
 1475 00bc 03B0     		add	sp, sp, #12
 1476              		.cfi_remember_state
 1477              		.cfi_def_cfa_offset 20
 1478              		@ sp needed
ARM GAS  C:\Users\jo\AppData\Local\Temp\ccT06EVW.s 			page 27


 1479 00be F0BD     		pop	{r4, r5, r6, r7, pc}
 1480              	.LVL178:
 1481              	.L154:
 1482              		.cfi_restore_state
 1483              		.loc 1 436 0 discriminator 1
 1484 00c0 0D4B     		ldr	r3, .L158
 1485 00c2 0093     		str	r3, [sp]
 1486 00c4 0E49     		ldr	r1, .L158+8
 1487              	.LVL179:
 1488 00c6 124A     		ldr	r2, .L158+24
 1489 00c8 0C48     		ldr	r0, .L158+4
 1490              	.LVL180:
 1491 00ca 4FF4DA73 		mov	r3, #436
 1492 00ce FFF7FEFF 		bl	chprintf.constprop.1
 1493              	.LVL181:
 1494              	.LBB143:
 1495              	.LBB144:
 1496              		.loc 3 414 0 discriminator 1
 1497 00d2 0F48     		ldr	r0, .L158+24
 1498 00d4 FFF7FEFF 		bl	chSysHalt
 1499              	.LVL182:
 1500 00d8 98E7     		b	.L141
 1501              	.LVL183:
 1502              	.L157:
 1503              	.LBE144:
 1504              	.LBE143:
 1505              		.loc 1 474 0 discriminator 1
 1506 00da 074B     		ldr	r3, .L158
 1507 00dc 0093     		str	r3, [sp]
 1508 00de 0849     		ldr	r1, .L158+8
 1509 00e0 0C4A     		ldr	r2, .L158+28
 1510 00e2 0648     		ldr	r0, .L158+4
 1511              	.LVL184:
 1512 00e4 4FF4ED73 		mov	r3, #474
 1513 00e8 FFF7FEFF 		bl	chprintf.constprop.1
 1514              	.LVL185:
 1515              	.LBB145:
 1516              	.LBB146:
 1517              		.loc 3 414 0 discriminator 1
 1518 00ec 0948     		ldr	r0, .L158+28
 1519 00ee FFF7FEFF 		bl	chSysHalt
 1520              	.LVL186:
 1521              	.LBE146:
 1522              	.LBE145:
 1523              		.loc 1 477 0 discriminator 1
 1524 00f2 7681     		strh	r6, [r6, #10]	@ movhi
 1525 00f4 FFDE     		.inst	0xdeff
 1526              	.L159:
 1527 00f6 00BF     		.align	2
 1528              	.L158:
 1529 00f8 4C000000 		.word	.LC2
 1530 00fc 00000000 		.word	itm_port
 1531 0100 00000000 		.word	.LC0
 1532 0104 D0010000 		.word	.LC15
 1533 0108 EC010000 		.word	.LC16
 1534 010c 00020000 		.word	.LC17
 1535 0110 B8010000 		.word	.LC14
ARM GAS  C:\Users\jo\AppData\Local\Temp\ccT06EVW.s 			page 28


 1536 0114 18020000 		.word	.LC18
 1537              		.cfi_endproc
 1538              	.LFE261:
 1539              		.size	pbuf_realloc, .-pbuf_realloc
 1540 0118 AFF30080 		.section	.text.pbuf_clen,"ax",%progbits
 1540      AFF30080 
 1541              		.align	2
 1542              		.p2align 4,,15
 1543              		.global	pbuf_clen
 1544              		.thumb
 1545              		.thumb_func
 1546              		.type	pbuf_clen, %function
 1547              	pbuf_clen:
 1548              	.LFB264:
 1549              		.loc 1 705 0
 1550              		.cfi_startproc
 1551              		@ args = 0, pretend = 0, frame = 0
 1552              		@ frame_needed = 0, uses_anonymous_args = 0
 1553              		@ link register save eliminated.
 1554              	.LVL187:
 1555              		.loc 1 709 0
 1556 0000 0346     		mov	r3, r0
 1557 0002 30B1     		cbz	r0, .L163
 1558 0004 0020     		movs	r0, #0
 1559              	.LVL188:
 1560              	.L162:
 1561              		.loc 1 711 0
 1562 0006 1B68     		ldr	r3, [r3]
 1563              	.LVL189:
 1564              		.loc 1 710 0
 1565 0008 0130     		adds	r0, r0, #1
 1566              	.LVL190:
 1567 000a C0B2     		uxtb	r0, r0
 1568              	.LVL191:
 1569              		.loc 1 709 0
 1570 000c 002B     		cmp	r3, #0
 1571 000e FAD1     		bne	.L162
 1572 0010 7047     		bx	lr
 1573              	.LVL192:
 1574              	.L163:
 1575              		.loc 1 714 0
 1576 0012 7047     		bx	lr
 1577              		.cfi_endproc
 1578              	.LFE264:
 1579              		.size	pbuf_clen, .-pbuf_clen
 1580 0014 AFF30080 		.section	.text.pbuf_ref,"ax",%progbits
 1580      AFF30080 
 1580      AFF30080 
 1581              		.align	2
 1582              		.p2align 4,,15
 1583              		.global	pbuf_ref
 1584              		.thumb
 1585              		.thumb_func
 1586              		.type	pbuf_ref, %function
 1587              	pbuf_ref:
 1588              	.LFB265:
 1589              		.loc 1 724 0
ARM GAS  C:\Users\jo\AppData\Local\Temp\ccT06EVW.s 			page 29


 1590              		.cfi_startproc
 1591              		@ args = 0, pretend = 0, frame = 0
 1592              		@ frame_needed = 0, uses_anonymous_args = 0
 1593              		@ link register save eliminated.
 1594              	.LVL193:
 1595              		.loc 1 727 0
 1596 0000 10B1     		cbz	r0, .L165
 1597              		.loc 1 729 0
 1598 0002 C389     		ldrh	r3, [r0, #14]
 1599 0004 0133     		adds	r3, r3, #1
 1600 0006 C381     		strh	r3, [r0, #14]	@ movhi
 1601              	.L165:
 1602 0008 7047     		bx	lr
 1603              		.cfi_endproc
 1604              	.LFE265:
 1605              		.size	pbuf_ref, .-pbuf_ref
 1606 000a 00BFAFF3 		.section	.text.pbuf_cat,"ax",%progbits
 1606      0080
 1607              		.align	2
 1608              		.p2align 4,,15
 1609              		.global	pbuf_cat
 1610              		.thumb
 1611              		.thumb_func
 1612              		.type	pbuf_cat, %function
 1613              	pbuf_cat:
 1614              	.LFB266:
 1615              		.loc 1 746 0
 1616              		.cfi_startproc
 1617              		@ args = 0, pretend = 0, frame = 0
 1618              		@ frame_needed = 0, uses_anonymous_args = 0
 1619              	.LVL194:
 1620 0000 70B5     		push	{r4, r5, r6, lr}
 1621              		.cfi_def_cfa_offset 16
 1622              		.cfi_offset 4, -16
 1623              		.cfi_offset 5, -12
 1624              		.cfi_offset 6, -8
 1625              		.cfi_offset 14, -4
 1626 0002 82B0     		sub	sp, sp, #8
 1627              		.cfi_def_cfa_offset 24
 1628              		.loc 1 749 0
 1629 0004 0028     		cmp	r0, #0
 1630 0006 32D0     		beq	.L171
 1631 0008 0D46     		mov	r5, r1
 1632              		.loc 1 749 0 is_stmt 0 discriminator 2
 1633 000a 0029     		cmp	r1, #0
 1634 000c 2FD0     		beq	.L171
 1635              	.LVL195:
 1636              		.loc 1 753 0 is_stmt 1 discriminator 1
 1637 000e 0468     		ldr	r4, [r0]
 1638 0010 0CB9     		cbnz	r4, .L174
 1639 0012 3BE0     		b	.L188
 1640              	.LVL196:
 1641              	.L178:
 1642 0014 1446     		mov	r4, r2
 1643              	.L174:
 1644              		.loc 1 755 0 discriminator 3
 1645 0016 0389     		ldrh	r3, [r0, #8]
ARM GAS  C:\Users\jo\AppData\Local\Temp\ccT06EVW.s 			page 30


 1646 0018 2989     		ldrh	r1, [r5, #8]
 1647              		.loc 1 753 0 discriminator 3
 1648 001a 2268     		ldr	r2, [r4]
 1649              		.loc 1 755 0 discriminator 3
 1650 001c 0B44     		add	r3, r3, r1
 1651 001e 0381     		strh	r3, [r0, #8]	@ movhi
 1652              	.LVL197:
 1653 0020 2046     		mov	r0, r4
 1654              		.loc 1 753 0 discriminator 3
 1655 0022 002A     		cmp	r2, #0
 1656 0024 F6D1     		bne	.L178
 1657              	.LVL198:
 1658              	.L173:
 1659              		.loc 1 758 0
 1660 0026 6289     		ldrh	r2, [r4, #10]
 1661 0028 2389     		ldrh	r3, [r4, #8]
 1662 002a 9342     		cmp	r3, r2
 1663 002c 19D0     		beq	.L176
 1664              		.loc 1 758 0 is_stmt 0 discriminator 1
 1665 002e 184E     		ldr	r6, .L189
 1666 0030 1849     		ldr	r1, .L189+4
 1667 0032 194A     		ldr	r2, .L189+8
 1668 0034 0096     		str	r6, [sp]
 1669 0036 40F2F623 		movw	r3, #758
 1670 003a 1848     		ldr	r0, .L189+12
 1671              	.LVL199:
 1672 003c FFF7FEFF 		bl	chprintf.constprop.1
 1673              	.LVL200:
 1674              	.LBB147:
 1675              	.LBB148:
 1676              		.loc 3 414 0 is_stmt 1 discriminator 1
 1677 0040 1548     		ldr	r0, .L189+8
 1678 0042 FFF7FEFF 		bl	chSysHalt
 1679              	.LVL201:
 1680              	.LBE148:
 1681              	.LBE147:
 1682              		.loc 1 759 0 discriminator 1
 1683 0046 2368     		ldr	r3, [r4]
 1684 0048 53B1     		cbz	r3, .L187
 1685 004a 0096     		str	r6, [sp]
 1686 004c 1348     		ldr	r0, .L189+12
 1687 004e 1149     		ldr	r1, .L189+4
 1688 0050 134A     		ldr	r2, .L189+16
 1689 0052 40F2F723 		movw	r3, #759
 1690 0056 FFF7FEFF 		bl	chprintf.constprop.1
 1691              	.LVL202:
 1692              	.LBB149:
 1693              	.LBB150:
 1694              		.loc 3 414 0 discriminator 1
 1695 005a 1148     		ldr	r0, .L189+16
 1696 005c FFF7FEFF 		bl	chSysHalt
 1697              	.LVL203:
 1698              	.L187:
 1699 0060 2289     		ldrh	r2, [r4, #8]
 1700              	.LVL204:
 1701              	.L176:
 1702              	.LBE150:
ARM GAS  C:\Users\jo\AppData\Local\Temp\ccT06EVW.s 			page 31


 1703              	.LBE149:
 1704              		.loc 1 761 0
 1705 0062 2B89     		ldrh	r3, [r5, #8]
 1706              		.loc 1 763 0
 1707 0064 2560     		str	r5, [r4]
 1708              		.loc 1 761 0
 1709 0066 1344     		add	r3, r3, r2
 1710 0068 2381     		strh	r3, [r4, #8]	@ movhi
 1711              		.loc 1 767 0
 1712 006a 02B0     		add	sp, sp, #8
 1713              		.cfi_remember_state
 1714              		.cfi_def_cfa_offset 16
 1715              		@ sp needed
 1716 006c 70BD     		pop	{r4, r5, r6, pc}
 1717              	.LVL205:
 1718              	.L171:
 1719              		.cfi_restore_state
 1720              		.loc 1 749 0 discriminator 3
 1721 006e 084B     		ldr	r3, .L189
 1722 0070 0093     		str	r3, [sp]
 1723 0072 0849     		ldr	r1, .L189+4
 1724              	.LVL206:
 1725 0074 0B4A     		ldr	r2, .L189+20
 1726 0076 0948     		ldr	r0, .L189+12
 1727              	.LVL207:
 1728 0078 40F2EE23 		movw	r3, #750
 1729 007c FFF7FEFF 		bl	chprintf.constprop.1
 1730              	.LVL208:
 1731              	.LBB151:
 1732              	.LBB152:
 1733              		.loc 3 414 0 discriminator 3
 1734 0080 0848     		ldr	r0, .L189+20
 1735              	.LBE152:
 1736              	.LBE151:
 1737              		.loc 1 767 0 discriminator 3
 1738 0082 02B0     		add	sp, sp, #8
 1739              		.cfi_remember_state
 1740              		.cfi_def_cfa_offset 16
 1741              		@ sp needed
 1742 0084 BDE87040 		pop	{r4, r5, r6, lr}
 1743              		.cfi_restore 14
 1744              		.cfi_restore 6
 1745              		.cfi_restore 5
 1746              		.cfi_restore 4
 1747              		.cfi_def_cfa_offset 0
 1748              	.LBB154:
 1749              	.LBB153:
 1750              		.loc 3 414 0 discriminator 3
 1751 0088 FFF7FEBF 		b	chSysHalt
 1752              	.LVL209:
 1753              	.L188:
 1754              		.cfi_restore_state
 1755              	.LBE153:
 1756              	.LBE154:
 1757              		.loc 1 753 0
 1758 008c 0446     		mov	r4, r0
 1759 008e CAE7     		b	.L173
ARM GAS  C:\Users\jo\AppData\Local\Temp\ccT06EVW.s 			page 32


 1760              	.L190:
 1761              		.align	2
 1762              	.L189:
 1763 0090 4C000000 		.word	.LC2
 1764 0094 00000000 		.word	.LC0
 1765 0098 6C020000 		.word	.LC20
 1766 009c 00000000 		.word	itm_port
 1767 00a0 9C020000 		.word	.LC21
 1768 00a4 34020000 		.word	.LC19
 1769              		.cfi_endproc
 1770              	.LFE266:
 1771              		.size	pbuf_cat, .-pbuf_cat
 1772 00a8 AFF30080 		.section	.text.pbuf_chain,"ax",%progbits
 1772      AFF30080 
 1773              		.align	2
 1774              		.p2align 4,,15
 1775              		.global	pbuf_chain
 1776              		.thumb
 1777              		.thumb_func
 1778              		.type	pbuf_chain, %function
 1779              	pbuf_chain:
 1780              	.LFB267:
 1781              		.loc 1 787 0
 1782              		.cfi_startproc
 1783              		@ args = 0, pretend = 0, frame = 0
 1784              		@ frame_needed = 0, uses_anonymous_args = 0
 1785              	.LVL210:
 1786 0000 10B5     		push	{r4, lr}
 1787              		.cfi_def_cfa_offset 8
 1788              		.cfi_offset 4, -8
 1789              		.cfi_offset 14, -4
 1790              		.loc 1 787 0
 1791 0002 0C46     		mov	r4, r1
 1792              		.loc 1 788 0
 1793 0004 FFF7FEFF 		bl	pbuf_cat
 1794              	.LVL211:
 1795              	.LBB155:
 1796              	.LBB156:
 1797              		.loc 1 727 0
 1798 0008 14B1     		cbz	r4, .L191
 1799              		.loc 1 729 0
 1800 000a E389     		ldrh	r3, [r4, #14]
 1801 000c 0133     		adds	r3, r3, #1
 1802 000e E381     		strh	r3, [r4, #14]	@ movhi
 1803              	.L191:
 1804 0010 10BD     		pop	{r4, pc}
 1805              	.LBE156:
 1806              	.LBE155:
 1807              		.cfi_endproc
 1808              	.LFE267:
 1809              		.size	pbuf_chain, .-pbuf_chain
 1810 0012 00BFAFF3 		.section	.text.pbuf_dechain,"ax",%progbits
 1810      0080AFF3 
 1810      0080AFF3 
 1810      0080
 1811              		.align	2
 1812              		.p2align 4,,15
ARM GAS  C:\Users\jo\AppData\Local\Temp\ccT06EVW.s 			page 33


 1813              		.global	pbuf_dechain
 1814              		.thumb
 1815              		.thumb_func
 1816              		.type	pbuf_dechain, %function
 1817              	pbuf_dechain:
 1818              	.LFB268:
 1819              		.loc 1 804 0
 1820              		.cfi_startproc
 1821              		@ args = 0, pretend = 0, frame = 0
 1822              		@ frame_needed = 0, uses_anonymous_args = 0
 1823              	.LVL212:
 1824 0000 70B5     		push	{r4, r5, r6, lr}
 1825              		.cfi_def_cfa_offset 16
 1826              		.cfi_offset 4, -16
 1827              		.cfi_offset 5, -12
 1828              		.cfi_offset 6, -8
 1829              		.cfi_offset 14, -4
 1830              		.loc 1 808 0
 1831 0002 0568     		ldr	r5, [r0]
 1832              	.LVL213:
 1833              		.loc 1 804 0
 1834 0004 82B0     		sub	sp, sp, #8
 1835              		.cfi_def_cfa_offset 24
 1836              		.loc 1 804 0
 1837 0006 0446     		mov	r4, r0
 1838              		.loc 1 810 0
 1839 0008 002D     		cmp	r5, #0
 1840 000a 33D0     		beq	.L198
 1841              		.loc 1 812 0
 1842 000c 0389     		ldrh	r3, [r0, #8]
 1843 000e 4289     		ldrh	r2, [r0, #10]
 1844 0010 2989     		ldrh	r1, [r5, #8]
 1845 0012 9B1A     		subs	r3, r3, r2
 1846 0014 9942     		cmp	r1, r3
 1847 0016 0ED0     		beq	.L199
 1848              		.loc 1 812 0 is_stmt 0 discriminator 1
 1849 0018 194B     		ldr	r3, .L208
 1850 001a 1A4A     		ldr	r2, .L208+4
 1851 001c 0093     		str	r3, [sp]
 1852 001e 1A49     		ldr	r1, .L208+8
 1853 0020 1A48     		ldr	r0, .L208+12
 1854              	.LVL214:
 1855 0022 4FF44B73 		mov	r3, #812
 1856 0026 FFF7FEFF 		bl	chprintf.constprop.1
 1857              	.LVL215:
 1858              	.LBB157:
 1859              	.LBB158:
 1860              		.loc 3 414 0 is_stmt 1 discriminator 1
 1861 002a 1648     		ldr	r0, .L208+4
 1862 002c FFF7FEFF 		bl	chSysHalt
 1863              	.LVL216:
 1864 0030 2389     		ldrh	r3, [r4, #8]
 1865 0032 6289     		ldrh	r2, [r4, #10]
 1866 0034 9B1A     		subs	r3, r3, r2
 1867              	.LVL217:
 1868              	.L199:
 1869              	.LBE158:
ARM GAS  C:\Users\jo\AppData\Local\Temp\ccT06EVW.s 			page 34


 1870              	.LBE157:
 1871              		.loc 1 816 0
 1872 0036 0021     		movs	r1, #0
 1873              		.loc 1 814 0
 1874 0038 2B81     		strh	r3, [r5, #8]	@ movhi
 1875              		.loc 1 821 0
 1876 003a 2846     		mov	r0, r5
 1877              		.loc 1 818 0
 1878 003c 2281     		strh	r2, [r4, #8]	@ movhi
 1879              		.loc 1 816 0
 1880 003e 2160     		str	r1, [r4]
 1881              		.loc 1 821 0
 1882 0040 FFF7FEFF 		bl	pbuf_free
 1883              	.LVL218:
 1884              		.loc 1 829 0
 1885 0044 2289     		ldrh	r2, [r4, #8]
 1886 0046 6389     		ldrh	r3, [r4, #10]
 1887 0048 9A42     		cmp	r2, r3
 1888              		.loc 1 821 0
 1889 004a 0646     		mov	r6, r0
 1890              	.LVL219:
 1891              		.loc 1 829 0
 1892 004c 0BD0     		beq	.L200
 1893              	.LVL220:
 1894              	.L202:
 1895              		.loc 1 829 0 is_stmt 0 discriminator 1
 1896 004e 0C4B     		ldr	r3, .L208
 1897 0050 0093     		str	r3, [sp]
 1898 0052 0E48     		ldr	r0, .L208+12
 1899 0054 0C49     		ldr	r1, .L208+8
 1900 0056 0E4A     		ldr	r2, .L208+16
 1901 0058 40F23D33 		movw	r3, #829
 1902 005c FFF7FEFF 		bl	chprintf.constprop.1
 1903              	.LVL221:
 1904              	.LBB159:
 1905              	.LBB160:
 1906              		.loc 3 414 0 is_stmt 1 discriminator 1
 1907 0060 0B48     		ldr	r0, .L208+16
 1908 0062 FFF7FEFF 		bl	chSysHalt
 1909              	.LVL222:
 1910              	.L200:
 1911              	.LBE160:
 1912              	.LBE159:
 1913              		.loc 1 808 0
 1914 0066 2846     		mov	r0, r5
 1915              		.loc 1 830 0
 1916 0068 0EB9     		cbnz	r6, .L203
 1917              	.LVL223:
 1918              		.loc 1 831 0
 1919 006a 02B0     		add	sp, sp, #8
 1920              		.cfi_remember_state
 1921              		.cfi_def_cfa_offset 16
 1922              		@ sp needed
 1923 006c 70BD     		pop	{r4, r5, r6, pc}
 1924              	.LVL224:
 1925              	.L203:
 1926              		.cfi_restore_state
ARM GAS  C:\Users\jo\AppData\Local\Temp\ccT06EVW.s 			page 35


 1927              		.loc 1 830 0
 1928 006e 0020     		movs	r0, #0
 1929              		.loc 1 831 0
 1930 0070 02B0     		add	sp, sp, #8
 1931              		.cfi_remember_state
 1932              		.cfi_def_cfa_offset 16
 1933              		@ sp needed
 1934 0072 70BD     		pop	{r4, r5, r6, pc}
 1935              	.LVL225:
 1936              	.L198:
 1937              		.cfi_restore_state
 1938              		.loc 1 829 0
 1939 0074 0289     		ldrh	r2, [r0, #8]
 1940 0076 4389     		ldrh	r3, [r0, #10]
 1941 0078 9A42     		cmp	r2, r3
 1942 007a F8D0     		beq	.L203
 1943              		.loc 1 806 0
 1944 007c 0126     		movs	r6, #1
 1945 007e E6E7     		b	.L202
 1946              	.L209:
 1947              		.align	2
 1948              	.L208:
 1949 0080 4C000000 		.word	.LC2
 1950 0084 AC020000 		.word	.LC22
 1951 0088 00000000 		.word	.LC0
 1952 008c 00000000 		.word	itm_port
 1953 0090 D0020000 		.word	.LC23
 1954              		.cfi_endproc
 1955              	.LFE268:
 1956              		.size	pbuf_dechain, .-pbuf_dechain
 1957 0094 AFF30080 		.section	.text.pbuf_copy,"ax",%progbits
 1957      AFF30080 
 1957      AFF30080 
 1958              		.align	2
 1959              		.p2align 4,,15
 1960              		.global	pbuf_copy
 1961              		.thumb
 1962              		.thumb_func
 1963              		.type	pbuf_copy, %function
 1964              	pbuf_copy:
 1965              	.LFB269:
 1966              		.loc 1 853 0
 1967              		.cfi_startproc
 1968              		@ args = 0, pretend = 0, frame = 0
 1969              		@ frame_needed = 0, uses_anonymous_args = 0
 1970              	.LVL226:
 1971 0000 2DE9F043 		push	{r4, r5, r6, r7, r8, r9, lr}
 1972              		.cfi_def_cfa_offset 28
 1973              		.cfi_offset 4, -28
 1974              		.cfi_offset 5, -24
 1975              		.cfi_offset 6, -20
 1976              		.cfi_offset 7, -16
 1977              		.cfi_offset 8, -12
 1978              		.cfi_offset 9, -8
 1979              		.cfi_offset 14, -4
 1980              		.loc 1 860 0
 1981 0004 8046     		mov	r8, r0
ARM GAS  C:\Users\jo\AppData\Local\Temp\ccT06EVW.s 			page 36


 1982              		.loc 1 853 0
 1983 0006 83B0     		sub	sp, sp, #12
 1984              		.cfi_def_cfa_offset 40
 1985              		.loc 1 860 0
 1986 0008 0028     		cmp	r0, #0
 1987 000a 00F0A580 		beq	.L211
 1988 000e 0D46     		mov	r5, r1
 1989              		.loc 1 860 0 is_stmt 0 discriminator 2
 1990 0010 0029     		cmp	r1, #0
 1991 0012 00F0A180 		beq	.L211
 1992              		.loc 1 860 0 discriminator 4
 1993 0016 0289     		ldrh	r2, [r0, #8]
 1994 0018 0B89     		ldrh	r3, [r1, #8]
 1995 001a 9A42     		cmp	r2, r3
 1996 001c C0F09C80 		bcc	.L211
 1997              		.loc 1 860 0
 1998 0020 4FF00009 		mov	r9, #0
 1999 0024 4389     		ldrh	r3, [r0, #10]
 2000 0026 4A89     		ldrh	r2, [r1, #10]
 2001              		.loc 1 877 0 is_stmt 1
 2002 0028 524F     		ldr	r7, .L251
 2003              		.loc 1 860 0
 2004 002a 4E46     		mov	r6, r9
 2005              	.LVL227:
 2006              	.L214:
 2007              		.loc 1 867 0
 2008 002c C9EB0204 		rsb	r4, r9, r2
 2009 0030 9B1B     		subs	r3, r3, r6
 2010 0032 A342     		cmp	r3, r4
 2011              		.loc 1 874 0
 2012 0034 D8F80400 		ldr	r0, [r8, #4]
 2013 0038 6968     		ldr	r1, [r5, #4]
 2014              		.loc 1 872 0
 2015 003a B4BF     		ite	lt
 2016 003c 9CB2     		uxthlt	r4, r3
 2017              		.loc 1 869 0
 2018 003e A4B2     		uxthge	r4, r4
 2019              	.LVL228:
 2020              		.loc 1 874 0
 2021 0040 3044     		add	r0, r0, r6
 2022 0042 4944     		add	r1, r1, r9
 2023 0044 2246     		mov	r2, r4
 2024 0046 FFF7FEFF 		bl	memcpy
 2025              	.LVL229:
 2026              		.loc 1 875 0
 2027 004a 2644     		add	r6, r6, r4
 2028              	.LVL230:
 2029              		.loc 1 877 0
 2030 004c B8F80A30 		ldrh	r3, [r8, #10]
 2031              		.loc 1 875 0
 2032 0050 B6B2     		uxth	r6, r6
 2033              	.LVL231:
 2034              		.loc 1 876 0
 2035 0052 4C44     		add	r4, r4, r9
 2036              	.LVL232:
 2037              		.loc 1 877 0
 2038 0054 B342     		cmp	r3, r6
ARM GAS  C:\Users\jo\AppData\Local\Temp\ccT06EVW.s 			page 37


 2039              		.loc 1 876 0
 2040 0056 1FFA84F9 		uxth	r9, r4
 2041              	.LVL233:
 2042              		.loc 1 877 0
 2043 005a 3CD3     		bcc	.L244
 2044              	.L217:
 2045              		.loc 1 878 0
 2046 005c 6B89     		ldrh	r3, [r5, #10]
 2047 005e 9945     		cmp	r9, r3
 2048 0060 2CD8     		bhi	.L245
 2049              	.L218:
 2050              		.loc 1 879 0
 2051 0062 9945     		cmp	r9, r3
 2052              	.LVL234:
 2053              		.loc 1 884 0
 2054 0064 B8F80A30 		ldrh	r3, [r8, #10]
 2055              		.loc 1 882 0
 2056 0068 24BF     		itt	cs
 2057 006a 2D68     		ldrcs	r5, [r5]
 2058              	.LVL235:
 2059              		.loc 1 881 0
 2060 006c 4FF00009 		movcs	r9, #0
 2061              	.LVL236:
 2062              		.loc 1 884 0
 2063 0070 B342     		cmp	r3, r6
 2064 0072 11D0     		beq	.L246
 2065              		.loc 1 891 0
 2066 0074 C5B1     		cbz	r5, .L247
 2067              	.L226:
 2068              		.loc 1 891 0 is_stmt 0 discriminator 1
 2069 0076 6A89     		ldrh	r2, [r5, #10]
 2070 0078 2B89     		ldrh	r3, [r5, #8]
 2071 007a 9A42     		cmp	r2, r3
 2072 007c 37D0     		beq	.L248
 2073              	.L221:
 2074              		.loc 1 896 0 is_stmt 1
 2075 007e B8F80A30 		ldrh	r3, [r8, #10]
 2076 0082 B8F80810 		ldrh	r1, [r8, #8]
 2077 0086 9942     		cmp	r1, r3
 2078 0088 D0D1     		bne	.L214
 2079              	.L224:
 2080              		.loc 1 898 0
 2081 008a D8F80020 		ldr	r2, [r8]
 2082 008e 002A     		cmp	r2, #0
 2083 0090 51D1     		bne	.L249
 2084              		.loc 1 901 0
 2085 0092 7DB1     		cbz	r5, .L213
 2086 0094 6A89     		ldrh	r2, [r5, #10]
 2087 0096 C9E7     		b	.L214
 2088              	.L246:
 2089              	.LVL237:
 2090              		.loc 1 887 0
 2091 0098 D8F80080 		ldr	r8, [r8]
 2092              	.LVL238:
 2093              		.loc 1 888 0
 2094 009c B8F1000F 		cmp	r8, #0
 2095 00a0 39D0     		beq	.L250
ARM GAS  C:\Users\jo\AppData\Local\Temp\ccT06EVW.s 			page 38


 2096              		.loc 1 886 0
 2097 00a2 0026     		movs	r6, #0
 2098              	.LVL239:
 2099              		.loc 1 891 0
 2100 00a4 002D     		cmp	r5, #0
 2101 00a6 E6D1     		bne	.L226
 2102              	.L247:
 2103              		.loc 1 896 0
 2104 00a8 B8F80A30 		ldrh	r3, [r8, #10]
 2105 00ac B8F80820 		ldrh	r2, [r8, #8]
 2106 00b0 9A42     		cmp	r2, r3
 2107 00b2 EAD0     		beq	.L224
 2108              	.LVL240:
 2109              	.L213:
 2110 00b4 68B2     		sxtb	r0, r5
 2111              		.loc 1 904 0
 2112 00b6 03B0     		add	sp, sp, #12
 2113              		.cfi_remember_state
 2114              		.cfi_def_cfa_offset 28
 2115              		@ sp needed
 2116 00b8 BDE8F083 		pop	{r4, r5, r6, r7, r8, r9, pc}
 2117              	.LVL241:
 2118              	.L245:
 2119              		.cfi_restore_state
 2120              		.loc 1 878 0 discriminator 1
 2121 00bc 40F26E33 		movw	r3, #878
 2122 00c0 2D49     		ldr	r1, .L251+4
 2123 00c2 2E4A     		ldr	r2, .L251+8
 2124 00c4 0097     		str	r7, [sp]
 2125 00c6 2E48     		ldr	r0, .L251+12
 2126 00c8 FFF7FEFF 		bl	chprintf.constprop.1
 2127              	.LVL242:
 2128              	.LBB161:
 2129              	.LBB162:
 2130              		.loc 3 414 0 discriminator 1
 2131 00cc 2B48     		ldr	r0, .L251+8
 2132 00ce FFF7FEFF 		bl	chSysHalt
 2133              	.LVL243:
 2134 00d2 6B89     		ldrh	r3, [r5, #10]
 2135 00d4 C5E7     		b	.L218
 2136              	.LVL244:
 2137              	.L244:
 2138              	.LBE162:
 2139              	.LBE161:
 2140              		.loc 1 877 0 discriminator 1
 2141 00d6 0097     		str	r7, [sp]
 2142 00d8 2749     		ldr	r1, .L251+4
 2143 00da 2A4A     		ldr	r2, .L251+16
 2144 00dc 2848     		ldr	r0, .L251+12
 2145 00de 40F26D33 		movw	r3, #877
 2146 00e2 FFF7FEFF 		bl	chprintf.constprop.1
 2147              	.LVL245:
 2148              	.LBB163:
 2149              	.LBB164:
 2150              		.loc 3 414 0 discriminator 1
 2151 00e6 2748     		ldr	r0, .L251+16
 2152 00e8 FFF7FEFF 		bl	chSysHalt
ARM GAS  C:\Users\jo\AppData\Local\Temp\ccT06EVW.s 			page 39


 2153              	.LVL246:
 2154 00ec B6E7     		b	.L217
 2155              	.LVL247:
 2156              	.L248:
 2157              	.LBE164:
 2158              	.LBE163:
 2159              		.loc 1 893 0
 2160 00ee 2B68     		ldr	r3, [r5]
 2161 00f0 002B     		cmp	r3, #0
 2162 00f2 C4D0     		beq	.L221
 2163              		.loc 1 893 0 is_stmt 0 discriminator 1
 2164 00f4 1F4B     		ldr	r3, .L251
 2165 00f6 0093     		str	r3, [sp]
 2166 00f8 1F49     		ldr	r1, .L251+4
 2167 00fa 234A     		ldr	r2, .L251+20
 2168 00fc 2048     		ldr	r0, .L251+12
 2169 00fe 40F27E33 		movw	r3, #894
 2170 0102 FFF7FEFF 		bl	chprintf.constprop.1
 2171              	.LVL248:
 2172              	.LBB165:
 2173              	.LBB166:
 2174              		.loc 3 414 0 is_stmt 1 discriminator 1
 2175 0106 2048     		ldr	r0, .L251+20
 2176 0108 FFF7FEFF 		bl	chSysHalt
 2177              	.LVL249:
 2178              	.LBE166:
 2179              	.LBE165:
 2180              		.loc 1 893 0 discriminator 1
 2181 010c FA25     		movs	r5, #250
 2182              	.LVL250:
 2183 010e 68B2     		sxtb	r0, r5
 2184              		.loc 1 904 0 discriminator 1
 2185 0110 03B0     		add	sp, sp, #12
 2186              		.cfi_remember_state
 2187              		.cfi_def_cfa_offset 28
 2188              		@ sp needed
 2189 0112 BDE8F083 		pop	{r4, r5, r6, r7, r8, r9, pc}
 2190              	.LVL251:
 2191              	.L250:
 2192              		.cfi_restore_state
 2193              		.loc 1 888 0 discriminator 1
 2194 0116 002D     		cmp	r5, #0
 2195 0118 CCD0     		beq	.L213
 2196              		.loc 1 888 0 is_stmt 0 discriminator 2
 2197 011a 164B     		ldr	r3, .L251
 2198 011c 0093     		str	r3, [sp]
 2199 011e 1649     		ldr	r1, .L251+4
 2200 0120 1A4A     		ldr	r2, .L251+24
 2201 0122 1748     		ldr	r0, .L251+12
 2202 0124 4FF45E73 		mov	r3, #888
 2203 0128 FFF7FEFF 		bl	chprintf.constprop.1
 2204              	.LVL252:
 2205              	.LBB167:
 2206              	.LBB168:
 2207              		.loc 3 414 0 is_stmt 1 discriminator 2
 2208 012c 1748     		ldr	r0, .L251+24
 2209 012e FFF7FEFF 		bl	chSysHalt
ARM GAS  C:\Users\jo\AppData\Local\Temp\ccT06EVW.s 			page 40


 2210              	.LVL253:
 2211              	.LBE168:
 2212              	.LBE167:
 2213              		.loc 1 888 0 discriminator 2
 2214 0132 F225     		movs	r5, #242
 2215              	.LVL254:
 2216 0134 BEE7     		b	.L213
 2217              	.LVL255:
 2218              	.L249:
 2219              		.loc 1 898 0 discriminator 1
 2220 0136 0F4B     		ldr	r3, .L251
 2221 0138 0093     		str	r3, [sp]
 2222 013a 0F49     		ldr	r1, .L251+4
 2223 013c 124A     		ldr	r2, .L251+20
 2224 013e 1048     		ldr	r0, .L251+12
 2225 0140 40F28333 		movw	r3, #899
 2226 0144 FFF7FEFF 		bl	chprintf.constprop.1
 2227              	.LVL256:
 2228              	.LBB169:
 2229              	.LBB170:
 2230              		.loc 3 414 0 discriminator 1
 2231 0148 0F48     		ldr	r0, .L251+20
 2232 014a FFF7FEFF 		bl	chSysHalt
 2233              	.LVL257:
 2234              	.LBE170:
 2235              	.LBE169:
 2236              		.loc 1 898 0 discriminator 1
 2237 014e FA25     		movs	r5, #250
 2238              	.LVL258:
 2239 0150 68B2     		sxtb	r0, r5
 2240              		.loc 1 904 0 discriminator 1
 2241 0152 03B0     		add	sp, sp, #12
 2242              		.cfi_remember_state
 2243              		.cfi_def_cfa_offset 28
 2244              		@ sp needed
 2245 0154 BDE8F083 		pop	{r4, r5, r6, r7, r8, r9, pc}
 2246              	.LVL259:
 2247              	.L211:
 2248              		.cfi_restore_state
 2249              		.loc 1 860 0 discriminator 5
 2250 0158 064B     		ldr	r3, .L251
 2251 015a 0093     		str	r3, [sp]
 2252 015c 0649     		ldr	r1, .L251+4
 2253              	.LVL260:
 2254 015e 0C4A     		ldr	r2, .L251+28
 2255 0160 0748     		ldr	r0, .L251+12
 2256              	.LVL261:
 2257 0162 40F25D33 		movw	r3, #861
 2258 0166 FFF7FEFF 		bl	chprintf.constprop.1
 2259              	.LVL262:
 2260              	.LBB171:
 2261              	.LBB172:
 2262              		.loc 3 414 0 discriminator 5
 2263 016a 0948     		ldr	r0, .L251+28
 2264 016c FFF7FEFF 		bl	chSysHalt
 2265              	.LVL263:
 2266              	.LBE172:
ARM GAS  C:\Users\jo\AppData\Local\Temp\ccT06EVW.s 			page 41


 2267              	.LBE171:
 2268              		.loc 1 860 0 discriminator 5
 2269 0170 F225     		movs	r5, #242
 2270 0172 9FE7     		b	.L213
 2271              	.L252:
 2272              		.align	2
 2273              	.L251:
 2274 0174 4C000000 		.word	.LC2
 2275 0178 00000000 		.word	.LC0
 2276 017c 30030000 		.word	.LC26
 2277 0180 00000000 		.word	itm_port
 2278 0184 18030000 		.word	.LC25
 2279 0188 5C030000 		.word	.LC28
 2280 018c 4C030000 		.word	.LC27
 2281 0190 E8020000 		.word	.LC24
 2282              		.cfi_endproc
 2283              	.LFE269:
 2284              		.size	pbuf_copy, .-pbuf_copy
 2285 0194 AFF30080 		.section	.text.pbuf_copy_partial,"ax",%progbits
 2285      AFF30080 
 2285      AFF30080 
 2286              		.align	2
 2287              		.p2align 4,,15
 2288              		.global	pbuf_copy_partial
 2289              		.thumb
 2290              		.thumb_func
 2291              		.type	pbuf_copy_partial, %function
 2292              	pbuf_copy_partial:
 2293              	.LFB270:
 2294              		.loc 1 919 0
 2295              		.cfi_startproc
 2296              		@ args = 0, pretend = 0, frame = 0
 2297              		@ frame_needed = 0, uses_anonymous_args = 0
 2298              	.LVL264:
 2299 0000 2DE9F043 		push	{r4, r5, r6, r7, r8, r9, lr}
 2300              		.cfi_def_cfa_offset 28
 2301              		.cfi_offset 4, -28
 2302              		.cfi_offset 5, -24
 2303              		.cfi_offset 6, -20
 2304              		.cfi_offset 7, -16
 2305              		.cfi_offset 8, -12
 2306              		.cfi_offset 9, -8
 2307              		.cfi_offset 14, -4
 2308              		.loc 1 925 0
 2309 0004 0546     		mov	r5, r0
 2310              		.loc 1 919 0
 2311 0006 83B0     		sub	sp, sp, #12
 2312              		.cfi_def_cfa_offset 40
 2313              		.loc 1 925 0
 2314 0008 0028     		cmp	r0, #0
 2315 000a 31D0     		beq	.L268
 2316 000c 0E46     		mov	r6, r1
 2317              		.loc 1 926 0
 2318 000e 0029     		cmp	r1, #0
 2319 0010 3CD0     		beq	.L269
 2320              	.LVL265:
 2321 0012 1746     		mov	r7, r2
ARM GAS  C:\Users\jo\AppData\Local\Temp\ccT06EVW.s 			page 42


 2322              		.loc 1 935 0 discriminator 1
 2323 0014 002A     		cmp	r2, #0
 2324 0016 47D0     		beq	.L262
 2325              		.loc 1 935 0 is_stmt 0
 2326 0018 4FF00008 		mov	r8, #0
 2327 001c C146     		mov	r9, r8
 2328              	.LVL266:
 2329              	.L261:
 2330              		.loc 1 945 0 is_stmt 1
 2331 001e 06EB0900 		add	r0, r6, r9
 2332              		.loc 1 936 0
 2333 0022 6A89     		ldrh	r2, [r5, #10]
 2334 0024 5BB1     		cbz	r3, .L259
 2335              		.loc 1 936 0 is_stmt 0 discriminator 1
 2336 0026 9A42     		cmp	r2, r3
 2337              		.loc 1 938 0 is_stmt 1 discriminator 1
 2338 0028 A3EB0201 		sub	r1, r3, r2
 2339              		.loc 1 936 0 discriminator 1
 2340 002c 07D8     		bhi	.L259
 2341              		.loc 1 935 0
 2342 002e 2D68     		ldr	r5, [r5]
 2343              	.LVL267:
 2344              		.loc 1 938 0
 2345 0030 8BB2     		uxth	r3, r1
 2346              	.LVL268:
 2347              		.loc 1 935 0
 2348 0032 002D     		cmp	r5, #0
 2349 0034 F3D1     		bne	.L261
 2350              	.LVL269:
 2351              	.L257:
 2352              		.loc 1 952 0
 2353 0036 4046     		mov	r0, r8
 2354              	.LVL270:
 2355              	.L255:
 2356              		.loc 1 953 0
 2357 0038 03B0     		add	sp, sp, #12
 2358              		.cfi_remember_state
 2359              		.cfi_def_cfa_offset 28
 2360              		@ sp needed
 2361 003a BDE8F083 		pop	{r4, r5, r6, r7, r8, r9, pc}
 2362              	.LVL271:
 2363              	.L259:
 2364              		.cfi_restore_state
 2365              		.loc 1 941 0
 2366 003e D41A     		subs	r4, r2, r3
 2367 0040 A4B2     		uxth	r4, r4
 2368              	.LVL272:
 2369 0042 BC42     		cmp	r4, r7
 2370 0044 28BF     		it	cs
 2371 0046 3C46     		movcs	r4, r7
 2372              	.LVL273:
 2373              		.loc 1 945 0
 2374 0048 6968     		ldr	r1, [r5, #4]
 2375              		.loc 1 948 0
 2376 004a 3F1B     		subs	r7, r7, r4
 2377              	.LVL274:
 2378              		.loc 1 945 0
ARM GAS  C:\Users\jo\AppData\Local\Temp\ccT06EVW.s 			page 43


 2379 004c 2246     		mov	r2, r4
 2380              		.loc 1 946 0
 2381 004e A044     		add	r8, r8, r4
 2382              	.LVL275:
 2383              		.loc 1 945 0
 2384 0050 1944     		add	r1, r1, r3
 2385              		.loc 1 947 0
 2386 0052 4C44     		add	r4, r4, r9
 2387              	.LVL276:
 2388              		.loc 1 948 0
 2389 0054 BFB2     		uxth	r7, r7
 2390              		.loc 1 945 0
 2391 0056 FFF7FEFF 		bl	memcpy
 2392              	.LVL277:
 2393              		.loc 1 946 0
 2394 005a 1FFA88F8 		uxth	r8, r8
 2395              	.LVL278:
 2396              		.loc 1 947 0
 2397 005e 1FFA84F9 		uxth	r9, r4
 2398              	.LVL279:
 2399              		.loc 1 935 0
 2400 0062 2D68     		ldr	r5, [r5]
 2401              	.LVL280:
 2402 0064 002F     		cmp	r7, #0
 2403 0066 E6D0     		beq	.L257
 2404              		.loc 1 949 0
 2405 0068 0023     		movs	r3, #0
 2406              	.LVL281:
 2407              		.loc 1 935 0
 2408 006a 002D     		cmp	r5, #0
 2409 006c D7D1     		bne	.L261
 2410 006e E2E7     		b	.L257
 2411              	.LVL282:
 2412              	.L268:
 2413              		.loc 1 925 0 discriminator 1
 2414 0070 0E4B     		ldr	r3, .L270
 2415              	.LVL283:
 2416 0072 0093     		str	r3, [sp]
 2417 0074 0E49     		ldr	r1, .L270+4
 2418              	.LVL284:
 2419 0076 0F4A     		ldr	r2, .L270+8
 2420              	.LVL285:
 2421 0078 0F48     		ldr	r0, .L270+12
 2422              	.LVL286:
 2423 007a 40F29D33 		movw	r3, #925
 2424 007e FFF7FEFF 		bl	chprintf.constprop.1
 2425              	.LVL287:
 2426              	.LBB173:
 2427              	.LBB174:
 2428              		.loc 3 414 0 discriminator 1
 2429 0082 0C48     		ldr	r0, .L270+8
 2430 0084 FFF7FEFF 		bl	chSysHalt
 2431              	.LVL288:
 2432              	.LBE174:
 2433              	.LBE173:
 2434              		.loc 1 925 0 discriminator 1
 2435 0088 2846     		mov	r0, r5
ARM GAS  C:\Users\jo\AppData\Local\Temp\ccT06EVW.s 			page 44


 2436 008a D5E7     		b	.L255
 2437              	.LVL289:
 2438              	.L269:
 2439              		.loc 1 926 0 discriminator 1
 2440 008c 074B     		ldr	r3, .L270
 2441              	.LVL290:
 2442 008e 0093     		str	r3, [sp]
 2443 0090 0749     		ldr	r1, .L270+4
 2444              	.LVL291:
 2445 0092 0A4A     		ldr	r2, .L270+16
 2446              	.LVL292:
 2447 0094 0848     		ldr	r0, .L270+12
 2448              	.LVL293:
 2449 0096 40F29E33 		movw	r3, #926
 2450 009a FFF7FEFF 		bl	chprintf.constprop.1
 2451              	.LVL294:
 2452              	.LBB175:
 2453              	.LBB176:
 2454              		.loc 3 414 0 discriminator 1
 2455 009e 0748     		ldr	r0, .L270+16
 2456 00a0 FFF7FEFF 		bl	chSysHalt
 2457              	.LVL295:
 2458              	.LBE176:
 2459              	.LBE175:
 2460              		.loc 1 926 0 discriminator 1
 2461 00a4 3046     		mov	r0, r6
 2462 00a6 C7E7     		b	.L255
 2463              	.LVL296:
 2464              	.L262:
 2465              		.loc 1 935 0
 2466 00a8 9046     		mov	r8, r2
 2467 00aa C4E7     		b	.L257
 2468              	.L271:
 2469              		.align	2
 2470              	.L270:
 2471 00ac 4C000000 		.word	.LC2
 2472 00b0 00000000 		.word	.LC0
 2473 00b4 88030000 		.word	.LC29
 2474 00b8 00000000 		.word	itm_port
 2475 00bc A8030000 		.word	.LC30
 2476              		.cfi_endproc
 2477              	.LFE270:
 2478              		.size	pbuf_copy_partial, .-pbuf_copy_partial
 2479              		.section	.text.pbuf_take,"ax",%progbits
 2480              		.align	2
 2481              		.p2align 4,,15
 2482              		.global	pbuf_take
 2483              		.thumb
 2484              		.thumb_func
 2485              		.type	pbuf_take, %function
 2486              	pbuf_take:
 2487              	.LFB271:
 2488              		.loc 1 967 0
 2489              		.cfi_startproc
 2490              		@ args = 0, pretend = 0, frame = 0
 2491              		@ frame_needed = 0, uses_anonymous_args = 0
 2492              	.LVL297:
ARM GAS  C:\Users\jo\AppData\Local\Temp\ccT06EVW.s 			page 45


 2493 0000 2DE9F047 		push	{r4, r5, r6, r7, r8, r9, r10, lr}
 2494              		.cfi_def_cfa_offset 32
 2495              		.cfi_offset 4, -32
 2496              		.cfi_offset 5, -28
 2497              		.cfi_offset 6, -24
 2498              		.cfi_offset 7, -20
 2499              		.cfi_offset 8, -16
 2500              		.cfi_offset 9, -12
 2501              		.cfi_offset 10, -8
 2502              		.cfi_offset 14, -4
 2503              		.loc 1 973 0
 2504 0004 8246     		mov	r10, r0
 2505              		.loc 1 967 0
 2506 0006 82B0     		sub	sp, sp, #8
 2507              		.cfi_def_cfa_offset 40
 2508              		.loc 1 973 0
 2509 0008 0028     		cmp	r0, #0
 2510 000a 48D0     		beq	.L285
 2511 000c 0F46     		mov	r7, r1
 2512              		.loc 1 974 0
 2513 000e 0029     		cmp	r1, #0
 2514 0010 53D0     		beq	.L286
 2515              		.loc 1 976 0 discriminator 2
 2516 0012 0389     		ldrh	r3, [r0, #8]
 2517 0014 9342     		cmp	r3, r2
 2518 0016 9046     		mov	r8, r2
 2519              	.LVL298:
 2520 0018 5DD3     		bcc	.L280
 2521              	.LVL299:
 2522              		.loc 1 981 0 discriminator 1
 2523 001a 002A     		cmp	r2, #0
 2524 001c 3AD0     		beq	.L276
 2525              		.loc 1 981 0 is_stmt 0
 2526 001e 1446     		mov	r4, r2
 2527 0020 0026     		movs	r6, #0
 2528              		.loc 1 982 0 is_stmt 1
 2529 0022 DFF8B890 		ldr	r9, .L288
 2530 0026 02E0     		b	.L277
 2531              	.LVL300:
 2532              	.L279:
 2533 0028 BAF1000F 		cmp	r10, #0
 2534 002c 25D0     		beq	.L287
 2535              	.LVL301:
 2536              	.L277:
 2537              		.loc 1 984 0
 2538 002e BAF80A50 		ldrh	r5, [r10, #10]
 2539              		.loc 1 989 0
 2540 0032 DAF80400 		ldr	r0, [r10, #4]
 2541 0036 A542     		cmp	r5, r4
 2542 0038 28BF     		it	cs
 2543 003a 2546     		movcs	r5, r4
 2544              	.LVL302:
 2545              		.loc 1 990 0
 2546 003c 641B     		subs	r4, r4, r5
 2547              		.loc 1 989 0
 2548 003e B919     		adds	r1, r7, r6
 2549 0040 2A46     		mov	r2, r5
ARM GAS  C:\Users\jo\AppData\Local\Temp\ccT06EVW.s 			page 46


 2550              		.loc 1 991 0
 2551 0042 2E44     		add	r6, r6, r5
 2552              		.loc 1 990 0
 2553 0044 A4B2     		uxth	r4, r4
 2554              		.loc 1 989 0
 2555 0046 FFF7FEFF 		bl	memcpy
 2556              	.LVL303:
 2557              		.loc 1 991 0
 2558 004a B6B2     		uxth	r6, r6
 2559              	.LVL304:
 2560              		.loc 1 981 0
 2561 004c DAF800A0 		ldr	r10, [r10]
 2562              	.LVL305:
 2563 0050 002C     		cmp	r4, #0
 2564 0052 E9D1     		bne	.L279
 2565              		.loc 1 993 0
 2566 0054 B045     		cmp	r8, r6
 2567 0056 1DD0     		beq	.L276
 2568              		.loc 1 993 0 is_stmt 0 discriminator 3
 2569 0058 204B     		ldr	r3, .L288
 2570 005a 0093     		str	r3, [sp]
 2571 005c 2049     		ldr	r1, .L288+4
 2572 005e 214A     		ldr	r2, .L288+8
 2573 0060 2148     		ldr	r0, .L288+12
 2574 0062 40F2E133 		movw	r3, #993
 2575 0066 FFF7FEFF 		bl	chprintf.constprop.1
 2576              	.LVL306:
 2577              	.LBB177:
 2578              	.LBB178:
 2579              		.loc 3 414 0 is_stmt 1 discriminator 3
 2580 006a 1E48     		ldr	r0, .L288+8
 2581 006c FFF7FEFF 		bl	chSysHalt
 2582              	.LVL307:
 2583              	.LBE178:
 2584              	.LBE177:
 2585              		.loc 1 994 0 discriminator 3
 2586 0070 2046     		mov	r0, r4
 2587              	.LVL308:
 2588              	.L274:
 2589              		.loc 1 995 0
 2590 0072 40B2     		sxtb	r0, r0
 2591 0074 02B0     		add	sp, sp, #8
 2592              		.cfi_remember_state
 2593              		.cfi_def_cfa_offset 32
 2594              		@ sp needed
 2595 0076 BDE8F087 		pop	{r4, r5, r6, r7, r8, r9, r10, pc}
 2596              	.LVL309:
 2597              	.L287:
 2598              		.cfi_restore_state
 2599              		.loc 1 982 0 discriminator 1
 2600 007a CDF80090 		str	r9, [sp]
 2601 007e 1849     		ldr	r1, .L288+4
 2602 0080 1A4A     		ldr	r2, .L288+16
 2603 0082 1948     		ldr	r0, .L288+12
 2604 0084 40F2D633 		movw	r3, #982
 2605 0088 FFF7FEFF 		bl	chprintf.constprop.1
 2606              	.LVL310:
ARM GAS  C:\Users\jo\AppData\Local\Temp\ccT06EVW.s 			page 47


 2607              	.LBB179:
 2608              	.LBB180:
 2609              		.loc 3 414 0 discriminator 1
 2610 008c 1748     		ldr	r0, .L288+16
 2611 008e FFF7FEFF 		bl	chSysHalt
 2612              	.LVL311:
 2613 0092 CCE7     		b	.L277
 2614              	.LVL312:
 2615              	.L276:
 2616              	.LBE180:
 2617              	.LBE179:
 2618              		.loc 1 994 0
 2619 0094 0020     		movs	r0, #0
 2620              		.loc 1 995 0
 2621 0096 40B2     		sxtb	r0, r0
 2622 0098 02B0     		add	sp, sp, #8
 2623              		.cfi_remember_state
 2624              		.cfi_def_cfa_offset 32
 2625              		@ sp needed
 2626 009a BDE8F087 		pop	{r4, r5, r6, r7, r8, r9, r10, pc}
 2627              	.LVL313:
 2628              	.L285:
 2629              		.cfi_restore_state
 2630              		.loc 1 973 0 discriminator 1
 2631 009e 0F4B     		ldr	r3, .L288
 2632 00a0 0093     		str	r3, [sp]
 2633 00a2 0F49     		ldr	r1, .L288+4
 2634              	.LVL314:
 2635 00a4 124A     		ldr	r2, .L288+20
 2636              	.LVL315:
 2637 00a6 1048     		ldr	r0, .L288+12
 2638              	.LVL316:
 2639 00a8 40F2CD33 		movw	r3, #973
 2640 00ac FFF7FEFF 		bl	chprintf.constprop.1
 2641              	.LVL317:
 2642              	.LBB181:
 2643              	.LBB182:
 2644              		.loc 3 414 0 discriminator 1
 2645 00b0 0F48     		ldr	r0, .L288+20
 2646 00b2 FFF7FEFF 		bl	chSysHalt
 2647              	.LVL318:
 2648              	.LBE182:
 2649              	.LBE181:
 2650              		.loc 1 973 0 discriminator 1
 2651 00b6 5046     		mov	r0, r10
 2652 00b8 DBE7     		b	.L274
 2653              	.LVL319:
 2654              	.L286:
 2655              		.loc 1 974 0 discriminator 1
 2656 00ba 084B     		ldr	r3, .L288
 2657 00bc 0093     		str	r3, [sp]
 2658 00be 0849     		ldr	r1, .L288+4
 2659              	.LVL320:
 2660 00c0 0C4A     		ldr	r2, .L288+24
 2661              	.LVL321:
 2662 00c2 0948     		ldr	r0, .L288+12
 2663              	.LVL322:
ARM GAS  C:\Users\jo\AppData\Local\Temp\ccT06EVW.s 			page 48


 2664 00c4 40F2CE33 		movw	r3, #974
 2665 00c8 FFF7FEFF 		bl	chprintf.constprop.1
 2666              	.LVL323:
 2667              	.LBB183:
 2668              	.LBB184:
 2669              		.loc 3 414 0 discriminator 1
 2670 00cc 0948     		ldr	r0, .L288+24
 2671 00ce FFF7FEFF 		bl	chSysHalt
 2672              	.LVL324:
 2673              	.LBE184:
 2674              	.LBE183:
 2675              		.loc 1 974 0 discriminator 1
 2676 00d2 3846     		mov	r0, r7
 2677 00d4 CDE7     		b	.L274
 2678              	.LVL325:
 2679              	.L280:
 2680              		.loc 1 977 0
 2681 00d6 F220     		movs	r0, #242
 2682              	.LVL326:
 2683 00d8 CBE7     		b	.L274
 2684              	.L289:
 2685 00da 00BF     		.align	2
 2686              	.L288:
 2687 00dc 4C000000 		.word	.LC2
 2688 00e0 00000000 		.word	.LC0
 2689 00e4 18040000 		.word	.LC34
 2690 00e8 00000000 		.word	itm_port
 2691 00ec 00040000 		.word	.LC33
 2692 00f0 CC030000 		.word	.LC31
 2693 00f4 E4030000 		.word	.LC32
 2694              		.cfi_endproc
 2695              	.LFE271:
 2696              		.size	pbuf_take, .-pbuf_take
 2697 00f8 AFF30080 		.section	.text.pbuf_coalesce,"ax",%progbits
 2697      AFF30080 
 2698              		.align	2
 2699              		.p2align 4,,15
 2700              		.global	pbuf_coalesce
 2701              		.thumb
 2702              		.thumb_func
 2703              		.type	pbuf_coalesce, %function
 2704              	pbuf_coalesce:
 2705              	.LFB272:
 2706              		.loc 1 1011 0
 2707              		.cfi_startproc
 2708              		@ args = 0, pretend = 0, frame = 0
 2709              		@ frame_needed = 0, uses_anonymous_args = 0
 2710              	.LVL327:
 2711 0000 30B5     		push	{r4, r5, lr}
 2712              		.cfi_def_cfa_offset 12
 2713              		.cfi_offset 4, -12
 2714              		.cfi_offset 5, -8
 2715              		.cfi_offset 14, -4
 2716              		.loc 1 1014 0
 2717 0002 0368     		ldr	r3, [r0]
 2718              		.loc 1 1011 0
 2719 0004 83B0     		sub	sp, sp, #12
ARM GAS  C:\Users\jo\AppData\Local\Temp\ccT06EVW.s 			page 49


 2720              		.cfi_def_cfa_offset 24
 2721              		.loc 1 1011 0
 2722 0006 0446     		mov	r4, r0
 2723              		.loc 1 1014 0
 2724 0008 83B1     		cbz	r3, .L293
 2725              		.loc 1 1017 0
 2726 000a 0846     		mov	r0, r1
 2727              	.LVL328:
 2728 000c 0022     		movs	r2, #0
 2729 000e 2189     		ldrh	r1, [r4, #8]
 2730              	.LVL329:
 2731 0010 FFF7FEFF 		bl	pbuf_alloc
 2732              	.LVL330:
 2733              		.loc 1 1018 0
 2734 0014 0546     		mov	r5, r0
 2735 0016 48B1     		cbz	r0, .L293
 2736              		.loc 1 1022 0
 2737 0018 2146     		mov	r1, r4
 2738 001a FFF7FEFF 		bl	pbuf_copy
 2739              	.LVL331:
 2740              		.loc 1 1023 0
 2741 001e 40B9     		cbnz	r0, .L302
 2742              	.LVL332:
 2743              	.L294:
 2744              		.loc 1 1024 0
 2745 0020 2046     		mov	r0, r4
 2746 0022 FFF7FEFF 		bl	pbuf_free
 2747              	.LVL333:
 2748              		.loc 1 1025 0
 2749 0026 2846     		mov	r0, r5
 2750              		.loc 1 1026 0
 2751 0028 03B0     		add	sp, sp, #12
 2752              		.cfi_remember_state
 2753              		.cfi_def_cfa_offset 12
 2754              		@ sp needed
 2755 002a 30BD     		pop	{r4, r5, pc}
 2756              	.LVL334:
 2757              	.L293:
 2758              		.cfi_restore_state
 2759              		.loc 1 1011 0
 2760 002c 2046     		mov	r0, r4
 2761              		.loc 1 1026 0
 2762 002e 03B0     		add	sp, sp, #12
 2763              		.cfi_remember_state
 2764              		.cfi_def_cfa_offset 12
 2765              		@ sp needed
 2766 0030 30BD     		pop	{r4, r5, pc}
 2767              	.LVL335:
 2768              	.L302:
 2769              		.cfi_restore_state
 2770              		.loc 1 1023 0 discriminator 1
 2771 0032 064B     		ldr	r3, .L303
 2772 0034 0093     		str	r3, [sp]
 2773 0036 0649     		ldr	r1, .L303+4
 2774 0038 064A     		ldr	r2, .L303+8
 2775 003a 0748     		ldr	r0, .L303+12
 2776              	.LVL336:
ARM GAS  C:\Users\jo\AppData\Local\Temp\ccT06EVW.s 			page 50


 2777 003c 40F2FF33 		movw	r3, #1023
 2778 0040 FFF7FEFF 		bl	chprintf.constprop.1
 2779              	.LVL337:
 2780              	.LBB185:
 2781              	.LBB186:
 2782              		.loc 3 414 0 discriminator 1
 2783 0044 0348     		ldr	r0, .L303+8
 2784 0046 FFF7FEFF 		bl	chSysHalt
 2785              	.LVL338:
 2786 004a E9E7     		b	.L294
 2787              	.L304:
 2788              		.align	2
 2789              	.L303:
 2790 004c 4C000000 		.word	.LC2
 2791 0050 00000000 		.word	.LC0
 2792 0054 30040000 		.word	.LC35
 2793 0058 00000000 		.word	itm_port
 2794              	.LBE186:
 2795              	.LBE185:
 2796              		.cfi_endproc
 2797              	.LFE272:
 2798              		.size	pbuf_coalesce, .-pbuf_coalesce
 2799 005c AFF30080 		.section	.text.pbuf_get_at,"ax",%progbits
 2800              		.align	2
 2801              		.p2align 4,,15
 2802              		.global	pbuf_get_at
 2803              		.thumb
 2804              		.thumb_func
 2805              		.type	pbuf_get_at, %function
 2806              	pbuf_get_at:
 2807              	.LFB273:
 2808              		.loc 1 1078 0
 2809              		.cfi_startproc
 2810              		@ args = 0, pretend = 0, frame = 0
 2811              		@ frame_needed = 0, uses_anonymous_args = 0
 2812              		@ link register save eliminated.
 2813              	.LVL339:
 2814              		.loc 1 1083 0
 2815 0000 58B1     		cbz	r0, .L312
 2816 0002 4389     		ldrh	r3, [r0, #10]
 2817 0004 9942     		cmp	r1, r3
 2818 0006 03D2     		bcs	.L308
 2819 0008 08E0     		b	.L307
 2820              	.LVL340:
 2821              	.L313:
 2822              		.loc 1 1083 0 is_stmt 0 discriminator 1
 2823 000a 4389     		ldrh	r3, [r0, #10]
 2824 000c 8B42     		cmp	r3, r1
 2825 000e 05D8     		bhi	.L307
 2826              	.L308:
 2827              		.loc 1 1085 0 is_stmt 1
 2828 0010 0068     		ldr	r0, [r0]
 2829              	.LVL341:
 2830              		.loc 1 1084 0
 2831 0012 C91A     		subs	r1, r1, r3
 2832              	.LVL342:
 2833 0014 89B2     		uxth	r1, r1
ARM GAS  C:\Users\jo\AppData\Local\Temp\ccT06EVW.s 			page 51


 2834              	.LVL343:
 2835              		.loc 1 1083 0
 2836 0016 0028     		cmp	r0, #0
 2837 0018 F7D1     		bne	.L313
 2838              	.L312:
 2839              		.loc 1 1092 0
 2840 001a 7047     		bx	lr
 2841              	.L307:
 2842              		.loc 1 1089 0
 2843 001c 4368     		ldr	r3, [r0, #4]
 2844 001e 585C     		ldrb	r0, [r3, r1]	@ zero_extendqisi2
 2845              	.LVL344:
 2846              		.loc 1 1092 0
 2847 0020 7047     		bx	lr
 2848              		.cfi_endproc
 2849              	.LFE273:
 2850              		.size	pbuf_get_at, .-pbuf_get_at
 2851 0022 00BFAFF3 		.section	.text.pbuf_memcmp,"ax",%progbits
 2851      0080AFF3 
 2851      0080AFF3 
 2851      0080
 2852              		.align	2
 2853              		.p2align 4,,15
 2854              		.global	pbuf_memcmp
 2855              		.thumb
 2856              		.thumb_func
 2857              		.type	pbuf_memcmp, %function
 2858              	pbuf_memcmp:
 2859              	.LFB274:
 2860              		.loc 1 1105 0
 2861              		.cfi_startproc
 2862              		@ args = 0, pretend = 0, frame = 0
 2863              		@ frame_needed = 0, uses_anonymous_args = 0
 2864              	.LVL345:
 2865              		.loc 1 1110 0
 2866 0000 0028     		cmp	r0, #0
 2867 0002 3AD0     		beq	.L325
 2868              		.loc 1 1105 0
 2869 0004 F0B5     		push	{r4, r5, r6, r7, lr}
 2870              		.cfi_def_cfa_offset 20
 2871              		.cfi_offset 4, -20
 2872              		.cfi_offset 5, -16
 2873              		.cfi_offset 6, -12
 2874              		.cfi_offset 7, -8
 2875              		.cfi_offset 14, -4
 2876              		.loc 1 1110 0
 2877 0006 4489     		ldrh	r4, [r0, #10]
 2878 0008 A142     		cmp	r1, r4
 2879 000a 03D2     		bcs	.L317
 2880 000c 0AE0     		b	.L316
 2881              	.LVL346:
 2882              	.L335:
 2883              		.loc 1 1110 0 is_stmt 0 discriminator 1
 2884 000e 4489     		ldrh	r4, [r0, #10]
 2885 0010 8C42     		cmp	r4, r1
 2886 0012 07D8     		bhi	.L316
 2887              	.L317:
ARM GAS  C:\Users\jo\AppData\Local\Temp\ccT06EVW.s 			page 52


 2888              		.loc 1 1112 0 is_stmt 1
 2889 0014 0068     		ldr	r0, [r0]
 2890              	.LVL347:
 2891              		.loc 1 1111 0
 2892 0016 0C1B     		subs	r4, r1, r4
 2893 0018 A1B2     		uxth	r1, r4
 2894              	.LVL348:
 2895              		.loc 1 1110 0
 2896 001a 0028     		cmp	r0, #0
 2897 001c F7D1     		bne	.L335
 2898              		.loc 1 1126 0
 2899 001e 4FF6FF70 		movw	r0, #65535
 2900              	.LVL349:
 2901 0022 F0BD     		pop	{r4, r5, r6, r7, pc}
 2902              	.LVL350:
 2903              	.L316:
 2904              	.LBB187:
 2905              		.loc 1 1117 0
 2906 0024 63B3     		cbz	r3, .L328
 2907 0026 4FF0000E 		mov	lr, #0
 2908 002a 02F1FF3C 		add	ip, r2, #-1
 2909 002e 7746     		mov	r7, lr
 2910              	.LVL351:
 2911              	.L323:
 2912 0030 CC19     		adds	r4, r1, r7
 2913 0032 A4B2     		uxth	r4, r4
 2914              	.LVL352:
 2915 0034 0246     		mov	r2, r0
 2916              	.LVL353:
 2917              	.L318:
 2918              	.LBB188:
 2919              	.LBB189:
 2920              	.LBB190:
 2921              		.loc 1 1083 0
 2922 0036 5589     		ldrh	r5, [r2, #10]
 2923 0038 A542     		cmp	r5, r4
 2924              		.loc 1 1084 0
 2925 003a A4EB0506 		sub	r6, r4, r5
 2926              		.loc 1 1083 0
 2927 003e 0FD8     		bhi	.L336
 2928              		.loc 1 1085 0
 2929 0040 1268     		ldr	r2, [r2]
 2930              	.LVL354:
 2931              		.loc 1 1084 0
 2932 0042 B4B2     		uxth	r4, r6
 2933              	.LVL355:
 2934              		.loc 1 1083 0
 2935 0044 002A     		cmp	r2, #0
 2936 0046 F6D1     		bne	.L318
 2937              	.LVL356:
 2938              	.L319:
 2939              	.LBE190:
 2940              	.LBE189:
 2941              		.loc 1 1120 0
 2942 0048 1CF8014F 		ldrb	r4, [ip, #1]!	@ zero_extendqisi2
 2943              	.LVL357:
 2944 004c 9442     		cmp	r4, r2
ARM GAS  C:\Users\jo\AppData\Local\Temp\ccT06EVW.s 			page 53


 2945 004e 0ED1     		bne	.L337
 2946              	.LVL358:
 2947              	.L322:
 2948 0050 0EF1010E 		add	lr, lr, #1
 2949              	.LVL359:
 2950              	.LBE188:
 2951              		.loc 1 1117 0 discriminator 2
 2952 0054 1FFA8EF7 		uxth	r7, lr
 2953              	.LVL360:
 2954 0058 BB42     		cmp	r3, r7
 2955 005a E9D8     		bhi	.L323
 2956              		.loc 1 1124 0
 2957 005c 0020     		movs	r0, #0
 2958              	.LVL361:
 2959 005e F0BD     		pop	{r4, r5, r6, r7, pc}
 2960              	.LVL362:
 2961              	.L336:
 2962              	.LBB197:
 2963              	.LBB194:
 2964              	.LBB191:
 2965              		.loc 1 1088 0
 2966 0060 AC42     		cmp	r4, r5
 2967 0062 07D3     		bcc	.L324
 2968              	.LBE191:
 2969              	.LBE194:
 2970              		.loc 1 1120 0
 2971 0064 1CF8014F 		ldrb	r4, [ip, #1]!	@ zero_extendqisi2
 2972              	.LVL363:
 2973              	.LBB195:
 2974              	.LBB192:
 2975              		.loc 1 1091 0
 2976 0068 0022     		movs	r2, #0
 2977              	.LVL364:
 2978              	.LBE192:
 2979              	.LBE195:
 2980              		.loc 1 1120 0
 2981 006a 9442     		cmp	r4, r2
 2982 006c F0D0     		beq	.L322
 2983              	.L337:
 2984              		.loc 1 1121 0
 2985 006e 0137     		adds	r7, r7, #1
 2986              	.LVL365:
 2987 0070 B8B2     		uxth	r0, r7
 2988              	.LVL366:
 2989 0072 F0BD     		pop	{r4, r5, r6, r7, pc}
 2990              	.LVL367:
 2991              	.L324:
 2992              	.LBB196:
 2993              	.LBB193:
 2994              		.loc 1 1089 0
 2995 0074 5268     		ldr	r2, [r2, #4]
 2996              	.LVL368:
 2997 0076 125D     		ldrb	r2, [r2, r4]	@ zero_extendqisi2
 2998 0078 E6E7     		b	.L319
 2999              	.LVL369:
 3000              	.L325:
 3001              		.cfi_def_cfa_offset 0
ARM GAS  C:\Users\jo\AppData\Local\Temp\ccT06EVW.s 			page 54


 3002              		.cfi_restore 4
 3003              		.cfi_restore 5
 3004              		.cfi_restore 6
 3005              		.cfi_restore 7
 3006              		.cfi_restore 14
 3007              	.LBE193:
 3008              	.LBE196:
 3009              	.LBE197:
 3010              	.LBE187:
 3011              		.loc 1 1126 0
 3012 007a 4FF6FF70 		movw	r0, #65535
 3013              	.LVL370:
 3014              		.loc 1 1127 0
 3015 007e 7047     		bx	lr
 3016              	.LVL371:
 3017              	.L328:
 3018              		.cfi_def_cfa_offset 20
 3019              		.cfi_offset 4, -20
 3020              		.cfi_offset 5, -16
 3021              		.cfi_offset 6, -12
 3022              		.cfi_offset 7, -8
 3023              		.cfi_offset 14, -4
 3024              	.LBB198:
 3025              		.loc 1 1124 0
 3026 0080 1846     		mov	r0, r3
 3027              	.LVL372:
 3028 0082 F0BD     		pop	{r4, r5, r6, r7, pc}
 3029              	.LBE198:
 3030              		.cfi_endproc
 3031              	.LFE274:
 3032              		.size	pbuf_memcmp, .-pbuf_memcmp
 3033 0084 AFF30080 		.section	.text.pbuf_memfind,"ax",%progbits
 3033      AFF30080 
 3033      AFF30080 
 3034              		.align	2
 3035              		.p2align 4,,15
 3036              		.global	pbuf_memfind
 3037              		.thumb
 3038              		.thumb_func
 3039              		.type	pbuf_memfind, %function
 3040              	pbuf_memfind:
 3041              	.LFB275:
 3042              		.loc 1 1141 0
 3043              		.cfi_startproc
 3044              		@ args = 0, pretend = 0, frame = 0
 3045              		@ frame_needed = 0, uses_anonymous_args = 0
 3046              	.LVL373:
 3047 0000 2DE9F041 		push	{r4, r5, r6, r7, r8, lr}
 3048              		.cfi_def_cfa_offset 24
 3049              		.cfi_offset 4, -24
 3050              		.cfi_offset 5, -20
 3051              		.cfi_offset 6, -16
 3052              		.cfi_offset 7, -12
 3053              		.cfi_offset 8, -8
 3054              		.cfi_offset 14, -4
 3055              		.loc 1 1143 0
 3056 0004 0589     		ldrh	r5, [r0, #8]
ARM GAS  C:\Users\jo\AppData\Local\Temp\ccT06EVW.s 			page 55


 3057              	.LVL374:
 3058              		.loc 1 1141 0
 3059 0006 1C46     		mov	r4, r3
 3060              		.loc 1 1144 0
 3061 0008 D318     		adds	r3, r2, r3
 3062              	.LVL375:
 3063 000a 9D42     		cmp	r5, r3
 3064              		.loc 1 1141 0
 3065 000c 0746     		mov	r7, r0
 3066 000e 1646     		mov	r6, r2
 3067              		.loc 1 1144 0
 3068 0010 03DA     		bge	.L346
 3069              	.LVL376:
 3070              	.L342:
 3071              		.loc 1 1154 0
 3072 0012 4FF6FF70 		movw	r0, #65535
 3073 0016 BDE8F081 		pop	{r4, r5, r6, r7, r8, pc}
 3074              	.LVL377:
 3075              	.L346:
 3076              		.loc 1 1143 0 discriminator 1
 3077 001a AD1A     		subs	r5, r5, r2
 3078              	.LVL378:
 3079 001c ADB2     		uxth	r5, r5
 3080              	.LVL379:
 3081              		.loc 1 1145 0 discriminator 1
 3082 001e A542     		cmp	r5, r4
 3083 0020 8846     		mov	r8, r1
 3084 0022 03D2     		bcs	.L340
 3085 0024 F5E7     		b	.L342
 3086              	.LVL380:
 3087              	.L347:
 3088              	.LBB199:
 3089              		.loc 1 1150 0
 3090 0026 9CB2     		uxth	r4, r3
 3091              	.LVL381:
 3092              	.LBE199:
 3093              		.loc 1 1145 0
 3094 0028 A542     		cmp	r5, r4
 3095 002a F2D3     		bcc	.L342
 3096              	.LVL382:
 3097              	.L340:
 3098              	.LBB200:
 3099              		.loc 1 1146 0
 3100 002c 3346     		mov	r3, r6
 3101 002e 3846     		mov	r0, r7
 3102 0030 2146     		mov	r1, r4
 3103 0032 4246     		mov	r2, r8
 3104 0034 FFF7FEFF 		bl	pbuf_memcmp
 3105              	.LVL383:
 3106              		.loc 1 1150 0
 3107 0038 0319     		adds	r3, r0, r4
 3108              		.loc 1 1147 0
 3109 003a 0028     		cmp	r0, #0
 3110 003c F3D1     		bne	.L347
 3111              		.loc 1 1148 0
 3112 003e 2046     		mov	r0, r4
 3113              	.LVL384:
ARM GAS  C:\Users\jo\AppData\Local\Temp\ccT06EVW.s 			page 56


 3114              	.LBE200:
 3115              		.loc 1 1155 0
 3116 0040 BDE8F081 		pop	{r4, r5, r6, r7, r8, pc}
 3117              		.cfi_endproc
 3118              	.LFE275:
 3119              		.size	pbuf_memfind, .-pbuf_memfind
 3120 0044 AFF30080 		.section	.text.pbuf_strstr,"ax",%progbits
 3120      AFF30080 
 3120      AFF30080 
 3121              		.align	2
 3122              		.p2align 4,,15
 3123              		.global	pbuf_strstr
 3124              		.thumb
 3125              		.thumb_func
 3126              		.type	pbuf_strstr, %function
 3127              	pbuf_strstr:
 3128              	.LFB276:
 3129              		.loc 1 1169 0
 3130              		.cfi_startproc
 3131              		@ args = 0, pretend = 0, frame = 0
 3132              		@ frame_needed = 0, uses_anonymous_args = 0
 3133              	.LVL385:
 3134              		.loc 1 1171 0
 3135 0000 09B1     		cbz	r1, .L350
 3136              		.loc 1 1171 0 is_stmt 0 discriminator 1
 3137 0002 0B78     		ldrb	r3, [r1]	@ zero_extendqisi2
 3138 0004 1BB9     		cbnz	r3, .L355
 3139              	.L350:
 3140              		.loc 1 1172 0 is_stmt 1
 3141 0006 4FF6FF73 		movw	r3, #65535
 3142              		.loc 1 1179 0
 3143 000a 1846     		mov	r0, r3
 3144              	.LVL386:
 3145 000c 7047     		bx	lr
 3146              	.LVL387:
 3147              	.L355:
 3148              		.loc 1 1171 0 discriminator 2
 3149 000e 0389     		ldrh	r3, [r0, #8]
 3150              		.loc 1 1169 0 discriminator 2
 3151 0010 70B5     		push	{r4, r5, r6, lr}
 3152              		.cfi_def_cfa_offset 16
 3153              		.cfi_offset 4, -16
 3154              		.cfi_offset 5, -12
 3155              		.cfi_offset 6, -8
 3156              		.cfi_offset 14, -4
 3157              		.loc 1 1171 0 discriminator 2
 3158 0012 4FF6FF76 		movw	r6, #65535
 3159 0016 B342     		cmp	r3, r6
 3160 0018 0AD0     		beq	.L349
 3161 001a 0546     		mov	r5, r0
 3162              		.loc 1 1174 0
 3163 001c 0846     		mov	r0, r1
 3164              	.LVL388:
 3165 001e 0C46     		mov	r4, r1
 3166 0020 FFF7FEFF 		bl	strlen
 3167              	.LVL389:
 3168              		.loc 1 1175 0
ARM GAS  C:\Users\jo\AppData\Local\Temp\ccT06EVW.s 			page 57


 3169 0024 4FF6FE73 		movw	r3, #65534
 3170 0028 9842     		cmp	r0, r3
 3171              		.loc 1 1174 0
 3172 002a 0246     		mov	r2, r0
 3173              	.LVL390:
 3174              		.loc 1 1175 0
 3175 002c 02D9     		bls	.L356
 3176              		.loc 1 1172 0
 3177 002e 3346     		mov	r3, r6
 3178              	.LVL391:
 3179              	.L349:
 3180              		.loc 1 1179 0
 3181 0030 1846     		mov	r0, r3
 3182 0032 70BD     		pop	{r4, r5, r6, pc}
 3183              	.LVL392:
 3184              	.L356:
 3185              		.loc 1 1178 0
 3186 0034 2846     		mov	r0, r5
 3187              	.LVL393:
 3188 0036 2146     		mov	r1, r4
 3189 0038 92B2     		uxth	r2, r2
 3190              	.LVL394:
 3191 003a 0023     		movs	r3, #0
 3192              		.loc 1 1179 0
 3193 003c BDE87040 		pop	{r4, r5, r6, lr}
 3194              		.cfi_restore 14
 3195              		.cfi_restore 6
 3196              		.cfi_restore 5
 3197              		.cfi_restore 4
 3198              		.cfi_def_cfa_offset 0
 3199              	.LVL395:
 3200              		.loc 1 1178 0
 3201 0040 FFF7FEBF 		b	pbuf_memfind
 3202              	.LVL396:
 3203              		.cfi_endproc
 3204              	.LFE276:
 3205              		.size	pbuf_strstr, .-pbuf_strstr
 3206              		.global	pbuf_free_ooseq_pending
 3207 0044 AFF30080 		.section	.rodata.str1.4,"aMS",%progbits,1
 3207      AFF30080 
 3207      AFF30080 
 3208              		.align	2
 3209              	.LC0:
 3210 0000 41737365 		.ascii	"Assertion \"%s\" failed at line %d in %s\012\000"
 3210      7274696F 
 3210      6E202225 
 3210      73222066 
 3210      61696C65 
 3211              	.LC1:
 3212 0028 70627566 		.ascii	"pbuf_alloced_custom: bad pbuf layer\000"
 3212      5F616C6C 
 3212      6F636564 
 3212      5F637573 
 3212      746F6D3A 
 3213              	.LC2:
 3214 004c 2E2E2F2E 		.ascii	"../../../os/ext/lwip-1.4.1/src/core/pbuf.c\000"
 3214      2E2F2E2E 
ARM GAS  C:\Users\jo\AppData\Local\Temp\ccT06EVW.s 			page 58


 3214      2F6F732F 
 3214      6578742F 
 3214      6C776970 
 3215 0077 00       		.space	1
 3216              	.LC3:
 3217 0078 7020213D 		.ascii	"p != NULL\000"
 3217      204E554C 
 3217      4C00
 3218 0082 0000     		.space	2
 3219              	.LC4:
 3220 0084 696E6372 		.ascii	"increment_magnitude <= p->len\000"
 3220      656D656E 
 3220      745F6D61 
 3220      676E6974 
 3220      75646520 
 3221 00a2 0000     		.space	2
 3222              	.LC5:
 3223 00a4 62616420 		.ascii	"bad pbuf type\000"
 3223      70627566 
 3223      20747970 
 3223      6500
 3224 00b2 0000     		.space	2
 3225              	.LC6:
 3226 00b4 70627566 		.ascii	"pbuf_free: sane type\000"
 3226      5F667265 
 3226      653A2073 
 3226      616E6520 
 3226      74797065 
 3227 00c9 000000   		.space	3
 3228              	.LC7:
 3229 00cc 70627566 		.ascii	"pbuf_free: p->ref > 0\000"
 3229      5F667265 
 3229      653A2070 
 3229      2D3E7265 
 3229      66203E20 
 3230 00e2 0000     		.space	2
 3231              	.LC8:
 3232 00e4 70632D3E 		.ascii	"pc->custom_free_function != NULL\000"
 3232      63757374 
 3232      6F6D5F66 
 3232      7265655F 
 3232      66756E63 
 3233 0105 000000   		.space	3
 3234              	.LC9:
 3235 0108 70627566 		.ascii	"pbuf_alloc: bad pbuf layer\000"
 3235      5F616C6C 
 3235      6F633A20 
 3235      62616420 
 3235      70627566 
 3236 0123 00       		.space	1
 3237              	.LC10:
 3238 0124 63686563 		.ascii	"check p->payload + p->len does not overflow pbuf\000"
 3238      6B20702D 
 3238      3E706179 
 3238      6C6F6164 
 3238      202B2070 
 3239 0155 000000   		.space	3
ARM GAS  C:\Users\jo\AppData\Local\Temp\ccT06EVW.s 			page 59


 3240              	.LC11:
 3241 0158 72656D5F 		.ascii	"rem_len < max_u16_t\000"
 3241      6C656E20 
 3241      3C206D61 
 3241      785F7531 
 3241      365F7400 
 3242              	.LC12:
 3243 016c 70627566 		.ascii	"pbuf_alloc: pbuf q->payload properly aligned\000"
 3243      5F616C6C 
 3243      6F633A20 
 3243      70627566 
 3243      20712D3E 
 3244 0199 000000   		.space	3
 3245              	.LC13:
 3246 019c 70627566 		.ascii	"pbuf_alloc: erroneous type\000"
 3246      5F616C6C 
 3246      6F633A20 
 3246      6572726F 
 3246      6E656F75 
 3247 01b7 00       		.space	1
 3248              	.LC14:
 3249 01b8 70627566 		.ascii	"pbuf_realloc: p != NULL\000"
 3249      5F726561 
 3249      6C6C6F63 
 3249      3A207020 
 3249      213D204E 
 3250              	.LC15:
 3251 01d0 70627566 		.ascii	"pbuf_realloc: sane p->type\000"
 3251      5F726561 
 3251      6C6C6F63 
 3251      3A207361 
 3251      6E652070 
 3252 01eb 00       		.space	1
 3253              	.LC16:
 3254 01ec 67726F77 		.ascii	"grow < max_u16_t\000"
 3254      203C206D 
 3254      61785F75 
 3254      31365F74 
 3254      00
 3255 01fd 000000   		.space	3
 3256              	.LC17:
 3257 0200 70627566 		.ascii	"pbuf_realloc: q != NULL\000"
 3257      5F726561 
 3257      6C6C6F63 
 3257      3A207120 
 3257      213D204E 
 3258              	.LC18:
 3259 0218 6D656D5F 		.ascii	"mem_trim returned q == NULL\000"
 3259      7472696D 
 3259      20726574 
 3259      75726E65 
 3259      64207120 
 3260              	.LC19:
 3261 0234 28682021 		.ascii	"(h != NULL) && (t != NULL) (programmer violates API"
 3261      3D204E55 
 3261      4C4C2920 
 3261      26262028 
ARM GAS  C:\Users\jo\AppData\Local\Temp\ccT06EVW.s 			page 60


 3261      7420213D 
 3262 0267 2900     		.ascii	")\000"
 3263 0269 000000   		.space	3
 3264              	.LC20:
 3265 026c 702D3E74 		.ascii	"p->tot_len == p->len (of last pbuf in chain)\000"
 3265      6F745F6C 
 3265      656E203D 
 3265      3D20702D 
 3265      3E6C656E 
 3266 0299 000000   		.space	3
 3267              	.LC21:
 3268 029c 702D3E6E 		.ascii	"p->next == NULL\000"
 3268      65787420 
 3268      3D3D204E 
 3268      554C4C00 
 3269              	.LC22:
 3270 02ac 702D3E74 		.ascii	"p->tot_len == p->len + q->tot_len\000"
 3270      6F745F6C 
 3270      656E203D 
 3270      3D20702D 
 3270      3E6C656E 
 3271 02ce 0000     		.space	2
 3272              	.LC23:
 3273 02d0 702D3E74 		.ascii	"p->tot_len == p->len\000"
 3273      6F745F6C 
 3273      656E203D 
 3273      3D20702D 
 3273      3E6C656E 
 3274 02e5 000000   		.space	3
 3275              	.LC24:
 3276 02e8 70627566 		.ascii	"pbuf_copy: target not big enough to hold source\000"
 3276      5F636F70 
 3276      793A2074 
 3276      61726765 
 3276      74206E6F 
 3277              	.LC25:
 3278 0318 6F666673 		.ascii	"offset_to <= p_to->len\000"
 3278      65745F74 
 3278      6F203C3D 
 3278      20705F74 
 3278      6F2D3E6C 
 3279 032f 00       		.space	1
 3280              	.LC26:
 3281 0330 6F666673 		.ascii	"offset_from <= p_from->len\000"
 3281      65745F66 
 3281      726F6D20 
 3281      3C3D2070 
 3281      5F66726F 
 3282 034b 00       		.space	1
 3283              	.LC27:
 3284 034c 705F746F 		.ascii	"p_to != NULL\000"
 3284      20213D20 
 3284      4E554C4C 
 3284      00
 3285 0359 000000   		.space	3
 3286              	.LC28:
 3287 035c 70627566 		.ascii	"pbuf_copy() does not allow packet queues!\012\000"
ARM GAS  C:\Users\jo\AppData\Local\Temp\ccT06EVW.s 			page 61


 3287      5F636F70 
 3287      79282920 
 3287      646F6573 
 3287      206E6F74 
 3288 0387 00       		.space	1
 3289              	.LC29:
 3290 0388 70627566 		.ascii	"pbuf_copy_partial: invalid buf\000"
 3290      5F636F70 
 3290      795F7061 
 3290      72746961 
 3290      6C3A2069 
 3291 03a7 00       		.space	1
 3292              	.LC30:
 3293 03a8 70627566 		.ascii	"pbuf_copy_partial: invalid dataptr\000"
 3293      5F636F70 
 3293      795F7061 
 3293      72746961 
 3293      6C3A2069 
 3294 03cb 00       		.space	1
 3295              	.LC31:
 3296 03cc 70627566 		.ascii	"pbuf_take: invalid buf\000"
 3296      5F74616B 
 3296      653A2069 
 3296      6E76616C 
 3296      69642062 
 3297 03e3 00       		.space	1
 3298              	.LC32:
 3299 03e4 70627566 		.ascii	"pbuf_take: invalid dataptr\000"
 3299      5F74616B 
 3299      653A2069 
 3299      6E76616C 
 3299      69642064 
 3300 03ff 00       		.space	1
 3301              	.LC33:
 3302 0400 70627566 		.ascii	"pbuf_take: invalid pbuf\000"
 3302      5F74616B 
 3302      653A2069 
 3302      6E76616C 
 3302      69642070 
 3303              	.LC34:
 3304 0418 64696420 		.ascii	"did not copy all data\000"
 3304      6E6F7420 
 3304      636F7079 
 3304      20616C6C 
 3304      20646174 
 3305 042e 0000     		.space	2
 3306              	.LC35:
 3307 0430 70627566 		.ascii	"pbuf_copy failed\000"
 3307      5F636F70 
 3307      79206661 
 3307      696C6564 
 3307      00
 3308 0441 000000   		.section	.bss.pbuf_free_ooseq_pending,"aw",%nobits
 3309              		.set	.LANCHOR0,. + 0
 3310              		.type	pbuf_free_ooseq_pending, %object
 3311              		.size	pbuf_free_ooseq_pending, 1
 3312              	pbuf_free_ooseq_pending:
ARM GAS  C:\Users\jo\AppData\Local\Temp\ccT06EVW.s 			page 62


 3313 0000 00       		.space	1
 3314              		.text
 3315              	.Letext0:
 3316              		.file 4 "c:\\program files\\gnu tools arm embedded\\4.9 2014q4\\lib\\gcc\\arm-none-eabi\\4.9.3\\in
 3317              		.file 5 "c:\\program files\\gnu tools arm embedded\\4.9 2014q4\\arm-none-eabi\\include\\machine\\_
 3318              		.file 6 "c:\\program files\\gnu tools arm embedded\\4.9 2014q4\\arm-none-eabi\\include\\stdint.h"
 3319              		.file 7 "../../../os/rt/ports/ARMCMx/compilers/GCC/chtypes.h"
 3320              		.file 8 "../../../os/rt/include/chsystypes.h"
 3321              		.file 9 "../../../os/rt/include/chschd.h"
 3322              		.file 10 "../../../os/rt/ports/ARMCMx/chcore.h"
 3323              		.file 11 "../../../os/rt/ports/ARMCMx/chcore_v7m.h"
 3324              		.file 12 "c:\\program files\\gnu tools arm embedded\\4.9 2014q4\\lib\\gcc\\arm-none-eabi\\4.9.3\\i
 3325              		.file 13 "<built-in>"
 3326              		.file 14 "../../../os/rt/include/chtm.h"
 3327              		.file 15 "../../../os/rt/include/chmtx.h"
 3328              		.file 16 "../../../os/rt/include/chstreams.h"
 3329              		.file 17 "./ITM_trace.h"
 3330              		.file 18 "../../../os/various/lwip_bindings/arch/cc.h"
 3331              		.file 19 "../../../os/ext/lwip-1.4.1/src/include/lwip/mem.h"
 3332              		.file 20 "../../../os/ext/lwip-1.4.1/src/include/lwip/memp.h"
 3333              		.file 21 "../../../os/ext/lwip-1.4.1/src/include/lwip/err.h"
 3334              		.file 22 "../../../os/ext/lwip-1.4.1/src/include/lwip/pbuf.h"
 3335              		.file 23 "../../../os/ext/lwip-1.4.1/src/include/ipv4/lwip/ip_addr.h"
 3336              		.file 24 "../../../os/ext/lwip-1.4.1/src/include/lwip/tcp.h"
 3337              		.file 25 "../../../os/ext/lwip-1.4.1/src/include/lwip/tcp_impl.h"
 3338              		.file 26 "../../../os/ext/lwip-1.4.1/src/include/lwip/tcpip.h"
 3339              		.file 27 "../../../os/ext/CMSIS/include/core_cm4.h"
 3340              		.file 28 "../../../os/rt/include/chsys.h"
 3341              		.file 29 "c:\\program files\\gnu tools arm embedded\\4.9 2014q4\\arm-none-eabi\\include\\string.h"
 3342              		.section	.debug_info,"",%progbits
 3343              	.Ldebug_info0:
 3344 0000 4D290000 		.4byte	0x294d
 3345 0004 0400     		.2byte	0x4
 3346 0006 00000000 		.4byte	.Ldebug_abbrev0
 3347 000a 04       		.byte	0x4
 3348 000b 01       		.uleb128 0x1
 3349 000c B20B0000 		.4byte	.LASF299
 3350 0010 01       		.byte	0x1
 3351 0011 5F040000 		.4byte	.LASF300
 3352 0015 DF000000 		.4byte	.LASF301
 3353 0019 D8000000 		.4byte	.Ldebug_ranges0+0xd8
 3354 001d 00000000 		.4byte	0
 3355 0021 00000000 		.4byte	.Ldebug_line0
 3356 0025 02       		.uleb128 0x2
 3357 0026 04       		.byte	0x4
 3358 0027 05       		.byte	0x5
 3359 0028 696E7400 		.ascii	"int\000"
 3360 002c 03       		.uleb128 0x3
 3361 002d F0030000 		.4byte	.LASF1
 3362 0031 04       		.byte	0x4
 3363 0032 D4       		.byte	0xd4
 3364 0033 37000000 		.4byte	0x37
 3365 0037 04       		.uleb128 0x4
 3366 0038 04       		.byte	0x4
 3367 0039 07       		.byte	0x7
 3368 003a 27010000 		.4byte	.LASF0
 3369 003e 03       		.uleb128 0x3
ARM GAS  C:\Users\jo\AppData\Local\Temp\ccT06EVW.s 			page 63


 3370 003f 0F0D0000 		.4byte	.LASF2
 3371 0043 05       		.byte	0x5
 3372 0044 1B       		.byte	0x1b
 3373 0045 49000000 		.4byte	0x49
 3374 0049 04       		.uleb128 0x4
 3375 004a 01       		.byte	0x1
 3376 004b 06       		.byte	0x6
 3377 004c CB0C0000 		.4byte	.LASF3
 3378 0050 03       		.uleb128 0x3
 3379 0051 6F090000 		.4byte	.LASF4
 3380 0055 05       		.byte	0x5
 3381 0056 1D       		.byte	0x1d
 3382 0057 5B000000 		.4byte	0x5b
 3383 005b 04       		.uleb128 0x4
 3384 005c 01       		.byte	0x1
 3385 005d 08       		.byte	0x8
 3386 005e AC0A0000 		.4byte	.LASF5
 3387 0062 03       		.uleb128 0x3
 3388 0063 CB060000 		.4byte	.LASF6
 3389 0067 05       		.byte	0x5
 3390 0068 29       		.byte	0x29
 3391 0069 6D000000 		.4byte	0x6d
 3392 006d 04       		.uleb128 0x4
 3393 006e 02       		.byte	0x2
 3394 006f 05       		.byte	0x5
 3395 0070 30080000 		.4byte	.LASF7
 3396 0074 03       		.uleb128 0x3
 3397 0075 46030000 		.4byte	.LASF8
 3398 0079 05       		.byte	0x5
 3399 007a 2B       		.byte	0x2b
 3400 007b 7F000000 		.4byte	0x7f
 3401 007f 04       		.uleb128 0x4
 3402 0080 02       		.byte	0x2
 3403 0081 07       		.byte	0x7
 3404 0082 DF0C0000 		.4byte	.LASF9
 3405 0086 03       		.uleb128 0x3
 3406 0087 9B010000 		.4byte	.LASF10
 3407 008b 05       		.byte	0x5
 3408 008c 3F       		.byte	0x3f
 3409 008d 91000000 		.4byte	0x91
 3410 0091 04       		.uleb128 0x4
 3411 0092 04       		.byte	0x4
 3412 0093 05       		.byte	0x5
 3413 0094 57080000 		.4byte	.LASF11
 3414 0098 03       		.uleb128 0x3
 3415 0099 C4050000 		.4byte	.LASF12
 3416 009d 05       		.byte	0x5
 3417 009e 41       		.byte	0x41
 3418 009f A3000000 		.4byte	0xa3
 3419 00a3 04       		.uleb128 0x4
 3420 00a4 04       		.byte	0x4
 3421 00a5 07       		.byte	0x7
 3422 00a6 190A0000 		.4byte	.LASF13
 3423 00aa 04       		.uleb128 0x4
 3424 00ab 08       		.byte	0x8
 3425 00ac 05       		.byte	0x5
 3426 00ad 94050000 		.4byte	.LASF14
ARM GAS  C:\Users\jo\AppData\Local\Temp\ccT06EVW.s 			page 64


 3427 00b1 03       		.uleb128 0x3
 3428 00b2 54040000 		.4byte	.LASF15
 3429 00b6 05       		.byte	0x5
 3430 00b7 5B       		.byte	0x5b
 3431 00b8 BC000000 		.4byte	0xbc
 3432 00bc 04       		.uleb128 0x4
 3433 00bd 08       		.byte	0x8
 3434 00be 07       		.byte	0x7
 3435 00bf 1B030000 		.4byte	.LASF16
 3436 00c3 03       		.uleb128 0x3
 3437 00c4 B3040000 		.4byte	.LASF17
 3438 00c8 06       		.byte	0x6
 3439 00c9 14       		.byte	0x14
 3440 00ca 3E000000 		.4byte	0x3e
 3441 00ce 03       		.uleb128 0x3
 3442 00cf D4050000 		.4byte	.LASF18
 3443 00d3 06       		.byte	0x6
 3444 00d4 15       		.byte	0x15
 3445 00d5 50000000 		.4byte	0x50
 3446 00d9 03       		.uleb128 0x3
 3447 00da 0B030000 		.4byte	.LASF19
 3448 00de 06       		.byte	0x6
 3449 00df 20       		.byte	0x20
 3450 00e0 62000000 		.4byte	0x62
 3451 00e4 03       		.uleb128 0x3
 3452 00e5 CF070000 		.4byte	.LASF20
 3453 00e9 06       		.byte	0x6
 3454 00ea 21       		.byte	0x21
 3455 00eb 74000000 		.4byte	0x74
 3456 00ef 03       		.uleb128 0x3
 3457 00f0 450A0000 		.4byte	.LASF21
 3458 00f4 06       		.byte	0x6
 3459 00f5 2C       		.byte	0x2c
 3460 00f6 86000000 		.4byte	0x86
 3461 00fa 03       		.uleb128 0x3
 3462 00fb 7E020000 		.4byte	.LASF22
 3463 00ff 06       		.byte	0x6
 3464 0100 2D       		.byte	0x2d
 3465 0101 98000000 		.4byte	0x98
 3466 0105 03       		.uleb128 0x3
 3467 0106 1A090000 		.4byte	.LASF23
 3468 010a 06       		.byte	0x6
 3469 010b 39       		.byte	0x39
 3470 010c B1000000 		.4byte	0xb1
 3471 0110 05       		.uleb128 0x5
 3472 0111 EF000000 		.4byte	0xef
 3473 0115 03       		.uleb128 0x3
 3474 0116 EE070000 		.4byte	.LASF24
 3475 011a 07       		.byte	0x7
 3476 011b 45       		.byte	0x45
 3477 011c FA000000 		.4byte	0xfa
 3478 0120 03       		.uleb128 0x3
 3479 0121 A0070000 		.4byte	.LASF25
 3480 0125 07       		.byte	0x7
 3481 0126 48       		.byte	0x48
 3482 0127 CE000000 		.4byte	0xce
 3483 012b 03       		.uleb128 0x3
ARM GAS  C:\Users\jo\AppData\Local\Temp\ccT06EVW.s 			page 65


 3484 012c 75050000 		.4byte	.LASF26
 3485 0130 07       		.byte	0x7
 3486 0131 49       		.byte	0x49
 3487 0132 CE000000 		.4byte	0xce
 3488 0136 03       		.uleb128 0x3
 3489 0137 110A0000 		.4byte	.LASF27
 3490 013b 07       		.byte	0x7
 3491 013c 4A       		.byte	0x4a
 3492 013d CE000000 		.4byte	0xce
 3493 0141 03       		.uleb128 0x3
 3494 0142 E1020000 		.4byte	.LASF28
 3495 0146 07       		.byte	0x7
 3496 0147 4C       		.byte	0x4c
 3497 0148 FA000000 		.4byte	0xfa
 3498 014c 03       		.uleb128 0x3
 3499 014d A5060000 		.4byte	.LASF29
 3500 0151 07       		.byte	0x7
 3501 0152 4D       		.byte	0x4d
 3502 0153 EF000000 		.4byte	0xef
 3503 0157 03       		.uleb128 0x3
 3504 0158 99020000 		.4byte	.LASF30
 3505 015c 07       		.byte	0x7
 3506 015d 4F       		.byte	0x4f
 3507 015e FA000000 		.4byte	0xfa
 3508 0162 03       		.uleb128 0x3
 3509 0163 C3000000 		.4byte	.LASF31
 3510 0167 08       		.byte	0x8
 3511 0168 33       		.byte	0x33
 3512 0169 FA000000 		.4byte	0xfa
 3513 016d 03       		.uleb128 0x3
 3514 016e C1030000 		.4byte	.LASF32
 3515 0172 08       		.byte	0x8
 3516 0173 3F       		.byte	0x3f
 3517 0174 78010000 		.4byte	0x178
 3518 0178 06       		.uleb128 0x6
 3519 0179 21060000 		.4byte	.LASF51
 3520 017d 44       		.byte	0x44
 3521 017e 09       		.byte	0x9
 3522 017f BE       		.byte	0xbe
 3523 0180 65020000 		.4byte	0x265
 3524 0184 07       		.uleb128 0x7
 3525 0185 CA030000 		.4byte	.LASF33
 3526 0189 09       		.byte	0x9
 3527 018a BF       		.byte	0xbf
 3528 018b 43060000 		.4byte	0x643
 3529 018f 00       		.byte	0
 3530 0190 07       		.uleb128 0x7
 3531 0191 FC090000 		.4byte	.LASF34
 3532 0195 09       		.byte	0x9
 3533 0196 C1       		.byte	0xc1
 3534 0197 43060000 		.4byte	0x643
 3535 019b 04       		.byte	0x4
 3536 019c 07       		.uleb128 0x7
 3537 019d 7E000000 		.4byte	.LASF35
 3538 01a1 09       		.byte	0x9
 3539 01a2 C3       		.byte	0xc3
 3540 01a3 41010000 		.4byte	0x141
ARM GAS  C:\Users\jo\AppData\Local\Temp\ccT06EVW.s 			page 66


 3541 01a7 08       		.byte	0x8
 3542 01a8 07       		.uleb128 0x7
 3543 01a9 23090000 		.4byte	.LASF36
 3544 01ad 09       		.byte	0x9
 3545 01ae C4       		.byte	0xc4
 3546 01af 8F040000 		.4byte	0x48f
 3547 01b3 0C       		.byte	0xc
 3548 01b4 07       		.uleb128 0x7
 3549 01b5 69030000 		.4byte	.LASF37
 3550 01b9 09       		.byte	0x9
 3551 01ba C6       		.byte	0xc6
 3552 01bb 43060000 		.4byte	0x643
 3553 01bf 10       		.byte	0x10
 3554 01c0 07       		.uleb128 0x7
 3555 01c1 B4050000 		.4byte	.LASF38
 3556 01c5 09       		.byte	0x9
 3557 01c6 C7       		.byte	0xc7
 3558 01c7 43060000 		.4byte	0x643
 3559 01cb 14       		.byte	0x14
 3560 01cc 07       		.uleb128 0x7
 3561 01cd C8070000 		.4byte	.LASF39
 3562 01d1 09       		.byte	0x9
 3563 01d2 CE       		.byte	0xce
 3564 01d3 18060000 		.4byte	0x618
 3565 01d7 18       		.byte	0x18
 3566 01d8 07       		.uleb128 0x7
 3567 01d9 BC050000 		.4byte	.LASF40
 3568 01dd 09       		.byte	0x9
 3569 01de D9       		.byte	0xd9
 3570 01df 2B010000 		.4byte	0x12b
 3571 01e3 1C       		.byte	0x1c
 3572 01e4 07       		.uleb128 0x7
 3573 01e5 BD060000 		.4byte	.LASF41
 3574 01e9 09       		.byte	0x9
 3575 01ea DD       		.byte	0xdd
 3576 01eb 20010000 		.4byte	0x120
 3577 01ef 1D       		.byte	0x1d
 3578 01f0 07       		.uleb128 0x7
 3579 01f1 E60A0000 		.4byte	.LASF42
 3580 01f5 09       		.byte	0x9
 3581 01f6 E2       		.byte	0xe2
 3582 01f7 36010000 		.4byte	0x136
 3583 01fb 1E       		.byte	0x1e
 3584 01fc 08       		.uleb128 0x8
 3585 01fd 705F7500 		.ascii	"p_u\000"
 3586 0201 09       		.byte	0x9
 3587 0202 1401     		.2byte	0x114
 3588 0204 49060000 		.4byte	0x649
 3589 0208 20       		.byte	0x20
 3590 0209 09       		.uleb128 0x9
 3591 020a 91010000 		.4byte	.LASF43
 3592 020e 09       		.byte	0x9
 3593 020f 1901     		.2byte	0x119
 3594 0211 65020000 		.4byte	0x265
 3595 0215 24       		.byte	0x24
 3596 0216 09       		.uleb128 0x9
 3597 0217 180D0000 		.4byte	.LASF44
ARM GAS  C:\Users\jo\AppData\Local\Temp\ccT06EVW.s 			page 67


 3598 021b 09       		.byte	0x9
 3599 021c 1F01     		.2byte	0x11f
 3600 021e 89020000 		.4byte	0x289
 3601 0222 28       		.byte	0x28
 3602 0223 09       		.uleb128 0x9
 3603 0224 81070000 		.4byte	.LASF45
 3604 0228 09       		.byte	0x9
 3605 0229 2301     		.2byte	0x123
 3606 022b 4C010000 		.4byte	0x14c
 3607 022f 30       		.byte	0x30
 3608 0230 09       		.uleb128 0x9
 3609 0231 44080000 		.4byte	.LASF46
 3610 0235 09       		.byte	0x9
 3611 0236 2901     		.2byte	0x129
 3612 0238 57010000 		.4byte	0x157
 3613 023c 34       		.byte	0x34
 3614 023d 09       		.uleb128 0x9
 3615 023e F4050000 		.4byte	.LASF47
 3616 0242 09       		.byte	0x9
 3617 0243 3001     		.2byte	0x130
 3618 0245 B2060000 		.4byte	0x6b2
 3619 0249 38       		.byte	0x38
 3620 024a 09       		.uleb128 0x9
 3621 024b 18080000 		.4byte	.LASF48
 3622 024f 09       		.byte	0x9
 3623 0250 3401     		.2byte	0x134
 3624 0252 41010000 		.4byte	0x141
 3625 0256 3C       		.byte	0x3c
 3626 0257 09       		.uleb128 0x9
 3627 0258 EC050000 		.4byte	.LASF49
 3628 025c 09       		.byte	0x9
 3629 025d 3A01     		.2byte	0x13a
 3630 025f 3C030000 		.4byte	0x33c
 3631 0263 40       		.byte	0x40
 3632 0264 00       		.byte	0
 3633 0265 03       		.uleb128 0x3
 3634 0266 6F010000 		.4byte	.LASF50
 3635 026a 08       		.byte	0x8
 3636 026b 44       		.byte	0x44
 3637 026c 70020000 		.4byte	0x270
 3638 0270 06       		.uleb128 0x6
 3639 0271 00000000 		.4byte	.LASF52
 3640 0275 04       		.byte	0x4
 3641 0276 09       		.byte	0x9
 3642 0277 AC       		.byte	0xac
 3643 0278 89020000 		.4byte	0x289
 3644 027c 07       		.uleb128 0x7
 3645 027d CA030000 		.4byte	.LASF33
 3646 0281 09       		.byte	0x9
 3647 0282 AD       		.byte	0xad
 3648 0283 43060000 		.4byte	0x643
 3649 0287 00       		.byte	0
 3650 0288 00       		.byte	0
 3651 0289 03       		.uleb128 0x3
 3652 028a 10000000 		.4byte	.LASF53
 3653 028e 08       		.byte	0x8
 3654 028f 4B       		.byte	0x4b
ARM GAS  C:\Users\jo\AppData\Local\Temp\ccT06EVW.s 			page 68


 3655 0290 94020000 		.4byte	0x294
 3656 0294 06       		.uleb128 0x6
 3657 0295 64060000 		.4byte	.LASF54
 3658 0299 08       		.byte	0x8
 3659 029a 09       		.byte	0x9
 3660 029b B3       		.byte	0xb3
 3661 029c B9020000 		.4byte	0x2b9
 3662 02a0 07       		.uleb128 0x7
 3663 02a1 CA030000 		.4byte	.LASF33
 3664 02a5 09       		.byte	0x9
 3665 02a6 B4       		.byte	0xb4
 3666 02a7 43060000 		.4byte	0x643
 3667 02ab 00       		.byte	0
 3668 02ac 07       		.uleb128 0x7
 3669 02ad FC090000 		.4byte	.LASF34
 3670 02b1 09       		.byte	0x9
 3671 02b2 B5       		.byte	0xb5
 3672 02b3 43060000 		.4byte	0x643
 3673 02b7 04       		.byte	0x4
 3674 02b8 00       		.byte	0
 3675 02b9 03       		.uleb128 0x3
 3676 02ba 2B0A0000 		.4byte	.LASF55
 3677 02be 08       		.byte	0x8
 3678 02bf 52       		.byte	0x52
 3679 02c0 C4020000 		.4byte	0x2c4
 3680 02c4 0A       		.uleb128 0xa
 3681 02c5 DD010000 		.4byte	.LASF56
 3682 02c9 1C       		.byte	0x1c
 3683 02ca 09       		.byte	0x9
 3684 02cb 7201     		.2byte	0x172
 3685 02cd 20030000 		.4byte	0x320
 3686 02d1 09       		.uleb128 0x9
 3687 02d2 81060000 		.4byte	.LASF57
 3688 02d6 09       		.byte	0x9
 3689 02d7 7301     		.2byte	0x173
 3690 02d9 89020000 		.4byte	0x289
 3691 02dd 00       		.byte	0
 3692 02de 09       		.uleb128 0x9
 3693 02df 9A0D0000 		.4byte	.LASF58
 3694 02e3 09       		.byte	0x9
 3695 02e4 7401     		.2byte	0x174
 3696 02e6 41010000 		.4byte	0x141
 3697 02ea 08       		.byte	0x8
 3698 02eb 09       		.uleb128 0x9
 3699 02ec F20C0000 		.4byte	.LASF59
 3700 02f0 09       		.byte	0x9
 3701 02f1 7601     		.2byte	0x176
 3702 02f3 8F040000 		.4byte	0x48f
 3703 02f7 0C       		.byte	0xc
 3704 02f8 09       		.uleb128 0x9
 3705 02f9 3B050000 		.4byte	.LASF60
 3706 02fd 09       		.byte	0x9
 3707 02fe 7901     		.2byte	0x179
 3708 0300 43060000 		.4byte	0x643
 3709 0304 10       		.byte	0x10
 3710 0305 09       		.uleb128 0x9
 3711 0306 36070000 		.4byte	.LASF61
ARM GAS  C:\Users\jo\AppData\Local\Temp\ccT06EVW.s 			page 69


 3712 030a 09       		.byte	0x9
 3713 030b 7A01     		.2byte	0x17a
 3714 030d 43060000 		.4byte	0x643
 3715 0311 14       		.byte	0x14
 3716 0312 09       		.uleb128 0x9
 3717 0313 3A080000 		.4byte	.LASF62
 3718 0317 09       		.byte	0x9
 3719 0318 7D01     		.2byte	0x17d
 3720 031a 43060000 		.4byte	0x643
 3721 031e 18       		.byte	0x18
 3722 031f 00       		.byte	0
 3723 0320 03       		.uleb128 0x3
 3724 0321 24020000 		.4byte	.LASF63
 3725 0325 08       		.byte	0x8
 3726 0326 57       		.byte	0x57
 3727 0327 2B030000 		.4byte	0x32b
 3728 032b 0B       		.uleb128 0xb
 3729 032c 04       		.byte	0x4
 3730 032d 31030000 		.4byte	0x331
 3731 0331 0C       		.uleb128 0xc
 3732 0332 3C030000 		.4byte	0x33c
 3733 0336 0D       		.uleb128 0xd
 3734 0337 3C030000 		.4byte	0x33c
 3735 033b 00       		.byte	0
 3736 033c 0E       		.uleb128 0xe
 3737 033d 04       		.byte	0x4
 3738 033e 03       		.uleb128 0x3
 3739 033f DA060000 		.4byte	.LASF64
 3740 0343 08       		.byte	0x8
 3741 0344 5C       		.byte	0x5c
 3742 0345 49030000 		.4byte	0x349
 3743 0349 0A       		.uleb128 0xa
 3744 034a FA020000 		.4byte	.LASF65
 3745 034e 14       		.byte	0x14
 3746 034f 09       		.byte	0x9
 3747 0350 4D01     		.2byte	0x14d
 3748 0352 98030000 		.4byte	0x398
 3749 0356 09       		.uleb128 0x9
 3750 0357 6F0B0000 		.4byte	.LASF66
 3751 035b 09       		.byte	0x9
 3752 035c 4E01     		.2byte	0x14e
 3753 035e B8060000 		.4byte	0x6b8
 3754 0362 00       		.byte	0
 3755 0363 09       		.uleb128 0x9
 3756 0364 410D0000 		.4byte	.LASF67
 3757 0368 09       		.byte	0x9
 3758 0369 4F01     		.2byte	0x14f
 3759 036b B8060000 		.4byte	0x6b8
 3760 036f 04       		.byte	0x4
 3761 0370 09       		.uleb128 0x9
 3762 0371 0E050000 		.4byte	.LASF68
 3763 0375 09       		.byte	0x9
 3764 0376 5001     		.2byte	0x150
 3765 0378 62010000 		.4byte	0x162
 3766 037c 08       		.byte	0x8
 3767 037d 09       		.uleb128 0x9
 3768 037e 390D0000 		.4byte	.LASF69
ARM GAS  C:\Users\jo\AppData\Local\Temp\ccT06EVW.s 			page 70


 3769 0382 09       		.byte	0x9
 3770 0383 5101     		.2byte	0x151
 3771 0385 20030000 		.4byte	0x320
 3772 0389 0C       		.byte	0xc
 3773 038a 09       		.uleb128 0x9
 3774 038b 9B0A0000 		.4byte	.LASF70
 3775 038f 09       		.byte	0x9
 3776 0390 5301     		.2byte	0x153
 3777 0392 3C030000 		.4byte	0x33c
 3778 0396 10       		.byte	0x10
 3779 0397 00       		.byte	0
 3780 0398 03       		.uleb128 0x3
 3781 0399 D00A0000 		.4byte	.LASF71
 3782 039d 08       		.byte	0x8
 3783 039e 61       		.byte	0x61
 3784 039f A3030000 		.4byte	0x3a3
 3785 03a3 0A       		.uleb128 0xa
 3786 03a4 71030000 		.4byte	.LASF72
 3787 03a8 10       		.byte	0x10
 3788 03a9 09       		.byte	0x9
 3789 03aa 5D01     		.2byte	0x15d
 3790 03ac E5030000 		.4byte	0x3e5
 3791 03b0 09       		.uleb128 0x9
 3792 03b1 6F0B0000 		.4byte	.LASF66
 3793 03b5 09       		.byte	0x9
 3794 03b6 5E01     		.2byte	0x15e
 3795 03b8 B8060000 		.4byte	0x6b8
 3796 03bc 00       		.byte	0
 3797 03bd 09       		.uleb128 0x9
 3798 03be 410D0000 		.4byte	.LASF67
 3799 03c2 09       		.byte	0x9
 3800 03c3 6001     		.2byte	0x160
 3801 03c5 B8060000 		.4byte	0x6b8
 3802 03c9 04       		.byte	0x4
 3803 03ca 09       		.uleb128 0x9
 3804 03cb 0E050000 		.4byte	.LASF68
 3805 03cf 09       		.byte	0x9
 3806 03d0 6201     		.2byte	0x162
 3807 03d2 62010000 		.4byte	0x162
 3808 03d6 08       		.byte	0x8
 3809 03d7 09       		.uleb128 0x9
 3810 03d8 4F050000 		.4byte	.LASF73
 3811 03dc 09       		.byte	0x9
 3812 03dd 6A01     		.2byte	0x16a
 3813 03df 62010000 		.4byte	0x162
 3814 03e3 0C       		.byte	0xc
 3815 03e4 00       		.byte	0
 3816 03e5 03       		.uleb128 0x3
 3817 03e6 3D060000 		.4byte	.LASF74
 3818 03ea 08       		.byte	0x8
 3819 03eb 66       		.byte	0x66
 3820 03ec F0030000 		.4byte	0x3f0
 3821 03f0 0A       		.uleb128 0xa
 3822 03f1 34020000 		.4byte	.LASF75
 3823 03f5 04       		.byte	0x4
 3824 03f6 09       		.byte	0x9
 3825 03f7 8401     		.2byte	0x184
ARM GAS  C:\Users\jo\AppData\Local\Temp\ccT06EVW.s 			page 71


 3826 03f9 0B040000 		.4byte	0x40b
 3827 03fd 09       		.uleb128 0x9
 3828 03fe FA0A0000 		.4byte	.LASF76
 3829 0402 09       		.byte	0x9
 3830 0403 8C01     		.2byte	0x18c
 3831 0405 BE060000 		.4byte	0x6be
 3832 0409 00       		.byte	0
 3833 040a 00       		.byte	0
 3834 040b 03       		.uleb128 0x3
 3835 040c 900B0000 		.4byte	.LASF77
 3836 0410 08       		.byte	0x8
 3837 0411 6B       		.byte	0x6b
 3838 0412 16040000 		.4byte	0x416
 3839 0416 0F       		.uleb128 0xf
 3840 0417 D4080000 		.4byte	.LASF78
 3841 041b D801     		.2byte	0x1d8
 3842 041d 09       		.byte	0x9
 3843 041e A401     		.2byte	0x1a4
 3844 0420 72040000 		.4byte	0x472
 3845 0424 09       		.uleb128 0x9
 3846 0425 29090000 		.4byte	.LASF79
 3847 0429 09       		.byte	0x9
 3848 042a A801     		.2byte	0x1a8
 3849 042c B9020000 		.4byte	0x2b9
 3850 0430 00       		.byte	0
 3851 0431 09       		.uleb128 0x9
 3852 0432 C3010000 		.4byte	.LASF80
 3853 0436 09       		.byte	0x9
 3854 0437 AC01     		.2byte	0x1ac
 3855 0439 98030000 		.4byte	0x398
 3856 043d 1C       		.byte	0x1c
 3857 043e 08       		.uleb128 0x8
 3858 043f 64626700 		.ascii	"dbg\000"
 3859 0443 09       		.byte	0x9
 3860 0444 B001     		.2byte	0x1b0
 3861 0446 E5030000 		.4byte	0x3e5
 3862 044a 2C       		.byte	0x2c
 3863 044b 09       		.uleb128 0x9
 3864 044c 3F0B0000 		.4byte	.LASF81
 3865 0450 09       		.byte	0x9
 3866 0451 B401     		.2byte	0x1b4
 3867 0453 6D010000 		.4byte	0x16d
 3868 0457 30       		.byte	0x30
 3869 0458 08       		.uleb128 0x8
 3870 0459 746D00   		.ascii	"tm\000"
 3871 045c 09       		.byte	0x9
 3872 045d B901     		.2byte	0x1b9
 3873 045f 38060000 		.4byte	0x638
 3874 0463 74       		.byte	0x74
 3875 0464 09       		.uleb128 0x9
 3876 0465 4D0A0000 		.4byte	.LASF82
 3877 0469 09       		.byte	0x9
 3878 046a C501     		.2byte	0x1c5
 3879 046c C3060000 		.4byte	0x6c3
 3880 0470 78       		.byte	0x78
 3881 0471 00       		.byte	0
 3882 0472 04       		.uleb128 0x4
ARM GAS  C:\Users\jo\AppData\Local\Temp\ccT06EVW.s 			page 72


 3883 0473 04       		.byte	0x4
 3884 0474 07       		.byte	0x7
 3885 0475 080A0000 		.4byte	.LASF83
 3886 0479 03       		.uleb128 0x3
 3887 047a 6E000000 		.4byte	.LASF84
 3888 047e 0A       		.byte	0xa
 3889 047f 85       		.byte	0x85
 3890 0480 3C030000 		.4byte	0x33c
 3891 0484 03       		.uleb128 0x3
 3892 0485 2F0B0000 		.4byte	.LASF85
 3893 0489 0A       		.byte	0xa
 3894 048a 8D       		.byte	0x8d
 3895 048b 05010000 		.4byte	0x105
 3896 048f 06       		.uleb128 0x6
 3897 0490 D4090000 		.4byte	.LASF86
 3898 0494 04       		.byte	0x4
 3899 0495 0A       		.byte	0xa
 3900 0496 A9       		.byte	0xa9
 3901 0497 A8040000 		.4byte	0x4a8
 3902 049b 10       		.uleb128 0x10
 3903 049c 72313300 		.ascii	"r13\000"
 3904 04a0 0A       		.byte	0xa
 3905 04a1 AA       		.byte	0xaa
 3906 04a2 E9050000 		.4byte	0x5e9
 3907 04a6 00       		.byte	0
 3908 04a7 00       		.byte	0
 3909 04a8 06       		.uleb128 0x6
 3910 04a9 60080000 		.4byte	.LASF87
 3911 04ad 64       		.byte	0x64
 3912 04ae 0B       		.byte	0xb
 3913 04af F4       		.byte	0xf4
 3914 04b0 E9050000 		.4byte	0x5e9
 3915 04b4 10       		.uleb128 0x10
 3916 04b5 73313600 		.ascii	"s16\000"
 3917 04b9 0B       		.byte	0xb
 3918 04ba F6       		.byte	0xf6
 3919 04bb 79040000 		.4byte	0x479
 3920 04bf 00       		.byte	0
 3921 04c0 10       		.uleb128 0x10
 3922 04c1 73313700 		.ascii	"s17\000"
 3923 04c5 0B       		.byte	0xb
 3924 04c6 F7       		.byte	0xf7
 3925 04c7 79040000 		.4byte	0x479
 3926 04cb 04       		.byte	0x4
 3927 04cc 10       		.uleb128 0x10
 3928 04cd 73313800 		.ascii	"s18\000"
 3929 04d1 0B       		.byte	0xb
 3930 04d2 F8       		.byte	0xf8
 3931 04d3 79040000 		.4byte	0x479
 3932 04d7 08       		.byte	0x8
 3933 04d8 10       		.uleb128 0x10
 3934 04d9 73313900 		.ascii	"s19\000"
 3935 04dd 0B       		.byte	0xb
 3936 04de F9       		.byte	0xf9
 3937 04df 79040000 		.4byte	0x479
 3938 04e3 0C       		.byte	0xc
 3939 04e4 10       		.uleb128 0x10
ARM GAS  C:\Users\jo\AppData\Local\Temp\ccT06EVW.s 			page 73


 3940 04e5 73323000 		.ascii	"s20\000"
 3941 04e9 0B       		.byte	0xb
 3942 04ea FA       		.byte	0xfa
 3943 04eb 79040000 		.4byte	0x479
 3944 04ef 10       		.byte	0x10
 3945 04f0 10       		.uleb128 0x10
 3946 04f1 73323100 		.ascii	"s21\000"
 3947 04f5 0B       		.byte	0xb
 3948 04f6 FB       		.byte	0xfb
 3949 04f7 79040000 		.4byte	0x479
 3950 04fb 14       		.byte	0x14
 3951 04fc 10       		.uleb128 0x10
 3952 04fd 73323200 		.ascii	"s22\000"
 3953 0501 0B       		.byte	0xb
 3954 0502 FC       		.byte	0xfc
 3955 0503 79040000 		.4byte	0x479
 3956 0507 18       		.byte	0x18
 3957 0508 10       		.uleb128 0x10
 3958 0509 73323300 		.ascii	"s23\000"
 3959 050d 0B       		.byte	0xb
 3960 050e FD       		.byte	0xfd
 3961 050f 79040000 		.4byte	0x479
 3962 0513 1C       		.byte	0x1c
 3963 0514 10       		.uleb128 0x10
 3964 0515 73323400 		.ascii	"s24\000"
 3965 0519 0B       		.byte	0xb
 3966 051a FE       		.byte	0xfe
 3967 051b 79040000 		.4byte	0x479
 3968 051f 20       		.byte	0x20
 3969 0520 10       		.uleb128 0x10
 3970 0521 73323500 		.ascii	"s25\000"
 3971 0525 0B       		.byte	0xb
 3972 0526 FF       		.byte	0xff
 3973 0527 79040000 		.4byte	0x479
 3974 052b 24       		.byte	0x24
 3975 052c 08       		.uleb128 0x8
 3976 052d 73323600 		.ascii	"s26\000"
 3977 0531 0B       		.byte	0xb
 3978 0532 0001     		.2byte	0x100
 3979 0534 79040000 		.4byte	0x479
 3980 0538 28       		.byte	0x28
 3981 0539 08       		.uleb128 0x8
 3982 053a 73323700 		.ascii	"s27\000"
 3983 053e 0B       		.byte	0xb
 3984 053f 0101     		.2byte	0x101
 3985 0541 79040000 		.4byte	0x479
 3986 0545 2C       		.byte	0x2c
 3987 0546 08       		.uleb128 0x8
 3988 0547 73323800 		.ascii	"s28\000"
 3989 054b 0B       		.byte	0xb
 3990 054c 0201     		.2byte	0x102
 3991 054e 79040000 		.4byte	0x479
 3992 0552 30       		.byte	0x30
 3993 0553 08       		.uleb128 0x8
 3994 0554 73323900 		.ascii	"s29\000"
 3995 0558 0B       		.byte	0xb
 3996 0559 0301     		.2byte	0x103
ARM GAS  C:\Users\jo\AppData\Local\Temp\ccT06EVW.s 			page 74


 3997 055b 79040000 		.4byte	0x479
 3998 055f 34       		.byte	0x34
 3999 0560 08       		.uleb128 0x8
 4000 0561 73333000 		.ascii	"s30\000"
 4001 0565 0B       		.byte	0xb
 4002 0566 0401     		.2byte	0x104
 4003 0568 79040000 		.4byte	0x479
 4004 056c 38       		.byte	0x38
 4005 056d 08       		.uleb128 0x8
 4006 056e 73333100 		.ascii	"s31\000"
 4007 0572 0B       		.byte	0xb
 4008 0573 0501     		.2byte	0x105
 4009 0575 79040000 		.4byte	0x479
 4010 0579 3C       		.byte	0x3c
 4011 057a 08       		.uleb128 0x8
 4012 057b 723400   		.ascii	"r4\000"
 4013 057e 0B       		.byte	0xb
 4014 057f 0701     		.2byte	0x107
 4015 0581 79040000 		.4byte	0x479
 4016 0585 40       		.byte	0x40
 4017 0586 08       		.uleb128 0x8
 4018 0587 723500   		.ascii	"r5\000"
 4019 058a 0B       		.byte	0xb
 4020 058b 0801     		.2byte	0x108
 4021 058d 79040000 		.4byte	0x479
 4022 0591 44       		.byte	0x44
 4023 0592 08       		.uleb128 0x8
 4024 0593 723600   		.ascii	"r6\000"
 4025 0596 0B       		.byte	0xb
 4026 0597 0901     		.2byte	0x109
 4027 0599 79040000 		.4byte	0x479
 4028 059d 48       		.byte	0x48
 4029 059e 08       		.uleb128 0x8
 4030 059f 723700   		.ascii	"r7\000"
 4031 05a2 0B       		.byte	0xb
 4032 05a3 0A01     		.2byte	0x10a
 4033 05a5 79040000 		.4byte	0x479
 4034 05a9 4C       		.byte	0x4c
 4035 05aa 08       		.uleb128 0x8
 4036 05ab 723800   		.ascii	"r8\000"
 4037 05ae 0B       		.byte	0xb
 4038 05af 0B01     		.2byte	0x10b
 4039 05b1 79040000 		.4byte	0x479
 4040 05b5 50       		.byte	0x50
 4041 05b6 08       		.uleb128 0x8
 4042 05b7 723900   		.ascii	"r9\000"
 4043 05ba 0B       		.byte	0xb
 4044 05bb 0C01     		.2byte	0x10c
 4045 05bd 79040000 		.4byte	0x479
 4046 05c1 54       		.byte	0x54
 4047 05c2 08       		.uleb128 0x8
 4048 05c3 72313000 		.ascii	"r10\000"
 4049 05c7 0B       		.byte	0xb
 4050 05c8 0D01     		.2byte	0x10d
 4051 05ca 79040000 		.4byte	0x479
 4052 05ce 58       		.byte	0x58
 4053 05cf 08       		.uleb128 0x8
ARM GAS  C:\Users\jo\AppData\Local\Temp\ccT06EVW.s 			page 75


 4054 05d0 72313100 		.ascii	"r11\000"
 4055 05d4 0B       		.byte	0xb
 4056 05d5 0E01     		.2byte	0x10e
 4057 05d7 79040000 		.4byte	0x479
 4058 05db 5C       		.byte	0x5c
 4059 05dc 08       		.uleb128 0x8
 4060 05dd 6C7200   		.ascii	"lr\000"
 4061 05e0 0B       		.byte	0xb
 4062 05e1 0F01     		.2byte	0x10f
 4063 05e3 79040000 		.4byte	0x479
 4064 05e7 60       		.byte	0x60
 4065 05e8 00       		.byte	0
 4066 05e9 0B       		.uleb128 0xb
 4067 05ea 04       		.byte	0x4
 4068 05eb A8040000 		.4byte	0x4a8
 4069 05ef 03       		.uleb128 0x3
 4070 05f0 D1030000 		.4byte	.LASF88
 4071 05f4 0C       		.byte	0xc
 4072 05f5 28       		.byte	0x28
 4073 05f6 FA050000 		.4byte	0x5fa
 4074 05fa 06       		.uleb128 0x6
 4075 05fb 9C0B0000 		.4byte	.LASF89
 4076 05ff 04       		.byte	0x4
 4077 0600 0D       		.byte	0xd
 4078 0601 00       		.byte	0
 4079 0602 11060000 		.4byte	0x611
 4080 0606 11       		.uleb128 0x11
 4081 0607 D5060000 		.4byte	.LASF93
 4082 060b 3C030000 		.4byte	0x33c
 4083 060f 00       		.byte	0
 4084 0610 00       		.byte	0
 4085 0611 04       		.uleb128 0x4
 4086 0612 01       		.byte	0x1
 4087 0613 08       		.byte	0x8
 4088 0614 5F000000 		.4byte	.LASF90
 4089 0618 0B       		.uleb128 0xb
 4090 0619 04       		.byte	0x4
 4091 061a 1E060000 		.4byte	0x61e
 4092 061e 12       		.uleb128 0x12
 4093 061f 11060000 		.4byte	0x611
 4094 0623 13       		.uleb128 0x13
 4095 0624 04       		.byte	0x4
 4096 0625 0E       		.byte	0xe
 4097 0626 38       		.byte	0x38
 4098 0627 38060000 		.4byte	0x638
 4099 062b 07       		.uleb128 0x7
 4100 062c 32030000 		.4byte	.LASF91
 4101 0630 0E       		.byte	0xe
 4102 0631 3C       		.byte	0x3c
 4103 0632 15010000 		.4byte	0x115
 4104 0636 00       		.byte	0
 4105 0637 00       		.byte	0
 4106 0638 03       		.uleb128 0x3
 4107 0639 87070000 		.4byte	.LASF92
 4108 063d 0E       		.byte	0xe
 4109 063e 3D       		.byte	0x3d
 4110 063f 23060000 		.4byte	0x623
ARM GAS  C:\Users\jo\AppData\Local\Temp\ccT06EVW.s 			page 76


 4111 0643 0B       		.uleb128 0xb
 4112 0644 04       		.byte	0x4
 4113 0645 6D010000 		.4byte	0x16d
 4114 0649 14       		.uleb128 0x14
 4115 064a 04       		.byte	0x4
 4116 064b 09       		.byte	0x9
 4117 064c F6       		.byte	0xf6
 4118 064d 81060000 		.4byte	0x681
 4119 0651 15       		.uleb128 0x15
 4120 0652 9C000000 		.4byte	.LASF94
 4121 0656 09       		.byte	0x9
 4122 0657 FD       		.byte	0xfd
 4123 0658 4C010000 		.4byte	0x14c
 4124 065c 16       		.uleb128 0x16
 4125 065d AB0D0000 		.4byte	.LASF95
 4126 0661 09       		.byte	0x9
 4127 0662 0401     		.2byte	0x104
 4128 0664 4C010000 		.4byte	0x14c
 4129 0668 16       		.uleb128 0x16
 4130 0669 2D020000 		.4byte	.LASF96
 4131 066d 09       		.byte	0x9
 4132 066e 0B01     		.2byte	0x10b
 4133 0670 3C030000 		.4byte	0x33c
 4134 0674 16       		.uleb128 0x16
 4135 0675 F4010000 		.4byte	.LASF97
 4136 0679 09       		.byte	0x9
 4137 067a 1201     		.2byte	0x112
 4138 067c 57010000 		.4byte	0x157
 4139 0680 00       		.byte	0
 4140 0681 06       		.uleb128 0x6
 4141 0682 D4020000 		.4byte	.LASF98
 4142 0686 10       		.byte	0x10
 4143 0687 0F       		.byte	0xf
 4144 0688 39       		.byte	0x39
 4145 0689 B2060000 		.4byte	0x6b2
 4146 068d 07       		.uleb128 0x7
 4147 068e 4F080000 		.4byte	.LASF99
 4148 0692 0F       		.byte	0xf
 4149 0693 3A       		.byte	0x3a
 4150 0694 89020000 		.4byte	0x289
 4151 0698 00       		.byte	0
 4152 0699 07       		.uleb128 0x7
 4153 069a CD000000 		.4byte	.LASF100
 4154 069e 0F       		.byte	0xf
 4155 069f 3C       		.byte	0x3c
 4156 06a0 43060000 		.4byte	0x643
 4157 06a4 08       		.byte	0x8
 4158 06a5 07       		.uleb128 0x7
 4159 06a6 AB0B0000 		.4byte	.LASF101
 4160 06aa 0F       		.byte	0xf
 4161 06ab 3E       		.byte	0x3e
 4162 06ac F3060000 		.4byte	0x6f3
 4163 06b0 0C       		.byte	0xc
 4164 06b1 00       		.byte	0
 4165 06b2 0B       		.uleb128 0xb
 4166 06b3 04       		.byte	0x4
 4167 06b4 81060000 		.4byte	0x681
ARM GAS  C:\Users\jo\AppData\Local\Temp\ccT06EVW.s 			page 77


 4168 06b8 0B       		.uleb128 0xb
 4169 06b9 04       		.byte	0x4
 4170 06ba 3E030000 		.4byte	0x33e
 4171 06be 05       		.uleb128 0x5
 4172 06bf 18060000 		.4byte	0x618
 4173 06c3 17       		.uleb128 0x17
 4174 06c4 84040000 		.4byte	0x484
 4175 06c8 D3060000 		.4byte	0x6d3
 4176 06cc 18       		.uleb128 0x18
 4177 06cd 72040000 		.4byte	0x472
 4178 06d1 2B       		.byte	0x2b
 4179 06d2 00       		.byte	0
 4180 06d3 0B       		.uleb128 0xb
 4181 06d4 04       		.byte	0x4
 4182 06d5 D9060000 		.4byte	0x6d9
 4183 06d9 19       		.uleb128 0x19
 4184 06da 4C010000 		.4byte	0x14c
 4185 06de E8060000 		.4byte	0x6e8
 4186 06e2 0D       		.uleb128 0xd
 4187 06e3 3C030000 		.4byte	0x33c
 4188 06e7 00       		.byte	0
 4189 06e8 03       		.uleb128 0x3
 4190 06e9 810A0000 		.4byte	.LASF102
 4191 06ed 0F       		.byte	0xf
 4192 06ee 34       		.byte	0x34
 4193 06ef 81060000 		.4byte	0x681
 4194 06f3 0B       		.uleb128 0xb
 4195 06f4 04       		.byte	0x4
 4196 06f5 E8060000 		.4byte	0x6e8
 4197 06f9 0B       		.uleb128 0xb
 4198 06fa 04       		.byte	0x4
 4199 06fb CE000000 		.4byte	0xce
 4200 06ff 06       		.uleb128 0x6
 4201 0700 57010000 		.4byte	.LASF103
 4202 0704 10       		.byte	0x10
 4203 0705 10       		.byte	0x10
 4204 0706 40       		.byte	0x40
 4205 0707 3C070000 		.4byte	0x73c
 4206 070b 07       		.uleb128 0x7
 4207 070c 75060000 		.4byte	.LASF104
 4208 0710 10       		.byte	0x10
 4209 0711 41       		.byte	0x41
 4210 0712 60070000 		.4byte	0x760
 4211 0716 00       		.byte	0
 4212 0717 07       		.uleb128 0x7
 4213 0718 91090000 		.4byte	.LASF105
 4214 071c 10       		.byte	0x10
 4215 071d 41       		.byte	0x41
 4216 071e 7F070000 		.4byte	0x77f
 4217 0722 04       		.byte	0x4
 4218 0723 10       		.uleb128 0x10
 4219 0724 70757400 		.ascii	"put\000"
 4220 0728 10       		.byte	0x10
 4221 0729 41       		.byte	0x41
 4222 072a 99070000 		.4byte	0x799
 4223 072e 08       		.byte	0x8
 4224 072f 10       		.uleb128 0x10
ARM GAS  C:\Users\jo\AppData\Local\Temp\ccT06EVW.s 			page 78


 4225 0730 67657400 		.ascii	"get\000"
 4226 0734 10       		.byte	0x10
 4227 0735 41       		.byte	0x41
 4228 0736 D3060000 		.4byte	0x6d3
 4229 073a 0C       		.byte	0xc
 4230 073b 00       		.byte	0
 4231 073c 19       		.uleb128 0x19
 4232 073d 2C000000 		.4byte	0x2c
 4233 0741 55070000 		.4byte	0x755
 4234 0745 0D       		.uleb128 0xd
 4235 0746 3C030000 		.4byte	0x33c
 4236 074a 0D       		.uleb128 0xd
 4237 074b 55070000 		.4byte	0x755
 4238 074f 0D       		.uleb128 0xd
 4239 0750 2C000000 		.4byte	0x2c
 4240 0754 00       		.byte	0
 4241 0755 0B       		.uleb128 0xb
 4242 0756 04       		.byte	0x4
 4243 0757 5B070000 		.4byte	0x75b
 4244 075b 12       		.uleb128 0x12
 4245 075c CE000000 		.4byte	0xce
 4246 0760 0B       		.uleb128 0xb
 4247 0761 04       		.byte	0x4
 4248 0762 3C070000 		.4byte	0x73c
 4249 0766 19       		.uleb128 0x19
 4250 0767 2C000000 		.4byte	0x2c
 4251 076b 7F070000 		.4byte	0x77f
 4252 076f 0D       		.uleb128 0xd
 4253 0770 3C030000 		.4byte	0x33c
 4254 0774 0D       		.uleb128 0xd
 4255 0775 F9060000 		.4byte	0x6f9
 4256 0779 0D       		.uleb128 0xd
 4257 077a 2C000000 		.4byte	0x2c
 4258 077e 00       		.byte	0
 4259 077f 0B       		.uleb128 0xb
 4260 0780 04       		.byte	0x4
 4261 0781 66070000 		.4byte	0x766
 4262 0785 19       		.uleb128 0x19
 4263 0786 4C010000 		.4byte	0x14c
 4264 078a 99070000 		.4byte	0x799
 4265 078e 0D       		.uleb128 0xd
 4266 078f 3C030000 		.4byte	0x33c
 4267 0793 0D       		.uleb128 0xd
 4268 0794 CE000000 		.4byte	0xce
 4269 0798 00       		.byte	0
 4270 0799 0B       		.uleb128 0xb
 4271 079a 04       		.byte	0x4
 4272 079b 85070000 		.4byte	0x785
 4273 079f 13       		.uleb128 0x13
 4274 07a0 04       		.byte	0x4
 4275 07a1 10       		.byte	0x10
 4276 07a2 49       		.byte	0x49
 4277 07a3 B4070000 		.4byte	0x7b4
 4278 07a7 10       		.uleb128 0x10
 4279 07a8 766D7400 		.ascii	"vmt\000"
 4280 07ac 10       		.byte	0x10
 4281 07ad 4B       		.byte	0x4b
ARM GAS  C:\Users\jo\AppData\Local\Temp\ccT06EVW.s 			page 79


 4282 07ae B4070000 		.4byte	0x7b4
 4283 07b2 00       		.byte	0
 4284 07b3 00       		.byte	0
 4285 07b4 0B       		.uleb128 0xb
 4286 07b5 04       		.byte	0x4
 4287 07b6 BA070000 		.4byte	0x7ba
 4288 07ba 12       		.uleb128 0x12
 4289 07bb FF060000 		.4byte	0x6ff
 4290 07bf 03       		.uleb128 0x3
 4291 07c0 C7040000 		.4byte	.LASF106
 4292 07c4 10       		.byte	0x10
 4293 07c5 4D       		.byte	0x4d
 4294 07c6 9F070000 		.4byte	0x79f
 4295 07ca 04       		.uleb128 0x4
 4296 07cb 01       		.byte	0x1
 4297 07cc 02       		.byte	0x2
 4298 07cd 36040000 		.4byte	.LASF107
 4299 07d1 06       		.uleb128 0x6
 4300 07d2 EA060000 		.4byte	.LASF108
 4301 07d6 10       		.byte	0x10
 4302 07d7 11       		.byte	0x11
 4303 07d8 2E       		.byte	0x2e
 4304 07d9 0E080000 		.4byte	0x80e
 4305 07dd 07       		.uleb128 0x7
 4306 07de 75060000 		.4byte	.LASF104
 4307 07e2 11       		.byte	0x11
 4308 07e3 2F       		.byte	0x2f
 4309 07e4 60070000 		.4byte	0x760
 4310 07e8 00       		.byte	0
 4311 07e9 07       		.uleb128 0x7
 4312 07ea 91090000 		.4byte	.LASF105
 4313 07ee 11       		.byte	0x11
 4314 07ef 2F       		.byte	0x2f
 4315 07f0 7F070000 		.4byte	0x77f
 4316 07f4 04       		.byte	0x4
 4317 07f5 10       		.uleb128 0x10
 4318 07f6 70757400 		.ascii	"put\000"
 4319 07fa 11       		.byte	0x11
 4320 07fb 2F       		.byte	0x2f
 4321 07fc 99070000 		.4byte	0x799
 4322 0800 08       		.byte	0x8
 4323 0801 10       		.uleb128 0x10
 4324 0802 67657400 		.ascii	"get\000"
 4325 0806 11       		.byte	0x11
 4326 0807 2F       		.byte	0x2f
 4327 0808 D3060000 		.4byte	0x6d3
 4328 080c 0C       		.byte	0xc
 4329 080d 00       		.byte	0
 4330 080e 13       		.uleb128 0x13
 4331 080f 04       		.byte	0x4
 4332 0810 11       		.byte	0x11
 4333 0811 39       		.byte	0x39
 4334 0812 23080000 		.4byte	0x823
 4335 0816 10       		.uleb128 0x10
 4336 0817 766D7400 		.ascii	"vmt\000"
 4337 081b 11       		.byte	0x11
 4338 081c 3B       		.byte	0x3b
ARM GAS  C:\Users\jo\AppData\Local\Temp\ccT06EVW.s 			page 80


 4339 081d 23080000 		.4byte	0x823
 4340 0821 00       		.byte	0
 4341 0822 00       		.byte	0
 4342 0823 0B       		.uleb128 0xb
 4343 0824 04       		.byte	0x4
 4344 0825 29080000 		.4byte	0x829
 4345 0829 12       		.uleb128 0x12
 4346 082a D1070000 		.4byte	0x7d1
 4347 082e 03       		.uleb128 0x3
 4348 082f 6E070000 		.4byte	.LASF109
 4349 0833 11       		.byte	0x11
 4350 0834 3D       		.byte	0x3d
 4351 0835 0E080000 		.4byte	0x80e
 4352 0839 03       		.uleb128 0x3
 4353 083a 35060000 		.4byte	.LASF110
 4354 083e 0C       		.byte	0xc
 4355 083f 62       		.byte	0x62
 4356 0840 EF050000 		.4byte	0x5ef
 4357 0844 03       		.uleb128 0x3
 4358 0845 B8060000 		.4byte	.LASF111
 4359 0849 12       		.byte	0x12
 4360 084a 3D       		.byte	0x3d
 4361 084b CE000000 		.4byte	0xce
 4362 084f 03       		.uleb128 0x3
 4363 0850 8A040000 		.4byte	.LASF112
 4364 0854 12       		.byte	0x12
 4365 0855 3E       		.byte	0x3e
 4366 0856 C3000000 		.4byte	0xc3
 4367 085a 03       		.uleb128 0x3
 4368 085b A5010000 		.4byte	.LASF113
 4369 085f 12       		.byte	0x12
 4370 0860 3F       		.byte	0x3f
 4371 0861 E4000000 		.4byte	0xe4
 4372 0865 03       		.uleb128 0x3
 4373 0866 3F0A0000 		.4byte	.LASF114
 4374 086a 12       		.byte	0x12
 4375 086b 40       		.byte	0x40
 4376 086c D9000000 		.4byte	0xd9
 4377 0870 03       		.uleb128 0x3
 4378 0871 2A080000 		.4byte	.LASF115
 4379 0875 12       		.byte	0x12
 4380 0876 41       		.byte	0x41
 4381 0877 FA000000 		.4byte	0xfa
 4382 087b 03       		.uleb128 0x3
 4383 087c 8F040000 		.4byte	.LASF116
 4384 0880 12       		.byte	0x12
 4385 0881 42       		.byte	0x42
 4386 0882 EF000000 		.4byte	0xef
 4387 0886 03       		.uleb128 0x3
 4388 0887 65090000 		.4byte	.LASF117
 4389 088b 12       		.byte	0x12
 4390 088c 43       		.byte	0x43
 4391 088d FA000000 		.4byte	0xfa
 4392 0891 03       		.uleb128 0x3
 4393 0892 30050000 		.4byte	.LASF118
 4394 0896 13       		.byte	0x13
 4395 0897 4C       		.byte	0x4c
ARM GAS  C:\Users\jo\AppData\Local\Temp\ccT06EVW.s 			page 81


 4396 0898 5A080000 		.4byte	0x85a
 4397 089c 1A       		.uleb128 0x1a
 4398 089d 01       		.byte	0x1
 4399 089e 14       		.byte	0x14
 4400 089f 2B       		.byte	0x2b
 4401 08a0 FF080000 		.4byte	0x8ff
 4402 08a4 1B       		.uleb128 0x1b
 4403 08a5 DC090000 		.4byte	.LASF119
 4404 08a9 00       		.sleb128 0
 4405 08aa 1B       		.uleb128 0x1b
 4406 08ab 84010000 		.4byte	.LASF120
 4407 08af 01       		.sleb128 1
 4408 08b0 1B       		.uleb128 0x1b
 4409 08b1 AB060000 		.4byte	.LASF121
 4410 08b5 02       		.sleb128 2
 4411 08b6 1B       		.uleb128 0x1b
 4412 08b7 40000000 		.4byte	.LASF122
 4413 08bb 03       		.sleb128 3
 4414 08bc 1B       		.uleb128 0x1b
 4415 08bd ED0A0000 		.4byte	.LASF123
 4416 08c1 04       		.sleb128 4
 4417 08c2 1B       		.uleb128 0x1b
 4418 08c3 3E070000 		.4byte	.LASF124
 4419 08c7 05       		.sleb128 5
 4420 08c8 1B       		.uleb128 0x1b
 4421 08c9 AB090000 		.4byte	.LASF125
 4422 08cd 06       		.sleb128 6
 4423 08ce 1B       		.uleb128 0x1b
 4424 08cf 58060000 		.4byte	.LASF126
 4425 08d3 07       		.sleb128 7
 4426 08d4 1B       		.uleb128 0x1b
 4427 08d5 87020000 		.4byte	.LASF127
 4428 08d9 08       		.sleb128 8
 4429 08da 1B       		.uleb128 0x1b
 4430 08db B6020000 		.4byte	.LASF128
 4431 08df 09       		.sleb128 9
 4432 08e0 1B       		.uleb128 0x1b
 4433 08e1 90030000 		.4byte	.LASF129
 4434 08e5 0A       		.sleb128 10
 4435 08e6 1B       		.uleb128 0x1b
 4436 08e7 DE080000 		.4byte	.LASF130
 4437 08eb 0B       		.sleb128 11
 4438 08ec 1B       		.uleb128 0x1b
 4439 08ed F6040000 		.4byte	.LASF131
 4440 08f1 0C       		.sleb128 12
 4441 08f2 1B       		.uleb128 0x1b
 4442 08f3 09020000 		.4byte	.LASF132
 4443 08f7 0D       		.sleb128 13
 4444 08f8 1B       		.uleb128 0x1b
 4445 08f9 5B050000 		.4byte	.LASF133
 4446 08fd 0E       		.sleb128 14
 4447 08fe 00       		.byte	0
 4448 08ff 03       		.uleb128 0x3
 4449 0900 7A0D0000 		.4byte	.LASF134
 4450 0904 14       		.byte	0x14
 4451 0905 2F       		.byte	0x2f
 4452 0906 9C080000 		.4byte	0x89c
ARM GAS  C:\Users\jo\AppData\Local\Temp\ccT06EVW.s 			page 82


 4453 090a 03       		.uleb128 0x3
 4454 090b 7E010000 		.4byte	.LASF135
 4455 090f 15       		.byte	0x15
 4456 0910 2F       		.byte	0x2f
 4457 0911 4F080000 		.4byte	0x84f
 4458 0915 1A       		.uleb128 0x1a
 4459 0916 01       		.byte	0x1
 4460 0917 16       		.byte	0x16
 4461 0918 32       		.byte	0x32
 4462 0919 36090000 		.4byte	0x936
 4463 091d 1B       		.uleb128 0x1b
 4464 091e 57020000 		.4byte	.LASF136
 4465 0922 00       		.sleb128 0
 4466 0923 1B       		.uleb128 0x1b
 4467 0924 0A040000 		.4byte	.LASF137
 4468 0928 01       		.sleb128 1
 4469 0929 1B       		.uleb128 0x1b
 4470 092a 20000000 		.4byte	.LASF138
 4471 092e 02       		.sleb128 2
 4472 092f 1B       		.uleb128 0x1b
 4473 0930 DD070000 		.4byte	.LASF139
 4474 0934 03       		.sleb128 3
 4475 0935 00       		.byte	0
 4476 0936 03       		.uleb128 0x3
 4477 0937 5C0A0000 		.4byte	.LASF140
 4478 093b 16       		.byte	0x16
 4479 093c 37       		.byte	0x37
 4480 093d 15090000 		.4byte	0x915
 4481 0941 1A       		.uleb128 0x1a
 4482 0942 01       		.byte	0x1
 4483 0943 16       		.byte	0x16
 4484 0944 39       		.byte	0x39
 4485 0945 62090000 		.4byte	0x962
 4486 0949 1B       		.uleb128 0x1b
 4487 094a 93000000 		.4byte	.LASF141
 4488 094e 00       		.sleb128 0
 4489 094f 1B       		.uleb128 0x1b
 4490 0950 810D0000 		.4byte	.LASF142
 4491 0954 01       		.sleb128 1
 4492 0955 1B       		.uleb128 0x1b
 4493 0956 EB010000 		.4byte	.LASF143
 4494 095a 02       		.sleb128 2
 4495 095b 1B       		.uleb128 0x1b
 4496 095c 3C040000 		.4byte	.LASF144
 4497 0960 03       		.sleb128 3
 4498 0961 00       		.byte	0
 4499 0962 03       		.uleb128 0x3
 4500 0963 B9000000 		.4byte	.LASF145
 4501 0967 16       		.byte	0x16
 4502 0968 3E       		.byte	0x3e
 4503 0969 41090000 		.4byte	0x941
 4504 096d 06       		.uleb128 0x6
 4505 096e 0C0B0000 		.4byte	.LASF146
 4506 0972 10       		.byte	0x10
 4507 0973 16       		.byte	0x16
 4508 0974 4F       		.byte	0x4f
 4509 0975 CE090000 		.4byte	0x9ce
ARM GAS  C:\Users\jo\AppData\Local\Temp\ccT06EVW.s 			page 83


 4510 0979 07       		.uleb128 0x7
 4511 097a 45010000 		.4byte	.LASF147
 4512 097e 16       		.byte	0x16
 4513 097f 51       		.byte	0x51
 4514 0980 CE090000 		.4byte	0x9ce
 4515 0984 00       		.byte	0
 4516 0985 07       		.uleb128 0x7
 4517 0986 02040000 		.4byte	.LASF148
 4518 098a 16       		.byte	0x16
 4519 098b 54       		.byte	0x54
 4520 098c 3C030000 		.4byte	0x33c
 4521 0990 04       		.byte	0x4
 4522 0991 07       		.uleb128 0x7
 4523 0992 500B0000 		.4byte	.LASF149
 4524 0996 16       		.byte	0x16
 4525 0997 5D       		.byte	0x5d
 4526 0998 5A080000 		.4byte	0x85a
 4527 099c 08       		.byte	0x8
 4528 099d 10       		.uleb128 0x10
 4529 099e 6C656E00 		.ascii	"len\000"
 4530 09a2 16       		.byte	0x16
 4531 09a3 60       		.byte	0x60
 4532 09a4 5A080000 		.4byte	0x85a
 4533 09a8 0A       		.byte	0xa
 4534 09a9 07       		.uleb128 0x7
 4535 09aa A20A0000 		.4byte	.LASF150
 4536 09ae 16       		.byte	0x16
 4537 09af 63       		.byte	0x63
 4538 09b0 44080000 		.4byte	0x844
 4539 09b4 0C       		.byte	0xc
 4540 09b5 07       		.uleb128 0x7
 4541 09b6 4E040000 		.4byte	.LASF151
 4542 09ba 16       		.byte	0x16
 4543 09bb 66       		.byte	0x66
 4544 09bc 44080000 		.4byte	0x844
 4545 09c0 0D       		.byte	0xd
 4546 09c1 10       		.uleb128 0x10
 4547 09c2 72656600 		.ascii	"ref\000"
 4548 09c6 16       		.byte	0x16
 4549 09c7 6D       		.byte	0x6d
 4550 09c8 5A080000 		.4byte	0x85a
 4551 09cc 0E       		.byte	0xe
 4552 09cd 00       		.byte	0
 4553 09ce 0B       		.uleb128 0xb
 4554 09cf 04       		.byte	0x4
 4555 09d0 6D090000 		.4byte	0x96d
 4556 09d4 03       		.uleb128 0x3
 4557 09d5 6C080000 		.4byte	.LASF152
 4558 09d9 16       		.byte	0x16
 4559 09da 72       		.byte	0x72
 4560 09db DF090000 		.4byte	0x9df
 4561 09df 0B       		.uleb128 0xb
 4562 09e0 04       		.byte	0x4
 4563 09e1 E5090000 		.4byte	0x9e5
 4564 09e5 0C       		.uleb128 0xc
 4565 09e6 F0090000 		.4byte	0x9f0
 4566 09ea 0D       		.uleb128 0xd
ARM GAS  C:\Users\jo\AppData\Local\Temp\ccT06EVW.s 			page 84


 4567 09eb CE090000 		.4byte	0x9ce
 4568 09ef 00       		.byte	0
 4569 09f0 06       		.uleb128 0x6
 4570 09f1 AB010000 		.4byte	.LASF153
 4571 09f5 14       		.byte	0x14
 4572 09f6 16       		.byte	0x16
 4573 09f7 75       		.byte	0x75
 4574 09f8 150A0000 		.4byte	0xa15
 4575 09fc 07       		.uleb128 0x7
 4576 09fd 0C0B0000 		.4byte	.LASF146
 4577 0a01 16       		.byte	0x16
 4578 0a02 77       		.byte	0x77
 4579 0a03 6D090000 		.4byte	0x96d
 4580 0a07 00       		.byte	0
 4581 0a08 07       		.uleb128 0x7
 4582 0a09 F6070000 		.4byte	.LASF154
 4583 0a0d 16       		.byte	0x16
 4584 0a0e 79       		.byte	0x79
 4585 0a0f D4090000 		.4byte	0x9d4
 4586 0a13 10       		.byte	0x10
 4587 0a14 00       		.byte	0
 4588 0a15 06       		.uleb128 0x6
 4589 0a16 C40D0000 		.4byte	.LASF155
 4590 0a1a 04       		.byte	0x4
 4591 0a1b 17       		.byte	0x17
 4592 0a1c 2C       		.byte	0x2c
 4593 0a1d 2E0A0000 		.4byte	0xa2e
 4594 0a21 07       		.uleb128 0x7
 4595 0a22 3A0B0000 		.4byte	.LASF156
 4596 0a26 17       		.byte	0x17
 4597 0a27 2D       		.byte	0x2d
 4598 0a28 70080000 		.4byte	0x870
 4599 0a2c 00       		.byte	0
 4600 0a2d 00       		.byte	0
 4601 0a2e 03       		.uleb128 0x3
 4602 0a2f 590D0000 		.4byte	.LASF157
 4603 0a33 17       		.byte	0x17
 4604 0a34 40       		.byte	0x40
 4605 0a35 150A0000 		.4byte	0xa15
 4606 0a39 03       		.uleb128 0x3
 4607 0a3a AB000000 		.4byte	.LASF158
 4608 0a3e 18       		.byte	0x18
 4609 0a3f 3C       		.byte	0x3c
 4610 0a40 440A0000 		.4byte	0xa44
 4611 0a44 0B       		.uleb128 0xb
 4612 0a45 04       		.byte	0x4
 4613 0a46 4A0A0000 		.4byte	0xa4a
 4614 0a4a 19       		.uleb128 0x19
 4615 0a4b 0A090000 		.4byte	0x90a
 4616 0a4f 630A0000 		.4byte	0xa63
 4617 0a53 0D       		.uleb128 0xd
 4618 0a54 3C030000 		.4byte	0x33c
 4619 0a58 0D       		.uleb128 0xd
 4620 0a59 630A0000 		.4byte	0xa63
 4621 0a5d 0D       		.uleb128 0xd
 4622 0a5e 0A090000 		.4byte	0x90a
 4623 0a62 00       		.byte	0
ARM GAS  C:\Users\jo\AppData\Local\Temp\ccT06EVW.s 			page 85


 4624 0a63 0B       		.uleb128 0xb
 4625 0a64 04       		.byte	0x4
 4626 0a65 690A0000 		.4byte	0xa69
 4627 0a69 06       		.uleb128 0x6
 4628 0a6a D70C0000 		.4byte	.LASF159
 4629 0a6e 98       		.byte	0x98
 4630 0a6f 18       		.byte	0x18
 4631 0a70 A8       		.byte	0xa8
 4632 0a71 1B0D0000 		.4byte	0xd1b
 4633 0a75 07       		.uleb128 0x7
 4634 0a76 11090000 		.4byte	.LASF160
 4635 0a7a 18       		.byte	0x18
 4636 0a7b AA       		.byte	0xaa
 4637 0a7c 2E0A0000 		.4byte	0xa2e
 4638 0a80 00       		.byte	0
 4639 0a81 07       		.uleb128 0x7
 4640 0a82 2F0D0000 		.4byte	.LASF161
 4641 0a86 18       		.byte	0x18
 4642 0a87 AA       		.byte	0xaa
 4643 0a88 2E0A0000 		.4byte	0xa2e
 4644 0a8c 04       		.byte	0x4
 4645 0a8d 07       		.uleb128 0x7
 4646 0a8e 54000000 		.4byte	.LASF162
 4647 0a92 18       		.byte	0x18
 4648 0a93 AA       		.byte	0xaa
 4649 0a94 44080000 		.4byte	0x844
 4650 0a98 08       		.byte	0x8
 4651 0a99 10       		.uleb128 0x10
 4652 0a9a 746F7300 		.ascii	"tos\000"
 4653 0a9e 18       		.byte	0x18
 4654 0a9f AA       		.byte	0xaa
 4655 0aa0 44080000 		.4byte	0x844
 4656 0aa4 09       		.byte	0x9
 4657 0aa5 10       		.uleb128 0x10
 4658 0aa6 74746C00 		.ascii	"ttl\000"
 4659 0aaa 18       		.byte	0x18
 4660 0aab AA       		.byte	0xaa
 4661 0aac 44080000 		.4byte	0x844
 4662 0ab0 0A       		.byte	0xa
 4663 0ab1 07       		.uleb128 0x7
 4664 0ab2 45010000 		.4byte	.LASF147
 4665 0ab6 18       		.byte	0x18
 4666 0ab7 AC       		.byte	0xac
 4667 0ab8 630A0000 		.4byte	0xa63
 4668 0abc 0C       		.byte	0xc
 4669 0abd 07       		.uleb128 0x7
 4670 0abe 1B0B0000 		.4byte	.LASF163
 4671 0ac2 18       		.byte	0x18
 4672 0ac3 AC       		.byte	0xac
 4673 0ac4 3C030000 		.4byte	0x33c
 4674 0ac8 10       		.byte	0x10
 4675 0ac9 07       		.uleb128 0x7
 4676 0aca AF020000 		.4byte	.LASF164
 4677 0ace 18       		.byte	0x18
 4678 0acf AC       		.byte	0xac
 4679 0ad0 390A0000 		.4byte	0xa39
 4680 0ad4 14       		.byte	0x14
ARM GAS  C:\Users\jo\AppData\Local\Temp\ccT06EVW.s 			page 86


 4681 0ad5 07       		.uleb128 0x7
 4682 0ad6 4A0B0000 		.4byte	.LASF165
 4683 0ada 18       		.byte	0x18
 4684 0adb AC       		.byte	0xac
 4685 0adc C50D0000 		.4byte	0xdc5
 4686 0ae0 18       		.byte	0x18
 4687 0ae1 07       		.uleb128 0x7
 4688 0ae2 E4040000 		.4byte	.LASF166
 4689 0ae6 18       		.byte	0x18
 4690 0ae7 AC       		.byte	0xac
 4691 0ae8 44080000 		.4byte	0x844
 4692 0aec 19       		.byte	0x19
 4693 0aed 07       		.uleb128 0x7
 4694 0aee C9020000 		.4byte	.LASF167
 4695 0af2 18       		.byte	0x18
 4696 0af3 AC       		.byte	0xac
 4697 0af4 5A080000 		.4byte	0x85a
 4698 0af8 1A       		.byte	0x1a
 4699 0af9 07       		.uleb128 0x7
 4700 0afa 0E070000 		.4byte	.LASF168
 4701 0afe 18       		.byte	0x18
 4702 0aff AF       		.byte	0xaf
 4703 0b00 5A080000 		.4byte	0x85a
 4704 0b04 1C       		.byte	0x1c
 4705 0b05 07       		.uleb128 0x7
 4706 0b06 4E040000 		.4byte	.LASF151
 4707 0b0a 18       		.byte	0x18
 4708 0b0b B1       		.byte	0xb1
 4709 0b0c 44080000 		.4byte	0x844
 4710 0b10 1E       		.byte	0x1e
 4711 0b11 07       		.uleb128 0x7
 4712 0b12 A3000000 		.4byte	.LASF169
 4713 0b16 18       		.byte	0x18
 4714 0b17 BF       		.byte	0xbf
 4715 0b18 44080000 		.4byte	0x844
 4716 0b1c 1F       		.byte	0x1f
 4717 0b1d 07       		.uleb128 0x7
 4718 0b1e E9040000 		.4byte	.LASF170
 4719 0b22 18       		.byte	0x18
 4720 0b23 BF       		.byte	0xbf
 4721 0b24 44080000 		.4byte	0x844
 4722 0b28 20       		.byte	0x20
 4723 0b29 07       		.uleb128 0x7
 4724 0b2a FB080000 		.4byte	.LASF171
 4725 0b2e 18       		.byte	0x18
 4726 0b2f C0       		.byte	0xc0
 4727 0b30 44080000 		.4byte	0x844
 4728 0b34 21       		.byte	0x21
 4729 0b35 10       		.uleb128 0x10
 4730 0b36 746D7200 		.ascii	"tmr\000"
 4731 0b3a 18       		.byte	0x18
 4732 0b3b C1       		.byte	0xc1
 4733 0b3c 70080000 		.4byte	0x870
 4734 0b40 24       		.byte	0x24
 4735 0b41 07       		.uleb128 0x7
 4736 0b42 88030000 		.4byte	.LASF172
 4737 0b46 18       		.byte	0x18
ARM GAS  C:\Users\jo\AppData\Local\Temp\ccT06EVW.s 			page 87


 4738 0b47 C4       		.byte	0xc4
 4739 0b48 70080000 		.4byte	0x870
 4740 0b4c 28       		.byte	0x28
 4741 0b4d 07       		.uleb128 0x7
 4742 0b4e 76020000 		.4byte	.LASF173
 4743 0b52 18       		.byte	0x18
 4744 0b53 C5       		.byte	0xc5
 4745 0b54 5A080000 		.4byte	0x85a
 4746 0b58 2C       		.byte	0x2c
 4747 0b59 07       		.uleb128 0x7
 4748 0b5a 2A070000 		.4byte	.LASF174
 4749 0b5e 18       		.byte	0x18
 4750 0b5f C6       		.byte	0xc6
 4751 0b60 5A080000 		.4byte	0x85a
 4752 0b64 2E       		.byte	0x2e
 4753 0b65 07       		.uleb128 0x7
 4754 0b66 CA010000 		.4byte	.LASF175
 4755 0b6a 18       		.byte	0x18
 4756 0b6b C7       		.byte	0xc7
 4757 0b6c 70080000 		.4byte	0x870
 4758 0b70 30       		.byte	0x30
 4759 0b71 07       		.uleb128 0x7
 4760 0b72 5B030000 		.4byte	.LASF176
 4761 0b76 18       		.byte	0x18
 4762 0b77 CA       		.byte	0xca
 4763 0b78 65080000 		.4byte	0x865
 4764 0b7c 34       		.byte	0x34
 4765 0b7d 10       		.uleb128 0x10
 4766 0b7e 6D737300 		.ascii	"mss\000"
 4767 0b82 18       		.byte	0x18
 4768 0b83 CC       		.byte	0xcc
 4769 0b84 5A080000 		.4byte	0x85a
 4770 0b88 36       		.byte	0x36
 4771 0b89 07       		.uleb128 0x7
 4772 0b8a C1080000 		.4byte	.LASF177
 4773 0b8e 18       		.byte	0x18
 4774 0b8f CF       		.byte	0xcf
 4775 0b90 70080000 		.4byte	0x870
 4776 0b94 38       		.byte	0x38
 4777 0b95 07       		.uleb128 0x7
 4778 0b96 40030000 		.4byte	.LASF178
 4779 0b9a 18       		.byte	0x18
 4780 0b9b D0       		.byte	0xd0
 4781 0b9c 70080000 		.4byte	0x870
 4782 0ba0 3C       		.byte	0x3c
 4783 0ba1 10       		.uleb128 0x10
 4784 0ba2 736100   		.ascii	"sa\000"
 4785 0ba5 18       		.byte	0x18
 4786 0ba6 D1       		.byte	0xd1
 4787 0ba7 65080000 		.4byte	0x865
 4788 0bab 40       		.byte	0x40
 4789 0bac 10       		.uleb128 0x10
 4790 0bad 737600   		.ascii	"sv\000"
 4791 0bb0 18       		.byte	0x18
 4792 0bb1 D1       		.byte	0xd1
 4793 0bb2 65080000 		.4byte	0x865
 4794 0bb6 42       		.byte	0x42
ARM GAS  C:\Users\jo\AppData\Local\Temp\ccT06EVW.s 			page 88


 4795 0bb7 10       		.uleb128 0x10
 4796 0bb8 72746F00 		.ascii	"rto\000"
 4797 0bbc 18       		.byte	0x18
 4798 0bbd D3       		.byte	0xd3
 4799 0bbe 65080000 		.4byte	0x865
 4800 0bc2 44       		.byte	0x44
 4801 0bc3 07       		.uleb128 0x7
 4802 0bc4 A10D0000 		.4byte	.LASF179
 4803 0bc8 18       		.byte	0x18
 4804 0bc9 D4       		.byte	0xd4
 4805 0bca 44080000 		.4byte	0x844
 4806 0bce 46       		.byte	0x46
 4807 0bcf 07       		.uleb128 0x7
 4808 0bd0 DC040000 		.4byte	.LASF180
 4809 0bd4 18       		.byte	0x18
 4810 0bd5 D7       		.byte	0xd7
 4811 0bd6 44080000 		.4byte	0x844
 4812 0bda 47       		.byte	0x47
 4813 0bdb 07       		.uleb128 0x7
 4814 0bdc 22070000 		.4byte	.LASF181
 4815 0be0 18       		.byte	0x18
 4816 0be1 D8       		.byte	0xd8
 4817 0be2 70080000 		.4byte	0x870
 4818 0be6 48       		.byte	0x48
 4819 0be7 07       		.uleb128 0x7
 4820 0be8 94020000 		.4byte	.LASF182
 4821 0bec 18       		.byte	0x18
 4822 0bed DB       		.byte	0xdb
 4823 0bee 5A080000 		.4byte	0x85a
 4824 0bf2 4C       		.byte	0x4c
 4825 0bf3 07       		.uleb128 0x7
 4826 0bf4 BA090000 		.4byte	.LASF183
 4827 0bf8 18       		.byte	0x18
 4828 0bf9 DC       		.byte	0xdc
 4829 0bfa 5A080000 		.4byte	0x85a
 4830 0bfe 4E       		.byte	0x4e
 4831 0bff 07       		.uleb128 0x7
 4832 0c00 58090000 		.4byte	.LASF184
 4833 0c04 18       		.byte	0x18
 4834 0c05 DF       		.byte	0xdf
 4835 0c06 70080000 		.4byte	0x870
 4836 0c0a 50       		.byte	0x50
 4837 0c0b 07       		.uleb128 0x7
 4838 0c0c DC050000 		.4byte	.LASF185
 4839 0c10 18       		.byte	0x18
 4840 0c11 E0       		.byte	0xe0
 4841 0c12 70080000 		.4byte	0x870
 4842 0c16 54       		.byte	0x54
 4843 0c17 07       		.uleb128 0x7
 4844 0c18 E4050000 		.4byte	.LASF186
 4845 0c1c 18       		.byte	0x18
 4846 0c1d E0       		.byte	0xe0
 4847 0c1e 70080000 		.4byte	0x870
 4848 0c22 58       		.byte	0x58
 4849 0c23 07       		.uleb128 0x7
 4850 0c24 61030000 		.4byte	.LASF187
 4851 0c28 18       		.byte	0x18
ARM GAS  C:\Users\jo\AppData\Local\Temp\ccT06EVW.s 			page 89


 4852 0c29 E2       		.byte	0xe2
 4853 0c2a 70080000 		.4byte	0x870
 4854 0c2e 5C       		.byte	0x5c
 4855 0c2f 07       		.uleb128 0x7
 4856 0c30 E6070000 		.4byte	.LASF188
 4857 0c34 18       		.byte	0x18
 4858 0c35 E3       		.byte	0xe3
 4859 0c36 5A080000 		.4byte	0x85a
 4860 0c3a 60       		.byte	0x60
 4861 0c3b 07       		.uleb128 0x7
 4862 0c3c 85090000 		.4byte	.LASF189
 4863 0c40 18       		.byte	0x18
 4864 0c41 E4       		.byte	0xe4
 4865 0c42 5A080000 		.4byte	0x85a
 4866 0c46 62       		.byte	0x62
 4867 0c47 07       		.uleb128 0x7
 4868 0c48 64050000 		.4byte	.LASF190
 4869 0c4c 18       		.byte	0x18
 4870 0c4d E6       		.byte	0xe6
 4871 0c4e 5A080000 		.4byte	0x85a
 4872 0c52 64       		.byte	0x64
 4873 0c53 07       		.uleb128 0x7
 4874 0c54 CC090000 		.4byte	.LASF191
 4875 0c58 18       		.byte	0x18
 4876 0c59 E8       		.byte	0xe8
 4877 0c5a 5A080000 		.4byte	0x85a
 4878 0c5e 66       		.byte	0x66
 4879 0c5f 07       		.uleb128 0x7
 4880 0c60 830B0000 		.4byte	.LASF192
 4881 0c64 18       		.byte	0x18
 4882 0c65 EA       		.byte	0xea
 4883 0c66 5A080000 		.4byte	0x85a
 4884 0c6a 68       		.byte	0x68
 4885 0c6b 07       		.uleb128 0x7
 4886 0c6c 2F090000 		.4byte	.LASF193
 4887 0c70 18       		.byte	0x18
 4888 0c71 EE       		.byte	0xee
 4889 0c72 5A080000 		.4byte	0x85a
 4890 0c76 6A       		.byte	0x6a
 4891 0c77 07       		.uleb128 0x7
 4892 0c78 9B080000 		.4byte	.LASF194
 4893 0c7c 18       		.byte	0x18
 4894 0c7d F2       		.byte	0xf2
 4895 0c7e 610E0000 		.4byte	0xe61
 4896 0c82 6C       		.byte	0x6c
 4897 0c83 07       		.uleb128 0x7
 4898 0c84 B9030000 		.4byte	.LASF195
 4899 0c88 18       		.byte	0x18
 4900 0c89 F3       		.byte	0xf3
 4901 0c8a 610E0000 		.4byte	0xe61
 4902 0c8e 70       		.byte	0x70
 4903 0c8f 07       		.uleb128 0x7
 4904 0c90 0B080000 		.4byte	.LASF196
 4905 0c94 18       		.byte	0x18
 4906 0c95 F5       		.byte	0xf5
 4907 0c96 610E0000 		.4byte	0xe61
 4908 0c9a 74       		.byte	0x74
ARM GAS  C:\Users\jo\AppData\Local\Temp\ccT06EVW.s 			page 90


 4909 0c9b 07       		.uleb128 0x7
 4910 0c9c 670A0000 		.4byte	.LASF197
 4911 0ca0 18       		.byte	0x18
 4912 0ca1 F8       		.byte	0xf8
 4913 0ca2 CE090000 		.4byte	0x9ce
 4914 0ca6 78       		.byte	0x78
 4915 0ca7 07       		.uleb128 0x7
 4916 0ca8 CF050000 		.4byte	.LASF198
 4917 0cac 18       		.byte	0x18
 4918 0cad FC       		.byte	0xfc
 4919 0cae 4A0D0000 		.4byte	0xd4a
 4920 0cb2 7C       		.byte	0x7c
 4921 0cb3 07       		.uleb128 0x7
 4922 0cb4 A60B0000 		.4byte	.LASF199
 4923 0cb8 18       		.byte	0x18
 4924 0cb9 FE       		.byte	0xfe
 4925 0cba 1B0D0000 		.4byte	0xd1b
 4926 0cbe 80       		.byte	0x80
 4927 0cbf 09       		.uleb128 0x9
 4928 0cc0 2C040000 		.4byte	.LASF200
 4929 0cc4 18       		.byte	0x18
 4930 0cc5 0001     		.2byte	0x100
 4931 0cc7 BA0D0000 		.4byte	0xdba
 4932 0ccb 84       		.byte	0x84
 4933 0ccc 09       		.uleb128 0x9
 4934 0ccd 00050000 		.4byte	.LASF201
 4935 0cd1 18       		.byte	0x18
 4936 0cd2 0201     		.2byte	0x102
 4937 0cd4 740D0000 		.4byte	0xd74
 4938 0cd8 88       		.byte	0x88
 4939 0cd9 09       		.uleb128 0x9
 4940 0cda D8070000 		.4byte	.LASF202
 4941 0cde 18       		.byte	0x18
 4942 0cdf 0401     		.2byte	0x104
 4943 0ce1 990D0000 		.4byte	0xd99
 4944 0ce5 8C       		.byte	0x8c
 4945 0ce6 09       		.uleb128 0x9
 4946 0ce7 110B0000 		.4byte	.LASF203
 4947 0ceb 18       		.byte	0x18
 4948 0cec 0D01     		.2byte	0x10d
 4949 0cee 70080000 		.4byte	0x870
 4950 0cf2 90       		.byte	0x90
 4951 0cf3 09       		.uleb128 0x9
 4952 0cf4 230D0000 		.4byte	.LASF204
 4953 0cf8 18       		.byte	0x18
 4954 0cf9 1401     		.2byte	0x114
 4955 0cfb 44080000 		.4byte	0x844
 4956 0cff 94       		.byte	0x94
 4957 0d00 09       		.uleb128 0x9
 4958 0d01 95060000 		.4byte	.LASF205
 4959 0d05 18       		.byte	0x18
 4960 0d06 1601     		.2byte	0x116
 4961 0d08 44080000 		.4byte	0x844
 4962 0d0c 95       		.byte	0x95
 4963 0d0d 09       		.uleb128 0x9
 4964 0d0e FB010000 		.4byte	.LASF206
 4965 0d12 18       		.byte	0x18
ARM GAS  C:\Users\jo\AppData\Local\Temp\ccT06EVW.s 			page 91


 4966 0d13 1901     		.2byte	0x119
 4967 0d15 44080000 		.4byte	0x844
 4968 0d19 96       		.byte	0x96
 4969 0d1a 00       		.byte	0
 4970 0d1b 03       		.uleb128 0x3
 4971 0d1c 5D070000 		.4byte	.LASF207
 4972 0d20 18       		.byte	0x18
 4973 0d21 48       		.byte	0x48
 4974 0d22 260D0000 		.4byte	0xd26
 4975 0d26 0B       		.uleb128 0xb
 4976 0d27 04       		.byte	0x4
 4977 0d28 2C0D0000 		.4byte	0xd2c
 4978 0d2c 19       		.uleb128 0x19
 4979 0d2d 0A090000 		.4byte	0x90a
 4980 0d31 4A0D0000 		.4byte	0xd4a
 4981 0d35 0D       		.uleb128 0xd
 4982 0d36 3C030000 		.4byte	0x33c
 4983 0d3a 0D       		.uleb128 0xd
 4984 0d3b 630A0000 		.4byte	0xa63
 4985 0d3f 0D       		.uleb128 0xd
 4986 0d40 CE090000 		.4byte	0x9ce
 4987 0d44 0D       		.uleb128 0xd
 4988 0d45 0A090000 		.4byte	0x90a
 4989 0d49 00       		.byte	0
 4990 0d4a 03       		.uleb128 0x3
 4991 0d4b 18020000 		.4byte	.LASF208
 4992 0d4f 18       		.byte	0x18
 4993 0d50 56       		.byte	0x56
 4994 0d51 550D0000 		.4byte	0xd55
 4995 0d55 0B       		.uleb128 0xb
 4996 0d56 04       		.byte	0x4
 4997 0d57 5B0D0000 		.4byte	0xd5b
 4998 0d5b 19       		.uleb128 0x19
 4999 0d5c 0A090000 		.4byte	0x90a
 5000 0d60 740D0000 		.4byte	0xd74
 5001 0d64 0D       		.uleb128 0xd
 5002 0d65 3C030000 		.4byte	0x33c
 5003 0d69 0D       		.uleb128 0xd
 5004 0d6a 630A0000 		.4byte	0xa63
 5005 0d6e 0D       		.uleb128 0xd
 5006 0d6f 5A080000 		.4byte	0x85a
 5007 0d73 00       		.byte	0
 5008 0d74 03       		.uleb128 0x3
 5009 0d75 B1070000 		.4byte	.LASF209
 5010 0d79 18       		.byte	0x18
 5011 0d7a 62       		.byte	0x62
 5012 0d7b 7F0D0000 		.4byte	0xd7f
 5013 0d7f 0B       		.uleb128 0xb
 5014 0d80 04       		.byte	0x4
 5015 0d81 850D0000 		.4byte	0xd85
 5016 0d85 19       		.uleb128 0x19
 5017 0d86 0A090000 		.4byte	0x90a
 5018 0d8a 990D0000 		.4byte	0xd99
 5019 0d8e 0D       		.uleb128 0xd
 5020 0d8f 3C030000 		.4byte	0x33c
 5021 0d93 0D       		.uleb128 0xd
 5022 0d94 630A0000 		.4byte	0xa63
ARM GAS  C:\Users\jo\AppData\Local\Temp\ccT06EVW.s 			page 92


 5023 0d98 00       		.byte	0
 5024 0d99 03       		.uleb128 0x3
 5025 0d9a FE050000 		.4byte	.LASF210
 5026 0d9e 18       		.byte	0x18
 5027 0d9f 6E       		.byte	0x6e
 5028 0da0 A40D0000 		.4byte	0xda4
 5029 0da4 0B       		.uleb128 0xb
 5030 0da5 04       		.byte	0x4
 5031 0da6 AA0D0000 		.4byte	0xdaa
 5032 0daa 0C       		.uleb128 0xc
 5033 0dab BA0D0000 		.4byte	0xdba
 5034 0daf 0D       		.uleb128 0xd
 5035 0db0 3C030000 		.4byte	0x33c
 5036 0db4 0D       		.uleb128 0xd
 5037 0db5 0A090000 		.4byte	0x90a
 5038 0db9 00       		.byte	0
 5039 0dba 03       		.uleb128 0x3
 5040 0dbb 34010000 		.4byte	.LASF211
 5041 0dbf 18       		.byte	0x18
 5042 0dc0 7C       		.byte	0x7c
 5043 0dc1 440A0000 		.4byte	0xa44
 5044 0dc5 1C       		.uleb128 0x1c
 5045 0dc6 51030000 		.4byte	.LASF302
 5046 0dca 01       		.byte	0x1
 5047 0dcb 18       		.byte	0x18
 5048 0dcc 7E       		.byte	0x7e
 5049 0dcd 140E0000 		.4byte	0xe14
 5050 0dd1 1B       		.uleb128 0x1b
 5051 0dd2 23080000 		.4byte	.LASF212
 5052 0dd6 00       		.sleb128 0
 5053 0dd7 1B       		.uleb128 0x1b
 5054 0dd8 280B0000 		.4byte	.LASF213
 5055 0ddc 01       		.sleb128 1
 5056 0ddd 1B       		.uleb128 0x1b
 5057 0dde A8070000 		.4byte	.LASF214
 5058 0de2 02       		.sleb128 2
 5059 0de3 1B       		.uleb128 0x1b
 5060 0de4 BB0D0000 		.4byte	.LASF215
 5061 0de8 03       		.sleb128 3
 5062 0de9 1B       		.uleb128 0x1b
 5063 0dea 79090000 		.4byte	.LASF216
 5064 0dee 04       		.sleb128 4
 5065 0def 1B       		.uleb128 0x1b
 5066 0df0 BA0A0000 		.4byte	.LASF217
 5067 0df4 05       		.sleb128 5
 5068 0df5 1B       		.uleb128 0x1b
 5069 0df6 C50A0000 		.4byte	.LASF218
 5070 0dfa 06       		.sleb128 6
 5071 0dfb 1B       		.uleb128 0x1b
 5072 0dfc 6A050000 		.4byte	.LASF219
 5073 0e00 07       		.sleb128 7
 5074 0e01 1B       		.uleb128 0x1b
 5075 0e02 46040000 		.4byte	.LASF220
 5076 0e06 08       		.sleb128 8
 5077 0e07 1B       		.uleb128 0x1b
 5078 0e08 E0030000 		.4byte	.LASF221
 5079 0e0c 09       		.sleb128 9
ARM GAS  C:\Users\jo\AppData\Local\Temp\ccT06EVW.s 			page 93


 5080 0e0d 1B       		.uleb128 0x1b
 5081 0e0e D5000000 		.4byte	.LASF222
 5082 0e12 0A       		.sleb128 10
 5083 0e13 00       		.byte	0
 5084 0e14 0A       		.uleb128 0xa
 5085 0e15 13030000 		.4byte	.LASF223
 5086 0e19 10       		.byte	0x10
 5087 0e1a 19       		.byte	0x19
 5088 0e1b 1501     		.2byte	0x115
 5089 0e1d 610E0000 		.4byte	0xe61
 5090 0e21 09       		.uleb128 0x9
 5091 0e22 45010000 		.4byte	.LASF147
 5092 0e26 19       		.byte	0x19
 5093 0e27 1601     		.2byte	0x116
 5094 0e29 610E0000 		.4byte	0xe61
 5095 0e2d 00       		.byte	0
 5096 0e2e 08       		.uleb128 0x8
 5097 0e2f 7000     		.ascii	"p\000"
 5098 0e31 19       		.byte	0x19
 5099 0e32 1701     		.2byte	0x117
 5100 0e34 CE090000 		.4byte	0x9ce
 5101 0e38 04       		.byte	0x4
 5102 0e39 08       		.uleb128 0x8
 5103 0e3a 6C656E00 		.ascii	"len\000"
 5104 0e3e 19       		.byte	0x19
 5105 0e3f 1801     		.2byte	0x118
 5106 0e41 5A080000 		.4byte	0x85a
 5107 0e45 08       		.byte	0x8
 5108 0e46 09       		.uleb128 0x9
 5109 0e47 4E040000 		.4byte	.LASF151
 5110 0e4b 19       		.byte	0x19
 5111 0e4c 2201     		.2byte	0x122
 5112 0e4e 44080000 		.4byte	0x844
 5113 0e52 0A       		.byte	0xa
 5114 0e53 09       		.uleb128 0x9
 5115 0e54 380A0000 		.4byte	.LASF224
 5116 0e58 19       		.byte	0x19
 5117 0e59 2701     		.2byte	0x127
 5118 0e5b D40E0000 		.4byte	0xed4
 5119 0e5f 0C       		.byte	0xc
 5120 0e60 00       		.byte	0
 5121 0e61 0B       		.uleb128 0xb
 5122 0e62 04       		.byte	0x4
 5123 0e63 140E0000 		.4byte	0xe14
 5124 0e67 06       		.uleb128 0x6
 5125 0e68 890A0000 		.4byte	.LASF225
 5126 0e6c 14       		.byte	0x14
 5127 0e6d 19       		.byte	0x19
 5128 0e6e 9F       		.byte	0x9f
 5129 0e6f D40E0000 		.4byte	0xed4
 5130 0e73 10       		.uleb128 0x10
 5131 0e74 73726300 		.ascii	"src\000"
 5132 0e78 19       		.byte	0x19
 5133 0e79 A0       		.byte	0xa0
 5134 0e7a 5A080000 		.4byte	0x85a
 5135 0e7e 00       		.byte	0
 5136 0e7f 07       		.uleb128 0x7
ARM GAS  C:\Users\jo\AppData\Local\Temp\ccT06EVW.s 			page 94


 5137 0e80 A60D0000 		.4byte	.LASF226
 5138 0e84 19       		.byte	0x19
 5139 0e85 A1       		.byte	0xa1
 5140 0e86 5A080000 		.4byte	0x85a
 5141 0e8a 02       		.byte	0x2
 5142 0e8b 07       		.uleb128 0x7
 5143 0e8c 66020000 		.4byte	.LASF227
 5144 0e90 19       		.byte	0x19
 5145 0e91 A2       		.byte	0xa2
 5146 0e92 70080000 		.4byte	0x870
 5147 0e96 04       		.byte	0x4
 5148 0e97 07       		.uleb128 0x7
 5149 0e98 7B060000 		.4byte	.LASF228
 5150 0e9c 19       		.byte	0x19
 5151 0e9d A3       		.byte	0xa3
 5152 0e9e 70080000 		.4byte	0x870
 5153 0ea2 08       		.byte	0x8
 5154 0ea3 07       		.uleb128 0x7
 5155 0ea4 E9090000 		.4byte	.LASF229
 5156 0ea8 19       		.byte	0x19
 5157 0ea9 A4       		.byte	0xa4
 5158 0eaa 5A080000 		.4byte	0x85a
 5159 0eae 0C       		.byte	0xc
 5160 0eaf 10       		.uleb128 0x10
 5161 0eb0 776E6400 		.ascii	"wnd\000"
 5162 0eb4 19       		.byte	0x19
 5163 0eb5 A5       		.byte	0xa5
 5164 0eb6 5A080000 		.4byte	0x85a
 5165 0eba 0E       		.byte	0xe
 5166 0ebb 07       		.uleb128 0x7
 5167 0ebc E9030000 		.4byte	.LASF230
 5168 0ec0 19       		.byte	0x19
 5169 0ec1 A6       		.byte	0xa6
 5170 0ec2 5A080000 		.4byte	0x85a
 5171 0ec6 10       		.byte	0x10
 5172 0ec7 07       		.uleb128 0x7
 5173 0ec8 030A0000 		.4byte	.LASF231
 5174 0ecc 19       		.byte	0x19
 5175 0ecd A7       		.byte	0xa7
 5176 0ece 5A080000 		.4byte	0x85a
 5177 0ed2 12       		.byte	0x12
 5178 0ed3 00       		.byte	0
 5179 0ed4 0B       		.uleb128 0xb
 5180 0ed5 04       		.byte	0x4
 5181 0ed6 670E0000 		.4byte	0xe67
 5182 0eda 0B       		.uleb128 0xb
 5183 0edb 04       		.byte	0x4
 5184 0edc E00E0000 		.4byte	0xee0
 5185 0ee0 1D       		.uleb128 0x1d
 5186 0ee1 03       		.uleb128 0x3
 5187 0ee2 A2080000 		.4byte	.LASF232
 5188 0ee6 1A       		.byte	0x1a
 5189 0ee7 4E       		.byte	0x4e
 5190 0ee8 2B030000 		.4byte	0x32b
 5191 0eec 1E       		.uleb128 0x1e
 5192 0eed 44020000 		.4byte	.LASF233
 5193 0ef1 01       		.byte	0x1
ARM GAS  C:\Users\jo\AppData\Local\Temp\ccT06EVW.s 			page 95


 5194 0ef2 98       		.byte	0x98
 5195 0ef3 01       		.byte	0x1
 5196 0ef4 040F0000 		.4byte	0xf04
 5197 0ef8 1F       		.uleb128 0x1f
 5198 0ef9 B40D0000 		.4byte	.LASF236
 5199 0efd 01       		.byte	0x1
 5200 0efe A0       		.byte	0xa0
 5201 0eff 44080000 		.4byte	0x844
 5202 0f03 00       		.byte	0
 5203 0f04 20       		.uleb128 0x20
 5204 0f05 C8080000 		.4byte	.LASF234
 5205 0f09 03       		.byte	0x3
 5206 0f0a 9C01     		.2byte	0x19c
 5207 0f0c 03       		.byte	0x3
 5208 0f0d 1E0F0000 		.4byte	0xf1e
 5209 0f11 21       		.uleb128 0x21
 5210 0f12 39030000 		.4byte	.LASF235
 5211 0f16 03       		.byte	0x3
 5212 0f17 9C01     		.2byte	0x19c
 5213 0f19 18060000 		.4byte	0x618
 5214 0f1d 00       		.byte	0
 5215 0f1e 22       		.uleb128 0x22
 5216 0f1f C3090000 		.4byte	.LASF286
 5217 0f23 01       		.byte	0x1
 5218 0f24 D302     		.2byte	0x2d3
 5219 0f26 01       		.byte	0x1
 5220 0f27 360F0000 		.4byte	0xf36
 5221 0f2b 23       		.uleb128 0x23
 5222 0f2c 7000     		.ascii	"p\000"
 5223 0f2e 01       		.byte	0x1
 5224 0f2f D302     		.2byte	0x2d3
 5225 0f31 CE090000 		.4byte	0x9ce
 5226 0f35 00       		.byte	0
 5227 0f36 24       		.uleb128 0x24
 5228 0f37 B7010000 		.4byte	.LASF288
 5229 0f3b 01       		.byte	0x1
 5230 0f3c 3504     		.2byte	0x435
 5231 0f3e 44080000 		.4byte	0x844
 5232 0f42 01       		.byte	0x1
 5233 0f43 740F0000 		.4byte	0xf74
 5234 0f47 23       		.uleb128 0x23
 5235 0f48 7000     		.ascii	"p\000"
 5236 0f4a 01       		.byte	0x1
 5237 0f4b 3504     		.2byte	0x435
 5238 0f4d CE090000 		.4byte	0x9ce
 5239 0f51 21       		.uleb128 0x21
 5240 0f52 32030000 		.4byte	.LASF91
 5241 0f56 01       		.byte	0x1
 5242 0f57 3504     		.2byte	0x435
 5243 0f59 5A080000 		.4byte	0x85a
 5244 0f5d 25       		.uleb128 0x25
 5245 0f5e 910A0000 		.4byte	.LASF237
 5246 0f62 01       		.byte	0x1
 5247 0f63 3704     		.2byte	0x437
 5248 0f65 5A080000 		.4byte	0x85a
 5249 0f69 26       		.uleb128 0x26
 5250 0f6a 7100     		.ascii	"q\000"
ARM GAS  C:\Users\jo\AppData\Local\Temp\ccT06EVW.s 			page 96


 5251 0f6c 01       		.byte	0x1
 5252 0f6d 3804     		.2byte	0x438
 5253 0f6f CE090000 		.4byte	0x9ce
 5254 0f73 00       		.byte	0
 5255 0f74 27       		.uleb128 0x27
 5256 0f75 05050000 		.4byte	.LASF303
 5257 0f79 02       		.byte	0x2
 5258 0f7a 45       		.byte	0x45
 5259 0f7b 25000000 		.4byte	0x25
 5260 0f7f 03       		.byte	0x3
 5261 0f80 B10F0000 		.4byte	0xfb1
 5262 0f84 28       		.uleb128 0x28
 5263 0f85 63687000 		.ascii	"chp\000"
 5264 0f89 02       		.byte	0x2
 5265 0f8a 45       		.byte	0x45
 5266 0f8b B10F0000 		.4byte	0xfb1
 5267 0f8f 28       		.uleb128 0x28
 5268 0f90 666D7400 		.ascii	"fmt\000"
 5269 0f94 02       		.byte	0x2
 5270 0f95 45       		.byte	0x45
 5271 0f96 18060000 		.4byte	0x618
 5272 0f9a 29       		.uleb128 0x29
 5273 0f9b 2A       		.uleb128 0x2a
 5274 0f9c 617000   		.ascii	"ap\000"
 5275 0f9f 02       		.byte	0x2
 5276 0fa0 46       		.byte	0x46
 5277 0fa1 39080000 		.4byte	0x839
 5278 0fa5 1F       		.uleb128 0x1f
 5279 0fa6 490D0000 		.4byte	.LASF238
 5280 0faa 02       		.byte	0x2
 5281 0fab 47       		.byte	0x47
 5282 0fac 25000000 		.4byte	0x25
 5283 0fb0 00       		.byte	0
 5284 0fb1 0B       		.uleb128 0xb
 5285 0fb2 04       		.byte	0x4
 5286 0fb3 BF070000 		.4byte	0x7bf
 5287 0fb7 1E       		.uleb128 0x1e
 5288 0fb8 F80C0000 		.4byte	.LASF239
 5289 0fbc 01       		.byte	0x1
 5290 0fbd 76       		.byte	0x76
 5291 0fbe 01       		.byte	0x1
 5292 0fbf CF0F0000 		.4byte	0xfcf
 5293 0fc3 2A       		.uleb128 0x2a
 5294 0fc4 70636200 		.ascii	"pcb\000"
 5295 0fc8 01       		.byte	0x1
 5296 0fc9 78       		.byte	0x78
 5297 0fca 630A0000 		.4byte	0xa63
 5298 0fce 00       		.byte	0
 5299 0fcf 2B       		.uleb128 0x2b
 5300 0fd0 3F090000 		.4byte	.LASF304
 5301 0fd4 01       		.byte	0x1
 5302 0fd5 8F       		.byte	0x8f
 5303 0fd6 00000000 		.4byte	.LFB257
 5304 0fda 30000000 		.4byte	.LFE257-.LFB257
 5305 0fde 01       		.uleb128 0x1
 5306 0fdf 9C       		.byte	0x9c
 5307 0fe0 1C100000 		.4byte	0x101c
ARM GAS  C:\Users\jo\AppData\Local\Temp\ccT06EVW.s 			page 97


 5308 0fe4 2C       		.uleb128 0x2c
 5309 0fe5 61726700 		.ascii	"arg\000"
 5310 0fe9 01       		.byte	0x1
 5311 0fea 8F       		.byte	0x8f
 5312 0feb 3C030000 		.4byte	0x33c
 5313 0fef 00000000 		.4byte	.LLST0
 5314 0ff3 2D       		.uleb128 0x2d
 5315 0ff4 B70F0000 		.4byte	0xfb7
 5316 0ff8 00000000 		.4byte	.LBB96
 5317 0ffc 00000000 		.4byte	.Ldebug_ranges0+0
 5318 1000 01       		.byte	0x1
 5319 1001 92       		.byte	0x92
 5320 1002 2E       		.uleb128 0x2e
 5321 1003 00000000 		.4byte	.Ldebug_ranges0+0
 5322 1007 2F       		.uleb128 0x2f
 5323 1008 C30F0000 		.4byte	0xfc3
 5324 100c 21000000 		.4byte	.LLST1
 5325 1010 30       		.uleb128 0x30
 5326 1011 1E000000 		.4byte	.LVL4
 5327 1015 56280000 		.4byte	0x2856
 5328 1019 00       		.byte	0
 5329 101a 00       		.byte	0
 5330 101b 00       		.byte	0
 5331 101c 31       		.uleb128 0x31
 5332 101d EC0E0000 		.4byte	0xeec
 5333 1021 00000000 		.4byte	.LFB277
 5334 1025 20000000 		.4byte	.LFE277-.LFB277
 5335 1029 01       		.uleb128 0x1
 5336 102a 9C       		.byte	0x9c
 5337 102b 52100000 		.4byte	0x1052
 5338 102f 32       		.uleb128 0x32
 5339 1030 F80E0000 		.4byte	0xef8
 5340 1034 33       		.uleb128 0x33
 5341 1035 0C000000 		.4byte	.LVL7
 5342 1039 68280000 		.4byte	0x2868
 5343 103d 34       		.uleb128 0x34
 5344 103e 01       		.uleb128 0x1
 5345 103f 52       		.byte	0x52
 5346 1040 01       		.uleb128 0x1
 5347 1041 30       		.byte	0x30
 5348 1042 34       		.uleb128 0x34
 5349 1043 01       		.uleb128 0x1
 5350 1044 51       		.byte	0x51
 5351 1045 01       		.uleb128 0x1
 5352 1046 30       		.byte	0x30
 5353 1047 34       		.uleb128 0x34
 5354 1048 01       		.uleb128 0x1
 5355 1049 50       		.byte	0x50
 5356 104a 05       		.uleb128 0x5
 5357 104b 03       		.byte	0x3
 5358 104c 00000000 		.4byte	pbuf_free_ooseq_callback
 5359 1050 00       		.byte	0
 5360 1051 00       		.byte	0
 5361 1052 31       		.uleb128 0x31
 5362 1053 740F0000 		.4byte	0xf74
 5363 1057 00000000 		.4byte	.LFB278
 5364 105b 28000000 		.4byte	.LFE278-.LFB278
ARM GAS  C:\Users\jo\AppData\Local\Temp\ccT06EVW.s 			page 98


 5365 105f 01       		.uleb128 0x1
 5366 1060 9C       		.byte	0x9c
 5367 1061 B1100000 		.4byte	0x10b1
 5368 1065 35       		.uleb128 0x35
 5369 1066 840F0000 		.4byte	0xf84
 5370 106a 34000000 		.4byte	.LLST2
 5371 106e 36       		.uleb128 0x36
 5372 106f 8F0F0000 		.4byte	0xf8f
 5373 1073 02       		.uleb128 0x2
 5374 1074 91       		.byte	0x91
 5375 1075 74       		.sleb128 -12
 5376 1076 29       		.uleb128 0x29
 5377 1077 37       		.uleb128 0x37
 5378 1078 9B0F0000 		.4byte	0xf9b
 5379 107c 02       		.uleb128 0x2
 5380 107d 91       		.byte	0x91
 5381 107e 6C       		.sleb128 -20
 5382 107f 37       		.uleb128 0x37
 5383 1080 A50F0000 		.4byte	0xfa5
 5384 1084 01       		.uleb128 0x1
 5385 1085 50       		.byte	0x50
 5386 1086 36       		.uleb128 0x36
 5387 1087 8F0F0000 		.4byte	0xf8f
 5388 108b 06       		.uleb128 0x6
 5389 108c 03       		.byte	0x3
 5390 108d 00000000 		.4byte	.LC0
 5391 1091 9F       		.byte	0x9f
 5392 1092 38       		.uleb128 0x38
 5393 1093 840F0000 		.4byte	0xf84
 5394 1097 33       		.uleb128 0x33
 5395 1098 14000000 		.4byte	.LVL10
 5396 109c 87280000 		.4byte	0x2887
 5397 10a0 34       		.uleb128 0x34
 5398 10a1 01       		.uleb128 0x1
 5399 10a2 52       		.byte	0x52
 5400 10a3 02       		.uleb128 0x2
 5401 10a4 91       		.byte	0x91
 5402 10a5 60       		.sleb128 -32
 5403 10a6 34       		.uleb128 0x34
 5404 10a7 01       		.uleb128 0x1
 5405 10a8 51       		.byte	0x51
 5406 10a9 05       		.uleb128 0x5
 5407 10aa 03       		.byte	0x3
 5408 10ab 00000000 		.4byte	.LC0
 5409 10af 00       		.byte	0
 5410 10b0 00       		.byte	0
 5411 10b1 39       		.uleb128 0x39
 5412 10b2 80080000 		.4byte	.LASF243
 5413 10b6 01       		.byte	0x1
 5414 10b7 6F01     		.2byte	0x16f
 5415 10b9 CE090000 		.4byte	0x9ce
 5416 10bd 00000000 		.4byte	.LFB260
 5417 10c1 8C000000 		.4byte	.LFE260-.LFB260
 5418 10c5 01       		.uleb128 0x1
 5419 10c6 9C       		.byte	0x9c
 5420 10c7 96110000 		.4byte	0x1196
 5421 10cb 3A       		.uleb128 0x3a
ARM GAS  C:\Users\jo\AppData\Local\Temp\ccT06EVW.s 			page 99


 5422 10cc 6C00     		.ascii	"l\000"
 5423 10ce 01       		.byte	0x1
 5424 10cf 6F01     		.2byte	0x16f
 5425 10d1 36090000 		.4byte	0x936
 5426 10d5 55000000 		.4byte	.LLST3
 5427 10d9 3B       		.uleb128 0x3b
 5428 10da 94080000 		.4byte	.LASF240
 5429 10de 01       		.byte	0x1
 5430 10df 6F01     		.2byte	0x16f
 5431 10e1 5A080000 		.4byte	0x85a
 5432 10e5 DA000000 		.4byte	.LLST4
 5433 10e9 3B       		.uleb128 0x3b
 5434 10ea A20A0000 		.4byte	.LASF150
 5435 10ee 01       		.byte	0x1
 5436 10ef 6F01     		.2byte	0x16f
 5437 10f1 62090000 		.4byte	0x962
 5438 10f5 06010000 		.4byte	.LLST5
 5439 10f9 3A       		.uleb128 0x3a
 5440 10fa 7000     		.ascii	"p\000"
 5441 10fc 01       		.byte	0x1
 5442 10fd 6F01     		.2byte	0x16f
 5443 10ff 96110000 		.4byte	0x1196
 5444 1103 32010000 		.4byte	.LLST6
 5445 1107 3B       		.uleb128 0x3b
 5446 1108 770B0000 		.4byte	.LASF241
 5447 110c 01       		.byte	0x1
 5448 110d 7001     		.2byte	0x170
 5449 110f 3C030000 		.4byte	0x33c
 5450 1113 5E010000 		.4byte	.LLST7
 5451 1117 3B       		.uleb128 0x3b
 5452 1118 4D070000 		.4byte	.LASF242
 5453 111c 01       		.byte	0x1
 5454 111d 7001     		.2byte	0x170
 5455 111f 5A080000 		.4byte	0x85a
 5456 1123 7E010000 		.4byte	.LLST8
 5457 1127 3C       		.uleb128 0x3c
 5458 1128 32030000 		.4byte	.LASF91
 5459 112c 01       		.byte	0x1
 5460 112d 7201     		.2byte	0x172
 5461 112f 5A080000 		.4byte	0x85a
 5462 1133 9E010000 		.4byte	.LLST9
 5463 1137 3D       		.uleb128 0x3d
 5464 1138 040F0000 		.4byte	0xf04
 5465 113c 66000000 		.4byte	.LBB100
 5466 1140 06000000 		.4byte	.LBE100-.LBB100
 5467 1144 01       		.byte	0x1
 5468 1145 8701     		.2byte	0x187
 5469 1147 68110000 		.4byte	0x1168
 5470 114b 35       		.uleb128 0x35
 5471 114c 110F0000 		.4byte	0xf11
 5472 1150 B2010000 		.4byte	.LLST10
 5473 1154 33       		.uleb128 0x33
 5474 1155 6C000000 		.4byte	.LVL25
 5475 1159 A6280000 		.4byte	0x28a6
 5476 115d 34       		.uleb128 0x34
 5477 115e 01       		.uleb128 0x1
 5478 115f 50       		.byte	0x50
ARM GAS  C:\Users\jo\AppData\Local\Temp\ccT06EVW.s 			page 100


 5479 1160 05       		.uleb128 0x5
 5480 1161 03       		.byte	0x3
 5481 1162 28000000 		.4byte	.LC1
 5482 1166 00       		.byte	0
 5483 1167 00       		.byte	0
 5484 1168 33       		.uleb128 0x33
 5485 1169 66000000 		.4byte	.LVL24
 5486 116d 52100000 		.4byte	0x1052
 5487 1171 34       		.uleb128 0x34
 5488 1172 01       		.uleb128 0x1
 5489 1173 53       		.byte	0x53
 5490 1174 03       		.uleb128 0x3
 5491 1175 0A       		.byte	0xa
 5492 1176 8701     		.2byte	0x187
 5493 1178 34       		.uleb128 0x34
 5494 1179 01       		.uleb128 0x1
 5495 117a 52       		.byte	0x52
 5496 117b 05       		.uleb128 0x5
 5497 117c 03       		.byte	0x3
 5498 117d 28000000 		.4byte	.LC1
 5499 1181 34       		.uleb128 0x34
 5500 1182 01       		.uleb128 0x1
 5501 1183 51       		.byte	0x51
 5502 1184 05       		.uleb128 0x5
 5503 1185 03       		.byte	0x3
 5504 1186 00000000 		.4byte	.LC0
 5505 118a 34       		.uleb128 0x34
 5506 118b 02       		.uleb128 0x2
 5507 118c 7D       		.byte	0x7d
 5508 118d 00       		.sleb128 0
 5509 118e 05       		.uleb128 0x5
 5510 118f 03       		.byte	0x3
 5511 1190 4C000000 		.4byte	.LC2
 5512 1194 00       		.byte	0
 5513 1195 00       		.byte	0
 5514 1196 0B       		.uleb128 0xb
 5515 1197 04       		.byte	0x4
 5516 1198 F0090000 		.4byte	0x9f0
 5517 119c 39       		.uleb128 0x39
 5518 119d 17050000 		.4byte	.LASF244
 5519 11a1 01       		.byte	0x1
 5520 11a2 FF01     		.2byte	0x1ff
 5521 11a4 44080000 		.4byte	0x844
 5522 11a8 00000000 		.4byte	.LFB262
 5523 11ac D4000000 		.4byte	.LFE262-.LFB262
 5524 11b0 01       		.uleb128 0x1
 5525 11b1 9C       		.byte	0x9c
 5526 11b2 27130000 		.4byte	0x1327
 5527 11b6 3A       		.uleb128 0x3a
 5528 11b7 7000     		.ascii	"p\000"
 5529 11b9 01       		.byte	0x1
 5530 11ba FF01     		.2byte	0x1ff
 5531 11bc CE090000 		.4byte	0x9ce
 5532 11c0 CA010000 		.4byte	.LLST11
 5533 11c4 3B       		.uleb128 0x3b
 5534 11c5 7E050000 		.4byte	.LASF245
 5535 11c9 01       		.byte	0x1
ARM GAS  C:\Users\jo\AppData\Local\Temp\ccT06EVW.s 			page 101


 5536 11ca FF01     		.2byte	0x1ff
 5537 11cc 65080000 		.4byte	0x865
 5538 11d0 14020000 		.4byte	.LLST12
 5539 11d4 3C       		.uleb128 0x3c
 5540 11d5 A20A0000 		.4byte	.LASF150
 5541 11d9 01       		.byte	0x1
 5542 11da 0102     		.2byte	0x201
 5543 11dc 5A080000 		.4byte	0x85a
 5544 11e0 8B020000 		.4byte	.LLST13
 5545 11e4 3C       		.uleb128 0x3c
 5546 11e5 02040000 		.4byte	.LASF148
 5547 11e9 01       		.byte	0x1
 5548 11ea 0202     		.2byte	0x202
 5549 11ec 3C030000 		.4byte	0x33c
 5550 11f0 2A030000 		.4byte	.LLST14
 5551 11f4 3C       		.uleb128 0x3c
 5552 11f5 9F040000 		.4byte	.LASF246
 5553 11f9 01       		.byte	0x1
 5554 11fa 0302     		.2byte	0x203
 5555 11fc 5A080000 		.4byte	0x85a
 5556 1200 8D030000 		.4byte	.LLST15
 5557 1204 3D       		.uleb128 0x3d
 5558 1205 040F0000 		.4byte	0xf04
 5559 1209 66000000 		.4byte	.LBB102
 5560 120d 06000000 		.4byte	.LBE102-.LBB102
 5561 1211 01       		.byte	0x1
 5562 1212 0D02     		.2byte	0x20d
 5563 1214 35120000 		.4byte	0x1235
 5564 1218 35       		.uleb128 0x35
 5565 1219 110F0000 		.4byte	0xf11
 5566 121d C1030000 		.4byte	.LLST16
 5567 1221 33       		.uleb128 0x33
 5568 1222 6C000000 		.4byte	.LVL46
 5569 1226 A6280000 		.4byte	0x28a6
 5570 122a 34       		.uleb128 0x34
 5571 122b 01       		.uleb128 0x1
 5572 122c 50       		.byte	0x50
 5573 122d 05       		.uleb128 0x5
 5574 122e 03       		.byte	0x3
 5575 122f 84000000 		.4byte	.LC4
 5576 1233 00       		.byte	0
 5577 1234 00       		.byte	0
 5578 1235 3D       		.uleb128 0x3d
 5579 1236 040F0000 		.4byte	0xf04
 5580 123a 8A000000 		.4byte	.LBB104
 5581 123e 06000000 		.4byte	.LBE104-.LBB104
 5582 1242 01       		.byte	0x1
 5583 1243 3B02     		.2byte	0x23b
 5584 1245 66120000 		.4byte	0x1266
 5585 1249 35       		.uleb128 0x35
 5586 124a 110F0000 		.4byte	0xf11
 5587 124e D9030000 		.4byte	.LLST17
 5588 1252 33       		.uleb128 0x33
 5589 1253 90000000 		.4byte	.LVL56
 5590 1257 A6280000 		.4byte	0x28a6
 5591 125b 34       		.uleb128 0x34
 5592 125c 01       		.uleb128 0x1
ARM GAS  C:\Users\jo\AppData\Local\Temp\ccT06EVW.s 			page 102


 5593 125d 50       		.byte	0x50
 5594 125e 05       		.uleb128 0x5
 5595 125f 03       		.byte	0x3
 5596 1260 A4000000 		.4byte	.LC5
 5597 1264 00       		.byte	0
 5598 1265 00       		.byte	0
 5599 1266 3D       		.uleb128 0x3d
 5600 1267 040F0000 		.4byte	0xf04
 5601 126b A6000000 		.4byte	.LBB106
 5602 126f 06000000 		.4byte	.LBE106-.LBB106
 5603 1273 01       		.byte	0x1
 5604 1274 0502     		.2byte	0x205
 5605 1276 97120000 		.4byte	0x1297
 5606 127a 35       		.uleb128 0x35
 5607 127b 110F0000 		.4byte	0xf11
 5608 127f F1030000 		.4byte	.LLST18
 5609 1283 33       		.uleb128 0x33
 5610 1284 AC000000 		.4byte	.LVL61
 5611 1288 A6280000 		.4byte	0x28a6
 5612 128c 34       		.uleb128 0x34
 5613 128d 01       		.uleb128 0x1
 5614 128e 50       		.byte	0x50
 5615 128f 05       		.uleb128 0x5
 5616 1290 03       		.byte	0x3
 5617 1291 78000000 		.4byte	.LC3
 5618 1295 00       		.byte	0
 5619 1296 00       		.byte	0
 5620 1297 3E       		.uleb128 0x3e
 5621 1298 66000000 		.4byte	.LVL45
 5622 129c 52100000 		.4byte	0x1052
 5623 12a0 C8120000 		.4byte	0x12c8
 5624 12a4 34       		.uleb128 0x34
 5625 12a5 01       		.uleb128 0x1
 5626 12a6 53       		.byte	0x53
 5627 12a7 03       		.uleb128 0x3
 5628 12a8 0A       		.byte	0xa
 5629 12a9 0D02     		.2byte	0x20d
 5630 12ab 34       		.uleb128 0x34
 5631 12ac 01       		.uleb128 0x1
 5632 12ad 52       		.byte	0x52
 5633 12ae 05       		.uleb128 0x5
 5634 12af 03       		.byte	0x3
 5635 12b0 84000000 		.4byte	.LC4
 5636 12b4 34       		.uleb128 0x34
 5637 12b5 01       		.uleb128 0x1
 5638 12b6 51       		.byte	0x51
 5639 12b7 05       		.uleb128 0x5
 5640 12b8 03       		.byte	0x3
 5641 12b9 00000000 		.4byte	.LC0
 5642 12bd 34       		.uleb128 0x34
 5643 12be 02       		.uleb128 0x2
 5644 12bf 7D       		.byte	0x7d
 5645 12c0 00       		.sleb128 0
 5646 12c1 05       		.uleb128 0x5
 5647 12c2 03       		.byte	0x3
 5648 12c3 4C000000 		.4byte	.LC2
 5649 12c7 00       		.byte	0
ARM GAS  C:\Users\jo\AppData\Local\Temp\ccT06EVW.s 			page 103


 5650 12c8 3E       		.uleb128 0x3e
 5651 12c9 8A000000 		.4byte	.LVL55
 5652 12cd 52100000 		.4byte	0x1052
 5653 12d1 F9120000 		.4byte	0x12f9
 5654 12d5 34       		.uleb128 0x34
 5655 12d6 01       		.uleb128 0x1
 5656 12d7 53       		.byte	0x53
 5657 12d8 03       		.uleb128 0x3
 5658 12d9 0A       		.byte	0xa
 5659 12da 3B02     		.2byte	0x23b
 5660 12dc 34       		.uleb128 0x34
 5661 12dd 01       		.uleb128 0x1
 5662 12de 52       		.byte	0x52
 5663 12df 05       		.uleb128 0x5
 5664 12e0 03       		.byte	0x3
 5665 12e1 A4000000 		.4byte	.LC5
 5666 12e5 34       		.uleb128 0x34
 5667 12e6 01       		.uleb128 0x1
 5668 12e7 51       		.byte	0x51
 5669 12e8 05       		.uleb128 0x5
 5670 12e9 03       		.byte	0x3
 5671 12ea 00000000 		.4byte	.LC0
 5672 12ee 34       		.uleb128 0x34
 5673 12ef 02       		.uleb128 0x2
 5674 12f0 7D       		.byte	0x7d
 5675 12f1 00       		.sleb128 0
 5676 12f2 05       		.uleb128 0x5
 5677 12f3 03       		.byte	0x3
 5678 12f4 4C000000 		.4byte	.LC2
 5679 12f8 00       		.byte	0
 5680 12f9 33       		.uleb128 0x33
 5681 12fa A6000000 		.4byte	.LVL60
 5682 12fe 52100000 		.4byte	0x1052
 5683 1302 34       		.uleb128 0x34
 5684 1303 01       		.uleb128 0x1
 5685 1304 53       		.byte	0x53
 5686 1305 03       		.uleb128 0x3
 5687 1306 0A       		.byte	0xa
 5688 1307 0502     		.2byte	0x205
 5689 1309 34       		.uleb128 0x34
 5690 130a 01       		.uleb128 0x1
 5691 130b 52       		.byte	0x52
 5692 130c 05       		.uleb128 0x5
 5693 130d 03       		.byte	0x3
 5694 130e 78000000 		.4byte	.LC3
 5695 1312 34       		.uleb128 0x34
 5696 1313 01       		.uleb128 0x1
 5697 1314 51       		.byte	0x51
 5698 1315 05       		.uleb128 0x5
 5699 1316 03       		.byte	0x3
 5700 1317 00000000 		.4byte	.LC0
 5701 131b 34       		.uleb128 0x34
 5702 131c 02       		.uleb128 0x2
 5703 131d 7D       		.byte	0x7d
 5704 131e 00       		.sleb128 0
 5705 131f 05       		.uleb128 0x5
 5706 1320 03       		.byte	0x3
ARM GAS  C:\Users\jo\AppData\Local\Temp\ccT06EVW.s 			page 104


 5707 1321 4C000000 		.4byte	.LC2
 5708 1325 00       		.byte	0
 5709 1326 00       		.byte	0
 5710 1327 39       		.uleb128 0x39
 5711 1328 2B060000 		.4byte	.LASF247
 5712 132c 01       		.byte	0x1
 5713 132d 6A02     		.2byte	0x26a
 5714 132f 44080000 		.4byte	0x844
 5715 1333 00000000 		.4byte	.LFB263
 5716 1337 F8000000 		.4byte	.LFE263-.LFB263
 5717 133b 01       		.uleb128 0x1
 5718 133c 9C       		.byte	0x9c
 5719 133d 80150000 		.4byte	0x1580
 5720 1341 3A       		.uleb128 0x3a
 5721 1342 7000     		.ascii	"p\000"
 5722 1344 01       		.byte	0x1
 5723 1345 6A02     		.2byte	0x26a
 5724 1347 CE090000 		.4byte	0x9ce
 5725 134b 09040000 		.4byte	.LLST19
 5726 134f 3C       		.uleb128 0x3c
 5727 1350 A20A0000 		.4byte	.LASF150
 5728 1354 01       		.byte	0x1
 5729 1355 6C02     		.2byte	0x26c
 5730 1357 5A080000 		.4byte	0x85a
 5731 135b 7F040000 		.4byte	.LLST20
 5732 135f 3F       		.uleb128 0x3f
 5733 1360 7100     		.ascii	"q\000"
 5734 1362 01       		.byte	0x1
 5735 1363 6D02     		.2byte	0x26d
 5736 1365 CE090000 		.4byte	0x9ce
 5737 1369 01050000 		.4byte	.LLST21
 5738 136d 3C       		.uleb128 0x3c
 5739 136e E9020000 		.4byte	.LASF248
 5740 1372 01       		.byte	0x1
 5741 1373 6E02     		.2byte	0x26e
 5742 1375 44080000 		.4byte	0x844
 5743 1379 2A050000 		.4byte	.LLST22
 5744 137d 40       		.uleb128 0x40
 5745 137e 18000000 		.4byte	.Ldebug_ranges0+0x18
 5746 1382 BC140000 		.4byte	0x14bc
 5747 1386 3F       		.uleb128 0x3f
 5748 1387 72656600 		.ascii	"ref\000"
 5749 138b 01       		.byte	0x1
 5750 138c 8302     		.2byte	0x283
 5751 138e 5A080000 		.4byte	0x85a
 5752 1392 6A050000 		.4byte	.LLST23
 5753 1396 40       		.uleb128 0x40
 5754 1397 38000000 		.4byte	.Ldebug_ranges0+0x38
 5755 139b 1A140000 		.4byte	0x141a
 5756 139f 3F       		.uleb128 0x3f
 5757 13a0 706300   		.ascii	"pc\000"
 5758 13a3 01       		.byte	0x1
 5759 13a4 9702     		.2byte	0x297
 5760 13a6 96110000 		.4byte	0x1196
 5761 13aa B9050000 		.4byte	.LLST24
 5762 13ae 3D       		.uleb128 0x3d
 5763 13af 040F0000 		.4byte	0xf04
ARM GAS  C:\Users\jo\AppData\Local\Temp\ccT06EVW.s 			page 105


 5764 13b3 9C000000 		.4byte	.LBB110
 5765 13b7 0A000000 		.4byte	.LBE110-.LBB110
 5766 13bb 01       		.byte	0x1
 5767 13bc 9802     		.2byte	0x298
 5768 13be DF130000 		.4byte	0x13df
 5769 13c2 35       		.uleb128 0x35
 5770 13c3 110F0000 		.4byte	0xf11
 5771 13c7 D7050000 		.4byte	.LLST25
 5772 13cb 33       		.uleb128 0x33
 5773 13cc A2000000 		.4byte	.LVL94
 5774 13d0 A6280000 		.4byte	0x28a6
 5775 13d4 34       		.uleb128 0x34
 5776 13d5 01       		.uleb128 0x1
 5777 13d6 50       		.byte	0x50
 5778 13d7 05       		.uleb128 0x5
 5779 13d8 03       		.byte	0x3
 5780 13d9 E4000000 		.4byte	.LC8
 5781 13dd 00       		.byte	0
 5782 13de 00       		.byte	0
 5783 13df 41       		.uleb128 0x41
 5784 13e0 20000000 		.4byte	.LVL71
 5785 13e4 EF130000 		.4byte	0x13ef
 5786 13e8 34       		.uleb128 0x34
 5787 13e9 01       		.uleb128 0x1
 5788 13ea 50       		.byte	0x50
 5789 13eb 02       		.uleb128 0x2
 5790 13ec 74       		.byte	0x74
 5791 13ed 00       		.sleb128 0
 5792 13ee 00       		.byte	0
 5793 13ef 33       		.uleb128 0x33
 5794 13f0 9C000000 		.4byte	.LVL93
 5795 13f4 52100000 		.4byte	0x1052
 5796 13f8 34       		.uleb128 0x34
 5797 13f9 01       		.uleb128 0x1
 5798 13fa 53       		.byte	0x53
 5799 13fb 03       		.uleb128 0x3
 5800 13fc 0A       		.byte	0xa
 5801 13fd 9802     		.2byte	0x298
 5802 13ff 34       		.uleb128 0x34
 5803 1400 01       		.uleb128 0x1
 5804 1401 52       		.byte	0x52
 5805 1402 05       		.uleb128 0x5
 5806 1403 03       		.byte	0x3
 5807 1404 E4000000 		.4byte	.LC8
 5808 1408 34       		.uleb128 0x34
 5809 1409 01       		.uleb128 0x1
 5810 140a 51       		.byte	0x51
 5811 140b 05       		.uleb128 0x5
 5812 140c 03       		.byte	0x3
 5813 140d 00000000 		.4byte	.LC0
 5814 1411 34       		.uleb128 0x34
 5815 1412 02       		.uleb128 0x2
 5816 1413 7D       		.byte	0x7d
 5817 1414 00       		.sleb128 0
 5818 1415 02       		.uleb128 0x2
 5819 1416 76       		.byte	0x76
 5820 1417 00       		.sleb128 0
ARM GAS  C:\Users\jo\AppData\Local\Temp\ccT06EVW.s 			page 106


 5821 1418 00       		.byte	0
 5822 1419 00       		.byte	0
 5823 141a 3D       		.uleb128 0x3d
 5824 141b 040F0000 		.4byte	0xf04
 5825 141f 6E000000 		.4byte	.LBB112
 5826 1423 0A000000 		.4byte	.LBE112-.LBB112
 5827 1427 01       		.byte	0x1
 5828 1428 8A02     		.2byte	0x28a
 5829 142a 4B140000 		.4byte	0x144b
 5830 142e 35       		.uleb128 0x35
 5831 142f 110F0000 		.4byte	0xf11
 5832 1433 EF050000 		.4byte	.LLST26
 5833 1437 33       		.uleb128 0x33
 5834 1438 74000000 		.4byte	.LVL86
 5835 143c A6280000 		.4byte	0x28a6
 5836 1440 34       		.uleb128 0x34
 5837 1441 01       		.uleb128 0x1
 5838 1442 50       		.byte	0x50
 5839 1443 05       		.uleb128 0x5
 5840 1444 03       		.byte	0x3
 5841 1445 CC000000 		.4byte	.LC7
 5842 1449 00       		.byte	0
 5843 144a 00       		.byte	0
 5844 144b 3E       		.uleb128 0x3e
 5845 144c 52000000 		.4byte	.LVL80
 5846 1450 B7280000 		.4byte	0x28b7
 5847 1454 5F140000 		.4byte	0x145f
 5848 1458 34       		.uleb128 0x34
 5849 1459 01       		.uleb128 0x1
 5850 145a 50       		.byte	0x50
 5851 145b 02       		.uleb128 0x2
 5852 145c 74       		.byte	0x74
 5853 145d 00       		.sleb128 0
 5854 145e 00       		.byte	0
 5855 145f 3E       		.uleb128 0x3e
 5856 1460 6E000000 		.4byte	.LVL85
 5857 1464 52100000 		.4byte	0x1052
 5858 1468 8D140000 		.4byte	0x148d
 5859 146c 34       		.uleb128 0x34
 5860 146d 01       		.uleb128 0x1
 5861 146e 53       		.byte	0x53
 5862 146f 03       		.uleb128 0x3
 5863 1470 0A       		.byte	0xa
 5864 1471 8A02     		.2byte	0x28a
 5865 1473 34       		.uleb128 0x34
 5866 1474 01       		.uleb128 0x1
 5867 1475 52       		.byte	0x52
 5868 1476 05       		.uleb128 0x5
 5869 1477 03       		.byte	0x3
 5870 1478 CC000000 		.4byte	.LC7
 5871 147c 34       		.uleb128 0x34
 5872 147d 01       		.uleb128 0x1
 5873 147e 51       		.byte	0x51
 5874 147f 05       		.uleb128 0x5
 5875 1480 03       		.byte	0x3
 5876 1481 00000000 		.4byte	.LC0
 5877 1485 34       		.uleb128 0x34
ARM GAS  C:\Users\jo\AppData\Local\Temp\ccT06EVW.s 			page 107


 5878 1486 02       		.uleb128 0x2
 5879 1487 7D       		.byte	0x7d
 5880 1488 00       		.sleb128 0
 5881 1489 02       		.uleb128 0x2
 5882 148a 76       		.byte	0x76
 5883 148b 00       		.sleb128 0
 5884 148c 00       		.byte	0
 5885 148d 3E       		.uleb128 0x3e
 5886 148e 80000000 		.4byte	.LVL88
 5887 1492 C8280000 		.4byte	0x28c8
 5888 1496 A6140000 		.4byte	0x14a6
 5889 149a 34       		.uleb128 0x34
 5890 149b 01       		.uleb128 0x1
 5891 149c 51       		.byte	0x51
 5892 149d 02       		.uleb128 0x2
 5893 149e 74       		.byte	0x74
 5894 149f 00       		.sleb128 0
 5895 14a0 34       		.uleb128 0x34
 5896 14a1 01       		.uleb128 0x1
 5897 14a2 50       		.byte	0x50
 5898 14a3 01       		.uleb128 0x1
 5899 14a4 3C       		.byte	0x3c
 5900 14a5 00       		.byte	0
 5901 14a6 33       		.uleb128 0x33
 5902 14a7 8A000000 		.4byte	.LVL90
 5903 14ab C8280000 		.4byte	0x28c8
 5904 14af 34       		.uleb128 0x34
 5905 14b0 01       		.uleb128 0x1
 5906 14b1 51       		.byte	0x51
 5907 14b2 02       		.uleb128 0x2
 5908 14b3 74       		.byte	0x74
 5909 14b4 00       		.sleb128 0
 5910 14b5 34       		.uleb128 0x34
 5911 14b6 01       		.uleb128 0x1
 5912 14b7 50       		.byte	0x50
 5913 14b8 01       		.uleb128 0x1
 5914 14b9 3D       		.byte	0x3d
 5915 14ba 00       		.byte	0
 5916 14bb 00       		.byte	0
 5917 14bc 3D       		.uleb128 0x3d
 5918 14bd 040F0000 		.4byte	0xf04
 5919 14c1 B8000000 		.4byte	.LBB117
 5920 14c5 08000000 		.4byte	.LBE117-.LBB117
 5921 14c9 01       		.byte	0x1
 5922 14ca 7B02     		.2byte	0x27b
 5923 14cc ED140000 		.4byte	0x14ed
 5924 14d0 35       		.uleb128 0x35
 5925 14d1 110F0000 		.4byte	0xf11
 5926 14d5 07060000 		.4byte	.LLST27
 5927 14d9 33       		.uleb128 0x33
 5928 14da BE000000 		.4byte	.LVL98
 5929 14de A6280000 		.4byte	0x28a6
 5930 14e2 34       		.uleb128 0x34
 5931 14e3 01       		.uleb128 0x1
 5932 14e4 50       		.byte	0x50
 5933 14e5 05       		.uleb128 0x5
 5934 14e6 03       		.byte	0x3
ARM GAS  C:\Users\jo\AppData\Local\Temp\ccT06EVW.s 			page 108


 5935 14e7 B4000000 		.4byte	.LC6
 5936 14eb 00       		.byte	0
 5937 14ec 00       		.byte	0
 5938 14ed 3D       		.uleb128 0x3d
 5939 14ee 040F0000 		.4byte	0xf04
 5940 14f2 D2000000 		.4byte	.LBB119
 5941 14f6 06000000 		.4byte	.LBE119-.LBB119
 5942 14fa 01       		.byte	0x1
 5943 14fb 7102     		.2byte	0x271
 5944 14fd 21150000 		.4byte	0x1521
 5945 1501 36       		.uleb128 0x36
 5946 1502 110F0000 		.4byte	0xf11
 5947 1506 06       		.uleb128 0x6
 5948 1507 03       		.byte	0x3
 5949 1508 78000000 		.4byte	.LC3
 5950 150c 9F       		.byte	0x9f
 5951 150d 33       		.uleb128 0x33
 5952 150e D8000000 		.4byte	.LVL102
 5953 1512 A6280000 		.4byte	0x28a6
 5954 1516 34       		.uleb128 0x34
 5955 1517 01       		.uleb128 0x1
 5956 1518 50       		.byte	0x50
 5957 1519 05       		.uleb128 0x5
 5958 151a 03       		.byte	0x3
 5959 151b 78000000 		.4byte	.LC3
 5960 151f 00       		.byte	0
 5961 1520 00       		.byte	0
 5962 1521 3E       		.uleb128 0x3e
 5963 1522 B8000000 		.4byte	.LVL97
 5964 1526 52100000 		.4byte	0x1052
 5965 152a 52150000 		.4byte	0x1552
 5966 152e 34       		.uleb128 0x34
 5967 152f 01       		.uleb128 0x1
 5968 1530 53       		.byte	0x53
 5969 1531 03       		.uleb128 0x3
 5970 1532 0A       		.byte	0xa
 5971 1533 7D02     		.2byte	0x27d
 5972 1535 34       		.uleb128 0x34
 5973 1536 01       		.uleb128 0x1
 5974 1537 52       		.byte	0x52
 5975 1538 05       		.uleb128 0x5
 5976 1539 03       		.byte	0x3
 5977 153a B4000000 		.4byte	.LC6
 5978 153e 34       		.uleb128 0x34
 5979 153f 01       		.uleb128 0x1
 5980 1540 51       		.byte	0x51
 5981 1541 05       		.uleb128 0x5
 5982 1542 03       		.byte	0x3
 5983 1543 00000000 		.4byte	.LC0
 5984 1547 34       		.uleb128 0x34
 5985 1548 02       		.uleb128 0x2
 5986 1549 7D       		.byte	0x7d
 5987 154a 00       		.sleb128 0
 5988 154b 05       		.uleb128 0x5
 5989 154c 03       		.byte	0x3
 5990 154d 4C000000 		.4byte	.LC2
 5991 1551 00       		.byte	0
ARM GAS  C:\Users\jo\AppData\Local\Temp\ccT06EVW.s 			page 109


 5992 1552 33       		.uleb128 0x33
 5993 1553 D2000000 		.4byte	.LVL101
 5994 1557 52100000 		.4byte	0x1052
 5995 155b 34       		.uleb128 0x34
 5996 155c 01       		.uleb128 0x1
 5997 155d 53       		.byte	0x53
 5998 155e 03       		.uleb128 0x3
 5999 155f 0A       		.byte	0xa
 6000 1560 7102     		.2byte	0x271
 6001 1562 34       		.uleb128 0x34
 6002 1563 01       		.uleb128 0x1
 6003 1564 52       		.byte	0x52
 6004 1565 05       		.uleb128 0x5
 6005 1566 03       		.byte	0x3
 6006 1567 78000000 		.4byte	.LC3
 6007 156b 34       		.uleb128 0x34
 6008 156c 01       		.uleb128 0x1
 6009 156d 51       		.byte	0x51
 6010 156e 05       		.uleb128 0x5
 6011 156f 03       		.byte	0x3
 6012 1570 00000000 		.4byte	.LC0
 6013 1574 34       		.uleb128 0x34
 6014 1575 02       		.uleb128 0x2
 6015 1576 7D       		.byte	0x7d
 6016 1577 00       		.sleb128 0
 6017 1578 05       		.uleb128 0x5
 6018 1579 03       		.byte	0x3
 6019 157a 4C000000 		.4byte	.LC2
 6020 157e 00       		.byte	0
 6021 157f 00       		.byte	0
 6022 1580 42       		.uleb128 0x42
 6023 1581 EF020000 		.4byte	.LASF249
 6024 1585 01       		.byte	0x1
 6025 1586 CF       		.byte	0xcf
 6026 1587 CE090000 		.4byte	0x9ce
 6027 158b 00000000 		.4byte	.LFB259
 6028 158f 40020000 		.4byte	.LFE259-.LFB259
 6029 1593 01       		.uleb128 0x1
 6030 1594 9C       		.byte	0x9c
 6031 1595 17190000 		.4byte	0x1917
 6032 1599 43       		.uleb128 0x43
 6033 159a C5060000 		.4byte	.LASF250
 6034 159e 01       		.byte	0x1
 6035 159f CF       		.byte	0xcf
 6036 15a0 36090000 		.4byte	0x936
 6037 15a4 1F060000 		.4byte	.LLST28
 6038 15a8 43       		.uleb128 0x43
 6039 15a9 94080000 		.4byte	.LASF240
 6040 15ad 01       		.byte	0x1
 6041 15ae CF       		.byte	0xcf
 6042 15af 5A080000 		.4byte	0x85a
 6043 15b3 A4060000 		.4byte	.LLST29
 6044 15b7 43       		.uleb128 0x43
 6045 15b8 A20A0000 		.4byte	.LASF150
 6046 15bc 01       		.byte	0x1
 6047 15bd CF       		.byte	0xcf
 6048 15be 62090000 		.4byte	0x962
ARM GAS  C:\Users\jo\AppData\Local\Temp\ccT06EVW.s 			page 110


 6049 15c2 29070000 		.4byte	.LLST30
 6050 15c6 44       		.uleb128 0x44
 6051 15c7 7000     		.ascii	"p\000"
 6052 15c9 01       		.byte	0x1
 6053 15ca D1       		.byte	0xd1
 6054 15cb CE090000 		.4byte	0x9ce
 6055 15cf AE070000 		.4byte	.LLST31
 6056 15d3 44       		.uleb128 0x44
 6057 15d4 7100     		.ascii	"q\000"
 6058 15d6 01       		.byte	0x1
 6059 15d7 D1       		.byte	0xd1
 6060 15d8 CE090000 		.4byte	0x9ce
 6061 15dc 24080000 		.4byte	.LLST32
 6062 15e0 44       		.uleb128 0x44
 6063 15e1 7200     		.ascii	"r\000"
 6064 15e3 01       		.byte	0x1
 6065 15e4 D1       		.byte	0xd1
 6066 15e5 CE090000 		.4byte	0x9ce
 6067 15e9 6E080000 		.4byte	.LLST33
 6068 15ed 45       		.uleb128 0x45
 6069 15ee 32030000 		.4byte	.LASF91
 6070 15f2 01       		.byte	0x1
 6071 15f3 D2       		.byte	0xd2
 6072 15f4 5A080000 		.4byte	0x85a
 6073 15f8 A2080000 		.4byte	.LLST34
 6074 15fc 45       		.uleb128 0x45
 6075 15fd 1A070000 		.4byte	.LASF251
 6076 1601 01       		.byte	0x1
 6077 1602 D3       		.byte	0xd3
 6078 1603 7B080000 		.4byte	0x87b
 6079 1607 E2080000 		.4byte	.LLST35
 6080 160b 3D       		.uleb128 0x3d
 6081 160c 040F0000 		.4byte	0xf04
 6082 1610 E6000000 		.4byte	.LBB121
 6083 1614 08000000 		.4byte	.LBE121-.LBB121
 6084 1618 01       		.byte	0x1
 6085 1619 1E01     		.2byte	0x11e
 6086 161b 3C160000 		.4byte	0x163c
 6087 161f 35       		.uleb128 0x35
 6088 1620 110F0000 		.4byte	0xf11
 6089 1624 0B090000 		.4byte	.LLST36
 6090 1628 33       		.uleb128 0x33
 6091 1629 EC000000 		.4byte	.LVL117
 6092 162d A6280000 		.4byte	0x28a6
 6093 1631 34       		.uleb128 0x34
 6094 1632 01       		.uleb128 0x1
 6095 1633 50       		.byte	0x50
 6096 1634 05       		.uleb128 0x5
 6097 1635 03       		.byte	0x3
 6098 1636 58010000 		.4byte	.LC11
 6099 163a 00       		.byte	0
 6100 163b 00       		.byte	0
 6101 163c 3D       		.uleb128 0x3d
 6102 163d 040F0000 		.4byte	0xf04
 6103 1641 6A010000 		.4byte	.LBB123
 6104 1645 06000000 		.4byte	.LBE123-.LBB123
 6105 1649 01       		.byte	0x1
ARM GAS  C:\Users\jo\AppData\Local\Temp\ccT06EVW.s 			page 111


 6106 164a 5401     		.2byte	0x154
 6107 164c 6D160000 		.4byte	0x166d
 6108 1650 35       		.uleb128 0x35
 6109 1651 110F0000 		.4byte	0xf11
 6110 1655 23090000 		.4byte	.LLST37
 6111 1659 33       		.uleb128 0x33
 6112 165a 70010000 		.4byte	.LVL133
 6113 165e A6280000 		.4byte	0x28a6
 6114 1662 34       		.uleb128 0x34
 6115 1663 01       		.uleb128 0x1
 6116 1664 50       		.byte	0x50
 6117 1665 05       		.uleb128 0x5
 6118 1666 03       		.byte	0x3
 6119 1667 9C010000 		.4byte	.LC13
 6120 166b 00       		.byte	0
 6121 166c 00       		.byte	0
 6122 166d 46       		.uleb128 0x46
 6123 166e 040F0000 		.4byte	0xf04
 6124 1672 88010000 		.4byte	.LBB125
 6125 1676 06000000 		.4byte	.LBE125-.LBB125
 6126 167a 01       		.byte	0x1
 6127 167b E8       		.byte	0xe8
 6128 167c 9D160000 		.4byte	0x169d
 6129 1680 35       		.uleb128 0x35
 6130 1681 110F0000 		.4byte	0xf11
 6131 1685 3B090000 		.4byte	.LLST38
 6132 1689 33       		.uleb128 0x33
 6133 168a 8E010000 		.4byte	.LVL140
 6134 168e A6280000 		.4byte	0x28a6
 6135 1692 34       		.uleb128 0x34
 6136 1693 01       		.uleb128 0x1
 6137 1694 50       		.byte	0x50
 6138 1695 05       		.uleb128 0x5
 6139 1696 03       		.byte	0x3
 6140 1697 08010000 		.4byte	.LC9
 6141 169b 00       		.byte	0
 6142 169c 00       		.byte	0
 6143 169d 3D       		.uleb128 0x3d
 6144 169e EC0E0000 		.4byte	0xeec
 6145 16a2 96010000 		.4byte	.LBB127
 6146 16a6 0E000000 		.4byte	.LBE127-.LBB127
 6147 16aa 01       		.byte	0x1
 6148 16ab 1201     		.2byte	0x112
 6149 16ad CE160000 		.4byte	0x16ce
 6150 16b1 47       		.uleb128 0x47
 6151 16b2 96010000 		.4byte	.LBB128
 6152 16b6 0E000000 		.4byte	.LBE128-.LBB128
 6153 16ba 2F       		.uleb128 0x2f
 6154 16bb F80E0000 		.4byte	0xef8
 6155 16bf 53090000 		.4byte	.LLST39
 6156 16c3 30       		.uleb128 0x30
 6157 16c4 A4010000 		.4byte	.LVL143
 6158 16c8 1C100000 		.4byte	0x101c
 6159 16cc 00       		.byte	0
 6160 16cd 00       		.byte	0
 6161 16ce 3D       		.uleb128 0x3d
 6162 16cf 040F0000 		.4byte	0xf04
ARM GAS  C:\Users\jo\AppData\Local\Temp\ccT06EVW.s 			page 112


 6163 16d3 C4010000 		.4byte	.LBB129
 6164 16d7 08000000 		.4byte	.LBE129-.LBB129
 6165 16db 01       		.byte	0x1
 6166 16dc 2501     		.2byte	0x125
 6167 16de FF160000 		.4byte	0x16ff
 6168 16e2 35       		.uleb128 0x35
 6169 16e3 110F0000 		.4byte	0xf11
 6170 16e7 66090000 		.4byte	.LLST40
 6171 16eb 33       		.uleb128 0x33
 6172 16ec CA010000 		.4byte	.LVL147
 6173 16f0 A6280000 		.4byte	0x28a6
 6174 16f4 34       		.uleb128 0x34
 6175 16f5 01       		.uleb128 0x1
 6176 16f6 50       		.byte	0x50
 6177 16f7 05       		.uleb128 0x5
 6178 16f8 03       		.byte	0x3
 6179 16f9 24010000 		.4byte	.LC10
 6180 16fd 00       		.byte	0
 6181 16fe 00       		.byte	0
 6182 16ff 3D       		.uleb128 0x3d
 6183 1700 040F0000 		.4byte	0xf04
 6184 1704 DE010000 		.4byte	.LBB131
 6185 1708 08000000 		.4byte	.LBE131-.LBB131
 6186 170c 01       		.byte	0x1
 6187 170d 2301     		.2byte	0x123
 6188 170f 30170000 		.4byte	0x1730
 6189 1713 35       		.uleb128 0x35
 6190 1714 110F0000 		.4byte	0xf11
 6191 1718 7E090000 		.4byte	.LLST41
 6192 171c 33       		.uleb128 0x33
 6193 171d E4010000 		.4byte	.LVL150
 6194 1721 A6280000 		.4byte	0x28a6
 6195 1725 34       		.uleb128 0x34
 6196 1726 01       		.uleb128 0x1
 6197 1727 50       		.byte	0x50
 6198 1728 05       		.uleb128 0x5
 6199 1729 03       		.byte	0x3
 6200 172a 6C010000 		.4byte	.LC12
 6201 172e 00       		.byte	0
 6202 172f 00       		.byte	0
 6203 1730 46       		.uleb128 0x46
 6204 1731 EC0E0000 		.4byte	0xeec
 6205 1735 E6010000 		.4byte	.LBB133
 6206 1739 14000000 		.4byte	.LBE133-.LBB133
 6207 173d 01       		.byte	0x1
 6208 173e F2       		.byte	0xf2
 6209 173f 60170000 		.4byte	0x1760
 6210 1743 47       		.uleb128 0x47
 6211 1744 E6010000 		.4byte	.LBB134
 6212 1748 14000000 		.4byte	.LBE134-.LBB134
 6213 174c 2F       		.uleb128 0x2f
 6214 174d F80E0000 		.4byte	0xef8
 6215 1751 96090000 		.4byte	.LLST42
 6216 1755 30       		.uleb128 0x30
 6217 1756 FA010000 		.4byte	.LVL153
 6218 175a 1C100000 		.4byte	0x101c
 6219 175e 00       		.byte	0
ARM GAS  C:\Users\jo\AppData\Local\Temp\ccT06EVW.s 			page 113


 6220 175f 00       		.byte	0
 6221 1760 3D       		.uleb128 0x3d
 6222 1761 040F0000 		.4byte	0xf04
 6223 1765 10020000 		.4byte	.LBB135
 6224 1769 30000000 		.4byte	.LBE135-.LBB135
 6225 176d 01       		.byte	0x1
 6226 176e 0001     		.2byte	0x100
 6227 1770 94170000 		.4byte	0x1794
 6228 1774 36       		.uleb128 0x36
 6229 1775 110F0000 		.4byte	0xf11
 6230 1779 06       		.uleb128 0x6
 6231 177a 03       		.byte	0x3
 6232 177b 24010000 		.4byte	.LC10
 6233 177f 9F       		.byte	0x9f
 6234 1780 33       		.uleb128 0x33
 6235 1781 16020000 		.4byte	.LVL157
 6236 1785 A6280000 		.4byte	0x28a6
 6237 1789 34       		.uleb128 0x34
 6238 178a 01       		.uleb128 0x1
 6239 178b 50       		.byte	0x50
 6240 178c 05       		.uleb128 0x5
 6241 178d 03       		.byte	0x3
 6242 178e 24010000 		.4byte	.LC10
 6243 1792 00       		.byte	0
 6244 1793 00       		.byte	0
 6245 1794 3E       		.uleb128 0x3e
 6246 1795 2C000000 		.4byte	.LVL106
 6247 1799 DE280000 		.4byte	0x28de
 6248 179d A7170000 		.4byte	0x17a7
 6249 17a1 34       		.uleb128 0x34
 6250 17a2 01       		.uleb128 0x1
 6251 17a3 50       		.byte	0x50
 6252 17a4 01       		.uleb128 0x1
 6253 17a5 3D       		.byte	0x3d
 6254 17a6 00       		.byte	0
 6255 17a7 3E       		.uleb128 0x3e
 6256 17a8 B8000000 		.4byte	.LVL113
 6257 17ac DE280000 		.4byte	0x28de
 6258 17b0 BA170000 		.4byte	0x17ba
 6259 17b4 34       		.uleb128 0x34
 6260 17b5 01       		.uleb128 0x1
 6261 17b6 50       		.byte	0x50
 6262 17b7 01       		.uleb128 0x1
 6263 17b8 3D       		.byte	0x3d
 6264 17b9 00       		.byte	0
 6265 17ba 3E       		.uleb128 0x3e
 6266 17bb E6000000 		.4byte	.LVL116
 6267 17bf 52100000 		.4byte	0x1052
 6268 17c3 E8170000 		.4byte	0x17e8
 6269 17c7 34       		.uleb128 0x34
 6270 17c8 01       		.uleb128 0x1
 6271 17c9 53       		.byte	0x53
 6272 17ca 03       		.uleb128 0x3
 6273 17cb 0A       		.byte	0xa
 6274 17cc 1E01     		.2byte	0x11e
 6275 17ce 34       		.uleb128 0x34
 6276 17cf 01       		.uleb128 0x1
ARM GAS  C:\Users\jo\AppData\Local\Temp\ccT06EVW.s 			page 114


 6277 17d0 52       		.byte	0x52
 6278 17d1 05       		.uleb128 0x5
 6279 17d2 03       		.byte	0x3
 6280 17d3 58010000 		.4byte	.LC11
 6281 17d7 34       		.uleb128 0x34
 6282 17d8 01       		.uleb128 0x1
 6283 17d9 51       		.byte	0x51
 6284 17da 05       		.uleb128 0x5
 6285 17db 03       		.byte	0x3
 6286 17dc 00000000 		.4byte	.LC0
 6287 17e0 34       		.uleb128 0x34
 6288 17e1 02       		.uleb128 0x2
 6289 17e2 7D       		.byte	0x7d
 6290 17e3 00       		.sleb128 0
 6291 17e4 02       		.uleb128 0x2
 6292 17e5 79       		.byte	0x79
 6293 17e6 00       		.sleb128 0
 6294 17e7 00       		.byte	0
 6295 17e8 3E       		.uleb128 0x3e
 6296 17e9 F6000000 		.4byte	.LVL120
 6297 17ed DE280000 		.4byte	0x28de
 6298 17f1 FB170000 		.4byte	0x17fb
 6299 17f5 34       		.uleb128 0x34
 6300 17f6 01       		.uleb128 0x1
 6301 17f7 50       		.byte	0x50
 6302 17f8 01       		.uleb128 0x1
 6303 17f9 3C       		.byte	0x3c
 6304 17fa 00       		.byte	0
 6305 17fb 3E       		.uleb128 0x3e
 6306 17fc 22010000 		.4byte	.LVL123
 6307 1800 F3280000 		.4byte	0x28f3
 6308 1804 18180000 		.4byte	0x1818
 6309 1808 34       		.uleb128 0x34
 6310 1809 01       		.uleb128 0x1
 6311 180a 50       		.byte	0x50
 6312 180b 0B       		.uleb128 0xb
 6313 180c 74       		.byte	0x74
 6314 180d 13       		.sleb128 19
 6315 180e 09       		.byte	0x9
 6316 180f FC       		.byte	0xfc
 6317 1810 1A       		.byte	0x1a
 6318 1811 77       		.byte	0x77
 6319 1812 03       		.sleb128 3
 6320 1813 09       		.byte	0x9
 6321 1814 FC       		.byte	0xfc
 6322 1815 1A       		.byte	0x1a
 6323 1816 22       		.byte	0x22
 6324 1817 00       		.byte	0
 6325 1818 3E       		.uleb128 0x3e
 6326 1819 6A010000 		.4byte	.LVL132
 6327 181d 52100000 		.4byte	0x1052
 6328 1821 49180000 		.4byte	0x1849
 6329 1825 34       		.uleb128 0x34
 6330 1826 01       		.uleb128 0x1
 6331 1827 53       		.byte	0x53
 6332 1828 03       		.uleb128 0x3
 6333 1829 0A       		.byte	0xa
ARM GAS  C:\Users\jo\AppData\Local\Temp\ccT06EVW.s 			page 115


 6334 182a 5401     		.2byte	0x154
 6335 182c 34       		.uleb128 0x34
 6336 182d 01       		.uleb128 0x1
 6337 182e 52       		.byte	0x52
 6338 182f 05       		.uleb128 0x5
 6339 1830 03       		.byte	0x3
 6340 1831 9C010000 		.4byte	.LC13
 6341 1835 34       		.uleb128 0x34
 6342 1836 01       		.uleb128 0x1
 6343 1837 51       		.byte	0x51
 6344 1838 05       		.uleb128 0x5
 6345 1839 03       		.byte	0x3
 6346 183a 00000000 		.4byte	.LC0
 6347 183e 34       		.uleb128 0x34
 6348 183f 02       		.uleb128 0x2
 6349 1840 7D       		.byte	0x7d
 6350 1841 00       		.sleb128 0
 6351 1842 05       		.uleb128 0x5
 6352 1843 03       		.byte	0x3
 6353 1844 4C000000 		.4byte	.LC2
 6354 1848 00       		.byte	0
 6355 1849 3E       		.uleb128 0x3e
 6356 184a 88010000 		.4byte	.LVL139
 6357 184e 52100000 		.4byte	0x1052
 6358 1852 79180000 		.4byte	0x1879
 6359 1856 34       		.uleb128 0x34
 6360 1857 01       		.uleb128 0x1
 6361 1858 53       		.byte	0x53
 6362 1859 02       		.uleb128 0x2
 6363 185a 08       		.byte	0x8
 6364 185b E8       		.byte	0xe8
 6365 185c 34       		.uleb128 0x34
 6366 185d 01       		.uleb128 0x1
 6367 185e 52       		.byte	0x52
 6368 185f 05       		.uleb128 0x5
 6369 1860 03       		.byte	0x3
 6370 1861 08010000 		.4byte	.LC9
 6371 1865 34       		.uleb128 0x34
 6372 1866 01       		.uleb128 0x1
 6373 1867 51       		.byte	0x51
 6374 1868 05       		.uleb128 0x5
 6375 1869 03       		.byte	0x3
 6376 186a 00000000 		.4byte	.LC0
 6377 186e 34       		.uleb128 0x34
 6378 186f 02       		.uleb128 0x2
 6379 1870 7D       		.byte	0x7d
 6380 1871 00       		.sleb128 0
 6381 1872 05       		.uleb128 0x5
 6382 1873 03       		.byte	0x3
 6383 1874 4C000000 		.4byte	.LC2
 6384 1878 00       		.byte	0
 6385 1879 3E       		.uleb128 0x3e
 6386 187a AA010000 		.4byte	.LVL144
 6387 187e 27130000 		.4byte	0x1327
 6388 1882 8D180000 		.4byte	0x188d
 6389 1886 34       		.uleb128 0x34
 6390 1887 01       		.uleb128 0x1
ARM GAS  C:\Users\jo\AppData\Local\Temp\ccT06EVW.s 			page 116


 6391 1888 50       		.byte	0x50
 6392 1889 02       		.uleb128 0x2
 6393 188a 75       		.byte	0x75
 6394 188b 00       		.sleb128 0
 6395 188c 00       		.byte	0
 6396 188d 3E       		.uleb128 0x3e
 6397 188e C4010000 		.4byte	.LVL146
 6398 1892 52100000 		.4byte	0x1052
 6399 1896 BB180000 		.4byte	0x18bb
 6400 189a 34       		.uleb128 0x34
 6401 189b 01       		.uleb128 0x1
 6402 189c 53       		.byte	0x53
 6403 189d 03       		.uleb128 0x3
 6404 189e 0A       		.byte	0xa
 6405 189f 2701     		.2byte	0x127
 6406 18a1 34       		.uleb128 0x34
 6407 18a2 01       		.uleb128 0x1
 6408 18a3 52       		.byte	0x52
 6409 18a4 05       		.uleb128 0x5
 6410 18a5 03       		.byte	0x3
 6411 18a6 24010000 		.4byte	.LC10
 6412 18aa 34       		.uleb128 0x34
 6413 18ab 01       		.uleb128 0x1
 6414 18ac 51       		.byte	0x51
 6415 18ad 05       		.uleb128 0x5
 6416 18ae 03       		.byte	0x3
 6417 18af 00000000 		.4byte	.LC0
 6418 18b3 34       		.uleb128 0x34
 6419 18b4 02       		.uleb128 0x2
 6420 18b5 7D       		.byte	0x7d
 6421 18b6 00       		.sleb128 0
 6422 18b7 02       		.uleb128 0x2
 6423 18b8 79       		.byte	0x79
 6424 18b9 00       		.sleb128 0
 6425 18ba 00       		.byte	0
 6426 18bb 3E       		.uleb128 0x3e
 6427 18bc DE010000 		.4byte	.LVL149
 6428 18c0 52100000 		.4byte	0x1052
 6429 18c4 E9180000 		.4byte	0x18e9
 6430 18c8 34       		.uleb128 0x34
 6431 18c9 01       		.uleb128 0x1
 6432 18ca 53       		.byte	0x53
 6433 18cb 03       		.uleb128 0x3
 6434 18cc 0A       		.byte	0xa
 6435 18cd 2401     		.2byte	0x124
 6436 18cf 34       		.uleb128 0x34
 6437 18d0 01       		.uleb128 0x1
 6438 18d1 52       		.byte	0x52
 6439 18d2 05       		.uleb128 0x5
 6440 18d3 03       		.byte	0x3
 6441 18d4 6C010000 		.4byte	.LC12
 6442 18d8 34       		.uleb128 0x34
 6443 18d9 01       		.uleb128 0x1
 6444 18da 51       		.byte	0x51
 6445 18db 05       		.uleb128 0x5
 6446 18dc 03       		.byte	0x3
 6447 18dd 00000000 		.4byte	.LC0
ARM GAS  C:\Users\jo\AppData\Local\Temp\ccT06EVW.s 			page 117


 6448 18e1 34       		.uleb128 0x34
 6449 18e2 02       		.uleb128 0x2
 6450 18e3 7D       		.byte	0x7d
 6451 18e4 00       		.sleb128 0
 6452 18e5 02       		.uleb128 0x2
 6453 18e6 79       		.byte	0x79
 6454 18e7 00       		.sleb128 0
 6455 18e8 00       		.byte	0
 6456 18e9 33       		.uleb128 0x33
 6457 18ea 10020000 		.4byte	.LVL156
 6458 18ee 52100000 		.4byte	0x1052
 6459 18f2 34       		.uleb128 0x34
 6460 18f3 01       		.uleb128 0x1
 6461 18f4 53       		.byte	0x53
 6462 18f5 03       		.uleb128 0x3
 6463 18f6 0A       		.byte	0xa
 6464 18f7 0201     		.2byte	0x102
 6465 18f9 34       		.uleb128 0x34
 6466 18fa 01       		.uleb128 0x1
 6467 18fb 52       		.byte	0x52
 6468 18fc 05       		.uleb128 0x5
 6469 18fd 03       		.byte	0x3
 6470 18fe 24010000 		.4byte	.LC10
 6471 1902 34       		.uleb128 0x34
 6472 1903 01       		.uleb128 0x1
 6473 1904 51       		.byte	0x51
 6474 1905 05       		.uleb128 0x5
 6475 1906 03       		.byte	0x3
 6476 1907 00000000 		.4byte	.LC0
 6477 190b 34       		.uleb128 0x34
 6478 190c 02       		.uleb128 0x2
 6479 190d 7D       		.byte	0x7d
 6480 190e 00       		.sleb128 0
 6481 190f 05       		.uleb128 0x5
 6482 1910 03       		.byte	0x3
 6483 1911 4C000000 		.4byte	.LC2
 6484 1915 00       		.byte	0
 6485 1916 00       		.byte	0
 6486 1917 48       		.uleb128 0x48
 6487 1918 23050000 		.4byte	.LASF255
 6488 191c 01       		.byte	0x1
 6489 191d AE01     		.2byte	0x1ae
 6490 191f 00000000 		.4byte	.LFB261
 6491 1923 18010000 		.4byte	.LFE261-.LFB261
 6492 1927 01       		.uleb128 0x1
 6493 1928 9C       		.byte	0x9c
 6494 1929 771B0000 		.4byte	0x1b77
 6495 192d 3A       		.uleb128 0x3a
 6496 192e 7000     		.ascii	"p\000"
 6497 1930 01       		.byte	0x1
 6498 1931 AE01     		.2byte	0x1ae
 6499 1933 CE090000 		.4byte	0x9ce
 6500 1937 A9090000 		.4byte	.LLST43
 6501 193b 3B       		.uleb128 0x3b
 6502 193c 790A0000 		.4byte	.LASF252
 6503 1940 01       		.byte	0x1
 6504 1941 AE01     		.2byte	0x1ae
ARM GAS  C:\Users\jo\AppData\Local\Temp\ccT06EVW.s 			page 118


 6505 1943 5A080000 		.4byte	0x85a
 6506 1947 F9090000 		.4byte	.LLST44
 6507 194b 3F       		.uleb128 0x3f
 6508 194c 7100     		.ascii	"q\000"
 6509 194e 01       		.byte	0x1
 6510 194f B001     		.2byte	0x1b0
 6511 1951 CE090000 		.4byte	0x9ce
 6512 1955 330A0000 		.4byte	.LLST45
 6513 1959 3C       		.uleb128 0x3c
 6514 195a 1A070000 		.4byte	.LASF251
 6515 195e 01       		.byte	0x1
 6516 195f B101     		.2byte	0x1b1
 6517 1961 5A080000 		.4byte	0x85a
 6518 1965 7E0A0000 		.4byte	.LLST46
 6519 1969 3C       		.uleb128 0x3c
 6520 196a A70A0000 		.4byte	.LASF253
 6521 196e 01       		.byte	0x1
 6522 196f B201     		.2byte	0x1b2
 6523 1971 7B080000 		.4byte	0x87b
 6524 1975 9C0A0000 		.4byte	.LLST47
 6525 1979 3D       		.uleb128 0x3d
 6526 197a 040F0000 		.4byte	0xf04
 6527 197e 24000000 		.4byte	.LBB137
 6528 1982 06000000 		.4byte	.LBE137-.LBB137
 6529 1986 01       		.byte	0x1
 6530 1987 B501     		.2byte	0x1b5
 6531 1989 AA190000 		.4byte	0x19aa
 6532 198d 35       		.uleb128 0x35
 6533 198e 110F0000 		.4byte	0xf11
 6534 1992 AF0A0000 		.4byte	.LLST48
 6535 1996 33       		.uleb128 0x33
 6536 1997 2A000000 		.4byte	.LVL161
 6537 199b A6280000 		.4byte	0x28a6
 6538 199f 34       		.uleb128 0x34
 6539 19a0 01       		.uleb128 0x1
 6540 19a1 50       		.byte	0x50
 6541 19a2 05       		.uleb128 0x5
 6542 19a3 03       		.byte	0x3
 6543 19a4 D0010000 		.4byte	.LC15
 6544 19a8 00       		.byte	0
 6545 19a9 00       		.byte	0
 6546 19aa 3D       		.uleb128 0x3d
 6547 19ab 040F0000 		.4byte	0xf04
 6548 19af 62000000 		.4byte	.LBB139
 6549 19b3 06000000 		.4byte	.LBE139-.LBB139
 6550 19b7 01       		.byte	0x1
 6551 19b8 CC01     		.2byte	0x1cc
 6552 19ba DB190000 		.4byte	0x19db
 6553 19be 35       		.uleb128 0x35
 6554 19bf 110F0000 		.4byte	0xf11
 6555 19c3 C70A0000 		.4byte	.LLST49
 6556 19c7 33       		.uleb128 0x33
 6557 19c8 68000000 		.4byte	.LVL167
 6558 19cc A6280000 		.4byte	0x28a6
 6559 19d0 34       		.uleb128 0x34
 6560 19d1 01       		.uleb128 0x1
 6561 19d2 50       		.byte	0x50
ARM GAS  C:\Users\jo\AppData\Local\Temp\ccT06EVW.s 			page 119


 6562 19d3 05       		.uleb128 0x5
 6563 19d4 03       		.byte	0x3
 6564 19d5 EC010000 		.4byte	.LC16
 6565 19d9 00       		.byte	0
 6566 19da 00       		.byte	0
 6567 19db 3D       		.uleb128 0x3d
 6568 19dc 040F0000 		.4byte	0xf04
 6569 19e0 84000000 		.4byte	.LBB141
 6570 19e4 06000000 		.4byte	.LBE141-.LBB141
 6571 19e8 01       		.byte	0x1
 6572 19e9 D001     		.2byte	0x1d0
 6573 19eb 0C1A0000 		.4byte	0x1a0c
 6574 19ef 35       		.uleb128 0x35
 6575 19f0 110F0000 		.4byte	0xf11
 6576 19f4 DF0A0000 		.4byte	.LLST50
 6577 19f8 33       		.uleb128 0x33
 6578 19f9 8A000000 		.4byte	.LVL171
 6579 19fd A6280000 		.4byte	0x28a6
 6580 1a01 34       		.uleb128 0x34
 6581 1a02 01       		.uleb128 0x1
 6582 1a03 50       		.byte	0x50
 6583 1a04 05       		.uleb128 0x5
 6584 1a05 03       		.byte	0x3
 6585 1a06 00020000 		.4byte	.LC17
 6586 1a0a 00       		.byte	0
 6587 1a0b 00       		.byte	0
 6588 1a0c 3D       		.uleb128 0x3d
 6589 1a0d 040F0000 		.4byte	0xf04
 6590 1a11 D2000000 		.4byte	.LBB143
 6591 1a15 08000000 		.4byte	.LBE143-.LBB143
 6592 1a19 01       		.byte	0x1
 6593 1a1a B401     		.2byte	0x1b4
 6594 1a1c 3D1A0000 		.4byte	0x1a3d
 6595 1a20 35       		.uleb128 0x35
 6596 1a21 110F0000 		.4byte	0xf11
 6597 1a25 F70A0000 		.4byte	.LLST51
 6598 1a29 33       		.uleb128 0x33
 6599 1a2a D8000000 		.4byte	.LVL182
 6600 1a2e A6280000 		.4byte	0x28a6
 6601 1a32 34       		.uleb128 0x34
 6602 1a33 01       		.uleb128 0x1
 6603 1a34 50       		.byte	0x50
 6604 1a35 05       		.uleb128 0x5
 6605 1a36 03       		.byte	0x3
 6606 1a37 B8010000 		.4byte	.LC14
 6607 1a3b 00       		.byte	0
 6608 1a3c 00       		.byte	0
 6609 1a3d 3D       		.uleb128 0x3d
 6610 1a3e 040F0000 		.4byte	0xf04
 6611 1a42 EC000000 		.4byte	.LBB145
 6612 1a46 06000000 		.4byte	.LBE145-.LBB145
 6613 1a4a 01       		.byte	0x1
 6614 1a4b DA01     		.2byte	0x1da
 6615 1a4d 711A0000 		.4byte	0x1a71
 6616 1a51 36       		.uleb128 0x36
 6617 1a52 110F0000 		.4byte	0xf11
 6618 1a56 06       		.uleb128 0x6
ARM GAS  C:\Users\jo\AppData\Local\Temp\ccT06EVW.s 			page 120


 6619 1a57 03       		.byte	0x3
 6620 1a58 18020000 		.4byte	.LC18
 6621 1a5c 9F       		.byte	0x9f
 6622 1a5d 33       		.uleb128 0x33
 6623 1a5e F2000000 		.4byte	.LVL186
 6624 1a62 A6280000 		.4byte	0x28a6
 6625 1a66 34       		.uleb128 0x34
 6626 1a67 01       		.uleb128 0x1
 6627 1a68 50       		.byte	0x50
 6628 1a69 05       		.uleb128 0x5
 6629 1a6a 03       		.byte	0x3
 6630 1a6b 18020000 		.4byte	.LC18
 6631 1a6f 00       		.byte	0
 6632 1a70 00       		.byte	0
 6633 1a71 3E       		.uleb128 0x3e
 6634 1a72 24000000 		.4byte	.LVL160
 6635 1a76 52100000 		.4byte	0x1052
 6636 1a7a A21A0000 		.4byte	0x1aa2
 6637 1a7e 34       		.uleb128 0x34
 6638 1a7f 01       		.uleb128 0x1
 6639 1a80 53       		.byte	0x53
 6640 1a81 03       		.uleb128 0x3
 6641 1a82 0A       		.byte	0xa
 6642 1a83 B801     		.2byte	0x1b8
 6643 1a85 34       		.uleb128 0x34
 6644 1a86 01       		.uleb128 0x1
 6645 1a87 52       		.byte	0x52
 6646 1a88 05       		.uleb128 0x5
 6647 1a89 03       		.byte	0x3
 6648 1a8a D0010000 		.4byte	.LC15
 6649 1a8e 34       		.uleb128 0x34
 6650 1a8f 01       		.uleb128 0x1
 6651 1a90 51       		.byte	0x51
 6652 1a91 05       		.uleb128 0x5
 6653 1a92 03       		.byte	0x3
 6654 1a93 00000000 		.4byte	.LC0
 6655 1a97 34       		.uleb128 0x34
 6656 1a98 02       		.uleb128 0x2
 6657 1a99 7D       		.byte	0x7d
 6658 1a9a 00       		.sleb128 0
 6659 1a9b 05       		.uleb128 0x5
 6660 1a9c 03       		.byte	0x3
 6661 1a9d 4C000000 		.4byte	.LC2
 6662 1aa1 00       		.byte	0
 6663 1aa2 3E       		.uleb128 0x3e
 6664 1aa3 62000000 		.4byte	.LVL166
 6665 1aa7 52100000 		.4byte	0x1052
 6666 1aab D01A0000 		.4byte	0x1ad0
 6667 1aaf 34       		.uleb128 0x34
 6668 1ab0 01       		.uleb128 0x1
 6669 1ab1 53       		.byte	0x53
 6670 1ab2 03       		.uleb128 0x3
 6671 1ab3 0A       		.byte	0xa
 6672 1ab4 CC01     		.2byte	0x1cc
 6673 1ab6 34       		.uleb128 0x34
 6674 1ab7 01       		.uleb128 0x1
 6675 1ab8 52       		.byte	0x52
ARM GAS  C:\Users\jo\AppData\Local\Temp\ccT06EVW.s 			page 121


 6676 1ab9 05       		.uleb128 0x5
 6677 1aba 03       		.byte	0x3
 6678 1abb EC010000 		.4byte	.LC16
 6679 1abf 34       		.uleb128 0x34
 6680 1ac0 01       		.uleb128 0x1
 6681 1ac1 51       		.byte	0x51
 6682 1ac2 05       		.uleb128 0x5
 6683 1ac3 03       		.byte	0x3
 6684 1ac4 00000000 		.4byte	.LC0
 6685 1ac8 34       		.uleb128 0x34
 6686 1ac9 02       		.uleb128 0x2
 6687 1aca 7D       		.byte	0x7d
 6688 1acb 00       		.sleb128 0
 6689 1acc 02       		.uleb128 0x2
 6690 1acd 77       		.byte	0x77
 6691 1ace 00       		.sleb128 0
 6692 1acf 00       		.byte	0
 6693 1ad0 3E       		.uleb128 0x3e
 6694 1ad1 84000000 		.4byte	.LVL170
 6695 1ad5 52100000 		.4byte	0x1052
 6696 1ad9 FE1A0000 		.4byte	0x1afe
 6697 1add 34       		.uleb128 0x34
 6698 1ade 01       		.uleb128 0x1
 6699 1adf 53       		.byte	0x53
 6700 1ae0 03       		.uleb128 0x3
 6701 1ae1 0A       		.byte	0xa
 6702 1ae2 D001     		.2byte	0x1d0
 6703 1ae4 34       		.uleb128 0x34
 6704 1ae5 01       		.uleb128 0x1
 6705 1ae6 52       		.byte	0x52
 6706 1ae7 05       		.uleb128 0x5
 6707 1ae8 03       		.byte	0x3
 6708 1ae9 00020000 		.4byte	.LC17
 6709 1aed 34       		.uleb128 0x34
 6710 1aee 01       		.uleb128 0x1
 6711 1aef 51       		.byte	0x51
 6712 1af0 05       		.uleb128 0x5
 6713 1af1 03       		.byte	0x3
 6714 1af2 00000000 		.4byte	.LC0
 6715 1af6 34       		.uleb128 0x34
 6716 1af7 02       		.uleb128 0x2
 6717 1af8 7D       		.byte	0x7d
 6718 1af9 00       		.sleb128 0
 6719 1afa 02       		.uleb128 0x2
 6720 1afb 77       		.byte	0x77
 6721 1afc 00       		.sleb128 0
 6722 1afd 00       		.byte	0
 6723 1afe 3E       		.uleb128 0x3e
 6724 1aff A8000000 		.4byte	.LVL174
 6725 1b03 08290000 		.4byte	0x2908
 6726 1b07 121B0000 		.4byte	0x1b12
 6727 1b0b 34       		.uleb128 0x34
 6728 1b0c 01       		.uleb128 0x1
 6729 1b0d 50       		.byte	0x50
 6730 1b0e 02       		.uleb128 0x2
 6731 1b0f 74       		.byte	0x74
 6732 1b10 00       		.sleb128 0
ARM GAS  C:\Users\jo\AppData\Local\Temp\ccT06EVW.s 			page 122


 6733 1b11 00       		.byte	0
 6734 1b12 30       		.uleb128 0x30
 6735 1b13 B8000000 		.4byte	.LVL176
 6736 1b17 27130000 		.4byte	0x1327
 6737 1b1b 3E       		.uleb128 0x3e
 6738 1b1c D2000000 		.4byte	.LVL181
 6739 1b20 52100000 		.4byte	0x1052
 6740 1b24 4C1B0000 		.4byte	0x1b4c
 6741 1b28 34       		.uleb128 0x34
 6742 1b29 01       		.uleb128 0x1
 6743 1b2a 53       		.byte	0x53
 6744 1b2b 03       		.uleb128 0x3
 6745 1b2c 0A       		.byte	0xa
 6746 1b2d B401     		.2byte	0x1b4
 6747 1b2f 34       		.uleb128 0x34
 6748 1b30 01       		.uleb128 0x1
 6749 1b31 52       		.byte	0x52
 6750 1b32 05       		.uleb128 0x5
 6751 1b33 03       		.byte	0x3
 6752 1b34 B8010000 		.4byte	.LC14
 6753 1b38 34       		.uleb128 0x34
 6754 1b39 01       		.uleb128 0x1
 6755 1b3a 51       		.byte	0x51
 6756 1b3b 05       		.uleb128 0x5
 6757 1b3c 03       		.byte	0x3
 6758 1b3d 00000000 		.4byte	.LC0
 6759 1b41 34       		.uleb128 0x34
 6760 1b42 02       		.uleb128 0x2
 6761 1b43 7D       		.byte	0x7d
 6762 1b44 00       		.sleb128 0
 6763 1b45 05       		.uleb128 0x5
 6764 1b46 03       		.byte	0x3
 6765 1b47 4C000000 		.4byte	.LC2
 6766 1b4b 00       		.byte	0
 6767 1b4c 33       		.uleb128 0x33
 6768 1b4d EC000000 		.4byte	.LVL185
 6769 1b51 52100000 		.4byte	0x1052
 6770 1b55 34       		.uleb128 0x34
 6771 1b56 01       		.uleb128 0x1
 6772 1b57 53       		.byte	0x53
 6773 1b58 03       		.uleb128 0x3
 6774 1b59 0A       		.byte	0xa
 6775 1b5a DA01     		.2byte	0x1da
 6776 1b5c 34       		.uleb128 0x34
 6777 1b5d 01       		.uleb128 0x1
 6778 1b5e 52       		.byte	0x52
 6779 1b5f 05       		.uleb128 0x5
 6780 1b60 03       		.byte	0x3
 6781 1b61 18020000 		.4byte	.LC18
 6782 1b65 34       		.uleb128 0x34
 6783 1b66 01       		.uleb128 0x1
 6784 1b67 51       		.byte	0x51
 6785 1b68 05       		.uleb128 0x5
 6786 1b69 03       		.byte	0x3
 6787 1b6a 00000000 		.4byte	.LC0
 6788 1b6e 34       		.uleb128 0x34
 6789 1b6f 02       		.uleb128 0x2
ARM GAS  C:\Users\jo\AppData\Local\Temp\ccT06EVW.s 			page 123


 6790 1b70 7D       		.byte	0x7d
 6791 1b71 00       		.sleb128 0
 6792 1b72 02       		.uleb128 0x2
 6793 1b73 77       		.byte	0x77
 6794 1b74 00       		.sleb128 0
 6795 1b75 00       		.byte	0
 6796 1b76 00       		.byte	0
 6797 1b77 39       		.uleb128 0x39
 6798 1b78 95040000 		.4byte	.LASF254
 6799 1b7c 01       		.byte	0x1
 6800 1b7d C002     		.2byte	0x2c0
 6801 1b7f 44080000 		.4byte	0x844
 6802 1b83 00000000 		.4byte	.LFB264
 6803 1b87 14000000 		.4byte	.LFE264-.LFB264
 6804 1b8b 01       		.uleb128 0x1
 6805 1b8c 9C       		.byte	0x9c
 6806 1b8d B01B0000 		.4byte	0x1bb0
 6807 1b91 3A       		.uleb128 0x3a
 6808 1b92 7000     		.ascii	"p\000"
 6809 1b94 01       		.byte	0x1
 6810 1b95 C002     		.2byte	0x2c0
 6811 1b97 CE090000 		.4byte	0x9ce
 6812 1b9b 0F0B0000 		.4byte	.LLST52
 6813 1b9f 3F       		.uleb128 0x3f
 6814 1ba0 6C656E00 		.ascii	"len\000"
 6815 1ba4 01       		.byte	0x1
 6816 1ba5 C202     		.2byte	0x2c2
 6817 1ba7 44080000 		.4byte	0x844
 6818 1bab 430B0000 		.4byte	.LLST53
 6819 1baf 00       		.byte	0
 6820 1bb0 31       		.uleb128 0x31
 6821 1bb1 1E0F0000 		.4byte	0xf1e
 6822 1bb5 00000000 		.4byte	.LFB265
 6823 1bb9 0A000000 		.4byte	.LFE265-.LFB265
 6824 1bbd 01       		.uleb128 0x1
 6825 1bbe 9C       		.byte	0x9c
 6826 1bbf CB1B0000 		.4byte	0x1bcb
 6827 1bc3 36       		.uleb128 0x36
 6828 1bc4 2B0F0000 		.4byte	0xf2b
 6829 1bc8 01       		.uleb128 0x1
 6830 1bc9 50       		.byte	0x50
 6831 1bca 00       		.byte	0
 6832 1bcb 48       		.uleb128 0x48
 6833 1bcc 710D0000 		.4byte	.LASF256
 6834 1bd0 01       		.byte	0x1
 6835 1bd1 E902     		.2byte	0x2e9
 6836 1bd3 00000000 		.4byte	.LFB266
 6837 1bd7 A8000000 		.4byte	.LFE266-.LFB266
 6838 1bdb 01       		.uleb128 0x1
 6839 1bdc 9C       		.byte	0x9c
 6840 1bdd 281D0000 		.4byte	0x1d28
 6841 1be1 3A       		.uleb128 0x3a
 6842 1be2 6800     		.ascii	"h\000"
 6843 1be4 01       		.byte	0x1
 6844 1be5 E902     		.2byte	0x2e9
 6845 1be7 CE090000 		.4byte	0x9ce
 6846 1beb 790B0000 		.4byte	.LLST54
ARM GAS  C:\Users\jo\AppData\Local\Temp\ccT06EVW.s 			page 124


 6847 1bef 3A       		.uleb128 0x3a
 6848 1bf0 7400     		.ascii	"t\000"
 6849 1bf2 01       		.byte	0x1
 6850 1bf3 E902     		.2byte	0x2e9
 6851 1bf5 CE090000 		.4byte	0x9ce
 6852 1bf9 BE0B0000 		.4byte	.LLST55
 6853 1bfd 3F       		.uleb128 0x3f
 6854 1bfe 7000     		.ascii	"p\000"
 6855 1c00 01       		.byte	0x1
 6856 1c01 EB02     		.2byte	0x2eb
 6857 1c03 CE090000 		.4byte	0x9ce
 6858 1c07 000C0000 		.4byte	.LLST56
 6859 1c0b 3D       		.uleb128 0x3d
 6860 1c0c 040F0000 		.4byte	0xf04
 6861 1c10 40000000 		.4byte	.LBB147
 6862 1c14 06000000 		.4byte	.LBE147-.LBB147
 6863 1c18 01       		.byte	0x1
 6864 1c19 F602     		.2byte	0x2f6
 6865 1c1b 3C1C0000 		.4byte	0x1c3c
 6866 1c1f 35       		.uleb128 0x35
 6867 1c20 110F0000 		.4byte	0xf11
 6868 1c24 3F0C0000 		.4byte	.LLST57
 6869 1c28 33       		.uleb128 0x33
 6870 1c29 46000000 		.4byte	.LVL201
 6871 1c2d A6280000 		.4byte	0x28a6
 6872 1c31 34       		.uleb128 0x34
 6873 1c32 01       		.uleb128 0x1
 6874 1c33 50       		.byte	0x50
 6875 1c34 05       		.uleb128 0x5
 6876 1c35 03       		.byte	0x3
 6877 1c36 6C020000 		.4byte	.LC20
 6878 1c3a 00       		.byte	0
 6879 1c3b 00       		.byte	0
 6880 1c3c 3D       		.uleb128 0x3d
 6881 1c3d 040F0000 		.4byte	0xf04
 6882 1c41 5A000000 		.4byte	.LBB149
 6883 1c45 08000000 		.4byte	.LBE149-.LBB149
 6884 1c49 01       		.byte	0x1
 6885 1c4a F702     		.2byte	0x2f7
 6886 1c4c 6D1C0000 		.4byte	0x1c6d
 6887 1c50 35       		.uleb128 0x35
 6888 1c51 110F0000 		.4byte	0xf11
 6889 1c55 570C0000 		.4byte	.LLST58
 6890 1c59 33       		.uleb128 0x33
 6891 1c5a 60000000 		.4byte	.LVL203
 6892 1c5e A6280000 		.4byte	0x28a6
 6893 1c62 34       		.uleb128 0x34
 6894 1c63 01       		.uleb128 0x1
 6895 1c64 50       		.byte	0x50
 6896 1c65 05       		.uleb128 0x5
 6897 1c66 03       		.byte	0x3
 6898 1c67 9C020000 		.4byte	.LC21
 6899 1c6b 00       		.byte	0
 6900 1c6c 00       		.byte	0
 6901 1c6d 49       		.uleb128 0x49
 6902 1c6e 040F0000 		.4byte	0xf04
 6903 1c72 80000000 		.4byte	.LBB151
ARM GAS  C:\Users\jo\AppData\Local\Temp\ccT06EVW.s 			page 125


 6904 1c76 50000000 		.4byte	.Ldebug_ranges0+0x50
 6905 1c7a 01       		.byte	0x1
 6906 1c7b ED02     		.2byte	0x2ed
 6907 1c7d 9E1C0000 		.4byte	0x1c9e
 6908 1c81 35       		.uleb128 0x35
 6909 1c82 110F0000 		.4byte	0xf11
 6910 1c86 6F0C0000 		.4byte	.LLST59
 6911 1c8a 4A       		.uleb128 0x4a
 6912 1c8b 8C000000 		.4byte	.LVL209
 6913 1c8f A6280000 		.4byte	0x28a6
 6914 1c93 34       		.uleb128 0x34
 6915 1c94 01       		.uleb128 0x1
 6916 1c95 50       		.byte	0x50
 6917 1c96 05       		.uleb128 0x5
 6918 1c97 03       		.byte	0x3
 6919 1c98 34020000 		.4byte	.LC19
 6920 1c9c 00       		.byte	0
 6921 1c9d 00       		.byte	0
 6922 1c9e 3E       		.uleb128 0x3e
 6923 1c9f 40000000 		.4byte	.LVL200
 6924 1ca3 52100000 		.4byte	0x1052
 6925 1ca7 CC1C0000 		.4byte	0x1ccc
 6926 1cab 34       		.uleb128 0x34
 6927 1cac 01       		.uleb128 0x1
 6928 1cad 53       		.byte	0x53
 6929 1cae 03       		.uleb128 0x3
 6930 1caf 0A       		.byte	0xa
 6931 1cb0 F602     		.2byte	0x2f6
 6932 1cb2 34       		.uleb128 0x34
 6933 1cb3 01       		.uleb128 0x1
 6934 1cb4 52       		.byte	0x52
 6935 1cb5 05       		.uleb128 0x5
 6936 1cb6 03       		.byte	0x3
 6937 1cb7 6C020000 		.4byte	.LC20
 6938 1cbb 34       		.uleb128 0x34
 6939 1cbc 01       		.uleb128 0x1
 6940 1cbd 51       		.byte	0x51
 6941 1cbe 05       		.uleb128 0x5
 6942 1cbf 03       		.byte	0x3
 6943 1cc0 00000000 		.4byte	.LC0
 6944 1cc4 34       		.uleb128 0x34
 6945 1cc5 02       		.uleb128 0x2
 6946 1cc6 7D       		.byte	0x7d
 6947 1cc7 00       		.sleb128 0
 6948 1cc8 02       		.uleb128 0x2
 6949 1cc9 76       		.byte	0x76
 6950 1cca 00       		.sleb128 0
 6951 1ccb 00       		.byte	0
 6952 1ccc 3E       		.uleb128 0x3e
 6953 1ccd 5A000000 		.4byte	.LVL202
 6954 1cd1 52100000 		.4byte	0x1052
 6955 1cd5 FA1C0000 		.4byte	0x1cfa
 6956 1cd9 34       		.uleb128 0x34
 6957 1cda 01       		.uleb128 0x1
 6958 1cdb 53       		.byte	0x53
 6959 1cdc 03       		.uleb128 0x3
 6960 1cdd 0A       		.byte	0xa
ARM GAS  C:\Users\jo\AppData\Local\Temp\ccT06EVW.s 			page 126


 6961 1cde F702     		.2byte	0x2f7
 6962 1ce0 34       		.uleb128 0x34
 6963 1ce1 01       		.uleb128 0x1
 6964 1ce2 52       		.byte	0x52
 6965 1ce3 05       		.uleb128 0x5
 6966 1ce4 03       		.byte	0x3
 6967 1ce5 9C020000 		.4byte	.LC21
 6968 1ce9 34       		.uleb128 0x34
 6969 1cea 01       		.uleb128 0x1
 6970 1ceb 51       		.byte	0x51
 6971 1cec 05       		.uleb128 0x5
 6972 1ced 03       		.byte	0x3
 6973 1cee 00000000 		.4byte	.LC0
 6974 1cf2 34       		.uleb128 0x34
 6975 1cf3 02       		.uleb128 0x2
 6976 1cf4 7D       		.byte	0x7d
 6977 1cf5 00       		.sleb128 0
 6978 1cf6 02       		.uleb128 0x2
 6979 1cf7 76       		.byte	0x76
 6980 1cf8 00       		.sleb128 0
 6981 1cf9 00       		.byte	0
 6982 1cfa 33       		.uleb128 0x33
 6983 1cfb 80000000 		.4byte	.LVL208
 6984 1cff 52100000 		.4byte	0x1052
 6985 1d03 34       		.uleb128 0x34
 6986 1d04 01       		.uleb128 0x1
 6987 1d05 53       		.byte	0x53
 6988 1d06 03       		.uleb128 0x3
 6989 1d07 0A       		.byte	0xa
 6990 1d08 EE02     		.2byte	0x2ee
 6991 1d0a 34       		.uleb128 0x34
 6992 1d0b 01       		.uleb128 0x1
 6993 1d0c 52       		.byte	0x52
 6994 1d0d 05       		.uleb128 0x5
 6995 1d0e 03       		.byte	0x3
 6996 1d0f 34020000 		.4byte	.LC19
 6997 1d13 34       		.uleb128 0x34
 6998 1d14 01       		.uleb128 0x1
 6999 1d15 51       		.byte	0x51
 7000 1d16 05       		.uleb128 0x5
 7001 1d17 03       		.byte	0x3
 7002 1d18 00000000 		.4byte	.LC0
 7003 1d1c 34       		.uleb128 0x34
 7004 1d1d 02       		.uleb128 0x2
 7005 1d1e 7D       		.byte	0x7d
 7006 1d1f 00       		.sleb128 0
 7007 1d20 05       		.uleb128 0x5
 7008 1d21 03       		.byte	0x3
 7009 1d22 4C000000 		.4byte	.LC2
 7010 1d26 00       		.byte	0
 7011 1d27 00       		.byte	0
 7012 1d28 48       		.uleb128 0x48
 7013 1d29 06090000 		.4byte	.LASF257
 7014 1d2d 01       		.byte	0x1
 7015 1d2e 1203     		.2byte	0x312
 7016 1d30 00000000 		.4byte	.LFB267
 7017 1d34 12000000 		.4byte	.LFE267-.LFB267
ARM GAS  C:\Users\jo\AppData\Local\Temp\ccT06EVW.s 			page 127


 7018 1d38 01       		.uleb128 0x1
 7019 1d39 9C       		.byte	0x9c
 7020 1d3a 8E1D0000 		.4byte	0x1d8e
 7021 1d3e 3A       		.uleb128 0x3a
 7022 1d3f 6800     		.ascii	"h\000"
 7023 1d41 01       		.byte	0x1
 7024 1d42 1203     		.2byte	0x312
 7025 1d44 CE090000 		.4byte	0x9ce
 7026 1d48 870C0000 		.4byte	.LLST60
 7027 1d4c 3A       		.uleb128 0x3a
 7028 1d4d 7400     		.ascii	"t\000"
 7029 1d4f 01       		.byte	0x1
 7030 1d50 1203     		.2byte	0x312
 7031 1d52 CE090000 		.4byte	0x9ce
 7032 1d56 A80C0000 		.4byte	.LLST61
 7033 1d5a 3D       		.uleb128 0x3d
 7034 1d5b 1E0F0000 		.4byte	0xf1e
 7035 1d5f 08000000 		.4byte	.LBB155
 7036 1d63 0A000000 		.4byte	.LBE155-.LBB155
 7037 1d67 01       		.byte	0x1
 7038 1d68 1603     		.2byte	0x316
 7039 1d6a 761D0000 		.4byte	0x1d76
 7040 1d6e 36       		.uleb128 0x36
 7041 1d6f 2B0F0000 		.4byte	0xf2b
 7042 1d73 01       		.uleb128 0x1
 7043 1d74 54       		.byte	0x54
 7044 1d75 00       		.byte	0
 7045 1d76 33       		.uleb128 0x33
 7046 1d77 08000000 		.4byte	.LVL211
 7047 1d7b CB1B0000 		.4byte	0x1bcb
 7048 1d7f 34       		.uleb128 0x34
 7049 1d80 01       		.uleb128 0x1
 7050 1d81 51       		.byte	0x51
 7051 1d82 02       		.uleb128 0x2
 7052 1d83 74       		.byte	0x74
 7053 1d84 00       		.sleb128 0
 7054 1d85 34       		.uleb128 0x34
 7055 1d86 01       		.uleb128 0x1
 7056 1d87 50       		.byte	0x50
 7057 1d88 03       		.uleb128 0x3
 7058 1d89 F3       		.byte	0xf3
 7059 1d8a 01       		.uleb128 0x1
 7060 1d8b 50       		.byte	0x50
 7061 1d8c 00       		.byte	0
 7062 1d8d 00       		.byte	0
 7063 1d8e 39       		.uleb128 0x39
 7064 1d8f 580B0000 		.4byte	.LASF258
 7065 1d93 01       		.byte	0x1
 7066 1d94 2303     		.2byte	0x323
 7067 1d96 CE090000 		.4byte	0x9ce
 7068 1d9a 00000000 		.4byte	.LFB268
 7069 1d9e 94000000 		.4byte	.LFE268-.LFB268
 7070 1da2 01       		.uleb128 0x1
 7071 1da3 9C       		.byte	0x9c
 7072 1da4 A91E0000 		.4byte	0x1ea9
 7073 1da8 3A       		.uleb128 0x3a
 7074 1da9 7000     		.ascii	"p\000"
ARM GAS  C:\Users\jo\AppData\Local\Temp\ccT06EVW.s 			page 128


 7075 1dab 01       		.byte	0x1
 7076 1dac 2303     		.2byte	0x323
 7077 1dae CE090000 		.4byte	0x9ce
 7078 1db2 C60C0000 		.4byte	.LLST62
 7079 1db6 3F       		.uleb128 0x3f
 7080 1db7 7100     		.ascii	"q\000"
 7081 1db9 01       		.byte	0x1
 7082 1dba 2503     		.2byte	0x325
 7083 1dbc CE090000 		.4byte	0x9ce
 7084 1dc0 EF0C0000 		.4byte	.LLST63
 7085 1dc4 3C       		.uleb128 0x3c
 7086 1dc5 6C020000 		.4byte	.LASF259
 7087 1dc9 01       		.byte	0x1
 7088 1dca 2603     		.2byte	0x326
 7089 1dcc 44080000 		.4byte	0x844
 7090 1dd0 180D0000 		.4byte	.LLST64
 7091 1dd4 3D       		.uleb128 0x3d
 7092 1dd5 040F0000 		.4byte	0xf04
 7093 1dd9 2A000000 		.4byte	.LBB157
 7094 1ddd 0C000000 		.4byte	.LBE157-.LBB157
 7095 1de1 01       		.byte	0x1
 7096 1de2 2C03     		.2byte	0x32c
 7097 1de4 051E0000 		.4byte	0x1e05
 7098 1de8 35       		.uleb128 0x35
 7099 1de9 110F0000 		.4byte	0xf11
 7100 1ded 430D0000 		.4byte	.LLST65
 7101 1df1 33       		.uleb128 0x33
 7102 1df2 30000000 		.4byte	.LVL216
 7103 1df6 A6280000 		.4byte	0x28a6
 7104 1dfa 34       		.uleb128 0x34
 7105 1dfb 01       		.uleb128 0x1
 7106 1dfc 50       		.byte	0x50
 7107 1dfd 05       		.uleb128 0x5
 7108 1dfe 03       		.byte	0x3
 7109 1dff AC020000 		.4byte	.LC22
 7110 1e03 00       		.byte	0
 7111 1e04 00       		.byte	0
 7112 1e05 3D       		.uleb128 0x3d
 7113 1e06 040F0000 		.4byte	0xf04
 7114 1e0a 60000000 		.4byte	.LBB159
 7115 1e0e 06000000 		.4byte	.LBE159-.LBB159
 7116 1e12 01       		.byte	0x1
 7117 1e13 3D03     		.2byte	0x33d
 7118 1e15 361E0000 		.4byte	0x1e36
 7119 1e19 35       		.uleb128 0x35
 7120 1e1a 110F0000 		.4byte	0xf11
 7121 1e1e 5B0D0000 		.4byte	.LLST66
 7122 1e22 33       		.uleb128 0x33
 7123 1e23 66000000 		.4byte	.LVL222
 7124 1e27 A6280000 		.4byte	0x28a6
 7125 1e2b 34       		.uleb128 0x34
 7126 1e2c 01       		.uleb128 0x1
 7127 1e2d 50       		.byte	0x50
 7128 1e2e 05       		.uleb128 0x5
 7129 1e2f 03       		.byte	0x3
 7130 1e30 D0020000 		.4byte	.LC23
 7131 1e34 00       		.byte	0
ARM GAS  C:\Users\jo\AppData\Local\Temp\ccT06EVW.s 			page 129


 7132 1e35 00       		.byte	0
 7133 1e36 3E       		.uleb128 0x3e
 7134 1e37 2A000000 		.4byte	.LVL215
 7135 1e3b 52100000 		.4byte	0x1052
 7136 1e3f 671E0000 		.4byte	0x1e67
 7137 1e43 34       		.uleb128 0x34
 7138 1e44 01       		.uleb128 0x1
 7139 1e45 53       		.byte	0x53
 7140 1e46 03       		.uleb128 0x3
 7141 1e47 0A       		.byte	0xa
 7142 1e48 2C03     		.2byte	0x32c
 7143 1e4a 34       		.uleb128 0x34
 7144 1e4b 01       		.uleb128 0x1
 7145 1e4c 52       		.byte	0x52
 7146 1e4d 05       		.uleb128 0x5
 7147 1e4e 03       		.byte	0x3
 7148 1e4f AC020000 		.4byte	.LC22
 7149 1e53 34       		.uleb128 0x34
 7150 1e54 01       		.uleb128 0x1
 7151 1e55 51       		.byte	0x51
 7152 1e56 05       		.uleb128 0x5
 7153 1e57 03       		.byte	0x3
 7154 1e58 00000000 		.4byte	.LC0
 7155 1e5c 34       		.uleb128 0x34
 7156 1e5d 02       		.uleb128 0x2
 7157 1e5e 7D       		.byte	0x7d
 7158 1e5f 00       		.sleb128 0
 7159 1e60 05       		.uleb128 0x5
 7160 1e61 03       		.byte	0x3
 7161 1e62 4C000000 		.4byte	.LC2
 7162 1e66 00       		.byte	0
 7163 1e67 3E       		.uleb128 0x3e
 7164 1e68 44000000 		.4byte	.LVL218
 7165 1e6c 27130000 		.4byte	0x1327
 7166 1e70 7B1E0000 		.4byte	0x1e7b
 7167 1e74 34       		.uleb128 0x34
 7168 1e75 01       		.uleb128 0x1
 7169 1e76 50       		.byte	0x50
 7170 1e77 02       		.uleb128 0x2
 7171 1e78 75       		.byte	0x75
 7172 1e79 00       		.sleb128 0
 7173 1e7a 00       		.byte	0
 7174 1e7b 33       		.uleb128 0x33
 7175 1e7c 60000000 		.4byte	.LVL221
 7176 1e80 52100000 		.4byte	0x1052
 7177 1e84 34       		.uleb128 0x34
 7178 1e85 01       		.uleb128 0x1
 7179 1e86 53       		.byte	0x53
 7180 1e87 03       		.uleb128 0x3
 7181 1e88 0A       		.byte	0xa
 7182 1e89 3D03     		.2byte	0x33d
 7183 1e8b 34       		.uleb128 0x34
 7184 1e8c 01       		.uleb128 0x1
 7185 1e8d 52       		.byte	0x52
 7186 1e8e 05       		.uleb128 0x5
 7187 1e8f 03       		.byte	0x3
 7188 1e90 D0020000 		.4byte	.LC23
ARM GAS  C:\Users\jo\AppData\Local\Temp\ccT06EVW.s 			page 130


 7189 1e94 34       		.uleb128 0x34
 7190 1e95 01       		.uleb128 0x1
 7191 1e96 51       		.byte	0x51
 7192 1e97 05       		.uleb128 0x5
 7193 1e98 03       		.byte	0x3
 7194 1e99 00000000 		.4byte	.LC0
 7195 1e9d 34       		.uleb128 0x34
 7196 1e9e 02       		.uleb128 0x2
 7197 1e9f 7D       		.byte	0x7d
 7198 1ea0 00       		.sleb128 0
 7199 1ea1 05       		.uleb128 0x5
 7200 1ea2 03       		.byte	0x3
 7201 1ea3 4C000000 		.4byte	.LC2
 7202 1ea7 00       		.byte	0
 7203 1ea8 00       		.byte	0
 7204 1ea9 39       		.uleb128 0x39
 7205 1eaa AF030000 		.4byte	.LASF260
 7206 1eae 01       		.byte	0x1
 7207 1eaf 5403     		.2byte	0x354
 7208 1eb1 0A090000 		.4byte	0x90a
 7209 1eb5 00000000 		.4byte	.LFB269
 7210 1eb9 94010000 		.4byte	.LFE269-.LFB269
 7211 1ebd 01       		.uleb128 0x1
 7212 1ebe 9C       		.byte	0x9c
 7213 1ebf 64210000 		.4byte	0x2164
 7214 1ec3 3B       		.uleb128 0x3b
 7215 1ec4 69070000 		.4byte	.LASF261
 7216 1ec8 01       		.byte	0x1
 7217 1ec9 5403     		.2byte	0x354
 7218 1ecb CE090000 		.4byte	0x9ce
 7219 1ecf 730D0000 		.4byte	.LLST67
 7220 1ed3 3B       		.uleb128 0x3b
 7221 1ed4 11080000 		.4byte	.LASF262
 7222 1ed8 01       		.byte	0x1
 7223 1ed9 5403     		.2byte	0x354
 7224 1edb CE090000 		.4byte	0x9ce
 7225 1edf A70D0000 		.4byte	.LLST68
 7226 1ee3 3C       		.uleb128 0x3c
 7227 1ee4 04070000 		.4byte	.LASF263
 7228 1ee8 01       		.byte	0x1
 7229 1ee9 5603     		.2byte	0x356
 7230 1eeb 5A080000 		.4byte	0x85a
 7231 1eef FF0D0000 		.4byte	.LLST69
 7232 1ef3 3C       		.uleb128 0x3c
 7233 1ef4 EF080000 		.4byte	.LASF264
 7234 1ef8 01       		.byte	0x1
 7235 1ef9 5603     		.2byte	0x356
 7236 1efb 5A080000 		.4byte	0x85a
 7237 1eff 6E0E0000 		.4byte	.LLST70
 7238 1f03 3F       		.uleb128 0x3f
 7239 1f04 6C656E00 		.ascii	"len\000"
 7240 1f08 01       		.byte	0x1
 7241 1f09 5603     		.2byte	0x356
 7242 1f0b 5A080000 		.4byte	0x85a
 7243 1f0f BB0E0000 		.4byte	.LLST71
 7244 1f13 3D       		.uleb128 0x3d
 7245 1f14 040F0000 		.4byte	0xf04
ARM GAS  C:\Users\jo\AppData\Local\Temp\ccT06EVW.s 			page 131


 7246 1f18 CC000000 		.4byte	.LBB161
 7247 1f1c 0A000000 		.4byte	.LBE161-.LBB161
 7248 1f20 01       		.byte	0x1
 7249 1f21 6E03     		.2byte	0x36e
 7250 1f23 441F0000 		.4byte	0x1f44
 7251 1f27 35       		.uleb128 0x35
 7252 1f28 110F0000 		.4byte	0xf11
 7253 1f2c CE0E0000 		.4byte	.LLST72
 7254 1f30 33       		.uleb128 0x33
 7255 1f31 D2000000 		.4byte	.LVL243
 7256 1f35 A6280000 		.4byte	0x28a6
 7257 1f39 34       		.uleb128 0x34
 7258 1f3a 01       		.uleb128 0x1
 7259 1f3b 50       		.byte	0x50
 7260 1f3c 05       		.uleb128 0x5
 7261 1f3d 03       		.byte	0x3
 7262 1f3e 30030000 		.4byte	.LC26
 7263 1f42 00       		.byte	0
 7264 1f43 00       		.byte	0
 7265 1f44 3D       		.uleb128 0x3d
 7266 1f45 040F0000 		.4byte	0xf04
 7267 1f49 E6000000 		.4byte	.LBB163
 7268 1f4d 08000000 		.4byte	.LBE163-.LBB163
 7269 1f51 01       		.byte	0x1
 7270 1f52 6D03     		.2byte	0x36d
 7271 1f54 751F0000 		.4byte	0x1f75
 7272 1f58 35       		.uleb128 0x35
 7273 1f59 110F0000 		.4byte	0xf11
 7274 1f5d E60E0000 		.4byte	.LLST73
 7275 1f61 33       		.uleb128 0x33
 7276 1f62 EC000000 		.4byte	.LVL246
 7277 1f66 A6280000 		.4byte	0x28a6
 7278 1f6a 34       		.uleb128 0x34
 7279 1f6b 01       		.uleb128 0x1
 7280 1f6c 50       		.byte	0x50
 7281 1f6d 05       		.uleb128 0x5
 7282 1f6e 03       		.byte	0x3
 7283 1f6f 18030000 		.4byte	.LC25
 7284 1f73 00       		.byte	0
 7285 1f74 00       		.byte	0
 7286 1f75 3D       		.uleb128 0x3d
 7287 1f76 040F0000 		.4byte	0xf04
 7288 1f7a 06010000 		.4byte	.LBB165
 7289 1f7e 06000000 		.4byte	.LBE165-.LBB165
 7290 1f82 01       		.byte	0x1
 7291 1f83 7D03     		.2byte	0x37d
 7292 1f85 A61F0000 		.4byte	0x1fa6
 7293 1f89 35       		.uleb128 0x35
 7294 1f8a 110F0000 		.4byte	0xf11
 7295 1f8e FE0E0000 		.4byte	.LLST74
 7296 1f92 33       		.uleb128 0x33
 7297 1f93 0C010000 		.4byte	.LVL249
 7298 1f97 A6280000 		.4byte	0x28a6
 7299 1f9b 34       		.uleb128 0x34
 7300 1f9c 01       		.uleb128 0x1
 7301 1f9d 50       		.byte	0x50
 7302 1f9e 05       		.uleb128 0x5
ARM GAS  C:\Users\jo\AppData\Local\Temp\ccT06EVW.s 			page 132


 7303 1f9f 03       		.byte	0x3
 7304 1fa0 5C030000 		.4byte	.LC28
 7305 1fa4 00       		.byte	0
 7306 1fa5 00       		.byte	0
 7307 1fa6 3D       		.uleb128 0x3d
 7308 1fa7 040F0000 		.4byte	0xf04
 7309 1fab 2C010000 		.4byte	.LBB167
 7310 1faf 06000000 		.4byte	.LBE167-.LBB167
 7311 1fb3 01       		.byte	0x1
 7312 1fb4 7803     		.2byte	0x378
 7313 1fb6 D71F0000 		.4byte	0x1fd7
 7314 1fba 35       		.uleb128 0x35
 7315 1fbb 110F0000 		.4byte	0xf11
 7316 1fbf 160F0000 		.4byte	.LLST75
 7317 1fc3 33       		.uleb128 0x33
 7318 1fc4 32010000 		.4byte	.LVL253
 7319 1fc8 A6280000 		.4byte	0x28a6
 7320 1fcc 34       		.uleb128 0x34
 7321 1fcd 01       		.uleb128 0x1
 7322 1fce 50       		.byte	0x50
 7323 1fcf 05       		.uleb128 0x5
 7324 1fd0 03       		.byte	0x3
 7325 1fd1 4C030000 		.4byte	.LC27
 7326 1fd5 00       		.byte	0
 7327 1fd6 00       		.byte	0
 7328 1fd7 3D       		.uleb128 0x3d
 7329 1fd8 040F0000 		.4byte	0xf04
 7330 1fdc 48010000 		.4byte	.LBB169
 7331 1fe0 06000000 		.4byte	.LBE169-.LBB169
 7332 1fe4 01       		.byte	0x1
 7333 1fe5 8203     		.2byte	0x382
 7334 1fe7 08200000 		.4byte	0x2008
 7335 1feb 35       		.uleb128 0x35
 7336 1fec 110F0000 		.4byte	0xf11
 7337 1ff0 2E0F0000 		.4byte	.LLST76
 7338 1ff4 33       		.uleb128 0x33
 7339 1ff5 4E010000 		.4byte	.LVL257
 7340 1ff9 A6280000 		.4byte	0x28a6
 7341 1ffd 34       		.uleb128 0x34
 7342 1ffe 01       		.uleb128 0x1
 7343 1fff 50       		.byte	0x50
 7344 2000 05       		.uleb128 0x5
 7345 2001 03       		.byte	0x3
 7346 2002 5C030000 		.4byte	.LC28
 7347 2006 00       		.byte	0
 7348 2007 00       		.byte	0
 7349 2008 3D       		.uleb128 0x3d
 7350 2009 040F0000 		.4byte	0xf04
 7351 200d 6A010000 		.4byte	.LBB171
 7352 2011 06000000 		.4byte	.LBE171-.LBB171
 7353 2015 01       		.byte	0x1
 7354 2016 5C03     		.2byte	0x35c
 7355 2018 3C200000 		.4byte	0x203c
 7356 201c 36       		.uleb128 0x36
 7357 201d 110F0000 		.4byte	0xf11
 7358 2021 06       		.uleb128 0x6
 7359 2022 03       		.byte	0x3
ARM GAS  C:\Users\jo\AppData\Local\Temp\ccT06EVW.s 			page 133


 7360 2023 E8020000 		.4byte	.LC24
 7361 2027 9F       		.byte	0x9f
 7362 2028 33       		.uleb128 0x33
 7363 2029 70010000 		.4byte	.LVL263
 7364 202d A6280000 		.4byte	0x28a6
 7365 2031 34       		.uleb128 0x34
 7366 2032 01       		.uleb128 0x1
 7367 2033 50       		.byte	0x50
 7368 2034 05       		.uleb128 0x5
 7369 2035 03       		.byte	0x3
 7370 2036 E8020000 		.4byte	.LC24
 7371 203a 00       		.byte	0
 7372 203b 00       		.byte	0
 7373 203c 3E       		.uleb128 0x3e
 7374 203d 4A000000 		.4byte	.LVL229
 7375 2041 22290000 		.4byte	0x2922
 7376 2045 50200000 		.4byte	0x2050
 7377 2049 34       		.uleb128 0x34
 7378 204a 01       		.uleb128 0x1
 7379 204b 52       		.byte	0x52
 7380 204c 02       		.uleb128 0x2
 7381 204d 74       		.byte	0x74
 7382 204e 00       		.sleb128 0
 7383 204f 00       		.byte	0
 7384 2050 3E       		.uleb128 0x3e
 7385 2051 CC000000 		.4byte	.LVL242
 7386 2055 52100000 		.4byte	0x1052
 7387 2059 7E200000 		.4byte	0x207e
 7388 205d 34       		.uleb128 0x34
 7389 205e 01       		.uleb128 0x1
 7390 205f 53       		.byte	0x53
 7391 2060 03       		.uleb128 0x3
 7392 2061 0A       		.byte	0xa
 7393 2062 6E03     		.2byte	0x36e
 7394 2064 34       		.uleb128 0x34
 7395 2065 01       		.uleb128 0x1
 7396 2066 52       		.byte	0x52
 7397 2067 05       		.uleb128 0x5
 7398 2068 03       		.byte	0x3
 7399 2069 30030000 		.4byte	.LC26
 7400 206d 34       		.uleb128 0x34
 7401 206e 01       		.uleb128 0x1
 7402 206f 51       		.byte	0x51
 7403 2070 05       		.uleb128 0x5
 7404 2071 03       		.byte	0x3
 7405 2072 00000000 		.4byte	.LC0
 7406 2076 34       		.uleb128 0x34
 7407 2077 02       		.uleb128 0x2
 7408 2078 7D       		.byte	0x7d
 7409 2079 00       		.sleb128 0
 7410 207a 02       		.uleb128 0x2
 7411 207b 77       		.byte	0x77
 7412 207c 00       		.sleb128 0
 7413 207d 00       		.byte	0
 7414 207e 3E       		.uleb128 0x3e
 7415 207f E6000000 		.4byte	.LVL245
 7416 2083 52100000 		.4byte	0x1052
ARM GAS  C:\Users\jo\AppData\Local\Temp\ccT06EVW.s 			page 134


 7417 2087 AC200000 		.4byte	0x20ac
 7418 208b 34       		.uleb128 0x34
 7419 208c 01       		.uleb128 0x1
 7420 208d 53       		.byte	0x53
 7421 208e 03       		.uleb128 0x3
 7422 208f 0A       		.byte	0xa
 7423 2090 6D03     		.2byte	0x36d
 7424 2092 34       		.uleb128 0x34
 7425 2093 01       		.uleb128 0x1
 7426 2094 52       		.byte	0x52
 7427 2095 05       		.uleb128 0x5
 7428 2096 03       		.byte	0x3
 7429 2097 18030000 		.4byte	.LC25
 7430 209b 34       		.uleb128 0x34
 7431 209c 01       		.uleb128 0x1
 7432 209d 51       		.byte	0x51
 7433 209e 05       		.uleb128 0x5
 7434 209f 03       		.byte	0x3
 7435 20a0 00000000 		.4byte	.LC0
 7436 20a4 34       		.uleb128 0x34
 7437 20a5 02       		.uleb128 0x2
 7438 20a6 7D       		.byte	0x7d
 7439 20a7 00       		.sleb128 0
 7440 20a8 02       		.uleb128 0x2
 7441 20a9 77       		.byte	0x77
 7442 20aa 00       		.sleb128 0
 7443 20ab 00       		.byte	0
 7444 20ac 3E       		.uleb128 0x3e
 7445 20ad 06010000 		.4byte	.LVL248
 7446 20b1 52100000 		.4byte	0x1052
 7447 20b5 DA200000 		.4byte	0x20da
 7448 20b9 34       		.uleb128 0x34
 7449 20ba 01       		.uleb128 0x1
 7450 20bb 53       		.byte	0x53
 7451 20bc 03       		.uleb128 0x3
 7452 20bd 0A       		.byte	0xa
 7453 20be 7E03     		.2byte	0x37e
 7454 20c0 34       		.uleb128 0x34
 7455 20c1 01       		.uleb128 0x1
 7456 20c2 52       		.byte	0x52
 7457 20c3 05       		.uleb128 0x5
 7458 20c4 03       		.byte	0x3
 7459 20c5 5C030000 		.4byte	.LC28
 7460 20c9 34       		.uleb128 0x34
 7461 20ca 01       		.uleb128 0x1
 7462 20cb 51       		.byte	0x51
 7463 20cc 05       		.uleb128 0x5
 7464 20cd 03       		.byte	0x3
 7465 20ce 00000000 		.4byte	.LC0
 7466 20d2 34       		.uleb128 0x34
 7467 20d3 02       		.uleb128 0x2
 7468 20d4 7D       		.byte	0x7d
 7469 20d5 00       		.sleb128 0
 7470 20d6 02       		.uleb128 0x2
 7471 20d7 77       		.byte	0x77
 7472 20d8 00       		.sleb128 0
 7473 20d9 00       		.byte	0
ARM GAS  C:\Users\jo\AppData\Local\Temp\ccT06EVW.s 			page 135


 7474 20da 3E       		.uleb128 0x3e
 7475 20db 2C010000 		.4byte	.LVL252
 7476 20df 52100000 		.4byte	0x1052
 7477 20e3 08210000 		.4byte	0x2108
 7478 20e7 34       		.uleb128 0x34
 7479 20e8 01       		.uleb128 0x1
 7480 20e9 53       		.byte	0x53
 7481 20ea 03       		.uleb128 0x3
 7482 20eb 0A       		.byte	0xa
 7483 20ec 7803     		.2byte	0x378
 7484 20ee 34       		.uleb128 0x34
 7485 20ef 01       		.uleb128 0x1
 7486 20f0 52       		.byte	0x52
 7487 20f1 05       		.uleb128 0x5
 7488 20f2 03       		.byte	0x3
 7489 20f3 4C030000 		.4byte	.LC27
 7490 20f7 34       		.uleb128 0x34
 7491 20f8 01       		.uleb128 0x1
 7492 20f9 51       		.byte	0x51
 7493 20fa 05       		.uleb128 0x5
 7494 20fb 03       		.byte	0x3
 7495 20fc 00000000 		.4byte	.LC0
 7496 2100 34       		.uleb128 0x34
 7497 2101 02       		.uleb128 0x2
 7498 2102 7D       		.byte	0x7d
 7499 2103 00       		.sleb128 0
 7500 2104 02       		.uleb128 0x2
 7501 2105 77       		.byte	0x77
 7502 2106 00       		.sleb128 0
 7503 2107 00       		.byte	0
 7504 2108 3E       		.uleb128 0x3e
 7505 2109 48010000 		.4byte	.LVL256
 7506 210d 52100000 		.4byte	0x1052
 7507 2111 36210000 		.4byte	0x2136
 7508 2115 34       		.uleb128 0x34
 7509 2116 01       		.uleb128 0x1
 7510 2117 53       		.byte	0x53
 7511 2118 03       		.uleb128 0x3
 7512 2119 0A       		.byte	0xa
 7513 211a 8303     		.2byte	0x383
 7514 211c 34       		.uleb128 0x34
 7515 211d 01       		.uleb128 0x1
 7516 211e 52       		.byte	0x52
 7517 211f 05       		.uleb128 0x5
 7518 2120 03       		.byte	0x3
 7519 2121 5C030000 		.4byte	.LC28
 7520 2125 34       		.uleb128 0x34
 7521 2126 01       		.uleb128 0x1
 7522 2127 51       		.byte	0x51
 7523 2128 05       		.uleb128 0x5
 7524 2129 03       		.byte	0x3
 7525 212a 00000000 		.4byte	.LC0
 7526 212e 34       		.uleb128 0x34
 7527 212f 02       		.uleb128 0x2
 7528 2130 7D       		.byte	0x7d
 7529 2131 00       		.sleb128 0
 7530 2132 02       		.uleb128 0x2
ARM GAS  C:\Users\jo\AppData\Local\Temp\ccT06EVW.s 			page 136


 7531 2133 77       		.byte	0x77
 7532 2134 00       		.sleb128 0
 7533 2135 00       		.byte	0
 7534 2136 33       		.uleb128 0x33
 7535 2137 6A010000 		.4byte	.LVL262
 7536 213b 52100000 		.4byte	0x1052
 7537 213f 34       		.uleb128 0x34
 7538 2140 01       		.uleb128 0x1
 7539 2141 53       		.byte	0x53
 7540 2142 03       		.uleb128 0x3
 7541 2143 0A       		.byte	0xa
 7542 2144 5D03     		.2byte	0x35d
 7543 2146 34       		.uleb128 0x34
 7544 2147 01       		.uleb128 0x1
 7545 2148 52       		.byte	0x52
 7546 2149 05       		.uleb128 0x5
 7547 214a 03       		.byte	0x3
 7548 214b E8020000 		.4byte	.LC24
 7549 214f 34       		.uleb128 0x34
 7550 2150 01       		.uleb128 0x1
 7551 2151 51       		.byte	0x51
 7552 2152 05       		.uleb128 0x5
 7553 2153 03       		.byte	0x3
 7554 2154 00000000 		.4byte	.LC0
 7555 2158 34       		.uleb128 0x34
 7556 2159 02       		.uleb128 0x2
 7557 215a 7D       		.byte	0x7d
 7558 215b 00       		.sleb128 0
 7559 215c 05       		.uleb128 0x5
 7560 215d 03       		.byte	0x3
 7561 215e 4C000000 		.4byte	.LC2
 7562 2162 00       		.byte	0
 7563 2163 00       		.byte	0
 7564 2164 39       		.uleb128 0x39
 7565 2165 A2050000 		.4byte	.LASF265
 7566 2169 01       		.byte	0x1
 7567 216a 9603     		.2byte	0x396
 7568 216c 5A080000 		.4byte	0x85a
 7569 2170 00000000 		.4byte	.LFB270
 7570 2174 C0000000 		.4byte	.LFE270-.LFB270
 7571 2178 01       		.uleb128 0x1
 7572 2179 9C       		.byte	0x9c
 7573 217a C6220000 		.4byte	0x22c6
 7574 217e 3A       		.uleb128 0x3a
 7575 217f 62756600 		.ascii	"buf\000"
 7576 2183 01       		.byte	0x1
 7577 2184 9603     		.2byte	0x396
 7578 2186 CE090000 		.4byte	0x9ce
 7579 218a 460F0000 		.4byte	.LLST77
 7580 218e 3B       		.uleb128 0x3b
 7581 218f 98070000 		.4byte	.LASF266
 7582 2193 01       		.byte	0x1
 7583 2194 9603     		.2byte	0x396
 7584 2196 3C030000 		.4byte	0x33c
 7585 219a 9E0F0000 		.4byte	.LLST78
 7586 219e 3A       		.uleb128 0x3a
 7587 219f 6C656E00 		.ascii	"len\000"
ARM GAS  C:\Users\jo\AppData\Local\Temp\ccT06EVW.s 			page 137


 7588 21a3 01       		.byte	0x1
 7589 21a4 9603     		.2byte	0x396
 7590 21a6 5A080000 		.4byte	0x85a
 7591 21aa 0F100000 		.4byte	.LLST79
 7592 21ae 3B       		.uleb128 0x3b
 7593 21af 32030000 		.4byte	.LASF91
 7594 21b3 01       		.byte	0x1
 7595 21b4 9603     		.2byte	0x396
 7596 21b6 5A080000 		.4byte	0x85a
 7597 21ba 80100000 		.4byte	.LLST80
 7598 21be 3F       		.uleb128 0x3f
 7599 21bf 7000     		.ascii	"p\000"
 7600 21c1 01       		.byte	0x1
 7601 21c2 9803     		.2byte	0x398
 7602 21c4 CE090000 		.4byte	0x9ce
 7603 21c8 F2100000 		.4byte	.LLST81
 7604 21cc 3C       		.uleb128 0x3c
 7605 21cd 60090000 		.4byte	.LASF267
 7606 21d1 01       		.byte	0x1
 7607 21d2 9903     		.2byte	0x399
 7608 21d4 5A080000 		.4byte	0x85a
 7609 21d8 31110000 		.4byte	.LLST82
 7610 21dc 3C       		.uleb128 0x3c
 7611 21dd F7060000 		.4byte	.LASF268
 7612 21e1 01       		.byte	0x1
 7613 21e2 9A03     		.2byte	0x39a
 7614 21e4 5A080000 		.4byte	0x85a
 7615 21e8 67110000 		.4byte	.LLST83
 7616 21ec 3C       		.uleb128 0x3c
 7617 21ed BA040000 		.4byte	.LASF269
 7618 21f1 01       		.byte	0x1
 7619 21f2 9B03     		.2byte	0x39b
 7620 21f4 5A080000 		.4byte	0x85a
 7621 21f8 85110000 		.4byte	.LLST84
 7622 21fc 3D       		.uleb128 0x3d
 7623 21fd 040F0000 		.4byte	0xf04
 7624 2201 82000000 		.4byte	.LBB173
 7625 2205 06000000 		.4byte	.LBE173-.LBB173
 7626 2209 01       		.byte	0x1
 7627 220a 9D03     		.2byte	0x39d
 7628 220c 2D220000 		.4byte	0x222d
 7629 2210 35       		.uleb128 0x35
 7630 2211 110F0000 		.4byte	0xf11
 7631 2215 C6110000 		.4byte	.LLST85
 7632 2219 33       		.uleb128 0x33
 7633 221a 88000000 		.4byte	.LVL288
 7634 221e A6280000 		.4byte	0x28a6
 7635 2222 34       		.uleb128 0x34
 7636 2223 01       		.uleb128 0x1
 7637 2224 50       		.byte	0x50
 7638 2225 05       		.uleb128 0x5
 7639 2226 03       		.byte	0x3
 7640 2227 88030000 		.4byte	.LC29
 7641 222b 00       		.byte	0
 7642 222c 00       		.byte	0
 7643 222d 3D       		.uleb128 0x3d
 7644 222e 040F0000 		.4byte	0xf04
ARM GAS  C:\Users\jo\AppData\Local\Temp\ccT06EVW.s 			page 138


 7645 2232 9E000000 		.4byte	.LBB175
 7646 2236 06000000 		.4byte	.LBE175-.LBB175
 7647 223a 01       		.byte	0x1
 7648 223b 9E03     		.2byte	0x39e
 7649 223d 5E220000 		.4byte	0x225e
 7650 2241 35       		.uleb128 0x35
 7651 2242 110F0000 		.4byte	0xf11
 7652 2246 DE110000 		.4byte	.LLST86
 7653 224a 33       		.uleb128 0x33
 7654 224b A4000000 		.4byte	.LVL295
 7655 224f A6280000 		.4byte	0x28a6
 7656 2253 34       		.uleb128 0x34
 7657 2254 01       		.uleb128 0x1
 7658 2255 50       		.byte	0x50
 7659 2256 05       		.uleb128 0x5
 7660 2257 03       		.byte	0x3
 7661 2258 A8030000 		.4byte	.LC30
 7662 225c 00       		.byte	0
 7663 225d 00       		.byte	0
 7664 225e 30       		.uleb128 0x30
 7665 225f 5A000000 		.4byte	.LVL277
 7666 2263 22290000 		.4byte	0x2922
 7667 2267 3E       		.uleb128 0x3e
 7668 2268 82000000 		.4byte	.LVL287
 7669 226c 52100000 		.4byte	0x1052
 7670 2270 98220000 		.4byte	0x2298
 7671 2274 34       		.uleb128 0x34
 7672 2275 01       		.uleb128 0x1
 7673 2276 53       		.byte	0x53
 7674 2277 03       		.uleb128 0x3
 7675 2278 0A       		.byte	0xa
 7676 2279 9D03     		.2byte	0x39d
 7677 227b 34       		.uleb128 0x34
 7678 227c 01       		.uleb128 0x1
 7679 227d 52       		.byte	0x52
 7680 227e 05       		.uleb128 0x5
 7681 227f 03       		.byte	0x3
 7682 2280 88030000 		.4byte	.LC29
 7683 2284 34       		.uleb128 0x34
 7684 2285 01       		.uleb128 0x1
 7685 2286 51       		.byte	0x51
 7686 2287 05       		.uleb128 0x5
 7687 2288 03       		.byte	0x3
 7688 2289 00000000 		.4byte	.LC0
 7689 228d 34       		.uleb128 0x34
 7690 228e 02       		.uleb128 0x2
 7691 228f 7D       		.byte	0x7d
 7692 2290 00       		.sleb128 0
 7693 2291 05       		.uleb128 0x5
 7694 2292 03       		.byte	0x3
 7695 2293 4C000000 		.4byte	.LC2
 7696 2297 00       		.byte	0
 7697 2298 33       		.uleb128 0x33
 7698 2299 9E000000 		.4byte	.LVL294
 7699 229d 52100000 		.4byte	0x1052
 7700 22a1 34       		.uleb128 0x34
 7701 22a2 01       		.uleb128 0x1
ARM GAS  C:\Users\jo\AppData\Local\Temp\ccT06EVW.s 			page 139


 7702 22a3 53       		.byte	0x53
 7703 22a4 03       		.uleb128 0x3
 7704 22a5 0A       		.byte	0xa
 7705 22a6 9E03     		.2byte	0x39e
 7706 22a8 34       		.uleb128 0x34
 7707 22a9 01       		.uleb128 0x1
 7708 22aa 52       		.byte	0x52
 7709 22ab 05       		.uleb128 0x5
 7710 22ac 03       		.byte	0x3
 7711 22ad A8030000 		.4byte	.LC30
 7712 22b1 34       		.uleb128 0x34
 7713 22b2 01       		.uleb128 0x1
 7714 22b3 51       		.byte	0x51
 7715 22b4 05       		.uleb128 0x5
 7716 22b5 03       		.byte	0x3
 7717 22b6 00000000 		.4byte	.LC0
 7718 22ba 34       		.uleb128 0x34
 7719 22bb 02       		.uleb128 0x2
 7720 22bc 7D       		.byte	0x7d
 7721 22bd 00       		.sleb128 0
 7722 22be 05       		.uleb128 0x5
 7723 22bf 03       		.byte	0x3
 7724 22c0 4C000000 		.4byte	.LC2
 7725 22c4 00       		.byte	0
 7726 22c5 00       		.byte	0
 7727 22c6 39       		.uleb128 0x39
 7728 22c7 A5020000 		.4byte	.LASF270
 7729 22cb 01       		.byte	0x1
 7730 22cc C603     		.2byte	0x3c6
 7731 22ce 0A090000 		.4byte	0x90a
 7732 22d2 00000000 		.4byte	.LFB271
 7733 22d6 F8000000 		.4byte	.LFE271-.LFB271
 7734 22da 01       		.uleb128 0x1
 7735 22db 9C       		.byte	0x9c
 7736 22dc E1240000 		.4byte	0x24e1
 7737 22e0 3A       		.uleb128 0x3a
 7738 22e1 62756600 		.ascii	"buf\000"
 7739 22e5 01       		.byte	0x1
 7740 22e6 C603     		.2byte	0x3c6
 7741 22e8 CE090000 		.4byte	0x9ce
 7742 22ec F6110000 		.4byte	.LLST87
 7743 22f0 3B       		.uleb128 0x3b
 7744 22f1 98070000 		.4byte	.LASF266
 7745 22f5 01       		.byte	0x1
 7746 22f6 C603     		.2byte	0x3c6
 7747 22f8 DA0E0000 		.4byte	0xeda
 7748 22fc 59120000 		.4byte	.LLST88
 7749 2300 3A       		.uleb128 0x3a
 7750 2301 6C656E00 		.ascii	"len\000"
 7751 2305 01       		.byte	0x1
 7752 2306 C603     		.2byte	0x3c6
 7753 2308 5A080000 		.4byte	0x85a
 7754 230c CA120000 		.4byte	.LLST89
 7755 2310 3F       		.uleb128 0x3f
 7756 2311 7000     		.ascii	"p\000"
 7757 2313 01       		.byte	0x1
 7758 2314 C803     		.2byte	0x3c8
ARM GAS  C:\Users\jo\AppData\Local\Temp\ccT06EVW.s 			page 140


 7759 2316 CE090000 		.4byte	0x9ce
 7760 231a 28130000 		.4byte	.LLST90
 7761 231e 3C       		.uleb128 0x3c
 7762 231f F7060000 		.4byte	.LASF268
 7763 2323 01       		.byte	0x1
 7764 2324 C903     		.2byte	0x3c9
 7765 2326 5A080000 		.4byte	0x85a
 7766 232a 51130000 		.4byte	.LLST91
 7767 232e 3C       		.uleb128 0x3c
 7768 232f 9C090000 		.4byte	.LASF271
 7769 2333 01       		.byte	0x1
 7770 2334 CA03     		.2byte	0x3ca
 7771 2336 5A080000 		.4byte	0x85a
 7772 233a 85130000 		.4byte	.LLST92
 7773 233e 3C       		.uleb128 0x3c
 7774 233f BA040000 		.4byte	.LASF269
 7775 2343 01       		.byte	0x1
 7776 2344 CB03     		.2byte	0x3cb
 7777 2346 5A080000 		.4byte	0x85a
 7778 234a CF130000 		.4byte	.LLST93
 7779 234e 3D       		.uleb128 0x3d
 7780 234f 040F0000 		.4byte	0xf04
 7781 2353 6A000000 		.4byte	.LBB177
 7782 2357 06000000 		.4byte	.LBE177-.LBB177
 7783 235b 01       		.byte	0x1
 7784 235c E103     		.2byte	0x3e1
 7785 235e 7F230000 		.4byte	0x237f
 7786 2362 35       		.uleb128 0x35
 7787 2363 110F0000 		.4byte	0xf11
 7788 2367 10140000 		.4byte	.LLST94
 7789 236b 33       		.uleb128 0x33
 7790 236c 70000000 		.4byte	.LVL307
 7791 2370 A6280000 		.4byte	0x28a6
 7792 2374 34       		.uleb128 0x34
 7793 2375 01       		.uleb128 0x1
 7794 2376 50       		.byte	0x50
 7795 2377 05       		.uleb128 0x5
 7796 2378 03       		.byte	0x3
 7797 2379 18040000 		.4byte	.LC34
 7798 237d 00       		.byte	0
 7799 237e 00       		.byte	0
 7800 237f 3D       		.uleb128 0x3d
 7801 2380 040F0000 		.4byte	0xf04
 7802 2384 8C000000 		.4byte	.LBB179
 7803 2388 08000000 		.4byte	.LBE179-.LBB179
 7804 238c 01       		.byte	0x1
 7805 238d D603     		.2byte	0x3d6
 7806 238f B0230000 		.4byte	0x23b0
 7807 2393 35       		.uleb128 0x35
 7808 2394 110F0000 		.4byte	0xf11
 7809 2398 28140000 		.4byte	.LLST95
 7810 239c 33       		.uleb128 0x33
 7811 239d 92000000 		.4byte	.LVL311
 7812 23a1 A6280000 		.4byte	0x28a6
 7813 23a5 34       		.uleb128 0x34
 7814 23a6 01       		.uleb128 0x1
 7815 23a7 50       		.byte	0x50
ARM GAS  C:\Users\jo\AppData\Local\Temp\ccT06EVW.s 			page 141


 7816 23a8 05       		.uleb128 0x5
 7817 23a9 03       		.byte	0x3
 7818 23aa 00040000 		.4byte	.LC33
 7819 23ae 00       		.byte	0
 7820 23af 00       		.byte	0
 7821 23b0 3D       		.uleb128 0x3d
 7822 23b1 040F0000 		.4byte	0xf04
 7823 23b5 B0000000 		.4byte	.LBB181
 7824 23b9 06000000 		.4byte	.LBE181-.LBB181
 7825 23bd 01       		.byte	0x1
 7826 23be CD03     		.2byte	0x3cd
 7827 23c0 E1230000 		.4byte	0x23e1
 7828 23c4 35       		.uleb128 0x35
 7829 23c5 110F0000 		.4byte	0xf11
 7830 23c9 40140000 		.4byte	.LLST96
 7831 23cd 33       		.uleb128 0x33
 7832 23ce B6000000 		.4byte	.LVL318
 7833 23d2 A6280000 		.4byte	0x28a6
 7834 23d6 34       		.uleb128 0x34
 7835 23d7 01       		.uleb128 0x1
 7836 23d8 50       		.byte	0x50
 7837 23d9 05       		.uleb128 0x5
 7838 23da 03       		.byte	0x3
 7839 23db CC030000 		.4byte	.LC31
 7840 23df 00       		.byte	0
 7841 23e0 00       		.byte	0
 7842 23e1 3D       		.uleb128 0x3d
 7843 23e2 040F0000 		.4byte	0xf04
 7844 23e6 CC000000 		.4byte	.LBB183
 7845 23ea 06000000 		.4byte	.LBE183-.LBB183
 7846 23ee 01       		.byte	0x1
 7847 23ef CE03     		.2byte	0x3ce
 7848 23f1 12240000 		.4byte	0x2412
 7849 23f5 35       		.uleb128 0x35
 7850 23f6 110F0000 		.4byte	0xf11
 7851 23fa 58140000 		.4byte	.LLST97
 7852 23fe 33       		.uleb128 0x33
 7853 23ff D2000000 		.4byte	.LVL324
 7854 2403 A6280000 		.4byte	0x28a6
 7855 2407 34       		.uleb128 0x34
 7856 2408 01       		.uleb128 0x1
 7857 2409 50       		.byte	0x50
 7858 240a 05       		.uleb128 0x5
 7859 240b 03       		.byte	0x3
 7860 240c E4030000 		.4byte	.LC32
 7861 2410 00       		.byte	0
 7862 2411 00       		.byte	0
 7863 2412 3E       		.uleb128 0x3e
 7864 2413 4A000000 		.4byte	.LVL303
 7865 2417 22290000 		.4byte	0x2922
 7866 241b 26240000 		.4byte	0x2426
 7867 241f 34       		.uleb128 0x34
 7868 2420 01       		.uleb128 0x1
 7869 2421 52       		.byte	0x52
 7870 2422 02       		.uleb128 0x2
 7871 2423 75       		.byte	0x75
 7872 2424 00       		.sleb128 0
ARM GAS  C:\Users\jo\AppData\Local\Temp\ccT06EVW.s 			page 142


 7873 2425 00       		.byte	0
 7874 2426 3E       		.uleb128 0x3e
 7875 2427 6A000000 		.4byte	.LVL306
 7876 242b 52100000 		.4byte	0x1052
 7877 242f 54240000 		.4byte	0x2454
 7878 2433 34       		.uleb128 0x34
 7879 2434 01       		.uleb128 0x1
 7880 2435 53       		.byte	0x53
 7881 2436 03       		.uleb128 0x3
 7882 2437 0A       		.byte	0xa
 7883 2438 E103     		.2byte	0x3e1
 7884 243a 34       		.uleb128 0x34
 7885 243b 01       		.uleb128 0x1
 7886 243c 52       		.byte	0x52
 7887 243d 05       		.uleb128 0x5
 7888 243e 03       		.byte	0x3
 7889 243f 18040000 		.4byte	.LC34
 7890 2443 34       		.uleb128 0x34
 7891 2444 01       		.uleb128 0x1
 7892 2445 51       		.byte	0x51
 7893 2446 05       		.uleb128 0x5
 7894 2447 03       		.byte	0x3
 7895 2448 00000000 		.4byte	.LC0
 7896 244c 34       		.uleb128 0x34
 7897 244d 02       		.uleb128 0x2
 7898 244e 7D       		.byte	0x7d
 7899 244f 00       		.sleb128 0
 7900 2450 02       		.uleb128 0x2
 7901 2451 79       		.byte	0x79
 7902 2452 00       		.sleb128 0
 7903 2453 00       		.byte	0
 7904 2454 3E       		.uleb128 0x3e
 7905 2455 8C000000 		.4byte	.LVL310
 7906 2459 52100000 		.4byte	0x1052
 7907 245d 82240000 		.4byte	0x2482
 7908 2461 34       		.uleb128 0x34
 7909 2462 01       		.uleb128 0x1
 7910 2463 53       		.byte	0x53
 7911 2464 03       		.uleb128 0x3
 7912 2465 0A       		.byte	0xa
 7913 2466 D603     		.2byte	0x3d6
 7914 2468 34       		.uleb128 0x34
 7915 2469 01       		.uleb128 0x1
 7916 246a 52       		.byte	0x52
 7917 246b 05       		.uleb128 0x5
 7918 246c 03       		.byte	0x3
 7919 246d 00040000 		.4byte	.LC33
 7920 2471 34       		.uleb128 0x34
 7921 2472 01       		.uleb128 0x1
 7922 2473 51       		.byte	0x51
 7923 2474 05       		.uleb128 0x5
 7924 2475 03       		.byte	0x3
 7925 2476 00000000 		.4byte	.LC0
 7926 247a 34       		.uleb128 0x34
 7927 247b 02       		.uleb128 0x2
 7928 247c 7D       		.byte	0x7d
 7929 247d 00       		.sleb128 0
ARM GAS  C:\Users\jo\AppData\Local\Temp\ccT06EVW.s 			page 143


 7930 247e 02       		.uleb128 0x2
 7931 247f 79       		.byte	0x79
 7932 2480 00       		.sleb128 0
 7933 2481 00       		.byte	0
 7934 2482 3E       		.uleb128 0x3e
 7935 2483 B0000000 		.4byte	.LVL317
 7936 2487 52100000 		.4byte	0x1052
 7937 248b B3240000 		.4byte	0x24b3
 7938 248f 34       		.uleb128 0x34
 7939 2490 01       		.uleb128 0x1
 7940 2491 53       		.byte	0x53
 7941 2492 03       		.uleb128 0x3
 7942 2493 0A       		.byte	0xa
 7943 2494 CD03     		.2byte	0x3cd
 7944 2496 34       		.uleb128 0x34
 7945 2497 01       		.uleb128 0x1
 7946 2498 52       		.byte	0x52
 7947 2499 05       		.uleb128 0x5
 7948 249a 03       		.byte	0x3
 7949 249b CC030000 		.4byte	.LC31
 7950 249f 34       		.uleb128 0x34
 7951 24a0 01       		.uleb128 0x1
 7952 24a1 51       		.byte	0x51
 7953 24a2 05       		.uleb128 0x5
 7954 24a3 03       		.byte	0x3
 7955 24a4 00000000 		.4byte	.LC0
 7956 24a8 34       		.uleb128 0x34
 7957 24a9 02       		.uleb128 0x2
 7958 24aa 7D       		.byte	0x7d
 7959 24ab 00       		.sleb128 0
 7960 24ac 05       		.uleb128 0x5
 7961 24ad 03       		.byte	0x3
 7962 24ae 4C000000 		.4byte	.LC2
 7963 24b2 00       		.byte	0
 7964 24b3 33       		.uleb128 0x33
 7965 24b4 CC000000 		.4byte	.LVL323
 7966 24b8 52100000 		.4byte	0x1052
 7967 24bc 34       		.uleb128 0x34
 7968 24bd 01       		.uleb128 0x1
 7969 24be 53       		.byte	0x53
 7970 24bf 03       		.uleb128 0x3
 7971 24c0 0A       		.byte	0xa
 7972 24c1 CE03     		.2byte	0x3ce
 7973 24c3 34       		.uleb128 0x34
 7974 24c4 01       		.uleb128 0x1
 7975 24c5 52       		.byte	0x52
 7976 24c6 05       		.uleb128 0x5
 7977 24c7 03       		.byte	0x3
 7978 24c8 E4030000 		.4byte	.LC32
 7979 24cc 34       		.uleb128 0x34
 7980 24cd 01       		.uleb128 0x1
 7981 24ce 51       		.byte	0x51
 7982 24cf 05       		.uleb128 0x5
 7983 24d0 03       		.byte	0x3
 7984 24d1 00000000 		.4byte	.LC0
 7985 24d5 34       		.uleb128 0x34
 7986 24d6 02       		.uleb128 0x2
ARM GAS  C:\Users\jo\AppData\Local\Temp\ccT06EVW.s 			page 144


 7987 24d7 7D       		.byte	0x7d
 7988 24d8 00       		.sleb128 0
 7989 24d9 05       		.uleb128 0x5
 7990 24da 03       		.byte	0x3
 7991 24db 4C000000 		.4byte	.LC2
 7992 24df 00       		.byte	0
 7993 24e0 00       		.byte	0
 7994 24e1 39       		.uleb128 0x39
 7995 24e2 85000000 		.4byte	.LASF272
 7996 24e6 01       		.byte	0x1
 7997 24e7 F203     		.2byte	0x3f2
 7998 24e9 CE090000 		.4byte	0x9ce
 7999 24ed 00000000 		.4byte	.LFB272
 8000 24f1 5C000000 		.4byte	.LFE272-.LFB272
 8001 24f5 01       		.uleb128 0x1
 8002 24f6 9C       		.byte	0x9c
 8003 24f7 DA250000 		.4byte	0x25da
 8004 24fb 3A       		.uleb128 0x3a
 8005 24fc 7000     		.ascii	"p\000"
 8006 24fe 01       		.byte	0x1
 8007 24ff F203     		.2byte	0x3f2
 8008 2501 CE090000 		.4byte	0x9ce
 8009 2505 70140000 		.4byte	.LLST98
 8010 2509 3B       		.uleb128 0x3b
 8011 250a C5060000 		.4byte	.LASF250
 8012 250e 01       		.byte	0x1
 8013 250f F203     		.2byte	0x3f2
 8014 2511 36090000 		.4byte	0x936
 8015 2515 8E140000 		.4byte	.LLST99
 8016 2519 3F       		.uleb128 0x3f
 8017 251a 7100     		.ascii	"q\000"
 8018 251c 01       		.byte	0x1
 8019 251d F403     		.2byte	0x3f4
 8020 251f CE090000 		.4byte	0x9ce
 8021 2523 AF140000 		.4byte	.LLST100
 8022 2527 3F       		.uleb128 0x3f
 8023 2528 65727200 		.ascii	"err\000"
 8024 252c 01       		.byte	0x1
 8025 252d F503     		.2byte	0x3f5
 8026 252f 0A090000 		.4byte	0x90a
 8027 2533 D8140000 		.4byte	.LLST101
 8028 2537 3D       		.uleb128 0x3d
 8029 2538 040F0000 		.4byte	0xf04
 8030 253c 44000000 		.4byte	.LBB185
 8031 2540 18000000 		.4byte	.LBE185-.LBB185
 8032 2544 01       		.byte	0x1
 8033 2545 FF03     		.2byte	0x3ff
 8034 2547 6B250000 		.4byte	0x256b
 8035 254b 36       		.uleb128 0x36
 8036 254c 110F0000 		.4byte	0xf11
 8037 2550 06       		.uleb128 0x6
 8038 2551 03       		.byte	0x3
 8039 2552 30040000 		.4byte	.LC35
 8040 2556 9F       		.byte	0x9f
 8041 2557 33       		.uleb128 0x33
 8042 2558 4A000000 		.4byte	.LVL338
 8043 255c A6280000 		.4byte	0x28a6
ARM GAS  C:\Users\jo\AppData\Local\Temp\ccT06EVW.s 			page 145


 8044 2560 34       		.uleb128 0x34
 8045 2561 01       		.uleb128 0x1
 8046 2562 50       		.byte	0x50
 8047 2563 05       		.uleb128 0x5
 8048 2564 03       		.byte	0x3
 8049 2565 30040000 		.4byte	.LC35
 8050 2569 00       		.byte	0
 8051 256a 00       		.byte	0
 8052 256b 3E       		.uleb128 0x3e
 8053 256c 14000000 		.4byte	.LVL330
 8054 2570 80150000 		.4byte	0x1580
 8055 2574 7E250000 		.4byte	0x257e
 8056 2578 34       		.uleb128 0x34
 8057 2579 01       		.uleb128 0x1
 8058 257a 52       		.byte	0x52
 8059 257b 01       		.uleb128 0x1
 8060 257c 30       		.byte	0x30
 8061 257d 00       		.byte	0
 8062 257e 3E       		.uleb128 0x3e
 8063 257f 1E000000 		.4byte	.LVL331
 8064 2583 A91E0000 		.4byte	0x1ea9
 8065 2587 98250000 		.4byte	0x2598
 8066 258b 34       		.uleb128 0x34
 8067 258c 01       		.uleb128 0x1
 8068 258d 51       		.byte	0x51
 8069 258e 02       		.uleb128 0x2
 8070 258f 74       		.byte	0x74
 8071 2590 00       		.sleb128 0
 8072 2591 34       		.uleb128 0x34
 8073 2592 01       		.uleb128 0x1
 8074 2593 50       		.byte	0x50
 8075 2594 02       		.uleb128 0x2
 8076 2595 75       		.byte	0x75
 8077 2596 00       		.sleb128 0
 8078 2597 00       		.byte	0
 8079 2598 3E       		.uleb128 0x3e
 8080 2599 26000000 		.4byte	.LVL333
 8081 259d 27130000 		.4byte	0x1327
 8082 25a1 AC250000 		.4byte	0x25ac
 8083 25a5 34       		.uleb128 0x34
 8084 25a6 01       		.uleb128 0x1
 8085 25a7 50       		.byte	0x50
 8086 25a8 02       		.uleb128 0x2
 8087 25a9 74       		.byte	0x74
 8088 25aa 00       		.sleb128 0
 8089 25ab 00       		.byte	0
 8090 25ac 33       		.uleb128 0x33
 8091 25ad 44000000 		.4byte	.LVL337
 8092 25b1 52100000 		.4byte	0x1052
 8093 25b5 34       		.uleb128 0x34
 8094 25b6 01       		.uleb128 0x1
 8095 25b7 53       		.byte	0x53
 8096 25b8 03       		.uleb128 0x3
 8097 25b9 0A       		.byte	0xa
 8098 25ba FF03     		.2byte	0x3ff
 8099 25bc 34       		.uleb128 0x34
 8100 25bd 01       		.uleb128 0x1
ARM GAS  C:\Users\jo\AppData\Local\Temp\ccT06EVW.s 			page 146


 8101 25be 52       		.byte	0x52
 8102 25bf 05       		.uleb128 0x5
 8103 25c0 03       		.byte	0x3
 8104 25c1 30040000 		.4byte	.LC35
 8105 25c5 34       		.uleb128 0x34
 8106 25c6 01       		.uleb128 0x1
 8107 25c7 51       		.byte	0x51
 8108 25c8 05       		.uleb128 0x5
 8109 25c9 03       		.byte	0x3
 8110 25ca 00000000 		.4byte	.LC0
 8111 25ce 34       		.uleb128 0x34
 8112 25cf 02       		.uleb128 0x2
 8113 25d0 7D       		.byte	0x7d
 8114 25d1 00       		.sleb128 0
 8115 25d2 05       		.uleb128 0x5
 8116 25d3 03       		.byte	0x3
 8117 25d4 4C000000 		.4byte	.LC2
 8118 25d8 00       		.byte	0
 8119 25d9 00       		.byte	0
 8120 25da 31       		.uleb128 0x31
 8121 25db 360F0000 		.4byte	0xf36
 8122 25df 00000000 		.4byte	.LFB273
 8123 25e3 22000000 		.4byte	.LFE273-.LFB273
 8124 25e7 01       		.uleb128 0x1
 8125 25e8 9C       		.byte	0x9c
 8126 25e9 12260000 		.4byte	0x2612
 8127 25ed 35       		.uleb128 0x35
 8128 25ee 470F0000 		.4byte	0xf47
 8129 25f2 F6140000 		.4byte	.LLST102
 8130 25f6 35       		.uleb128 0x35
 8131 25f7 510F0000 		.4byte	0xf51
 8132 25fb 17150000 		.4byte	.LLST103
 8133 25ff 2F       		.uleb128 0x2f
 8134 2600 5D0F0000 		.4byte	0xf5d
 8135 2604 38150000 		.4byte	.LLST104
 8136 2608 2F       		.uleb128 0x2f
 8137 2609 690F0000 		.4byte	0xf69
 8138 260d 56150000 		.4byte	.LLST105
 8139 2611 00       		.byte	0
 8140 2612 39       		.uleb128 0x39
 8141 2613 43050000 		.4byte	.LASF273
 8142 2617 01       		.byte	0x1
 8143 2618 5004     		.2byte	0x450
 8144 261a 5A080000 		.4byte	0x85a
 8145 261e 00000000 		.4byte	.LFB274
 8146 2622 84000000 		.4byte	.LFE274-.LFB274
 8147 2626 01       		.uleb128 0x1
 8148 2627 9C       		.byte	0x9c
 8149 2628 EB260000 		.4byte	0x26eb
 8150 262c 3A       		.uleb128 0x3a
 8151 262d 7000     		.ascii	"p\000"
 8152 262f 01       		.byte	0x1
 8153 2630 5004     		.2byte	0x450
 8154 2632 CE090000 		.4byte	0x9ce
 8155 2636 74150000 		.4byte	.LLST106
 8156 263a 3B       		.uleb128 0x3b
 8157 263b 32030000 		.4byte	.LASF91
ARM GAS  C:\Users\jo\AppData\Local\Temp\ccT06EVW.s 			page 147


 8158 263f 01       		.byte	0x1
 8159 2640 5004     		.2byte	0x450
 8160 2642 5A080000 		.4byte	0x85a
 8161 2646 AE150000 		.4byte	.LLST107
 8162 264a 3A       		.uleb128 0x3a
 8163 264b 733200   		.ascii	"s2\000"
 8164 264e 01       		.byte	0x1
 8165 264f 5004     		.2byte	0x450
 8166 2651 DA0E0000 		.4byte	0xeda
 8167 2655 E8150000 		.4byte	.LLST108
 8168 2659 4B       		.uleb128 0x4b
 8169 265a 6E00     		.ascii	"n\000"
 8170 265c 01       		.byte	0x1
 8171 265d 5004     		.2byte	0x450
 8172 265f 5A080000 		.4byte	0x85a
 8173 2663 01       		.uleb128 0x1
 8174 2664 53       		.byte	0x53
 8175 2665 4C       		.uleb128 0x4c
 8176 2666 96090000 		.4byte	.LASF274
 8177 266a 01       		.byte	0x1
 8178 266b 5204     		.2byte	0x452
 8179 266d 5A080000 		.4byte	0x85a
 8180 2671 01       		.uleb128 0x1
 8181 2672 51       		.byte	0x51
 8182 2673 3F       		.uleb128 0x3f
 8183 2674 7100     		.ascii	"q\000"
 8184 2676 01       		.byte	0x1
 8185 2677 5304     		.2byte	0x453
 8186 2679 CE090000 		.4byte	0x9ce
 8187 267d 14160000 		.4byte	.LLST109
 8188 2681 2E       		.uleb128 0x2e
 8189 2682 68000000 		.4byte	.Ldebug_ranges0+0x68
 8190 2686 3F       		.uleb128 0x3f
 8191 2687 6900     		.ascii	"i\000"
 8192 2689 01       		.byte	0x1
 8193 268a 5C04     		.2byte	0x45c
 8194 268c 5A080000 		.4byte	0x85a
 8195 2690 6C160000 		.4byte	.LLST110
 8196 2694 2E       		.uleb128 0x2e
 8197 2695 80000000 		.4byte	.Ldebug_ranges0+0x80
 8198 2699 26       		.uleb128 0x26
 8199 269a 6100     		.ascii	"a\000"
 8200 269c 01       		.byte	0x1
 8201 269d 5E04     		.2byte	0x45e
 8202 269f 44080000 		.4byte	0x844
 8203 26a3 3F       		.uleb128 0x3f
 8204 26a4 6200     		.ascii	"b\000"
 8205 26a6 01       		.byte	0x1
 8206 26a7 5F04     		.2byte	0x45f
 8207 26a9 44080000 		.4byte	0x844
 8208 26ad BA160000 		.4byte	.LLST111
 8209 26b1 4D       		.uleb128 0x4d
 8210 26b2 360F0000 		.4byte	0xf36
 8211 26b6 36000000 		.4byte	.LBB189
 8212 26ba 98000000 		.4byte	.Ldebug_ranges0+0x98
 8213 26be 01       		.byte	0x1
 8214 26bf 5E04     		.2byte	0x45e
ARM GAS  C:\Users\jo\AppData\Local\Temp\ccT06EVW.s 			page 148


 8215 26c1 35       		.uleb128 0x35
 8216 26c2 510F0000 		.4byte	0xf51
 8217 26c6 DA160000 		.4byte	.LLST112
 8218 26ca 38       		.uleb128 0x38
 8219 26cb 470F0000 		.4byte	0xf47
 8220 26cf 2E       		.uleb128 0x2e
 8221 26d0 98000000 		.4byte	.Ldebug_ranges0+0x98
 8222 26d4 2F       		.uleb128 0x2f
 8223 26d5 5D0F0000 		.4byte	0xf5d
 8224 26d9 2F170000 		.4byte	.LLST113
 8225 26dd 2F       		.uleb128 0x2f
 8226 26de 690F0000 		.4byte	0xf69
 8227 26e2 58170000 		.4byte	.LLST114
 8228 26e6 00       		.byte	0
 8229 26e7 00       		.byte	0
 8230 26e8 00       		.byte	0
 8231 26e9 00       		.byte	0
 8232 26ea 00       		.byte	0
 8233 26eb 39       		.uleb128 0x39
 8234 26ec B4080000 		.4byte	.LASF275
 8235 26f0 01       		.byte	0x1
 8236 26f1 7404     		.2byte	0x474
 8237 26f3 5A080000 		.4byte	0x85a
 8238 26f7 00000000 		.4byte	.LFB275
 8239 26fb 44000000 		.4byte	.LFE275-.LFB275
 8240 26ff 01       		.uleb128 0x1
 8241 2700 9C       		.byte	0x9c
 8242 2701 98270000 		.4byte	0x2798
 8243 2705 3A       		.uleb128 0x3a
 8244 2706 7000     		.ascii	"p\000"
 8245 2708 01       		.byte	0x1
 8246 2709 7404     		.2byte	0x474
 8247 270b CE090000 		.4byte	0x9ce
 8248 270f 8C170000 		.4byte	.LLST115
 8249 2713 3A       		.uleb128 0x3a
 8250 2714 6D656D00 		.ascii	"mem\000"
 8251 2718 01       		.byte	0x1
 8252 2719 7404     		.2byte	0x474
 8253 271b DA0E0000 		.4byte	0xeda
 8254 271f C0170000 		.4byte	.LLST116
 8255 2723 3B       		.uleb128 0x3b
 8256 2724 040B0000 		.4byte	.LASF276
 8257 2728 01       		.byte	0x1
 8258 2729 7404     		.2byte	0x474
 8259 272b 5A080000 		.4byte	0x85a
 8260 272f F7170000 		.4byte	.LLST117
 8261 2733 3B       		.uleb128 0x3b
 8262 2734 4A010000 		.4byte	.LASF277
 8263 2738 01       		.byte	0x1
 8264 2739 7404     		.2byte	0x474
 8265 273b 5A080000 		.4byte	0x85a
 8266 273f 31180000 		.4byte	.LLST118
 8267 2743 4E       		.uleb128 0x4e
 8268 2744 6900     		.ascii	"i\000"
 8269 2746 01       		.byte	0x1
 8270 2747 7604     		.2byte	0x476
 8271 2749 5A080000 		.4byte	0x85a
ARM GAS  C:\Users\jo\AppData\Local\Temp\ccT06EVW.s 			page 149


 8272 274d 01       		.uleb128 0x1
 8273 274e 54       		.byte	0x54
 8274 274f 3F       		.uleb128 0x3f
 8275 2750 6D617800 		.ascii	"max\000"
 8276 2754 01       		.byte	0x1
 8277 2755 7704     		.2byte	0x477
 8278 2757 5A080000 		.4byte	0x85a
 8279 275b 52180000 		.4byte	.LLST119
 8280 275f 2E       		.uleb128 0x2e
 8281 2760 C0000000 		.4byte	.Ldebug_ranges0+0xc0
 8282 2764 3C       		.uleb128 0x3c
 8283 2765 740A0000 		.4byte	.LASF278
 8284 2769 01       		.byte	0x1
 8285 276a 7A04     		.2byte	0x47a
 8286 276c 5A080000 		.4byte	0x85a
 8287 2770 8C180000 		.4byte	.LLST120
 8288 2774 33       		.uleb128 0x33
 8289 2775 38000000 		.4byte	.LVL383
 8290 2779 12260000 		.4byte	0x2612
 8291 277d 34       		.uleb128 0x34
 8292 277e 01       		.uleb128 0x1
 8293 277f 53       		.byte	0x53
 8294 2780 02       		.uleb128 0x2
 8295 2781 76       		.byte	0x76
 8296 2782 00       		.sleb128 0
 8297 2783 34       		.uleb128 0x34
 8298 2784 01       		.uleb128 0x1
 8299 2785 52       		.byte	0x52
 8300 2786 02       		.uleb128 0x2
 8301 2787 78       		.byte	0x78
 8302 2788 00       		.sleb128 0
 8303 2789 34       		.uleb128 0x34
 8304 278a 01       		.uleb128 0x1
 8305 278b 51       		.byte	0x51
 8306 278c 02       		.uleb128 0x2
 8307 278d 74       		.byte	0x74
 8308 278e 00       		.sleb128 0
 8309 278f 34       		.uleb128 0x34
 8310 2790 01       		.uleb128 0x1
 8311 2791 50       		.byte	0x50
 8312 2792 02       		.uleb128 0x2
 8313 2793 77       		.byte	0x77
 8314 2794 00       		.sleb128 0
 8315 2795 00       		.byte	0
 8316 2796 00       		.byte	0
 8317 2797 00       		.byte	0
 8318 2798 39       		.uleb128 0x39
 8319 2799 89060000 		.4byte	.LASF279
 8320 279d 01       		.byte	0x1
 8321 279e 9004     		.2byte	0x490
 8322 27a0 5A080000 		.4byte	0x85a
 8323 27a4 00000000 		.4byte	.LFB276
 8324 27a8 44000000 		.4byte	.LFE276-.LFB276
 8325 27ac 01       		.uleb128 0x1
 8326 27ad 9C       		.byte	0x9c
 8327 27ae 12280000 		.4byte	0x2812
 8328 27b2 3A       		.uleb128 0x3a
ARM GAS  C:\Users\jo\AppData\Local\Temp\ccT06EVW.s 			page 150


 8329 27b3 7000     		.ascii	"p\000"
 8330 27b5 01       		.byte	0x1
 8331 27b6 9004     		.2byte	0x490
 8332 27b8 CE090000 		.4byte	0x9ce
 8333 27bc AA180000 		.4byte	.LLST121
 8334 27c0 3B       		.uleb128 0x3b
 8335 27c1 DA020000 		.4byte	.LASF280
 8336 27c5 01       		.byte	0x1
 8337 27c6 9004     		.2byte	0x490
 8338 27c8 18060000 		.4byte	0x618
 8339 27cc 13190000 		.4byte	.LLST122
 8340 27d0 3C       		.uleb128 0x3c
 8341 27d1 BD070000 		.4byte	.LASF281
 8342 27d5 01       		.byte	0x1
 8343 27d6 9204     		.2byte	0x492
 8344 27d8 2C000000 		.4byte	0x2c
 8345 27dc 63190000 		.4byte	.LLST123
 8346 27e0 3E       		.uleb128 0x3e
 8347 27e1 24000000 		.4byte	.LVL389
 8348 27e5 3F290000 		.4byte	0x293f
 8349 27e9 F4270000 		.4byte	0x27f4
 8350 27ed 34       		.uleb128 0x34
 8351 27ee 01       		.uleb128 0x1
 8352 27ef 50       		.byte	0x50
 8353 27f0 02       		.uleb128 0x2
 8354 27f1 74       		.byte	0x74
 8355 27f2 00       		.sleb128 0
 8356 27f3 00       		.byte	0
 8357 27f4 4A       		.uleb128 0x4a
 8358 27f5 44000000 		.4byte	.LVL396
 8359 27f9 EB260000 		.4byte	0x26eb
 8360 27fd 34       		.uleb128 0x34
 8361 27fe 01       		.uleb128 0x1
 8362 27ff 53       		.byte	0x53
 8363 2800 01       		.uleb128 0x1
 8364 2801 30       		.byte	0x30
 8365 2802 34       		.uleb128 0x34
 8366 2803 01       		.uleb128 0x1
 8367 2804 51       		.byte	0x51
 8368 2805 03       		.uleb128 0x3
 8369 2806 F3       		.byte	0xf3
 8370 2807 01       		.uleb128 0x1
 8371 2808 51       		.byte	0x51
 8372 2809 34       		.uleb128 0x34
 8373 280a 01       		.uleb128 0x1
 8374 280b 50       		.byte	0x50
 8375 280c 03       		.uleb128 0x3
 8376 280d F3       		.byte	0xf3
 8377 280e 01       		.uleb128 0x1
 8378 280f 50       		.byte	0x50
 8379 2810 00       		.byte	0
 8380 2811 00       		.byte	0
 8381 2812 4F       		.uleb128 0x4f
 8382 2813 2A000000 		.4byte	.LASF282
 8383 2817 1B       		.byte	0x1b
 8384 2818 A706     		.2byte	0x6a7
 8385 281a 10010000 		.4byte	0x110
ARM GAS  C:\Users\jo\AppData\Local\Temp\ccT06EVW.s 			page 151


 8386 281e 50       		.uleb128 0x50
 8387 281f 636800   		.ascii	"ch\000"
 8388 2822 09       		.byte	0x9
 8389 2823 EB01     		.2byte	0x1eb
 8390 2825 0B040000 		.4byte	0x40b
 8391 2829 51       		.uleb128 0x51
 8392 282a CC0D0000 		.4byte	.LASF283
 8393 282e 12       		.byte	0x12
 8394 282f 3B       		.byte	0x3b
 8395 2830 2E080000 		.4byte	0x82e
 8396 2834 4F       		.uleb128 0x4f
 8397 2835 8A0D0000 		.4byte	.LASF284
 8398 2839 19       		.byte	0x19
 8399 283a 3D01     		.2byte	0x13d
 8400 283c 630A0000 		.4byte	0xa63
 8401 2840 52       		.uleb128 0x52
 8402 2841 09060000 		.4byte	.LASF285
 8403 2845 01       		.byte	0x1
 8404 2846 67       		.byte	0x67
 8405 2847 51280000 		.4byte	0x2851
 8406 284b 05       		.uleb128 0x5
 8407 284c 03       		.byte	0x3
 8408 284d 00000000 		.4byte	pbuf_free_ooseq_pending
 8409 2851 05       		.uleb128 0x5
 8410 2852 44080000 		.4byte	0x844
 8411 2856 53       		.uleb128 0x53
 8412 2857 630D0000 		.4byte	.LASF287
 8413 285b 19       		.byte	0x19
 8414 285c A301     		.2byte	0x1a3
 8415 285e 68280000 		.4byte	0x2868
 8416 2862 0D       		.uleb128 0xd
 8417 2863 610E0000 		.4byte	0xe61
 8418 2867 00       		.byte	0
 8419 2868 54       		.uleb128 0x54
 8420 2869 12040000 		.4byte	.LASF289
 8421 286d 1A       		.byte	0x1a
 8422 286e 65       		.byte	0x65
 8423 286f 0A090000 		.4byte	0x90a
 8424 2873 87280000 		.4byte	0x2887
 8425 2877 0D       		.uleb128 0xd
 8426 2878 E10E0000 		.4byte	0xee1
 8427 287c 0D       		.uleb128 0xd
 8428 287d 3C030000 		.4byte	0x33c
 8429 2881 0D       		.uleb128 0xd
 8430 2882 44080000 		.4byte	0x844
 8431 2886 00       		.byte	0
 8432 2887 54       		.uleb128 0x54
 8433 2888 64000000 		.4byte	.LASF290
 8434 288c 02       		.byte	0x2
 8435 288d 28       		.byte	0x28
 8436 288e 25000000 		.4byte	0x25
 8437 2892 A6280000 		.4byte	0x28a6
 8438 2896 0D       		.uleb128 0xd
 8439 2897 B10F0000 		.4byte	0xfb1
 8440 289b 0D       		.uleb128 0xd
 8441 289c 18060000 		.4byte	0x618
 8442 28a0 0D       		.uleb128 0xd
ARM GAS  C:\Users\jo\AppData\Local\Temp\ccT06EVW.s 			page 152


 8443 28a1 39080000 		.4byte	0x839
 8444 28a5 00       		.byte	0
 8445 28a6 55       		.uleb128 0x55
 8446 28a7 650B0000 		.4byte	.LASF291
 8447 28ab 1C       		.byte	0x1c
 8448 28ac E6       		.byte	0xe6
 8449 28ad B7280000 		.4byte	0x28b7
 8450 28b1 0D       		.uleb128 0xd
 8451 28b2 18060000 		.4byte	0x618
 8452 28b6 00       		.byte	0
 8453 28b7 55       		.uleb128 0x55
 8454 28b8 37000000 		.4byte	.LASF292
 8455 28bc 13       		.byte	0x13
 8456 28bd 5D       		.byte	0x5d
 8457 28be C8280000 		.4byte	0x28c8
 8458 28c2 0D       		.uleb128 0xd
 8459 28c3 3C030000 		.4byte	0x33c
 8460 28c7 00       		.byte	0
 8461 28c8 55       		.uleb128 0x55
 8462 28c9 A5030000 		.4byte	.LASF293
 8463 28cd 14       		.byte	0x14
 8464 28ce 6C       		.byte	0x6c
 8465 28cf DE280000 		.4byte	0x28de
 8466 28d3 0D       		.uleb128 0xd
 8467 28d4 FF080000 		.4byte	0x8ff
 8468 28d8 0D       		.uleb128 0xd
 8469 28d9 3C030000 		.4byte	0x33c
 8470 28dd 00       		.byte	0
 8471 28de 54       		.uleb128 0x54
 8472 28df 4C060000 		.4byte	.LASF294
 8473 28e3 14       		.byte	0x14
 8474 28e4 6A       		.byte	0x6a
 8475 28e5 3C030000 		.4byte	0x33c
 8476 28e9 F3280000 		.4byte	0x28f3
 8477 28ed 0D       		.uleb128 0xd
 8478 28ee FF080000 		.4byte	0x8ff
 8479 28f2 00       		.byte	0
 8480 28f3 54       		.uleb128 0x54
 8481 28f4 F7030000 		.4byte	.LASF295
 8482 28f8 13       		.byte	0x13
 8483 28f9 5B       		.byte	0x5b
 8484 28fa 3C030000 		.4byte	0x33c
 8485 28fe 08290000 		.4byte	0x2908
 8486 2902 0D       		.uleb128 0xd
 8487 2903 91080000 		.4byte	0x891
 8488 2907 00       		.byte	0
 8489 2908 54       		.uleb128 0x54
 8490 2909 78070000 		.4byte	.LASF296
 8491 290d 13       		.byte	0x13
 8492 290e 59       		.byte	0x59
 8493 290f 3C030000 		.4byte	0x33c
 8494 2913 22290000 		.4byte	0x2922
 8495 2917 0D       		.uleb128 0xd
 8496 2918 3C030000 		.4byte	0x33c
 8497 291c 0D       		.uleb128 0xd
 8498 291d 91080000 		.4byte	0x891
 8499 2921 00       		.byte	0
ARM GAS  C:\Users\jo\AppData\Local\Temp\ccT06EVW.s 			page 153


 8500 2922 56       		.uleb128 0x56
 8501 2923 080D0000 		.4byte	.LASF297
 8502 2927 3C030000 		.4byte	0x33c
 8503 292b 3F290000 		.4byte	0x293f
 8504 292f 0D       		.uleb128 0xd
 8505 2930 3C030000 		.4byte	0x33c
 8506 2934 0D       		.uleb128 0xd
 8507 2935 DA0E0000 		.4byte	0xeda
 8508 2939 0D       		.uleb128 0xd
 8509 293a 72040000 		.4byte	0x472
 8510 293e 00       		.byte	0
 8511 293f 57       		.uleb128 0x57
 8512 2940 77000000 		.4byte	.LASF298
 8513 2944 1D       		.byte	0x1d
 8514 2945 21       		.byte	0x21
 8515 2946 2C000000 		.4byte	0x2c
 8516 294a 0D       		.uleb128 0xd
 8517 294b 18060000 		.4byte	0x618
 8518 294f 00       		.byte	0
 8519 2950 00       		.byte	0
 8520              		.section	.debug_abbrev,"",%progbits
 8521              	.Ldebug_abbrev0:
 8522 0000 01       		.uleb128 0x1
 8523 0001 11       		.uleb128 0x11
 8524 0002 01       		.byte	0x1
 8525 0003 25       		.uleb128 0x25
 8526 0004 0E       		.uleb128 0xe
 8527 0005 13       		.uleb128 0x13
 8528 0006 0B       		.uleb128 0xb
 8529 0007 03       		.uleb128 0x3
 8530 0008 0E       		.uleb128 0xe
 8531 0009 1B       		.uleb128 0x1b
 8532 000a 0E       		.uleb128 0xe
 8533 000b 55       		.uleb128 0x55
 8534 000c 17       		.uleb128 0x17
 8535 000d 11       		.uleb128 0x11
 8536 000e 01       		.uleb128 0x1
 8537 000f 10       		.uleb128 0x10
 8538 0010 17       		.uleb128 0x17
 8539 0011 00       		.byte	0
 8540 0012 00       		.byte	0
 8541 0013 02       		.uleb128 0x2
 8542 0014 24       		.uleb128 0x24
 8543 0015 00       		.byte	0
 8544 0016 0B       		.uleb128 0xb
 8545 0017 0B       		.uleb128 0xb
 8546 0018 3E       		.uleb128 0x3e
 8547 0019 0B       		.uleb128 0xb
 8548 001a 03       		.uleb128 0x3
 8549 001b 08       		.uleb128 0x8
 8550 001c 00       		.byte	0
 8551 001d 00       		.byte	0
 8552 001e 03       		.uleb128 0x3
 8553 001f 16       		.uleb128 0x16
 8554 0020 00       		.byte	0
 8555 0021 03       		.uleb128 0x3
 8556 0022 0E       		.uleb128 0xe
ARM GAS  C:\Users\jo\AppData\Local\Temp\ccT06EVW.s 			page 154


 8557 0023 3A       		.uleb128 0x3a
 8558 0024 0B       		.uleb128 0xb
 8559 0025 3B       		.uleb128 0x3b
 8560 0026 0B       		.uleb128 0xb
 8561 0027 49       		.uleb128 0x49
 8562 0028 13       		.uleb128 0x13
 8563 0029 00       		.byte	0
 8564 002a 00       		.byte	0
 8565 002b 04       		.uleb128 0x4
 8566 002c 24       		.uleb128 0x24
 8567 002d 00       		.byte	0
 8568 002e 0B       		.uleb128 0xb
 8569 002f 0B       		.uleb128 0xb
 8570 0030 3E       		.uleb128 0x3e
 8571 0031 0B       		.uleb128 0xb
 8572 0032 03       		.uleb128 0x3
 8573 0033 0E       		.uleb128 0xe
 8574 0034 00       		.byte	0
 8575 0035 00       		.byte	0
 8576 0036 05       		.uleb128 0x5
 8577 0037 35       		.uleb128 0x35
 8578 0038 00       		.byte	0
 8579 0039 49       		.uleb128 0x49
 8580 003a 13       		.uleb128 0x13
 8581 003b 00       		.byte	0
 8582 003c 00       		.byte	0
 8583 003d 06       		.uleb128 0x6
 8584 003e 13       		.uleb128 0x13
 8585 003f 01       		.byte	0x1
 8586 0040 03       		.uleb128 0x3
 8587 0041 0E       		.uleb128 0xe
 8588 0042 0B       		.uleb128 0xb
 8589 0043 0B       		.uleb128 0xb
 8590 0044 3A       		.uleb128 0x3a
 8591 0045 0B       		.uleb128 0xb
 8592 0046 3B       		.uleb128 0x3b
 8593 0047 0B       		.uleb128 0xb
 8594 0048 01       		.uleb128 0x1
 8595 0049 13       		.uleb128 0x13
 8596 004a 00       		.byte	0
 8597 004b 00       		.byte	0
 8598 004c 07       		.uleb128 0x7
 8599 004d 0D       		.uleb128 0xd
 8600 004e 00       		.byte	0
 8601 004f 03       		.uleb128 0x3
 8602 0050 0E       		.uleb128 0xe
 8603 0051 3A       		.uleb128 0x3a
 8604 0052 0B       		.uleb128 0xb
 8605 0053 3B       		.uleb128 0x3b
 8606 0054 0B       		.uleb128 0xb
 8607 0055 49       		.uleb128 0x49
 8608 0056 13       		.uleb128 0x13
 8609 0057 38       		.uleb128 0x38
 8610 0058 0B       		.uleb128 0xb
 8611 0059 00       		.byte	0
 8612 005a 00       		.byte	0
 8613 005b 08       		.uleb128 0x8
ARM GAS  C:\Users\jo\AppData\Local\Temp\ccT06EVW.s 			page 155


 8614 005c 0D       		.uleb128 0xd
 8615 005d 00       		.byte	0
 8616 005e 03       		.uleb128 0x3
 8617 005f 08       		.uleb128 0x8
 8618 0060 3A       		.uleb128 0x3a
 8619 0061 0B       		.uleb128 0xb
 8620 0062 3B       		.uleb128 0x3b
 8621 0063 05       		.uleb128 0x5
 8622 0064 49       		.uleb128 0x49
 8623 0065 13       		.uleb128 0x13
 8624 0066 38       		.uleb128 0x38
 8625 0067 0B       		.uleb128 0xb
 8626 0068 00       		.byte	0
 8627 0069 00       		.byte	0
 8628 006a 09       		.uleb128 0x9
 8629 006b 0D       		.uleb128 0xd
 8630 006c 00       		.byte	0
 8631 006d 03       		.uleb128 0x3
 8632 006e 0E       		.uleb128 0xe
 8633 006f 3A       		.uleb128 0x3a
 8634 0070 0B       		.uleb128 0xb
 8635 0071 3B       		.uleb128 0x3b
 8636 0072 05       		.uleb128 0x5
 8637 0073 49       		.uleb128 0x49
 8638 0074 13       		.uleb128 0x13
 8639 0075 38       		.uleb128 0x38
 8640 0076 0B       		.uleb128 0xb
 8641 0077 00       		.byte	0
 8642 0078 00       		.byte	0
 8643 0079 0A       		.uleb128 0xa
 8644 007a 13       		.uleb128 0x13
 8645 007b 01       		.byte	0x1
 8646 007c 03       		.uleb128 0x3
 8647 007d 0E       		.uleb128 0xe
 8648 007e 0B       		.uleb128 0xb
 8649 007f 0B       		.uleb128 0xb
 8650 0080 3A       		.uleb128 0x3a
 8651 0081 0B       		.uleb128 0xb
 8652 0082 3B       		.uleb128 0x3b
 8653 0083 05       		.uleb128 0x5
 8654 0084 01       		.uleb128 0x1
 8655 0085 13       		.uleb128 0x13
 8656 0086 00       		.byte	0
 8657 0087 00       		.byte	0
 8658 0088 0B       		.uleb128 0xb
 8659 0089 0F       		.uleb128 0xf
 8660 008a 00       		.byte	0
 8661 008b 0B       		.uleb128 0xb
 8662 008c 0B       		.uleb128 0xb
 8663 008d 49       		.uleb128 0x49
 8664 008e 13       		.uleb128 0x13
 8665 008f 00       		.byte	0
 8666 0090 00       		.byte	0
 8667 0091 0C       		.uleb128 0xc
 8668 0092 15       		.uleb128 0x15
 8669 0093 01       		.byte	0x1
 8670 0094 27       		.uleb128 0x27
ARM GAS  C:\Users\jo\AppData\Local\Temp\ccT06EVW.s 			page 156


 8671 0095 19       		.uleb128 0x19
 8672 0096 01       		.uleb128 0x1
 8673 0097 13       		.uleb128 0x13
 8674 0098 00       		.byte	0
 8675 0099 00       		.byte	0
 8676 009a 0D       		.uleb128 0xd
 8677 009b 05       		.uleb128 0x5
 8678 009c 00       		.byte	0
 8679 009d 49       		.uleb128 0x49
 8680 009e 13       		.uleb128 0x13
 8681 009f 00       		.byte	0
 8682 00a0 00       		.byte	0
 8683 00a1 0E       		.uleb128 0xe
 8684 00a2 0F       		.uleb128 0xf
 8685 00a3 00       		.byte	0
 8686 00a4 0B       		.uleb128 0xb
 8687 00a5 0B       		.uleb128 0xb
 8688 00a6 00       		.byte	0
 8689 00a7 00       		.byte	0
 8690 00a8 0F       		.uleb128 0xf
 8691 00a9 13       		.uleb128 0x13
 8692 00aa 01       		.byte	0x1
 8693 00ab 03       		.uleb128 0x3
 8694 00ac 0E       		.uleb128 0xe
 8695 00ad 0B       		.uleb128 0xb
 8696 00ae 05       		.uleb128 0x5
 8697 00af 3A       		.uleb128 0x3a
 8698 00b0 0B       		.uleb128 0xb
 8699 00b1 3B       		.uleb128 0x3b
 8700 00b2 05       		.uleb128 0x5
 8701 00b3 01       		.uleb128 0x1
 8702 00b4 13       		.uleb128 0x13
 8703 00b5 00       		.byte	0
 8704 00b6 00       		.byte	0
 8705 00b7 10       		.uleb128 0x10
 8706 00b8 0D       		.uleb128 0xd
 8707 00b9 00       		.byte	0
 8708 00ba 03       		.uleb128 0x3
 8709 00bb 08       		.uleb128 0x8
 8710 00bc 3A       		.uleb128 0x3a
 8711 00bd 0B       		.uleb128 0xb
 8712 00be 3B       		.uleb128 0x3b
 8713 00bf 0B       		.uleb128 0xb
 8714 00c0 49       		.uleb128 0x49
 8715 00c1 13       		.uleb128 0x13
 8716 00c2 38       		.uleb128 0x38
 8717 00c3 0B       		.uleb128 0xb
 8718 00c4 00       		.byte	0
 8719 00c5 00       		.byte	0
 8720 00c6 11       		.uleb128 0x11
 8721 00c7 0D       		.uleb128 0xd
 8722 00c8 00       		.byte	0
 8723 00c9 03       		.uleb128 0x3
 8724 00ca 0E       		.uleb128 0xe
 8725 00cb 49       		.uleb128 0x49
 8726 00cc 13       		.uleb128 0x13
 8727 00cd 38       		.uleb128 0x38
ARM GAS  C:\Users\jo\AppData\Local\Temp\ccT06EVW.s 			page 157


 8728 00ce 0B       		.uleb128 0xb
 8729 00cf 34       		.uleb128 0x34
 8730 00d0 19       		.uleb128 0x19
 8731 00d1 00       		.byte	0
 8732 00d2 00       		.byte	0
 8733 00d3 12       		.uleb128 0x12
 8734 00d4 26       		.uleb128 0x26
 8735 00d5 00       		.byte	0
 8736 00d6 49       		.uleb128 0x49
 8737 00d7 13       		.uleb128 0x13
 8738 00d8 00       		.byte	0
 8739 00d9 00       		.byte	0
 8740 00da 13       		.uleb128 0x13
 8741 00db 13       		.uleb128 0x13
 8742 00dc 01       		.byte	0x1
 8743 00dd 0B       		.uleb128 0xb
 8744 00de 0B       		.uleb128 0xb
 8745 00df 3A       		.uleb128 0x3a
 8746 00e0 0B       		.uleb128 0xb
 8747 00e1 3B       		.uleb128 0x3b
 8748 00e2 0B       		.uleb128 0xb
 8749 00e3 01       		.uleb128 0x1
 8750 00e4 13       		.uleb128 0x13
 8751 00e5 00       		.byte	0
 8752 00e6 00       		.byte	0
 8753 00e7 14       		.uleb128 0x14
 8754 00e8 17       		.uleb128 0x17
 8755 00e9 01       		.byte	0x1
 8756 00ea 0B       		.uleb128 0xb
 8757 00eb 0B       		.uleb128 0xb
 8758 00ec 3A       		.uleb128 0x3a
 8759 00ed 0B       		.uleb128 0xb
 8760 00ee 3B       		.uleb128 0x3b
 8761 00ef 0B       		.uleb128 0xb
 8762 00f0 01       		.uleb128 0x1
 8763 00f1 13       		.uleb128 0x13
 8764 00f2 00       		.byte	0
 8765 00f3 00       		.byte	0
 8766 00f4 15       		.uleb128 0x15
 8767 00f5 0D       		.uleb128 0xd
 8768 00f6 00       		.byte	0
 8769 00f7 03       		.uleb128 0x3
 8770 00f8 0E       		.uleb128 0xe
 8771 00f9 3A       		.uleb128 0x3a
 8772 00fa 0B       		.uleb128 0xb
 8773 00fb 3B       		.uleb128 0x3b
 8774 00fc 0B       		.uleb128 0xb
 8775 00fd 49       		.uleb128 0x49
 8776 00fe 13       		.uleb128 0x13
 8777 00ff 00       		.byte	0
 8778 0100 00       		.byte	0
 8779 0101 16       		.uleb128 0x16
 8780 0102 0D       		.uleb128 0xd
 8781 0103 00       		.byte	0
 8782 0104 03       		.uleb128 0x3
 8783 0105 0E       		.uleb128 0xe
 8784 0106 3A       		.uleb128 0x3a
ARM GAS  C:\Users\jo\AppData\Local\Temp\ccT06EVW.s 			page 158


 8785 0107 0B       		.uleb128 0xb
 8786 0108 3B       		.uleb128 0x3b
 8787 0109 05       		.uleb128 0x5
 8788 010a 49       		.uleb128 0x49
 8789 010b 13       		.uleb128 0x13
 8790 010c 00       		.byte	0
 8791 010d 00       		.byte	0
 8792 010e 17       		.uleb128 0x17
 8793 010f 01       		.uleb128 0x1
 8794 0110 01       		.byte	0x1
 8795 0111 49       		.uleb128 0x49
 8796 0112 13       		.uleb128 0x13
 8797 0113 01       		.uleb128 0x1
 8798 0114 13       		.uleb128 0x13
 8799 0115 00       		.byte	0
 8800 0116 00       		.byte	0
 8801 0117 18       		.uleb128 0x18
 8802 0118 21       		.uleb128 0x21
 8803 0119 00       		.byte	0
 8804 011a 49       		.uleb128 0x49
 8805 011b 13       		.uleb128 0x13
 8806 011c 2F       		.uleb128 0x2f
 8807 011d 0B       		.uleb128 0xb
 8808 011e 00       		.byte	0
 8809 011f 00       		.byte	0
 8810 0120 19       		.uleb128 0x19
 8811 0121 15       		.uleb128 0x15
 8812 0122 01       		.byte	0x1
 8813 0123 27       		.uleb128 0x27
 8814 0124 19       		.uleb128 0x19
 8815 0125 49       		.uleb128 0x49
 8816 0126 13       		.uleb128 0x13
 8817 0127 01       		.uleb128 0x1
 8818 0128 13       		.uleb128 0x13
 8819 0129 00       		.byte	0
 8820 012a 00       		.byte	0
 8821 012b 1A       		.uleb128 0x1a
 8822 012c 04       		.uleb128 0x4
 8823 012d 01       		.byte	0x1
 8824 012e 0B       		.uleb128 0xb
 8825 012f 0B       		.uleb128 0xb
 8826 0130 3A       		.uleb128 0x3a
 8827 0131 0B       		.uleb128 0xb
 8828 0132 3B       		.uleb128 0x3b
 8829 0133 0B       		.uleb128 0xb
 8830 0134 01       		.uleb128 0x1
 8831 0135 13       		.uleb128 0x13
 8832 0136 00       		.byte	0
 8833 0137 00       		.byte	0
 8834 0138 1B       		.uleb128 0x1b
 8835 0139 28       		.uleb128 0x28
 8836 013a 00       		.byte	0
 8837 013b 03       		.uleb128 0x3
 8838 013c 0E       		.uleb128 0xe
 8839 013d 1C       		.uleb128 0x1c
 8840 013e 0D       		.uleb128 0xd
 8841 013f 00       		.byte	0
ARM GAS  C:\Users\jo\AppData\Local\Temp\ccT06EVW.s 			page 159


 8842 0140 00       		.byte	0
 8843 0141 1C       		.uleb128 0x1c
 8844 0142 04       		.uleb128 0x4
 8845 0143 01       		.byte	0x1
 8846 0144 03       		.uleb128 0x3
 8847 0145 0E       		.uleb128 0xe
 8848 0146 0B       		.uleb128 0xb
 8849 0147 0B       		.uleb128 0xb
 8850 0148 3A       		.uleb128 0x3a
 8851 0149 0B       		.uleb128 0xb
 8852 014a 3B       		.uleb128 0x3b
 8853 014b 0B       		.uleb128 0xb
 8854 014c 01       		.uleb128 0x1
 8855 014d 13       		.uleb128 0x13
 8856 014e 00       		.byte	0
 8857 014f 00       		.byte	0
 8858 0150 1D       		.uleb128 0x1d
 8859 0151 26       		.uleb128 0x26
 8860 0152 00       		.byte	0
 8861 0153 00       		.byte	0
 8862 0154 00       		.byte	0
 8863 0155 1E       		.uleb128 0x1e
 8864 0156 2E       		.uleb128 0x2e
 8865 0157 01       		.byte	0x1
 8866 0158 03       		.uleb128 0x3
 8867 0159 0E       		.uleb128 0xe
 8868 015a 3A       		.uleb128 0x3a
 8869 015b 0B       		.uleb128 0xb
 8870 015c 3B       		.uleb128 0x3b
 8871 015d 0B       		.uleb128 0xb
 8872 015e 27       		.uleb128 0x27
 8873 015f 19       		.uleb128 0x19
 8874 0160 20       		.uleb128 0x20
 8875 0161 0B       		.uleb128 0xb
 8876 0162 01       		.uleb128 0x1
 8877 0163 13       		.uleb128 0x13
 8878 0164 00       		.byte	0
 8879 0165 00       		.byte	0
 8880 0166 1F       		.uleb128 0x1f
 8881 0167 34       		.uleb128 0x34
 8882 0168 00       		.byte	0
 8883 0169 03       		.uleb128 0x3
 8884 016a 0E       		.uleb128 0xe
 8885 016b 3A       		.uleb128 0x3a
 8886 016c 0B       		.uleb128 0xb
 8887 016d 3B       		.uleb128 0x3b
 8888 016e 0B       		.uleb128 0xb
 8889 016f 49       		.uleb128 0x49
 8890 0170 13       		.uleb128 0x13
 8891 0171 00       		.byte	0
 8892 0172 00       		.byte	0
 8893 0173 20       		.uleb128 0x20
 8894 0174 2E       		.uleb128 0x2e
 8895 0175 01       		.byte	0x1
 8896 0176 03       		.uleb128 0x3
 8897 0177 0E       		.uleb128 0xe
 8898 0178 3A       		.uleb128 0x3a
ARM GAS  C:\Users\jo\AppData\Local\Temp\ccT06EVW.s 			page 160


 8899 0179 0B       		.uleb128 0xb
 8900 017a 3B       		.uleb128 0x3b
 8901 017b 05       		.uleb128 0x5
 8902 017c 27       		.uleb128 0x27
 8903 017d 19       		.uleb128 0x19
 8904 017e 20       		.uleb128 0x20
 8905 017f 0B       		.uleb128 0xb
 8906 0180 01       		.uleb128 0x1
 8907 0181 13       		.uleb128 0x13
 8908 0182 00       		.byte	0
 8909 0183 00       		.byte	0
 8910 0184 21       		.uleb128 0x21
 8911 0185 05       		.uleb128 0x5
 8912 0186 00       		.byte	0
 8913 0187 03       		.uleb128 0x3
 8914 0188 0E       		.uleb128 0xe
 8915 0189 3A       		.uleb128 0x3a
 8916 018a 0B       		.uleb128 0xb
 8917 018b 3B       		.uleb128 0x3b
 8918 018c 05       		.uleb128 0x5
 8919 018d 49       		.uleb128 0x49
 8920 018e 13       		.uleb128 0x13
 8921 018f 00       		.byte	0
 8922 0190 00       		.byte	0
 8923 0191 22       		.uleb128 0x22
 8924 0192 2E       		.uleb128 0x2e
 8925 0193 01       		.byte	0x1
 8926 0194 3F       		.uleb128 0x3f
 8927 0195 19       		.uleb128 0x19
 8928 0196 03       		.uleb128 0x3
 8929 0197 0E       		.uleb128 0xe
 8930 0198 3A       		.uleb128 0x3a
 8931 0199 0B       		.uleb128 0xb
 8932 019a 3B       		.uleb128 0x3b
 8933 019b 05       		.uleb128 0x5
 8934 019c 27       		.uleb128 0x27
 8935 019d 19       		.uleb128 0x19
 8936 019e 20       		.uleb128 0x20
 8937 019f 0B       		.uleb128 0xb
 8938 01a0 01       		.uleb128 0x1
 8939 01a1 13       		.uleb128 0x13
 8940 01a2 00       		.byte	0
 8941 01a3 00       		.byte	0
 8942 01a4 23       		.uleb128 0x23
 8943 01a5 05       		.uleb128 0x5
 8944 01a6 00       		.byte	0
 8945 01a7 03       		.uleb128 0x3
 8946 01a8 08       		.uleb128 0x8
 8947 01a9 3A       		.uleb128 0x3a
 8948 01aa 0B       		.uleb128 0xb
 8949 01ab 3B       		.uleb128 0x3b
 8950 01ac 05       		.uleb128 0x5
 8951 01ad 49       		.uleb128 0x49
 8952 01ae 13       		.uleb128 0x13
 8953 01af 00       		.byte	0
 8954 01b0 00       		.byte	0
 8955 01b1 24       		.uleb128 0x24
ARM GAS  C:\Users\jo\AppData\Local\Temp\ccT06EVW.s 			page 161


 8956 01b2 2E       		.uleb128 0x2e
 8957 01b3 01       		.byte	0x1
 8958 01b4 3F       		.uleb128 0x3f
 8959 01b5 19       		.uleb128 0x19
 8960 01b6 03       		.uleb128 0x3
 8961 01b7 0E       		.uleb128 0xe
 8962 01b8 3A       		.uleb128 0x3a
 8963 01b9 0B       		.uleb128 0xb
 8964 01ba 3B       		.uleb128 0x3b
 8965 01bb 05       		.uleb128 0x5
 8966 01bc 27       		.uleb128 0x27
 8967 01bd 19       		.uleb128 0x19
 8968 01be 49       		.uleb128 0x49
 8969 01bf 13       		.uleb128 0x13
 8970 01c0 20       		.uleb128 0x20
 8971 01c1 0B       		.uleb128 0xb
 8972 01c2 01       		.uleb128 0x1
 8973 01c3 13       		.uleb128 0x13
 8974 01c4 00       		.byte	0
 8975 01c5 00       		.byte	0
 8976 01c6 25       		.uleb128 0x25
 8977 01c7 34       		.uleb128 0x34
 8978 01c8 00       		.byte	0
 8979 01c9 03       		.uleb128 0x3
 8980 01ca 0E       		.uleb128 0xe
 8981 01cb 3A       		.uleb128 0x3a
 8982 01cc 0B       		.uleb128 0xb
 8983 01cd 3B       		.uleb128 0x3b
 8984 01ce 05       		.uleb128 0x5
 8985 01cf 49       		.uleb128 0x49
 8986 01d0 13       		.uleb128 0x13
 8987 01d1 00       		.byte	0
 8988 01d2 00       		.byte	0
 8989 01d3 26       		.uleb128 0x26
 8990 01d4 34       		.uleb128 0x34
 8991 01d5 00       		.byte	0
 8992 01d6 03       		.uleb128 0x3
 8993 01d7 08       		.uleb128 0x8
 8994 01d8 3A       		.uleb128 0x3a
 8995 01d9 0B       		.uleb128 0xb
 8996 01da 3B       		.uleb128 0x3b
 8997 01db 05       		.uleb128 0x5
 8998 01dc 49       		.uleb128 0x49
 8999 01dd 13       		.uleb128 0x13
 9000 01de 00       		.byte	0
 9001 01df 00       		.byte	0
 9002 01e0 27       		.uleb128 0x27
 9003 01e1 2E       		.uleb128 0x2e
 9004 01e2 01       		.byte	0x1
 9005 01e3 03       		.uleb128 0x3
 9006 01e4 0E       		.uleb128 0xe
 9007 01e5 3A       		.uleb128 0x3a
 9008 01e6 0B       		.uleb128 0xb
 9009 01e7 3B       		.uleb128 0x3b
 9010 01e8 0B       		.uleb128 0xb
 9011 01e9 27       		.uleb128 0x27
 9012 01ea 19       		.uleb128 0x19
ARM GAS  C:\Users\jo\AppData\Local\Temp\ccT06EVW.s 			page 162


 9013 01eb 49       		.uleb128 0x49
 9014 01ec 13       		.uleb128 0x13
 9015 01ed 20       		.uleb128 0x20
 9016 01ee 0B       		.uleb128 0xb
 9017 01ef 01       		.uleb128 0x1
 9018 01f0 13       		.uleb128 0x13
 9019 01f1 00       		.byte	0
 9020 01f2 00       		.byte	0
 9021 01f3 28       		.uleb128 0x28
 9022 01f4 05       		.uleb128 0x5
 9023 01f5 00       		.byte	0
 9024 01f6 03       		.uleb128 0x3
 9025 01f7 08       		.uleb128 0x8
 9026 01f8 3A       		.uleb128 0x3a
 9027 01f9 0B       		.uleb128 0xb
 9028 01fa 3B       		.uleb128 0x3b
 9029 01fb 0B       		.uleb128 0xb
 9030 01fc 49       		.uleb128 0x49
 9031 01fd 13       		.uleb128 0x13
 9032 01fe 00       		.byte	0
 9033 01ff 00       		.byte	0
 9034 0200 29       		.uleb128 0x29
 9035 0201 18       		.uleb128 0x18
 9036 0202 00       		.byte	0
 9037 0203 00       		.byte	0
 9038 0204 00       		.byte	0
 9039 0205 2A       		.uleb128 0x2a
 9040 0206 34       		.uleb128 0x34
 9041 0207 00       		.byte	0
 9042 0208 03       		.uleb128 0x3
 9043 0209 08       		.uleb128 0x8
 9044 020a 3A       		.uleb128 0x3a
 9045 020b 0B       		.uleb128 0xb
 9046 020c 3B       		.uleb128 0x3b
 9047 020d 0B       		.uleb128 0xb
 9048 020e 49       		.uleb128 0x49
 9049 020f 13       		.uleb128 0x13
 9050 0210 00       		.byte	0
 9051 0211 00       		.byte	0
 9052 0212 2B       		.uleb128 0x2b
 9053 0213 2E       		.uleb128 0x2e
 9054 0214 01       		.byte	0x1
 9055 0215 03       		.uleb128 0x3
 9056 0216 0E       		.uleb128 0xe
 9057 0217 3A       		.uleb128 0x3a
 9058 0218 0B       		.uleb128 0xb
 9059 0219 3B       		.uleb128 0x3b
 9060 021a 0B       		.uleb128 0xb
 9061 021b 27       		.uleb128 0x27
 9062 021c 19       		.uleb128 0x19
 9063 021d 11       		.uleb128 0x11
 9064 021e 01       		.uleb128 0x1
 9065 021f 12       		.uleb128 0x12
 9066 0220 06       		.uleb128 0x6
 9067 0221 40       		.uleb128 0x40
 9068 0222 18       		.uleb128 0x18
 9069 0223 9742     		.uleb128 0x2117
ARM GAS  C:\Users\jo\AppData\Local\Temp\ccT06EVW.s 			page 163


 9070 0225 19       		.uleb128 0x19
 9071 0226 01       		.uleb128 0x1
 9072 0227 13       		.uleb128 0x13
 9073 0228 00       		.byte	0
 9074 0229 00       		.byte	0
 9075 022a 2C       		.uleb128 0x2c
 9076 022b 05       		.uleb128 0x5
 9077 022c 00       		.byte	0
 9078 022d 03       		.uleb128 0x3
 9079 022e 08       		.uleb128 0x8
 9080 022f 3A       		.uleb128 0x3a
 9081 0230 0B       		.uleb128 0xb
 9082 0231 3B       		.uleb128 0x3b
 9083 0232 0B       		.uleb128 0xb
 9084 0233 49       		.uleb128 0x49
 9085 0234 13       		.uleb128 0x13
 9086 0235 02       		.uleb128 0x2
 9087 0236 17       		.uleb128 0x17
 9088 0237 00       		.byte	0
 9089 0238 00       		.byte	0
 9090 0239 2D       		.uleb128 0x2d
 9091 023a 1D       		.uleb128 0x1d
 9092 023b 01       		.byte	0x1
 9093 023c 31       		.uleb128 0x31
 9094 023d 13       		.uleb128 0x13
 9095 023e 52       		.uleb128 0x52
 9096 023f 01       		.uleb128 0x1
 9097 0240 55       		.uleb128 0x55
 9098 0241 17       		.uleb128 0x17
 9099 0242 58       		.uleb128 0x58
 9100 0243 0B       		.uleb128 0xb
 9101 0244 59       		.uleb128 0x59
 9102 0245 0B       		.uleb128 0xb
 9103 0246 00       		.byte	0
 9104 0247 00       		.byte	0
 9105 0248 2E       		.uleb128 0x2e
 9106 0249 0B       		.uleb128 0xb
 9107 024a 01       		.byte	0x1
 9108 024b 55       		.uleb128 0x55
 9109 024c 17       		.uleb128 0x17
 9110 024d 00       		.byte	0
 9111 024e 00       		.byte	0
 9112 024f 2F       		.uleb128 0x2f
 9113 0250 34       		.uleb128 0x34
 9114 0251 00       		.byte	0
 9115 0252 31       		.uleb128 0x31
 9116 0253 13       		.uleb128 0x13
 9117 0254 02       		.uleb128 0x2
 9118 0255 17       		.uleb128 0x17
 9119 0256 00       		.byte	0
 9120 0257 00       		.byte	0
 9121 0258 30       		.uleb128 0x30
 9122 0259 898201   		.uleb128 0x4109
 9123 025c 00       		.byte	0
 9124 025d 11       		.uleb128 0x11
 9125 025e 01       		.uleb128 0x1
 9126 025f 31       		.uleb128 0x31
ARM GAS  C:\Users\jo\AppData\Local\Temp\ccT06EVW.s 			page 164


 9127 0260 13       		.uleb128 0x13
 9128 0261 00       		.byte	0
 9129 0262 00       		.byte	0
 9130 0263 31       		.uleb128 0x31
 9131 0264 2E       		.uleb128 0x2e
 9132 0265 01       		.byte	0x1
 9133 0266 31       		.uleb128 0x31
 9134 0267 13       		.uleb128 0x13
 9135 0268 11       		.uleb128 0x11
 9136 0269 01       		.uleb128 0x1
 9137 026a 12       		.uleb128 0x12
 9138 026b 06       		.uleb128 0x6
 9139 026c 40       		.uleb128 0x40
 9140 026d 18       		.uleb128 0x18
 9141 026e 9742     		.uleb128 0x2117
 9142 0270 19       		.uleb128 0x19
 9143 0271 01       		.uleb128 0x1
 9144 0272 13       		.uleb128 0x13
 9145 0273 00       		.byte	0
 9146 0274 00       		.byte	0
 9147 0275 32       		.uleb128 0x32
 9148 0276 34       		.uleb128 0x34
 9149 0277 00       		.byte	0
 9150 0278 31       		.uleb128 0x31
 9151 0279 13       		.uleb128 0x13
 9152 027a 00       		.byte	0
 9153 027b 00       		.byte	0
 9154 027c 33       		.uleb128 0x33
 9155 027d 898201   		.uleb128 0x4109
 9156 0280 01       		.byte	0x1
 9157 0281 11       		.uleb128 0x11
 9158 0282 01       		.uleb128 0x1
 9159 0283 31       		.uleb128 0x31
 9160 0284 13       		.uleb128 0x13
 9161 0285 00       		.byte	0
 9162 0286 00       		.byte	0
 9163 0287 34       		.uleb128 0x34
 9164 0288 8A8201   		.uleb128 0x410a
 9165 028b 00       		.byte	0
 9166 028c 02       		.uleb128 0x2
 9167 028d 18       		.uleb128 0x18
 9168 028e 9142     		.uleb128 0x2111
 9169 0290 18       		.uleb128 0x18
 9170 0291 00       		.byte	0
 9171 0292 00       		.byte	0
 9172 0293 35       		.uleb128 0x35
 9173 0294 05       		.uleb128 0x5
 9174 0295 00       		.byte	0
 9175 0296 31       		.uleb128 0x31
 9176 0297 13       		.uleb128 0x13
 9177 0298 02       		.uleb128 0x2
 9178 0299 17       		.uleb128 0x17
 9179 029a 00       		.byte	0
 9180 029b 00       		.byte	0
 9181 029c 36       		.uleb128 0x36
 9182 029d 05       		.uleb128 0x5
 9183 029e 00       		.byte	0
ARM GAS  C:\Users\jo\AppData\Local\Temp\ccT06EVW.s 			page 165


 9184 029f 31       		.uleb128 0x31
 9185 02a0 13       		.uleb128 0x13
 9186 02a1 02       		.uleb128 0x2
 9187 02a2 18       		.uleb128 0x18
 9188 02a3 00       		.byte	0
 9189 02a4 00       		.byte	0
 9190 02a5 37       		.uleb128 0x37
 9191 02a6 34       		.uleb128 0x34
 9192 02a7 00       		.byte	0
 9193 02a8 31       		.uleb128 0x31
 9194 02a9 13       		.uleb128 0x13
 9195 02aa 02       		.uleb128 0x2
 9196 02ab 18       		.uleb128 0x18
 9197 02ac 00       		.byte	0
 9198 02ad 00       		.byte	0
 9199 02ae 38       		.uleb128 0x38
 9200 02af 05       		.uleb128 0x5
 9201 02b0 00       		.byte	0
 9202 02b1 31       		.uleb128 0x31
 9203 02b2 13       		.uleb128 0x13
 9204 02b3 00       		.byte	0
 9205 02b4 00       		.byte	0
 9206 02b5 39       		.uleb128 0x39
 9207 02b6 2E       		.uleb128 0x2e
 9208 02b7 01       		.byte	0x1
 9209 02b8 3F       		.uleb128 0x3f
 9210 02b9 19       		.uleb128 0x19
 9211 02ba 03       		.uleb128 0x3
 9212 02bb 0E       		.uleb128 0xe
 9213 02bc 3A       		.uleb128 0x3a
 9214 02bd 0B       		.uleb128 0xb
 9215 02be 3B       		.uleb128 0x3b
 9216 02bf 05       		.uleb128 0x5
 9217 02c0 27       		.uleb128 0x27
 9218 02c1 19       		.uleb128 0x19
 9219 02c2 49       		.uleb128 0x49
 9220 02c3 13       		.uleb128 0x13
 9221 02c4 11       		.uleb128 0x11
 9222 02c5 01       		.uleb128 0x1
 9223 02c6 12       		.uleb128 0x12
 9224 02c7 06       		.uleb128 0x6
 9225 02c8 40       		.uleb128 0x40
 9226 02c9 18       		.uleb128 0x18
 9227 02ca 9742     		.uleb128 0x2117
 9228 02cc 19       		.uleb128 0x19
 9229 02cd 01       		.uleb128 0x1
 9230 02ce 13       		.uleb128 0x13
 9231 02cf 00       		.byte	0
 9232 02d0 00       		.byte	0
 9233 02d1 3A       		.uleb128 0x3a
 9234 02d2 05       		.uleb128 0x5
 9235 02d3 00       		.byte	0
 9236 02d4 03       		.uleb128 0x3
 9237 02d5 08       		.uleb128 0x8
 9238 02d6 3A       		.uleb128 0x3a
 9239 02d7 0B       		.uleb128 0xb
 9240 02d8 3B       		.uleb128 0x3b
ARM GAS  C:\Users\jo\AppData\Local\Temp\ccT06EVW.s 			page 166


 9241 02d9 05       		.uleb128 0x5
 9242 02da 49       		.uleb128 0x49
 9243 02db 13       		.uleb128 0x13
 9244 02dc 02       		.uleb128 0x2
 9245 02dd 17       		.uleb128 0x17
 9246 02de 00       		.byte	0
 9247 02df 00       		.byte	0
 9248 02e0 3B       		.uleb128 0x3b
 9249 02e1 05       		.uleb128 0x5
 9250 02e2 00       		.byte	0
 9251 02e3 03       		.uleb128 0x3
 9252 02e4 0E       		.uleb128 0xe
 9253 02e5 3A       		.uleb128 0x3a
 9254 02e6 0B       		.uleb128 0xb
 9255 02e7 3B       		.uleb128 0x3b
 9256 02e8 05       		.uleb128 0x5
 9257 02e9 49       		.uleb128 0x49
 9258 02ea 13       		.uleb128 0x13
 9259 02eb 02       		.uleb128 0x2
 9260 02ec 17       		.uleb128 0x17
 9261 02ed 00       		.byte	0
 9262 02ee 00       		.byte	0
 9263 02ef 3C       		.uleb128 0x3c
 9264 02f0 34       		.uleb128 0x34
 9265 02f1 00       		.byte	0
 9266 02f2 03       		.uleb128 0x3
 9267 02f3 0E       		.uleb128 0xe
 9268 02f4 3A       		.uleb128 0x3a
 9269 02f5 0B       		.uleb128 0xb
 9270 02f6 3B       		.uleb128 0x3b
 9271 02f7 05       		.uleb128 0x5
 9272 02f8 49       		.uleb128 0x49
 9273 02f9 13       		.uleb128 0x13
 9274 02fa 02       		.uleb128 0x2
 9275 02fb 17       		.uleb128 0x17
 9276 02fc 00       		.byte	0
 9277 02fd 00       		.byte	0
 9278 02fe 3D       		.uleb128 0x3d
 9279 02ff 1D       		.uleb128 0x1d
 9280 0300 01       		.byte	0x1
 9281 0301 31       		.uleb128 0x31
 9282 0302 13       		.uleb128 0x13
 9283 0303 11       		.uleb128 0x11
 9284 0304 01       		.uleb128 0x1
 9285 0305 12       		.uleb128 0x12
 9286 0306 06       		.uleb128 0x6
 9287 0307 58       		.uleb128 0x58
 9288 0308 0B       		.uleb128 0xb
 9289 0309 59       		.uleb128 0x59
 9290 030a 05       		.uleb128 0x5
 9291 030b 01       		.uleb128 0x1
 9292 030c 13       		.uleb128 0x13
 9293 030d 00       		.byte	0
 9294 030e 00       		.byte	0
 9295 030f 3E       		.uleb128 0x3e
 9296 0310 898201   		.uleb128 0x4109
 9297 0313 01       		.byte	0x1
ARM GAS  C:\Users\jo\AppData\Local\Temp\ccT06EVW.s 			page 167


 9298 0314 11       		.uleb128 0x11
 9299 0315 01       		.uleb128 0x1
 9300 0316 31       		.uleb128 0x31
 9301 0317 13       		.uleb128 0x13
 9302 0318 01       		.uleb128 0x1
 9303 0319 13       		.uleb128 0x13
 9304 031a 00       		.byte	0
 9305 031b 00       		.byte	0
 9306 031c 3F       		.uleb128 0x3f
 9307 031d 34       		.uleb128 0x34
 9308 031e 00       		.byte	0
 9309 031f 03       		.uleb128 0x3
 9310 0320 08       		.uleb128 0x8
 9311 0321 3A       		.uleb128 0x3a
 9312 0322 0B       		.uleb128 0xb
 9313 0323 3B       		.uleb128 0x3b
 9314 0324 05       		.uleb128 0x5
 9315 0325 49       		.uleb128 0x49
 9316 0326 13       		.uleb128 0x13
 9317 0327 02       		.uleb128 0x2
 9318 0328 17       		.uleb128 0x17
 9319 0329 00       		.byte	0
 9320 032a 00       		.byte	0
 9321 032b 40       		.uleb128 0x40
 9322 032c 0B       		.uleb128 0xb
 9323 032d 01       		.byte	0x1
 9324 032e 55       		.uleb128 0x55
 9325 032f 17       		.uleb128 0x17
 9326 0330 01       		.uleb128 0x1
 9327 0331 13       		.uleb128 0x13
 9328 0332 00       		.byte	0
 9329 0333 00       		.byte	0
 9330 0334 41       		.uleb128 0x41
 9331 0335 898201   		.uleb128 0x4109
 9332 0338 01       		.byte	0x1
 9333 0339 11       		.uleb128 0x11
 9334 033a 01       		.uleb128 0x1
 9335 033b 01       		.uleb128 0x1
 9336 033c 13       		.uleb128 0x13
 9337 033d 00       		.byte	0
 9338 033e 00       		.byte	0
 9339 033f 42       		.uleb128 0x42
 9340 0340 2E       		.uleb128 0x2e
 9341 0341 01       		.byte	0x1
 9342 0342 3F       		.uleb128 0x3f
 9343 0343 19       		.uleb128 0x19
 9344 0344 03       		.uleb128 0x3
 9345 0345 0E       		.uleb128 0xe
 9346 0346 3A       		.uleb128 0x3a
 9347 0347 0B       		.uleb128 0xb
 9348 0348 3B       		.uleb128 0x3b
 9349 0349 0B       		.uleb128 0xb
 9350 034a 27       		.uleb128 0x27
 9351 034b 19       		.uleb128 0x19
 9352 034c 49       		.uleb128 0x49
 9353 034d 13       		.uleb128 0x13
 9354 034e 11       		.uleb128 0x11
ARM GAS  C:\Users\jo\AppData\Local\Temp\ccT06EVW.s 			page 168


 9355 034f 01       		.uleb128 0x1
 9356 0350 12       		.uleb128 0x12
 9357 0351 06       		.uleb128 0x6
 9358 0352 40       		.uleb128 0x40
 9359 0353 18       		.uleb128 0x18
 9360 0354 9742     		.uleb128 0x2117
 9361 0356 19       		.uleb128 0x19
 9362 0357 01       		.uleb128 0x1
 9363 0358 13       		.uleb128 0x13
 9364 0359 00       		.byte	0
 9365 035a 00       		.byte	0
 9366 035b 43       		.uleb128 0x43
 9367 035c 05       		.uleb128 0x5
 9368 035d 00       		.byte	0
 9369 035e 03       		.uleb128 0x3
 9370 035f 0E       		.uleb128 0xe
 9371 0360 3A       		.uleb128 0x3a
 9372 0361 0B       		.uleb128 0xb
 9373 0362 3B       		.uleb128 0x3b
 9374 0363 0B       		.uleb128 0xb
 9375 0364 49       		.uleb128 0x49
 9376 0365 13       		.uleb128 0x13
 9377 0366 02       		.uleb128 0x2
 9378 0367 17       		.uleb128 0x17
 9379 0368 00       		.byte	0
 9380 0369 00       		.byte	0
 9381 036a 44       		.uleb128 0x44
 9382 036b 34       		.uleb128 0x34
 9383 036c 00       		.byte	0
 9384 036d 03       		.uleb128 0x3
 9385 036e 08       		.uleb128 0x8
 9386 036f 3A       		.uleb128 0x3a
 9387 0370 0B       		.uleb128 0xb
 9388 0371 3B       		.uleb128 0x3b
 9389 0372 0B       		.uleb128 0xb
 9390 0373 49       		.uleb128 0x49
 9391 0374 13       		.uleb128 0x13
 9392 0375 02       		.uleb128 0x2
 9393 0376 17       		.uleb128 0x17
 9394 0377 00       		.byte	0
 9395 0378 00       		.byte	0
 9396 0379 45       		.uleb128 0x45
 9397 037a 34       		.uleb128 0x34
 9398 037b 00       		.byte	0
 9399 037c 03       		.uleb128 0x3
 9400 037d 0E       		.uleb128 0xe
 9401 037e 3A       		.uleb128 0x3a
 9402 037f 0B       		.uleb128 0xb
 9403 0380 3B       		.uleb128 0x3b
 9404 0381 0B       		.uleb128 0xb
 9405 0382 49       		.uleb128 0x49
 9406 0383 13       		.uleb128 0x13
 9407 0384 02       		.uleb128 0x2
 9408 0385 17       		.uleb128 0x17
 9409 0386 00       		.byte	0
 9410 0387 00       		.byte	0
 9411 0388 46       		.uleb128 0x46
ARM GAS  C:\Users\jo\AppData\Local\Temp\ccT06EVW.s 			page 169


 9412 0389 1D       		.uleb128 0x1d
 9413 038a 01       		.byte	0x1
 9414 038b 31       		.uleb128 0x31
 9415 038c 13       		.uleb128 0x13
 9416 038d 11       		.uleb128 0x11
 9417 038e 01       		.uleb128 0x1
 9418 038f 12       		.uleb128 0x12
 9419 0390 06       		.uleb128 0x6
 9420 0391 58       		.uleb128 0x58
 9421 0392 0B       		.uleb128 0xb
 9422 0393 59       		.uleb128 0x59
 9423 0394 0B       		.uleb128 0xb
 9424 0395 01       		.uleb128 0x1
 9425 0396 13       		.uleb128 0x13
 9426 0397 00       		.byte	0
 9427 0398 00       		.byte	0
 9428 0399 47       		.uleb128 0x47
 9429 039a 0B       		.uleb128 0xb
 9430 039b 01       		.byte	0x1
 9431 039c 11       		.uleb128 0x11
 9432 039d 01       		.uleb128 0x1
 9433 039e 12       		.uleb128 0x12
 9434 039f 06       		.uleb128 0x6
 9435 03a0 00       		.byte	0
 9436 03a1 00       		.byte	0
 9437 03a2 48       		.uleb128 0x48
 9438 03a3 2E       		.uleb128 0x2e
 9439 03a4 01       		.byte	0x1
 9440 03a5 3F       		.uleb128 0x3f
 9441 03a6 19       		.uleb128 0x19
 9442 03a7 03       		.uleb128 0x3
 9443 03a8 0E       		.uleb128 0xe
 9444 03a9 3A       		.uleb128 0x3a
 9445 03aa 0B       		.uleb128 0xb
 9446 03ab 3B       		.uleb128 0x3b
 9447 03ac 05       		.uleb128 0x5
 9448 03ad 27       		.uleb128 0x27
 9449 03ae 19       		.uleb128 0x19
 9450 03af 11       		.uleb128 0x11
 9451 03b0 01       		.uleb128 0x1
 9452 03b1 12       		.uleb128 0x12
 9453 03b2 06       		.uleb128 0x6
 9454 03b3 40       		.uleb128 0x40
 9455 03b4 18       		.uleb128 0x18
 9456 03b5 9742     		.uleb128 0x2117
 9457 03b7 19       		.uleb128 0x19
 9458 03b8 01       		.uleb128 0x1
 9459 03b9 13       		.uleb128 0x13
 9460 03ba 00       		.byte	0
 9461 03bb 00       		.byte	0
 9462 03bc 49       		.uleb128 0x49
 9463 03bd 1D       		.uleb128 0x1d
 9464 03be 01       		.byte	0x1
 9465 03bf 31       		.uleb128 0x31
 9466 03c0 13       		.uleb128 0x13
 9467 03c1 52       		.uleb128 0x52
 9468 03c2 01       		.uleb128 0x1
ARM GAS  C:\Users\jo\AppData\Local\Temp\ccT06EVW.s 			page 170


 9469 03c3 55       		.uleb128 0x55
 9470 03c4 17       		.uleb128 0x17
 9471 03c5 58       		.uleb128 0x58
 9472 03c6 0B       		.uleb128 0xb
 9473 03c7 59       		.uleb128 0x59
 9474 03c8 05       		.uleb128 0x5
 9475 03c9 01       		.uleb128 0x1
 9476 03ca 13       		.uleb128 0x13
 9477 03cb 00       		.byte	0
 9478 03cc 00       		.byte	0
 9479 03cd 4A       		.uleb128 0x4a
 9480 03ce 898201   		.uleb128 0x4109
 9481 03d1 01       		.byte	0x1
 9482 03d2 11       		.uleb128 0x11
 9483 03d3 01       		.uleb128 0x1
 9484 03d4 9542     		.uleb128 0x2115
 9485 03d6 19       		.uleb128 0x19
 9486 03d7 31       		.uleb128 0x31
 9487 03d8 13       		.uleb128 0x13
 9488 03d9 00       		.byte	0
 9489 03da 00       		.byte	0
 9490 03db 4B       		.uleb128 0x4b
 9491 03dc 05       		.uleb128 0x5
 9492 03dd 00       		.byte	0
 9493 03de 03       		.uleb128 0x3
 9494 03df 08       		.uleb128 0x8
 9495 03e0 3A       		.uleb128 0x3a
 9496 03e1 0B       		.uleb128 0xb
 9497 03e2 3B       		.uleb128 0x3b
 9498 03e3 05       		.uleb128 0x5
 9499 03e4 49       		.uleb128 0x49
 9500 03e5 13       		.uleb128 0x13
 9501 03e6 02       		.uleb128 0x2
 9502 03e7 18       		.uleb128 0x18
 9503 03e8 00       		.byte	0
 9504 03e9 00       		.byte	0
 9505 03ea 4C       		.uleb128 0x4c
 9506 03eb 34       		.uleb128 0x34
 9507 03ec 00       		.byte	0
 9508 03ed 03       		.uleb128 0x3
 9509 03ee 0E       		.uleb128 0xe
 9510 03ef 3A       		.uleb128 0x3a
 9511 03f0 0B       		.uleb128 0xb
 9512 03f1 3B       		.uleb128 0x3b
 9513 03f2 05       		.uleb128 0x5
 9514 03f3 49       		.uleb128 0x49
 9515 03f4 13       		.uleb128 0x13
 9516 03f5 02       		.uleb128 0x2
 9517 03f6 18       		.uleb128 0x18
 9518 03f7 00       		.byte	0
 9519 03f8 00       		.byte	0
 9520 03f9 4D       		.uleb128 0x4d
 9521 03fa 1D       		.uleb128 0x1d
 9522 03fb 01       		.byte	0x1
 9523 03fc 31       		.uleb128 0x31
 9524 03fd 13       		.uleb128 0x13
 9525 03fe 52       		.uleb128 0x52
ARM GAS  C:\Users\jo\AppData\Local\Temp\ccT06EVW.s 			page 171


 9526 03ff 01       		.uleb128 0x1
 9527 0400 55       		.uleb128 0x55
 9528 0401 17       		.uleb128 0x17
 9529 0402 58       		.uleb128 0x58
 9530 0403 0B       		.uleb128 0xb
 9531 0404 59       		.uleb128 0x59
 9532 0405 05       		.uleb128 0x5
 9533 0406 00       		.byte	0
 9534 0407 00       		.byte	0
 9535 0408 4E       		.uleb128 0x4e
 9536 0409 34       		.uleb128 0x34
 9537 040a 00       		.byte	0
 9538 040b 03       		.uleb128 0x3
 9539 040c 08       		.uleb128 0x8
 9540 040d 3A       		.uleb128 0x3a
 9541 040e 0B       		.uleb128 0xb
 9542 040f 3B       		.uleb128 0x3b
 9543 0410 05       		.uleb128 0x5
 9544 0411 49       		.uleb128 0x49
 9545 0412 13       		.uleb128 0x13
 9546 0413 02       		.uleb128 0x2
 9547 0414 18       		.uleb128 0x18
 9548 0415 00       		.byte	0
 9549 0416 00       		.byte	0
 9550 0417 4F       		.uleb128 0x4f
 9551 0418 34       		.uleb128 0x34
 9552 0419 00       		.byte	0
 9553 041a 03       		.uleb128 0x3
 9554 041b 0E       		.uleb128 0xe
 9555 041c 3A       		.uleb128 0x3a
 9556 041d 0B       		.uleb128 0xb
 9557 041e 3B       		.uleb128 0x3b
 9558 041f 05       		.uleb128 0x5
 9559 0420 49       		.uleb128 0x49
 9560 0421 13       		.uleb128 0x13
 9561 0422 3F       		.uleb128 0x3f
 9562 0423 19       		.uleb128 0x19
 9563 0424 3C       		.uleb128 0x3c
 9564 0425 19       		.uleb128 0x19
 9565 0426 00       		.byte	0
 9566 0427 00       		.byte	0
 9567 0428 50       		.uleb128 0x50
 9568 0429 34       		.uleb128 0x34
 9569 042a 00       		.byte	0
 9570 042b 03       		.uleb128 0x3
 9571 042c 08       		.uleb128 0x8
 9572 042d 3A       		.uleb128 0x3a
 9573 042e 0B       		.uleb128 0xb
 9574 042f 3B       		.uleb128 0x3b
 9575 0430 05       		.uleb128 0x5
 9576 0431 49       		.uleb128 0x49
 9577 0432 13       		.uleb128 0x13
 9578 0433 3F       		.uleb128 0x3f
 9579 0434 19       		.uleb128 0x19
 9580 0435 3C       		.uleb128 0x3c
 9581 0436 19       		.uleb128 0x19
 9582 0437 00       		.byte	0
ARM GAS  C:\Users\jo\AppData\Local\Temp\ccT06EVW.s 			page 172


 9583 0438 00       		.byte	0
 9584 0439 51       		.uleb128 0x51
 9585 043a 34       		.uleb128 0x34
 9586 043b 00       		.byte	0
 9587 043c 03       		.uleb128 0x3
 9588 043d 0E       		.uleb128 0xe
 9589 043e 3A       		.uleb128 0x3a
 9590 043f 0B       		.uleb128 0xb
 9591 0440 3B       		.uleb128 0x3b
 9592 0441 0B       		.uleb128 0xb
 9593 0442 49       		.uleb128 0x49
 9594 0443 13       		.uleb128 0x13
 9595 0444 3F       		.uleb128 0x3f
 9596 0445 19       		.uleb128 0x19
 9597 0446 3C       		.uleb128 0x3c
 9598 0447 19       		.uleb128 0x19
 9599 0448 00       		.byte	0
 9600 0449 00       		.byte	0
 9601 044a 52       		.uleb128 0x52
 9602 044b 34       		.uleb128 0x34
 9603 044c 00       		.byte	0
 9604 044d 03       		.uleb128 0x3
 9605 044e 0E       		.uleb128 0xe
 9606 044f 3A       		.uleb128 0x3a
 9607 0450 0B       		.uleb128 0xb
 9608 0451 3B       		.uleb128 0x3b
 9609 0452 0B       		.uleb128 0xb
 9610 0453 49       		.uleb128 0x49
 9611 0454 13       		.uleb128 0x13
 9612 0455 3F       		.uleb128 0x3f
 9613 0456 19       		.uleb128 0x19
 9614 0457 02       		.uleb128 0x2
 9615 0458 18       		.uleb128 0x18
 9616 0459 00       		.byte	0
 9617 045a 00       		.byte	0
 9618 045b 53       		.uleb128 0x53
 9619 045c 2E       		.uleb128 0x2e
 9620 045d 01       		.byte	0x1
 9621 045e 3F       		.uleb128 0x3f
 9622 045f 19       		.uleb128 0x19
 9623 0460 03       		.uleb128 0x3
 9624 0461 0E       		.uleb128 0xe
 9625 0462 3A       		.uleb128 0x3a
 9626 0463 0B       		.uleb128 0xb
 9627 0464 3B       		.uleb128 0x3b
 9628 0465 05       		.uleb128 0x5
 9629 0466 27       		.uleb128 0x27
 9630 0467 19       		.uleb128 0x19
 9631 0468 3C       		.uleb128 0x3c
 9632 0469 19       		.uleb128 0x19
 9633 046a 01       		.uleb128 0x1
 9634 046b 13       		.uleb128 0x13
 9635 046c 00       		.byte	0
 9636 046d 00       		.byte	0
 9637 046e 54       		.uleb128 0x54
 9638 046f 2E       		.uleb128 0x2e
 9639 0470 01       		.byte	0x1
ARM GAS  C:\Users\jo\AppData\Local\Temp\ccT06EVW.s 			page 173


 9640 0471 3F       		.uleb128 0x3f
 9641 0472 19       		.uleb128 0x19
 9642 0473 03       		.uleb128 0x3
 9643 0474 0E       		.uleb128 0xe
 9644 0475 3A       		.uleb128 0x3a
 9645 0476 0B       		.uleb128 0xb
 9646 0477 3B       		.uleb128 0x3b
 9647 0478 0B       		.uleb128 0xb
 9648 0479 27       		.uleb128 0x27
 9649 047a 19       		.uleb128 0x19
 9650 047b 49       		.uleb128 0x49
 9651 047c 13       		.uleb128 0x13
 9652 047d 3C       		.uleb128 0x3c
 9653 047e 19       		.uleb128 0x19
 9654 047f 01       		.uleb128 0x1
 9655 0480 13       		.uleb128 0x13
 9656 0481 00       		.byte	0
 9657 0482 00       		.byte	0
 9658 0483 55       		.uleb128 0x55
 9659 0484 2E       		.uleb128 0x2e
 9660 0485 01       		.byte	0x1
 9661 0486 3F       		.uleb128 0x3f
 9662 0487 19       		.uleb128 0x19
 9663 0488 03       		.uleb128 0x3
 9664 0489 0E       		.uleb128 0xe
 9665 048a 3A       		.uleb128 0x3a
 9666 048b 0B       		.uleb128 0xb
 9667 048c 3B       		.uleb128 0x3b
 9668 048d 0B       		.uleb128 0xb
 9669 048e 27       		.uleb128 0x27
 9670 048f 19       		.uleb128 0x19
 9671 0490 3C       		.uleb128 0x3c
 9672 0491 19       		.uleb128 0x19
 9673 0492 01       		.uleb128 0x1
 9674 0493 13       		.uleb128 0x13
 9675 0494 00       		.byte	0
 9676 0495 00       		.byte	0
 9677 0496 56       		.uleb128 0x56
 9678 0497 2E       		.uleb128 0x2e
 9679 0498 01       		.byte	0x1
 9680 0499 3F       		.uleb128 0x3f
 9681 049a 19       		.uleb128 0x19
 9682 049b 03       		.uleb128 0x3
 9683 049c 0E       		.uleb128 0xe
 9684 049d 27       		.uleb128 0x27
 9685 049e 19       		.uleb128 0x19
 9686 049f 49       		.uleb128 0x49
 9687 04a0 13       		.uleb128 0x13
 9688 04a1 34       		.uleb128 0x34
 9689 04a2 19       		.uleb128 0x19
 9690 04a3 3C       		.uleb128 0x3c
 9691 04a4 19       		.uleb128 0x19
 9692 04a5 01       		.uleb128 0x1
 9693 04a6 13       		.uleb128 0x13
 9694 04a7 00       		.byte	0
 9695 04a8 00       		.byte	0
 9696 04a9 57       		.uleb128 0x57
ARM GAS  C:\Users\jo\AppData\Local\Temp\ccT06EVW.s 			page 174


 9697 04aa 2E       		.uleb128 0x2e
 9698 04ab 01       		.byte	0x1
 9699 04ac 3F       		.uleb128 0x3f
 9700 04ad 19       		.uleb128 0x19
 9701 04ae 03       		.uleb128 0x3
 9702 04af 0E       		.uleb128 0xe
 9703 04b0 3A       		.uleb128 0x3a
 9704 04b1 0B       		.uleb128 0xb
 9705 04b2 3B       		.uleb128 0x3b
 9706 04b3 0B       		.uleb128 0xb
 9707 04b4 27       		.uleb128 0x27
 9708 04b5 19       		.uleb128 0x19
 9709 04b6 49       		.uleb128 0x49
 9710 04b7 13       		.uleb128 0x13
 9711 04b8 3C       		.uleb128 0x3c
 9712 04b9 19       		.uleb128 0x19
 9713 04ba 00       		.byte	0
 9714 04bb 00       		.byte	0
 9715 04bc 00       		.byte	0
 9716              		.section	.debug_loc,"",%progbits
 9717              	.Ldebug_loc0:
 9718              	.LLST0:
 9719 0000 00000000 		.4byte	.LVL0
 9720 0004 10000000 		.4byte	.LVL2
 9721 0008 0100     		.2byte	0x1
 9722 000a 50       		.byte	0x50
 9723 000b 10000000 		.4byte	.LVL2
 9724 000f 30000000 		.4byte	.LFE257
 9725 0013 0400     		.2byte	0x4
 9726 0015 F3       		.byte	0xf3
 9727 0016 01       		.uleb128 0x1
 9728 0017 50       		.byte	0x50
 9729 0018 9F       		.byte	0x9f
 9730 0019 00000000 		.4byte	0
 9731 001d 00000000 		.4byte	0
 9732              	.LLST1:
 9733 0021 08000000 		.4byte	.LVL1
 9734 0025 26000000 		.4byte	.LVL6
 9735 0029 0100     		.2byte	0x1
 9736 002b 54       		.byte	0x54
 9737 002c 00000000 		.4byte	0
 9738 0030 00000000 		.4byte	0
 9739              	.LLST2:
 9740 0034 00000000 		.4byte	.LVL8
 9741 0038 0E000000 		.4byte	.LVL9
 9742 003c 0100     		.2byte	0x1
 9743 003e 50       		.byte	0x50
 9744 003f 0E000000 		.4byte	.LVL9
 9745 0043 28000000 		.4byte	.LFE278
 9746 0047 0400     		.2byte	0x4
 9747 0049 F3       		.byte	0xf3
 9748 004a 01       		.uleb128 0x1
 9749 004b 50       		.byte	0x50
 9750 004c 9F       		.byte	0x9f
 9751 004d 00000000 		.4byte	0
 9752 0051 00000000 		.4byte	0
 9753              	.LLST3:
ARM GAS  C:\Users\jo\AppData\Local\Temp\ccT06EVW.s 			page 175


 9754 0055 00000000 		.4byte	.LVL11
 9755 0059 1A000000 		.4byte	.LVL12
 9756 005d 0100     		.2byte	0x1
 9757 005f 50       		.byte	0x50
 9758 0060 1A000000 		.4byte	.LVL12
 9759 0064 42000000 		.4byte	.LVL13
 9760 0068 0400     		.2byte	0x4
 9761 006a F3       		.byte	0xf3
 9762 006b 01       		.uleb128 0x1
 9763 006c 50       		.byte	0x50
 9764 006d 9F       		.byte	0x9f
 9765 006e 42000000 		.4byte	.LVL13
 9766 0072 46000000 		.4byte	.LVL14
 9767 0076 0100     		.2byte	0x1
 9768 0078 50       		.byte	0x50
 9769 0079 46000000 		.4byte	.LVL14
 9770 007d 48000000 		.4byte	.LVL15
 9771 0081 0400     		.2byte	0x4
 9772 0083 F3       		.byte	0xf3
 9773 0084 01       		.uleb128 0x1
 9774 0085 50       		.byte	0x50
 9775 0086 9F       		.byte	0x9f
 9776 0087 48000000 		.4byte	.LVL15
 9777 008b 4C000000 		.4byte	.LVL16
 9778 008f 0100     		.2byte	0x1
 9779 0091 50       		.byte	0x50
 9780 0092 4C000000 		.4byte	.LVL16
 9781 0096 4E000000 		.4byte	.LVL17
 9782 009a 0400     		.2byte	0x4
 9783 009c F3       		.byte	0xf3
 9784 009d 01       		.uleb128 0x1
 9785 009e 50       		.byte	0x50
 9786 009f 9F       		.byte	0x9f
 9787 00a0 4E000000 		.4byte	.LVL17
 9788 00a4 52000000 		.4byte	.LVL18
 9789 00a8 0100     		.2byte	0x1
 9790 00aa 50       		.byte	0x50
 9791 00ab 52000000 		.4byte	.LVL18
 9792 00af 54000000 		.4byte	.LVL19
 9793 00b3 0400     		.2byte	0x4
 9794 00b5 F3       		.byte	0xf3
 9795 00b6 01       		.uleb128 0x1
 9796 00b7 50       		.byte	0x50
 9797 00b8 9F       		.byte	0x9f
 9798 00b9 54000000 		.4byte	.LVL19
 9799 00bd 5E000000 		.4byte	.LVL23
 9800 00c1 0100     		.2byte	0x1
 9801 00c3 50       		.byte	0x50
 9802 00c4 5E000000 		.4byte	.LVL23
 9803 00c8 8C000000 		.4byte	.LFE260
 9804 00cc 0400     		.2byte	0x4
 9805 00ce F3       		.byte	0xf3
 9806 00cf 01       		.uleb128 0x1
 9807 00d0 50       		.byte	0x50
 9808 00d1 9F       		.byte	0x9f
 9809 00d2 00000000 		.4byte	0
 9810 00d6 00000000 		.4byte	0
ARM GAS  C:\Users\jo\AppData\Local\Temp\ccT06EVW.s 			page 176


 9811              	.LLST4:
 9812 00da 00000000 		.4byte	.LVL11
 9813 00de 5A000000 		.4byte	.LVL21
 9814 00e2 0100     		.2byte	0x1
 9815 00e4 51       		.byte	0x51
 9816 00e5 5A000000 		.4byte	.LVL21
 9817 00e9 72000000 		.4byte	.LVL26
 9818 00ed 0400     		.2byte	0x4
 9819 00ef F3       		.byte	0xf3
 9820 00f0 01       		.uleb128 0x1
 9821 00f1 51       		.byte	0x51
 9822 00f2 9F       		.byte	0x9f
 9823 00f3 72000000 		.4byte	.LVL26
 9824 00f7 8C000000 		.4byte	.LFE260
 9825 00fb 0100     		.2byte	0x1
 9826 00fd 51       		.byte	0x51
 9827 00fe 00000000 		.4byte	0
 9828 0102 00000000 		.4byte	0
 9829              	.LLST5:
 9830 0106 00000000 		.4byte	.LVL11
 9831 010a 5C000000 		.4byte	.LVL22
 9832 010e 0100     		.2byte	0x1
 9833 0110 52       		.byte	0x52
 9834 0111 5C000000 		.4byte	.LVL22
 9835 0115 72000000 		.4byte	.LVL26
 9836 0119 0400     		.2byte	0x4
 9837 011b F3       		.byte	0xf3
 9838 011c 01       		.uleb128 0x1
 9839 011d 52       		.byte	0x52
 9840 011e 9F       		.byte	0x9f
 9841 011f 72000000 		.4byte	.LVL26
 9842 0123 8C000000 		.4byte	.LFE260
 9843 0127 0100     		.2byte	0x1
 9844 0129 52       		.byte	0x52
 9845 012a 00000000 		.4byte	0
 9846 012e 00000000 		.4byte	0
 9847              	.LLST6:
 9848 0132 00000000 		.4byte	.LVL11
 9849 0136 56000000 		.4byte	.LVL20
 9850 013a 0100     		.2byte	0x1
 9851 013c 53       		.byte	0x53
 9852 013d 56000000 		.4byte	.LVL20
 9853 0141 72000000 		.4byte	.LVL26
 9854 0145 0400     		.2byte	0x4
 9855 0147 F3       		.byte	0xf3
 9856 0148 01       		.uleb128 0x1
 9857 0149 53       		.byte	0x53
 9858 014a 9F       		.byte	0x9f
 9859 014b 72000000 		.4byte	.LVL26
 9860 014f 8C000000 		.4byte	.LFE260
 9861 0153 0100     		.2byte	0x1
 9862 0155 53       		.byte	0x53
 9863 0156 00000000 		.4byte	0
 9864 015a 00000000 		.4byte	0
 9865              	.LLST7:
 9866 015e 00000000 		.4byte	.LVL11
 9867 0162 42000000 		.4byte	.LVL13
ARM GAS  C:\Users\jo\AppData\Local\Temp\ccT06EVW.s 			page 177


 9868 0166 0200     		.2byte	0x2
 9869 0168 91       		.byte	0x91
 9870 0169 00       		.sleb128 0
 9871 016a 42000000 		.4byte	.LVL13
 9872 016e 8C000000 		.4byte	.LFE260
 9873 0172 0200     		.2byte	0x2
 9874 0174 91       		.byte	0x91
 9875 0175 00       		.sleb128 0
 9876 0176 00000000 		.4byte	0
 9877 017a 00000000 		.4byte	0
 9878              	.LLST8:
 9879 017e 00000000 		.4byte	.LVL11
 9880 0182 42000000 		.4byte	.LVL13
 9881 0186 0200     		.2byte	0x2
 9882 0188 91       		.byte	0x91
 9883 0189 04       		.sleb128 4
 9884 018a 42000000 		.4byte	.LVL13
 9885 018e 8C000000 		.4byte	.LFE260
 9886 0192 0200     		.2byte	0x2
 9887 0194 91       		.byte	0x91
 9888 0195 04       		.sleb128 4
 9889 0196 00000000 		.4byte	0
 9890 019a 00000000 		.4byte	0
 9891              	.LLST9:
 9892 019e 4E000000 		.4byte	.LVL17
 9893 01a2 54000000 		.4byte	.LVL19
 9894 01a6 0200     		.2byte	0x2
 9895 01a8 30       		.byte	0x30
 9896 01a9 9F       		.byte	0x9f
 9897 01aa 00000000 		.4byte	0
 9898 01ae 00000000 		.4byte	0
 9899              	.LLST10:
 9900 01b2 66000000 		.4byte	.LVL24
 9901 01b6 72000000 		.4byte	.LVL26
 9902 01ba 0600     		.2byte	0x6
 9903 01bc 03       		.byte	0x3
 9904 01bd 28000000 		.4byte	.LC1
 9905 01c1 9F       		.byte	0x9f
 9906 01c2 00000000 		.4byte	0
 9907 01c6 00000000 		.4byte	0
 9908              	.LLST11:
 9909 01ca 00000000 		.4byte	.LVL27
 9910 01ce 16000000 		.4byte	.LVL30
 9911 01d2 0100     		.2byte	0x1
 9912 01d4 50       		.byte	0x50
 9913 01d5 16000000 		.4byte	.LVL30
 9914 01d9 4A000000 		.4byte	.LVL40
 9915 01dd 0100     		.2byte	0x1
 9916 01df 54       		.byte	0x54
 9917 01e0 4A000000 		.4byte	.LVL40
 9918 01e4 5E000000 		.4byte	.LVL44
 9919 01e8 0100     		.2byte	0x1
 9920 01ea 50       		.byte	0x50
 9921 01eb 5E000000 		.4byte	.LVL44
 9922 01ef 94000000 		.4byte	.LVL57
 9923 01f3 0100     		.2byte	0x1
 9924 01f5 54       		.byte	0x54
ARM GAS  C:\Users\jo\AppData\Local\Temp\ccT06EVW.s 			page 178


 9925 01f6 94000000 		.4byte	.LVL57
 9926 01fa 9E000000 		.4byte	.LVL59
 9927 01fe 0100     		.2byte	0x1
 9928 0200 50       		.byte	0x50
 9929 0201 9E000000 		.4byte	.LVL59
 9930 0205 D4000000 		.4byte	.LFE262
 9931 0209 0100     		.2byte	0x1
 9932 020b 54       		.byte	0x54
 9933 020c 00000000 		.4byte	0
 9934 0210 00000000 		.4byte	0
 9935              	.LLST12:
 9936 0214 00000000 		.4byte	.LVL27
 9937 0218 40000000 		.4byte	.LVL38
 9938 021c 0100     		.2byte	0x1
 9939 021e 51       		.byte	0x51
 9940 021f 40000000 		.4byte	.LVL38
 9941 0223 4A000000 		.4byte	.LVL40
 9942 0227 0400     		.2byte	0x4
 9943 0229 F3       		.byte	0xf3
 9944 022a 01       		.uleb128 0x1
 9945 022b 51       		.byte	0x51
 9946 022c 9F       		.byte	0x9f
 9947 022d 4A000000 		.4byte	.LVL40
 9948 0231 5A000000 		.4byte	.LVL42
 9949 0235 0100     		.2byte	0x1
 9950 0237 51       		.byte	0x51
 9951 0238 5A000000 		.4byte	.LVL42
 9952 023c 70000000 		.4byte	.LVL47
 9953 0240 0400     		.2byte	0x4
 9954 0242 F3       		.byte	0xf3
 9955 0243 01       		.uleb128 0x1
 9956 0244 51       		.byte	0x51
 9957 0245 9F       		.byte	0x9f
 9958 0246 70000000 		.4byte	.LVL47
 9959 024a 7E000000 		.4byte	.LVL52
 9960 024e 0100     		.2byte	0x1
 9961 0250 51       		.byte	0x51
 9962 0251 7E000000 		.4byte	.LVL52
 9963 0255 94000000 		.4byte	.LVL57
 9964 0259 0400     		.2byte	0x4
 9965 025b F3       		.byte	0xf3
 9966 025c 01       		.uleb128 0x1
 9967 025d 51       		.byte	0x51
 9968 025e 9F       		.byte	0x9f
 9969 025f 94000000 		.4byte	.LVL57
 9970 0263 9A000000 		.4byte	.LVL58
 9971 0267 0100     		.2byte	0x1
 9972 0269 51       		.byte	0x51
 9973 026a 9A000000 		.4byte	.LVL58
 9974 026e B0000000 		.4byte	.LVL62
 9975 0272 0400     		.2byte	0x4
 9976 0274 F3       		.byte	0xf3
 9977 0275 01       		.uleb128 0x1
 9978 0276 51       		.byte	0x51
 9979 0277 9F       		.byte	0x9f
 9980 0278 B0000000 		.4byte	.LVL62
 9981 027c D4000000 		.4byte	.LFE262
ARM GAS  C:\Users\jo\AppData\Local\Temp\ccT06EVW.s 			page 179


 9982 0280 0100     		.2byte	0x1
 9983 0282 51       		.byte	0x51
 9984 0283 00000000 		.4byte	0
 9985 0287 00000000 		.4byte	0
 9986              	.LLST13:
 9987 028b 14000000 		.4byte	.LVL29
 9988 028f 1E000000 		.4byte	.LVL31
 9989 0293 0100     		.2byte	0x1
 9990 0295 53       		.byte	0x53
 9991 0296 1E000000 		.4byte	.LVL31
 9992 029a 26000000 		.4byte	.LVL32
 9993 029e 0300     		.2byte	0x3
 9994 02a0 73       		.byte	0x73
 9995 02a1 01       		.sleb128 1
 9996 02a2 9F       		.byte	0x9f
 9997 02a3 26000000 		.4byte	.LVL32
 9998 02a7 2A000000 		.4byte	.LVL34
 9999 02ab 0800     		.2byte	0x8
 10000 02ad 74       		.byte	0x74
 10001 02ae 0C       		.sleb128 12
 10002 02af 94       		.byte	0x94
 10003 02b0 01       		.byte	0x1
 10004 02b1 08       		.byte	0x8
 10005 02b2 FF       		.byte	0xff
 10006 02b3 1A       		.byte	0x1a
 10007 02b4 9F       		.byte	0x9f
 10008 02b5 2A000000 		.4byte	.LVL34
 10009 02b9 2C000000 		.4byte	.LVL35
 10010 02bd 0100     		.2byte	0x1
 10011 02bf 53       		.byte	0x53
 10012 02c0 2C000000 		.4byte	.LVL35
 10013 02c4 44000000 		.4byte	.LVL39
 10014 02c8 0800     		.2byte	0x8
 10015 02ca 74       		.byte	0x74
 10016 02cb 0C       		.sleb128 12
 10017 02cc 94       		.byte	0x94
 10018 02cd 01       		.byte	0x1
 10019 02ce 08       		.byte	0x8
 10020 02cf FF       		.byte	0xff
 10021 02d0 1A       		.byte	0x1a
 10022 02d1 9F       		.byte	0x9f
 10023 02d2 70000000 		.4byte	.LVL47
 10024 02d6 78000000 		.4byte	.LVL49
 10025 02da 0800     		.2byte	0x8
 10026 02dc 74       		.byte	0x74
 10027 02dd 0C       		.sleb128 12
 10028 02de 94       		.byte	0x94
 10029 02df 01       		.byte	0x1
 10030 02e0 08       		.byte	0x8
 10031 02e1 FF       		.byte	0xff
 10032 02e2 1A       		.byte	0x1a
 10033 02e3 9F       		.byte	0x9f
 10034 02e4 78000000 		.4byte	.LVL49
 10035 02e8 7A000000 		.4byte	.LVL50
 10036 02ec 0300     		.2byte	0x3
 10037 02ee 73       		.byte	0x73
 10038 02ef 01       		.sleb128 1
ARM GAS  C:\Users\jo\AppData\Local\Temp\ccT06EVW.s 			page 180


 10039 02f0 9F       		.byte	0x9f
 10040 02f1 7A000000 		.4byte	.LVL50
 10041 02f5 7C000000 		.4byte	.LVL51
 10042 02f9 0800     		.2byte	0x8
 10043 02fb 74       		.byte	0x74
 10044 02fc 0C       		.sleb128 12
 10045 02fd 94       		.byte	0x94
 10046 02fe 01       		.byte	0x1
 10047 02ff 08       		.byte	0x8
 10048 0300 FF       		.byte	0xff
 10049 0301 1A       		.byte	0x1a
 10050 0302 9F       		.byte	0x9f
 10051 0303 B0000000 		.4byte	.LVL62
 10052 0307 B2000000 		.4byte	.LVL63
 10053 030b 0300     		.2byte	0x3
 10054 030d 73       		.byte	0x73
 10055 030e 01       		.sleb128 1
 10056 030f 9F       		.byte	0x9f
 10057 0310 B2000000 		.4byte	.LVL63
 10058 0314 D4000000 		.4byte	.LFE262
 10059 0318 0800     		.2byte	0x8
 10060 031a 74       		.byte	0x74
 10061 031b 0C       		.sleb128 12
 10062 031c 94       		.byte	0x94
 10063 031d 01       		.byte	0x1
 10064 031e 08       		.byte	0x8
 10065 031f FF       		.byte	0xff
 10066 0320 1A       		.byte	0x1a
 10067 0321 9F       		.byte	0x9f
 10068 0322 00000000 		.4byte	0
 10069 0326 00000000 		.4byte	0
 10070              	.LLST14:
 10071 032a 16000000 		.4byte	.LVL30
 10072 032e 28000000 		.4byte	.LVL33
 10073 0332 0100     		.2byte	0x1
 10074 0334 50       		.byte	0x50
 10075 0335 28000000 		.4byte	.LVL33
 10076 0339 2A000000 		.4byte	.LVL34
 10077 033d 0200     		.2byte	0x2
 10078 033f 74       		.byte	0x74
 10079 0340 04       		.sleb128 4
 10080 0341 2A000000 		.4byte	.LVL34
 10081 0345 38000000 		.4byte	.LVL37
 10082 0349 0100     		.2byte	0x1
 10083 034b 50       		.byte	0x50
 10084 034c 70000000 		.4byte	.LVL47
 10085 0350 74000000 		.4byte	.LVL48
 10086 0354 0100     		.2byte	0x1
 10087 0356 50       		.byte	0x50
 10088 0357 74000000 		.4byte	.LVL48
 10089 035b 78000000 		.4byte	.LVL49
 10090 035f 0200     		.2byte	0x2
 10091 0361 74       		.byte	0x74
 10092 0362 04       		.sleb128 4
 10093 0363 78000000 		.4byte	.LVL49
 10094 0367 82000000 		.4byte	.LVL54
 10095 036b 0100     		.2byte	0x1
ARM GAS  C:\Users\jo\AppData\Local\Temp\ccT06EVW.s 			page 181


 10096 036d 50       		.byte	0x50
 10097 036e B0000000 		.4byte	.LVL62
 10098 0372 B8000000 		.4byte	.LVL64
 10099 0376 0100     		.2byte	0x1
 10100 0378 50       		.byte	0x50
 10101 0379 B8000000 		.4byte	.LVL64
 10102 037d BA000000 		.4byte	.LVL65
 10103 0381 0200     		.2byte	0x2
 10104 0383 74       		.byte	0x74
 10105 0384 04       		.sleb128 4
 10106 0385 00000000 		.4byte	0
 10107 0389 00000000 		.4byte	0
 10108              	.LLST15:
 10109 038d 12000000 		.4byte	.LVL28
 10110 0391 30000000 		.4byte	.LVL36
 10111 0395 0100     		.2byte	0x1
 10112 0397 52       		.byte	0x52
 10113 0398 50000000 		.4byte	.LVL41
 10114 039c 5C000000 		.4byte	.LVL43
 10115 03a0 0100     		.2byte	0x1
 10116 03a2 52       		.byte	0x52
 10117 03a3 78000000 		.4byte	.LVL49
 10118 03a7 80000000 		.4byte	.LVL53
 10119 03ab 0100     		.2byte	0x1
 10120 03ad 52       		.byte	0x52
 10121 03ae B0000000 		.4byte	.LVL62
 10122 03b2 D4000000 		.4byte	.LFE262
 10123 03b6 0100     		.2byte	0x1
 10124 03b8 52       		.byte	0x52
 10125 03b9 00000000 		.4byte	0
 10126 03bd 00000000 		.4byte	0
 10127              	.LLST16:
 10128 03c1 66000000 		.4byte	.LVL45
 10129 03c5 70000000 		.4byte	.LVL47
 10130 03c9 0600     		.2byte	0x6
 10131 03cb 03       		.byte	0x3
 10132 03cc 84000000 		.4byte	.LC4
 10133 03d0 9F       		.byte	0x9f
 10134 03d1 00000000 		.4byte	0
 10135 03d5 00000000 		.4byte	0
 10136              	.LLST17:
 10137 03d9 8A000000 		.4byte	.LVL55
 10138 03dd 94000000 		.4byte	.LVL57
 10139 03e1 0600     		.2byte	0x6
 10140 03e3 03       		.byte	0x3
 10141 03e4 A4000000 		.4byte	.LC5
 10142 03e8 9F       		.byte	0x9f
 10143 03e9 00000000 		.4byte	0
 10144 03ed 00000000 		.4byte	0
 10145              	.LLST18:
 10146 03f1 A6000000 		.4byte	.LVL60
 10147 03f5 B0000000 		.4byte	.LVL62
 10148 03f9 0600     		.2byte	0x6
 10149 03fb 03       		.byte	0x3
 10150 03fc 78000000 		.4byte	.LC3
 10151 0400 9F       		.byte	0x9f
 10152 0401 00000000 		.4byte	0
ARM GAS  C:\Users\jo\AppData\Local\Temp\ccT06EVW.s 			page 182


 10153 0405 00000000 		.4byte	0
 10154              	.LLST19:
 10155 0409 00000000 		.4byte	.LVL66
 10156 040d 10000000 		.4byte	.LVL67
 10157 0411 0100     		.2byte	0x1
 10158 0413 50       		.byte	0x50
 10159 0414 10000000 		.4byte	.LVL67
 10160 0418 24000000 		.4byte	.LVL73
 10161 041c 0100     		.2byte	0x1
 10162 041e 54       		.byte	0x54
 10163 041f 24000000 		.4byte	.LVL73
 10164 0423 28000000 		.4byte	.LVL74
 10165 0427 0100     		.2byte	0x1
 10166 0429 57       		.byte	0x57
 10167 042a 28000000 		.4byte	.LVL74
 10168 042e 54000000 		.4byte	.LVL81
 10169 0432 0100     		.2byte	0x1
 10170 0434 54       		.byte	0x54
 10171 0435 54000000 		.4byte	.LVL81
 10172 0439 58000000 		.4byte	.LVL82
 10173 043d 0100     		.2byte	0x1
 10174 043f 57       		.byte	0x57
 10175 0440 5E000000 		.4byte	.LVL84
 10176 0444 A6000000 		.4byte	.LVL95
 10177 0448 0100     		.2byte	0x1
 10178 044a 54       		.byte	0x54
 10179 044b A6000000 		.4byte	.LVL95
 10180 044f B0000000 		.4byte	.LVL96
 10181 0453 0100     		.2byte	0x1
 10182 0455 50       		.byte	0x50
 10183 0456 B0000000 		.4byte	.LVL96
 10184 045a C0000000 		.4byte	.LVL99
 10185 045e 0100     		.2byte	0x1
 10186 0460 54       		.byte	0x54
 10187 0461 C0000000 		.4byte	.LVL99
 10188 0465 CA000000 		.4byte	.LVL100
 10189 0469 0100     		.2byte	0x1
 10190 046b 50       		.byte	0x50
 10191 046c CA000000 		.4byte	.LVL100
 10192 0470 F8000000 		.4byte	.LFE263
 10193 0474 0100     		.2byte	0x1
 10194 0476 54       		.byte	0x54
 10195 0477 00000000 		.4byte	0
 10196 047b 00000000 		.4byte	0
 10197              	.LLST20:
 10198 047f 16000000 		.4byte	.LVL68
 10199 0483 18000000 		.4byte	.LVL69
 10200 0487 0600     		.2byte	0x6
 10201 0489 73       		.byte	0x73
 10202 048a 00       		.sleb128 0
 10203 048b 08       		.byte	0x8
 10204 048c FF       		.byte	0xff
 10205 048d 1A       		.byte	0x1a
 10206 048e 9F       		.byte	0x9f
 10207 048f 18000000 		.4byte	.LVL69
 10208 0493 1C000000 		.4byte	.LVL70
 10209 0497 0800     		.2byte	0x8
ARM GAS  C:\Users\jo\AppData\Local\Temp\ccT06EVW.s 			page 183


 10210 0499 74       		.byte	0x74
 10211 049a 0C       		.sleb128 12
 10212 049b 94       		.byte	0x94
 10213 049c 01       		.byte	0x1
 10214 049d 08       		.byte	0x8
 10215 049e FF       		.byte	0xff
 10216 049f 1A       		.byte	0x1a
 10217 04a0 9F       		.byte	0x9f
 10218 04a1 3A000000 		.4byte	.LVL77
 10219 04a5 40000000 		.4byte	.LVL78
 10220 04a9 0600     		.2byte	0x6
 10221 04ab 73       		.byte	0x73
 10222 04ac 00       		.sleb128 0
 10223 04ad 08       		.byte	0x8
 10224 04ae FF       		.byte	0xff
 10225 04af 1A       		.byte	0x1a
 10226 04b0 9F       		.byte	0x9f
 10227 04b1 40000000 		.4byte	.LVL78
 10228 04b5 51000000 		.4byte	.LVL80-1
 10229 04b9 0800     		.2byte	0x8
 10230 04bb 74       		.byte	0x74
 10231 04bc 0C       		.sleb128 12
 10232 04bd 94       		.byte	0x94
 10233 04be 01       		.byte	0x1
 10234 04bf 08       		.byte	0x8
 10235 04c0 FF       		.byte	0xff
 10236 04c1 1A       		.byte	0x1a
 10237 04c2 9F       		.byte	0x9f
 10238 04c3 78000000 		.4byte	.LVL87
 10239 04c7 7F000000 		.4byte	.LVL88-1
 10240 04cb 0800     		.2byte	0x8
 10241 04cd 74       		.byte	0x74
 10242 04ce 0C       		.sleb128 12
 10243 04cf 94       		.byte	0x94
 10244 04d0 01       		.byte	0x1
 10245 04d1 08       		.byte	0x8
 10246 04d2 FF       		.byte	0xff
 10247 04d3 1A       		.byte	0x1a
 10248 04d4 9F       		.byte	0x9f
 10249 04d5 82000000 		.4byte	.LVL89
 10250 04d9 89000000 		.4byte	.LVL90-1
 10251 04dd 0800     		.2byte	0x8
 10252 04df 74       		.byte	0x74
 10253 04e0 0C       		.sleb128 12
 10254 04e1 94       		.byte	0x94
 10255 04e2 01       		.byte	0x1
 10256 04e3 08       		.byte	0x8
 10257 04e4 FF       		.byte	0xff
 10258 04e5 1A       		.byte	0x1a
 10259 04e6 9F       		.byte	0x9f
 10260 04e7 8C000000 		.4byte	.LVL91
 10261 04eb 96000000 		.4byte	.LVL92
 10262 04ef 0800     		.2byte	0x8
 10263 04f1 74       		.byte	0x74
 10264 04f2 0C       		.sleb128 12
 10265 04f3 94       		.byte	0x94
 10266 04f4 01       		.byte	0x1
ARM GAS  C:\Users\jo\AppData\Local\Temp\ccT06EVW.s 			page 184


 10267 04f5 08       		.byte	0x8
 10268 04f6 FF       		.byte	0xff
 10269 04f7 1A       		.byte	0x1a
 10270 04f8 9F       		.byte	0x9f
 10271 04f9 00000000 		.4byte	0
 10272 04fd 00000000 		.4byte	0
 10273              	.LLST21:
 10274 0501 16000000 		.4byte	.LVL68
 10275 0505 28000000 		.4byte	.LVL74
 10276 0509 0100     		.2byte	0x1
 10277 050b 57       		.byte	0x57
 10278 050c 38000000 		.4byte	.LVL76
 10279 0510 58000000 		.4byte	.LVL82
 10280 0514 0100     		.2byte	0x1
 10281 0516 57       		.byte	0x57
 10282 0517 78000000 		.4byte	.LVL87
 10283 051b A6000000 		.4byte	.LVL95
 10284 051f 0100     		.2byte	0x1
 10285 0521 57       		.byte	0x57
 10286 0522 00000000 		.4byte	0
 10287 0526 00000000 		.4byte	0
 10288              	.LLST22:
 10289 052a 10000000 		.4byte	.LVL67
 10290 052e 16000000 		.4byte	.LVL68
 10291 0532 0200     		.2byte	0x2
 10292 0534 30       		.byte	0x30
 10293 0535 9F       		.byte	0x9f
 10294 0536 16000000 		.4byte	.LVL68
 10295 053a 22000000 		.4byte	.LVL72
 10296 053e 0100     		.2byte	0x1
 10297 0540 55       		.byte	0x55
 10298 0541 24000000 		.4byte	.LVL73
 10299 0545 4E000000 		.4byte	.LVL79
 10300 0549 0100     		.2byte	0x1
 10301 054b 55       		.byte	0x55
 10302 054c 54000000 		.4byte	.LVL81
 10303 0550 5A000000 		.4byte	.LVL83
 10304 0554 0100     		.2byte	0x1
 10305 0556 55       		.byte	0x55
 10306 0557 5E000000 		.4byte	.LVL84
 10307 055b A6000000 		.4byte	.LVL95
 10308 055f 0100     		.2byte	0x1
 10309 0561 55       		.byte	0x55
 10310 0562 00000000 		.4byte	0
 10311 0566 00000000 		.4byte	0
 10312              	.LLST23:
 10313 056a 16000000 		.4byte	.LVL68
 10314 056e 1C000000 		.4byte	.LVL70
 10315 0572 0200     		.2byte	0x2
 10316 0574 74       		.byte	0x74
 10317 0575 0E       		.sleb128 14
 10318 0576 32000000 		.4byte	.LVL75
 10319 057a 3A000000 		.4byte	.LVL77
 10320 057e 0100     		.2byte	0x1
 10321 0580 53       		.byte	0x53
 10322 0581 3A000000 		.4byte	.LVL77
 10323 0585 51000000 		.4byte	.LVL80-1
ARM GAS  C:\Users\jo\AppData\Local\Temp\ccT06EVW.s 			page 185


 10324 0589 0200     		.2byte	0x2
 10325 058b 74       		.byte	0x74
 10326 058c 0E       		.sleb128 14
 10327 058d 78000000 		.4byte	.LVL87
 10328 0591 7F000000 		.4byte	.LVL88-1
 10329 0595 0200     		.2byte	0x2
 10330 0597 74       		.byte	0x74
 10331 0598 0E       		.sleb128 14
 10332 0599 82000000 		.4byte	.LVL89
 10333 059d 89000000 		.4byte	.LVL90-1
 10334 05a1 0200     		.2byte	0x2
 10335 05a3 74       		.byte	0x74
 10336 05a4 0E       		.sleb128 14
 10337 05a5 8C000000 		.4byte	.LVL91
 10338 05a9 96000000 		.4byte	.LVL92
 10339 05ad 0200     		.2byte	0x2
 10340 05af 74       		.byte	0x74
 10341 05b0 0E       		.sleb128 14
 10342 05b1 00000000 		.4byte	0
 10343 05b5 00000000 		.4byte	0
 10344              	.LLST24:
 10345 05b9 16000000 		.4byte	.LVL68
 10346 05bd 20000000 		.4byte	.LVL71
 10347 05c1 0100     		.2byte	0x1
 10348 05c3 54       		.byte	0x54
 10349 05c4 8C000000 		.4byte	.LVL91
 10350 05c8 A6000000 		.4byte	.LVL95
 10351 05cc 0100     		.2byte	0x1
 10352 05ce 54       		.byte	0x54
 10353 05cf 00000000 		.4byte	0
 10354 05d3 00000000 		.4byte	0
 10355              	.LLST25:
 10356 05d7 9C000000 		.4byte	.LVL93
 10357 05db A6000000 		.4byte	.LVL95
 10358 05df 0600     		.2byte	0x6
 10359 05e1 03       		.byte	0x3
 10360 05e2 E4000000 		.4byte	.LC8
 10361 05e6 9F       		.byte	0x9f
 10362 05e7 00000000 		.4byte	0
 10363 05eb 00000000 		.4byte	0
 10364              	.LLST26:
 10365 05ef 6E000000 		.4byte	.LVL85
 10366 05f3 78000000 		.4byte	.LVL87
 10367 05f7 0600     		.2byte	0x6
 10368 05f9 03       		.byte	0x3
 10369 05fa CC000000 		.4byte	.LC7
 10370 05fe 9F       		.byte	0x9f
 10371 05ff 00000000 		.4byte	0
 10372 0603 00000000 		.4byte	0
 10373              	.LLST27:
 10374 0607 B8000000 		.4byte	.LVL97
 10375 060b C0000000 		.4byte	.LVL99
 10376 060f 0600     		.2byte	0x6
 10377 0611 03       		.byte	0x3
 10378 0612 B4000000 		.4byte	.LC6
 10379 0616 9F       		.byte	0x9f
 10380 0617 00000000 		.4byte	0
ARM GAS  C:\Users\jo\AppData\Local\Temp\ccT06EVW.s 			page 186


 10381 061b 00000000 		.4byte	0
 10382              	.LLST28:
 10383 061f 00000000 		.4byte	.LVL103
 10384 0623 28000000 		.4byte	.LVL105
 10385 0627 0100     		.2byte	0x1
 10386 0629 50       		.byte	0x50
 10387 062a 28000000 		.4byte	.LVL105
 10388 062e EE000000 		.4byte	.LVL118
 10389 0632 0400     		.2byte	0x4
 10390 0634 F3       		.byte	0xf3
 10391 0635 01       		.uleb128 0x1
 10392 0636 50       		.byte	0x50
 10393 0637 9F       		.byte	0x9f
 10394 0638 EE000000 		.4byte	.LVL118
 10395 063c F0000000 		.4byte	.LVL119
 10396 0640 0100     		.2byte	0x1
 10397 0642 50       		.byte	0x50
 10398 0643 F0000000 		.4byte	.LVL119
 10399 0647 0C010000 		.4byte	.LVL121
 10400 064b 0400     		.2byte	0x4
 10401 064d F3       		.byte	0xf3
 10402 064e 01       		.uleb128 0x1
 10403 064f 50       		.byte	0x50
 10404 0650 9F       		.byte	0x9f
 10405 0651 0C010000 		.4byte	.LVL121
 10406 0655 10010000 		.4byte	.LVL122
 10407 0659 0100     		.2byte	0x1
 10408 065b 50       		.byte	0x50
 10409 065c 10010000 		.4byte	.LVL122
 10410 0660 4C010000 		.4byte	.LVL126
 10411 0664 0400     		.2byte	0x4
 10412 0666 F3       		.byte	0xf3
 10413 0667 01       		.uleb128 0x1
 10414 0668 50       		.byte	0x50
 10415 0669 9F       		.byte	0x9f
 10416 066a 4C010000 		.4byte	.LVL126
 10417 066e 62010000 		.4byte	.LVL131
 10418 0672 0100     		.2byte	0x1
 10419 0674 50       		.byte	0x50
 10420 0675 62010000 		.4byte	.LVL131
 10421 0679 78010000 		.4byte	.LVL135
 10422 067d 0400     		.2byte	0x4
 10423 067f F3       		.byte	0xf3
 10424 0680 01       		.uleb128 0x1
 10425 0681 50       		.byte	0x50
 10426 0682 9F       		.byte	0x9f
 10427 0683 78010000 		.4byte	.LVL135
 10428 0687 82010000 		.4byte	.LVL138
 10429 068b 0100     		.2byte	0x1
 10430 068d 50       		.byte	0x50
 10431 068e 82010000 		.4byte	.LVL138
 10432 0692 40020000 		.4byte	.LFE259
 10433 0696 0400     		.2byte	0x4
 10434 0698 F3       		.byte	0xf3
 10435 0699 01       		.uleb128 0x1
 10436 069a 50       		.byte	0x50
 10437 069b 9F       		.byte	0x9f
ARM GAS  C:\Users\jo\AppData\Local\Temp\ccT06EVW.s 			page 187


 10438 069c 00000000 		.4byte	0
 10439 06a0 00000000 		.4byte	0
 10440              	.LLST29:
 10441 06a4 00000000 		.4byte	.LVL103
 10442 06a8 2B000000 		.4byte	.LVL106-1
 10443 06ac 0100     		.2byte	0x1
 10444 06ae 51       		.byte	0x51
 10445 06af 2B000000 		.4byte	.LVL106-1
 10446 06b3 EE000000 		.4byte	.LVL118
 10447 06b7 0400     		.2byte	0x4
 10448 06b9 F3       		.byte	0xf3
 10449 06ba 01       		.uleb128 0x1
 10450 06bb 51       		.byte	0x51
 10451 06bc 9F       		.byte	0x9f
 10452 06bd EE000000 		.4byte	.LVL118
 10453 06c1 F5000000 		.4byte	.LVL120-1
 10454 06c5 0100     		.2byte	0x1
 10455 06c7 51       		.byte	0x51
 10456 06c8 F5000000 		.4byte	.LVL120-1
 10457 06cc 0C010000 		.4byte	.LVL121
 10458 06d0 0400     		.2byte	0x4
 10459 06d2 F3       		.byte	0xf3
 10460 06d3 01       		.uleb128 0x1
 10461 06d4 51       		.byte	0x51
 10462 06d5 9F       		.byte	0x9f
 10463 06d6 0C010000 		.4byte	.LVL121
 10464 06da 21010000 		.4byte	.LVL123-1
 10465 06de 0100     		.2byte	0x1
 10466 06e0 51       		.byte	0x51
 10467 06e1 21010000 		.4byte	.LVL123-1
 10468 06e5 4C010000 		.4byte	.LVL126
 10469 06e9 0400     		.2byte	0x4
 10470 06eb F3       		.byte	0xf3
 10471 06ec 01       		.uleb128 0x1
 10472 06ed 51       		.byte	0x51
 10473 06ee 9F       		.byte	0x9f
 10474 06ef 4C010000 		.4byte	.LVL126
 10475 06f3 5E010000 		.4byte	.LVL129
 10476 06f7 0100     		.2byte	0x1
 10477 06f9 51       		.byte	0x51
 10478 06fa 5E010000 		.4byte	.LVL129
 10479 06fe 78010000 		.4byte	.LVL135
 10480 0702 0400     		.2byte	0x4
 10481 0704 F3       		.byte	0xf3
 10482 0705 01       		.uleb128 0x1
 10483 0706 51       		.byte	0x51
 10484 0707 9F       		.byte	0x9f
 10485 0708 78010000 		.4byte	.LVL135
 10486 070c 7E010000 		.4byte	.LVL136
 10487 0710 0100     		.2byte	0x1
 10488 0712 51       		.byte	0x51
 10489 0713 7E010000 		.4byte	.LVL136
 10490 0717 40020000 		.4byte	.LFE259
 10491 071b 0400     		.2byte	0x4
 10492 071d F3       		.byte	0xf3
 10493 071e 01       		.uleb128 0x1
 10494 071f 51       		.byte	0x51
ARM GAS  C:\Users\jo\AppData\Local\Temp\ccT06EVW.s 			page 188


 10495 0720 9F       		.byte	0x9f
 10496 0721 00000000 		.4byte	0
 10497 0725 00000000 		.4byte	0
 10498              	.LLST30:
 10499 0729 00000000 		.4byte	.LVL103
 10500 072d 2B000000 		.4byte	.LVL106-1
 10501 0731 0100     		.2byte	0x1
 10502 0733 52       		.byte	0x52
 10503 0734 2B000000 		.4byte	.LVL106-1
 10504 0738 EE000000 		.4byte	.LVL118
 10505 073c 0400     		.2byte	0x4
 10506 073e F3       		.byte	0xf3
 10507 073f 01       		.uleb128 0x1
 10508 0740 52       		.byte	0x52
 10509 0741 9F       		.byte	0x9f
 10510 0742 EE000000 		.4byte	.LVL118
 10511 0746 F5000000 		.4byte	.LVL120-1
 10512 074a 0100     		.2byte	0x1
 10513 074c 52       		.byte	0x52
 10514 074d F5000000 		.4byte	.LVL120-1
 10515 0751 0C010000 		.4byte	.LVL121
 10516 0755 0400     		.2byte	0x4
 10517 0757 F3       		.byte	0xf3
 10518 0758 01       		.uleb128 0x1
 10519 0759 52       		.byte	0x52
 10520 075a 9F       		.byte	0x9f
 10521 075b 0C010000 		.4byte	.LVL121
 10522 075f 21010000 		.4byte	.LVL123-1
 10523 0763 0100     		.2byte	0x1
 10524 0765 52       		.byte	0x52
 10525 0766 21010000 		.4byte	.LVL123-1
 10526 076a 4C010000 		.4byte	.LVL126
 10527 076e 0400     		.2byte	0x4
 10528 0770 F3       		.byte	0xf3
 10529 0771 01       		.uleb128 0x1
 10530 0772 52       		.byte	0x52
 10531 0773 9F       		.byte	0x9f
 10532 0774 4C010000 		.4byte	.LVL126
 10533 0778 60010000 		.4byte	.LVL130
 10534 077c 0100     		.2byte	0x1
 10535 077e 52       		.byte	0x52
 10536 077f 60010000 		.4byte	.LVL130
 10537 0783 78010000 		.4byte	.LVL135
 10538 0787 0400     		.2byte	0x4
 10539 0789 F3       		.byte	0xf3
 10540 078a 01       		.uleb128 0x1
 10541 078b 52       		.byte	0x52
 10542 078c 9F       		.byte	0x9f
 10543 078d 78010000 		.4byte	.LVL135
 10544 0791 80010000 		.4byte	.LVL137
 10545 0795 0100     		.2byte	0x1
 10546 0797 52       		.byte	0x52
 10547 0798 80010000 		.4byte	.LVL137
 10548 079c 40020000 		.4byte	.LFE259
 10549 07a0 0400     		.2byte	0x4
 10550 07a2 F3       		.byte	0xf3
 10551 07a3 01       		.uleb128 0x1
ARM GAS  C:\Users\jo\AppData\Local\Temp\ccT06EVW.s 			page 189


 10552 07a4 52       		.byte	0x52
 10553 07a5 9F       		.byte	0x9f
 10554 07a6 00000000 		.4byte	0
 10555 07aa 00000000 		.4byte	0
 10556              	.LLST31:
 10557 07ae 2C000000 		.4byte	.LVL106
 10558 07b2 6C000000 		.4byte	.LVL108
 10559 07b6 0100     		.2byte	0x1
 10560 07b8 50       		.byte	0x50
 10561 07b9 6C000000 		.4byte	.LVL108
 10562 07bd EE000000 		.4byte	.LVL118
 10563 07c1 0100     		.2byte	0x1
 10564 07c3 55       		.byte	0x55
 10565 07c4 F6000000 		.4byte	.LVL120
 10566 07c8 0C010000 		.4byte	.LVL121
 10567 07cc 0100     		.2byte	0x1
 10568 07ce 50       		.byte	0x50
 10569 07cf 22010000 		.4byte	.LVL123
 10570 07d3 3C010000 		.4byte	.LVL125
 10571 07d7 0100     		.2byte	0x1
 10572 07d9 50       		.byte	0x50
 10573 07da 3C010000 		.4byte	.LVL125
 10574 07de 4C010000 		.4byte	.LVL126
 10575 07e2 0100     		.2byte	0x1
 10576 07e4 55       		.byte	0x55
 10577 07e5 96010000 		.4byte	.LVL141
 10578 07e9 AA010000 		.4byte	.LVL144
 10579 07ed 0100     		.2byte	0x1
 10580 07ef 55       		.byte	0x55
 10581 07f0 B2010000 		.4byte	.LVL145
 10582 07f4 E6010000 		.4byte	.LVL151
 10583 07f8 0100     		.2byte	0x1
 10584 07fa 55       		.byte	0x55
 10585 07fb E6010000 		.4byte	.LVL151
 10586 07ff F9010000 		.4byte	.LVL153-1
 10587 0803 0100     		.2byte	0x1
 10588 0805 50       		.byte	0x50
 10589 0806 FE010000 		.4byte	.LVL154
 10590 080a 08020000 		.4byte	.LVL155
 10591 080e 0100     		.2byte	0x1
 10592 0810 50       		.byte	0x50
 10593 0811 08020000 		.4byte	.LVL155
 10594 0815 40020000 		.4byte	.LFE259
 10595 0819 0100     		.2byte	0x1
 10596 081b 55       		.byte	0x55
 10597 081c 00000000 		.4byte	0
 10598 0820 00000000 		.4byte	0
 10599              	.LLST32:
 10600 0824 7E000000 		.4byte	.LVL110
 10601 0828 B2000000 		.4byte	.LVL112
 10602 082c 0100     		.2byte	0x1
 10603 082e 54       		.byte	0x54
 10604 082f B8000000 		.4byte	.LVL113
 10605 0833 DE000000 		.4byte	.LVL115
 10606 0837 0100     		.2byte	0x1
 10607 0839 50       		.byte	0x50
 10608 083a DE000000 		.4byte	.LVL115
ARM GAS  C:\Users\jo\AppData\Local\Temp\ccT06EVW.s 			page 190


 10609 083e EE000000 		.4byte	.LVL118
 10610 0842 0100     		.2byte	0x1
 10611 0844 54       		.byte	0x54
 10612 0845 96010000 		.4byte	.LVL141
 10613 0849 A3010000 		.4byte	.LVL143-1
 10614 084d 0100     		.2byte	0x1
 10615 084f 50       		.byte	0x50
 10616 0850 A3010000 		.4byte	.LVL143-1
 10617 0854 AA010000 		.4byte	.LVL144
 10618 0858 0100     		.2byte	0x1
 10619 085a 54       		.byte	0x54
 10620 085b B2010000 		.4byte	.LVL145
 10621 085f E6010000 		.4byte	.LVL151
 10622 0863 0100     		.2byte	0x1
 10623 0865 54       		.byte	0x54
 10624 0866 00000000 		.4byte	0
 10625 086a 00000000 		.4byte	0
 10626              	.LLST33:
 10627 086e 74000000 		.4byte	.LVL109
 10628 0872 7E000000 		.4byte	.LVL110
 10629 0876 0100     		.2byte	0x1
 10630 0878 55       		.byte	0x55
 10631 0879 AA000000 		.4byte	.LVL111
 10632 087d B2000000 		.4byte	.LVL112
 10633 0881 0100     		.2byte	0x1
 10634 0883 54       		.byte	0x54
 10635 0884 B2000000 		.4byte	.LVL112
 10636 0888 D2000000 		.4byte	.LVL114
 10637 088c 0100     		.2byte	0x1
 10638 088e 57       		.byte	0x57
 10639 088f 96010000 		.4byte	.LVL141
 10640 0893 AA010000 		.4byte	.LVL144
 10641 0897 0100     		.2byte	0x1
 10642 0899 57       		.byte	0x57
 10643 089a 00000000 		.4byte	0
 10644 089e 00000000 		.4byte	0
 10645              	.LLST34:
 10646 08a2 18000000 		.4byte	.LVL104
 10647 08a6 42000000 		.4byte	.LVL107
 10648 08aa 0100     		.2byte	0x1
 10649 08ac 54       		.byte	0x54
 10650 08ad EE000000 		.4byte	.LVL118
 10651 08b1 2A010000 		.4byte	.LVL124
 10652 08b5 0100     		.2byte	0x1
 10653 08b7 54       		.byte	0x54
 10654 08b8 54010000 		.4byte	.LVL127
 10655 08bc 58010000 		.4byte	.LVL128
 10656 08c0 0200     		.2byte	0x2
 10657 08c2 30       		.byte	0x30
 10658 08c3 9F       		.byte	0x9f
 10659 08c4 58010000 		.4byte	.LVL128
 10660 08c8 78010000 		.4byte	.LVL135
 10661 08cc 0100     		.2byte	0x1
 10662 08ce 54       		.byte	0x54
 10663 08cf E6010000 		.4byte	.LVL151
 10664 08d3 FE010000 		.4byte	.LVL154
 10665 08d7 0100     		.2byte	0x1
ARM GAS  C:\Users\jo\AppData\Local\Temp\ccT06EVW.s 			page 191


 10666 08d9 54       		.byte	0x54
 10667 08da 00000000 		.4byte	0
 10668 08de 00000000 		.4byte	0
 10669              	.LLST35:
 10670 08e2 74000000 		.4byte	.LVL109
 10671 08e6 EE000000 		.4byte	.LVL118
 10672 08ea 0100     		.2byte	0x1
 10673 08ec 56       		.byte	0x56
 10674 08ed 96010000 		.4byte	.LVL141
 10675 08f1 AA010000 		.4byte	.LVL144
 10676 08f5 0100     		.2byte	0x1
 10677 08f7 56       		.byte	0x56
 10678 08f8 B2010000 		.4byte	.LVL145
 10679 08fc E6010000 		.4byte	.LVL151
 10680 0900 0100     		.2byte	0x1
 10681 0902 56       		.byte	0x56
 10682 0903 00000000 		.4byte	0
 10683 0907 00000000 		.4byte	0
 10684              	.LLST36:
 10685 090b E6000000 		.4byte	.LVL116
 10686 090f EE000000 		.4byte	.LVL118
 10687 0913 0600     		.2byte	0x6
 10688 0915 03       		.byte	0x3
 10689 0916 58010000 		.4byte	.LC11
 10690 091a 9F       		.byte	0x9f
 10691 091b 00000000 		.4byte	0
 10692 091f 00000000 		.4byte	0
 10693              	.LLST37:
 10694 0923 6A010000 		.4byte	.LVL132
 10695 0927 72010000 		.4byte	.LVL134
 10696 092b 0600     		.2byte	0x6
 10697 092d 03       		.byte	0x3
 10698 092e 9C010000 		.4byte	.LC13
 10699 0932 9F       		.byte	0x9f
 10700 0933 00000000 		.4byte	0
 10701 0937 00000000 		.4byte	0
 10702              	.LLST38:
 10703 093b 88010000 		.4byte	.LVL139
 10704 093f 96010000 		.4byte	.LVL141
 10705 0943 0600     		.2byte	0x6
 10706 0945 03       		.byte	0x3
 10707 0946 08010000 		.4byte	.LC9
 10708 094a 9F       		.byte	0x9f
 10709 094b 00000000 		.4byte	0
 10710 094f 00000000 		.4byte	0
 10711              	.LLST39:
 10712 0953 9A010000 		.4byte	.LVL142
 10713 0957 A3010000 		.4byte	.LVL143-1
 10714 095b 0100     		.2byte	0x1
 10715 095d 52       		.byte	0x52
 10716 095e 00000000 		.4byte	0
 10717 0962 00000000 		.4byte	0
 10718              	.LLST40:
 10719 0966 C4010000 		.4byte	.LVL146
 10720 096a CC010000 		.4byte	.LVL148
 10721 096e 0600     		.2byte	0x6
 10722 0970 03       		.byte	0x3
ARM GAS  C:\Users\jo\AppData\Local\Temp\ccT06EVW.s 			page 192


 10723 0971 24010000 		.4byte	.LC10
 10724 0975 9F       		.byte	0x9f
 10725 0976 00000000 		.4byte	0
 10726 097a 00000000 		.4byte	0
 10727              	.LLST41:
 10728 097e DE010000 		.4byte	.LVL149
 10729 0982 E6010000 		.4byte	.LVL151
 10730 0986 0600     		.2byte	0x6
 10731 0988 03       		.byte	0x3
 10732 0989 6C010000 		.4byte	.LC12
 10733 098d 9F       		.byte	0x9f
 10734 098e 00000000 		.4byte	0
 10735 0992 00000000 		.4byte	0
 10736              	.LLST42:
 10737 0996 EA010000 		.4byte	.LVL152
 10738 099a F9010000 		.4byte	.LVL153-1
 10739 099e 0100     		.2byte	0x1
 10740 09a0 53       		.byte	0x53
 10741 09a1 00000000 		.4byte	0
 10742 09a5 00000000 		.4byte	0
 10743              	.LLST43:
 10744 09a9 00000000 		.4byte	.LVL158
 10745 09ad 0C000000 		.4byte	.LVL159
 10746 09b1 0100     		.2byte	0x1
 10747 09b3 50       		.byte	0x50
 10748 09b4 0C000000 		.4byte	.LVL159
 10749 09b8 36000000 		.4byte	.LVL163
 10750 09bc 0100     		.2byte	0x1
 10751 09be 54       		.byte	0x54
 10752 09bf 36000000 		.4byte	.LVL163
 10753 09c3 C0000000 		.4byte	.LVL178
 10754 09c7 0400     		.2byte	0x4
 10755 09c9 F3       		.byte	0xf3
 10756 09ca 01       		.uleb128 0x1
 10757 09cb 50       		.byte	0x50
 10758 09cc 9F       		.byte	0x9f
 10759 09cd C0000000 		.4byte	.LVL178
 10760 09d1 CA000000 		.4byte	.LVL180
 10761 09d5 0100     		.2byte	0x1
 10762 09d7 50       		.byte	0x50
 10763 09d8 CA000000 		.4byte	.LVL180
 10764 09dc DA000000 		.4byte	.LVL183
 10765 09e0 0100     		.2byte	0x1
 10766 09e2 54       		.byte	0x54
 10767 09e3 DA000000 		.4byte	.LVL183
 10768 09e7 18010000 		.4byte	.LFE261
 10769 09eb 0400     		.2byte	0x4
 10770 09ed F3       		.byte	0xf3
 10771 09ee 01       		.uleb128 0x1
 10772 09ef 50       		.byte	0x50
 10773 09f0 9F       		.byte	0x9f
 10774 09f1 00000000 		.4byte	0
 10775 09f5 00000000 		.4byte	0
 10776              	.LLST44:
 10777 09f9 00000000 		.4byte	.LVL158
 10778 09fd 0C000000 		.4byte	.LVL159
 10779 0a01 0100     		.2byte	0x1
ARM GAS  C:\Users\jo\AppData\Local\Temp\ccT06EVW.s 			page 193


 10780 0a03 51       		.byte	0x51
 10781 0a04 0C000000 		.4byte	.LVL159
 10782 0a08 C0000000 		.4byte	.LVL178
 10783 0a0c 0400     		.2byte	0x4
 10784 0a0e F3       		.byte	0xf3
 10785 0a0f 01       		.uleb128 0x1
 10786 0a10 51       		.byte	0x51
 10787 0a11 9F       		.byte	0x9f
 10788 0a12 C0000000 		.4byte	.LVL178
 10789 0a16 C6000000 		.4byte	.LVL179
 10790 0a1a 0100     		.2byte	0x1
 10791 0a1c 51       		.byte	0x51
 10792 0a1d C6000000 		.4byte	.LVL179
 10793 0a21 18010000 		.4byte	.LFE261
 10794 0a25 0400     		.2byte	0x4
 10795 0a27 F3       		.byte	0xf3
 10796 0a28 01       		.uleb128 0x1
 10797 0a29 51       		.byte	0x51
 10798 0a2a 9F       		.byte	0x9f
 10799 0a2b 00000000 		.4byte	0
 10800 0a2f 00000000 		.4byte	0
 10801              	.LLST45:
 10802 0a33 32000000 		.4byte	.LVL162
 10803 0a37 A8000000 		.4byte	.LVL174
 10804 0a3b 0100     		.2byte	0x1
 10805 0a3d 54       		.byte	0x54
 10806 0a3e A8000000 		.4byte	.LVL174
 10807 0a42 AC000000 		.4byte	.LVL175
 10808 0a46 0100     		.2byte	0x1
 10809 0a48 50       		.byte	0x50
 10810 0a49 AC000000 		.4byte	.LVL175
 10811 0a4d BC000000 		.4byte	.LVL177
 10812 0a51 0100     		.2byte	0x1
 10813 0a53 56       		.byte	0x56
 10814 0a54 DA000000 		.4byte	.LVL183
 10815 0a58 E4000000 		.4byte	.LVL184
 10816 0a5c 0100     		.2byte	0x1
 10817 0a5e 50       		.byte	0x50
 10818 0a5f E4000000 		.4byte	.LVL184
 10819 0a63 F2000000 		.4byte	.LVL186
 10820 0a67 0100     		.2byte	0x1
 10821 0a69 56       		.byte	0x56
 10822 0a6a F2000000 		.4byte	.LVL186
 10823 0a6e 18010000 		.4byte	.LFE261
 10824 0a72 0200     		.2byte	0x2
 10825 0a74 30       		.byte	0x30
 10826 0a75 9F       		.byte	0x9f
 10827 0a76 00000000 		.4byte	0
 10828 0a7a 00000000 		.4byte	0
 10829              	.LLST46:
 10830 0a7e 32000000 		.4byte	.LVL162
 10831 0a82 BC000000 		.4byte	.LVL177
 10832 0a86 0100     		.2byte	0x1
 10833 0a88 55       		.byte	0x55
 10834 0a89 DA000000 		.4byte	.LVL183
 10835 0a8d 18010000 		.4byte	.LFE261
 10836 0a91 0100     		.2byte	0x1
ARM GAS  C:\Users\jo\AppData\Local\Temp\ccT06EVW.s 			page 194


 10837 0a93 55       		.byte	0x55
 10838 0a94 00000000 		.4byte	0
 10839 0a98 00000000 		.4byte	0
 10840              	.LLST47:
 10841 0a9c 32000000 		.4byte	.LVL162
 10842 0aa0 94000000 		.4byte	.LVL173
 10843 0aa4 0100     		.2byte	0x1
 10844 0aa6 56       		.byte	0x56
 10845 0aa7 00000000 		.4byte	0
 10846 0aab 00000000 		.4byte	0
 10847              	.LLST48:
 10848 0aaf 24000000 		.4byte	.LVL160
 10849 0ab3 2A000000 		.4byte	.LVL161
 10850 0ab7 0600     		.2byte	0x6
 10851 0ab9 03       		.byte	0x3
 10852 0aba D0010000 		.4byte	.LC15
 10853 0abe 9F       		.byte	0x9f
 10854 0abf 00000000 		.4byte	0
 10855 0ac3 00000000 		.4byte	0
 10856              	.LLST49:
 10857 0ac7 62000000 		.4byte	.LVL166
 10858 0acb 74000000 		.4byte	.LVL169
 10859 0acf 0600     		.2byte	0x6
 10860 0ad1 03       		.byte	0x3
 10861 0ad2 EC010000 		.4byte	.LC16
 10862 0ad6 9F       		.byte	0x9f
 10863 0ad7 00000000 		.4byte	0
 10864 0adb 00000000 		.4byte	0
 10865              	.LLST50:
 10866 0adf 84000000 		.4byte	.LVL170
 10867 0ae3 90000000 		.4byte	.LVL172
 10868 0ae7 0600     		.2byte	0x6
 10869 0ae9 03       		.byte	0x3
 10870 0aea 00020000 		.4byte	.LC17
 10871 0aee 9F       		.byte	0x9f
 10872 0aef 00000000 		.4byte	0
 10873 0af3 00000000 		.4byte	0
 10874              	.LLST51:
 10875 0af7 D2000000 		.4byte	.LVL181
 10876 0afb DA000000 		.4byte	.LVL183
 10877 0aff 0600     		.2byte	0x6
 10878 0b01 03       		.byte	0x3
 10879 0b02 B8010000 		.4byte	.LC14
 10880 0b06 9F       		.byte	0x9f
 10881 0b07 00000000 		.4byte	0
 10882 0b0b 00000000 		.4byte	0
 10883              	.LLST52:
 10884 0b0f 00000000 		.4byte	.LVL187
 10885 0b13 06000000 		.4byte	.LVL188
 10886 0b17 0100     		.2byte	0x1
 10887 0b19 50       		.byte	0x50
 10888 0b1a 06000000 		.4byte	.LVL188
 10889 0b1e 08000000 		.4byte	.LVL189
 10890 0b22 0100     		.2byte	0x1
 10891 0b24 53       		.byte	0x53
 10892 0b25 0C000000 		.4byte	.LVL191
 10893 0b29 12000000 		.4byte	.LVL192
ARM GAS  C:\Users\jo\AppData\Local\Temp\ccT06EVW.s 			page 195


 10894 0b2d 0100     		.2byte	0x1
 10895 0b2f 53       		.byte	0x53
 10896 0b30 12000000 		.4byte	.LVL192
 10897 0b34 14000000 		.4byte	.LFE264
 10898 0b38 0100     		.2byte	0x1
 10899 0b3a 50       		.byte	0x50
 10900 0b3b 00000000 		.4byte	0
 10901 0b3f 00000000 		.4byte	0
 10902              	.LLST53:
 10903 0b43 00000000 		.4byte	.LVL187
 10904 0b47 06000000 		.4byte	.LVL188
 10905 0b4b 0200     		.2byte	0x2
 10906 0b4d 30       		.byte	0x30
 10907 0b4e 9F       		.byte	0x9f
 10908 0b4f 06000000 		.4byte	.LVL188
 10909 0b53 0A000000 		.4byte	.LVL190
 10910 0b57 0100     		.2byte	0x1
 10911 0b59 50       		.byte	0x50
 10912 0b5a 0C000000 		.4byte	.LVL191
 10913 0b5e 12000000 		.4byte	.LVL192
 10914 0b62 0100     		.2byte	0x1
 10915 0b64 50       		.byte	0x50
 10916 0b65 12000000 		.4byte	.LVL192
 10917 0b69 14000000 		.4byte	.LFE264
 10918 0b6d 0200     		.2byte	0x2
 10919 0b6f 30       		.byte	0x30
 10920 0b70 9F       		.byte	0x9f
 10921 0b71 00000000 		.4byte	0
 10922 0b75 00000000 		.4byte	0
 10923              	.LLST54:
 10924 0b79 00000000 		.4byte	.LVL194
 10925 0b7d 14000000 		.4byte	.LVL196
 10926 0b81 0100     		.2byte	0x1
 10927 0b83 50       		.byte	0x50
 10928 0b84 14000000 		.4byte	.LVL196
 10929 0b88 6E000000 		.4byte	.LVL205
 10930 0b8c 0400     		.2byte	0x4
 10931 0b8e F3       		.byte	0xf3
 10932 0b8f 01       		.uleb128 0x1
 10933 0b90 50       		.byte	0x50
 10934 0b91 9F       		.byte	0x9f
 10935 0b92 6E000000 		.4byte	.LVL205
 10936 0b96 78000000 		.4byte	.LVL207
 10937 0b9a 0100     		.2byte	0x1
 10938 0b9c 50       		.byte	0x50
 10939 0b9d 78000000 		.4byte	.LVL207
 10940 0ba1 8C000000 		.4byte	.LVL209
 10941 0ba5 0400     		.2byte	0x4
 10942 0ba7 F3       		.byte	0xf3
 10943 0ba8 01       		.uleb128 0x1
 10944 0ba9 50       		.byte	0x50
 10945 0baa 9F       		.byte	0x9f
 10946 0bab 8C000000 		.4byte	.LVL209
 10947 0baf A8000000 		.4byte	.LFE266
 10948 0bb3 0100     		.2byte	0x1
 10949 0bb5 50       		.byte	0x50
 10950 0bb6 00000000 		.4byte	0
ARM GAS  C:\Users\jo\AppData\Local\Temp\ccT06EVW.s 			page 196


 10951 0bba 00000000 		.4byte	0
 10952              	.LLST55:
 10953 0bbe 00000000 		.4byte	.LVL194
 10954 0bc2 14000000 		.4byte	.LVL196
 10955 0bc6 0100     		.2byte	0x1
 10956 0bc8 51       		.byte	0x51
 10957 0bc9 14000000 		.4byte	.LVL196
 10958 0bcd 6E000000 		.4byte	.LVL205
 10959 0bd1 0100     		.2byte	0x1
 10960 0bd3 55       		.byte	0x55
 10961 0bd4 6E000000 		.4byte	.LVL205
 10962 0bd8 74000000 		.4byte	.LVL206
 10963 0bdc 0100     		.2byte	0x1
 10964 0bde 51       		.byte	0x51
 10965 0bdf 74000000 		.4byte	.LVL206
 10966 0be3 8C000000 		.4byte	.LVL209
 10967 0be7 0400     		.2byte	0x4
 10968 0be9 F3       		.byte	0xf3
 10969 0bea 01       		.uleb128 0x1
 10970 0beb 51       		.byte	0x51
 10971 0bec 9F       		.byte	0x9f
 10972 0bed 8C000000 		.4byte	.LVL209
 10973 0bf1 A8000000 		.4byte	.LFE266
 10974 0bf5 0100     		.2byte	0x1
 10975 0bf7 51       		.byte	0x51
 10976 0bf8 00000000 		.4byte	0
 10977 0bfc 00000000 		.4byte	0
 10978              	.LLST56:
 10979 0c00 0E000000 		.4byte	.LVL195
 10980 0c04 20000000 		.4byte	.LVL197
 10981 0c08 0100     		.2byte	0x1
 10982 0c0a 50       		.byte	0x50
 10983 0c0b 20000000 		.4byte	.LVL197
 10984 0c0f 26000000 		.4byte	.LVL198
 10985 0c13 0100     		.2byte	0x1
 10986 0c15 54       		.byte	0x54
 10987 0c16 26000000 		.4byte	.LVL198
 10988 0c1a 3C000000 		.4byte	.LVL199
 10989 0c1e 0100     		.2byte	0x1
 10990 0c20 50       		.byte	0x50
 10991 0c21 3C000000 		.4byte	.LVL199
 10992 0c25 6E000000 		.4byte	.LVL205
 10993 0c29 0100     		.2byte	0x1
 10994 0c2b 54       		.byte	0x54
 10995 0c2c 8C000000 		.4byte	.LVL209
 10996 0c30 A8000000 		.4byte	.LFE266
 10997 0c34 0100     		.2byte	0x1
 10998 0c36 50       		.byte	0x50
 10999 0c37 00000000 		.4byte	0
 11000 0c3b 00000000 		.4byte	0
 11001              	.LLST57:
 11002 0c3f 40000000 		.4byte	.LVL200
 11003 0c43 62000000 		.4byte	.LVL204
 11004 0c47 0600     		.2byte	0x6
 11005 0c49 03       		.byte	0x3
 11006 0c4a 6C020000 		.4byte	.LC20
 11007 0c4e 9F       		.byte	0x9f
ARM GAS  C:\Users\jo\AppData\Local\Temp\ccT06EVW.s 			page 197


 11008 0c4f 00000000 		.4byte	0
 11009 0c53 00000000 		.4byte	0
 11010              	.LLST58:
 11011 0c57 5A000000 		.4byte	.LVL202
 11012 0c5b 60000000 		.4byte	.LVL203
 11013 0c5f 0600     		.2byte	0x6
 11014 0c61 03       		.byte	0x3
 11015 0c62 9C020000 		.4byte	.LC21
 11016 0c66 9F       		.byte	0x9f
 11017 0c67 00000000 		.4byte	0
 11018 0c6b 00000000 		.4byte	0
 11019              	.LLST59:
 11020 0c6f 80000000 		.4byte	.LVL208
 11021 0c73 8C000000 		.4byte	.LVL209
 11022 0c77 0600     		.2byte	0x6
 11023 0c79 03       		.byte	0x3
 11024 0c7a 34020000 		.4byte	.LC19
 11025 0c7e 9F       		.byte	0x9f
 11026 0c7f 00000000 		.4byte	0
 11027 0c83 00000000 		.4byte	0
 11028              	.LLST60:
 11029 0c87 00000000 		.4byte	.LVL210
 11030 0c8b 07000000 		.4byte	.LVL211-1
 11031 0c8f 0100     		.2byte	0x1
 11032 0c91 50       		.byte	0x50
 11033 0c92 07000000 		.4byte	.LVL211-1
 11034 0c96 12000000 		.4byte	.LFE267
 11035 0c9a 0400     		.2byte	0x4
 11036 0c9c F3       		.byte	0xf3
 11037 0c9d 01       		.uleb128 0x1
 11038 0c9e 50       		.byte	0x50
 11039 0c9f 9F       		.byte	0x9f
 11040 0ca0 00000000 		.4byte	0
 11041 0ca4 00000000 		.4byte	0
 11042              	.LLST61:
 11043 0ca8 00000000 		.4byte	.LVL210
 11044 0cac 07000000 		.4byte	.LVL211-1
 11045 0cb0 0100     		.2byte	0x1
 11046 0cb2 51       		.byte	0x51
 11047 0cb3 07000000 		.4byte	.LVL211-1
 11048 0cb7 12000000 		.4byte	.LFE267
 11049 0cbb 0100     		.2byte	0x1
 11050 0cbd 54       		.byte	0x54
 11051 0cbe 00000000 		.4byte	0
 11052 0cc2 00000000 		.4byte	0
 11053              	.LLST62:
 11054 0cc6 00000000 		.4byte	.LVL212
 11055 0cca 22000000 		.4byte	.LVL214
 11056 0cce 0100     		.2byte	0x1
 11057 0cd0 50       		.byte	0x50
 11058 0cd1 22000000 		.4byte	.LVL214
 11059 0cd5 74000000 		.4byte	.LVL225
 11060 0cd9 0100     		.2byte	0x1
 11061 0cdb 54       		.byte	0x54
 11062 0cdc 74000000 		.4byte	.LVL225
 11063 0ce0 94000000 		.4byte	.LFE268
 11064 0ce4 0100     		.2byte	0x1
ARM GAS  C:\Users\jo\AppData\Local\Temp\ccT06EVW.s 			page 198


 11065 0ce6 50       		.byte	0x50
 11066 0ce7 00000000 		.4byte	0
 11067 0ceb 00000000 		.4byte	0
 11068              	.LLST63:
 11069 0cef 04000000 		.4byte	.LVL213
 11070 0cf3 6A000000 		.4byte	.LVL223
 11071 0cf7 0100     		.2byte	0x1
 11072 0cf9 55       		.byte	0x55
 11073 0cfa 6A000000 		.4byte	.LVL223
 11074 0cfe 6E000000 		.4byte	.LVL224
 11075 0d02 0100     		.2byte	0x1
 11076 0d04 50       		.byte	0x50
 11077 0d05 6E000000 		.4byte	.LVL224
 11078 0d09 94000000 		.4byte	.LFE268
 11079 0d0d 0100     		.2byte	0x1
 11080 0d0f 55       		.byte	0x55
 11081 0d10 00000000 		.4byte	0
 11082 0d14 00000000 		.4byte	0
 11083              	.LLST64:
 11084 0d18 00000000 		.4byte	.LVL212
 11085 0d1c 4C000000 		.4byte	.LVL219
 11086 0d20 0200     		.2byte	0x2
 11087 0d22 31       		.byte	0x31
 11088 0d23 9F       		.byte	0x9f
 11089 0d24 4C000000 		.4byte	.LVL219
 11090 0d28 4E000000 		.4byte	.LVL220
 11091 0d2c 0100     		.2byte	0x1
 11092 0d2e 56       		.byte	0x56
 11093 0d2f 74000000 		.4byte	.LVL225
 11094 0d33 94000000 		.4byte	.LFE268
 11095 0d37 0200     		.2byte	0x2
 11096 0d39 31       		.byte	0x31
 11097 0d3a 9F       		.byte	0x9f
 11098 0d3b 00000000 		.4byte	0
 11099 0d3f 00000000 		.4byte	0
 11100              	.LLST65:
 11101 0d43 2A000000 		.4byte	.LVL215
 11102 0d47 36000000 		.4byte	.LVL217
 11103 0d4b 0600     		.2byte	0x6
 11104 0d4d 03       		.byte	0x3
 11105 0d4e AC020000 		.4byte	.LC22
 11106 0d52 9F       		.byte	0x9f
 11107 0d53 00000000 		.4byte	0
 11108 0d57 00000000 		.4byte	0
 11109              	.LLST66:
 11110 0d5b 60000000 		.4byte	.LVL221
 11111 0d5f 66000000 		.4byte	.LVL222
 11112 0d63 0600     		.2byte	0x6
 11113 0d65 03       		.byte	0x3
 11114 0d66 D0020000 		.4byte	.LC23
 11115 0d6a 9F       		.byte	0x9f
 11116 0d6b 00000000 		.4byte	0
 11117 0d6f 00000000 		.4byte	0
 11118              	.LLST67:
 11119 0d73 00000000 		.4byte	.LVL226
 11120 0d77 2C000000 		.4byte	.LVL227
 11121 0d7b 0100     		.2byte	0x1
ARM GAS  C:\Users\jo\AppData\Local\Temp\ccT06EVW.s 			page 199


 11122 0d7d 50       		.byte	0x50
 11123 0d7e 2C000000 		.4byte	.LVL227
 11124 0d82 58010000 		.4byte	.LVL259
 11125 0d86 0100     		.2byte	0x1
 11126 0d88 58       		.byte	0x58
 11127 0d89 58010000 		.4byte	.LVL259
 11128 0d8d 62010000 		.4byte	.LVL261
 11129 0d91 0100     		.2byte	0x1
 11130 0d93 50       		.byte	0x50
 11131 0d94 62010000 		.4byte	.LVL261
 11132 0d98 94010000 		.4byte	.LFE269
 11133 0d9c 0100     		.2byte	0x1
 11134 0d9e 58       		.byte	0x58
 11135 0d9f 00000000 		.4byte	0
 11136 0da3 00000000 		.4byte	0
 11137              	.LLST68:
 11138 0da7 00000000 		.4byte	.LVL226
 11139 0dab 2C000000 		.4byte	.LVL227
 11140 0daf 0100     		.2byte	0x1
 11141 0db1 51       		.byte	0x51
 11142 0db2 2C000000 		.4byte	.LVL227
 11143 0db6 B4000000 		.4byte	.LVL240
 11144 0dba 0100     		.2byte	0x1
 11145 0dbc 55       		.byte	0x55
 11146 0dbd BC000000 		.4byte	.LVL241
 11147 0dc1 0E010000 		.4byte	.LVL250
 11148 0dc5 0100     		.2byte	0x1
 11149 0dc7 55       		.byte	0x55
 11150 0dc8 16010000 		.4byte	.LVL251
 11151 0dcc 34010000 		.4byte	.LVL254
 11152 0dd0 0100     		.2byte	0x1
 11153 0dd2 55       		.byte	0x55
 11154 0dd3 36010000 		.4byte	.LVL255
 11155 0dd7 50010000 		.4byte	.LVL258
 11156 0ddb 0100     		.2byte	0x1
 11157 0ddd 55       		.byte	0x55
 11158 0dde 58010000 		.4byte	.LVL259
 11159 0de2 5E010000 		.4byte	.LVL260
 11160 0de6 0100     		.2byte	0x1
 11161 0de8 51       		.byte	0x51
 11162 0de9 5E010000 		.4byte	.LVL260
 11163 0ded 94010000 		.4byte	.LFE269
 11164 0df1 0400     		.2byte	0x4
 11165 0df3 F3       		.byte	0xf3
 11166 0df4 01       		.uleb128 0x1
 11167 0df5 51       		.byte	0x51
 11168 0df6 9F       		.byte	0x9f
 11169 0df7 00000000 		.4byte	0
 11170 0dfb 00000000 		.4byte	0
 11171              	.LLST69:
 11172 0dff 00000000 		.4byte	.LVL226
 11173 0e03 2C000000 		.4byte	.LVL227
 11174 0e07 0200     		.2byte	0x2
 11175 0e09 30       		.byte	0x30
 11176 0e0a 9F       		.byte	0x9f
 11177 0e0b 2C000000 		.4byte	.LVL227
 11178 0e0f 4C000000 		.4byte	.LVL230
ARM GAS  C:\Users\jo\AppData\Local\Temp\ccT06EVW.s 			page 200


 11179 0e13 0100     		.2byte	0x1
 11180 0e15 56       		.byte	0x56
 11181 0e16 52000000 		.4byte	.LVL231
 11182 0e1a 98000000 		.4byte	.LVL237
 11183 0e1e 0100     		.2byte	0x1
 11184 0e20 56       		.byte	0x56
 11185 0e21 98000000 		.4byte	.LVL237
 11186 0e25 A4000000 		.4byte	.LVL239
 11187 0e29 0200     		.2byte	0x2
 11188 0e2b 30       		.byte	0x30
 11189 0e2c 9F       		.byte	0x9f
 11190 0e2d A4000000 		.4byte	.LVL239
 11191 0e31 B4000000 		.4byte	.LVL240
 11192 0e35 0100     		.2byte	0x1
 11193 0e37 56       		.byte	0x56
 11194 0e38 BC000000 		.4byte	.LVL241
 11195 0e3c 16010000 		.4byte	.LVL251
 11196 0e40 0100     		.2byte	0x1
 11197 0e42 56       		.byte	0x56
 11198 0e43 16010000 		.4byte	.LVL251
 11199 0e47 36010000 		.4byte	.LVL255
 11200 0e4b 0200     		.2byte	0x2
 11201 0e4d 30       		.byte	0x30
 11202 0e4e 9F       		.byte	0x9f
 11203 0e4f 36010000 		.4byte	.LVL255
 11204 0e53 58010000 		.4byte	.LVL259
 11205 0e57 0100     		.2byte	0x1
 11206 0e59 56       		.byte	0x56
 11207 0e5a 58010000 		.4byte	.LVL259
 11208 0e5e 94010000 		.4byte	.LFE269
 11209 0e62 0200     		.2byte	0x2
 11210 0e64 30       		.byte	0x30
 11211 0e65 9F       		.byte	0x9f
 11212 0e66 00000000 		.4byte	0
 11213 0e6a 00000000 		.4byte	0
 11214              	.LLST70:
 11215 0e6e 00000000 		.4byte	.LVL226
 11216 0e72 2C000000 		.4byte	.LVL227
 11217 0e76 0200     		.2byte	0x2
 11218 0e78 30       		.byte	0x30
 11219 0e79 9F       		.byte	0x9f
 11220 0e7a 2C000000 		.4byte	.LVL227
 11221 0e7e 64000000 		.4byte	.LVL234
 11222 0e82 0100     		.2byte	0x1
 11223 0e84 59       		.byte	0x59
 11224 0e85 64000000 		.4byte	.LVL234
 11225 0e89 70000000 		.4byte	.LVL236
 11226 0e8d 0200     		.2byte	0x2
 11227 0e8f 30       		.byte	0x30
 11228 0e90 9F       		.byte	0x9f
 11229 0e91 70000000 		.4byte	.LVL236
 11230 0e95 B4000000 		.4byte	.LVL240
 11231 0e99 0100     		.2byte	0x1
 11232 0e9b 59       		.byte	0x59
 11233 0e9c BC000000 		.4byte	.LVL241
 11234 0ea0 58010000 		.4byte	.LVL259
 11235 0ea4 0100     		.2byte	0x1
ARM GAS  C:\Users\jo\AppData\Local\Temp\ccT06EVW.s 			page 201


 11236 0ea6 59       		.byte	0x59
 11237 0ea7 58010000 		.4byte	.LVL259
 11238 0eab 94010000 		.4byte	.LFE269
 11239 0eaf 0200     		.2byte	0x2
 11240 0eb1 30       		.byte	0x30
 11241 0eb2 9F       		.byte	0x9f
 11242 0eb3 00000000 		.4byte	0
 11243 0eb7 00000000 		.4byte	0
 11244              	.LLST71:
 11245 0ebb 40000000 		.4byte	.LVL228
 11246 0ebf 54000000 		.4byte	.LVL232
 11247 0ec3 0100     		.2byte	0x1
 11248 0ec5 54       		.byte	0x54
 11249 0ec6 00000000 		.4byte	0
 11250 0eca 00000000 		.4byte	0
 11251              	.LLST72:
 11252 0ece CC000000 		.4byte	.LVL242
 11253 0ed2 D6000000 		.4byte	.LVL244
 11254 0ed6 0600     		.2byte	0x6
 11255 0ed8 03       		.byte	0x3
 11256 0ed9 30030000 		.4byte	.LC26
 11257 0edd 9F       		.byte	0x9f
 11258 0ede 00000000 		.4byte	0
 11259 0ee2 00000000 		.4byte	0
 11260              	.LLST73:
 11261 0ee6 E6000000 		.4byte	.LVL245
 11262 0eea EE000000 		.4byte	.LVL247
 11263 0eee 0600     		.2byte	0x6
 11264 0ef0 03       		.byte	0x3
 11265 0ef1 18030000 		.4byte	.LC25
 11266 0ef5 9F       		.byte	0x9f
 11267 0ef6 00000000 		.4byte	0
 11268 0efa 00000000 		.4byte	0
 11269              	.LLST74:
 11270 0efe 06010000 		.4byte	.LVL248
 11271 0f02 16010000 		.4byte	.LVL251
 11272 0f06 0600     		.2byte	0x6
 11273 0f08 03       		.byte	0x3
 11274 0f09 5C030000 		.4byte	.LC28
 11275 0f0d 9F       		.byte	0x9f
 11276 0f0e 00000000 		.4byte	0
 11277 0f12 00000000 		.4byte	0
 11278              	.LLST75:
 11279 0f16 2C010000 		.4byte	.LVL252
 11280 0f1a 36010000 		.4byte	.LVL255
 11281 0f1e 0600     		.2byte	0x6
 11282 0f20 03       		.byte	0x3
 11283 0f21 4C030000 		.4byte	.LC27
 11284 0f25 9F       		.byte	0x9f
 11285 0f26 00000000 		.4byte	0
 11286 0f2a 00000000 		.4byte	0
 11287              	.LLST76:
 11288 0f2e 48010000 		.4byte	.LVL256
 11289 0f32 58010000 		.4byte	.LVL259
 11290 0f36 0600     		.2byte	0x6
 11291 0f38 03       		.byte	0x3
 11292 0f39 5C030000 		.4byte	.LC28
ARM GAS  C:\Users\jo\AppData\Local\Temp\ccT06EVW.s 			page 202


 11293 0f3d 9F       		.byte	0x9f
 11294 0f3e 00000000 		.4byte	0
 11295 0f42 00000000 		.4byte	0
 11296              	.LLST77:
 11297 0f46 00000000 		.4byte	.LVL264
 11298 0f4a 1E000000 		.4byte	.LVL266
 11299 0f4e 0100     		.2byte	0x1
 11300 0f50 50       		.byte	0x50
 11301 0f51 1E000000 		.4byte	.LVL266
 11302 0f55 70000000 		.4byte	.LVL282
 11303 0f59 0400     		.2byte	0x4
 11304 0f5b F3       		.byte	0xf3
 11305 0f5c 01       		.uleb128 0x1
 11306 0f5d 50       		.byte	0x50
 11307 0f5e 9F       		.byte	0x9f
 11308 0f5f 70000000 		.4byte	.LVL282
 11309 0f63 7A000000 		.4byte	.LVL286
 11310 0f67 0100     		.2byte	0x1
 11311 0f69 50       		.byte	0x50
 11312 0f6a 7A000000 		.4byte	.LVL286
 11313 0f6e 8C000000 		.4byte	.LVL289
 11314 0f72 0100     		.2byte	0x1
 11315 0f74 55       		.byte	0x55
 11316 0f75 8C000000 		.4byte	.LVL289
 11317 0f79 96000000 		.4byte	.LVL293
 11318 0f7d 0100     		.2byte	0x1
 11319 0f7f 50       		.byte	0x50
 11320 0f80 96000000 		.4byte	.LVL293
 11321 0f84 A8000000 		.4byte	.LVL296
 11322 0f88 0100     		.2byte	0x1
 11323 0f8a 55       		.byte	0x55
 11324 0f8b A8000000 		.4byte	.LVL296
 11325 0f8f C0000000 		.4byte	.LFE270
 11326 0f93 0100     		.2byte	0x1
 11327 0f95 50       		.byte	0x50
 11328 0f96 00000000 		.4byte	0
 11329 0f9a 00000000 		.4byte	0
 11330              	.LLST78:
 11331 0f9e 00000000 		.4byte	.LVL264
 11332 0fa2 1E000000 		.4byte	.LVL266
 11333 0fa6 0100     		.2byte	0x1
 11334 0fa8 51       		.byte	0x51
 11335 0fa9 1E000000 		.4byte	.LVL266
 11336 0fad 38000000 		.4byte	.LVL270
 11337 0fb1 0100     		.2byte	0x1
 11338 0fb3 56       		.byte	0x56
 11339 0fb4 38000000 		.4byte	.LVL270
 11340 0fb8 3E000000 		.4byte	.LVL271
 11341 0fbc 0400     		.2byte	0x4
 11342 0fbe F3       		.byte	0xf3
 11343 0fbf 01       		.uleb128 0x1
 11344 0fc0 51       		.byte	0x51
 11345 0fc1 9F       		.byte	0x9f
 11346 0fc2 3E000000 		.4byte	.LVL271
 11347 0fc6 70000000 		.4byte	.LVL282
 11348 0fca 0100     		.2byte	0x1
 11349 0fcc 56       		.byte	0x56
ARM GAS  C:\Users\jo\AppData\Local\Temp\ccT06EVW.s 			page 203


 11350 0fcd 70000000 		.4byte	.LVL282
 11351 0fd1 76000000 		.4byte	.LVL284
 11352 0fd5 0100     		.2byte	0x1
 11353 0fd7 51       		.byte	0x51
 11354 0fd8 76000000 		.4byte	.LVL284
 11355 0fdc 8C000000 		.4byte	.LVL289
 11356 0fe0 0400     		.2byte	0x4
 11357 0fe2 F3       		.byte	0xf3
 11358 0fe3 01       		.uleb128 0x1
 11359 0fe4 51       		.byte	0x51
 11360 0fe5 9F       		.byte	0x9f
 11361 0fe6 8C000000 		.4byte	.LVL289
 11362 0fea 92000000 		.4byte	.LVL291
 11363 0fee 0100     		.2byte	0x1
 11364 0ff0 51       		.byte	0x51
 11365 0ff1 92000000 		.4byte	.LVL291
 11366 0ff5 A8000000 		.4byte	.LVL296
 11367 0ff9 0100     		.2byte	0x1
 11368 0ffb 56       		.byte	0x56
 11369 0ffc A8000000 		.4byte	.LVL296
 11370 1000 C0000000 		.4byte	.LFE270
 11371 1004 0100     		.2byte	0x1
 11372 1006 51       		.byte	0x51
 11373 1007 00000000 		.4byte	0
 11374 100b 00000000 		.4byte	0
 11375              	.LLST79:
 11376 100f 00000000 		.4byte	.LVL264
 11377 1013 1E000000 		.4byte	.LVL266
 11378 1017 0100     		.2byte	0x1
 11379 1019 52       		.byte	0x52
 11380 101a 1E000000 		.4byte	.LVL266
 11381 101e 36000000 		.4byte	.LVL269
 11382 1022 0100     		.2byte	0x1
 11383 1024 57       		.byte	0x57
 11384 1025 3E000000 		.4byte	.LVL271
 11385 1029 4C000000 		.4byte	.LVL274
 11386 102d 0100     		.2byte	0x1
 11387 102f 57       		.byte	0x57
 11388 1030 62000000 		.4byte	.LVL279
 11389 1034 70000000 		.4byte	.LVL282
 11390 1038 0100     		.2byte	0x1
 11391 103a 57       		.byte	0x57
 11392 103b 70000000 		.4byte	.LVL282
 11393 103f 78000000 		.4byte	.LVL285
 11394 1043 0100     		.2byte	0x1
 11395 1045 52       		.byte	0x52
 11396 1046 78000000 		.4byte	.LVL285
 11397 104a 8C000000 		.4byte	.LVL289
 11398 104e 0400     		.2byte	0x4
 11399 1050 F3       		.byte	0xf3
 11400 1051 01       		.uleb128 0x1
 11401 1052 52       		.byte	0x52
 11402 1053 9F       		.byte	0x9f
 11403 1054 8C000000 		.4byte	.LVL289
 11404 1058 94000000 		.4byte	.LVL292
 11405 105c 0100     		.2byte	0x1
 11406 105e 52       		.byte	0x52
ARM GAS  C:\Users\jo\AppData\Local\Temp\ccT06EVW.s 			page 204


 11407 105f 94000000 		.4byte	.LVL292
 11408 1063 A8000000 		.4byte	.LVL296
 11409 1067 0400     		.2byte	0x4
 11410 1069 F3       		.byte	0xf3
 11411 106a 01       		.uleb128 0x1
 11412 106b 52       		.byte	0x52
 11413 106c 9F       		.byte	0x9f
 11414 106d A8000000 		.4byte	.LVL296
 11415 1071 C0000000 		.4byte	.LFE270
 11416 1075 0100     		.2byte	0x1
 11417 1077 52       		.byte	0x52
 11418 1078 00000000 		.4byte	0
 11419 107c 00000000 		.4byte	0
 11420              	.LLST80:
 11421 1080 00000000 		.4byte	.LVL264
 11422 1084 32000000 		.4byte	.LVL268
 11423 1088 0100     		.2byte	0x1
 11424 108a 53       		.byte	0x53
 11425 108b 32000000 		.4byte	.LVL268
 11426 108f 36000000 		.4byte	.LVL269
 11427 1093 0100     		.2byte	0x1
 11428 1095 53       		.byte	0x53
 11429 1096 3E000000 		.4byte	.LVL271
 11430 109a 59000000 		.4byte	.LVL277-1
 11431 109e 0100     		.2byte	0x1
 11432 10a0 53       		.byte	0x53
 11433 10a1 62000000 		.4byte	.LVL279
 11434 10a5 6A000000 		.4byte	.LVL281
 11435 10a9 0200     		.2byte	0x2
 11436 10ab 30       		.byte	0x30
 11437 10ac 9F       		.byte	0x9f
 11438 10ad 6A000000 		.4byte	.LVL281
 11439 10b1 72000000 		.4byte	.LVL283
 11440 10b5 0100     		.2byte	0x1
 11441 10b7 53       		.byte	0x53
 11442 10b8 72000000 		.4byte	.LVL283
 11443 10bc 8C000000 		.4byte	.LVL289
 11444 10c0 0400     		.2byte	0x4
 11445 10c2 F3       		.byte	0xf3
 11446 10c3 01       		.uleb128 0x1
 11447 10c4 53       		.byte	0x53
 11448 10c5 9F       		.byte	0x9f
 11449 10c6 8C000000 		.4byte	.LVL289
 11450 10ca 8E000000 		.4byte	.LVL290
 11451 10ce 0100     		.2byte	0x1
 11452 10d0 53       		.byte	0x53
 11453 10d1 8E000000 		.4byte	.LVL290
 11454 10d5 A8000000 		.4byte	.LVL296
 11455 10d9 0400     		.2byte	0x4
 11456 10db F3       		.byte	0xf3
 11457 10dc 01       		.uleb128 0x1
 11458 10dd 53       		.byte	0x53
 11459 10de 9F       		.byte	0x9f
 11460 10df A8000000 		.4byte	.LVL296
 11461 10e3 C0000000 		.4byte	.LFE270
 11462 10e7 0100     		.2byte	0x1
 11463 10e9 53       		.byte	0x53
ARM GAS  C:\Users\jo\AppData\Local\Temp\ccT06EVW.s 			page 205


 11464 10ea 00000000 		.4byte	0
 11465 10ee 00000000 		.4byte	0
 11466              	.LLST81:
 11467 10f2 12000000 		.4byte	.LVL265
 11468 10f6 1E000000 		.4byte	.LVL266
 11469 10fa 0100     		.2byte	0x1
 11470 10fc 50       		.byte	0x50
 11471 10fd 1E000000 		.4byte	.LVL266
 11472 1101 30000000 		.4byte	.LVL267
 11473 1105 0100     		.2byte	0x1
 11474 1107 55       		.byte	0x55
 11475 1108 32000000 		.4byte	.LVL268
 11476 110c 38000000 		.4byte	.LVL270
 11477 1110 0100     		.2byte	0x1
 11478 1112 55       		.byte	0x55
 11479 1113 3E000000 		.4byte	.LVL271
 11480 1117 70000000 		.4byte	.LVL282
 11481 111b 0100     		.2byte	0x1
 11482 111d 55       		.byte	0x55
 11483 111e A8000000 		.4byte	.LVL296
 11484 1122 C0000000 		.4byte	.LFE270
 11485 1126 0100     		.2byte	0x1
 11486 1128 50       		.byte	0x50
 11487 1129 00000000 		.4byte	0
 11488 112d 00000000 		.4byte	0
 11489              	.LLST82:
 11490 1131 12000000 		.4byte	.LVL265
 11491 1135 1E000000 		.4byte	.LVL266
 11492 1139 0200     		.2byte	0x2
 11493 113b 30       		.byte	0x30
 11494 113c 9F       		.byte	0x9f
 11495 113d 1E000000 		.4byte	.LVL266
 11496 1141 36000000 		.4byte	.LVL269
 11497 1145 0100     		.2byte	0x1
 11498 1147 59       		.byte	0x59
 11499 1148 3E000000 		.4byte	.LVL271
 11500 114c 70000000 		.4byte	.LVL282
 11501 1150 0100     		.2byte	0x1
 11502 1152 59       		.byte	0x59
 11503 1153 A8000000 		.4byte	.LVL296
 11504 1157 C0000000 		.4byte	.LFE270
 11505 115b 0200     		.2byte	0x2
 11506 115d 30       		.byte	0x30
 11507 115e 9F       		.byte	0x9f
 11508 115f 00000000 		.4byte	0
 11509 1163 00000000 		.4byte	0
 11510              	.LLST83:
 11511 1167 42000000 		.4byte	.LVL272
 11512 116b 54000000 		.4byte	.LVL276
 11513 116f 0100     		.2byte	0x1
 11514 1171 54       		.byte	0x54
 11515 1172 54000000 		.4byte	.LVL276
 11516 1176 59000000 		.4byte	.LVL277-1
 11517 117a 0100     		.2byte	0x1
 11518 117c 52       		.byte	0x52
 11519 117d 00000000 		.4byte	0
 11520 1181 00000000 		.4byte	0
ARM GAS  C:\Users\jo\AppData\Local\Temp\ccT06EVW.s 			page 206


 11521              	.LLST84:
 11522 1185 00000000 		.4byte	.LVL264
 11523 1189 1E000000 		.4byte	.LVL266
 11524 118d 0200     		.2byte	0x2
 11525 118f 30       		.byte	0x30
 11526 1190 9F       		.byte	0x9f
 11527 1191 1E000000 		.4byte	.LVL266
 11528 1195 36000000 		.4byte	.LVL269
 11529 1199 0100     		.2byte	0x1
 11530 119b 58       		.byte	0x58
 11531 119c 3E000000 		.4byte	.LVL271
 11532 11a0 50000000 		.4byte	.LVL275
 11533 11a4 0100     		.2byte	0x1
 11534 11a6 58       		.byte	0x58
 11535 11a7 5E000000 		.4byte	.LVL278
 11536 11ab 70000000 		.4byte	.LVL282
 11537 11af 0100     		.2byte	0x1
 11538 11b1 58       		.byte	0x58
 11539 11b2 70000000 		.4byte	.LVL282
 11540 11b6 C0000000 		.4byte	.LFE270
 11541 11ba 0200     		.2byte	0x2
 11542 11bc 30       		.byte	0x30
 11543 11bd 9F       		.byte	0x9f
 11544 11be 00000000 		.4byte	0
 11545 11c2 00000000 		.4byte	0
 11546              	.LLST85:
 11547 11c6 82000000 		.4byte	.LVL287
 11548 11ca 8C000000 		.4byte	.LVL289
 11549 11ce 0600     		.2byte	0x6
 11550 11d0 03       		.byte	0x3
 11551 11d1 88030000 		.4byte	.LC29
 11552 11d5 9F       		.byte	0x9f
 11553 11d6 00000000 		.4byte	0
 11554 11da 00000000 		.4byte	0
 11555              	.LLST86:
 11556 11de 9E000000 		.4byte	.LVL294
 11557 11e2 A8000000 		.4byte	.LVL296
 11558 11e6 0600     		.2byte	0x6
 11559 11e8 03       		.byte	0x3
 11560 11e9 A8030000 		.4byte	.LC30
 11561 11ed 9F       		.byte	0x9f
 11562 11ee 00000000 		.4byte	0
 11563 11f2 00000000 		.4byte	0
 11564              	.LLST87:
 11565 11f6 00000000 		.4byte	.LVL297
 11566 11fa 28000000 		.4byte	.LVL300
 11567 11fe 0100     		.2byte	0x1
 11568 1200 50       		.byte	0x50
 11569 1201 28000000 		.4byte	.LVL300
 11570 1205 9E000000 		.4byte	.LVL313
 11571 1209 0400     		.2byte	0x4
 11572 120b F3       		.byte	0xf3
 11573 120c 01       		.uleb128 0x1
 11574 120d 50       		.byte	0x50
 11575 120e 9F       		.byte	0x9f
 11576 120f 9E000000 		.4byte	.LVL313
 11577 1213 A8000000 		.4byte	.LVL316
ARM GAS  C:\Users\jo\AppData\Local\Temp\ccT06EVW.s 			page 207


 11578 1217 0100     		.2byte	0x1
 11579 1219 50       		.byte	0x50
 11580 121a A8000000 		.4byte	.LVL316
 11581 121e BA000000 		.4byte	.LVL319
 11582 1222 0100     		.2byte	0x1
 11583 1224 5A       		.byte	0x5a
 11584 1225 BA000000 		.4byte	.LVL319
 11585 1229 C4000000 		.4byte	.LVL322
 11586 122d 0100     		.2byte	0x1
 11587 122f 50       		.byte	0x50
 11588 1230 C4000000 		.4byte	.LVL322
 11589 1234 D6000000 		.4byte	.LVL325
 11590 1238 0100     		.2byte	0x1
 11591 123a 5A       		.byte	0x5a
 11592 123b D6000000 		.4byte	.LVL325
 11593 123f D8000000 		.4byte	.LVL326
 11594 1243 0100     		.2byte	0x1
 11595 1245 50       		.byte	0x50
 11596 1246 D8000000 		.4byte	.LVL326
 11597 124a F8000000 		.4byte	.LFE271
 11598 124e 0100     		.2byte	0x1
 11599 1250 5A       		.byte	0x5a
 11600 1251 00000000 		.4byte	0
 11601 1255 00000000 		.4byte	0
 11602              	.LLST88:
 11603 1259 00000000 		.4byte	.LVL297
 11604 125d 28000000 		.4byte	.LVL300
 11605 1261 0100     		.2byte	0x1
 11606 1263 51       		.byte	0x51
 11607 1264 28000000 		.4byte	.LVL300
 11608 1268 72000000 		.4byte	.LVL308
 11609 126c 0100     		.2byte	0x1
 11610 126e 57       		.byte	0x57
 11611 126f 72000000 		.4byte	.LVL308
 11612 1273 7A000000 		.4byte	.LVL309
 11613 1277 0400     		.2byte	0x4
 11614 1279 F3       		.byte	0xf3
 11615 127a 01       		.uleb128 0x1
 11616 127b 51       		.byte	0x51
 11617 127c 9F       		.byte	0x9f
 11618 127d 7A000000 		.4byte	.LVL309
 11619 1281 9E000000 		.4byte	.LVL313
 11620 1285 0100     		.2byte	0x1
 11621 1287 57       		.byte	0x57
 11622 1288 9E000000 		.4byte	.LVL313
 11623 128c A4000000 		.4byte	.LVL314
 11624 1290 0100     		.2byte	0x1
 11625 1292 51       		.byte	0x51
 11626 1293 A4000000 		.4byte	.LVL314
 11627 1297 BA000000 		.4byte	.LVL319
 11628 129b 0400     		.2byte	0x4
 11629 129d F3       		.byte	0xf3
 11630 129e 01       		.uleb128 0x1
 11631 129f 51       		.byte	0x51
 11632 12a0 9F       		.byte	0x9f
 11633 12a1 BA000000 		.4byte	.LVL319
 11634 12a5 C0000000 		.4byte	.LVL320
ARM GAS  C:\Users\jo\AppData\Local\Temp\ccT06EVW.s 			page 208


 11635 12a9 0100     		.2byte	0x1
 11636 12ab 51       		.byte	0x51
 11637 12ac C0000000 		.4byte	.LVL320
 11638 12b0 D6000000 		.4byte	.LVL325
 11639 12b4 0100     		.2byte	0x1
 11640 12b6 57       		.byte	0x57
 11641 12b7 D6000000 		.4byte	.LVL325
 11642 12bb F8000000 		.4byte	.LFE271
 11643 12bf 0100     		.2byte	0x1
 11644 12c1 51       		.byte	0x51
 11645 12c2 00000000 		.4byte	0
 11646 12c6 00000000 		.4byte	0
 11647              	.LLST89:
 11648 12ca 00000000 		.4byte	.LVL297
 11649 12ce 28000000 		.4byte	.LVL300
 11650 12d2 0100     		.2byte	0x1
 11651 12d4 52       		.byte	0x52
 11652 12d5 28000000 		.4byte	.LVL300
 11653 12d9 9E000000 		.4byte	.LVL313
 11654 12dd 0400     		.2byte	0x4
 11655 12df F3       		.byte	0xf3
 11656 12e0 01       		.uleb128 0x1
 11657 12e1 52       		.byte	0x52
 11658 12e2 9F       		.byte	0x9f
 11659 12e3 9E000000 		.4byte	.LVL313
 11660 12e7 A6000000 		.4byte	.LVL315
 11661 12eb 0100     		.2byte	0x1
 11662 12ed 52       		.byte	0x52
 11663 12ee A6000000 		.4byte	.LVL315
 11664 12f2 BA000000 		.4byte	.LVL319
 11665 12f6 0400     		.2byte	0x4
 11666 12f8 F3       		.byte	0xf3
 11667 12f9 01       		.uleb128 0x1
 11668 12fa 52       		.byte	0x52
 11669 12fb 9F       		.byte	0x9f
 11670 12fc BA000000 		.4byte	.LVL319
 11671 1300 C2000000 		.4byte	.LVL321
 11672 1304 0100     		.2byte	0x1
 11673 1306 52       		.byte	0x52
 11674 1307 C2000000 		.4byte	.LVL321
 11675 130b D6000000 		.4byte	.LVL325
 11676 130f 0400     		.2byte	0x4
 11677 1311 F3       		.byte	0xf3
 11678 1312 01       		.uleb128 0x1
 11679 1313 52       		.byte	0x52
 11680 1314 9F       		.byte	0x9f
 11681 1315 D6000000 		.4byte	.LVL325
 11682 1319 F8000000 		.4byte	.LFE271
 11683 131d 0100     		.2byte	0x1
 11684 131f 52       		.byte	0x52
 11685 1320 00000000 		.4byte	0
 11686 1324 00000000 		.4byte	0
 11687              	.LLST90:
 11688 1328 1A000000 		.4byte	.LVL299
 11689 132c 28000000 		.4byte	.LVL300
 11690 1330 0100     		.2byte	0x1
 11691 1332 50       		.byte	0x50
ARM GAS  C:\Users\jo\AppData\Local\Temp\ccT06EVW.s 			page 209


 11692 1333 28000000 		.4byte	.LVL300
 11693 1337 72000000 		.4byte	.LVL308
 11694 133b 0100     		.2byte	0x1
 11695 133d 5A       		.byte	0x5a
 11696 133e 7A000000 		.4byte	.LVL309
 11697 1342 9E000000 		.4byte	.LVL313
 11698 1346 0100     		.2byte	0x1
 11699 1348 5A       		.byte	0x5a
 11700 1349 00000000 		.4byte	0
 11701 134d 00000000 		.4byte	0
 11702              	.LLST91:
 11703 1351 28000000 		.4byte	.LVL300
 11704 1355 2E000000 		.4byte	.LVL301
 11705 1359 0100     		.2byte	0x1
 11706 135b 55       		.byte	0x55
 11707 135c 2E000000 		.4byte	.LVL301
 11708 1360 3C000000 		.4byte	.LVL302
 11709 1364 0100     		.2byte	0x1
 11710 1366 54       		.byte	0x54
 11711 1367 3C000000 		.4byte	.LVL302
 11712 136b 72000000 		.4byte	.LVL308
 11713 136f 0100     		.2byte	0x1
 11714 1371 55       		.byte	0x55
 11715 1372 7A000000 		.4byte	.LVL309
 11716 1376 94000000 		.4byte	.LVL312
 11717 137a 0100     		.2byte	0x1
 11718 137c 55       		.byte	0x55
 11719 137d 00000000 		.4byte	0
 11720 1381 00000000 		.4byte	0
 11721              	.LLST92:
 11722 1385 00000000 		.4byte	.LVL297
 11723 1389 18000000 		.4byte	.LVL298
 11724 138d 0100     		.2byte	0x1
 11725 138f 58       		.byte	0x58
 11726 1390 1A000000 		.4byte	.LVL299
 11727 1394 28000000 		.4byte	.LVL300
 11728 1398 0100     		.2byte	0x1
 11729 139a 52       		.byte	0x52
 11730 139b 28000000 		.4byte	.LVL300
 11731 139f 2E000000 		.4byte	.LVL301
 11732 13a3 0100     		.2byte	0x1
 11733 13a5 54       		.byte	0x54
 11734 13a6 4A000000 		.4byte	.LVL303
 11735 13aa 72000000 		.4byte	.LVL308
 11736 13ae 0100     		.2byte	0x1
 11737 13b0 54       		.byte	0x54
 11738 13b1 7A000000 		.4byte	.LVL309
 11739 13b5 94000000 		.4byte	.LVL312
 11740 13b9 0100     		.2byte	0x1
 11741 13bb 54       		.byte	0x54
 11742 13bc 9E000000 		.4byte	.LVL313
 11743 13c0 D6000000 		.4byte	.LVL325
 11744 13c4 0100     		.2byte	0x1
 11745 13c6 58       		.byte	0x58
 11746 13c7 00000000 		.4byte	0
 11747 13cb 00000000 		.4byte	0
 11748              	.LLST93:
ARM GAS  C:\Users\jo\AppData\Local\Temp\ccT06EVW.s 			page 210


 11749 13cf 00000000 		.4byte	.LVL297
 11750 13d3 28000000 		.4byte	.LVL300
 11751 13d7 0200     		.2byte	0x2
 11752 13d9 30       		.byte	0x30
 11753 13da 9F       		.byte	0x9f
 11754 13db 28000000 		.4byte	.LVL300
 11755 13df 2E000000 		.4byte	.LVL301
 11756 13e3 0100     		.2byte	0x1
 11757 13e5 56       		.byte	0x56
 11758 13e6 4C000000 		.4byte	.LVL304
 11759 13ea 72000000 		.4byte	.LVL308
 11760 13ee 0100     		.2byte	0x1
 11761 13f0 56       		.byte	0x56
 11762 13f1 7A000000 		.4byte	.LVL309
 11763 13f5 94000000 		.4byte	.LVL312
 11764 13f9 0100     		.2byte	0x1
 11765 13fb 56       		.byte	0x56
 11766 13fc 9E000000 		.4byte	.LVL313
 11767 1400 F8000000 		.4byte	.LFE271
 11768 1404 0200     		.2byte	0x2
 11769 1406 30       		.byte	0x30
 11770 1407 9F       		.byte	0x9f
 11771 1408 00000000 		.4byte	0
 11772 140c 00000000 		.4byte	0
 11773              	.LLST94:
 11774 1410 6A000000 		.4byte	.LVL306
 11775 1414 72000000 		.4byte	.LVL308
 11776 1418 0600     		.2byte	0x6
 11777 141a 03       		.byte	0x3
 11778 141b 18040000 		.4byte	.LC34
 11779 141f 9F       		.byte	0x9f
 11780 1420 00000000 		.4byte	0
 11781 1424 00000000 		.4byte	0
 11782              	.LLST95:
 11783 1428 8C000000 		.4byte	.LVL310
 11784 142c 94000000 		.4byte	.LVL312
 11785 1430 0600     		.2byte	0x6
 11786 1432 03       		.byte	0x3
 11787 1433 00040000 		.4byte	.LC33
 11788 1437 9F       		.byte	0x9f
 11789 1438 00000000 		.4byte	0
 11790 143c 00000000 		.4byte	0
 11791              	.LLST96:
 11792 1440 B0000000 		.4byte	.LVL317
 11793 1444 BA000000 		.4byte	.LVL319
 11794 1448 0600     		.2byte	0x6
 11795 144a 03       		.byte	0x3
 11796 144b CC030000 		.4byte	.LC31
 11797 144f 9F       		.byte	0x9f
 11798 1450 00000000 		.4byte	0
 11799 1454 00000000 		.4byte	0
 11800              	.LLST97:
 11801 1458 CC000000 		.4byte	.LVL323
 11802 145c D6000000 		.4byte	.LVL325
 11803 1460 0600     		.2byte	0x6
 11804 1462 03       		.byte	0x3
 11805 1463 E4030000 		.4byte	.LC32
ARM GAS  C:\Users\jo\AppData\Local\Temp\ccT06EVW.s 			page 211


 11806 1467 9F       		.byte	0x9f
 11807 1468 00000000 		.4byte	0
 11808 146c 00000000 		.4byte	0
 11809              	.LLST98:
 11810 1470 00000000 		.4byte	.LVL327
 11811 1474 0C000000 		.4byte	.LVL328
 11812 1478 0100     		.2byte	0x1
 11813 147a 50       		.byte	0x50
 11814 147b 0C000000 		.4byte	.LVL328
 11815 147f 5C000000 		.4byte	.LFE272
 11816 1483 0100     		.2byte	0x1
 11817 1485 54       		.byte	0x54
 11818 1486 00000000 		.4byte	0
 11819 148a 00000000 		.4byte	0
 11820              	.LLST99:
 11821 148e 00000000 		.4byte	.LVL327
 11822 1492 10000000 		.4byte	.LVL329
 11823 1496 0100     		.2byte	0x1
 11824 1498 51       		.byte	0x51
 11825 1499 10000000 		.4byte	.LVL329
 11826 149d 5C000000 		.4byte	.LFE272
 11827 14a1 0400     		.2byte	0x4
 11828 14a3 F3       		.byte	0xf3
 11829 14a4 01       		.uleb128 0x1
 11830 14a5 51       		.byte	0x51
 11831 14a6 9F       		.byte	0x9f
 11832 14a7 00000000 		.4byte	0
 11833 14ab 00000000 		.4byte	0
 11834              	.LLST100:
 11835 14af 14000000 		.4byte	.LVL330
 11836 14b3 1D000000 		.4byte	.LVL331-1
 11837 14b7 0100     		.2byte	0x1
 11838 14b9 50       		.byte	0x50
 11839 14ba 1D000000 		.4byte	.LVL331-1
 11840 14be 2C000000 		.4byte	.LVL334
 11841 14c2 0100     		.2byte	0x1
 11842 14c4 55       		.byte	0x55
 11843 14c5 32000000 		.4byte	.LVL335
 11844 14c9 5C000000 		.4byte	.LFE272
 11845 14cd 0100     		.2byte	0x1
 11846 14cf 55       		.byte	0x55
 11847 14d0 00000000 		.4byte	0
 11848 14d4 00000000 		.4byte	0
 11849              	.LLST101:
 11850 14d8 1E000000 		.4byte	.LVL331
 11851 14dc 20000000 		.4byte	.LVL332
 11852 14e0 0100     		.2byte	0x1
 11853 14e2 50       		.byte	0x50
 11854 14e3 32000000 		.4byte	.LVL335
 11855 14e7 3C000000 		.4byte	.LVL336
 11856 14eb 0100     		.2byte	0x1
 11857 14ed 50       		.byte	0x50
 11858 14ee 00000000 		.4byte	0
 11859 14f2 00000000 		.4byte	0
 11860              	.LLST102:
 11861 14f6 00000000 		.4byte	.LVL339
 11862 14fa 0A000000 		.4byte	.LVL340
ARM GAS  C:\Users\jo\AppData\Local\Temp\ccT06EVW.s 			page 212


 11863 14fe 0100     		.2byte	0x1
 11864 1500 50       		.byte	0x50
 11865 1501 0A000000 		.4byte	.LVL340
 11866 1505 22000000 		.4byte	.LFE273
 11867 1509 0400     		.2byte	0x4
 11868 150b F3       		.byte	0xf3
 11869 150c 01       		.uleb128 0x1
 11870 150d 50       		.byte	0x50
 11871 150e 9F       		.byte	0x9f
 11872 150f 00000000 		.4byte	0
 11873 1513 00000000 		.4byte	0
 11874              	.LLST103:
 11875 1517 00000000 		.4byte	.LVL339
 11876 151b 0A000000 		.4byte	.LVL340
 11877 151f 0100     		.2byte	0x1
 11878 1521 51       		.byte	0x51
 11879 1522 0A000000 		.4byte	.LVL340
 11880 1526 22000000 		.4byte	.LFE273
 11881 152a 0400     		.2byte	0x4
 11882 152c F3       		.byte	0xf3
 11883 152d 01       		.uleb128 0x1
 11884 152e 51       		.byte	0x51
 11885 152f 9F       		.byte	0x9f
 11886 1530 00000000 		.4byte	0
 11887 1534 00000000 		.4byte	0
 11888              	.LLST104:
 11889 1538 00000000 		.4byte	.LVL339
 11890 153c 14000000 		.4byte	.LVL342
 11891 1540 0100     		.2byte	0x1
 11892 1542 51       		.byte	0x51
 11893 1543 16000000 		.4byte	.LVL343
 11894 1547 22000000 		.4byte	.LFE273
 11895 154b 0100     		.2byte	0x1
 11896 154d 51       		.byte	0x51
 11897 154e 00000000 		.4byte	0
 11898 1552 00000000 		.4byte	0
 11899              	.LLST105:
 11900 1556 00000000 		.4byte	.LVL339
 11901 155a 12000000 		.4byte	.LVL341
 11902 155e 0100     		.2byte	0x1
 11903 1560 50       		.byte	0x50
 11904 1561 16000000 		.4byte	.LVL343
 11905 1565 20000000 		.4byte	.LVL344
 11906 1569 0100     		.2byte	0x1
 11907 156b 50       		.byte	0x50
 11908 156c 00000000 		.4byte	0
 11909 1570 00000000 		.4byte	0
 11910              	.LLST106:
 11911 1574 00000000 		.4byte	.LVL345
 11912 1578 0E000000 		.4byte	.LVL346
 11913 157c 0100     		.2byte	0x1
 11914 157e 50       		.byte	0x50
 11915 157f 0E000000 		.4byte	.LVL346
 11916 1583 7A000000 		.4byte	.LVL369
 11917 1587 0400     		.2byte	0x4
 11918 1589 F3       		.byte	0xf3
 11919 158a 01       		.uleb128 0x1
ARM GAS  C:\Users\jo\AppData\Local\Temp\ccT06EVW.s 			page 213


 11920 158b 50       		.byte	0x50
 11921 158c 9F       		.byte	0x9f
 11922 158d 7A000000 		.4byte	.LVL369
 11923 1591 7E000000 		.4byte	.LVL370
 11924 1595 0100     		.2byte	0x1
 11925 1597 50       		.byte	0x50
 11926 1598 7E000000 		.4byte	.LVL370
 11927 159c 84000000 		.4byte	.LFE274
 11928 15a0 0400     		.2byte	0x4
 11929 15a2 F3       		.byte	0xf3
 11930 15a3 01       		.uleb128 0x1
 11931 15a4 50       		.byte	0x50
 11932 15a5 9F       		.byte	0x9f
 11933 15a6 00000000 		.4byte	0
 11934 15aa 00000000 		.4byte	0
 11935              	.LLST107:
 11936 15ae 00000000 		.4byte	.LVL345
 11937 15b2 0E000000 		.4byte	.LVL346
 11938 15b6 0100     		.2byte	0x1
 11939 15b8 51       		.byte	0x51
 11940 15b9 0E000000 		.4byte	.LVL346
 11941 15bd 7A000000 		.4byte	.LVL369
 11942 15c1 0400     		.2byte	0x4
 11943 15c3 F3       		.byte	0xf3
 11944 15c4 01       		.uleb128 0x1
 11945 15c5 51       		.byte	0x51
 11946 15c6 9F       		.byte	0x9f
 11947 15c7 7A000000 		.4byte	.LVL369
 11948 15cb 80000000 		.4byte	.LVL371
 11949 15cf 0100     		.2byte	0x1
 11950 15d1 51       		.byte	0x51
 11951 15d2 80000000 		.4byte	.LVL371
 11952 15d6 84000000 		.4byte	.LFE274
 11953 15da 0400     		.2byte	0x4
 11954 15dc F3       		.byte	0xf3
 11955 15dd 01       		.uleb128 0x1
 11956 15de 51       		.byte	0x51
 11957 15df 9F       		.byte	0x9f
 11958 15e0 00000000 		.4byte	0
 11959 15e4 00000000 		.4byte	0
 11960              	.LLST108:
 11961 15e8 00000000 		.4byte	.LVL345
 11962 15ec 30000000 		.4byte	.LVL351
 11963 15f0 0100     		.2byte	0x1
 11964 15f2 52       		.byte	0x52
 11965 15f3 30000000 		.4byte	.LVL351
 11966 15f7 7A000000 		.4byte	.LVL369
 11967 15fb 0400     		.2byte	0x4
 11968 15fd F3       		.byte	0xf3
 11969 15fe 01       		.uleb128 0x1
 11970 15ff 52       		.byte	0x52
 11971 1600 9F       		.byte	0x9f
 11972 1601 7A000000 		.4byte	.LVL369
 11973 1605 84000000 		.4byte	.LFE274
 11974 1609 0100     		.2byte	0x1
 11975 160b 52       		.byte	0x52
 11976 160c 00000000 		.4byte	0
ARM GAS  C:\Users\jo\AppData\Local\Temp\ccT06EVW.s 			page 214


 11977 1610 00000000 		.4byte	0
 11978              	.LLST109:
 11979 1614 00000000 		.4byte	.LVL345
 11980 1618 16000000 		.4byte	.LVL347
 11981 161c 0100     		.2byte	0x1
 11982 161e 50       		.byte	0x50
 11983 161f 1A000000 		.4byte	.LVL348
 11984 1623 22000000 		.4byte	.LVL349
 11985 1627 0100     		.2byte	0x1
 11986 1629 50       		.byte	0x50
 11987 162a 24000000 		.4byte	.LVL350
 11988 162e 5E000000 		.4byte	.LVL361
 11989 1632 0100     		.2byte	0x1
 11990 1634 50       		.byte	0x50
 11991 1635 60000000 		.4byte	.LVL362
 11992 1639 72000000 		.4byte	.LVL366
 11993 163d 0100     		.2byte	0x1
 11994 163f 50       		.byte	0x50
 11995 1640 74000000 		.4byte	.LVL367
 11996 1644 7E000000 		.4byte	.LVL370
 11997 1648 0100     		.2byte	0x1
 11998 164a 50       		.byte	0x50
 11999 164b 7E000000 		.4byte	.LVL370
 12000 164f 80000000 		.4byte	.LVL371
 12001 1653 0400     		.2byte	0x4
 12002 1655 F3       		.byte	0xf3
 12003 1656 01       		.uleb128 0x1
 12004 1657 50       		.byte	0x50
 12005 1658 9F       		.byte	0x9f
 12006 1659 80000000 		.4byte	.LVL371
 12007 165d 82000000 		.4byte	.LVL372
 12008 1661 0100     		.2byte	0x1
 12009 1663 50       		.byte	0x50
 12010 1664 00000000 		.4byte	0
 12011 1668 00000000 		.4byte	0
 12012              	.LLST110:
 12013 166c 24000000 		.4byte	.LVL350
 12014 1670 30000000 		.4byte	.LVL351
 12015 1674 0200     		.2byte	0x2
 12016 1676 30       		.byte	0x30
 12017 1677 9F       		.byte	0x9f
 12018 1678 30000000 		.4byte	.LVL351
 12019 167c 50000000 		.4byte	.LVL358
 12020 1680 0100     		.2byte	0x1
 12021 1682 57       		.byte	0x57
 12022 1683 50000000 		.4byte	.LVL358
 12023 1687 54000000 		.4byte	.LVL359
 12024 168b 0300     		.2byte	0x3
 12025 168d 7E       		.byte	0x7e
 12026 168e 01       		.sleb128 1
 12027 168f 9F       		.byte	0x9f
 12028 1690 60000000 		.4byte	.LVL362
 12029 1694 70000000 		.4byte	.LVL365
 12030 1698 0100     		.2byte	0x1
 12031 169a 57       		.byte	0x57
 12032 169b 74000000 		.4byte	.LVL367
 12033 169f 7A000000 		.4byte	.LVL369
ARM GAS  C:\Users\jo\AppData\Local\Temp\ccT06EVW.s 			page 215


 12034 16a3 0100     		.2byte	0x1
 12035 16a5 57       		.byte	0x57
 12036 16a6 80000000 		.4byte	.LVL371
 12037 16aa 84000000 		.4byte	.LFE274
 12038 16ae 0200     		.2byte	0x2
 12039 16b0 30       		.byte	0x30
 12040 16b1 9F       		.byte	0x9f
 12041 16b2 00000000 		.4byte	0
 12042 16b6 00000000 		.4byte	0
 12043              	.LLST111:
 12044 16ba 48000000 		.4byte	.LVL356
 12045 16be 4C000000 		.4byte	.LVL357
 12046 16c2 0200     		.2byte	0x2
 12047 16c4 7C       		.byte	0x7c
 12048 16c5 00       		.sleb128 0
 12049 16c6 4C000000 		.4byte	.LVL357
 12050 16ca 50000000 		.4byte	.LVL358
 12051 16ce 0200     		.2byte	0x2
 12052 16d0 7C       		.byte	0x7c
 12053 16d1 7F       		.sleb128 -1
 12054 16d2 00000000 		.4byte	0
 12055 16d6 00000000 		.4byte	0
 12056              	.LLST112:
 12057 16da 34000000 		.4byte	.LVL352
 12058 16de 36000000 		.4byte	.LVL353
 12059 16e2 0100     		.2byte	0x1
 12060 16e4 54       		.byte	0x54
 12061 16e5 36000000 		.4byte	.LVL353
 12062 16e9 58000000 		.4byte	.LVL360
 12063 16ed 0600     		.2byte	0x6
 12064 16ef 71       		.byte	0x71
 12065 16f0 00       		.sleb128 0
 12066 16f1 77       		.byte	0x77
 12067 16f2 00       		.sleb128 0
 12068 16f3 22       		.byte	0x22
 12069 16f4 9F       		.byte	0x9f
 12070 16f5 60000000 		.4byte	.LVL362
 12071 16f9 70000000 		.4byte	.LVL365
 12072 16fd 0600     		.2byte	0x6
 12073 16ff 71       		.byte	0x71
 12074 1700 00       		.sleb128 0
 12075 1701 77       		.byte	0x77
 12076 1702 00       		.sleb128 0
 12077 1703 22       		.byte	0x22
 12078 1704 9F       		.byte	0x9f
 12079 1705 70000000 		.4byte	.LVL365
 12080 1709 74000000 		.4byte	.LVL367
 12081 170d 0800     		.2byte	0x8
 12082 170f 71       		.byte	0x71
 12083 1710 00       		.sleb128 0
 12084 1711 77       		.byte	0x77
 12085 1712 00       		.sleb128 0
 12086 1713 22       		.byte	0x22
 12087 1714 31       		.byte	0x31
 12088 1715 1C       		.byte	0x1c
 12089 1716 9F       		.byte	0x9f
 12090 1717 74000000 		.4byte	.LVL367
ARM GAS  C:\Users\jo\AppData\Local\Temp\ccT06EVW.s 			page 216


 12091 171b 7A000000 		.4byte	.LVL369
 12092 171f 0600     		.2byte	0x6
 12093 1721 71       		.byte	0x71
 12094 1722 00       		.sleb128 0
 12095 1723 77       		.byte	0x77
 12096 1724 00       		.sleb128 0
 12097 1725 22       		.byte	0x22
 12098 1726 9F       		.byte	0x9f
 12099 1727 00000000 		.4byte	0
 12100 172b 00000000 		.4byte	0
 12101              	.LLST113:
 12102 172f 34000000 		.4byte	.LVL352
 12103 1733 4C000000 		.4byte	.LVL357
 12104 1737 0100     		.2byte	0x1
 12105 1739 54       		.byte	0x54
 12106 173a 60000000 		.4byte	.LVL362
 12107 173e 68000000 		.4byte	.LVL363
 12108 1742 0100     		.2byte	0x1
 12109 1744 54       		.byte	0x54
 12110 1745 74000000 		.4byte	.LVL367
 12111 1749 7A000000 		.4byte	.LVL369
 12112 174d 0100     		.2byte	0x1
 12113 174f 54       		.byte	0x54
 12114 1750 00000000 		.4byte	0
 12115 1754 00000000 		.4byte	0
 12116              	.LLST114:
 12117 1758 36000000 		.4byte	.LVL353
 12118 175c 42000000 		.4byte	.LVL354
 12119 1760 0100     		.2byte	0x1
 12120 1762 52       		.byte	0x52
 12121 1763 44000000 		.4byte	.LVL355
 12122 1767 48000000 		.4byte	.LVL356
 12123 176b 0100     		.2byte	0x1
 12124 176d 52       		.byte	0x52
 12125 176e 60000000 		.4byte	.LVL362
 12126 1772 6A000000 		.4byte	.LVL364
 12127 1776 0100     		.2byte	0x1
 12128 1778 52       		.byte	0x52
 12129 1779 74000000 		.4byte	.LVL367
 12130 177d 76000000 		.4byte	.LVL368
 12131 1781 0100     		.2byte	0x1
 12132 1783 52       		.byte	0x52
 12133 1784 00000000 		.4byte	0
 12134 1788 00000000 		.4byte	0
 12135              	.LLST115:
 12136 178c 00000000 		.4byte	.LVL373
 12137 1790 12000000 		.4byte	.LVL376
 12138 1794 0100     		.2byte	0x1
 12139 1796 50       		.byte	0x50
 12140 1797 12000000 		.4byte	.LVL376
 12141 179b 1A000000 		.4byte	.LVL377
 12142 179f 0100     		.2byte	0x1
 12143 17a1 57       		.byte	0x57
 12144 17a2 1A000000 		.4byte	.LVL377
 12145 17a6 26000000 		.4byte	.LVL380
 12146 17aa 0100     		.2byte	0x1
 12147 17ac 50       		.byte	0x50
ARM GAS  C:\Users\jo\AppData\Local\Temp\ccT06EVW.s 			page 217


 12148 17ad 26000000 		.4byte	.LVL380
 12149 17b1 44000000 		.4byte	.LFE275
 12150 17b5 0100     		.2byte	0x1
 12151 17b7 57       		.byte	0x57
 12152 17b8 00000000 		.4byte	0
 12153 17bc 00000000 		.4byte	0
 12154              	.LLST116:
 12155 17c0 00000000 		.4byte	.LVL373
 12156 17c4 12000000 		.4byte	.LVL376
 12157 17c8 0100     		.2byte	0x1
 12158 17ca 51       		.byte	0x51
 12159 17cb 12000000 		.4byte	.LVL376
 12160 17cf 1A000000 		.4byte	.LVL377
 12161 17d3 0400     		.2byte	0x4
 12162 17d5 F3       		.byte	0xf3
 12163 17d6 01       		.uleb128 0x1
 12164 17d7 51       		.byte	0x51
 12165 17d8 9F       		.byte	0x9f
 12166 17d9 1A000000 		.4byte	.LVL377
 12167 17dd 26000000 		.4byte	.LVL380
 12168 17e1 0100     		.2byte	0x1
 12169 17e3 51       		.byte	0x51
 12170 17e4 26000000 		.4byte	.LVL380
 12171 17e8 44000000 		.4byte	.LFE275
 12172 17ec 0100     		.2byte	0x1
 12173 17ee 58       		.byte	0x58
 12174 17ef 00000000 		.4byte	0
 12175 17f3 00000000 		.4byte	0
 12176              	.LLST117:
 12177 17f7 00000000 		.4byte	.LVL373
 12178 17fb 12000000 		.4byte	.LVL376
 12179 17ff 0100     		.2byte	0x1
 12180 1801 52       		.byte	0x52
 12181 1802 12000000 		.4byte	.LVL376
 12182 1806 1A000000 		.4byte	.LVL377
 12183 180a 0400     		.2byte	0x4
 12184 180c F3       		.byte	0xf3
 12185 180d 01       		.uleb128 0x1
 12186 180e 52       		.byte	0x52
 12187 180f 9F       		.byte	0x9f
 12188 1810 1A000000 		.4byte	.LVL377
 12189 1814 26000000 		.4byte	.LVL380
 12190 1818 0100     		.2byte	0x1
 12191 181a 52       		.byte	0x52
 12192 181b 26000000 		.4byte	.LVL380
 12193 181f 44000000 		.4byte	.LFE275
 12194 1823 0400     		.2byte	0x4
 12195 1825 F3       		.byte	0xf3
 12196 1826 01       		.uleb128 0x1
 12197 1827 52       		.byte	0x52
 12198 1828 9F       		.byte	0x9f
 12199 1829 00000000 		.4byte	0
 12200 182d 00000000 		.4byte	0
 12201              	.LLST118:
 12202 1831 00000000 		.4byte	.LVL373
 12203 1835 0A000000 		.4byte	.LVL375
 12204 1839 0100     		.2byte	0x1
ARM GAS  C:\Users\jo\AppData\Local\Temp\ccT06EVW.s 			page 218


 12205 183b 53       		.byte	0x53
 12206 183c 0A000000 		.4byte	.LVL375
 12207 1840 44000000 		.4byte	.LFE275
 12208 1844 0400     		.2byte	0x4
 12209 1846 F3       		.byte	0xf3
 12210 1847 01       		.uleb128 0x1
 12211 1848 53       		.byte	0x53
 12212 1849 9F       		.byte	0x9f
 12213 184a 00000000 		.4byte	0
 12214 184e 00000000 		.4byte	0
 12215              	.LLST119:
 12216 1852 06000000 		.4byte	.LVL374
 12217 1856 12000000 		.4byte	.LVL376
 12218 185a 0600     		.2byte	0x6
 12219 185c 75       		.byte	0x75
 12220 185d 00       		.sleb128 0
 12221 185e 72       		.byte	0x72
 12222 185f 00       		.sleb128 0
 12223 1860 1C       		.byte	0x1c
 12224 1861 9F       		.byte	0x9f
 12225 1862 1A000000 		.4byte	.LVL377
 12226 1866 1C000000 		.4byte	.LVL378
 12227 186a 0600     		.2byte	0x6
 12228 186c 75       		.byte	0x75
 12229 186d 00       		.sleb128 0
 12230 186e 72       		.byte	0x72
 12231 186f 00       		.sleb128 0
 12232 1870 1C       		.byte	0x1c
 12233 1871 9F       		.byte	0x9f
 12234 1872 1C000000 		.4byte	.LVL378
 12235 1876 26000000 		.4byte	.LVL380
 12236 187a 0800     		.2byte	0x8
 12237 187c 70       		.byte	0x70
 12238 187d 08       		.sleb128 8
 12239 187e 94       		.byte	0x94
 12240 187f 02       		.byte	0x2
 12241 1880 72       		.byte	0x72
 12242 1881 00       		.sleb128 0
 12243 1882 1C       		.byte	0x1c
 12244 1883 9F       		.byte	0x9f
 12245 1884 00000000 		.4byte	0
 12246 1888 00000000 		.4byte	0
 12247              	.LLST120:
 12248 188c 26000000 		.4byte	.LVL380
 12249 1890 2C000000 		.4byte	.LVL382
 12250 1894 0100     		.2byte	0x1
 12251 1896 50       		.byte	0x50
 12252 1897 38000000 		.4byte	.LVL383
 12253 189b 40000000 		.4byte	.LVL384
 12254 189f 0100     		.2byte	0x1
 12255 18a1 50       		.byte	0x50
 12256 18a2 00000000 		.4byte	0
 12257 18a6 00000000 		.4byte	0
 12258              	.LLST121:
 12259 18aa 00000000 		.4byte	.LVL385
 12260 18ae 0C000000 		.4byte	.LVL386
 12261 18b2 0100     		.2byte	0x1
ARM GAS  C:\Users\jo\AppData\Local\Temp\ccT06EVW.s 			page 219


 12262 18b4 50       		.byte	0x50
 12263 18b5 0C000000 		.4byte	.LVL386
 12264 18b9 0E000000 		.4byte	.LVL387
 12265 18bd 0400     		.2byte	0x4
 12266 18bf F3       		.byte	0xf3
 12267 18c0 01       		.uleb128 0x1
 12268 18c1 50       		.byte	0x50
 12269 18c2 9F       		.byte	0x9f
 12270 18c3 0E000000 		.4byte	.LVL387
 12271 18c7 1E000000 		.4byte	.LVL388
 12272 18cb 0100     		.2byte	0x1
 12273 18cd 50       		.byte	0x50
 12274 18ce 1E000000 		.4byte	.LVL388
 12275 18d2 30000000 		.4byte	.LVL391
 12276 18d6 0100     		.2byte	0x1
 12277 18d8 55       		.byte	0x55
 12278 18d9 30000000 		.4byte	.LVL391
 12279 18dd 34000000 		.4byte	.LVL392
 12280 18e1 0400     		.2byte	0x4
 12281 18e3 F3       		.byte	0xf3
 12282 18e4 01       		.uleb128 0x1
 12283 18e5 50       		.byte	0x50
 12284 18e6 9F       		.byte	0x9f
 12285 18e7 34000000 		.4byte	.LVL392
 12286 18eb 40000000 		.4byte	.LVL395
 12287 18ef 0100     		.2byte	0x1
 12288 18f1 55       		.byte	0x55
 12289 18f2 40000000 		.4byte	.LVL395
 12290 18f6 43000000 		.4byte	.LVL396-1
 12291 18fa 0100     		.2byte	0x1
 12292 18fc 50       		.byte	0x50
 12293 18fd 43000000 		.4byte	.LVL396-1
 12294 1901 44000000 		.4byte	.LFE276
 12295 1905 0400     		.2byte	0x4
 12296 1907 F3       		.byte	0xf3
 12297 1908 01       		.uleb128 0x1
 12298 1909 50       		.byte	0x50
 12299 190a 9F       		.byte	0x9f
 12300 190b 00000000 		.4byte	0
 12301 190f 00000000 		.4byte	0
 12302              	.LLST122:
 12303 1913 00000000 		.4byte	.LVL385
 12304 1917 23000000 		.4byte	.LVL389-1
 12305 191b 0100     		.2byte	0x1
 12306 191d 51       		.byte	0x51
 12307 191e 23000000 		.4byte	.LVL389-1
 12308 1922 30000000 		.4byte	.LVL391
 12309 1926 0100     		.2byte	0x1
 12310 1928 54       		.byte	0x54
 12311 1929 30000000 		.4byte	.LVL391
 12312 192d 34000000 		.4byte	.LVL392
 12313 1931 0400     		.2byte	0x4
 12314 1933 F3       		.byte	0xf3
 12315 1934 01       		.uleb128 0x1
 12316 1935 51       		.byte	0x51
 12317 1936 9F       		.byte	0x9f
 12318 1937 34000000 		.4byte	.LVL392
ARM GAS  C:\Users\jo\AppData\Local\Temp\ccT06EVW.s 			page 220


 12319 193b 40000000 		.4byte	.LVL395
 12320 193f 0100     		.2byte	0x1
 12321 1941 54       		.byte	0x54
 12322 1942 40000000 		.4byte	.LVL395
 12323 1946 43000000 		.4byte	.LVL396-1
 12324 194a 0100     		.2byte	0x1
 12325 194c 51       		.byte	0x51
 12326 194d 43000000 		.4byte	.LVL396-1
 12327 1951 44000000 		.4byte	.LFE276
 12328 1955 0400     		.2byte	0x4
 12329 1957 F3       		.byte	0xf3
 12330 1958 01       		.uleb128 0x1
 12331 1959 51       		.byte	0x51
 12332 195a 9F       		.byte	0x9f
 12333 195b 00000000 		.4byte	0
 12334 195f 00000000 		.4byte	0
 12335              	.LLST123:
 12336 1963 2C000000 		.4byte	.LVL390
 12337 1967 30000000 		.4byte	.LVL391
 12338 196b 0100     		.2byte	0x1
 12339 196d 50       		.byte	0x50
 12340 196e 34000000 		.4byte	.LVL392
 12341 1972 36000000 		.4byte	.LVL393
 12342 1976 0100     		.2byte	0x1
 12343 1978 50       		.byte	0x50
 12344 1979 36000000 		.4byte	.LVL393
 12345 197d 3A000000 		.4byte	.LVL394
 12346 1981 0100     		.2byte	0x1
 12347 1983 52       		.byte	0x52
 12348 1984 00000000 		.4byte	0
 12349 1988 00000000 		.4byte	0
 12350              		.section	.debug_aranges,"",%progbits
 12351 0000 BC000000 		.4byte	0xbc
 12352 0004 0200     		.2byte	0x2
 12353 0006 00000000 		.4byte	.Ldebug_info0
 12354 000a 04       		.byte	0x4
 12355 000b 00       		.byte	0
 12356 000c 0000     		.2byte	0
 12357 000e 0000     		.2byte	0
 12358 0010 00000000 		.4byte	.LFB257
 12359 0014 30000000 		.4byte	.LFE257-.LFB257
 12360 0018 00000000 		.4byte	.LFB277
 12361 001c 20000000 		.4byte	.LFE277-.LFB277
 12362 0020 00000000 		.4byte	.LFB278
 12363 0024 28000000 		.4byte	.LFE278-.LFB278
 12364 0028 00000000 		.4byte	.LFB260
 12365 002c 8C000000 		.4byte	.LFE260-.LFB260
 12366 0030 00000000 		.4byte	.LFB262
 12367 0034 D4000000 		.4byte	.LFE262-.LFB262
 12368 0038 00000000 		.4byte	.LFB263
 12369 003c F8000000 		.4byte	.LFE263-.LFB263
 12370 0040 00000000 		.4byte	.LFB259
 12371 0044 40020000 		.4byte	.LFE259-.LFB259
 12372 0048 00000000 		.4byte	.LFB261
 12373 004c 18010000 		.4byte	.LFE261-.LFB261
 12374 0050 00000000 		.4byte	.LFB264
 12375 0054 14000000 		.4byte	.LFE264-.LFB264
ARM GAS  C:\Users\jo\AppData\Local\Temp\ccT06EVW.s 			page 221


 12376 0058 00000000 		.4byte	.LFB265
 12377 005c 0A000000 		.4byte	.LFE265-.LFB265
 12378 0060 00000000 		.4byte	.LFB266
 12379 0064 A8000000 		.4byte	.LFE266-.LFB266
 12380 0068 00000000 		.4byte	.LFB267
 12381 006c 12000000 		.4byte	.LFE267-.LFB267
 12382 0070 00000000 		.4byte	.LFB268
 12383 0074 94000000 		.4byte	.LFE268-.LFB268
 12384 0078 00000000 		.4byte	.LFB269
 12385 007c 94010000 		.4byte	.LFE269-.LFB269
 12386 0080 00000000 		.4byte	.LFB270
 12387 0084 C0000000 		.4byte	.LFE270-.LFB270
 12388 0088 00000000 		.4byte	.LFB271
 12389 008c F8000000 		.4byte	.LFE271-.LFB271
 12390 0090 00000000 		.4byte	.LFB272
 12391 0094 5C000000 		.4byte	.LFE272-.LFB272
 12392 0098 00000000 		.4byte	.LFB273
 12393 009c 22000000 		.4byte	.LFE273-.LFB273
 12394 00a0 00000000 		.4byte	.LFB274
 12395 00a4 84000000 		.4byte	.LFE274-.LFB274
 12396 00a8 00000000 		.4byte	.LFB275
 12397 00ac 44000000 		.4byte	.LFE275-.LFB275
 12398 00b0 00000000 		.4byte	.LFB276
 12399 00b4 44000000 		.4byte	.LFE276-.LFB276
 12400 00b8 00000000 		.4byte	0
 12401 00bc 00000000 		.4byte	0
 12402              		.section	.debug_ranges,"",%progbits
 12403              	.Ldebug_ranges0:
 12404 0000 00000000 		.4byte	.LBB96
 12405 0004 04000000 		.4byte	.LBE96
 12406 0008 06000000 		.4byte	.LBB99
 12407 000c 30000000 		.4byte	.LBE99
 12408 0010 00000000 		.4byte	0
 12409 0014 00000000 		.4byte	0
 12410 0018 12000000 		.4byte	.LBB108
 12411 001c 24000000 		.4byte	.LBE108
 12412 0020 28000000 		.4byte	.LBB115
 12413 0024 54000000 		.4byte	.LBE115
 12414 0028 5E000000 		.4byte	.LBB116
 12415 002c A6000000 		.4byte	.LBE116
 12416 0030 00000000 		.4byte	0
 12417 0034 00000000 		.4byte	0
 12418 0038 16000000 		.4byte	.LBB109
 12419 003c 20000000 		.4byte	.LBE109
 12420 0040 8C000000 		.4byte	.LBB114
 12421 0044 A6000000 		.4byte	.LBE114
 12422 0048 00000000 		.4byte	0
 12423 004c 00000000 		.4byte	0
 12424 0050 80000000 		.4byte	.LBB151
 12425 0054 82000000 		.4byte	.LBE151
 12426 0058 88000000 		.4byte	.LBB154
 12427 005c 8C000000 		.4byte	.LBE154
 12428 0060 00000000 		.4byte	0
 12429 0064 00000000 		.4byte	0
 12430 0068 24000000 		.4byte	.LBB187
 12431 006c 7A000000 		.4byte	.LBE187
 12432 0070 80000000 		.4byte	.LBB198
ARM GAS  C:\Users\jo\AppData\Local\Temp\ccT06EVW.s 			page 222


 12433 0074 84000000 		.4byte	.LBE198
 12434 0078 00000000 		.4byte	0
 12435 007c 00000000 		.4byte	0
 12436 0080 36000000 		.4byte	.LBB188
 12437 0084 54000000 		.4byte	.LBE188
 12438 0088 60000000 		.4byte	.LBB197
 12439 008c 7A000000 		.4byte	.LBE197
 12440 0090 00000000 		.4byte	0
 12441 0094 00000000 		.4byte	0
 12442 0098 36000000 		.4byte	.LBB189
 12443 009c 48000000 		.4byte	.LBE189
 12444 00a0 60000000 		.4byte	.LBB194
 12445 00a4 64000000 		.4byte	.LBE194
 12446 00a8 68000000 		.4byte	.LBB195
 12447 00ac 6A000000 		.4byte	.LBE195
 12448 00b0 74000000 		.4byte	.LBB196
 12449 00b4 7A000000 		.4byte	.LBE196
 12450 00b8 00000000 		.4byte	0
 12451 00bc 00000000 		.4byte	0
 12452 00c0 26000000 		.4byte	.LBB199
 12453 00c4 28000000 		.4byte	.LBE199
 12454 00c8 2C000000 		.4byte	.LBB200
 12455 00cc 40000000 		.4byte	.LBE200
 12456 00d0 00000000 		.4byte	0
 12457 00d4 00000000 		.4byte	0
 12458 00d8 00000000 		.4byte	.LFB257
 12459 00dc 30000000 		.4byte	.LFE257
 12460 00e0 00000000 		.4byte	.LFB277
 12461 00e4 20000000 		.4byte	.LFE277
 12462 00e8 00000000 		.4byte	.LFB278
 12463 00ec 28000000 		.4byte	.LFE278
 12464 00f0 00000000 		.4byte	.LFB260
 12465 00f4 8C000000 		.4byte	.LFE260
 12466 00f8 00000000 		.4byte	.LFB262
 12467 00fc D4000000 		.4byte	.LFE262
 12468 0100 00000000 		.4byte	.LFB263
 12469 0104 F8000000 		.4byte	.LFE263
 12470 0108 00000000 		.4byte	.LFB259
 12471 010c 40020000 		.4byte	.LFE259
 12472 0110 00000000 		.4byte	.LFB261
 12473 0114 18010000 		.4byte	.LFE261
 12474 0118 00000000 		.4byte	.LFB264
 12475 011c 14000000 		.4byte	.LFE264
 12476 0120 00000000 		.4byte	.LFB265
 12477 0124 0A000000 		.4byte	.LFE265
 12478 0128 00000000 		.4byte	.LFB266
 12479 012c A8000000 		.4byte	.LFE266
 12480 0130 00000000 		.4byte	.LFB267
 12481 0134 12000000 		.4byte	.LFE267
 12482 0138 00000000 		.4byte	.LFB268
 12483 013c 94000000 		.4byte	.LFE268
 12484 0140 00000000 		.4byte	.LFB269
 12485 0144 94010000 		.4byte	.LFE269
 12486 0148 00000000 		.4byte	.LFB270
 12487 014c C0000000 		.4byte	.LFE270
 12488 0150 00000000 		.4byte	.LFB271
 12489 0154 F8000000 		.4byte	.LFE271
ARM GAS  C:\Users\jo\AppData\Local\Temp\ccT06EVW.s 			page 223


 12490 0158 00000000 		.4byte	.LFB272
 12491 015c 5C000000 		.4byte	.LFE272
 12492 0160 00000000 		.4byte	.LFB273
 12493 0164 22000000 		.4byte	.LFE273
 12494 0168 00000000 		.4byte	.LFB274
 12495 016c 84000000 		.4byte	.LFE274
 12496 0170 00000000 		.4byte	.LFB275
 12497 0174 44000000 		.4byte	.LFE275
 12498 0178 00000000 		.4byte	.LFB276
 12499 017c 44000000 		.4byte	.LFE276
 12500 0180 00000000 		.4byte	0
 12501 0184 00000000 		.4byte	0
 12502              		.section	.debug_line,"",%progbits
 12503              	.Ldebug_line0:
 12504 0000 B30B0000 		.section	.debug_str,"MS",%progbits,1
 12504      0200BF03 
 12504      00000201 
 12504      FB0E0D00 
 12504      01010101 
 12505              	.LASF52:
 12506 0000 63685F74 		.ascii	"ch_threads_list\000"
 12506      68726561 
 12506      64735F6C 
 12506      69737400 
 12507              	.LASF53:
 12508 0010 74687265 		.ascii	"threads_queue_t\000"
 12508      6164735F 
 12508      71756575 
 12508      655F7400 
 12509              	.LASF138:
 12510 0020 50425546 		.ascii	"PBUF_LINK\000"
 12510      5F4C494E 
 12510      4B00
 12511              	.LASF282:
 12512 002a 49544D5F 		.ascii	"ITM_RxBuffer\000"
 12512      52784275 
 12512      66666572 
 12512      00
 12513              	.LASF292:
 12514 0037 6D656D5F 		.ascii	"mem_free\000"
 12514      66726565 
 12514      00
 12515              	.LASF122:
 12516 0040 4D454D50 		.ascii	"MEMP_TCP_PCB_LISTEN\000"
 12516      5F544350 
 12516      5F504342 
 12516      5F4C4953 
 12516      54454E00 
 12517              	.LASF162:
 12518 0054 736F5F6F 		.ascii	"so_options\000"
 12518      7074696F 
 12518      6E7300
 12519              	.LASF90:
 12520 005f 63686172 		.ascii	"char\000"
 12520      00
 12521              	.LASF290:
 12522 0064 63687670 		.ascii	"chvprintf\000"
ARM GAS  C:\Users\jo\AppData\Local\Temp\ccT06EVW.s 			page 224


 12522      72696E74 
 12522      6600
 12523              	.LASF84:
 12524 006e 72656761 		.ascii	"regarm_t\000"
 12524      726D5F74 
 12524      00
 12525              	.LASF298:
 12526 0077 7374726C 		.ascii	"strlen\000"
 12526      656E00
 12527              	.LASF35:
 12528 007e 705F7072 		.ascii	"p_prio\000"
 12528      696F00
 12529              	.LASF272:
 12530 0085 70627566 		.ascii	"pbuf_coalesce\000"
 12530      5F636F61 
 12530      6C657363 
 12530      6500
 12531              	.LASF141:
 12532 0093 50425546 		.ascii	"PBUF_RAM\000"
 12532      5F52414D 
 12532      00
 12533              	.LASF94:
 12534 009c 7264796D 		.ascii	"rdymsg\000"
 12534      736700
 12535              	.LASF169:
 12536 00a3 706F6C6C 		.ascii	"polltmr\000"
 12536      746D7200 
 12537              	.LASF158:
 12538 00ab 7463705F 		.ascii	"tcp_accept_fn\000"
 12538      61636365 
 12538      70745F66 
 12538      6E00
 12539              	.LASF145:
 12540 00b9 70627566 		.ascii	"pbuf_type\000"
 12540      5F747970 
 12540      6500
 12541              	.LASF31:
 12542 00c3 73797374 		.ascii	"systime_t\000"
 12542      696D655F 
 12542      7400
 12543              	.LASF100:
 12544 00cd 6D5F6F77 		.ascii	"m_owner\000"
 12544      6E657200 
 12545              	.LASF222:
 12546 00d5 54494D45 		.ascii	"TIME_WAIT\000"
 12546      5F574149 
 12546      5400
 12547              	.LASF301:
 12548 00df 433A5C55 		.ascii	"C:\\Users\\jo\\Documents\\GitHub\\ChibiOS\\demos\\S"
 12548      73657273 
 12548      5C6A6F5C 
 12548      446F6375 
 12548      6D656E74 
 12549 010b 544D3332 		.ascii	"TM32\\RT-STM32F407-DISCOVERY\000"
 12549      5C52542D 
 12549      53544D33 
 12549      32463430 
ARM GAS  C:\Users\jo\AppData\Local\Temp\ccT06EVW.s 			page 225


 12549      372D4449 
 12550              	.LASF0:
 12551 0127 756E7369 		.ascii	"unsigned int\000"
 12551      676E6564 
 12551      20696E74 
 12551      00
 12552              	.LASF211:
 12553 0134 7463705F 		.ascii	"tcp_connected_fn\000"
 12553      636F6E6E 
 12553      65637465 
 12553      645F666E 
 12553      00
 12554              	.LASF147:
 12555 0145 6E657874 		.ascii	"next\000"
 12555      00
 12556              	.LASF277:
 12557 014a 73746172 		.ascii	"start_offset\000"
 12557      745F6F66 
 12557      66736574 
 12557      00
 12558              	.LASF103:
 12559 0157 42617365 		.ascii	"BaseSequentialStreamVMT\000"
 12559      53657175 
 12559      656E7469 
 12559      616C5374 
 12559      7265616D 
 12560              	.LASF50:
 12561 016f 74687265 		.ascii	"threads_list_t\000"
 12561      6164735F 
 12561      6C697374 
 12561      5F7400
 12562              	.LASF135:
 12563 017e 6572725F 		.ascii	"err_t\000"
 12563      7400
 12564              	.LASF120:
 12565 0184 4D454D50 		.ascii	"MEMP_UDP_PCB\000"
 12565      5F554450 
 12565      5F504342 
 12565      00
 12566              	.LASF43:
 12567 0191 705F7761 		.ascii	"p_waiting\000"
 12567      6974696E 
 12567      6700
 12568              	.LASF10:
 12569 019b 5F5F696E 		.ascii	"__int32_t\000"
 12569      7433325F 
 12569      7400
 12570              	.LASF113:
 12571 01a5 7531365F 		.ascii	"u16_t\000"
 12571      7400
 12572              	.LASF153:
 12573 01ab 70627566 		.ascii	"pbuf_custom\000"
 12573      5F637573 
 12573      746F6D00 
 12574              	.LASF288:
 12575 01b7 70627566 		.ascii	"pbuf_get_at\000"
 12575      5F676574 
ARM GAS  C:\Users\jo\AppData\Local\Temp\ccT06EVW.s 			page 226


 12575      5F617400 
 12576              	.LASF80:
 12577 01c3 76746C69 		.ascii	"vtlist\000"
 12577      737400
 12578              	.LASF175:
 12579 01ca 7263765F 		.ascii	"rcv_ann_right_edge\000"
 12579      616E6E5F 
 12579      72696768 
 12579      745F6564 
 12579      676500
 12580              	.LASF56:
 12581 01dd 63685F72 		.ascii	"ch_ready_list\000"
 12581      65616479 
 12581      5F6C6973 
 12581      7400
 12582              	.LASF143:
 12583 01eb 50425546 		.ascii	"PBUF_REF\000"
 12583      5F524546 
 12583      00
 12584              	.LASF97:
 12585 01f4 65776D61 		.ascii	"ewmask\000"
 12585      736B00
 12586              	.LASF206:
 12587 01fb 6B656570 		.ascii	"keep_cnt_sent\000"
 12587      5F636E74 
 12587      5F73656E 
 12587      7400
 12588              	.LASF132:
 12589 0209 4D454D50 		.ascii	"MEMP_PBUF_POOL\000"
 12589      5F504255 
 12589      465F504F 
 12589      4F4C00
 12590              	.LASF208:
 12591 0218 7463705F 		.ascii	"tcp_sent_fn\000"
 12591      73656E74 
 12591      5F666E00 
 12592              	.LASF63:
 12593 0224 76746675 		.ascii	"vtfunc_t\000"
 12593      6E635F74 
 12593      00
 12594              	.LASF96:
 12595 022d 77746F62 		.ascii	"wtobjp\000"
 12595      6A7000
 12596              	.LASF75:
 12597 0234 63685F73 		.ascii	"ch_system_debug\000"
 12597      79737465 
 12597      6D5F6465 
 12597      62756700 
 12598              	.LASF233:
 12599 0244 70627566 		.ascii	"pbuf_pool_is_empty\000"
 12599      5F706F6F 
 12599      6C5F6973 
 12599      5F656D70 
 12599      747900
 12600              	.LASF136:
 12601 0257 50425546 		.ascii	"PBUF_TRANSPORT\000"
 12601      5F545241 
ARM GAS  C:\Users\jo\AppData\Local\Temp\ccT06EVW.s 			page 227


 12601      4E53504F 
 12601      525400
 12602              	.LASF227:
 12603 0266 7365716E 		.ascii	"seqno\000"
 12603      6F00
 12604              	.LASF259:
 12605 026c 7461696C 		.ascii	"tail_gone\000"
 12605      5F676F6E 
 12605      6500
 12606              	.LASF173:
 12607 0276 7263765F 		.ascii	"rcv_wnd\000"
 12607      776E6400 
 12608              	.LASF22:
 12609 027e 75696E74 		.ascii	"uint32_t\000"
 12609      33325F74 
 12609      00
 12610              	.LASF127:
 12611 0287 4D454D50 		.ascii	"MEMP_NETCONN\000"
 12611      5F4E4554 
 12611      434F4E4E 
 12611      00
 12612              	.LASF182:
 12613 0294 63776E64 		.ascii	"cwnd\000"
 12613      00
 12614              	.LASF30:
 12615 0299 6576656E 		.ascii	"eventmask_t\000"
 12615      746D6173 
 12615      6B5F7400 
 12616              	.LASF270:
 12617 02a5 70627566 		.ascii	"pbuf_take\000"
 12617      5F74616B 
 12617      6500
 12618              	.LASF164:
 12619 02af 61636365 		.ascii	"accept\000"
 12619      707400
 12620              	.LASF128:
 12621 02b6 4D454D50 		.ascii	"MEMP_TCPIP_MSG_API\000"
 12621      5F544350 
 12621      49505F4D 
 12621      53475F41 
 12621      504900
 12622              	.LASF167:
 12623 02c9 6C6F6361 		.ascii	"local_port\000"
 12623      6C5F706F 
 12623      727400
 12624              	.LASF98:
 12625 02d4 6D757465 		.ascii	"mutex\000"
 12625      7800
 12626              	.LASF280:
 12627 02da 73756273 		.ascii	"substr\000"
 12627      747200
 12628              	.LASF28:
 12629 02e1 74707269 		.ascii	"tprio_t\000"
 12629      6F5F7400 
 12630              	.LASF248:
 12631 02e9 636F756E 		.ascii	"count\000"
 12631      7400
ARM GAS  C:\Users\jo\AppData\Local\Temp\ccT06EVW.s 			page 228


 12632              	.LASF249:
 12633 02ef 70627566 		.ascii	"pbuf_alloc\000"
 12633      5F616C6C 
 12633      6F6300
 12634              	.LASF65:
 12635 02fa 63685F76 		.ascii	"ch_virtual_timer\000"
 12635      69727475 
 12635      616C5F74 
 12635      696D6572 
 12635      00
 12636              	.LASF19:
 12637 030b 696E7431 		.ascii	"int16_t\000"
 12637      365F7400 
 12638              	.LASF223:
 12639 0313 7463705F 		.ascii	"tcp_seg\000"
 12639      73656700 
 12640              	.LASF16:
 12641 031b 6C6F6E67 		.ascii	"long long unsigned int\000"
 12641      206C6F6E 
 12641      6720756E 
 12641      7369676E 
 12641      65642069 
 12642              	.LASF91:
 12643 0332 6F666673 		.ascii	"offset\000"
 12643      657400
 12644              	.LASF235:
 12645 0339 72656173 		.ascii	"reason\000"
 12645      6F6E00
 12646              	.LASF178:
 12647 0340 72747365 		.ascii	"rtseq\000"
 12647      7100
 12648              	.LASF8:
 12649 0346 5F5F7569 		.ascii	"__uint16_t\000"
 12649      6E743136 
 12649      5F7400
 12650              	.LASF302:
 12651 0351 7463705F 		.ascii	"tcp_state\000"
 12651      73746174 
 12651      6500
 12652              	.LASF176:
 12653 035b 7274696D 		.ascii	"rtime\000"
 12653      6500
 12654              	.LASF187:
 12655 0361 736E645F 		.ascii	"snd_lbb\000"
 12655      6C626200 
 12656              	.LASF37:
 12657 0369 705F6E65 		.ascii	"p_newer\000"
 12657      77657200 
 12658              	.LASF72:
 12659 0371 63685F76 		.ascii	"ch_virtual_timers_list\000"
 12659      69727475 
 12659      616C5F74 
 12659      696D6572 
 12659      735F6C69 
 12660              	.LASF172:
 12661 0388 7263765F 		.ascii	"rcv_nxt\000"
 12661      6E787400 
ARM GAS  C:\Users\jo\AppData\Local\Temp\ccT06EVW.s 			page 229


 12662              	.LASF129:
 12663 0390 4D454D50 		.ascii	"MEMP_TCPIP_MSG_INPKT\000"
 12663      5F544350 
 12663      49505F4D 
 12663      53475F49 
 12663      4E504B54 
 12664              	.LASF293:
 12665 03a5 6D656D70 		.ascii	"memp_free\000"
 12665      5F667265 
 12665      6500
 12666              	.LASF260:
 12667 03af 70627566 		.ascii	"pbuf_copy\000"
 12667      5F636F70 
 12667      7900
 12668              	.LASF195:
 12669 03b9 756E6163 		.ascii	"unacked\000"
 12669      6B656400 
 12670              	.LASF32:
 12671 03c1 74687265 		.ascii	"thread_t\000"
 12671      61645F74 
 12671      00
 12672              	.LASF33:
 12673 03ca 705F6E65 		.ascii	"p_next\000"
 12673      787400
 12674              	.LASF88:
 12675 03d1 5F5F676E 		.ascii	"__gnuc_va_list\000"
 12675      75635F76 
 12675      615F6C69 
 12675      737400
 12676              	.LASF221:
 12677 03e0 4C415354 		.ascii	"LAST_ACK\000"
 12677      5F41434B 
 12677      00
 12678              	.LASF230:
 12679 03e9 63686B73 		.ascii	"chksum\000"
 12679      756D00
 12680              	.LASF1:
 12681 03f0 73697A65 		.ascii	"size_t\000"
 12681      5F7400
 12682              	.LASF295:
 12683 03f7 6D656D5F 		.ascii	"mem_malloc\000"
 12683      6D616C6C 
 12683      6F6300
 12684              	.LASF148:
 12685 0402 7061796C 		.ascii	"payload\000"
 12685      6F616400 
 12686              	.LASF137:
 12687 040a 50425546 		.ascii	"PBUF_IP\000"
 12687      5F495000 
 12688              	.LASF289:
 12689 0412 74637069 		.ascii	"tcpip_callback_with_block\000"
 12689      705F6361 
 12689      6C6C6261 
 12689      636B5F77 
 12689      6974685F 
 12690              	.LASF200:
 12691 042c 636F6E6E 		.ascii	"connected\000"
ARM GAS  C:\Users\jo\AppData\Local\Temp\ccT06EVW.s 			page 230


 12691      65637465 
 12691      6400
 12692              	.LASF107:
 12693 0436 5F426F6F 		.ascii	"_Bool\000"
 12693      6C00
 12694              	.LASF144:
 12695 043c 50425546 		.ascii	"PBUF_POOL\000"
 12695      5F504F4F 
 12695      4C00
 12696              	.LASF220:
 12697 0446 434C4F53 		.ascii	"CLOSING\000"
 12697      494E4700 
 12698              	.LASF151:
 12699 044e 666C6167 		.ascii	"flags\000"
 12699      7300
 12700              	.LASF15:
 12701 0454 5F5F7569 		.ascii	"__uint64_t\000"
 12701      6E743634 
 12701      5F7400
 12702              	.LASF300:
 12703 045f 2E2E2F2E 		.ascii	"../../../os/ext/lwip-1.4.1/src/core/pbuf.c\000"
 12703      2E2F2E2E 
 12703      2F6F732F 
 12703      6578742F 
 12703      6C776970 
 12704              	.LASF112:
 12705 048a 73385F74 		.ascii	"s8_t\000"
 12705      00
 12706              	.LASF116:
 12707 048f 7333325F 		.ascii	"s32_t\000"
 12707      7400
 12708              	.LASF254:
 12709 0495 70627566 		.ascii	"pbuf_clen\000"
 12709      5F636C65 
 12709      6E00
 12710              	.LASF246:
 12711 049f 696E6372 		.ascii	"increment_magnitude\000"
 12711      656D656E 
 12711      745F6D61 
 12711      676E6974 
 12711      75646500 
 12712              	.LASF17:
 12713 04b3 696E7438 		.ascii	"int8_t\000"
 12713      5F7400
 12714              	.LASF269:
 12715 04ba 636F7069 		.ascii	"copied_total\000"
 12715      65645F74 
 12715      6F74616C 
 12715      00
 12716              	.LASF106:
 12717 04c7 42617365 		.ascii	"BaseSequentialStream\000"
 12717      53657175 
 12717      656E7469 
 12717      616C5374 
 12717      7265616D 
 12718              	.LASF180:
 12719 04dc 64757061 		.ascii	"dupacks\000"
ARM GAS  C:\Users\jo\AppData\Local\Temp\ccT06EVW.s 			page 231


 12719      636B7300 
 12720              	.LASF166:
 12721 04e4 7072696F 		.ascii	"prio\000"
 12721      00
 12722              	.LASF170:
 12723 04e9 706F6C6C 		.ascii	"pollinterval\000"
 12723      696E7465 
 12723      7276616C 
 12723      00
 12724              	.LASF131:
 12725 04f6 4D454D50 		.ascii	"MEMP_PBUF\000"
 12725      5F504255 
 12725      4600
 12726              	.LASF201:
 12727 0500 706F6C6C 		.ascii	"poll\000"
 12727      00
 12728              	.LASF303:
 12729 0505 63687072 		.ascii	"chprintf\000"
 12729      696E7466 
 12729      00
 12730              	.LASF68:
 12731 050e 76745F64 		.ascii	"vt_delta\000"
 12731      656C7461 
 12731      00
 12732              	.LASF244:
 12733 0517 70627566 		.ascii	"pbuf_header\000"
 12733      5F686561 
 12733      64657200 
 12734              	.LASF255:
 12735 0523 70627566 		.ascii	"pbuf_realloc\000"
 12735      5F726561 
 12735      6C6C6F63 
 12735      00
 12736              	.LASF118:
 12737 0530 6D656D5F 		.ascii	"mem_size_t\000"
 12737      73697A65 
 12737      5F7400
 12738              	.LASF60:
 12739 053b 725F6E65 		.ascii	"r_newer\000"
 12739      77657200 
 12740              	.LASF273:
 12741 0543 70627566 		.ascii	"pbuf_memcmp\000"
 12741      5F6D656D 
 12741      636D7000 
 12742              	.LASF73:
 12743 054f 76745F6C 		.ascii	"vt_lasttime\000"
 12743      61737474 
 12743      696D6500 
 12744              	.LASF133:
 12745 055b 4D454D50 		.ascii	"MEMP_MAX\000"
 12745      5F4D4158 
 12745      00
 12746              	.LASF190:
 12747 0564 61636B65 		.ascii	"acked\000"
 12747      6400
 12748              	.LASF219:
 12749 056a 434C4F53 		.ascii	"CLOSE_WAIT\000"
ARM GAS  C:\Users\jo\AppData\Local\Temp\ccT06EVW.s 			page 232


 12749      455F5741 
 12749      495400
 12750              	.LASF26:
 12751 0575 74737461 		.ascii	"tstate_t\000"
 12751      74655F74 
 12751      00
 12752              	.LASF245:
 12753 057e 68656164 		.ascii	"header_size_increment\000"
 12753      65725F73 
 12753      697A655F 
 12753      696E6372 
 12753      656D656E 
 12754              	.LASF14:
 12755 0594 6C6F6E67 		.ascii	"long long int\000"
 12755      206C6F6E 
 12755      6720696E 
 12755      7400
 12756              	.LASF265:
 12757 05a2 70627566 		.ascii	"pbuf_copy_partial\000"
 12757      5F636F70 
 12757      795F7061 
 12757      72746961 
 12757      6C00
 12758              	.LASF38:
 12759 05b4 705F6F6C 		.ascii	"p_older\000"
 12759      64657200 
 12760              	.LASF40:
 12761 05bc 705F7374 		.ascii	"p_state\000"
 12761      61746500 
 12762              	.LASF12:
 12763 05c4 5F5F7569 		.ascii	"__uint32_t\000"
 12763      6E743332 
 12763      5F7400
 12764              	.LASF198:
 12765 05cf 73656E74 		.ascii	"sent\000"
 12765      00
 12766              	.LASF18:
 12767 05d4 75696E74 		.ascii	"uint8_t\000"
 12767      385F7400 
 12768              	.LASF185:
 12769 05dc 736E645F 		.ascii	"snd_wl1\000"
 12769      776C3100 
 12770              	.LASF186:
 12771 05e4 736E645F 		.ascii	"snd_wl2\000"
 12771      776C3200 
 12772              	.LASF49:
 12773 05ec 705F6D70 		.ascii	"p_mpool\000"
 12773      6F6F6C00 
 12774              	.LASF47:
 12775 05f4 705F6D74 		.ascii	"p_mtxlist\000"
 12775      786C6973 
 12775      7400
 12776              	.LASF210:
 12777 05fe 7463705F 		.ascii	"tcp_err_fn\000"
 12777      6572725F 
 12777      666E00
 12778              	.LASF285:
ARM GAS  C:\Users\jo\AppData\Local\Temp\ccT06EVW.s 			page 233


 12779 0609 70627566 		.ascii	"pbuf_free_ooseq_pending\000"
 12779      5F667265 
 12779      655F6F6F 
 12779      7365715F 
 12779      70656E64 
 12780              	.LASF51:
 12781 0621 63685F74 		.ascii	"ch_thread\000"
 12781      68726561 
 12781      6400
 12782              	.LASF247:
 12783 062b 70627566 		.ascii	"pbuf_free\000"
 12783      5F667265 
 12783      6500
 12784              	.LASF110:
 12785 0635 76615F6C 		.ascii	"va_list\000"
 12785      69737400 
 12786              	.LASF74:
 12787 063d 73797374 		.ascii	"system_debug_t\000"
 12787      656D5F64 
 12787      65627567 
 12787      5F7400
 12788              	.LASF294:
 12789 064c 6D656D70 		.ascii	"memp_malloc\000"
 12789      5F6D616C 
 12789      6C6F6300 
 12790              	.LASF126:
 12791 0658 4D454D50 		.ascii	"MEMP_NETBUF\000"
 12791      5F4E4554 
 12791      42554600 
 12792              	.LASF54:
 12793 0664 63685F74 		.ascii	"ch_threads_queue\000"
 12793      68726561 
 12793      64735F71 
 12793      75657565 
 12793      00
 12794              	.LASF104:
 12795 0675 77726974 		.ascii	"write\000"
 12795      6500
 12796              	.LASF228:
 12797 067b 61636B6E 		.ascii	"ackno\000"
 12797      6F00
 12798              	.LASF57:
 12799 0681 725F7175 		.ascii	"r_queue\000"
 12799      65756500 
 12800              	.LASF279:
 12801 0689 70627566 		.ascii	"pbuf_strstr\000"
 12801      5F737472 
 12801      73747200 
 12802              	.LASF205:
 12803 0695 70657273 		.ascii	"persist_backoff\000"
 12803      6973745F 
 12803      6261636B 
 12803      6F666600 
 12804              	.LASF29:
 12805 06a5 6D73675F 		.ascii	"msg_t\000"
 12805      7400
 12806              	.LASF121:
ARM GAS  C:\Users\jo\AppData\Local\Temp\ccT06EVW.s 			page 234


 12807 06ab 4D454D50 		.ascii	"MEMP_TCP_PCB\000"
 12807      5F544350 
 12807      5F504342 
 12807      00
 12808              	.LASF111:
 12809 06b8 75385F74 		.ascii	"u8_t\000"
 12809      00
 12810              	.LASF41:
 12811 06bd 705F666C 		.ascii	"p_flags\000"
 12811      61677300 
 12812              	.LASF250:
 12813 06c5 6C617965 		.ascii	"layer\000"
 12813      7200
 12814              	.LASF6:
 12815 06cb 5F5F696E 		.ascii	"__int16_t\000"
 12815      7431365F 
 12815      7400
 12816              	.LASF93:
 12817 06d5 5F5F6170 		.ascii	"__ap\000"
 12817      00
 12818              	.LASF64:
 12819 06da 76697274 		.ascii	"virtual_timer_t\000"
 12819      75616C5F 
 12819      74696D65 
 12819      725F7400 
 12820              	.LASF108:
 12821 06ea 49544D53 		.ascii	"ITMStreamVMT\000"
 12821      74726561 
 12821      6D564D54 
 12821      00
 12822              	.LASF268:
 12823 06f7 6275665F 		.ascii	"buf_copy_len\000"
 12823      636F7079 
 12823      5F6C656E 
 12823      00
 12824              	.LASF263:
 12825 0704 6F666673 		.ascii	"offset_to\000"
 12825      65745F74 
 12825      6F00
 12826              	.LASF168:
 12827 070e 72656D6F 		.ascii	"remote_port\000"
 12827      74655F70 
 12827      6F727400 
 12828              	.LASF251:
 12829 071a 72656D5F 		.ascii	"rem_len\000"
 12829      6C656E00 
 12830              	.LASF181:
 12831 0722 6C617374 		.ascii	"lastack\000"
 12831      61636B00 
 12832              	.LASF174:
 12833 072a 7263765F 		.ascii	"rcv_ann_wnd\000"
 12833      616E6E5F 
 12833      776E6400 
 12834              	.LASF61:
 12835 0736 725F6F6C 		.ascii	"r_older\000"
 12835      64657200 
 12836              	.LASF124:
ARM GAS  C:\Users\jo\AppData\Local\Temp\ccT06EVW.s 			page 235


 12837 073e 4D454D50 		.ascii	"MEMP_REASSDATA\000"
 12837      5F524541 
 12837      53534441 
 12837      544100
 12838              	.LASF242:
 12839 074d 7061796C 		.ascii	"payload_mem_len\000"
 12839      6F61645F 
 12839      6D656D5F 
 12839      6C656E00 
 12840              	.LASF207:
 12841 075d 7463705F 		.ascii	"tcp_recv_fn\000"
 12841      72656376 
 12841      5F666E00 
 12842              	.LASF261:
 12843 0769 705F746F 		.ascii	"p_to\000"
 12843      00
 12844              	.LASF109:
 12845 076e 49544D53 		.ascii	"ITMStream\000"
 12845      74726561 
 12845      6D00
 12846              	.LASF296:
 12847 0778 6D656D5F 		.ascii	"mem_trim\000"
 12847      7472696D 
 12847      00
 12848              	.LASF45:
 12849 0781 705F6D73 		.ascii	"p_msg\000"
 12849      6700
 12850              	.LASF92:
 12851 0787 746D5F63 		.ascii	"tm_calibration_t\000"
 12851      616C6962 
 12851      72617469 
 12851      6F6E5F74 
 12851      00
 12852              	.LASF266:
 12853 0798 64617461 		.ascii	"dataptr\000"
 12853      70747200 
 12854              	.LASF25:
 12855 07a0 746D6F64 		.ascii	"tmode_t\000"
 12855      655F7400 
 12856              	.LASF214:
 12857 07a8 53594E5F 		.ascii	"SYN_SENT\000"
 12857      53454E54 
 12857      00
 12858              	.LASF209:
 12859 07b1 7463705F 		.ascii	"tcp_poll_fn\000"
 12859      706F6C6C 
 12859      5F666E00 
 12860              	.LASF281:
 12861 07bd 73756273 		.ascii	"substr_len\000"
 12861      74725F6C 
 12861      656E00
 12862              	.LASF39:
 12863 07c8 705F6E61 		.ascii	"p_name\000"
 12863      6D6500
 12864              	.LASF20:
 12865 07cf 75696E74 		.ascii	"uint16_t\000"
 12865      31365F74 
ARM GAS  C:\Users\jo\AppData\Local\Temp\ccT06EVW.s 			page 236


 12865      00
 12866              	.LASF202:
 12867 07d8 65727266 		.ascii	"errf\000"
 12867      00
 12868              	.LASF139:
 12869 07dd 50425546 		.ascii	"PBUF_RAW\000"
 12869      5F524157 
 12869      00
 12870              	.LASF188:
 12871 07e6 736E645F 		.ascii	"snd_wnd\000"
 12871      776E6400 
 12872              	.LASF24:
 12873 07ee 7274636E 		.ascii	"rtcnt_t\000"
 12873      745F7400 
 12874              	.LASF154:
 12875 07f6 63757374 		.ascii	"custom_free_function\000"
 12875      6F6D5F66 
 12875      7265655F 
 12875      66756E63 
 12875      74696F6E 
 12876              	.LASF196:
 12877 080b 6F6F7365 		.ascii	"ooseq\000"
 12877      7100
 12878              	.LASF262:
 12879 0811 705F6672 		.ascii	"p_from\000"
 12879      6F6D00
 12880              	.LASF48:
 12881 0818 705F7265 		.ascii	"p_realprio\000"
 12881      616C7072 
 12881      696F00
 12882              	.LASF212:
 12883 0823 434C4F53 		.ascii	"CLOSED\000"
 12883      454400
 12884              	.LASF115:
 12885 082a 7533325F 		.ascii	"u32_t\000"
 12885      7400
 12886              	.LASF7:
 12887 0830 73686F72 		.ascii	"short int\000"
 12887      7420696E 
 12887      7400
 12888              	.LASF62:
 12889 083a 725F6375 		.ascii	"r_current\000"
 12889      7272656E 
 12889      7400
 12890              	.LASF46:
 12891 0844 705F6570 		.ascii	"p_epending\000"
 12891      656E6469 
 12891      6E6700
 12892              	.LASF99:
 12893 084f 6D5F7175 		.ascii	"m_queue\000"
 12893      65756500 
 12894              	.LASF11:
 12895 0857 6C6F6E67 		.ascii	"long int\000"
 12895      20696E74 
 12895      00
 12896              	.LASF87:
 12897 0860 706F7274 		.ascii	"port_intctx\000"
ARM GAS  C:\Users\jo\AppData\Local\Temp\ccT06EVW.s 			page 237


 12897      5F696E74 
 12897      63747800 
 12898              	.LASF152:
 12899 086c 70627566 		.ascii	"pbuf_free_custom_fn\000"
 12899      5F667265 
 12899      655F6375 
 12899      73746F6D 
 12899      5F666E00 
 12900              	.LASF243:
 12901 0880 70627566 		.ascii	"pbuf_alloced_custom\000"
 12901      5F616C6C 
 12901      6F636564 
 12901      5F637573 
 12901      746F6D00 
 12902              	.LASF240:
 12903 0894 6C656E67 		.ascii	"length\000"
 12903      746800
 12904              	.LASF194:
 12905 089b 756E7365 		.ascii	"unsent\000"
 12905      6E7400
 12906              	.LASF232:
 12907 08a2 74637069 		.ascii	"tcpip_callback_fn\000"
 12907      705F6361 
 12907      6C6C6261 
 12907      636B5F66 
 12907      6E00
 12908              	.LASF275:
 12909 08b4 70627566 		.ascii	"pbuf_memfind\000"
 12909      5F6D656D 
 12909      66696E64 
 12909      00
 12910              	.LASF177:
 12911 08c1 72747465 		.ascii	"rttest\000"
 12911      737400
 12912              	.LASF234:
 12913 08c8 6F73616C 		.ascii	"osalSysHalt\000"
 12913      53797348 
 12913      616C7400 
 12914              	.LASF78:
 12915 08d4 63685F73 		.ascii	"ch_system\000"
 12915      79737465 
 12915      6D00
 12916              	.LASF130:
 12917 08de 4D454D50 		.ascii	"MEMP_SYS_TIMEOUT\000"
 12917      5F535953 
 12917      5F54494D 
 12917      454F5554 
 12917      00
 12918              	.LASF264:
 12919 08ef 6F666673 		.ascii	"offset_from\000"
 12919      65745F66 
 12919      726F6D00 
 12920              	.LASF171:
 12921 08fb 6C617374 		.ascii	"last_timer\000"
 12921      5F74696D 
 12921      657200
 12922              	.LASF257:
ARM GAS  C:\Users\jo\AppData\Local\Temp\ccT06EVW.s 			page 238


 12923 0906 70627566 		.ascii	"pbuf_chain\000"
 12923      5F636861 
 12923      696E00
 12924              	.LASF160:
 12925 0911 6C6F6361 		.ascii	"local_ip\000"
 12925      6C5F6970 
 12925      00
 12926              	.LASF23:
 12927 091a 75696E74 		.ascii	"uint64_t\000"
 12927      36345F74 
 12927      00
 12928              	.LASF36:
 12929 0923 705F6374 		.ascii	"p_ctx\000"
 12929      7800
 12930              	.LASF79:
 12931 0929 726C6973 		.ascii	"rlist\000"
 12931      7400
 12932              	.LASF193:
 12933 092f 756E7365 		.ascii	"unsent_oversize\000"
 12933      6E745F6F 
 12933      76657273 
 12933      697A6500 
 12934              	.LASF304:
 12935 093f 70627566 		.ascii	"pbuf_free_ooseq_callback\000"
 12935      5F667265 
 12935      655F6F6F 
 12935      7365715F 
 12935      63616C6C 
 12936              	.LASF184:
 12937 0958 736E645F 		.ascii	"snd_nxt\000"
 12937      6E787400 
 12938              	.LASF267:
 12939 0960 6C656674 		.ascii	"left\000"
 12939      00
 12940              	.LASF117:
 12941 0965 6D656D5F 		.ascii	"mem_ptr_t\000"
 12941      7074725F 
 12941      7400
 12942              	.LASF4:
 12943 096f 5F5F7569 		.ascii	"__uint8_t\000"
 12943      6E74385F 
 12943      7400
 12944              	.LASF216:
 12945 0979 45535441 		.ascii	"ESTABLISHED\000"
 12945      424C4953 
 12945      48454400 
 12946              	.LASF189:
 12947 0985 736E645F 		.ascii	"snd_wnd_max\000"
 12947      776E645F 
 12947      6D617800 
 12948              	.LASF105:
 12949 0991 72656164 		.ascii	"read\000"
 12949      00
 12950              	.LASF274:
 12951 0996 73746172 		.ascii	"start\000"
 12951      7400
 12952              	.LASF271:
ARM GAS  C:\Users\jo\AppData\Local\Temp\ccT06EVW.s 			page 239


 12953 099c 746F7461 		.ascii	"total_copy_len\000"
 12953      6C5F636F 
 12953      70795F6C 
 12953      656E00
 12954              	.LASF125:
 12955 09ab 4D454D50 		.ascii	"MEMP_FRAG_PBUF\000"
 12955      5F465241 
 12955      475F5042 
 12955      554600
 12956              	.LASF183:
 12957 09ba 73737468 		.ascii	"ssthresh\000"
 12957      72657368 
 12957      00
 12958              	.LASF286:
 12959 09c3 70627566 		.ascii	"pbuf_ref\000"
 12959      5F726566 
 12959      00
 12960              	.LASF191:
 12961 09cc 736E645F 		.ascii	"snd_buf\000"
 12961      62756600 
 12962              	.LASF86:
 12963 09d4 636F6E74 		.ascii	"context\000"
 12963      65787400 
 12964              	.LASF119:
 12965 09dc 4D454D50 		.ascii	"MEMP_RAW_PCB\000"
 12965      5F524157 
 12965      5F504342 
 12965      00
 12966              	.LASF229:
 12967 09e9 5F686472 		.ascii	"_hdrlen_rsvd_flags\000"
 12967      6C656E5F 
 12967      72737664 
 12967      5F666C61 
 12967      677300
 12968              	.LASF34:
 12969 09fc 705F7072 		.ascii	"p_prev\000"
 12969      657600
 12970              	.LASF231:
 12971 0a03 75726770 		.ascii	"urgp\000"
 12971      00
 12972              	.LASF83:
 12973 0a08 73697A65 		.ascii	"sizetype\000"
 12973      74797065 
 12973      00
 12974              	.LASF27:
 12975 0a11 74726566 		.ascii	"trefs_t\000"
 12975      735F7400 
 12976              	.LASF13:
 12977 0a19 6C6F6E67 		.ascii	"long unsigned int\000"
 12977      20756E73 
 12977      69676E65 
 12977      6420696E 
 12977      7400
 12978              	.LASF55:
 12979 0a2b 72656164 		.ascii	"ready_list_t\000"
 12979      795F6C69 
 12979      73745F74 
ARM GAS  C:\Users\jo\AppData\Local\Temp\ccT06EVW.s 			page 240


 12979      00
 12980              	.LASF224:
 12981 0a38 74637068 		.ascii	"tcphdr\000"
 12981      647200
 12982              	.LASF114:
 12983 0a3f 7331365F 		.ascii	"s16_t\000"
 12983      7400
 12984              	.LASF21:
 12985 0a45 696E7433 		.ascii	"int32_t\000"
 12985      325F7400 
 12986              	.LASF82:
 12987 0a4d 69646C65 		.ascii	"idle_thread_wa\000"
 12987      5F746872 
 12987      6561645F 
 12987      776100
 12988              	.LASF140:
 12989 0a5c 70627566 		.ascii	"pbuf_layer\000"
 12989      5F6C6179 
 12989      657200
 12990              	.LASF197:
 12991 0a67 72656675 		.ascii	"refused_data\000"
 12991      7365645F 
 12991      64617461 
 12991      00
 12992              	.LASF278:
 12993 0a74 706C7573 		.ascii	"plus\000"
 12993      00
 12994              	.LASF252:
 12995 0a79 6E65775F 		.ascii	"new_len\000"
 12995      6C656E00 
 12996              	.LASF102:
 12997 0a81 6D757465 		.ascii	"mutex_t\000"
 12997      785F7400 
 12998              	.LASF225:
 12999 0a89 7463705F 		.ascii	"tcp_hdr\000"
 12999      68647200 
 13000              	.LASF237:
 13001 0a91 636F7079 		.ascii	"copy_from\000"
 13001      5F66726F 
 13001      6D00
 13002              	.LASF70:
 13003 0a9b 76745F70 		.ascii	"vt_par\000"
 13003      617200
 13004              	.LASF150:
 13005 0aa2 74797065 		.ascii	"type\000"
 13005      00
 13006              	.LASF253:
 13007 0aa7 67726F77 		.ascii	"grow\000"
 13007      00
 13008              	.LASF5:
 13009 0aac 756E7369 		.ascii	"unsigned char\000"
 13009      676E6564 
 13009      20636861 
 13009      7200
 13010              	.LASF217:
 13011 0aba 46494E5F 		.ascii	"FIN_WAIT_1\000"
 13011      57414954 
ARM GAS  C:\Users\jo\AppData\Local\Temp\ccT06EVW.s 			page 241


 13011      5F3100
 13012              	.LASF218:
 13013 0ac5 46494E5F 		.ascii	"FIN_WAIT_2\000"
 13013      57414954 
 13013      5F3200
 13014              	.LASF71:
 13015 0ad0 76697274 		.ascii	"virtual_timers_list_t\000"
 13015      75616C5F 
 13015      74696D65 
 13015      72735F6C 
 13015      6973745F 
 13016              	.LASF42:
 13017 0ae6 705F7265 		.ascii	"p_refs\000"
 13017      667300
 13018              	.LASF123:
 13019 0aed 4D454D50 		.ascii	"MEMP_TCP_SEG\000"
 13019      5F544350 
 13019      5F534547 
 13019      00
 13020              	.LASF76:
 13021 0afa 70616E69 		.ascii	"panic_msg\000"
 13021      635F6D73 
 13021      6700
 13022              	.LASF276:
 13023 0b04 6D656D5F 		.ascii	"mem_len\000"
 13023      6C656E00 
 13024              	.LASF146:
 13025 0b0c 70627566 		.ascii	"pbuf\000"
 13025      00
 13026              	.LASF203:
 13027 0b11 6B656570 		.ascii	"keep_idle\000"
 13027      5F69646C 
 13027      6500
 13028              	.LASF163:
 13029 0b1b 63616C6C 		.ascii	"callback_arg\000"
 13029      6261636B 
 13029      5F617267 
 13029      00
 13030              	.LASF213:
 13031 0b28 4C495354 		.ascii	"LISTEN\000"
 13031      454E00
 13032              	.LASF85:
 13033 0b2f 73746B61 		.ascii	"stkalign_t\000"
 13033      6C69676E 
 13033      5F7400
 13034              	.LASF156:
 13035 0b3a 61646472 		.ascii	"addr\000"
 13035      00
 13036              	.LASF81:
 13037 0b3f 6D61696E 		.ascii	"mainthread\000"
 13037      74687265 
 13037      616400
 13038              	.LASF165:
 13039 0b4a 73746174 		.ascii	"state\000"
 13039      6500
 13040              	.LASF149:
 13041 0b50 746F745F 		.ascii	"tot_len\000"
ARM GAS  C:\Users\jo\AppData\Local\Temp\ccT06EVW.s 			page 242


 13041      6C656E00 
 13042              	.LASF258:
 13043 0b58 70627566 		.ascii	"pbuf_dechain\000"
 13043      5F646563 
 13043      6861696E 
 13043      00
 13044              	.LASF291:
 13045 0b65 63685379 		.ascii	"chSysHalt\000"
 13045      7348616C 
 13045      7400
 13046              	.LASF66:
 13047 0b6f 76745F6E 		.ascii	"vt_next\000"
 13047      65787400 
 13048              	.LASF241:
 13049 0b77 7061796C 		.ascii	"payload_mem\000"
 13049      6F61645F 
 13049      6D656D00 
 13050              	.LASF192:
 13051 0b83 736E645F 		.ascii	"snd_queuelen\000"
 13051      71756575 
 13051      656C656E 
 13051      00
 13052              	.LASF77:
 13053 0b90 63685F73 		.ascii	"ch_system_t\000"
 13053      79737465 
 13053      6D5F7400 
 13054              	.LASF89:
 13055 0b9c 5F5F7661 		.ascii	"__va_list\000"
 13055      5F6C6973 
 13055      7400
 13056              	.LASF199:
 13057 0ba6 72656376 		.ascii	"recv\000"
 13057      00
 13058              	.LASF101:
 13059 0bab 6D5F6E65 		.ascii	"m_next\000"
 13059      787400
 13060              	.LASF299:
 13061 0bb2 474E5520 		.ascii	"GNU C 4.9.3 20141119 (release) [ARM/embedded-4_9-br"
 13061      4320342E 
 13061      392E3320 
 13061      32303134 
 13061      31313139 
 13062 0be5 616E6368 		.ascii	"anch revision 218278] -mcpu=cortex-m4 -mfloat-abi=h"
 13062      20726576 
 13062      6973696F 
 13062      6E203231 
 13062      38323738 
 13063 0c18 61726420 		.ascii	"ard -mfpu=fpv4-sp-d16 -mno-thumb-interwork -mthumb "
 13063      2D6D6670 
 13063      753D6670 
 13063      76342D73 
 13063      702D6431 
 13064 0c4b 2D676764 		.ascii	"-ggdb -O2 -fomit-frame-pointer -falign-functions=16"
 13064      62202D4F 
 13064      32202D66 
 13064      6F6D6974 
 13064      2D667261 
ARM GAS  C:\Users\jo\AppData\Local\Temp\ccT06EVW.s 			page 243


 13065 0c7e 202D6666 		.ascii	" -ffunction-sections -fdata-sections -fno-common -f"
 13065      756E6374 
 13065      696F6E2D 
 13065      73656374 
 13065      696F6E73 
 13066 0cb1 73696E67 		.ascii	"single-precision-constant\000"
 13066      6C652D70 
 13066      72656369 
 13066      73696F6E 
 13066      2D636F6E 
 13067              	.LASF3:
 13068 0ccb 7369676E 		.ascii	"signed char\000"
 13068      65642063 
 13068      68617200 
 13069              	.LASF159:
 13070 0cd7 7463705F 		.ascii	"tcp_pcb\000"
 13070      70636200 
 13071              	.LASF9:
 13072 0cdf 73686F72 		.ascii	"short unsigned int\000"
 13072      7420756E 
 13072      7369676E 
 13072      65642069 
 13072      6E7400
 13073              	.LASF59:
 13074 0cf2 725F6374 		.ascii	"r_ctx\000"
 13074      7800
 13075              	.LASF239:
 13076 0cf8 70627566 		.ascii	"pbuf_free_ooseq\000"
 13076      5F667265 
 13076      655F6F6F 
 13076      73657100 
 13077              	.LASF297:
 13078 0d08 6D656D63 		.ascii	"memcpy\000"
 13078      707900
 13079              	.LASF2:
 13080 0d0f 5F5F696E 		.ascii	"__int8_t\000"
 13080      74385F74 
 13080      00
 13081              	.LASF44:
 13082 0d18 705F6D73 		.ascii	"p_msgqueue\000"
 13082      67717565 
 13082      756500
 13083              	.LASF204:
 13084 0d23 70657273 		.ascii	"persist_cnt\000"
 13084      6973745F 
 13084      636E7400 
 13085              	.LASF161:
 13086 0d2f 72656D6F 		.ascii	"remote_ip\000"
 13086      74655F69 
 13086      7000
 13087              	.LASF69:
 13088 0d39 76745F66 		.ascii	"vt_func\000"
 13088      756E6300 
 13089              	.LASF67:
 13090 0d41 76745F70 		.ascii	"vt_prev\000"
 13090      72657600 
 13091              	.LASF238:
ARM GAS  C:\Users\jo\AppData\Local\Temp\ccT06EVW.s 			page 244


 13092 0d49 666F726D 		.ascii	"formatted_bytes\000"
 13092      61747465 
 13092      645F6279 
 13092      74657300 
 13093              	.LASF157:
 13094 0d59 69705F61 		.ascii	"ip_addr_t\000"
 13094      6464725F 
 13094      7400
 13095              	.LASF287:
 13096 0d63 7463705F 		.ascii	"tcp_segs_free\000"
 13096      73656773 
 13096      5F667265 
 13096      6500
 13097              	.LASF256:
 13098 0d71 70627566 		.ascii	"pbuf_cat\000"
 13098      5F636174 
 13098      00
 13099              	.LASF134:
 13100 0d7a 6D656D70 		.ascii	"memp_t\000"
 13100      5F7400
 13101              	.LASF142:
 13102 0d81 50425546 		.ascii	"PBUF_ROM\000"
 13102      5F524F4D 
 13102      00
 13103              	.LASF284:
 13104 0d8a 7463705F 		.ascii	"tcp_active_pcbs\000"
 13104      61637469 
 13104      76655F70 
 13104      63627300 
 13105              	.LASF58:
 13106 0d9a 725F7072 		.ascii	"r_prio\000"
 13106      696F00
 13107              	.LASF179:
 13108 0da1 6E727478 		.ascii	"nrtx\000"
 13108      00
 13109              	.LASF226:
 13110 0da6 64657374 		.ascii	"dest\000"
 13110      00
 13111              	.LASF95:
 13112 0dab 65786974 		.ascii	"exitcode\000"
 13112      636F6465 
 13112      00
 13113              	.LASF236:
 13114 0db4 71756575 		.ascii	"queued\000"
 13114      656400
 13115              	.LASF215:
 13116 0dbb 53594E5F 		.ascii	"SYN_RCVD\000"
 13116      52435644 
 13116      00
 13117              	.LASF155:
 13118 0dc4 69705F61 		.ascii	"ip_addr\000"
 13118      64647200 
 13119              	.LASF283:
 13120 0dcc 69746D5F 		.ascii	"itm_port\000"
 13120      706F7274 
 13120      00
 13121              		.ident	"GCC: (GNU Tools for ARM Embedded Processors) 4.9.3 20141119 (release) [ARM/embedded-4_9-br
ARM GAS  C:\Users\jo\AppData\Local\Temp\ccT06EVW.s 			page 245


ARM GAS  C:\Users\jo\AppData\Local\Temp\ccT06EVW.s 			page 246


DEFINED SYMBOLS
                            *ABS*:00000000 pbuf.c
C:\Users\jo\AppData\Local\Temp\ccT06EVW.s:21     .text.pbuf_free_ooseq_callback:00000000 $t
C:\Users\jo\AppData\Local\Temp\ccT06EVW.s:26     .text.pbuf_free_ooseq_callback:00000000 pbuf_free_ooseq_callback
C:\Users\jo\AppData\Local\Temp\ccT06EVW.s:82     .text.pbuf_free_ooseq_callback:00000028 $d
C:\Users\jo\AppData\Local\Temp\ccT06EVW.s:90     .text.pbuf_pool_is_empty.part.0:00000000 $t
C:\Users\jo\AppData\Local\Temp\ccT06EVW.s:95     .text.pbuf_pool_is_empty.part.0:00000000 pbuf_pool_is_empty.part.0
C:\Users\jo\AppData\Local\Temp\ccT06EVW.s:122    .text.pbuf_pool_is_empty.part.0:00000018 $d
C:\Users\jo\AppData\Local\Temp\ccT06EVW.s:128    .text.chprintf.constprop.1:00000000 $t
C:\Users\jo\AppData\Local\Temp\ccT06EVW.s:133    .text.chprintf.constprop.1:00000000 chprintf.constprop.1
C:\Users\jo\AppData\Local\Temp\ccT06EVW.s:179    .text.chprintf.constprop.1:00000020 $d
C:\Users\jo\AppData\Local\Temp\ccT06EVW.s:185    .text.pbuf_alloced_custom:00000000 $t
C:\Users\jo\AppData\Local\Temp\ccT06EVW.s:191    .text.pbuf_alloced_custom:00000000 pbuf_alloced_custom
C:\Users\jo\AppData\Local\Temp\ccT06EVW.s:214    .text.pbuf_alloced_custom:00000012 $d
C:\Users\jo\AppData\Local\Temp\ccT06EVW.s:218    .text.pbuf_alloced_custom:00000016 $t
C:\Users\jo\AppData\Local\Temp\ccT06EVW.s:323    .text.pbuf_alloced_custom:0000007c $d
C:\Users\jo\AppData\Local\Temp\ccT06EVW.s:331    .text.pbuf_header:00000000 $t
C:\Users\jo\AppData\Local\Temp\ccT06EVW.s:337    .text.pbuf_header:00000000 pbuf_header
C:\Users\jo\AppData\Local\Temp\ccT06EVW.s:546    .text.pbuf_header:000000bc $d
C:\Users\jo\AppData\Local\Temp\ccT06EVW.s:556    .text.pbuf_free:00000000 $t
C:\Users\jo\AppData\Local\Temp\ccT06EVW.s:562    .text.pbuf_free:00000000 pbuf_free
C:\Users\jo\AppData\Local\Temp\ccT06EVW.s:793    .text.pbuf_free:000000dc $d
C:\Users\jo\AppData\Local\Temp\ccT06EVW.s:804    .text.pbuf_alloc:00000000 $t
C:\Users\jo\AppData\Local\Temp\ccT06EVW.s:810    .text.pbuf_alloc:00000000 pbuf_alloc
C:\Users\jo\AppData\Local\Temp\ccT06EVW.s:834    .text.pbuf_alloc:00000012 $d
C:\Users\jo\AppData\Local\Temp\ccT06EVW.s:838    .text.pbuf_alloc:00000016 $t
C:\Users\jo\AppData\Local\Temp\ccT06EVW.s:849    .text.pbuf_alloc:00000022 $d
C:\Users\jo\AppData\Local\Temp\ccT06EVW.s:853    .text.pbuf_alloc:00000026 $t
C:\Users\jo\AppData\Local\Temp\ccT06EVW.s:1282   .text.pbuf_alloc:0000021c $d
C:\Users\jo\AppData\Local\Temp\ccT06EVW.s:1297   .text.pbuf_realloc:00000000 $t
C:\Users\jo\AppData\Local\Temp\ccT06EVW.s:1303   .text.pbuf_realloc:00000000 pbuf_realloc
C:\Users\jo\AppData\Local\Temp\ccT06EVW.s:1529   .text.pbuf_realloc:000000f8 $d
C:\Users\jo\AppData\Local\Temp\ccT06EVW.s:1541   .text.pbuf_clen:00000000 $t
C:\Users\jo\AppData\Local\Temp\ccT06EVW.s:1547   .text.pbuf_clen:00000000 pbuf_clen
C:\Users\jo\AppData\Local\Temp\ccT06EVW.s:1581   .text.pbuf_ref:00000000 $t
C:\Users\jo\AppData\Local\Temp\ccT06EVW.s:1587   .text.pbuf_ref:00000000 pbuf_ref
C:\Users\jo\AppData\Local\Temp\ccT06EVW.s:1607   .text.pbuf_cat:00000000 $t
C:\Users\jo\AppData\Local\Temp\ccT06EVW.s:1613   .text.pbuf_cat:00000000 pbuf_cat
C:\Users\jo\AppData\Local\Temp\ccT06EVW.s:1763   .text.pbuf_cat:00000090 $d
C:\Users\jo\AppData\Local\Temp\ccT06EVW.s:1773   .text.pbuf_chain:00000000 $t
C:\Users\jo\AppData\Local\Temp\ccT06EVW.s:1779   .text.pbuf_chain:00000000 pbuf_chain
C:\Users\jo\AppData\Local\Temp\ccT06EVW.s:1811   .text.pbuf_dechain:00000000 $t
C:\Users\jo\AppData\Local\Temp\ccT06EVW.s:1817   .text.pbuf_dechain:00000000 pbuf_dechain
C:\Users\jo\AppData\Local\Temp\ccT06EVW.s:1949   .text.pbuf_dechain:00000080 $d
C:\Users\jo\AppData\Local\Temp\ccT06EVW.s:1958   .text.pbuf_copy:00000000 $t
C:\Users\jo\AppData\Local\Temp\ccT06EVW.s:1964   .text.pbuf_copy:00000000 pbuf_copy
C:\Users\jo\AppData\Local\Temp\ccT06EVW.s:2274   .text.pbuf_copy:00000174 $d
C:\Users\jo\AppData\Local\Temp\ccT06EVW.s:2286   .text.pbuf_copy_partial:00000000 $t
C:\Users\jo\AppData\Local\Temp\ccT06EVW.s:2292   .text.pbuf_copy_partial:00000000 pbuf_copy_partial
C:\Users\jo\AppData\Local\Temp\ccT06EVW.s:2471   .text.pbuf_copy_partial:000000ac $d
C:\Users\jo\AppData\Local\Temp\ccT06EVW.s:2480   .text.pbuf_take:00000000 $t
C:\Users\jo\AppData\Local\Temp\ccT06EVW.s:2486   .text.pbuf_take:00000000 pbuf_take
C:\Users\jo\AppData\Local\Temp\ccT06EVW.s:2687   .text.pbuf_take:000000dc $d
C:\Users\jo\AppData\Local\Temp\ccT06EVW.s:2698   .text.pbuf_coalesce:00000000 $t
C:\Users\jo\AppData\Local\Temp\ccT06EVW.s:2704   .text.pbuf_coalesce:00000000 pbuf_coalesce
C:\Users\jo\AppData\Local\Temp\ccT06EVW.s:2790   .text.pbuf_coalesce:0000004c $d
C:\Users\jo\AppData\Local\Temp\ccT06EVW.s:2800   .text.pbuf_get_at:00000000 $t
ARM GAS  C:\Users\jo\AppData\Local\Temp\ccT06EVW.s 			page 247


C:\Users\jo\AppData\Local\Temp\ccT06EVW.s:2806   .text.pbuf_get_at:00000000 pbuf_get_at
C:\Users\jo\AppData\Local\Temp\ccT06EVW.s:2852   .text.pbuf_memcmp:00000000 $t
C:\Users\jo\AppData\Local\Temp\ccT06EVW.s:2858   .text.pbuf_memcmp:00000000 pbuf_memcmp
C:\Users\jo\AppData\Local\Temp\ccT06EVW.s:3034   .text.pbuf_memfind:00000000 $t
C:\Users\jo\AppData\Local\Temp\ccT06EVW.s:3040   .text.pbuf_memfind:00000000 pbuf_memfind
C:\Users\jo\AppData\Local\Temp\ccT06EVW.s:3121   .text.pbuf_strstr:00000000 $t
C:\Users\jo\AppData\Local\Temp\ccT06EVW.s:3127   .text.pbuf_strstr:00000000 pbuf_strstr
C:\Users\jo\AppData\Local\Temp\ccT06EVW.s:3312   .bss.pbuf_free_ooseq_pending:00000000 pbuf_free_ooseq_pending
C:\Users\jo\AppData\Local\Temp\ccT06EVW.s:3208   .rodata.str1.4:00000000 $d
C:\Users\jo\AppData\Local\Temp\ccT06EVW.s:3313   .bss.pbuf_free_ooseq_pending:00000000 $d
                     .debug_frame:00000010 $d
C:\Users\jo\AppData\Local\Temp\ccT06EVW.s:184    .text.chprintf.constprop.1:00000028 $t
C:\Users\jo\AppData\Local\Temp\ccT06EVW.s:330    .text.pbuf_alloced_custom:0000008c $t
C:\Users\jo\AppData\Local\Temp\ccT06EVW.s:555    .text.pbuf_header:000000d4 $t
C:\Users\jo\AppData\Local\Temp\ccT06EVW.s:803    .text.pbuf_free:000000f8 $t
C:\Users\jo\AppData\Local\Temp\ccT06EVW.s:1540   .text.pbuf_realloc:00000118 $t
C:\Users\jo\AppData\Local\Temp\ccT06EVW.s:1772   .text.pbuf_cat:000000a8 $t
C:\Users\jo\AppData\Local\Temp\ccT06EVW.s:1957   .text.pbuf_dechain:00000094 $t
C:\Users\jo\AppData\Local\Temp\ccT06EVW.s:2285   .text.pbuf_copy:00000194 $t
C:\Users\jo\AppData\Local\Temp\ccT06EVW.s:2697   .text.pbuf_take:000000f8 $t
C:\Users\jo\AppData\Local\Temp\ccT06EVW.s:2799   .text.pbuf_coalesce:0000005c $t

UNDEFINED SYMBOLS
tcp_segs_free
tcp_active_pcbs
tcpip_callback_with_block
chvprintf
itm_port
chSysHalt
mem_free
memp_free
memp_malloc
mem_malloc
mem_trim
memcpy
strlen
