ARM GAS  C:\Users\jo\AppData\Local\Temp\ccT06EVW.s 			page 1


   1              		.syntax unified
   2              		.cpu cortex-m4
   3              		.eabi_attribute 27, 3
   4              		.eabi_attribute 28, 1
   5              		.fpu fpv4-sp-d16
   6              		.eabi_attribute 20, 1
   7              		.eabi_attribute 21, 1
   8              		.eabi_attribute 23, 3
   9              		.eabi_attribute 24, 1
  10              		.eabi_attribute 25, 1
  11              		.eabi_attribute 26, 1
  12              		.eabi_attribute 30, 2
  13              		.eabi_attribute 34, 1
  14              		.eabi_attribute 18, 4
  15              		.thumb
  16              		.file	"pbuf.c"
  17              		.text
  18              	.Ltext0:
  19              		.cfi_sections	.debug_frame
  20              		.section	.text.pbuf_free_ooseq_callback,"ax",%progbits
  21              		.align	2
  22              		.p2align 4,,15
  23              		.thumb
  24              		.thumb_func
  25              		.type	pbuf_free_ooseq_callback, %function
  26              	pbuf_free_ooseq_callback:
  27              	.LFB257:
  28              		.file 1 "../../../os/ext/lwip-1.4.1/src/core/pbuf.c"
  29              		.loc 1 144 0
  30              		.cfi_startproc
  31              		@ args = 0, pretend = 0, frame = 0
  32              		@ frame_needed = 0, uses_anonymous_args = 0
  33              	.LVL0:
  34              	.LBB96:
  35              	.LBB97:
  36              		.loc 1 127 0
  37 0000 094A     		ldr	r2, .L15
  38              		.loc 1 124 0
  39 0002 0A4B     		ldr	r3, .L15+4
  40              	.LBE97:
  41              	.LBE96:
  42              		.loc 1 144 0
  43 0004 10B5     		push	{r4, lr}
  44              		.cfi_def_cfa_offset 8
  45              		.cfi_offset 4, -8
  46              		.cfi_offset 14, -4
  47              	.LBB99:
  48              	.LBB98:
  49              		.loc 1 127 0
  50 0006 1468     		ldr	r4, [r2]
  51              	.LVL1:
  52              		.loc 1 124 0
  53 0008 0022     		movs	r2, #0
  54 000a 1A70     		strb	r2, [r3]
  55              		.loc 1 127 0
  56 000c 14B9     		cbnz	r4, .L6
  57 000e 09E0     		b	.L1
ARM GAS  C:\Users\jo\AppData\Local\Temp\ccT06EVW.s 			page 2


  58              	.LVL2:
  59              	.L5:
  60 0010 E468     		ldr	r4, [r4, #12]
  61              	.LVL3:
  62 0012 3CB1     		cbz	r4, .L1
  63              	.L6:
  64              		.loc 1 128 0
  65 0014 606F     		ldr	r0, [r4, #116]
  66 0016 0028     		cmp	r0, #0
  67 0018 FAD0     		beq	.L5
  68              		.loc 1 131 0
  69 001a FFF7FEFF 		bl	tcp_segs_free
  70              	.LVL4:
  71              		.loc 1 132 0
  72 001e 0023     		movs	r3, #0
  73 0020 6367     		str	r3, [r4, #116]
  74 0022 10BD     		pop	{r4, pc}
  75              	.LVL5:
  76              	.L1:
  77 0024 10BD     		pop	{r4, pc}
  78              	.LVL6:
  79              	.L16:
  80 0026 00BF     		.align	2
  81              	.L15:
  82 0028 00000000 		.word	tcp_active_pcbs
  83 002c 00000000 		.word	.LANCHOR0
  84              	.LBE98:
  85              	.LBE99:
  86              		.cfi_endproc
  87              	.LFE257:
  88              		.size	pbuf_free_ooseq_callback, .-pbuf_free_ooseq_callback
  89              		.section	.text.pbuf_pool_is_empty.part.0,"ax",%progbits
  90              		.align	2
  91              		.p2align 4,,15
  92              		.thumb
  93              		.thumb_func
  94              		.type	pbuf_pool_is_empty.part.0, %function
  95              	pbuf_pool_is_empty.part.0:
  96              	.LFB277:
  97              		.loc 1 152 0
  98              		.cfi_startproc
  99              		@ args = 0, pretend = 0, frame = 0
 100              		@ frame_needed = 0, uses_anonymous_args = 0
 101              		.loc 1 169 0
 102 0000 0021     		movs	r1, #0
 103              		.loc 1 152 0
 104 0002 08B5     		push	{r3, lr}
 105              		.cfi_def_cfa_offset 8
 106              		.cfi_offset 3, -8
 107              		.cfi_offset 14, -4
 108              		.loc 1 169 0
 109 0004 0A46     		mov	r2, r1
 110 0006 0448     		ldr	r0, .L23
 111 0008 FFF7FEFF 		bl	tcpip_callback_with_block
 112              	.LVL7:
 113 000c 10B1     		cbz	r0, .L17
 114 000e 034B     		ldr	r3, .L23+4
ARM GAS  C:\Users\jo\AppData\Local\Temp\ccT06EVW.s 			page 3


 115 0010 0022     		movs	r2, #0
 116 0012 1A70     		strb	r2, [r3]
 117              	.L17:
 118 0014 08BD     		pop	{r3, pc}
 119              	.L24:
 120 0016 00BF     		.align	2
 121              	.L23:
 122 0018 00000000 		.word	pbuf_free_ooseq_callback
 123 001c 00000000 		.word	.LANCHOR0
 124              		.cfi_endproc
 125              	.LFE277:
 126              		.size	pbuf_pool_is_empty.part.0, .-pbuf_pool_is_empty.part.0
 127              		.section	.text.chprintf.constprop.1,"ax",%progbits
 128              		.align	2
 129              		.p2align 4,,15
 130              		.thumb
 131              		.thumb_func
 132              		.type	chprintf.constprop.1, %function
 133              	chprintf.constprop.1:
 134              	.LFB278:
 135              		.file 2 "../../../os/hal/lib/streams/chprintf.h"
 136              		.loc 2 69 0
 137              		.cfi_startproc
 138              		@ args = 4, pretend = 12, frame = 8
 139              		@ frame_needed = 0, uses_anonymous_args = 1
 140              	.LVL8:
 141 0000 0EB4     		push	{r1, r2, r3}
 142              		.cfi_def_cfa_offset 12
 143              		.cfi_offset 1, -12
 144              		.cfi_offset 2, -8
 145              		.cfi_offset 3, -4
 146 0002 00B5     		push	{lr}
 147              		.cfi_def_cfa_offset 16
 148              		.cfi_offset 14, -16
 149 0004 82B0     		sub	sp, sp, #8
 150              		.cfi_def_cfa_offset 24
 151              		.loc 2 73 0
 152 0006 04AB     		add	r3, sp, #16
 153              		.loc 2 74 0
 154 0008 1A46     		mov	r2, r3
 155 000a 0549     		ldr	r1, .L27
 156 000c 0548     		ldr	r0, .L27+4
 157              	.LVL9:
 158              		.loc 2 73 0
 159 000e 0193     		str	r3, [sp, #4]
 160              		.loc 2 74 0
 161 0010 FFF7FEFF 		bl	chvprintf
 162              	.LVL10:
 163              		.loc 2 78 0
 164 0014 02B0     		add	sp, sp, #8
 165              		.cfi_def_cfa_offset 16
 166              		@ sp needed
 167 0016 5DF804EB 		ldr	lr, [sp], #4
 168              		.cfi_restore 14
 169              		.cfi_def_cfa_offset 12
 170 001a 03B0     		add	sp, sp, #12
 171              		.cfi_restore 3
ARM GAS  C:\Users\jo\AppData\Local\Temp\ccT06EVW.s 			page 4


 172              		.cfi_restore 2
 173              		.cfi_restore 1
 174              		.cfi_def_cfa_offset 0
 175 001c 7047     		bx	lr
 176              	.L28:
 177 001e 00BF     		.align	2
 178              	.L27:
 179 0020 00000000 		.word	.LC0
 180 0024 00000000 		.word	itm_port
 181              		.cfi_endproc
 182              	.LFE278:
 183              		.size	chprintf.constprop.1, .-chprintf.constprop.1
 184 0028 AFF30080 		.section	.text.pbuf_alloced_custom,"ax",%progbits
 184      AFF30080 
 185              		.align	2
 186              		.p2align 4,,15
 187              		.global	pbuf_alloced_custom
 188              		.thumb
 189              		.thumb_func
 190              		.type	pbuf_alloced_custom, %function
 191              	pbuf_alloced_custom:
 192              	.LFB260:
 193              		.loc 1 369 0
 194              		.cfi_startproc
 195              		@ args = 8, pretend = 0, frame = 0
 196              		@ frame_needed = 0, uses_anonymous_args = 0
 197              	.LVL11:
 198 0000 70B5     		push	{r4, r5, r6, lr}
 199              		.cfi_def_cfa_offset 16
 200              		.cfi_offset 4, -16
 201              		.cfi_offset 5, -12
 202              		.cfi_offset 6, -8
 203              		.cfi_offset 14, -4
 204 0002 82B0     		sub	sp, sp, #8
 205              		.cfi_def_cfa_offset 24
 206              		.loc 1 369 0
 207 0004 069D     		ldr	r5, [sp, #24]
 208 0006 BDF81C60 		ldrh	r6, [sp, #28]
 209              		.loc 1 374 0
 210 000a 0328     		cmp	r0, #3
 211 000c 22D8     		bhi	.L30
 212 000e DFE800F0 		tbb	[pc, r0]
 213              	.L32:
 214 0012 1B       		.byte	(.L31-.L32)/2
 215 0013 18       		.byte	(.L33-.L32)/2
 216 0014 02       		.byte	(.L39-.L32)/2
 217 0015 1E       		.byte	(.L35-.L32)/2
 218              		.p2align 1
 219              	.L39:
 220 0016 1024     		movs	r4, #16
 221 0018 1120     		movs	r0, #17
 222              	.LVL12:
 223              	.L34:
 224              		.loc 1 395 0
 225 001a 0C44     		add	r4, r4, r1
 226 001c B442     		cmp	r4, r6
 227 001e 2ADC     		bgt	.L40
ARM GAS  C:\Users\jo\AppData\Local\Temp\ccT06EVW.s 			page 5


 228              		.loc 1 400 0
 229 0020 0024     		movs	r4, #0
 230 0022 1C60     		str	r4, [r3]
 231              		.loc 1 401 0
 232 0024 2DB3     		cbz	r5, .L37
 233              		.loc 1 402 0
 234 0026 20F00300 		bic	r0, r0, #3
 235 002a 2844     		add	r0, r0, r5
 236 002c 5860     		str	r0, [r3, #4]
 237              	.L38:
 238              		.loc 1 409 0
 239 002e 0120     		movs	r0, #1
 240              		.loc 1 406 0
 241 0030 0224     		movs	r4, #2
 242              		.loc 1 409 0
 243 0032 D881     		strh	r0, [r3, #14]	@ movhi
 244              		.loc 1 407 0
 245 0034 1981     		strh	r1, [r3, #8]	@ movhi
 246 0036 5981     		strh	r1, [r3, #10]	@ movhi
 247              		.loc 1 408 0
 248 0038 1A73     		strb	r2, [r3, #12]
 249              		.loc 1 406 0
 250 003a 5C73     		strb	r4, [r3, #13]
 251              		.loc 1 410 0
 252 003c 1846     		mov	r0, r3
 253              	.L36:
 254              		.loc 1 411 0
 255 003e 02B0     		add	sp, sp, #8
 256              		.cfi_remember_state
 257              		.cfi_def_cfa_offset 16
 258              		@ sp needed
 259 0040 70BD     		pop	{r4, r5, r6, pc}
 260              	.LVL13:
 261              	.L33:
 262              		.cfi_restore_state
 263              		.loc 1 374 0
 264 0042 2424     		movs	r4, #36
 265 0044 2520     		movs	r0, #37
 266              	.LVL14:
 267 0046 E8E7     		b	.L34
 268              	.LVL15:
 269              	.L31:
 270 0048 3824     		movs	r4, #56
 271 004a 3920     		movs	r0, #57
 272              	.LVL16:
 273 004c E5E7     		b	.L34
 274              	.LVL17:
 275              	.L35:
 276              		.loc 1 389 0
 277 004e 0024     		movs	r4, #0
 278 0050 0320     		movs	r0, #3
 279              	.LVL18:
 280 0052 E2E7     		b	.L34
 281              	.LVL19:
 282              	.L30:
 283              		.loc 1 391 0 discriminator 1
 284 0054 094B     		ldr	r3, .L42
ARM GAS  C:\Users\jo\AppData\Local\Temp\ccT06EVW.s 			page 6


 285              	.LVL20:
 286 0056 0093     		str	r3, [sp]
 287 0058 0949     		ldr	r1, .L42+4
 288              	.LVL21:
 289 005a 0A4A     		ldr	r2, .L42+8
 290              	.LVL22:
 291 005c 0A48     		ldr	r0, .L42+12
 292              	.LVL23:
 293 005e 40F28713 		movw	r3, #391
 294 0062 FFF7FEFF 		bl	chprintf.constprop.1
 295              	.LVL24:
 296              	.LBB100:
 297              	.LBB101:
 298              		.file 3 "../../../os/hal/osal/rt/osal.h"
 299              		.loc 3 414 0 discriminator 1
 300 0066 0748     		ldr	r0, .L42+8
 301 0068 FFF7FEFF 		bl	chSysHalt
 302              	.LVL25:
 303              	.LBE101:
 304              	.LBE100:
 305              		.loc 1 392 0 discriminator 1
 306 006c 0020     		movs	r0, #0
 307              		.loc 1 411 0 discriminator 1
 308 006e 02B0     		add	sp, sp, #8
 309              		@ sp needed
 310 0070 70BD     		pop	{r4, r5, r6, pc}
 311              	.LVL26:
 312              	.L37:
 313              		.loc 1 404 0
 314 0072 5D60     		str	r5, [r3, #4]
 315 0074 DBE7     		b	.L38
 316              	.L40:
 317              		.loc 1 397 0
 318 0076 0020     		movs	r0, #0
 319 0078 E1E7     		b	.L36
 320              	.L43:
 321 007a 00BF     		.align	2
 322              	.L42:
 323 007c 4C000000 		.word	.LC2
 324 0080 00000000 		.word	.LC0
 325 0084 28000000 		.word	.LC1
 326 0088 00000000 		.word	itm_port
 327              		.cfi_endproc
 328              	.LFE260:
 329              		.size	pbuf_alloced_custom, .-pbuf_alloced_custom
 330 008c AFF30080 		.section	.text.pbuf_header,"ax",%progbits
 331              		.align	2
 332              		.p2align 4,,15
 333              		.global	pbuf_header
 334              		.thumb
 335              		.thumb_func
 336              		.type	pbuf_header, %function
 337              	pbuf_header:
 338              	.LFB262:
 339              		.loc 1 512 0
 340              		.cfi_startproc
 341              		@ args = 0, pretend = 0, frame = 0
ARM GAS  C:\Users\jo\AppData\Local\Temp\ccT06EVW.s 			page 7


 342              		@ frame_needed = 0, uses_anonymous_args = 0
 343              	.LVL27:
 344 0000 10B5     		push	{r4, lr}
 345              		.cfi_def_cfa_offset 8
 346              		.cfi_offset 4, -8
 347              		.cfi_offset 14, -4
 348              		.loc 1 517 0
 349 0002 0446     		mov	r4, r0
 350              		.loc 1 512 0
 351 0004 82B0     		sub	sp, sp, #8
 352              		.cfi_def_cfa_offset 16
 353              		.loc 1 517 0
 354 0006 0028     		cmp	r0, #0
 355 0008 44D0     		beq	.L65
 356              		.loc 1 518 0
 357 000a 0029     		cmp	r1, #0
 358 000c 1AD0     		beq	.L64
 359              		.loc 1 522 0
 360 000e 1CDB     		blt	.L66
 361              		.loc 1 527 0
 362 0010 8AB2     		uxth	r2, r1
 363              	.LVL28:
 364              	.L48:
 365              		.loc 1 540 0
 366 0012 237B     		ldrb	r3, [r4, #12]	@ zero_extendqisi2
 367              	.LVL29:
 368              		.loc 1 542 0
 369 0014 6068     		ldr	r0, [r4, #4]
 370              	.LVL30:
 371              		.loc 1 545 0
 372 0016 43B1     		cbz	r3, .L49
 373              		.loc 1 545 0 is_stmt 0 discriminator 1
 374 0018 032B     		cmp	r3, #3
 375 001a 06D0     		beq	.L49
 376              		.loc 1 559 0 is_stmt 1
 377 001c 013B     		subs	r3, r3, #1
 378              	.LVL31:
 379 001e 012B     		cmp	r3, #1
 380 0020 2AD8     		bhi	.L52
 381              		.loc 1 561 0
 382 0022 0029     		cmp	r1, #0
 383 0024 44DB     		blt	.L67
 384              	.LVL32:
 385              	.L56:
 386              		.loc 1 567 0
 387 0026 0120     		movs	r0, #1
 388              	.LVL33:
 389 0028 0DE0     		b	.L61
 390              	.LVL34:
 391              	.L49:
 392              		.loc 1 547 0
 393 002a 431A     		subs	r3, r0, r1
 394              	.LVL35:
 395              		.loc 1 549 0
 396 002c 04F11002 		add	r2, r4, #16
 397              	.LVL36:
 398 0030 9342     		cmp	r3, r2
ARM GAS  C:\Users\jo\AppData\Local\Temp\ccT06EVW.s 			page 8


 399              		.loc 1 547 0
 400 0032 6360     		str	r3, [r4, #4]
 401              		.loc 1 549 0
 402 0034 1CD3     		bcc	.L68
 403 0036 6389     		ldrh	r3, [r4, #10]
 404              	.LVL37:
 405              	.L53:
 406              		.loc 1 576 0
 407 0038 2289     		ldrh	r2, [r4, #8]
 408              		.loc 1 575 0
 409 003a 89B2     		uxth	r1, r1
 410 003c 0B44     		add	r3, r3, r1
 411              		.loc 1 576 0
 412 003e 1144     		add	r1, r1, r2
 413              	.LVL38:
 414              		.loc 1 575 0
 415 0040 6381     		strh	r3, [r4, #10]	@ movhi
 416              		.loc 1 576 0
 417 0042 2181     		strh	r1, [r4, #8]	@ movhi
 418              	.LVL39:
 419              	.L64:
 420              		.loc 1 581 0
 421 0044 0020     		movs	r0, #0
 422              	.L61:
 423              		.loc 1 582 0
 424 0046 02B0     		add	sp, sp, #8
 425              		.cfi_remember_state
 426              		.cfi_def_cfa_offset 8
 427              		@ sp needed
 428 0048 10BD     		pop	{r4, pc}
 429              	.LVL40:
 430              	.L66:
 431              		.cfi_restore_state
 432              		.loc 1 523 0
 433 004a 4A42     		negs	r2, r1
 434              		.loc 1 525 0
 435 004c 6389     		ldrh	r3, [r4, #10]
 436              		.loc 1 523 0
 437 004e 92B2     		uxth	r2, r2
 438              	.LVL41:
 439              		.loc 1 525 0
 440 0050 9342     		cmp	r3, r2
 441 0052 DED2     		bcs	.L48
 442              		.loc 1 525 0 is_stmt 0 discriminator 1
 443 0054 194B     		ldr	r3, .L69
 444 0056 0093     		str	r3, [sp]
 445 0058 1949     		ldr	r1, .L69+4
 446              	.LVL42:
 447 005a 1A4A     		ldr	r2, .L69+8
 448              	.LVL43:
 449 005c 1A48     		ldr	r0, .L69+12
 450              	.LVL44:
 451 005e 40F20D23 		movw	r3, #525
 452 0062 FFF7FEFF 		bl	chprintf.constprop.1
 453              	.LVL45:
 454              	.LBB102:
 455              	.LBB103:
ARM GAS  C:\Users\jo\AppData\Local\Temp\ccT06EVW.s 			page 9


 456              		.loc 3 414 0 is_stmt 1 discriminator 1
 457 0066 1748     		ldr	r0, .L69+8
 458 0068 FFF7FEFF 		bl	chSysHalt
 459              	.LVL46:
 460              	.LBE103:
 461              	.LBE102:
 462              		.loc 1 525 0 discriminator 1
 463 006c 0120     		movs	r0, #1
 464 006e EAE7     		b	.L61
 465              	.LVL47:
 466              	.L68:
 467              		.loc 1 554 0
 468 0070 6060     		str	r0, [r4, #4]
 469              		.loc 1 556 0
 470 0072 0120     		movs	r0, #1
 471              	.LVL48:
 472              		.loc 1 582 0
 473 0074 02B0     		add	sp, sp, #8
 474              		.cfi_remember_state
 475              		.cfi_def_cfa_offset 8
 476              		@ sp needed
 477 0076 10BD     		pop	{r4, pc}
 478              	.LVL49:
 479              	.L52:
 480              		.cfi_restore_state
 481              		.loc 1 571 0 discriminator 1
 482 0078 104B     		ldr	r3, .L69
 483              	.LVL50:
 484 007a 0093     		str	r3, [sp]
 485              	.LVL51:
 486 007c 1049     		ldr	r1, .L69+4
 487              	.LVL52:
 488 007e 134A     		ldr	r2, .L69+16
 489              	.LVL53:
 490 0080 1148     		ldr	r0, .L69+12
 491              	.LVL54:
 492 0082 40F23B23 		movw	r3, #571
 493 0086 FFF7FEFF 		bl	chprintf.constprop.1
 494              	.LVL55:
 495              	.LBB104:
 496              	.LBB105:
 497              		.loc 3 414 0 discriminator 1
 498 008a 1048     		ldr	r0, .L69+16
 499 008c FFF7FEFF 		bl	chSysHalt
 500              	.LVL56:
 501              	.LBE105:
 502              	.LBE104:
 503              		.loc 1 572 0 discriminator 1
 504 0090 0120     		movs	r0, #1
 505 0092 D8E7     		b	.L61
 506              	.LVL57:
 507              	.L65:
 508              		.loc 1 517 0 discriminator 1
 509 0094 094B     		ldr	r3, .L69
 510 0096 0093     		str	r3, [sp]
 511 0098 0949     		ldr	r1, .L69+4
 512              	.LVL58:
ARM GAS  C:\Users\jo\AppData\Local\Temp\ccT06EVW.s 			page 10


 513 009a 0D4A     		ldr	r2, .L69+20
 514 009c 0A48     		ldr	r0, .L69+12
 515              	.LVL59:
 516 009e 40F20523 		movw	r3, #517
 517 00a2 FFF7FEFF 		bl	chprintf.constprop.1
 518              	.LVL60:
 519              	.LBB106:
 520              	.LBB107:
 521              		.loc 3 414 0 discriminator 1
 522 00a6 0A48     		ldr	r0, .L69+20
 523 00a8 FFF7FEFF 		bl	chSysHalt
 524              	.LVL61:
 525              	.LBE107:
 526              	.LBE106:
 527              		.loc 1 519 0 discriminator 1
 528 00ac 2046     		mov	r0, r4
 529 00ae CAE7     		b	.L61
 530              	.LVL62:
 531              	.L67:
 532              		.loc 1 561 0 discriminator 1
 533 00b0 6389     		ldrh	r3, [r4, #10]
 534              	.LVL63:
 535 00b2 9A42     		cmp	r2, r3
 536 00b4 B7D8     		bhi	.L56
 537              		.loc 1 563 0
 538 00b6 401A     		subs	r0, r0, r1
 539              	.LVL64:
 540 00b8 6060     		str	r0, [r4, #4]
 541              	.LVL65:
 542 00ba BDE7     		b	.L53
 543              	.L70:
 544              		.align	2
 545              	.L69:
 546 00bc 4C000000 		.word	.LC2
 547 00c0 00000000 		.word	.LC0
 548 00c4 84000000 		.word	.LC4
 549 00c8 00000000 		.word	itm_port
 550 00cc A4000000 		.word	.LC5
 551 00d0 78000000 		.word	.LC3
 552              		.cfi_endproc
 553              	.LFE262:
 554              		.size	pbuf_header, .-pbuf_header
 555 00d4 AFF30080 		.section	.text.pbuf_free,"ax",%progbits
 555      AFF30080 
 555      AFF30080 
 556              		.align	2
 557              		.p2align 4,,15
 558              		.global	pbuf_free
 559              		.thumb
 560              		.thumb_func
 561              		.type	pbuf_free, %function
 562              	pbuf_free:
 563              	.LFB263:
 564              		.loc 1 619 0
 565              		.cfi_startproc
 566              		@ args = 0, pretend = 0, frame = 0
 567              		@ frame_needed = 0, uses_anonymous_args = 0
ARM GAS  C:\Users\jo\AppData\Local\Temp\ccT06EVW.s 			page 11


 568              	.LVL66:
 569 0000 F0B5     		push	{r4, r5, r6, r7, lr}
 570              		.cfi_def_cfa_offset 20
 571              		.cfi_offset 4, -20
 572              		.cfi_offset 5, -16
 573              		.cfi_offset 6, -12
 574              		.cfi_offset 7, -8
 575              		.cfi_offset 14, -4
 576              		.loc 1 624 0
 577 0002 0446     		mov	r4, r0
 578              		.loc 1 619 0
 579 0004 83B0     		sub	sp, sp, #12
 580              		.cfi_def_cfa_offset 32
 581              		.loc 1 624 0
 582 0006 0028     		cmp	r0, #0
 583 0008 5AD0     		beq	.L87
 584              		.loc 1 635 0
 585 000a 037B     		ldrb	r3, [r0, #12]	@ zero_extendqisi2
 586 000c 032B     		cmp	r3, #3
 587 000e 4AD8     		bhi	.L88
 588              	.LVL67:
 589              	.L74:
 590              		.loc 1 642 0
 591 0010 0025     		movs	r5, #0
 592              	.LBB108:
 593              		.loc 1 650 0
 594 0012 324E     		ldr	r6, .L94
 595 0014 08E0     		b	.L81
 596              	.LVL68:
 597              	.L91:
 598              	.LBB109:
 599              		.loc 1 664 0
 600 0016 2369     		ldr	r3, [r4, #16]
 601              	.LVL69:
 602 0018 002B     		cmp	r3, #0
 603 001a 37D0     		beq	.L89
 604              	.LVL70:
 605              	.L77:
 606              		.loc 1 665 0
 607 001c 2046     		mov	r0, r4
 608 001e 9847     		blx	r3
 609              	.LVL71:
 610              	.L78:
 611              	.LBE109:
 612              		.loc 1 680 0
 613 0020 0135     		adds	r5, r5, #1
 614              	.LVL72:
 615 0022 EDB2     		uxtb	r5, r5
 616              	.LVL73:
 617              	.LBE108:
 618              		.loc 1 642 0
 619 0024 C7B1     		cbz	r7, .L83
 620              	.L84:
 621 0026 3C46     		mov	r4, r7
 622              	.LVL74:
 623              	.L81:
 624              	.LBB115:
ARM GAS  C:\Users\jo\AppData\Local\Temp\ccT06EVW.s 			page 12


 625              		.loc 1 650 0
 626 0028 E389     		ldrh	r3, [r4, #14]
 627 002a C3B1     		cbz	r3, .L90
 628              	.L75:
 629              		.loc 1 652 0
 630 002c 013B     		subs	r3, r3, #1
 631 002e 9BB2     		uxth	r3, r3
 632 0030 E381     		strh	r3, [r4, #14]	@ movhi
 633              	.LVL75:
 634              		.loc 1 655 0
 635 0032 8BB9     		cbnz	r3, .L83
 636              		.loc 1 662 0
 637 0034 627B     		ldrb	r2, [r4, #13]	@ zero_extendqisi2
 638              		.loc 1 657 0
 639 0036 2768     		ldr	r7, [r4]
 640              	.LVL76:
 641              		.loc 1 659 0
 642 0038 237B     		ldrb	r3, [r4, #12]	@ zero_extendqisi2
 643              	.LVL77:
 644              		.loc 1 662 0
 645 003a 9207     		lsls	r2, r2, #30
 646 003c EBD4     		bmi	.L91
 647              		.loc 1 659 0
 648 003e 9BB2     		uxth	r3, r3
 649              	.LVL78:
 650              		.loc 1 670 0
 651 0040 032B     		cmp	r3, #3
 652 0042 1ED0     		beq	.L92
 653              		.loc 1 673 0
 654 0044 013B     		subs	r3, r3, #1
 655 0046 012B     		cmp	r3, #1
 656 0048 16D9     		bls	.L93
 657              		.loc 1 677 0
 658 004a 2046     		mov	r0, r4
 659              		.loc 1 680 0
 660 004c 0135     		adds	r5, r5, #1
 661              	.LVL79:
 662              		.loc 1 677 0
 663 004e FFF7FEFF 		bl	mem_free
 664              	.LVL80:
 665              		.loc 1 680 0
 666 0052 EDB2     		uxtb	r5, r5
 667              	.LVL81:
 668              	.LBE115:
 669              		.loc 1 642 0
 670 0054 002F     		cmp	r7, #0
 671 0056 E6D1     		bne	.L84
 672              	.LVL82:
 673              	.L83:
 674              		.loc 1 693 0
 675 0058 2846     		mov	r0, r5
 676              	.LVL83:
 677              	.L85:
 678              		.loc 1 694 0
 679 005a 03B0     		add	sp, sp, #12
 680              		.cfi_remember_state
 681              		.cfi_def_cfa_offset 20
ARM GAS  C:\Users\jo\AppData\Local\Temp\ccT06EVW.s 			page 13


 682              		@ sp needed
 683 005c F0BD     		pop	{r4, r5, r6, r7, pc}
 684              	.LVL84:
 685              	.L90:
 686              		.cfi_restore_state
 687              	.LBB116:
 688              		.loc 1 650 0 discriminator 1
 689 005e 40F28A23 		movw	r3, #650
 690 0062 1F49     		ldr	r1, .L94+4
 691 0064 1F4A     		ldr	r2, .L94+8
 692 0066 0096     		str	r6, [sp]
 693 0068 1F48     		ldr	r0, .L94+12
 694 006a FFF7FEFF 		bl	chprintf.constprop.1
 695              	.LVL85:
 696              	.LBB112:
 697              	.LBB113:
 698              		.loc 3 414 0 discriminator 1
 699 006e 1D48     		ldr	r0, .L94+8
 700 0070 FFF7FEFF 		bl	chSysHalt
 701              	.LVL86:
 702 0074 E389     		ldrh	r3, [r4, #14]
 703 0076 D9E7     		b	.L75
 704              	.LVL87:
 705              	.L93:
 706              	.LBE113:
 707              	.LBE112:
 708              		.loc 1 674 0
 709 0078 2146     		mov	r1, r4
 710 007a 0C20     		movs	r0, #12
 711 007c FFF7FEFF 		bl	memp_free
 712              	.LVL88:
 713 0080 CEE7     		b	.L78
 714              	.LVL89:
 715              	.L92:
 716              		.loc 1 671 0
 717 0082 2146     		mov	r1, r4
 718 0084 0D20     		movs	r0, #13
 719 0086 FFF7FEFF 		bl	memp_free
 720              	.LVL90:
 721 008a C9E7     		b	.L78
 722              	.LVL91:
 723              	.L89:
 724              	.LBB114:
 725              		.loc 1 664 0 discriminator 1
 726 008c 4FF42673 		mov	r3, #664
 727 0090 1349     		ldr	r1, .L94+4
 728 0092 164A     		ldr	r2, .L94+16
 729 0094 0096     		str	r6, [sp]
 730              	.LVL92:
 731 0096 1448     		ldr	r0, .L94+12
 732 0098 FFF7FEFF 		bl	chprintf.constprop.1
 733              	.LVL93:
 734              	.LBB110:
 735              	.LBB111:
 736              		.loc 3 414 0 discriminator 1
 737 009c 1348     		ldr	r0, .L94+16
 738 009e FFF7FEFF 		bl	chSysHalt
ARM GAS  C:\Users\jo\AppData\Local\Temp\ccT06EVW.s 			page 14


 739              	.LVL94:
 740 00a2 2369     		ldr	r3, [r4, #16]
 741 00a4 BAE7     		b	.L77
 742              	.LVL95:
 743              	.L88:
 744              	.LBE111:
 745              	.LBE110:
 746              	.LBE114:
 747              	.LBE116:
 748              		.loc 1 635 0 discriminator 1
 749 00a6 0D4B     		ldr	r3, .L94
 750 00a8 0093     		str	r3, [sp]
 751 00aa 0D49     		ldr	r1, .L94+4
 752 00ac 104A     		ldr	r2, .L94+20
 753 00ae 0E48     		ldr	r0, .L94+12
 754              	.LVL96:
 755 00b0 40F27D23 		movw	r3, #637
 756 00b4 FFF7FEFF 		bl	chprintf.constprop.1
 757              	.LVL97:
 758              	.LBB117:
 759              	.LBB118:
 760              		.loc 3 414 0 discriminator 1
 761 00b8 0D48     		ldr	r0, .L94+20
 762 00ba FFF7FEFF 		bl	chSysHalt
 763              	.LVL98:
 764 00be A7E7     		b	.L74
 765              	.LVL99:
 766              	.L87:
 767              	.LBE118:
 768              	.LBE117:
 769              		.loc 1 625 0 discriminator 1
 770 00c0 064B     		ldr	r3, .L94
 771 00c2 0093     		str	r3, [sp]
 772 00c4 0649     		ldr	r1, .L94+4
 773 00c6 0B4A     		ldr	r2, .L94+24
 774 00c8 0748     		ldr	r0, .L94+12
 775              	.LVL100:
 776 00ca 40F27123 		movw	r3, #625
 777 00ce FFF7FEFF 		bl	chprintf.constprop.1
 778              	.LVL101:
 779              	.LBB119:
 780              	.LBB120:
 781              		.loc 3 414 0 discriminator 1
 782 00d2 0848     		ldr	r0, .L94+24
 783 00d4 FFF7FEFF 		bl	chSysHalt
 784              	.LVL102:
 785              	.LBE120:
 786              	.LBE119:
 787              		.loc 1 629 0 discriminator 1
 788 00d8 2046     		mov	r0, r4
 789 00da BEE7     		b	.L85
 790              	.L95:
 791              		.align	2
 792              	.L94:
 793 00dc 4C000000 		.word	.LC2
 794 00e0 00000000 		.word	.LC0
 795 00e4 CC000000 		.word	.LC7
ARM GAS  C:\Users\jo\AppData\Local\Temp\ccT06EVW.s 			page 15


 796 00e8 00000000 		.word	itm_port
 797 00ec E4000000 		.word	.LC8
 798 00f0 B4000000 		.word	.LC6
 799 00f4 78000000 		.word	.LC3
 800              		.cfi_endproc
 801              	.LFE263:
 802              		.size	pbuf_free, .-pbuf_free
 803 00f8 AFF30080 		.section	.text.pbuf_alloc,"ax",%progbits
 803      AFF30080 
 804              		.align	2
 805              		.p2align 4,,15
 806              		.global	pbuf_alloc
 807              		.thumb
 808              		.thumb_func
 809              		.type	pbuf_alloc, %function
 810              	pbuf_alloc:
 811              	.LFB259:
 812              		.loc 1 208 0
 813              		.cfi_startproc
 814              		@ args = 0, pretend = 0, frame = 8
 815              		@ frame_needed = 0, uses_anonymous_args = 0
 816              	.LVL103:
 817 0000 2DE9F043 		push	{r4, r5, r6, r7, r8, r9, lr}
 818              		.cfi_def_cfa_offset 28
 819              		.cfi_offset 4, -28
 820              		.cfi_offset 5, -24
 821              		.cfi_offset 6, -20
 822              		.cfi_offset 7, -16
 823              		.cfi_offset 8, -12
 824              		.cfi_offset 9, -8
 825              		.cfi_offset 14, -4
 826 0004 0F46     		mov	r7, r1
 827 0006 85B0     		sub	sp, sp, #20
 828              		.cfi_def_cfa_offset 48
 829              		.loc 1 215 0
 830 0008 0328     		cmp	r0, #3
 831 000a 00F2B580 		bhi	.L97
 832 000e DFE800F0 		tbb	[pc, r0]
 833              	.L99:
 834 0012 9F       		.byte	(.L98-.L99)/2
 835 0013 9D       		.byte	(.L100-.L99)/2
 836 0014 02       		.byte	(.L120-.L99)/2
 837 0015 A1       		.byte	(.L102-.L99)/2
 838              		.p2align 1
 839              	.L120:
 840              		.loc 1 226 0
 841 0016 0E24     		movs	r4, #14
 842              	.L101:
 843              	.LVL104:
 844              		.loc 1 236 0
 845 0018 032A     		cmp	r2, #3
 846 001a 00F29D80 		bhi	.L104
 847 001e DFE802F0 		tbb	[pc, r2]
 848              	.L106:
 849 0022 75       		.byte	(.L105-.L106)/2
 850 0023 66       		.byte	(.L107-.L106)/2
 851 0024 66       		.byte	(.L107-.L106)/2
ARM GAS  C:\Users\jo\AppData\Local\Temp\ccT06EVW.s 			page 16


 852 0025 02       		.byte	(.L108-.L106)/2
 853              		.p2align 1
 854              	.L108:
 855              		.loc 1 239 0
 856 0026 0D20     		movs	r0, #13
 857              	.LVL105:
 858 0028 FFF7FEFF 		bl	memp_malloc
 859              	.LVL106:
 860              		.loc 1 241 0
 861 002c 0546     		mov	r5, r0
 862 002e 0028     		cmp	r0, #0
 863 0030 00F0D980 		beq	.L133
 864              		.loc 1 255 0
 865 0034 E61C     		adds	r6, r4, #3
 866 0036 26F00306 		bic	r6, r6, #3
 867 003a C6F5BD66 		rsb	r6, r6, #1512
 868 003e 0436     		adds	r6, r6, #4
 869              		.loc 1 249 0
 870 0040 0444     		add	r4, r4, r0
 871              	.LVL107:
 872              		.loc 1 255 0
 873 0042 BE42     		cmp	r6, r7
 874              		.loc 1 249 0
 875 0044 04F11304 		add	r4, r4, #19
 876              		.loc 1 255 0
 877 0048 A8BF     		it	ge
 878 004a 3E46     		movge	r6, r7
 879              		.loc 1 249 0
 880 004c 24F00304 		bic	r4, r4, #3
 881              		.loc 1 256 0
 882 0050 A319     		adds	r3, r4, r6
 883 0052 00F2FC58 		addw	r8, r0, #1532
 884              		.loc 1 255 0
 885 0056 B6B2     		uxth	r6, r6
 886              		.loc 1 245 0
 887 0058 0321     		movs	r1, #3
 888              		.loc 1 246 0
 889 005a 0022     		movs	r2, #0
 890              		.loc 1 256 0
 891 005c 9845     		cmp	r8, r3
 892              		.loc 1 253 0
 893 005e 0781     		strh	r7, [r0, #8]	@ movhi
 894              		.loc 1 249 0
 895 0060 4460     		str	r4, [r0, #4]
 896              		.loc 1 255 0
 897 0062 4681     		strh	r6, [r0, #10]	@ movhi
 898              		.loc 1 245 0
 899 0064 0173     		strb	r1, [r0, #12]
 900              		.loc 1 246 0
 901 0066 0260     		str	r2, [r0]
 902              		.loc 1 256 0
 903 0068 C0F0C980 		bcc	.L134
 904              	.LVL108:
 905              	.L111:
 906              		.loc 1 269 0
 907 006c BE1B     		subs	r6, r7, r6
 908              		.loc 1 262 0
ARM GAS  C:\Users\jo\AppData\Local\Temp\ccT06EVW.s 			page 17


 909 006e 0123     		movs	r3, #1
 910              		.loc 1 271 0
 911 0070 002E     		cmp	r6, #0
 912              		.loc 1 262 0
 913 0072 EB81     		strh	r3, [r5, #14]	@ movhi
 914              	.LVL109:
 915              		.loc 1 271 0
 916 0074 62DD     		ble	.L112
 917              		.loc 1 286 0
 918 0076 DFF8B091 		ldr	r9, .L138+12
 919              		.loc 1 271 0
 920 007a 2F46     		mov	r7, r5
 921 007c 19E0     		b	.L118
 922              	.LVL110:
 923              	.L115:
 924              		.loc 1 287 0
 925 007e B1B2     		uxth	r1, r6
 926              		.loc 1 289 0
 927 0080 40F2EC52 		movw	r2, #1516
 928 0084 8A42     		cmp	r2, r1
 929              		.loc 1 290 0
 930 0086 04F11003 		add	r3, r4, #16
 931              		.loc 1 289 0
 932 008a 28BF     		it	cs
 933 008c 0A46     		movcs	r2, r1
 934              		.loc 1 290 0
 935 008e 6360     		str	r3, [r4, #4]
 936              		.loc 1 291 0
 937 0090 9B07     		lsls	r3, r3, #30
 938              		.loc 1 287 0
 939 0092 2181     		strh	r1, [r4, #8]	@ movhi
 940              		.loc 1 289 0
 941 0094 6281     		strh	r2, [r4, #10]	@ movhi
 942              		.loc 1 291 0
 943 0096 40F09980 		bne	.L135
 944              	.L116:
 945              		.loc 1 293 0
 946 009a 6B89     		ldrh	r3, [r5, #10]
 947 009c 6A68     		ldr	r2, [r5, #4]
 948 009e 1344     		add	r3, r3, r2
 949 00a0 9845     		cmp	r8, r3
 950 00a2 C0F08680 		bcc	.L136
 951              	.L117:
 952              		.loc 1 298 0
 953 00a6 6289     		ldrh	r2, [r4, #10]
 954 00a8 B61A     		subs	r6, r6, r2
 955              	.LVL111:
 956              		.loc 1 296 0
 957 00aa 0123     		movs	r3, #1
 958              		.loc 1 271 0
 959 00ac 002E     		cmp	r6, #0
 960              		.loc 1 296 0
 961 00ae E381     		strh	r3, [r4, #14]	@ movhi
 962              		.loc 1 271 0
 963 00b0 44DD     		ble	.L112
 964              	.LVL112:
 965              	.L118:
ARM GAS  C:\Users\jo\AppData\Local\Temp\ccT06EVW.s 			page 18


 966              		.loc 1 272 0
 967 00b2 0D20     		movs	r0, #13
 968 00b4 FFF7FEFF 		bl	memp_malloc
 969              	.LVL113:
 970              		.loc 1 281 0
 971 00b8 0023     		movs	r3, #0
 972              		.loc 1 273 0
 973 00ba 0446     		mov	r4, r0
 974              		.loc 1 280 0
 975 00bc 0321     		movs	r1, #3
 976              		.loc 1 286 0
 977 00be 4FF6FF72 		movw	r2, #65535
 978              		.loc 1 273 0
 979 00c2 0028     		cmp	r0, #0
 980 00c4 67D0     		beq	.L137
 981              		.loc 1 286 0
 982 00c6 9642     		cmp	r6, r2
 983              		.loc 1 280 0
 984 00c8 0173     		strb	r1, [r0, #12]
 985              		.loc 1 281 0
 986 00ca 4373     		strb	r3, [r0, #13]
 987              		.loc 1 282 0
 988 00cc 0360     		str	r3, [r0]
 989              		.loc 1 284 0
 990 00ce 3860     		str	r0, [r7]
 991 00d0 0746     		mov	r7, r0
 992              	.LVL114:
 993              		.loc 1 286 0
 994 00d2 D4D1     		bne	.L115
 995              		.loc 1 286 0 is_stmt 0 discriminator 1
 996 00d4 CDF80090 		str	r9, [sp]
 997 00d8 5049     		ldr	r1, .L138
 998 00da 514A     		ldr	r2, .L138+4
 999 00dc 5148     		ldr	r0, .L138+8
 1000              	.LVL115:
 1001 00de 4FF48F73 		mov	r3, #286
 1002 00e2 FFF7FEFF 		bl	chprintf.constprop.1
 1003              	.LVL116:
 1004              	.LBB121:
 1005              	.LBB122:
 1006              		.loc 3 414 0 is_stmt 1 discriminator 1
 1007 00e6 4E48     		ldr	r0, .L138+4
 1008 00e8 FFF7FEFF 		bl	chSysHalt
 1009              	.LVL117:
 1010 00ec C7E7     		b	.L115
 1011              	.LVL118:
 1012              	.L107:
 1013              	.LBE122:
 1014              	.LBE121:
 1015              		.loc 1 326 0
 1016 00ee 0C20     		movs	r0, #12
 1017              	.LVL119:
 1018 00f0 0392     		str	r2, [sp, #12]
 1019 00f2 FFF7FEFF 		bl	memp_malloc
 1020              	.LVL120:
 1021              		.loc 1 327 0
 1022 00f6 0546     		mov	r5, r0
ARM GAS  C:\Users\jo\AppData\Local\Temp\ccT06EVW.s 			page 19


 1023 00f8 0028     		cmp	r0, #0
 1024 00fa 56D0     		beq	.L132
 1025              		.loc 1 334 0
 1026 00fc 0023     		movs	r3, #0
 1027              		.loc 1 337 0
 1028 00fe 039A     		ldr	r2, [sp, #12]
 1029              		.loc 1 335 0
 1030 0100 0781     		strh	r7, [r0, #8]	@ movhi
 1031 0102 4781     		strh	r7, [r0, #10]	@ movhi
 1032              		.loc 1 337 0
 1033 0104 0273     		strb	r2, [r0, #12]
 1034              		.loc 1 334 0
 1035 0106 4360     		str	r3, [r0, #4]
 1036              		.loc 1 336 0
 1037 0108 0360     		str	r3, [r0]
 1038              		.loc 1 338 0
 1039 010a 17E0     		b	.L112
 1040              	.LVL121:
 1041              	.L105:
 1042              		.loc 1 308 0
 1043 010c 04F11300 		add	r0, r4, #19
 1044              	.LVL122:
 1045 0110 FB1C     		adds	r3, r7, #3
 1046 0112 23F00303 		bic	r3, r3, #3
 1047 0116 20F00300 		bic	r0, r0, #3
 1048 011a 1844     		add	r0, r0, r3
 1049 011c 80B2     		uxth	r0, r0
 1050 011e FFF7FEFF 		bl	mem_malloc
 1051              	.LVL123:
 1052              		.loc 1 309 0
 1053 0122 0546     		mov	r5, r0
 1054 0124 0028     		cmp	r0, #0
 1055 0126 40D0     		beq	.L132
 1056              		.loc 1 313 0
 1057 0128 0444     		add	r4, r4, r0
 1058              	.LVL124:
 1059 012a 1334     		adds	r4, r4, #19
 1060              		.loc 1 315 0
 1061 012c 0023     		movs	r3, #0
 1062              		.loc 1 313 0
 1063 012e 24F00304 		bic	r4, r4, #3
 1064 0132 4460     		str	r4, [r0, #4]
 1065              		.loc 1 314 0
 1066 0134 0781     		strh	r7, [r0, #8]	@ movhi
 1067 0136 4781     		strh	r7, [r0, #10]	@ movhi
 1068              		.loc 1 315 0
 1069 0138 0360     		str	r3, [r0]
 1070              		.loc 1 316 0
 1071 013a 0373     		strb	r3, [r0, #12]
 1072              	.LVL125:
 1073              	.L112:
 1074              		.loc 1 344 0
 1075 013c 0122     		movs	r2, #1
 1076              		.loc 1 346 0
 1077 013e 0023     		movs	r3, #0
 1078              		.loc 1 348 0
 1079 0140 2846     		mov	r0, r5
ARM GAS  C:\Users\jo\AppData\Local\Temp\ccT06EVW.s 			page 20


 1080              		.loc 1 344 0
 1081 0142 EA81     		strh	r2, [r5, #14]	@ movhi
 1082              		.loc 1 346 0
 1083 0144 6B73     		strb	r3, [r5, #13]
 1084              		.loc 1 349 0
 1085 0146 05B0     		add	sp, sp, #20
 1086              		.cfi_remember_state
 1087              		.cfi_def_cfa_offset 28
 1088              		@ sp needed
 1089 0148 BDE8F083 		pop	{r4, r5, r6, r7, r8, r9, pc}
 1090              	.LVL126:
 1091              	.L100:
 1092              		.cfi_restore_state
 1093              		.loc 1 222 0
 1094 014c 2224     		movs	r4, #34
 1095 014e 63E7     		b	.L101
 1096              	.L98:
 1097              		.loc 1 218 0
 1098 0150 3624     		movs	r4, #54
 1099 0152 61E7     		b	.L101
 1100              	.L102:
 1101              	.LVL127:
 1102              		.loc 1 229 0
 1103 0154 0024     		movs	r4, #0
 1104              		.loc 1 230 0
 1105 0156 5FE7     		b	.L101
 1106              	.LVL128:
 1107              	.L104:
 1108              		.loc 1 340 0 discriminator 1
 1109 0158 334B     		ldr	r3, .L138+12
 1110 015a 0093     		str	r3, [sp]
 1111 015c 2F49     		ldr	r1, .L138
 1112              	.LVL129:
 1113 015e 334A     		ldr	r2, .L138+16
 1114              	.LVL130:
 1115 0160 3048     		ldr	r0, .L138+8
 1116              	.LVL131:
 1117 0162 4FF4AA73 		mov	r3, #340
 1118 0166 FFF7FEFF 		bl	chprintf.constprop.1
 1119              	.LVL132:
 1120              	.LBB123:
 1121              	.LBB124:
 1122              		.loc 3 414 0 discriminator 1
 1123 016a 3048     		ldr	r0, .L138+16
 1124 016c FFF7FEFF 		bl	chSysHalt
 1125              	.LVL133:
 1126              	.LBE124:
 1127              	.LBE123:
 1128              		.loc 1 341 0 discriminator 1
 1129 0170 0020     		movs	r0, #0
 1130              	.LVL134:
 1131              	.L103:
 1132              		.loc 1 349 0
 1133 0172 05B0     		add	sp, sp, #20
 1134              		.cfi_remember_state
 1135              		.cfi_def_cfa_offset 28
 1136              		@ sp needed
ARM GAS  C:\Users\jo\AppData\Local\Temp\ccT06EVW.s 			page 21


 1137 0174 BDE8F083 		pop	{r4, r5, r6, r7, r8, r9, pc}
 1138              	.LVL135:
 1139              	.L97:
 1140              		.loc 1 232 0 discriminator 1
 1141 0178 2B4B     		ldr	r3, .L138+12
 1142 017a 0093     		str	r3, [sp]
 1143 017c 2749     		ldr	r1, .L138
 1144              	.LVL136:
 1145 017e 2C4A     		ldr	r2, .L138+20
 1146              	.LVL137:
 1147 0180 2848     		ldr	r0, .L138+8
 1148              	.LVL138:
 1149 0182 E823     		movs	r3, #232
 1150 0184 FFF7FEFF 		bl	chprintf.constprop.1
 1151              	.LVL139:
 1152              	.LBB125:
 1153              	.LBB126:
 1154              		.loc 3 414 0 discriminator 1
 1155 0188 2948     		ldr	r0, .L138+20
 1156 018a FFF7FEFF 		bl	chSysHalt
 1157              	.LVL140:
 1158              	.LBE126:
 1159              	.LBE125:
 1160              		.loc 1 233 0 discriminator 1
 1161 018e 0020     		movs	r0, #0
 1162              		.loc 1 349 0 discriminator 1
 1163 0190 05B0     		add	sp, sp, #20
 1164              		@ sp needed
 1165 0192 BDE8F083 		pop	{r4, r5, r6, r7, r8, r9, pc}
 1166              	.LVL141:
 1167              	.L137:
 1168              		.cfi_restore_state
 1169              	.LBB127:
 1170              	.LBB128:
 1171              		.loc 1 163 0
 1172 0196 274B     		ldr	r3, .L138+24
 1173 0198 1A78     		ldrb	r2, [r3]	@ zero_extendqisi2
 1174              	.LVL142:
 1175              		.loc 1 164 0
 1176 019a 0121     		movs	r1, #1
 1177 019c 1970     		strb	r1, [r3]
 1178              		.loc 1 167 0
 1179 019e 0AB9     		cbnz	r2, .L114
 1180 01a0 FFF7FEFF 		bl	pbuf_pool_is_empty.part.0
 1181              	.LVL143:
 1182              	.L114:
 1183              	.LBE128:
 1184              	.LBE127:
 1185              		.loc 1 276 0
 1186 01a4 2846     		mov	r0, r5
 1187 01a6 FFF7FEFF 		bl	pbuf_free
 1188              	.LVL144:
 1189              	.L132:
 1190              		.loc 1 278 0
 1191 01aa 0020     		movs	r0, #0
 1192              		.loc 1 349 0
 1193 01ac 05B0     		add	sp, sp, #20
ARM GAS  C:\Users\jo\AppData\Local\Temp\ccT06EVW.s 			page 22


 1194              		.cfi_remember_state
 1195              		.cfi_def_cfa_offset 28
 1196              		@ sp needed
 1197 01ae BDE8F083 		pop	{r4, r5, r6, r7, r8, r9, pc}
 1198              	.LVL145:
 1199              	.L136:
 1200              		.cfi_restore_state
 1201              		.loc 1 293 0 discriminator 1
 1202 01b2 CDF80090 		str	r9, [sp]
 1203 01b6 1949     		ldr	r1, .L138
 1204 01b8 1F4A     		ldr	r2, .L138+28
 1205 01ba 1A48     		ldr	r0, .L138+8
 1206 01bc 40F22713 		movw	r3, #295
 1207 01c0 FFF7FEFF 		bl	chprintf.constprop.1
 1208              	.LVL146:
 1209              	.LBB129:
 1210              	.LBB130:
 1211              		.loc 3 414 0 discriminator 1
 1212 01c4 1C48     		ldr	r0, .L138+28
 1213 01c6 FFF7FEFF 		bl	chSysHalt
 1214              	.LVL147:
 1215 01ca 6CE7     		b	.L117
 1216              	.LVL148:
 1217              	.L135:
 1218              	.LBE130:
 1219              	.LBE129:
 1220              		.loc 1 291 0 discriminator 1
 1221 01cc CDF80090 		str	r9, [sp]
 1222 01d0 1249     		ldr	r1, .L138
 1223 01d2 1A4A     		ldr	r2, .L138+32
 1224 01d4 1348     		ldr	r0, .L138+8
 1225 01d6 4FF49273 		mov	r3, #292
 1226 01da FFF7FEFF 		bl	chprintf.constprop.1
 1227              	.LVL149:
 1228              	.LBB131:
 1229              	.LBB132:
 1230              		.loc 3 414 0 discriminator 1
 1231 01de 1748     		ldr	r0, .L138+32
 1232 01e0 FFF7FEFF 		bl	chSysHalt
 1233              	.LVL150:
 1234 01e4 59E7     		b	.L116
 1235              	.LVL151:
 1236              	.L133:
 1237              	.LBE132:
 1238              	.LBE131:
 1239              	.LBB133:
 1240              	.LBB134:
 1241              		.loc 1 163 0
 1242 01e6 134A     		ldr	r2, .L138+24
 1243 01e8 1378     		ldrb	r3, [r2]	@ zero_extendqisi2
 1244              	.LVL152:
 1245              		.loc 1 164 0
 1246 01ea 0121     		movs	r1, #1
 1247 01ec 1170     		strb	r1, [r2]
 1248              		.loc 1 167 0
 1249 01ee 03F0FF05 		and	r5, r3, #255
 1250 01f2 002B     		cmp	r3, #0
ARM GAS  C:\Users\jo\AppData\Local\Temp\ccT06EVW.s 			page 23


 1251 01f4 D9D1     		bne	.L132
 1252 01f6 FFF7FEFF 		bl	pbuf_pool_is_empty.part.0
 1253              	.LVL153:
 1254              	.LBE134:
 1255              	.LBE133:
 1256              		.loc 1 243 0
 1257 01fa 2846     		mov	r0, r5
 1258 01fc B9E7     		b	.L103
 1259              	.LVL154:
 1260              	.L134:
 1261              		.loc 1 256 0 discriminator 1
 1262 01fe 0A4B     		ldr	r3, .L138+12
 1263 0200 0093     		str	r3, [sp]
 1264 0202 0649     		ldr	r1, .L138
 1265 0204 0C4A     		ldr	r2, .L138+28
 1266 0206 0748     		ldr	r0, .L138+8
 1267              	.LVL155:
 1268 0208 4FF48173 		mov	r3, #258
 1269 020c FFF7FEFF 		bl	chprintf.constprop.1
 1270              	.LVL156:
 1271              	.LBB135:
 1272              	.LBB136:
 1273              		.loc 3 414 0 discriminator 1
 1274 0210 0948     		ldr	r0, .L138+28
 1275 0212 FFF7FEFF 		bl	chSysHalt
 1276              	.LVL157:
 1277 0216 6E89     		ldrh	r6, [r5, #10]
 1278 0218 28E7     		b	.L111
 1279              	.L139:
 1280 021a 00BF     		.align	2
 1281              	.L138:
 1282 021c 00000000 		.word	.LC0
 1283 0220 58010000 		.word	.LC11
 1284 0224 00000000 		.word	itm_port
 1285 0228 4C000000 		.word	.LC2
 1286 022c 9C010000 		.word	.LC13
 1287 0230 08010000 		.word	.LC9
 1288 0234 00000000 		.word	.LANCHOR0
 1289 0238 24010000 		.word	.LC10
 1290 023c 6C010000 		.word	.LC12
 1291              	.LBE136:
 1292              	.LBE135:
 1293              		.cfi_endproc
 1294              	.LFE259:
 1295              		.size	pbuf_alloc, .-pbuf_alloc
 1296              		.section	.text.pbuf_realloc,"ax",%progbits
 1297              		.align	2
 1298              		.p2align 4,,15
 1299              		.global	pbuf_realloc
 1300              		.thumb
 1301              		.thumb_func
 1302              		.type	pbuf_realloc, %function
 1303              	pbuf_realloc:
 1304              	.LFB261:
 1305              		.loc 1 431 0
 1306              		.cfi_startproc
 1307              		@ args = 0, pretend = 0, frame = 0
ARM GAS  C:\Users\jo\AppData\Local\Temp\ccT06EVW.s 			page 24


 1308              		@ frame_needed = 0, uses_anonymous_args = 0
 1309              	.LVL158:
 1310 0000 F0B5     		push	{r4, r5, r6, r7, lr}
 1311              		.cfi_def_cfa_offset 20
 1312              		.cfi_offset 4, -20
 1313              		.cfi_offset 5, -16
 1314              		.cfi_offset 6, -12
 1315              		.cfi_offset 7, -8
 1316              		.cfi_offset 14, -4
 1317 0002 0D46     		mov	r5, r1
 1318 0004 83B0     		sub	sp, sp, #12
 1319              		.cfi_def_cfa_offset 32
 1320              		.loc 1 436 0
 1321 0006 0446     		mov	r4, r0
 1322 0008 0028     		cmp	r0, #0
 1323 000a 59D0     		beq	.L154
 1324              	.LVL159:
 1325              	.L141:
 1326              		.loc 1 437 0
 1327 000c 237B     		ldrb	r3, [r4, #12]	@ zero_extendqisi2
 1328 000e 032B     		cmp	r3, #3
 1329 0010 0BD9     		bls	.L142
 1330              		.loc 1 437 0 is_stmt 0 discriminator 4
 1331 0012 394B     		ldr	r3, .L158
 1332 0014 0093     		str	r3, [sp]
 1333 0016 3948     		ldr	r0, .L158+4
 1334 0018 3949     		ldr	r1, .L158+8
 1335 001a 3A4A     		ldr	r2, .L158+12
 1336 001c 4FF4DC73 		mov	r3, #440
 1337 0020 FFF7FEFF 		bl	chprintf.constprop.1
 1338              	.LVL160:
 1339              	.LBB137:
 1340              	.LBB138:
 1341              		.loc 3 414 0 is_stmt 1 discriminator 4
 1342 0024 3748     		ldr	r0, .L158+12
 1343 0026 FFF7FEFF 		bl	chSysHalt
 1344              	.LVL161:
 1345              	.L142:
 1346              	.LBE138:
 1347              	.LBE137:
 1348              		.loc 1 443 0
 1349 002a 2689     		ldrh	r6, [r4, #8]
 1350 002c AE42     		cmp	r6, r5
 1351 002e 45D9     		bls	.L140
 1352              		.loc 1 450 0
 1353 0030 AE1B     		subs	r6, r5, r6
 1354              	.LVL162:
 1355              		.loc 1 460 0
 1356 0032 314F     		ldr	r7, .L158
 1357              		.loc 1 456 0
 1358 0034 04E0     		b	.L144
 1359              	.LVL163:
 1360              	.L145:
 1361              		.loc 1 461 0
 1362 0036 2389     		ldrh	r3, [r4, #8]
 1363 0038 3344     		add	r3, r3, r6
 1364 003a 2381     		strh	r3, [r4, #8]	@ movhi
ARM GAS  C:\Users\jo\AppData\Local\Temp\ccT06EVW.s 			page 25


 1365              		.loc 1 463 0
 1366 003c 2468     		ldr	r4, [r4]
 1367              	.LVL164:
 1368              		.loc 1 464 0
 1369 003e CCB1     		cbz	r4, .L155
 1370              	.L144:
 1371              		.loc 1 456 0
 1372 0040 6189     		ldrh	r1, [r4, #10]
 1373 0042 8D42     		cmp	r5, r1
 1374 0044 24D9     		bls	.L156
 1375              	.L147:
 1376              		.loc 1 460 0
 1377 0046 4FF6FE73 		movw	r3, #65534
 1378              		.loc 1 458 0
 1379 004a 691A     		subs	r1, r5, r1
 1380              		.loc 1 460 0
 1381 004c 9E42     		cmp	r6, r3
 1382              		.loc 1 458 0
 1383 004e 8DB2     		uxth	r5, r1
 1384              	.LVL165:
 1385              		.loc 1 460 0
 1386 0050 F1DD     		ble	.L145
 1387              		.loc 1 460 0 is_stmt 0 discriminator 1
 1388 0052 4FF4E673 		mov	r3, #460
 1389 0056 2A49     		ldr	r1, .L158+8
 1390 0058 2B4A     		ldr	r2, .L158+16
 1391 005a 0097     		str	r7, [sp]
 1392 005c 2748     		ldr	r0, .L158+4
 1393 005e FFF7FEFF 		bl	chprintf.constprop.1
 1394              	.LVL166:
 1395              	.LBB139:
 1396              	.LBB140:
 1397              		.loc 3 414 0 is_stmt 1 discriminator 1
 1398 0062 2948     		ldr	r0, .L158+16
 1399 0064 FFF7FEFF 		bl	chSysHalt
 1400              	.LVL167:
 1401              	.LBE140:
 1402              	.LBE139:
 1403              		.loc 1 461 0 discriminator 1
 1404 0068 2389     		ldrh	r3, [r4, #8]
 1405 006a 3344     		add	r3, r3, r6
 1406 006c 2381     		strh	r3, [r4, #8]	@ movhi
 1407              		.loc 1 463 0 discriminator 1
 1408 006e 2468     		ldr	r4, [r4]
 1409              	.LVL168:
 1410              		.loc 1 464 0 discriminator 1
 1411 0070 002C     		cmp	r4, #0
 1412 0072 E5D1     		bne	.L144
 1413              	.LVL169:
 1414              	.L155:
 1415 0074 2249     		ldr	r1, .L158+8
 1416 0076 254A     		ldr	r2, .L158+20
 1417 0078 0097     		str	r7, [sp]
 1418 007a 4FF4E873 		mov	r3, #464
 1419 007e 1F48     		ldr	r0, .L158+4
 1420 0080 FFF7FEFF 		bl	chprintf.constprop.1
 1421              	.LVL170:
ARM GAS  C:\Users\jo\AppData\Local\Temp\ccT06EVW.s 			page 26


 1422              	.LBB141:
 1423              	.LBB142:
 1424              		.loc 3 414 0 discriminator 1
 1425 0084 2148     		ldr	r0, .L158+20
 1426 0086 FFF7FEFF 		bl	chSysHalt
 1427              	.LVL171:
 1428              	.LBE142:
 1429              	.LBE141:
 1430              		.loc 1 456 0 discriminator 1
 1431 008a 6189     		ldrh	r1, [r4, #10]
 1432 008c 8D42     		cmp	r5, r1
 1433 008e DAD8     		bhi	.L147
 1434              	.LVL172:
 1435              	.L156:
 1436              		.loc 1 471 0
 1437 0090 237B     		ldrb	r3, [r4, #12]	@ zero_extendqisi2
 1438 0092 2646     		mov	r6, r4
 1439              	.LVL173:
 1440 0094 53B9     		cbnz	r3, .L148
 1441              		.loc 1 471 0 is_stmt 0 discriminator 1
 1442 0096 A942     		cmp	r1, r5
 1443 0098 08D0     		beq	.L148
 1444              		.loc 1 473 0 is_stmt 1
 1445 009a 6368     		ldr	r3, [r4, #4]
 1446 009c 1B1B     		subs	r3, r3, r4
 1447 009e E918     		adds	r1, r5, r3
 1448 00a0 89B2     		uxth	r1, r1
 1449 00a2 2046     		mov	r0, r4
 1450 00a4 FFF7FEFF 		bl	mem_trim
 1451              	.LVL174:
 1452              		.loc 1 474 0
 1453 00a8 0646     		mov	r6, r0
 1454 00aa B0B1     		cbz	r0, .L157
 1455              	.LVL175:
 1456              	.L148:
 1457              		.loc 1 481 0
 1458 00ac 3068     		ldr	r0, [r6]
 1459              		.loc 1 477 0
 1460 00ae 7581     		strh	r5, [r6, #10]	@ movhi
 1461              		.loc 1 478 0
 1462 00b0 3581     		strh	r5, [r6, #8]	@ movhi
 1463              		.loc 1 481 0
 1464 00b2 08B1     		cbz	r0, .L149
 1465              		.loc 1 483 0
 1466 00b4 FFF7FEFF 		bl	pbuf_free
 1467              	.LVL176:
 1468              	.L149:
 1469              		.loc 1 486 0
 1470 00b8 0023     		movs	r3, #0
 1471 00ba 3360     		str	r3, [r6]
 1472              	.LVL177:
 1473              	.L140:
 1474              		.loc 1 488 0
 1475 00bc 03B0     		add	sp, sp, #12
 1476              		.cfi_remember_state
 1477              		.cfi_def_cfa_offset 20
 1478              		@ sp needed
ARM GAS  C:\Users\jo\AppData\Local\Temp\ccT06EVW.s 			page 27


 1479 00be F0BD     		pop	{r4, r5, r6, r7, pc}
 1480              	.LVL178:
 1481              	.L154:
 1482              		.cfi_restore_state
 1483              		.loc 1 436 0 discriminator 1
 1484 00c0 0D4B     		ldr	r3, .L158
 1485 00c2 0093     		str	r3, [sp]
 1486 00c4 0E49     		ldr	r1, .L158+8
 1487              	.LVL179:
 1488 00c6 124A     		ldr	r2, .L158+24
 1489 00c8 0C48     		ldr	r0, .L158+4
 1490              	.LVL180:
 1491 00ca 4FF4DA73 		mov	r3, #436
 1492 00ce FFF7FEFF 		bl	chprintf.constprop.1
 1493              	.LVL181:
 1494              	.LBB143:
 1495              	.LBB144:
 1496              		.loc 3 414 0 discriminator 1
 1497 00d2 0F48     		ldr	r0, .L158+24
 1498 00d4 FFF7FEFF 		bl	chSysHalt
 1499              	.LVL182:
 1500 00d8 98E7     		b	.L141
 1501              	.LVL183:
 1502              	.L157:
 1503              	.LBE144:
 1504              	.LBE143:
 1505              		.loc 1 474 0 discriminator 1
 1506 00da 074B     		ldr	r3, .L158
 1507 00dc 0093     		str	r3, [sp]
 1508 00de 0849     		ldr	r1, .L158+8
 1509 00e0 0C4A     		ldr	r2, .L158+28
 1510 00e2 0648     		ldr	r0, .L158+4
 1511              	.LVL184:
 1512 00e4 4FF4ED73 		mov	r3, #474
 1513 00e8 FFF7FEFF 		bl	chprintf.constprop.1
 1514              	.LVL185:
 1515              	.LBB145:
 1516              	.LBB146:
 1517              		.loc 3 414 0 discriminator 1
 1518 00ec 0948     		ldr	r0, .L158+28
 1519 00ee FFF7FEFF 		bl	chSysHalt
 1520              	.LVL186:
 1521              	.LBE146:
 1522              	.LBE145:
 1523              		.loc 1 477 0 discriminator 1
 1524 00f2 7681     		strh	r6, [r6, #10]	@ movhi
 1525 00f4 FFDE     		.inst	0xdeff
 1526              	.L159:
 1527 00f6 00BF     		.align	2
 1528              	.L158:
 1529 00f8 4C000000 		.word	.LC2
 1530 00fc 00000000 		.word	itm_port
 1531 0100 00000000 		.word	.LC0
 1532 0104 D0010000 		.word	.LC15
 1533 0108 EC010000 		.word	.LC16
 1534 010c 00020000 		.word	.LC17
 1535 0110 B8010000 		.word	.LC14
ARM GAS  C:\Users\jo\AppData\Local\Temp\ccT06EVW.s 			page 28


 1536 0114 18020000 		.word	.LC18
 1537              		.cfi_endproc
 1538              	.LFE261:
 1539              		.size	pbuf_realloc, .-pbuf_realloc
 1540 0118 AFF30080 		.section	.text.pbuf_clen,"ax",%progbits
 1540      AFF30080 
 1541              		.align	2
 1542              		.p2align 4,,15
 1543              		.global	pbuf_clen
 1544              		.thumb
 1545              		.thumb_func
 1546              		.type	pbuf_clen, %function
 1547              	pbuf_clen:
 1548              	.LFB264:
 1549              		.loc 1 705 0
 1550              		.cfi_startproc
 1551              		@ args = 0, pretend = 0, frame = 0
 1552              		@ frame_needed = 0, uses_anonymous_args = 0
 1553              		@ link register save eliminated.
 1554              	.LVL187:
 1555              		.loc 1 709 0
 1556 0000 0346     		mov	r3, r0
 1557 0002 30B1     		cbz	r0, .L163
 1558 0004 0020     		movs	r0, #0
 1559              	.LVL188:
 1560              	.L162:
 1561              		.loc 1 711 0
 1562 0006 1B68     		ldr	r3, [r3]
 1563              	.LVL189:
 1564              		.loc 1 710 0
 1565 0008 0130     		adds	r0, r0, #1
 1566              	.LVL190:
 1567 000a C0B2     		uxtb	r0, r0
 1568              	.LVL191:
 1569              		.loc 1 709 0
 1570 000c 002B     		cmp	r3, #0
 1571 000e FAD1     		bne	.L162
 1572 0010 7047     		bx	lr
 1573              	.LVL192:
 1574              	.L163:
 1575              		.loc 1 714 0
 1576 0012 7047     		bx	lr
 1577              		.cfi_endproc
 1578              	.LFE264:
 1579              		.size	pbuf_clen, .-pbuf_clen
 1580 0014 AFF30080 		.section	.text.pbuf_ref,"ax",%progbits
 1580      AFF30080 
 1580      AFF30080 
 1581              		.align	2
 1582              		.p2align 4,,15
 1583              		.global	pbuf_ref
 1584              		.thumb
 1585              		.thumb_func
 1586              		.type	pbuf_ref, %function
 1587              	pbuf_ref:
 1588              	.LFB265:
 1589              		.loc 1 724 0
ARM GAS  C:\Users\jo\AppData\Local\Temp\ccT06EVW.s 			page 29


 1590              		.cfi_startproc
 1591              		@ args = 0, pretend = 0, frame = 0
 1592              		@ frame_needed = 0, uses_anonymous_args = 0
 1593              		@ link register save eliminated.
 1594              	.LVL193:
 1595              		.loc 1 727 0
 1596 0000 10B1     		cbz	r0, .L165
 1597              		.loc 1 729 0
 1598 0002 C389     		ldrh	r3, [r0, #14]
 1599 0004 0133     		adds	r3, r3, #1
 1600 0006 C381     		strh	r3, [r0, #14]	@ movhi
 1601              	.L165:
 1602 0008 7047     		bx	lr
 1603              		.cfi_endproc
 1604              	.LFE265:
 1605              		.size	pbuf_ref, .-pbuf_ref
 1606 000a 00BFAFF3 		.section	.text.pbuf_cat,"ax",%progbits
 1606      0080
 1607              		.align	2
 1608              		.p2align 4,,15
 1609              		.global	pbuf_cat
 1610              		.thumb
 1611              		.thumb_func
 1612              		.type	pbuf_cat, %function
 1613              	pbuf_cat:
 1614              	.LFB266:
 1615              		.loc 1 746 0
 1616              		.cfi_startproc
 1617              		@ args = 0, pretend = 0, frame = 0
 1618              		@ frame_needed = 0, uses_anonymous_args = 0
 1619              	.LVL194:
 1620 0000 70B5     		push	{r4, r5, r6, lr}
 1621              		.cfi_def_cfa_offset 16
 1622              		.cfi_offset 4, -16
 1623              		.cfi_offset 5, -12
 1624              		.cfi_offset 6, -8
 1625              		.cfi_offset 14, -4
 1626 0002 82B0     		sub	sp, sp, #8
 1627              		.cfi_def_cfa_offset 24
 1628              		.loc 1 749 0
 1629 0004 0028     		cmp	r0, #0
 1630 0006 32D0     		beq	.L171
 1631 0008 0D46     		mov	r5, r1
 1632              		.loc 1 749 0 is_stmt 0 discriminator 2
 1633 000a 0029     		cmp	r1, #0
 1634 000c 2FD0     		beq	.L171
 1635              	.LVL195:
 1636              		.loc 1 753 0 is_stmt 1 discriminator 1
 1637 000e 0468     		ldr	r4, [r0]
 1638 0010 0CB9     		cbnz	r4, .L174
 1639 0012 3BE0     		b	.L188
 1640              	.LVL196:
 1641              	.L178:
 1642 0014 1446     		mov	r4, r2
 1643              	.L174:
 1644              		.loc 1 755 0 discriminator 3
 1645 0016 0389     		ldrh	r3, [r0, #8]
ARM GAS  C:\Users\jo\AppData\Local\Temp\ccT06EVW.s 			page 30


 1646 0018 2989     		ldrh	r1, [r5, #8]
 1647              		.loc 1 753 0 discriminator 3
 1648 001a 2268     		ldr	r2, [r4]
 1649              		.loc 1 755 0 discriminator 3
 1650 001c 0B44     		add	r3, r3, r1
 1651 001e 0381     		strh	r3, [r0, #8]	@ movhi
 1652              	.LVL197:
 1653 0020 2046     		mov	r0, r4
 1654              		.loc 1 753 0 discriminator 3
 1655 0022 002A     		cmp	r2, #0
 1656 0024 F6D1     		bne	.L178
 1657              	.LVL198:
 1658              	.L173:
 1659              		.loc 1 758 0
 1660 0026 6289     		ldrh	r2, [r4, #10]
 1661 0028 2389     		ldrh	r3, [r4, #8]
 1662 002a 9342     		cmp	r3, r2
 1663 002c 19D0     		beq	.L176
 1664              		.loc 1 758 0 is_stmt 0 discriminator 1
 1665 002e 184E     		ldr	r6, .L189
 1666 0030 1849     		ldr	r1, .L189+4
 1667 0032 194A     		ldr	r2, .L189+8
 1668 0034 0096     		str	r6, [sp]
 1669 0036 40F2F623 		movw	r3, #758
 1670 003a 1848     		ldr	r0, .L189+12
 1671              	.LVL199:
 1672 003c FFF7FEFF 		bl	chprintf.constprop.1
 1673              	.LVL200:
 1674              	.LBB147:
 1675              	.LBB148:
 1676              		.loc 3 414 0 is_stmt 1 discriminator 1
 1677 0040 1548     		ldr	r0, .L189+8
 1678 0042 FFF7FEFF 		bl	chSysHalt
 1679              	.LVL201:
 1680              	.LBE148:
 1681              	.LBE147:
 1682              		.loc 1 759 0 discriminator 1
 1683 0046 2368     		ldr	r3, [r4]
 1684 0048 53B1     		cbz	r3, .L187
 1685 004a 0096     		str	r6, [sp]
 1686 004c 1348     		ldr	r0, .L189+12
 1687 004e 1149     		ldr	r1, .L189+4
 1688 0050 134A     		ldr	r2, .L189+16
 1689 0052 40F2F723 		movw	r3, #759
 1690 0056 FFF7FEFF 		bl	chprintf.constprop.1
 1691              	.LVL202:
 1692              	.LBB149:
 1693              	.LBB150:
 1694              		.loc 3 414 0 discriminator 1
 1695 005a 1148     		ldr	r0, .L189+16
 1696 005c FFF7FEFF 		bl	chSysHalt
 1697              	.LVL203:
 1698              	.L187:
 1699 0060 2289     		ldrh	r2, [r4, #8]
 1700              	.LVL204:
 1701              	.L176:
 1702              	.LBE150:
ARM GAS  C:\Users\jo\AppData\Local\Temp\ccT06EVW.s 			page 31


 1703              	.LBE149:
 1704              		.loc 1 761 0
 1705 0062 2B89     		ldrh	r3, [r5, #8]
 1706              		.loc 1 763 0
 1707 0064 2560     		str	r5, [r4]
 1708              		.loc 1 761 0
 1709 0066 1344     		add	r3, r3, r2
 1710 0068 2381     		strh	r3, [r4, #8]	@ movhi
 1711              		.loc 1 767 0
 1712 006a 02B0     		add	sp, sp, #8
 1713              		.cfi_remember_state
 1714              		.cfi_def_cfa_offset 16
 1715              		@ sp needed
 1716 006c 70BD     		pop	{r4, r5, r6, pc}
 1717              	.LVL205:
 1718              	.L171:
 1719              		.cfi_restore_state
 1720              		.loc 1 749 0 discriminator 3
 1721 006e 084B     		ldr	r3, .L189
 1722 0070 0093     		str	r3, [sp]
 1723 0072 0849     		ldr	r1, .L189+4
 1724              	.LVL206:
 1725 0074 0B4A     		ldr	r2, .L189+20
 1726 0076 0948     		ldr	r0, .L189+12
 1727              	.LVL207:
 1728 0078 40F2EE23 		movw	r3, #750
 1729 007c FFF7FEFF 		bl	chprintf.constprop.1
 1730              	.LVL208:
 1731              	.LBB151:
 1732              	.LBB152:
 1733              		.loc 3 414 0 discriminator 3
 1734 0080 0848     		ldr	r0, .L189+20
 1735              	.LBE152:
 1736              	.LBE151:
 1737              		.loc 1 767 0 discriminator 3
 1738 0082 02B0     		add	sp, sp, #8
 1739              		.cfi_remember_state
 1740              		.cfi_def_cfa_offset 16
 1741              		@ sp needed
 1742 0084 BDE87040 		pop	{r4, r5, r6, lr}
 1743              		.cfi_restore 14
 1744              		.cfi_restore 6
 1745              		.cfi_restore 5
 1746              		.cfi_restore 4
 1747              		.cfi_def_cfa_offset 0
 1748              	.LBB154:
 1749              	.LBB153:
 1750              		.loc 3 414 0 discriminator 3
 1751 0088 FFF7FEBF 		b	chSysHalt
 1752              	.LVL209:
 1753              	.L188:
 1754              		.cfi_restore_state
 1755              	.LBE153:
 1756              	.LBE154:
 1757              		.loc 1 753 0
 1758 008c 0446     		mov	r4, r0
 1759 008e CAE7     		b	.L173
ARM GAS  C:\Users\jo\AppData\Local\Temp\ccT06EVW.s 			page 32


 1760              	.L190:
 1761              		.align	2
 1762              	.L189:
 1763 0090 4C000000 		.word	.LC2
 1764 0094 00000000 		.word	.LC0
 1765 0098 6C020000 		.word	.LC20
 1766 009c 00000000 		.word	itm_port
 1767 00a0 9C020000 		.word	.LC21
 1768 00a4 34020000 		.word	.LC19
 1769              		.cfi_endproc
 1770              	.LFE266:
 1771              		.size	pbuf_cat, .-pbuf_cat
 1772 00a8 AFF30080 		.section	.text.pbuf_chain,"ax",%progbits
 1772      AFF30080 
 1773              		.align	2
 1774              		.p2align 4,,15
 1775              		.global	pbuf_chain
 1776              		.thumb
 1777              		.thumb_func
 1778              		.type	pbuf_chain, %function
 1779              	pbuf_chain:
 1780              	.LFB267:
 1781              		.loc 1 787 0
 1782              		.cfi_startproc
 1783              		@ args = 0, pretend = 0, frame = 0
 1784              		@ frame_needed = 0, uses_anonymous_args = 0
 1785              	.LVL210:
 1786 0000 10B5     		push	{r4, lr}
 1787              		.cfi_def_cfa_offset 8
 1788              		.cfi_offset 4, -8
 1789              		.cfi_offset 14, -4
 1790              		.loc 1 787 0
 1791 0002 0C46     		mov	r4, r1
 1792              		.loc 1 788 0
 1793 0004 FFF7FEFF 		bl	pbuf_cat
 1794              	.LVL211:
 1795              	.LBB155:
 1796              	.LBB156:
 1797              		.loc 1 727 0
 1798 0008 14B1     		cbz	r4, .L191
 1799              		.loc 1 729 0
 1800 000a E389     		ldrh	r3, [r4, #14]
 1801 000c 0133     		adds	r3, r3, #1
 1802 000e E381     		strh	r3, [r4, #14]	@ movhi
 1803              	.L191:
 1804 0010 10BD     		pop	{r4, pc}
 1805              	.LBE156:
 1806              	.LBE155:
 1807              		.cfi_endproc
 1808              	.LFE267:
 1809              		.size	pbuf_chain, .-pbuf_chain
 1810 0012 00BFAFF3 		.section	.text.pbuf_dechain,"ax",%progbits
 1810      0080AFF3 
 1810      0080AFF3 
 1810      0080
 1811              		.align	2
 1812              		.p2align 4,,15
ARM GAS  C:\Users\jo\AppData\Local\Temp\ccT06EVW.s 			page 33


 1813              		.global	pbuf_dechain
 1814              		.thumb
 1815              		.thumb_func
 1816              		.type	pbuf_dechain, %function
 1817              	pbuf_dechain:
 1818              	.LFB268:
 1819              		.loc 1 804 0
 1820              		.cfi_startproc
 1821              		@ args = 0, pretend = 0, frame = 0
 1822              		@ frame_needed = 0, uses_anonymous_args = 0
 1823              	.LVL212:
 1824 0000 70B5     		push	{r4, r5, r6, lr}
 1825              		.cfi_def_cfa_offset 16
 1826              		.cfi_offset 4, -16
 1827              		.cfi_offset 5, -12
 1828              		.cfi_offset 6, -8
 1829              		.cfi_offset 14, -4
 1830              		.loc 1 808 0
 1831 0002 0568     		ldr	r5, [r0]
 1832              	.LVL213:
 1833              		.loc 1 804 0
 1834 0004 82B0     		sub	sp, sp, #8
 1835              		.cfi_def_cfa_offset 24
 1836              		.loc 1 804 0
 1837 0006 0446     		mov	r4, r0
 1838              		.loc 1 810 0
 1839 0008 002D     		cmp	r5, #0
 1840 000a 33D0     		beq	.L198
 1841              		.loc 1 812 0
 1842 000c 0389     		ldrh	r3, [r0, #8]
 1843 000e 4289     		ldrh	r2, [r0, #10]
 1844 0010 2989     		ldrh	r1, [r5, #8]
 1845 0012 9B1A     		subs	r3, r3, r2
 1846 0014 9942     		cmp	r1, r3
 1847 0016 0ED0     		beq	.L199
 1848              		.loc 1 812 0 is_stmt 0 discriminator 1
 1849 0018 194B     		ldr	r3, .L208
 1850 001a 1A4A     		ldr	r2, .L208+4
 1851 001c 0093     		str	r3, [sp]
 1852 001e 1A49     		ldr	r1, .L208+8
 1853 0020 1A48     		ldr	r0, .L208+12
 1854              	.LVL214:
 1855 0022 4FF44B73 		mov	r3, #812
 1856 0026 FFF7FEFF 		bl	chprintf.constprop.1
 1857              	.LVL215:
 1858              	.LBB157:
 1859              	.LBB158:
 1860              		.loc 3 414 0 is_stmt 1 discriminator 1
 1861 002a 1648     		ldr	r0, .L208+4
 1862 002c FFF7FEFF 		bl	chSysHalt
 1863              	.LVL216:
 1864 0030 2389     		ldrh	r3, [r4, #8]
 1865 0032 6289     		ldrh	r2, [r4, #10]
 1866 0034 9B1A     		subs	r3, r3, r2
 1867              	.LVL217:
 1868              	.L199:
 1869              	.LBE158:
ARM GAS  C:\Users\jo\AppData\Local\Temp\ccT06EVW.s 			page 34


 1870              	.LBE157:
 1871              		.loc 1 816 0
 1872 0036 0021     		movs	r1, #0
 1873              		.loc 1 814 0
 1874 0038 2B81     		strh	r3, [r5, #8]	@ movhi
 1875              		.loc 1 821 0
 1876 003a 2846     		mov	r0, r5
 1877              		.loc 1 818 0
 1878 003c 2281     		strh	r2, [r4, #8]	@ movhi
 1879              		.loc 1 816 0
 1880 003e 2160     		str	r1, [r4]
 1881              		.loc 1 821 0
 1882 0040 FFF7FEFF 		bl	pbuf_free
 1883              	.LVL218:
 1884              		.loc 1 829 0
 1885 0044 2289     		ldrh	r2, [r4, #8]
 1886 0046 6389     		ldrh	r3, [r4, #10]
 1887 0048 9A42     		cmp	r2, r3
 1888              		.loc 1 821 0
 1889 004a 0646     		mov	r6, r0
 1890              	.LVL219:
 1891              		.loc 1 829 0
 1892 004c 0BD0     		beq	.L200
 1893              	.LVL220:
 1894              	.L202:
 1895              		.loc 1 829 0 is_stmt 0 discriminator 1
 1896 004e 0C4B     		ldr	r3, .L208
 1897 0050 0093     		str	r3, [sp]
 1898 0052 0E48     		ldr	r0, .L208+12
 1899 0054 0C49     		ldr	r1, .L208+8
 1900 0056 0E4A     		ldr	r2, .L208+16
 1901 0058 40F23D33 		movw	r3, #829
 1902 005c FFF7FEFF 		bl	chprintf.constprop.1
 1903              	.LVL221:
 1904              	.LBB159:
 1905              	.LBB160:
 1906              		.loc 3 414 0 is_stmt 1 discriminator 1
 1907 0060 0B48     		ldr	r0, .L208+16
 1908 0062 FFF7FEFF 		bl	chSysHalt
 1909              	.LVL222:
 1910              	.L200:
 1911              	.LBE160:
 1912              	.LBE159:
 1913              		.loc 1 808 0
 1914 0066 2846     		mov	r0, r5
 1915              		.loc 1 830 0
 1916 0068 0EB9     		cbnz	r6, .L203
 1917              	.LVL223:
 1918              		.loc 1 831 0
 1919 006a 02B0     		add	sp, sp, #8
 1920              		.cfi_remember_state
 1921              		.cfi_def_cfa_offset 16
 1922              		@ sp needed
 1923 006c 70BD     		pop	{r4, r5, r6, pc}
 1924              	.LVL224:
 1925              	.L203:
 1926              		.cfi_restore_state
ARM GAS  C:\Users\jo\AppData\Local\Temp\ccT06EVW.s 			page 35


 1927              		.loc 1 830 0
 1928 006e 0020     		movs	r0, #0
 1929              		.loc 1 831 0
 1930 0070 02B0     		add	sp, sp, #8
 1931              		.cfi_remember_state
 1932              		.cfi_def_cfa_offset 16
 1933              		@ sp needed
 1934 0072 70BD     		pop	{r4, r5, r6, pc}
 1935              	.LVL225:
 1936              	.L198:
 1937              		.cfi_restore_state
 1938              		.loc 1 829 0
 1939 0074 0289     		ldrh	r2, [r0, #8]
 1940 0076 4389     		ldrh	r3, [r0, #10]
 1941 0078 9A42     		cmp	r2, r3
 1942 007a F8D0     		beq	.L203
 1943              		.loc 1 806 0
 1944 007c 0126     		movs	r6, #1
 1945 007e E6E7     		b	.L202
 1946              	.L209:
 1947              		.align	2
 1948              	.L208:
 1949 0080 4C000000 		.word	.LC2
 1950 0084 AC020000 		.word	.LC22
 1951 0088 00000000 		.word	.LC0
 1952 008c 00000000 		.word	itm_port
 1953 0090 D0020000 		.word	.LC23
 1954              		.cfi_endproc
 1955              	.LFE268:
 1956              		.size	pbuf_dechain, .-pbuf_dechain
 1957 0094 AFF30080 		.section	.text.pbuf_copy,"ax",%progbits
 1957      AFF30080 
 1957      AFF30080 
 1958              		.align	2
 1959              		.p2align 4,,15
 1960              		.global	pbuf_copy
 1961              		.thumb
 1962              		.thumb_func
 1963              		.type	pbuf_copy, %function
 1964              	pbuf_copy:
 1965              	.LFB269:
 1966              		.loc 1 853 0
 1967              		.cfi_startproc
 1968              		@ args = 0, pretend = 0, frame = 0
 1969              		@ frame_needed = 0, uses_anonymous_args = 0
 1970              	.LVL226:
 1971 0000 2DE9F043 		push	{r4, r5, r6, r7, r8, r9, lr}
 1972              		.cfi_def_cfa_offset 28
 1973              		.cfi_offset 4, -28
 1974              		.cfi_offset 5, -24
 1975              		.cfi_offset 6, -20
 1976              		.cfi_offset 7, -16
 1977              		.cfi_offset 8, -12
 1978              		.cfi_offset 9, -8
 1979              		.cfi_offset 14, -4
 1980              		.loc 1 860 0
 1981 0004 8046     		mov	r8, r0
ARM GAS  C:\Users\jo\AppData\Local\Temp\ccT06EVW.s 			page 36


 1982              		.loc 1 853 0
 1983 0006 83B0     		sub	sp, sp, #12
 1984              		.cfi_def_cfa_offset 40
 1985              		.loc 1 860 0
 1986 0008 0028     		cmp	r0, #0
 1987 000a 00F0A580 		beq	.L211
 1988 000e 0D46     		mov	r5, r1
 1989              		.loc 1 860 0 is_stmt 0 discriminator 2
 1990 0010 0029     		cmp	r1, #0
 1991 0012 00F0A180 		beq	.L211
 1992              		.loc 1 860 0 discriminator 4
 1993 0016 0289     		ldrh	r2, [r0, #8]
 1994 0018 0B89     		ldrh	r3, [r1, #8]
 1995 001a 9A42     		cmp	r2, r3
 1996 001c C0F09C80 		bcc	.L211
 1997              		.loc 1 860 0
 1998 0020 4FF00009 		mov	r9, #0
 1999 0024 4389     		ldrh	r3, [r0, #10]
 2000 0026 4A89     		ldrh	r2, [r1, #10]
 2001              		.loc 1 877 0 is_stmt 1
 2002 0028 524F     		ldr	r7, .L251
 2003              		.loc 1 860 0
 2004 002a 4E46     		mov	r6, r9
 2005              	.LVL227:
 2006              	.L214:
 2007              		.loc 1 867 0
 2008 002c C9EB0204 		rsb	r4, r9, r2
 2009 0030 9B1B     		subs	r3, r3, r6
 2010 0032 A342     		cmp	r3, r4
 2011              		.loc 1 874 0
 2012 0034 D8F80400 		ldr	r0, [r8, #4]
 2013 0038 6968     		ldr	r1, [r5, #4]
 2014              		.loc 1 872 0
 2015 003a B4BF     		ite	lt
 2016 003c 9CB2     		uxthlt	r4, r3
 2017              		.loc 1 869 0
 2018 003e A4B2     		uxthge	r4, r4
 2019              	.LVL228:
 2020              		.loc 1 874 0
 2021 0040 3044     		add	r0, r0, r6
 2022 0042 4944     		add	r1, r1, r9
 2023 0044 2246     		mov	r2, r4
 2024 0046 FFF7FEFF 		bl	memcpy
 2025              	.LVL229:
 2026              		.loc 1 875 0
 2027 004a 2644     		add	r6, r6, r4
 2028              	.LVL230:
 2029              		.loc 1 877 0
 2030 004c B8F80A30 		ldrh	r3, [r8, #10]
 2031              		.loc 1 875 0
 2032 0050 B6B2     		uxth	r6, r6
 2033              	.LVL231:
 2034              		.loc 1 876 0
 2035 0052 4C44     		add	r4, r4, r9
 2036              	.LVL232:
 2037              		.loc 1 877 0
 2038 0054 B342     		cmp	r3, r6
ARM GAS  C:\Users\jo\AppData\Local\Temp\ccT06EVW.s 			page 37


 2039              		.loc 1 876 0
 2040 0056 1FFA84F9 		uxth	r9, r4
 2041              	.LVL233:
 2042              		.loc 1 877 0
 2043 005a 3CD3     		bcc	.L244
 2044              	.L217:
 2045              		.loc 1 878 0
 2046 005c 6B89     		ldrh	r3, [r5, #10]
 2047 005e 9945     		cmp	r9, r3
 2048 0060 2CD8     		bhi	.L245
 2049              	.L218:
 2050              		.loc 1 879 0
 2051 0062 9945     		cmp	r9, r3
 2052              	.LVL234:
 2053              		.loc 1 884 0
 2054 0064 B8F80A30 		ldrh	r3, [r8, #10]
 2055              		.loc 1 882 0
 2056 0068 24BF     		itt	cs
 2057 006a 2D68     		ldrcs	r5, [r5]
 2058              	.LVL235:
 2059              		.loc 1 881 0
 2060 006c 4FF00009 		movcs	r9, #0
 2061              	.LVL236:
 2062              		.loc 1 884 0
 2063 0070 B342     		cmp	r3, r6
 2064 0072 11D0     		beq	.L246
 2065              		.loc 1 891 0
 2066 0074 C5B1     		cbz	r5, .L247
 2067              	.L226:
 2068              		.loc 1 891 0 is_stmt 0 discriminator 1
 2069 0076 6A89     		ldrh	r2, [r5, #10]
 2070 0078 2B89     		ldrh	r3, [r5, #8]
 2071 007a 9A42     		cmp	r2, r3
 2072 007c 37D0     		beq	.L248
 2073              	.L221:
 2074              		.loc 1 896 0 is_stmt 1
 2075 007e B8F80A30 		ldrh	r3, [r8, #10]
 2076 0082 B8F80810 		ldrh	r1, [r8, #8]
 2077 0086 9942     		cmp	r1, r3
 2078 0088 D0D1     		bne	.L214
 2079              	.L224:
 2080              		.loc 1 898 0
 2081 008a D8F80020 		ldr	r2, [r8]
 2082 008e 002A     		cmp	r2, #0
 2083 0090 51D1     		bne	.L249
 2084              		.loc 1 901 0
 2085 0092 7DB1     		cbz	r5, .L213
 2086 0094 6A89     		ldrh	r2, [r5, #10]
 2087 0096 C9E7     		b	.L214
 2088              	.L246:
 2089              	.LVL237:
 2090              		.loc 1 887 0
 2091 0098 D8F80080 		ldr	r8, [r8]
 2092              	.LVL238:
 2093              		.loc 1 888 0
 2094 009c B8F1000F 		cmp	r8, #0
 2095 00a0 39D0     		beq	.L250
ARM GAS  C:\Users\jo\AppData\Local\Temp\ccT06EVW.s 			page 38


 2096              		.loc 1 886 0
 2097 00a2 0026     		movs	r6, #0
 2098              	.LVL239:
 2099              		.loc 1 891 0
 2100 00a4 002D     		cmp	r5, #0
 2101 00a6 E6D1     		bne	.L226
 2102              	.L247:
 2103              		.loc 1 896 0
 2104 00a8 B8F80A30 		ldrh	r3, [r8, #10]
 2105 00ac B8F80820 		ldrh	r2, [r8, #8]
 2106 00b0 9A42     		cmp	r2, r3
 2107 00b2 EAD0     		beq	.L224
 2108              	.LVL240:
 2109              	.L213:
 2110 00b4 68B2     		sxtb	r0, r5
 2111              		.loc 1 904 0
 2112 00b6 03B0     		add	sp, sp, #12
 2113              		.cfi_remember_state
 2114              		.cfi_def_cfa_offset 28
 2115              		@ sp needed
 2116 00b8 BDE8F083 		pop	{r4, r5, r6, r7, r8, r9, pc}
 2117              	.LVL241:
 2118              	.L245:
 2119              		.cfi_restore_state
 2120              		.loc 1 878 0 discriminator 1
 2121 00bc 40F26E33 		movw	r3, #878
 2122 00c0 2D49     		ldr	r1, .L251+4
 2123 00c2 2E4A     		ldr	r2, .L251+8
 2124 00c4 0097     		str	r7, [sp]
 2125 00c6 2E48     		ldr	r0, .L251+12
 2126 00c8 FFF7FEFF 		bl	chprintf.constprop.1
 2127              	.LVL242:
 2128              	.LBB161:
 2129              	.LBB162:
 2130              		.loc 3 414 0 discriminator 1
 2131 00cc 2B48     		ldr	r0, .L251+8
 2132 00ce FFF7FEFF 		bl	chSysHalt
 2133              	.LVL243:
 2134 00d2 6B89     		ldrh	r3, [r5, #10]
 2135 00d4 C5E7     		b	.L218
 2136              	.LVL244:
 2137              	.L244:
 2138              	.LBE162:
 2139              	.LBE161:
 2140              		.loc 1 877 0 discriminator 1
 2141 00d6 0097     		str	r7, [sp]
 2142 00d8 2749     		ldr	r1, .L251+4
 2143 00da 2A4A     		ldr	r2, .L251+16
 2144 00dc 2848     		ldr	r0, .L251+12
 2145 00de 40F26D33 		movw	r3, #877
 2146 00e2 FFF7FEFF 		bl	chprintf.constprop.1
 2147              	.LVL245:
 2148              	.LBB163:
 2149              	.LBB164:
 2150              		.loc 3 414 0 discriminator 1
 2151 00e6 2748     		ldr	r0, .L251+16
 2152 00e8 FFF7FEFF 		bl	chSysHalt
ARM GAS  C:\Users\jo\AppData\Local\Temp\ccT06EVW.s 			page 39


 2153              	.LVL246:
 2154 00ec B6E7     		b	.L217
 2155              	.LVL247:
 2156              	.L248:
 2157              	.LBE164:
 2158              	.LBE163:
 2159              		.loc 1 893 0
 2160 00ee 2B68     		ldr	r3, [r5]
 2161 00f0 002B     		cmp	r3, #0
 2162 00f2 C4D0     		beq	.L221
 2163              		.loc 1 893 0 is_stmt 0 discriminator 1
 2164 00f4 1F4B     		ldr	r3, .L251
 2165 00f6 0093     		str	r3, [sp]
 2166 00f8 1F49     		ldr	r1, .L251+4
 2167 00fa 234A     		ldr	r2, .L251+20
 2168 00fc 2048     		ldr	r0, .L251+12
 2169 00fe 40F27E33 		movw	r3, #894
 2170 0102 FFF7FEFF 		bl	chprintf.constprop.1
 2171              	.LVL248:
 2172              	.LBB165:
 2173              	.LBB166:
 2174              		.loc 3 414 0 is_stmt 1 discriminator 1
 2175 0106 2048     		ldr	r0, .L251+20
 2176 0108 FFF7FEFF 		bl	chSysHalt
 2177              	.LVL249:
 2178              	.LBE166:
 2179              	.LBE165:
 2180              		.loc 1 893 0 discriminator 1
 2181 010c FA25     		movs	r5, #250
 2182              	.LVL250:
 2183 010e 68B2     		sxtb	r0, r5
 2184              		.loc 1 904 0 discriminator 1
 2185 0110 03B0     		add	sp, sp, #12
 2186              		.cfi_remember_state
 2187              		.cfi_def_cfa_offset 28
 2188              		@ sp needed
 2189 0112 BDE8F083 		pop	{r4, r5, r6, r7, r8, r9, pc}
 2190              	.LVL251:
 2191              	.L250:
 2192              		.cfi_restore_state
 2193              		.loc 1 888 0 discriminator 1
 2194 0116 002D     		cmp	r5, #0
 2195 0118 CCD0     		beq	.L213
 2196              		.loc 1 888 0 is_stmt 0 discriminator 2
 2197 011a 164B     		ldr	r3, .L251
 2198 011c 0093     		str	r3, [sp]
 2199 011e 1649     		ldr	r1, .L251+4
 2200 0120 1A4A     		ldr	r2, .L251+24
 2201 0122 1748     		ldr	r0, .L251+12
 2202 0124 4FF45E73 		mov	r3, #888
 2203 0128 FFF7FEFF 		bl	chprintf.constprop.1
 2204              	.LVL252:
 2205              	.LBB167:
 2206              	.LBB168:
 2207              		.loc 3 414 0 is_stmt 1 discriminator 2
 2208 012c 1748     		ldr	r0, .L251+24
 2209 012e FFF7FEFF 		bl	chSysHalt
ARM GAS  C:\Users\jo\AppData\Local\Temp\ccT06EVW.s 			page 40


 2210              	.LVL253:
 2211              	.LBE168:
 2212              	.LBE167:
 2213              		.loc 1 888 0 discriminator 2
 2214 0132 F225     		movs	r5, #242
 2215              	.LVL254:
 2216 0134 BEE7     		b	.L213
 2217              	.LVL255:
 2218              	.L249:
 2219              		.loc 1 898 0 discriminator 1
 2220 0136 0F4B     		ldr	r3, .L251
 2221 0138 0093     		str	r3, [sp]
 2222 013a 0F49     		ldr	r1, .L251+4
 2223 013c 124A     		ldr	r2, .L251+20
 2224 013e 1048     		ldr	r0, .L251+12
 2225 0140 40F28333 		movw	r3, #899
 2226 0144 FFF7FEFF 		bl	chprintf.constprop.1
 2227              	.LVL256:
 2228              	.LBB169:
 2229              	.LBB170:
 2230              		.loc 3 414 0 discriminator 1
 2231 0148 0F48     		ldr	r0, .L251+20
 2232 014a FFF7FEFF 		bl	chSysHalt
 2233              	.LVL257:
 2234              	.LBE170:
 2235              	.LBE169:
 2236              		.loc 1 898 0 discriminator 1
 2237 014e FA25     		movs	r5, #250
 2238              	.LVL258:
 2239 0150 68B2     		sxtb	r0, r5
 2240              		.loc 1 904 0 discriminator 1
 2241 0152 03B0     		add	sp, sp, #12
 2242              		.cfi_remember_state
 2243              		.cfi_def_cfa_offset 28
 2244              		@ sp needed
 2245 0154 BDE8F083 		pop	{r4, r5, r6, r7, r8, r9, pc}
 2246              	.LVL259:
 2247              	.L211:
 2248              		.cfi_restore_state
 2249              		.loc 1 860 0 discriminator 5
 2250 0158 064B     		ldr	r3, .L251
 2251 015a 0093     		str	r3, [sp]
 2252 015c 0649     		ldr	r1, .L251+4
 2253              	.LVL260:
 2254 015e 0C4A     		ldr	r2, .L251+28
 2255 0160 0748     		ldr	r0, .L251+12
 2256              	.LVL261:
 2257 0162 40F25D33 		movw	r3, #861
 2258 0166 FFF7FEFF 		bl	chprintf.constprop.1
 2259              	.LVL262:
 2260              	.LBB171:
 2261              	.LBB172:
 2262              		.loc 3 414 0 discriminator 5
 2263 016a 0948     		ldr	r0, .L251+28
 2264 016c FFF7FEFF 		bl	chSysHalt
 2265              	.LVL263:
 2266              	.LBE172:
ARM GAS  C:\Users\jo\AppData\Local\Temp\ccT06EVW.s 			page 41


 2267              	.LBE171:
 2268              		.loc 1 860 0 discriminator 5
 2269 0170 F225     		movs	r5, #242
 2270 0172 9FE7     		b	.L213
 2271              	.L252:
 2272              		.align	2
 2273              	.L251:
 2274 0174 4C000000 		.word	.LC2
 2275 0178 00000000 		.word	.LC0
 2276 017c 30030000 		.word	.LC26
 2277 0180 00000000 		.word	itm_port
 2278 0184 18030000 		.word	.LC25
 2279 0188 5C030000 		.word	.LC28
 2280 018c 4C030000 		.word	.LC27
 2281 0190 E8020000 		.word	.LC24
 2282              		.cfi_endproc
 2283              	.LFE269:
 2284              		.size	pbuf_copy, .-pbuf_copy
 2285 0194 AFF30080 		.section	.text.pbuf_copy_partial,"ax",%progbits
 2285      AFF30080 
 2285      AFF30080 
 2286              		.align	2
 2287              		.p2align 4,,15
 2288              		.global	pbuf_copy_partial
 2289              		.thumb
 2290              		.thumb_func
 2291              		.type	pbuf_copy_partial, %function
 2292              	pbuf_copy_partial:
 2293              	.LFB270:
 2294              		.loc 1 919 0
 2295              		.cfi_startproc
 2296              		@ args = 0, pretend = 0, frame = 0
 2297              		@ frame_needed = 0, uses_anonymous_args = 0
 2298              	.LVL264:
 2299 0000 2DE9F043 		push	{r4, r5, r6, r7, r8, r9, lr}
 2300              		.cfi_def_cfa_offset 28
 2301              		.cfi_offset 4, -28
 2302              		.cfi_offset 5, -24
 2303              		.cfi_offset 6, -20
 2304              		.cfi_offset 7, -16
 2305              		.cfi_offset 8, -12
 2306              		.cfi_offset 9, -8
 2307              		.cfi_offset 14, -4
 2308              		.loc 1 925 0
 2309 0004 0546     		mov	r5, r0
 2310              		.loc 1 919 0
 2311 0006 83B0     		sub	sp, sp, #12
 2312              		.cfi_def_cfa_offset 40
 2313              		.loc 1 925 0
 2314 0008 0028     		cmp	r0, #0
 2315 000a 31D0     		beq	.L268
 2316 000c 0E46     		mov	r6, r1
 2317              		.loc 1 926 0
 2318 000e 0029     		cmp	r1, #0
 2319 0010 3CD0     		beq	.L269
 2320              	.LVL265:
 2321 0012 1746     		mov	r7, r2
ARM GAS  C:\Users\jo\AppData\Local\Temp\ccT06EVW.s 			page 42


 2322              		.loc 1 935 0 discriminator 1
 2323 0014 002A     		cmp	r2, #0
 2324 0016 47D0     		beq	.L262
 2325              		.loc 1 935 0 is_stmt 0
 2326 0018 4FF00008 		mov	r8, #0
 2327 001c C146     		mov	r9, r8
 2328              	.LVL266:
 2329              	.L261:
 2330              		.loc 1 945 0 is_stmt 1
 2331 001e 06EB0900 		add	r0, r6, r9
 2332              		.loc 1 936 0
 2333 0022 6A89     		ldrh	r2, [r5, #10]
 2334 0024 5BB1     		cbz	r3, .L259
 2335              		.loc 1 936 0 is_stmt 0 discriminator 1
 2336 0026 9A42     		cmp	r2, r3
 2337              		.loc 1 938 0 is_stmt 1 discriminator 1
 2338 0028 A3EB0201 		sub	r1, r3, r2
 2339              		.loc 1 936 0 discriminator 1
 2340 002c 07D8     		bhi	.L259
 2341              		.loc 1 935 0
 2342 002e 2D68     		ldr	r5, [r5]
 2343              	.LVL267:
 2344              		.loc 1 938 0
 2345 0030 8BB2     		uxth	r3, r1
 2346              	.LVL268:
 2347              		.loc 1 935 0
 2348 0032 002D     		cmp	r5, #0
 2349 0034 F3D1     		bne	.L261
 2350              	.LVL269:
 2351              	.L257:
 2352              		.loc 1 952 0
 2353 0036 4046     		mov	r0, r8
 2354              	.LVL270:
 2355              	.L255:
 2356              		.loc 1 953 0
 2357 0038 03B0     		add	sp, sp, #12
 2358              		.cfi_remember_state
 2359              		.cfi_def_cfa_offset 28
 2360              		@ sp needed
 2361 003a BDE8F083 		pop	{r4, r5, r6, r7, r8, r9, pc}
 2362              	.LVL271:
 2363              	.L259:
 2364              		.cfi_restore_state
 2365              		.loc 1 941 0
 2366 003e D41A     		subs	r4, r2, r3
 2367 0040 A4B2     		uxth	r4, r4
 2368              	.LVL272:
 2369 0042 BC42     		cmp	r4, r7
 2370 0044 28BF     		it	cs
 2371 0046 3C46     		movcs	r4, r7
 2372              	.LVL273:
 2373              		.loc 1 945 0
 2374 0048 6968     		ldr	r1, [r5, #4]
 2375              		.loc 1 948 0
 2376 004a 3F1B     		subs	r7, r7, r4
 2377              	.LVL274:
 2378              		.loc 1 945 0
ARM GAS  C:\Users\jo\AppData\Local\Temp\ccT06EVW.s 			page 43


 2379 004c 2246     		mov	r2, r4
 2380              		.loc 1 946 0
 2381 004e A044     		add	r8, r8, r4
 2382              	.LVL275:
 2383              		.loc 1 945 0
 2384 0050 1944     		add	r1, r1, r3
 2385              		.loc 1 947 0
 2386 0052 4C44     		add	r4, r4, r9
 2387              	.LVL276:
 2388              		.loc 1 948 0
 2389 0054 BFB2     		uxth	r7, r7
 2390              		.loc 1 945 0
 2391 0056 FFF7FEFF 		bl	memcpy
 2392              	.LVL277:
 2393              		.loc 1 946 0
 2394 005a 1FFA88F8 		uxth	r8, r8
 2395              	.LVL278:
 2396              		.loc 1 947 0
 2397 005e 1FFA84F9 		uxth	r9, r4
 2398              	.LVL279:
 2399              		.loc 1 935 0
 2400 0062 2D68     		ldr	r5, [r5]
 2401              	.LVL280:
 2402 0064 002F     		cmp	r7, #0
 2403 0066 E6D0     		beq	.L257
 2404              		.loc 1 949 0
 2405 0068 0023     		movs	r3, #0
 2406              	.LVL281:
 2407              		.loc 1 935 0
 2408 006a 002D     		cmp	r5, #0
 2409 006c D7D1     		bne	.L261
 2410 006e E2E7     		b	.L257
 2411              	.LVL282:
 2412              	.L268:
 2413              		.loc 1 925 0 discriminator 1
 2414 0070 0E4B     		ldr	r3, .L270
 2415              	.LVL283:
 2416 0072 0093     		str	r3, [sp]
 2417 0074 0E49     		ldr	r1, .L270+4
 2418              	.LVL284:
 2419 0076 0F4A     		ldr	r2, .L270+8
 2420              	.LVL285:
 2421 0078 0F48     		ldr	r0, .L270+12
 2422              	.LVL286:
 2423 007a 40F29D33 		movw	r3, #925
 2424 007e FFF7FEFF 		bl	chprintf.constprop.1
 2425              	.LVL287:
 2426              	.LBB173:
 2427              	.LBB174:
 2428              		.loc 3 414 0 discriminator 1
 2429 0082 0C48     		ldr	r0, .L270+8
 2430 0084 FFF7FEFF 		bl	chSysHalt
 2431              	.LVL288:
 2432              	.LBE174:
 2433              	.LBE173:
 2434              		.loc 1 925 0 discriminator 1
 2435 0088 2846     		mov	r0, r5
ARM GAS  C:\Users\jo\AppData\Local\Temp\ccT06EVW.s 			page 44


 2436 008a D5E7     		b	.L255
 2437              	.LVL289:
 2438              	.L269:
 2439              		.loc 1 926 0 discriminator 1
 2440 008c 074B     		ldr	r3, .L270
 2441              	.LVL290:
 2442 008e 0093     		str	r3, [sp]
 2443 0090 0749     		ldr	r1, .L270+4
 2444              	.LVL291:
 2445 0092 0A4A     		ldr	r2, .L270+16
 2446              	.LVL292:
 2447 0094 0848     		ldr	r0, .L270+12
 2448              	.LVL293:
 2449 0096 40F29E33 		movw	r3, #926
 2450 009a FFF7FEFF 		bl	chprintf.constprop.1
 2451              	.LVL294:
 2452              	.LBB175:
 2453              	.LBB176:
 2454              		.loc 3 414 0 discriminator 1
 2455 009e 0748     		ldr	r0, .L270+16
 2456 00a0 FFF7FEFF 		bl	chSysHalt
 2457              	.LVL295:
 2458              	.LBE176:
 2459              	.LBE175:
 2460              		.loc 1 926 0 discriminator 1
 2461 00a4 3046     		mov	r0, r6
 2462 00a6 C7E7     		b	.L255
 2463              	.LVL296:
 2464              	.L262:
 2465              		.loc 1 935 0
 2466 00a8 9046     		mov	r8, r2
 2467 00aa C4E7     		b	.L257
 2468              	.L271:
 2469              		.align	2
 2470              	.L270:
 2471 00ac 4C000000 		.word	.LC2
 2472 00b0 00000000 		.word	.LC0
 2473 00b4 88030000 		.word	.LC29
 2474 00b8 00000000 		.word	itm_port
 2475 00bc A8030000 		.word	.LC30
 2476              		.cfi_endproc
 2477              	.LFE270:
 2478              		.size	pbuf_copy_partial, .-pbuf_copy_partial
 2479              		.section	.text.pbuf_take,"ax",%progbits
 2480              		.align	2
 2481              		.p2align 4,,15
 2482              		.global	pbuf_take
 2483              		.thumb
 2484              		.thumb_func
 2485              		.type	pbuf_take, %function
 2486              	pbuf_take:
 2487              	.LFB271:
 2488              		.loc 1 967 0
 2489              		.cfi_startproc
 2490              		@ args = 0, pretend = 0, frame = 0
 2491              		@ frame_needed = 0, uses_anonymous_args = 0
 2492              	.LVL297:
ARM GAS  C:\Users\jo\AppData\Local\Temp\ccT06EVW.s 			page 45


 2493 0000 2DE9F047 		push	{r4, r5, r6, r7, r8, r9, r10, lr}
 2494              		.cfi_def_cfa_offset 32
 2495              		.cfi_offset 4, -32
 2496              		.cfi_offset 5, -28
 2497              		.cfi_offset 6, -24
 2498              		.cfi_offset 7, -20
 2499              		.cfi_offset 8, -16
 2500              		.cfi_offset 9, -12
 2501              		.cfi_offset 10, -8
 2502              		.cfi_offset 14, -4
 2503              		.loc 1 973 0
 2504 0004 8246     		mov	r10, r0
 2505              		.loc 1 967 0
 2506 0006 82B0     		sub	sp, sp, #8
 2507              		.cfi_def_cfa_offset 40
 2508              		.loc 1 973 0
 2509 0008 0028     		cmp	r0, #0
 2510 000a 48D0     		beq	.L285
 2511 000c 0F46     		mov	r7, r1
 2512              		.loc 1 974 0
 2513 000e 0029     		cmp	r1, #0
 2514 0010 53D0     		beq	.L286
 2515              		.loc 1 976 0 discriminator 2
 2516 0012 0389     		ldrh	r3, [r0, #8]
 2517 0014 9342     		cmp	r3, r2
 2518 0016 9046     		mov	r8, r2
 2519              	.LVL298:
 2520 0018 5DD3     		bcc	.L280
 2521              	.LVL299:
 2522              		.loc 1 981 0 discriminator 1
 2523 001a 002A     		cmp	r2, #0
 2524 001c 3AD0     		beq	.L276
 2525              		.loc 1 981 0 is_stmt 0
 2526 001e 1446     		mov	r4, r2
 2527 0020 0026     		movs	r6, #0
 2528              		.loc 1 982 0 is_stmt 1
 2529 0022 DFF8B890 		ldr	r9, .L288
 2530 0026 02E0     		b	.L277
 2531              	.LVL300:
 2532              	.L279:
 2533 0028 BAF1000F 		cmp	r10, #0
 2534 002c 25D0     		beq	.L287
 2535              	.LVL301:
 2536              	.L277:
 2537              		.loc 1 984 0
 2538 002e BAF80A50 		ldrh	r5, [r10, #10]
 2539              		.loc 1 989 0
 2540 0032 DAF80400 		ldr	r0, [r10, #4]
 2541 0036 A542     		cmp	r5, r4
 2542 0038 28BF     		it	cs
 2543 003a 2546     		movcs	r5, r4
 2544              	.LVL302:
 2545              		.loc 1 990 0
 2546 003c 641B     		subs	r4, r4, r5
 2547              		.loc 1 989 0
 2548 003e B919     		adds	r1, r7, r6
 2549 0040 2A46     		mov	r2, r5
ARM GAS  C:\Users\jo\AppData\Local\Temp\ccT06EVW.s 			page 46


 2550              		.loc 1 991 0
 2551 0042 2E44     		add	r6, r6, r5
 2552              		.loc 1 990 0
 2553 0044 A4B2     		uxth	r4, r4
 2554              		.loc 1 989 0
 2555 0046 FFF7FEFF 		bl	memcpy
 2556              	.LVL303:
 2557              		.loc 1 991 0
 2558 004a B6B2     		uxth	r6, r6
 2559              	.LVL304:
 2560              		.loc 1 981 0
 2561 004c DAF800A0 		ldr	r10, [r10]
 2562              	.LVL305:
 2563 0050 002C     		cmp	r4, #0
 2564 0052 E9D1     		bne	.L279
 2565              		.loc 1 993 0
 2566 0054 B045     		cmp	r8, r6
 2567 0056 1DD0     		beq	.L276
 2568              		.loc 1 993 0 is_stmt 0 discriminator 3
 2569 0058 204B     		ldr	r3, .L288
 2570 005a 0093     		str	r3, [sp]
 2571 005c 2049     		ldr	r1, .L288+4
 2572 005e 214A     		ldr	r2, .L288+8
 2573 0060 2148     		ldr	r0, .L288+12
 2574 0062 40F2E133 		movw	r3, #993
 2575 0066 FFF7FEFF 		bl	chprintf.constprop.1
 2576              	.LVL306:
 2577              	.LBB177:
 2578              	.LBB178:
 2579              		.loc 3 414 0 is_stmt 1 discriminator 3
 2580 006a 1E48     		ldr	r0, .L288+8
 2581 006c FFF7FEFF 		bl	chSysHalt
 2582              	.LVL307:
 2583              	.LBE178:
 2584              	.LBE177:
 2585              		.loc 1 994 0 discriminator 3
 2586 0070 2046     		mov	r0, r4
 2587              	.LVL308:
 2588              	.L274:
 2589              		.loc 1 995 0
 2590 0072 40B2     		sxtb	r0, r0
 2591 0074 02B0     		add	sp, sp, #8
 2592              		.cfi_remember_state
 2593              		.cfi_def_cfa_offset 32
 2594              		@ sp needed
 2595 0076 BDE8F087 		pop	{r4, r5, r6, r7, r8, r9, r10, pc}
 2596              	.LVL309:
 2597              	.L287:
 2598              		.cfi_restore_state
 2599              		.loc 1 982 0 discriminator 1
 2600 007a CDF80090 		str	r9, [sp]
 2601 007e 1849     		ldr	r1, .L288+4
 2602 0080 1A4A     		ldr	r2, .L288+16
 2603 0082 1948     		ldr	r0, .L288+12
 2604 0084 40F2D633 		movw	r3, #982
 2605 0088 FFF7FEFF 		bl	chprintf.constprop.1
 2606              	.LVL310:
ARM GAS  C:\Users\jo\AppData\Local\Temp\ccT06EVW.s 			page 47


 2607              	.LBB179:
 2608              	.LBB180:
 2609              		.loc 3 414 0 discriminator 1
 2610 008c 1748     		ldr	r0, .L288+16
 2611 008e FFF7FEFF 		bl	chSysHalt
 2612              	.LVL311:
 2613 0092 CCE7     		b	.L277
 2614              	.LVL312:
 2615              	.L276:
 2616              	.LBE180:
 2617              	.LBE179:
 2618              		.loc 1 994 0
 2619 0094 0020     		movs	r0, #0
 2620              		.loc 1 995 0
 2621 0096 40B2     		sxtb	r0, r0
 2622 0098 02B0     		add	sp, sp, #8
 2623              		.cfi_remember_state
 2624              		.cfi_def_cfa_offset 32
 2625              		@ sp needed
 2626 009a BDE8F087 		pop	{r4, r5, r6, r7, r8, r9, r10, pc}
 2627              	.LVL313:
 2628              	.L285:
 2629              		.cfi_restore_state
 2630              		.loc 1 973 0 discriminator 1
 2631 009e 0F4B     		ldr	r3, .L288
 2632 00a0 0093     		str	r3, [sp]
 2633 00a2 0F49     		ldr	r1, .L288+4
 2634              	.LVL314:
 2635 00a4 124A     		ldr	r2, .L288+20
 2636              	.LVL315:
 2637 00a6 1048     		ldr	r0, .L288+12
 2638              	.LVL316:
 2639 00a8 40F2CD33 		movw	r3, #973
 2640 00ac FFF7FEFF 		bl	chprintf.constprop.1
 2641              	.LVL317:
 2642              	.LBB181:
 2643              	.LBB182:
 2644              		.loc 3 414 0 discriminator 1
 2645 00b0 0F48     		ldr	r0, .L288+20
 2646 00b2 FFF7FEFF 		bl	chSysHalt
 2647              	.LVL318:
 2648              	.LBE182:
 2649              	.LBE181:
 2650              		.loc 1 973 0 discriminator 1
 2651 00b6 5046     		mov	r0, r10
 2652 00b8 DBE7     		b	.L274
 2653              	.LVL319:
 2654              	.L286:
 2655              		.loc 1 974 0 discriminator 1
 2656 00ba 084B     		ldr	r3, .L288
 2657 00bc 0093     		str	r3, [sp]
 2658 00be 0849     		ldr	r1, .L288+4
 2659              	.LVL320:
 2660 00c0 0C4A     		ldr	r2, .L288+24
 2661              	.LVL321:
 2662 00c2 0948     		ldr	r0, .L288+12
 2663              	.LVL322:
ARM GAS  C:\Users\jo\AppData\Local\Temp\ccT06EVW.s 			page 48


 2664 00c4 40F2CE33 		movw	r3, #974
 2665 00c8 FFF7FEFF 		bl	chprintf.constprop.1
 2666              	.LVL323:
 2667              	.LBB183:
 2668              	.LBB184:
 2669              		.loc 3 414 0 discriminator 1
 2670 00cc 0948     		ldr	r0, .L288+24
 2671 00ce FFF7FEFF 		bl	chSysHalt
 2672              	.LVL324:
 2673              	.LBE184:
 2674              	.LBE183:
 2675              		.loc 1 974 0 discriminator 1
 2676 00d2 3846     		mov	r0, r7
 2677 00d4 CDE7     		b	.L274
 2678              	.LVL325:
 2679              	.L280:
 2680              		.loc 1 977 0
 2681 00d6 F220     		movs	r0, #242
 2682              	.LVL326:
 2683 00d8 CBE7     		b	.L274
 2684              	.L289:
 2685 00da 00BF     		.align	2
 2686              	.L288:
 2687 00dc 4C000000 		.word	.LC2
 2688 00e0 00000000 		.word	.LC0
 2689 00e4 18040000 		.word	.LC34
 2690 00e8 00000000 		.word	itm_port
 2691 00ec 00040000 		.word	.LC33
 2692 00f0 CC030000 		.word	.LC31
 2693 00f4 E4030000 		.word	.LC32
 2694              		.cfi_endproc
 2695              	.LFE271:
 2696              		.size	pbuf_take, .-pbuf_take
 2697 00f8 AFF30080 		.section	.text.pbuf_coalesce,"ax",%progbits
 2697      AFF30080 
 2698              		.align	2
 2699              		.p2align 4,,15
 2700              		.global	pbuf_coalesce
 2701              		.thumb
 2702              		.thumb_func
 2703              		.type	pbuf_coalesce, %function
 2704              	pbuf_coalesce:
 2705              	.LFB272:
 2706              		.loc 1 1011 0
 2707              		.cfi_startproc
 2708              		@ args = 0, pretend = 0, frame = 0
 2709              		@ frame_needed = 0, uses_anonymous_args = 0
 2710              	.LVL327:
 2711 0000 30B5     		push	{r4, r5, lr}
 2712              		.cfi_def_cfa_offset 12
 2713              		.cfi_offset 4, -12
 2714              		.cfi_offset 5, -8
 2715              		.cfi_offset 14, -4
 2716              		.loc 1 1014 0
 2717 0002 0368     		ldr	r3, [r0]
 2718              		.loc 1 1011 0
 2719 0004 83B0     		sub	sp, sp, #12
ARM GAS  C:\Users\jo\AppData\Local\Temp\ccT06EVW.s 			page 49


 2720              		.cfi_def_cfa_offset 24
 2721              		.loc 1 1011 0
 2722 0006 0446     		mov	r4, r0
 2723              		.loc 1 1014 0
 2724 0008 83B1     		cbz	r3, .L293
 2725              		.loc 1 1017 0
 2726 000a 0846     		mov	r0, r1
 2727              	.LVL328:
 2728 000c 0022     		movs	r2, #0
 2729 000e 2189     		ldrh	r1, [r4, #8]
 2730              	.LVL329:
 2731 0010 FFF7FEFF 		bl	pbuf_alloc
 2732              	.LVL330:
 2733              		.loc 1 1018 0
 2734 0014 0546     		mov	r5, r0
 2735 0016 48B1     		cbz	r0, .L293
 2736              		.loc 1 1022 0
 2737 0018 2146     		mov	r1, r4
 2738 001a FFF7FEFF 		bl	pbuf_copy
 2739              	.LVL331:
 2740              		.loc 1 1023 0
 2741 001e 40B9     		cbnz	r0, .L302
 2742              	.LVL332:
 2743              	.L294:
 2744              		.loc 1 1024 0
 2745 0020 2046     		mov	r0, r4
 2746 0022 FFF7FEFF 		bl	pbuf_free
 2747              	.LVL333:
 2748              		.loc 1 1025 0
 2749 0026 2846     		mov	r0, r5
 2750              		.loc 1 1026 0
 2751 0028 03B0     		add	sp, sp, #12
 2752              		.cfi_remember_state
 2753              		.cfi_def_cfa_offset 12
 2754              		@ sp needed
 2755 002a 30BD     		pop	{r4, r5, pc}
 2756              	.LVL334:
 2757              	.L293:
 2758              		.cfi_restore_state
 2759              		.loc 1 1011 0
 2760 002c 2046     		mov	r0, r4
 2761              		.loc 1 1026 0
 2762 002e 03B0     		add	sp, sp, #12
 2763              		.cfi_remember_state
 2764              		.cfi_def_cfa_offset 12
 2765              		@ sp needed
 2766 0030 30BD     		pop	{r4, r5, pc}
 2767              	.LVL335:
 2768              	.L302:
 2769              		.cfi_restore_state
 2770              		.loc 1 1023 0 discriminator 1
 2771 0032 064B     		ldr	r3, .L303
 2772 0034 0093     		str	r3, [sp]
 2773 0036 0649     		ldr	r1, .L303+4
 2774 0038 064A     		ldr	r2, .L303+8
 2775 003a 0748     		ldr	r0, .L303+12
 2776              	.LVL336:
ARM GAS  C:\Users\jo\AppData\Local\Temp\ccT06EVW.s 			page 50


 2777 003c 40F2FF33 		movw	r3, #1023
 2778 0040 FFF7FEFF 		bl	chprintf.constprop.1
 2779              	.LVL337:
 2780              	.LBB185:
 2781              	.LBB186:
 2782              		.loc 3 414 0 discriminator 1
 2783 0044 0348     		ldr	r0, .L303+8
 2784 0046 FFF7FEFF 		bl	chSysHalt
 2785              	.LVL338:
 2786 004a E9E7     		b	.L294
 2787              	.L304:
 2788              		.align	2
 2789              	.L303:
 2790 004c 4C000000 		.word	.LC2
 2791 0050 00000000 		.word	.LC0
 2792 0054 30040000 		.word	.LC35
 2793 0058 00000000 		.word	itm_port
 2794              	.LBE186:
 2795              	.LBE185:
 2796              		.cfi_endproc
 2797              	.LFE272:
 2798              		.size	pbuf_coalesce, .-pbuf_coalesce
 2799 005c AFF30080 		.section	.text.pbuf_get_at,"ax",%progbits
 2800              		.align	2
 2801              		.p2align 4,,15
 2802              		.global	pbuf_get_at
 2803              		.thumb
 2804              		.thumb_func
 2805              		.type	pbuf_get_at, %function
 2806              	pbuf_get_at:
 2807              	.LFB273:
 2808              		.loc 1 1078 0
 2809              		.cfi_startproc
 2810              		@ args = 0, pretend = 0, frame = 0
 2811              		@ frame_needed = 0, uses_anonymous_args = 0
 2812              		@ link register save eliminated.
 2813              	.LVL339:
 2814              		.loc 1 1083 0
 2815 0000 58B1     		cbz	r0, .L312
 2816 0002 4389     		ldrh	r3, [r0, #10]
 2817 0004 9942     		cmp	r1, r3
 2818 0006 03D2     		bcs	.L308
 2819 0008 08E0     		b	.L307
 2820              	.LVL340:
 2821              	.L313:
 2822              		.loc 1 1083 0 is_stmt 0 discriminator 1
 2823 000a 4389     		ldrh	r3, [r0, #10]
 2824 000c 8B42     		cmp	r3, r1
 2825 000e 05D8     		bhi	.L307
 2826              	.L308:
 2827              		.loc 1 1085 0 is_stmt 1
 2828 0010 0068     		ldr	r0, [r0]
 2829              	.LVL341:
 2830              		.loc 1 1084 0
 2831 0012 C91A     		subs	r1, r1, r3
 2832              	.LVL342:
 2833 0014 89B2     		uxth	r1, r1
ARM GAS  C:\Users\jo\AppData\Local\Temp\ccT06EVW.s 			page 51


 2834              	.LVL343:
 2835              		.loc 1 1083 0
 2836 0016 0028     		cmp	r0, #0
 2837 0018 F7D1     		bne	.L313
 2838              	.L312:
 2839              		.loc 1 1092 0
 2840 001a 7047     		bx	lr
 2841              	.L307:
 2842              		.loc 1 1089 0
 2843 001c 4368     		ldr	r3, [r0, #4]
 2844 001e 585C     		ldrb	r0, [r3, r1]	@ zero_extendqisi2
 2845              	.LVL344:
 2846              		.loc 1 1092 0
 2847 0020 7047     		bx	lr
 2848              		.cfi_endproc
 2849              	.LFE273:
 2850              		.size	pbuf_get_at, .-pbuf_get_at
 2851 0022 00BFAFF3 		.section	.text.pbuf_memcmp,"ax",%progbits
 2851      0080AFF3 
 2851      0080AFF3 
 2851      0080
 2852              		.align	2
 2853              		.p2align 4,,15
 2854              		.global	pbuf_memcmp
 2855              		.thumb
 2856              		.thumb_func
 2857              		.type	pbuf_memcmp, %function
 2858              	pbuf_memcmp:
 2859              	.LFB274:
 2860              		.loc 1 1105 0
 2861              		.cfi_startproc
 2862              		@ args = 0, pretend = 0, frame = 0
 2863              		@ frame_needed = 0, uses_anonymous_args = 0
 2864              	.LVL345:
 2865              		.loc 1 1110 0
 2866 0000 0028     		cmp	r0, #0
 2867 0002 3AD0     		beq	.L325
 2868              		.loc 1 1105 0
 2869 0004 F0B5     		push	{r4, r5, r6, r7, lr}
 2870              		.cfi_def_cfa_offset 20
 2871              		.cfi_offset 4, -20
 2872              		.cfi_offset 5, -16
 2873              		.cfi_offset 6, -12
 2874              		.cfi_offset 7, -8
 2875              		.cfi_offset 14, -4
 2876              		.loc 1 1110 0
 2877 0006 4489     		ldrh	r4, [r0, #10]
 2878 0008 A142     		cmp	r1, r4
 2879 000a 03D2     		bcs	.L317
 2880 000c 0AE0     		b	.L316
 2881              	.LVL346:
 2882              	.L335:
 2883              		.loc 1 1110 0 is_stmt 0 discriminator 1
 2884 000e 4489     		ldrh	r4, [r0, #10]
 2885 0010 8C42     		cmp	r4, r1
 2886 0012 07D8     		bhi	.L316
 2887              	.L317:
ARM GAS  C:\Users\jo\AppData\Local\Temp\ccT06EVW.s 			page 52


 2888              		.loc 1 1112 0 is_stmt 1
 2889 0014 0068     		ldr	r0, [r0]
 2890              	.LVL347:
 2891              		.loc 1 1111 0
 2892 0016 0C1B     		subs	r4, r1, r4
 2893 0018 A1B2     		uxth	r1, r4
 2894              	.LVL348:
 2895              		.loc 1 1110 0
 2896 001a 0028     		cmp	r0, #0
 2897 001c F7D1     		bne	.L335
 2898              		.loc 1 1126 0
 2899 001e 4FF6FF70 		movw	r0, #65535
 2900              	.LVL349:
 2901 0022 F0BD     		pop	{r4, r5, r6, r7, pc}
 2902              	.LVL350:
 2903              	.L316:
 2904              	.LBB187:
 2905              		.loc 1 1117 0
 2906 0024 63B3     		cbz	r3, .L328
 2907 0026 4FF0000E 		mov	lr, #0
 2908 002a 02F1FF3C 		add	ip, r2, #-1
 2909 002e 7746     		mov	r7, lr
 2910              	.LVL351:
 2911              	.L323:
 2912 0030 CC19     		adds	r4, r1, r7
 2913 0032 A4B2     		uxth	r4, r4
 2914              	.LVL352:
 2915 0034 0246     		mov	r2, r0
 2916              	.LVL353:
 2917              	.L318:
 2918              	.LBB188:
 2919              	.LBB189:
 2920              	.LBB190:
 2921              		.loc 1 1083 0
 2922 0036 5589     		ldrh	r5, [r2, #10]
 2923 0038 A542     		cmp	r5, r4
 2924              		.loc 1 1084 0
 2925 003a A4EB0506 		sub	r6, r4, r5
 2926              		.loc 1 1083 0
 2927 003e 0FD8     		bhi	.L336
 2928              		.loc 1 1085 0
 2929 0040 1268     		ldr	r2, [r2]
 2930              	.LVL354:
 2931              		.loc 1 1084 0
 2932 0042 B4B2     		uxth	r4, r6
 2933              	.LVL355:
 2934              		.loc 1 1083 0
 2935 0044 002A     		cmp	r2, #0
 2936 0046 F6D1     		bne	.L318
 2937              	.LVL356:
 2938              	.L319:
 2939              	.LBE190:
 2940              	.LBE189:
 2941              		.loc 1 1120 0
 2942 0048 1CF8014F 		ldrb	r4, [ip, #1]!	@ zero_extendqisi2
 2943              	.LVL357:
 2944 004c 9442     		cmp	r4, r2
ARM GAS  C:\Users\jo\AppData\Local\Temp\ccT06EVW.s 			page 53


 2945 004e 0ED1     		bne	.L337
 2946              	.LVL358:
 2947              	.L322:
 2948 0050 0EF1010E 		add	lr, lr, #1
 2949              	.LVL359:
 2950              	.LBE188:
 2951              		.loc 1 1117 0 discriminator 2
 2952 0054 1FFA8EF7 		uxth	r7, lr
 2953              	.LVL360:
 2954 0058 BB42     		cmp	r3, r7
 2955 005a E9D8     		bhi	.L323
 2956              		.loc 1 1124 0
 2957 005c 0020     		movs	r0, #0
 2958              	.LVL361:
 2959 005e F0BD     		pop	{r4, r5, r6, r7, pc}
 2960              	.LVL362:
 2961              	.L336:
 2962              	.LBB197:
 2963              	.LBB194:
 2964              	.LBB191:
 2965              		.loc 1 1088 0
 2966 0060 AC42     		cmp	r4, r5
 2967 0062 07D3     		bcc	.L324
 2968              	.LBE191:
 2969              	.LBE194:
 2970              		.loc 1 1120 0
 2971 0064 1CF8014F 		ldrb	r4, [ip, #1]!	@ zero_extendqisi2
 2972              	.LVL363:
 2973              	.LBB195:
 2974              	.LBB192:
 2975              		.loc 1 1091 0
 2976 0068 0022     		movs	r2, #0
 2977              	.LVL364:
 2978              	.LBE192:
 2979              	.LBE195:
 2980              		.loc 1 1120 0
 2981 006a 9442     		cmp	r4, r2
 2982 006c F0D0     		beq	.L322
 2983              	.L337:
 2984              		.loc 1 1121 0
 2985 006e 0137     		adds	r7, r7, #1
 2986              	.LVL365:
 2987 0070 B8B2     		uxth	r0, r7
 2988              	.LVL366:
 2989 0072 F0BD     		pop	{r4, r5, r6, r7, pc}
 2990              	.LVL367:
 2991              	.L324:
 2992              	.LBB196:
 2993              	.LBB193:
 2994              		.loc 1 1089 0
 2995 0074 5268     		ldr	r2, [r2, #4]
 2996              	.LVL368:
 2997 0076 125D     		ldrb	r2, [r2, r4]	@ zero_extendqisi2
 2998 0078 E6E7     		b	.L319
 2999              	.LVL369:
 3000              	.L325:
 3001              		.cfi_def_cfa_offset 0
ARM GAS  C:\Users\jo\AppData\Local\Temp\ccT06EVW.s 			page 54


 3002              		.cfi_restore 4
 3003              		.cfi_restore 5
 3004              		.cfi_restore 6
 3005              		.cfi_restore 7
 3006              		.cfi_restore 14
 3007              	.LBE193:
 3008              	.LBE196:
 3009              	.LBE197:
 3010              	.LBE187:
 3011              		.loc 1 1126 0
 3012 007a 4FF6FF70 		movw	r0, #65535
 3013              	.LVL370:
 3014              		.loc 1 1127 0
 3015 007e 7047     		bx	lr
 3016              	.LVL371:
 3017              	.L328:
 3018              		.cfi_def_cfa_offset 20
 3019              		.cfi_offset 4, -20
 3020              		.cfi_offset 5, -16
 3021              		.cfi_offset 6, -12
 3022              		.cfi_offset 7, -8
 3023              		.cfi_offset 14, -4
 3024              	.LBB198:
 3025              		.loc 1 1124 0
 3026 0080 1846     		mov	r0, r3
 3027              	.LVL372:
 3028 0082 F0BD     		pop	{r4, r5, r6, r7, pc}
 3029              	.LBE198:
 3030              		.cfi_endproc
 3031              	.LFE274:
 3032              		.size	pbuf_memcmp, .-pbuf_memcmp
 3033 0084 AFF30080 		.section	.text.pbuf_memfind,"ax",%progbits
 3033      AFF30080 
 3033      AFF30080 
 3034              		.align	2
 3035              		.p2align 4,,15
 3036              		.global	pbuf_memfind
 3037              		.thumb
 3038              		.thumb_func
 3039              		.type	pbuf_memfind, %function
 3040              	pbuf_memfind:
 3041              	.LFB275:
 3042              		.loc 1 1141 0
 3043              		.cfi_startproc
 3044              		@ args = 0, pretend = 0, frame = 0
 3045              		@ frame_needed = 0, uses_anonymous_args = 0
 3046              	.LVL373:
 3047 0000 2DE9F041 		push	{r4, r5, r6, r7, r8, lr}
 3048              		.cfi_def_cfa_offset 24
 3049              		.cfi_offset 4, -24
 3050              		.cfi_offset 5, -20
 3051              		.cfi_offset 6, -16
 3052              		.cfi_offset 7, -12
 3053              		.cfi_offset 8, -8
 3054              		.cfi_offset 14, -4
 3055              		.loc 1 1143 0
 3056 0004 0589     		ldrh	r5, [r0, #8]
ARM GAS  C:\Users\jo\AppData\Local\Temp\ccT06EVW.s 			page 55


 3057              	.LVL374:
 3058              		.loc 1 1141 0
 3059 0006 1C46     		mov	r4, r3
 3060              		.loc 1 1144 0
 3061 0008 D318     		adds	r3, r2, r3
 3062              	.LVL375:
 3063 000a 9D42     		cmp	r5, r3
 3064              		.loc 1 1141 0
 3065 000c 0746     		mov	r7, r0
 3066 000e 1646     		mov	r6, r2
 3067              		.loc 1 1144 0
 3068 0010 03DA     		bge	.L346
 3069              	.LVL376:
 3070              	.L342:
 3071              		.loc 1 1154 0
 3072 0012 4FF6FF70 		movw	r0, #65535
 3073 0016 BDE8F081 		pop	{r4, r5, r6, r7, r8, pc}
 3074              	.LVL377:
 3075              	.L346:
 3076              		.loc 1 1143 0 discriminator 1
 3077 001a AD1A     		subs	r5, r5, r2
 3078              	.LVL378:
 3079 001c ADB2     		uxth	r5, r5
 3080              	.LVL379:
 3081              		.loc 1 1145 0 discriminator 1
 3082 001e A542     		cmp	r5, r4
 3083 0020 8846     		mov	r8, r1
 3084 0022 03D2     		bcs	.L340
 3085 0024 F5E7     		b	.L342
 3086              	.LVL380:
 3087              	.L347:
 3088              	.LBB199:
 3089              		.loc 1 1150 0
 3090 0026 9CB2     		uxth	r4, r3
 3091              	.LVL381:
 3092              	.LBE199:
 3093              		.loc 1 1145 0
 3094 0028 A542     		cmp	r5, r4
 3095 002a F2D3     		bcc	.L342
 3096              	.LVL382:
 3097              	.L340:
 3098              	.LBB200:
 3099              		.loc 1 1146 0
 3100 002c 3346     		mov	r3, r6
 3101 002e 3846     		mov	r0, r7
 3102 0030 2146     		mov	r1, r4
 3103 0032 4246     		mov	r2, r8
 3104 0034 FFF7FEFF 		bl	pbuf_memcmp
 3105              	.LVL383:
 3106              		.loc 1 1150 0
 3107 0038 0319     		adds	r3, r0, r4
 3108              		.loc 1 1147 0
 3109 003a 0028     		cmp	r0, #0
 3110 003c F3D1     		bne	.L347
 3111              		.loc 1 1148 0
 3112 003e 2046     		mov	r0, r4
 3113              	.LVL384:
ARM GAS  C:\Users\jo\AppData\Local\Temp\ccT06EVW.s 			page 56


 3114              	.LBE200:
 3115              		.loc 1 1155 0
 3116 0040 BDE8F081 		pop	{r4, r5, r6, r7, r8, pc}
 3117              		.cfi_endproc
 3118              	.LFE275:
 3119              		.size	pbuf_memfind, .-pbuf_memfind
 3120 0044 AFF30080 		.section	.text.pbuf_strstr,"ax",%progbits
 3120      AFF30080 
 3120      AFF30080 
 3121              		.align	2
 3122              		.p2align 4,,15
 3123              		.global	pbuf_strstr
 3124              		.thumb
 3125              		.thumb_func
 3126              		.type	pbuf_strstr, %function
 3127              	pbuf_strstr:
 3128              	.LFB276:
 3129              		.loc 1 1169 0
 3130              		.cfi_startproc
 3131              		@ args = 0, pretend = 0, frame = 0
 3132              		@ frame_needed = 0, uses_anonymous_args = 0
 3133              	.LVL385:
 3134              		.loc 1 1171 0
 3135 0000 09B1     		cbz	r1, .L350
 3136              		.loc 1 1171 0 is_stmt 0 discriminator 1
 3137 0002 0B78     		ldrb	r3, [r1]	@ zero_extendqisi2
 3138 0004 1BB9     		cbnz	r3, .L355
 3139              	.L350:
 3140              		.loc 1 1172 0 is_stmt 1
 3141 0006 4FF6FF73 		movw	r3, #65535
 3142              		.loc 1 1179 0
 3143 000a 1846     		mov	r0, r3
 3144              	.LVL386:
 3145 000c 7047     		bx	lr
 3146              	.LVL387:
 3147              	.L355:
 3148              		.loc 1 1171 0 discriminator 2
 3149 000e 0389     		ldrh	r3, [r0, #8]
 3150              		.loc 1 1169 0 discriminator 2
 3151 0010 70B5     		push	{r4, r5, r6, lr}
 3152              		.cfi_def_cfa_offset 16
 3153              		.cfi_offset 4, -16
 3154              		.cfi_offset 5, -12
 3155              		.cfi_offset 6, -8
 3156              		.cfi_offset 14, -4
 3157              		.loc 1 1171 0 discriminator 2
 3158 0012 4FF6FF76 		movw	r6, #65535
 3159 0016 B342     		cmp	r3, r6
 3160 0018 0AD0     		beq	.L349
 3161 001a 0546     		mov	r5, r0
 3162              		.loc 1 1174 0
 3163 001c 0846     		mov	r0, r1
 3164              	.LVL388:
 3165 001e 0C46     		mov	r4, r1
 3166 0020 FFF7FEFF 		bl	strlen
 3167              	.LVL389:
 3168              		.loc 1 1175 0
ARM GAS  C:\Users\jo\AppData\Local\Temp\ccT06EVW.s 			page 57


 3169 0024 4FF6FE73 		movw	r3, #65534
 3170 0028 9842     		cmp	r0, r3
 3171              		.loc 1 1174 0
 3172 002a 0246     		mov	r2, r0
 3173              	.LVL390:
 3174              		.loc 1 1175 0
 3175 002c 02D9     		bls	.L356
 3176              		.loc 1 1172 0
 3177 002e 3346     		mov	r3, r6
 3178              	.LVL391:
 3179              	.L349:
 3180              		.loc 1 1179 0
 3181 0030 1846     		mov	r0, r3
 3182 0032 70BD     		pop	{r4, r5, r6, pc}
 3183              	.LVL392:
 3184              	.L356:
 3185              		.loc 1 1178 0
 3186 0034 2846     		mov	r0, r5
 3187              	.LVL393:
 3188 0036 2146     		mov	r1, r4
 3189 0038 92B2     		uxth	r2, r2
 3190              	.LVL394:
 3191 003a 0023     		movs	r3, #0
 3192              		.loc 1 1179 0
 3193 003c BDE87040 		pop	{r4, r5, r6, lr}
 3194              		.cfi_restore 14
 3195              		.cfi_restore 6
 3196              		.cfi_restore 5
 3197              		.cfi_restore 4
 3198              		.cfi_def_cfa_offset 0
 3199              	.LVL395:
 3200              		.loc 1 1178 0
 3201 0040 FFF7FEBF 		b	pbuf_memfind
 3202              	.LVL396:
 3203              		.cfi_endproc
 3204              	.LFE276:
 3205              		.size	pbuf_strstr, .-pbuf_strstr
 3206              		.global	pbuf_free_ooseq_pending
 3207 0044 AFF30080 		.section	.rodata.str1.4,"aMS",%progbits,1
 3207      AFF30080 
 3207      AFF30080 
 3208              		.align	2
 3209              	.LC0:
 3210 0000 41737365 		.ascii	"Assertion \"%s\" failed at line %d in %s\012\000"
 3210      7274696F 
 3210      6E202225 
 3210      73222066 
 3210      61696C65 
 3211              	.LC1:
 3212 0028 70627566 		.ascii	"pbuf_alloced_custom: bad pbuf layer\000"
 3212      5F616C6C 
 3212      6F636564 
 3212      5F637573 
 3212      746F6D3A 
 3213              	.LC2:
 3214 004c 2E2E2F2E 		.ascii	"../../../os/ext/lwip-1.4.1/src/core/pbuf.c\000"
 3214      2E2F2E2E 
ARM GAS  C:\Users\jo\AppData\Local\Temp\ccT06EVW.s 			page 58


 3214      2F6F732F 
 3214      6578742F 
 3214      6C776970 
 3215 0077 00       		.space	1
 3216              	.LC3:
 3217 0078 7020213D 		.ascii	"p != NULL\000"
 3217      204E554C 
 3217      4C00
 3218 0082 0000     		.space	2
 3219              	.LC4:
 3220 0084 696E6372 		.ascii	"increment_magnitude <= p->len\000"
 3220      656D656E 
 3220      745F6D61 
 3220      676E6974 
 3220      75646520 
 3221 00a2 0000     		.space	2
 3222              	.LC5:
 3223 00a4 62616420 		.ascii	"bad pbuf type\000"
 3223      70627566 
 3223      20747970 
 3223      6500
 3224 00b2 0000     		.space	2
 3225              	.LC6:
 3226 00b4 70627566 		.ascii	"pbuf_free: sane type\000"
 3226      5F667265 
 3226      653A2073 
 3226      616E6520 
 3226      74797065 
 3227 00c9 000000   		.space	3
 3228              	.LC7:
 3229 00cc 70627566 		.ascii	"pbuf_free: p->ref > 0\000"
 3229      5F667265 
 3229      653A2070 
 3229      2D3E7265 
 3229      66203E20 
 3230 00e2 0000     		.space	2
 3231              	.LC8:
 3232 00e4 70632D3E 		.ascii	"pc->custom_free_function != NULL\000"
 3232      63757374 
 3232      6F6D5F66 
 3232      7265655F 
 3232      66756E63 
 3233 0105 000000   		.space	3
 3234              	.LC9:
 3235 0108 70627566 		.ascii	"pbuf_alloc: bad pbuf layer\000"
 3235      5F616C6C 
 3235      6F633A20 
 3235      62616420 
 3235      70627566 
 3236 0123 00       		.space	1
 3237              	.LC10:
 3238 0124 63686563 		.ascii	"check p->payload + p->len does not overflow pbuf\000"
 3238      6B20702D 
 3238      3E706179 
 3238      6C6F6164 
 3238      202B2070 
 3239 0155 000000   		.space	3
ARM GAS  C:\Users\jo\AppData\Local\Temp\ccT06EVW.s 			page 59


 3240              	.LC11:
 3241 0158 72656D5F 		.ascii	"rem_len < max_u16_t\000"
 3241      6C656E20 
 3241      3C206D61 
 3241      785F7531 
 3241      365F7400 
 3242              	.LC12:
 3243 016c 70627566 		.ascii	"pbuf_alloc: pbuf q->payload properly aligned\000"
 3243      5F616C6C 
 3243      6F633A20 
 3243      70627566 
 3243      20712D3E 
 3244 0199 000000   		.space	3
 3245              	.LC13:
 3246 019c 70627566 		.ascii	"pbuf_alloc: erroneous type\000"
 3246      5F616C6C 
 3246      6F633A20 
 3246      6572726F 
 3246      6E656F75 
 3247 01b7 00       		.space	1
 3248              	.LC14:
 3249 01b8 70627566 		.ascii	"pbuf_realloc: p != NULL\000"
 3249      5F726561 
 3249      6C6C6F63 
 3249      3A207020 
 3249      213D204E 
 3250              	.LC15:
 3251 01d0 70627566 		.ascii	"pbuf_realloc: sane p->type\000"
 3251      5F726561 
 3251      6C6C6F63 
 3251      3A207361 
 3251      6E652070 
 3252 01eb 00       		.space	1
 3253              	.LC16:
 3254 01ec 67726F77 		.ascii	"grow < max_u16_t\000"
 3254      203C206D 
 3254      61785F75 
 3254      31365F74 
 3254      00
 3255 01fd 000000   		.space	3
 3256              	.LC17:
 3257 0200 70627566 		.ascii	"pbuf_realloc: q != NULL\000"
 3257      5F726561 
 3257      6C6C6F63 
 3257      3A207120 
 3257      213D204E 
 3258              	.LC18:
 3259 0218 6D656D5F 		.ascii	"mem_trim returned q == NULL\000"
 3259      7472696D 
 3259      20726574 
 3259      75726E65 
 3259      64207120 
 3260              	.LC19:
 3261 0234 28682021 		.ascii	"(h != NULL) && (t != NULL) (programmer violates API"
 3261      3D204E55 
 3261      4C4C2920 
 3261      26262028 
ARM GAS  C:\Users\jo\AppData\Local\Temp\ccT06EVW.s 			page 60


 3261      7420213D 
 3262 0267 2900     		.ascii	")\000"
 3263 0269 000000   		.space	3
 3264              	.LC20:
 3265 026c 702D3E74 		.ascii	"p->tot_len == p->len (of last pbuf in chain)\000"
 3265      6F745F6C 
 3265      656E203D 
 3265      3D20702D 
 3265      3E6C656E 
 3266 0299 000000   		.space	3
 3267              	.LC21:
 3268 029c 702D3E6E 		.ascii	"p->next == NULL\000"
 3268      65787420 
 3268      3D3D204E 
 3268      554C4C00 
 3269              	.LC22:
 3270 02ac 702D3E74 		.ascii	"p->tot_len == p->len + q->tot_len\000"
 3270      6F745F6C 
 3270      656E203D 
 3270      3D20702D 
 3270      3E6C656E 
 3271 02ce 0000     		.space	2
 3272              	.LC23:
 3273 02d0 702D3E74 		.ascii	"p->tot_len == p->len\000"
 3273      6F745F6C 
 3273      656E203D 
 3273      3D20702D 
 3273      3E6C656E 
 3274 02e5 000000   		.space	3
 3275              	.LC24:
 3276 02e8 70627566 		.ascii	"pbuf_copy: target not big enough to hold source\000"
 3276      5F636F70 
 3276      793A2074 
 3276      61726765 
 3276      74206E6F 
 3277              	.LC25:
 3278 0318 6F666673 		.ascii	"offset_to <= p_to->len\000"
 3278      65745F74 
 3278      6F203C3D 
 3278      20705F74 
 3278      6F2D3E6C 
 3279 032f 00       		.space	1
 3280              	.LC26:
 3281 0330 6F666673 		.ascii	"offset_from <= p_from->len\000"
 3281      65745F66 
 3281      726F6D20 
 3281      3C3D2070 
 3281      5F66726F 
 3282 034b 00       		.space	1
 3283              	.LC27:
 3284 034c 705F746F 		.ascii	"p_to != NULL\000"
 3284      20213D20 
 3284      4E554C4C 
 3284      00
 3285 0359 000000   		.space	3
 3286              	.LC28:
 3287 035c 70627566 		.ascii	"pbuf_copy() does not allow packet queues!\012\000"
ARM GAS  C:\Users\jo\AppData\Local\Temp\ccT06EVW.s 			page 61


 3287      5F636F70 
 3287      79282920 
 3287      646F6573 
 3287      206E6F74 
 3288 0387 00       		.space	1
 3289              	.LC29:
 3290 0388 70627566 		.ascii	"pbuf_copy_partial: invalid buf\000"
 3290      5F636F70 
 3290      795F7061 
 3290      72746961 
 3290      6C3A2069 
 3291 03a7 00       		.space	1
 3292              	.LC30:
 3293 03a8 70627566 		.ascii	"pbuf_copy_partial: invalid dataptr\000"
 3293      5F636F70 
 3293      795F7061 
 3293      72746961 
 3293      6C3A2069 
 3294 03cb 00       		.space	1
 3295              	.LC31:
 3296 03cc 70627566 		.ascii	"pbuf_take: invalid buf\000"
 3296      5F74616B 
 3296      653A2069 
 3296      6E76616C 
 3296      69642062 
 3297 03e3 00       		.space	1
 3298              	.LC32:
 3299 03e4 70627566 		.ascii	"pbuf_take: invalid dataptr\000"
 3299      5F74616B 
 3299      653A2069 
 3299      6E76616C 
 3299      69642064 
 3300 03ff 00       		.space	1
 3301              	.LC33:
 3302 0400 70627566 		.ascii	"pbuf_take: invalid pbuf\000"
 3302      5F74616B 
 3302      653A2069 
 3302      6E76616C 
 3302      69642070 
 3303              	.LC34:
 3304 0418 64696420 		.ascii	"did not copy all data\000"
 3304      6E6F7420 
 3304      636F7079 
 3304      20616C6C 
 3304      20646174 
 3305 042e 0000     		.space	2
 3306              	.LC35:
 3307 0430 70627566 		.ascii	"pbuf_copy failed\000"
 3307      5F636F70 
 3307      79206661 
 3307      696C6564 
 3307      00
 3308 0441 000000   		.section	.bss.pbuf_free_ooseq_pending,"aw",%nobits
 3309              		.set	.LANCHOR0,. + 0
 3310              		.type	pbuf_free_ooseq_pending, %object
 3311              		.size	pbuf_free_ooseq_pending, 1
 3312              	pbuf_free_ooseq_pending:
ARM GAS  C:\Users\jo\AppData\Local\Temp\ccT06EVW.s 			page 62


 3313 0000 00       		.space	1
 3314              		.text
 3315              	.Letext0:
 3316              		.file 4 "c:\\program files\\gnu tools arm embedded\\4.9 2014q4\\lib\\gcc\\arm-none-eabi\\4.9.3\\in
 3317              		.file 5 "c:\\program files\\gnu tools arm embedded\\4.9 2014q4\\arm-none-eabi\\include\\machine\\_
 3318              		.file 6 "c:\\program files\\gnu tools arm embedded\\4.9 2014q4\\arm-none-eabi\\include\\stdint.h"
 3319              		.file 7 "../../../os/rt/ports/ARMCMx/compilers/GCC/chtypes.h"
 3320              		.file 8 "../../../os/rt/include/chsystypes.h"
 3321              		.file 9 "../../../os/rt/include/chschd.h"
 3322              		.file 10 "../../../os/rt/ports/ARMCMx/chcore.h"
 3323              		.file 11 "../../../os/rt/ports/ARMCMx/chcore_v7m.h"
 3324              		.file 12 "c:\\program files\\gnu tools arm embedded\\4.9 2014q4\\lib\\gcc\\arm-none-eabi\\4.9.3\\i
 3325              		.file 13 "<built-in>"
 3326              		.file 14 "../../../os/rt/include/chtm.h"
 3327              		.file 15 "../../../os/rt/include/chmtx.h"
 3328              		.file 16 "../../../os/rt/include/chstreams.h"
 3329              		.file 17 "./ITM_trace.h"
 3330              		.file 18 "../../../os/various/lwip_bindings/arch/cc.h"
 3331              		.file 19 "../../../os/ext/lwip-1.4.1/src/include/lwip/mem.h"
 3332              		.file 20 "../../../os/ext/lwip-1.4.1/src/include/lwip/memp.h"
 3333              		.file 21 "../../../os/ext/lwip-1.4.1/src/include/lwip/err.h"
 3334              		.file 22 "../../../os/ext/lwip-1.4.1/src/include/lwip/pbuf.h"
 3335              		.file 23 "../../../os/ext/lwip-1.4.1/src/include/ipv4/lwip/ip_addr.h"
 3336              		.file 24 "../../../os/ext/lwip-1.4.1/src/include/lwip/tcp.h"
 3337              		.file 25 "../../../os/ext/lwip-1.4.1/src/include/lwip/tcp_impl.h"
 3338              		.file 26 "../../../os/ext/lwip-1.4.1/src/include/lwip/tcpip.h"
 3339              		.file 27 "../../../os/ext/CMSIS/include/core_cm4.h"
 3340              		.file 28 "../../../os/rt/include/chsys.h"
 3341              		.file 29 "c:\\program files\\gnu tools arm embedded\\4.9 2014q4\\arm-none-eabi\\include\\string.h"