ARM GAS  C:\Users\jo\AppData\Local\Temp\cc5Gtjn4.s 			page 1


   1              		.syntax unified
   2              		.cpu cortex-m4
   3              		.eabi_attribute 27, 3
   4              		.eabi_attribute 28, 1
   5              		.fpu fpv4-sp-d16
   6              		.eabi_attribute 20, 1
   7              		.eabi_attribute 21, 1
   8              		.eabi_attribute 23, 3
   9              		.eabi_attribute 24, 1
  10              		.eabi_attribute 25, 1
  11              		.eabi_attribute 26, 1
  12              		.eabi_attribute 30, 2
  13              		.eabi_attribute 34, 1
  14              		.eabi_attribute 18, 4
  15              		.thumb
  16              		.file	"portserial_m.c"
  17              		.text
  18              	.Ltext0:
  19              		.cfi_sections	.debug_frame
  20              		.section	.text.txend1,"ax",%progbits
  21              		.align	2
  22              		.p2align 4,,15
  23              		.thumb
  24              		.thumb_func
  25              		.type	txend1, %function
  26              	txend1:
  27              	.LFB261:
  28              		.file 1 "FreeModbus/port/rtt/portserial_m.c"
  29              		.loc 1 145 0
  30              		.cfi_startproc
  31              		@ args = 0, pretend = 0, frame = 0
  32              		@ frame_needed = 0, uses_anonymous_args = 0
  33              		@ link register save eliminated.
  34              	.LVL0:
  35              		.loc 1 150 0
  36 0000 014B     		ldr	r3, .L2
  37 0002 1B68     		ldr	r3, [r3]
  38 0004 1847     		bx	r3
  39              	.LVL1:
  40              	.L3:
  41 0006 00BF     		.align	2
  42              	.L2:
  43 0008 00000000 		.word	pxMBMasterFrameCBTransmitterEmpty
  44              		.cfi_endproc
  45              	.LFE261:
  46              		.size	txend1, .-txend1
  47 000c AFF30080 		.section	.text.rxchar,"ax",%progbits
  48              		.align	2
  49              		.p2align 4,,15
  50              		.thumb
  51              		.thumb_func
  52              		.type	rxchar, %function
  53              	rxchar:
  54              	.LFB262:
  55              		.loc 1 159 0
  56              		.cfi_startproc
  57              		@ args = 0, pretend = 0, frame = 0
ARM GAS  C:\Users\jo\AppData\Local\Temp\cc5Gtjn4.s 			page 2


  58              		@ frame_needed = 0, uses_anonymous_args = 0
  59              		@ link register save eliminated.
  60              	.LVL2:
  61              		.loc 1 165 0
  62 0000 014B     		ldr	r3, .L5
  63 0002 1B68     		ldr	r3, [r3]
  64 0004 1847     		bx	r3
  65              	.LVL3:
  66              	.L6:
  67 0006 00BF     		.align	2
  68              	.L5:
  69 0008 00000000 		.word	pxMBMasterFrameCBByteReceived
  70              		.cfi_endproc
  71              	.LFE262:
  72              		.size	rxchar, .-rxchar
  73 000c AFF30080 		.section	.text.chprintf.constprop.1,"ax",%progbits
  74              		.align	2
  75              		.p2align 4,,15
  76              		.thumb
  77              		.thumb_func
  78              		.type	chprintf.constprop.1, %function
  79              	chprintf.constprop.1:
  80              	.LFB265:
  81              		.file 2 "../../../os/hal/lib/streams/chprintf.h"
  82              		.loc 2 69 0
  83              		.cfi_startproc
  84              		@ args = 4, pretend = 12, frame = 8
  85              		@ frame_needed = 0, uses_anonymous_args = 1
  86              	.LVL4:
  87 0000 0EB4     		push	{r1, r2, r3}
  88              		.cfi_def_cfa_offset 12
  89              		.cfi_offset 1, -12
  90              		.cfi_offset 2, -8
  91              		.cfi_offset 3, -4
  92 0002 00B5     		push	{lr}
  93              		.cfi_def_cfa_offset 16
  94              		.cfi_offset 14, -16
  95 0004 82B0     		sub	sp, sp, #8
  96              		.cfi_def_cfa_offset 24
  97              		.loc 2 73 0
  98 0006 04AB     		add	r3, sp, #16
  99              		.loc 2 74 0
 100 0008 1A46     		mov	r2, r3
 101 000a 0549     		ldr	r1, .L9
 102 000c 0548     		ldr	r0, .L9+4
 103              	.LVL5:
 104              		.loc 2 73 0
 105 000e 0193     		str	r3, [sp, #4]
 106              		.loc 2 74 0
 107 0010 FFF7FEFF 		bl	chvprintf
 108              	.LVL6:
 109              		.loc 2 78 0
 110 0014 02B0     		add	sp, sp, #8
 111              		.cfi_def_cfa_offset 16
 112              		@ sp needed
 113 0016 5DF804EB 		ldr	lr, [sp], #4
 114              		.cfi_restore 14
ARM GAS  C:\Users\jo\AppData\Local\Temp\cc5Gtjn4.s 			page 3


 115              		.cfi_def_cfa_offset 12
 116 001a 03B0     		add	sp, sp, #12
 117              		.cfi_restore 3
 118              		.cfi_restore 2
 119              		.cfi_restore 1
 120              		.cfi_def_cfa_offset 0
 121 001c 7047     		bx	lr
 122              	.L10:
 123 001e 00BF     		.align	2
 124              	.L9:
 125 0020 00000000 		.word	.LC0
 126 0024 00000000 		.word	itm_port
 127              		.cfi_endproc
 128              	.LFE265:
 129              		.size	chprintf.constprop.1, .-chprintf.constprop.1
 130 0028 AFF30080 		.section	.text.rxerr,"ax",%progbits
 130      AFF30080 
 131              		.align	2
 132              		.p2align 4,,15
 133              		.thumb
 134              		.thumb_func
 135              		.type	rxerr, %function
 136              	rxerr:
 137              	.LFB263:
 138              		.loc 1 174 0
 139              		.cfi_startproc
 140              		@ args = 0, pretend = 0, frame = 0
 141              		@ frame_needed = 0, uses_anonymous_args = 0
 142              	.LVL7:
 143              		.loc 1 179 0
 144 0000 CB07     		lsls	r3, r1, #31
 145              		.loc 1 174 0
 146 0002 10B5     		push	{r4, lr}
 147              		.cfi_def_cfa_offset 8
 148              		.cfi_offset 4, -8
 149              		.cfi_offset 14, -4
 150              		.loc 1 174 0
 151 0004 0C46     		mov	r4, r1
 152              		.loc 1 179 0
 153 0006 1FD4     		bmi	.L28
 154              		.loc 1 181 0
 155 0008 8807     		lsls	r0, r1, #30
 156              	.LVL8:
 157 000a 23D4     		bmi	.L29
 158              	.LVL9:
 159              	.L13:
 160              		.loc 1 183 0
 161 000c 6107     		lsls	r1, r4, #29
 162 000e 15D4     		bmi	.L30
 163              	.L14:
 164              		.loc 1 185 0
 165 0010 2207     		lsls	r2, r4, #28
 166 0012 0DD4     		bmi	.L31
 167              	.L15:
 168              		.loc 1 187 0
 169 0014 E306     		lsls	r3, r4, #27
 170              	.LBB4:
ARM GAS  C:\Users\jo\AppData\Local\Temp\cc5Gtjn4.s 			page 4


 171              	.LBB5:
 172              		.loc 1 188 0
 173 0016 1248     		ldr	r0, .L33
 174 0018 1249     		ldr	r1, .L33+4
 175              	.LBE5:
 176              	.LBE4:
 177              		.loc 1 187 0
 178 001a 04D4     		bmi	.L32
 179              		.loc 1 190 0
 180 001c 124A     		ldr	r2, .L33+8
 181              		.loc 1 194 0
 182 001e BDE81040 		pop	{r4, lr}
 183              		.cfi_remember_state
 184              		.cfi_restore 14
 185              		.cfi_restore 4
 186              		.cfi_def_cfa_offset 0
 187              	.LVL10:
 188              		.loc 1 190 0
 189 0022 FFF7FEBF 		b	chprintf.constprop.1
 190              	.LVL11:
 191              	.L32:
 192              		.cfi_restore_state
 193              	.LBB8:
 194              	.LBB6:
 195              		.loc 1 188 0
 196 0026 114A     		ldr	r2, .L33+12
 197              	.LBE6:
 198              	.LBE8:
 199              		.loc 1 194 0
 200 0028 BDE81040 		pop	{r4, lr}
 201              		.cfi_remember_state
 202              		.cfi_restore 14
 203              		.cfi_restore 4
 204              		.cfi_def_cfa_offset 0
 205              	.LVL12:
 206              	.LBB9:
 207              	.LBB7:
 208              		.loc 1 188 0
 209 002c FFF7FEBF 		b	chprintf.constprop.1
 210              	.LVL13:
 211              	.L31:
 212              		.cfi_restore_state
 213              	.LBE7:
 214              	.LBE9:
 215              		.loc 1 186 0
 216 0030 0C49     		ldr	r1, .L33+4
 217 0032 0F4A     		ldr	r2, .L33+16
 218 0034 0A48     		ldr	r0, .L33
 219 0036 FFF7FEFF 		bl	chprintf.constprop.1
 220              	.LVL14:
 221 003a EBE7     		b	.L15
 222              	.L30:
 223              		.loc 1 184 0
 224 003c 0949     		ldr	r1, .L33+4
 225 003e 0D4A     		ldr	r2, .L33+20
 226 0040 0748     		ldr	r0, .L33
 227 0042 FFF7FEFF 		bl	chprintf.constprop.1
ARM GAS  C:\Users\jo\AppData\Local\Temp\cc5Gtjn4.s 			page 5


 228              	.LVL15:
 229 0046 E3E7     		b	.L14
 230              	.LVL16:
 231              	.L28:
 232              		.loc 1 180 0
 233 0048 0649     		ldr	r1, .L33+4
 234              	.LVL17:
 235 004a 0B4A     		ldr	r2, .L33+24
 236 004c 0448     		ldr	r0, .L33
 237              	.LVL18:
 238 004e FFF7FEFF 		bl	chprintf.constprop.1
 239              	.LVL19:
 240 0052 DBE7     		b	.L13
 241              	.LVL20:
 242              	.L29:
 243              		.loc 1 182 0
 244 0054 0349     		ldr	r1, .L33+4
 245              	.LVL21:
 246 0056 094A     		ldr	r2, .L33+28
 247 0058 0148     		ldr	r0, .L33
 248 005a FFF7FEFF 		bl	chprintf.constprop.1
 249              	.LVL22:
 250 005e D5E7     		b	.L13
 251              	.L34:
 252              		.align	2
 253              	.L33:
 254 0060 00000000 		.word	itm_port
 255 0064 00000000 		.word	.LC0
 256 0068 44000000 		.word	.LC6
 257 006c 34000000 		.word	.LC5
 258 0070 28000000 		.word	.LC4
 259 0074 1C000000 		.word	.LC3
 260 0078 04000000 		.word	.LC1
 261 007c 10000000 		.word	.LC2
 262              		.cfi_endproc
 263              	.LFE263:
 264              		.size	rxerr, .-rxerr
 265              		.section	.text.xMBMasterPortSerialInit,"ax",%progbits
 266              		.align	2
 267              		.p2align 4,,15
 268              		.global	xMBMasterPortSerialInit
 269              		.thumb
 270              		.thumb_func
 271              		.type	xMBMasterPortSerialInit, %function
 272              	xMBMasterPortSerialInit:
 273              	.LFB256:
 274              		.loc 1 50 0
 275              		.cfi_startproc
 276              		@ args = 0, pretend = 0, frame = 0
 277              		@ frame_needed = 0, uses_anonymous_args = 0
 278              	.LVL23:
 279 0000 10B5     		push	{r4, lr}
 280              		.cfi_def_cfa_offset 8
 281              		.cfi_offset 4, -8
 282              		.cfi_offset 14, -4
 283              		.loc 1 69 0
 284 0002 054A     		ldr	r2, .L37
ARM GAS  C:\Users\jo\AppData\Local\Temp\cc5Gtjn4.s 			page 6


 285              	.LVL24:
 286              		.loc 1 70 0
 287 0004 054B     		ldr	r3, .L37+4
 288              	.LVL25:
 289 0006 064C     		ldr	r4, .L37+8
 290              		.loc 1 69 0
 291 0008 5161     		str	r1, [r2, #20]
 292              		.loc 1 73 0
 293 000a 1846     		mov	r0, r3
 294              	.LVL26:
 295 000c 1146     		mov	r1, r2
 296              	.LVL27:
 297              		.loc 1 70 0
 298 000e 2360     		str	r3, [r4]
 299              		.loc 1 73 0
 300 0010 FFF7FEFF 		bl	uartStart
 301              	.LVL28:
 302              		.loc 1 76 0
 303 0014 0120     		movs	r0, #1
 304 0016 10BD     		pop	{r4, pc}
 305              	.L38:
 306              		.align	2
 307              	.L37:
 308 0018 00000000 		.word	.LANCHOR0
 309 001c 00000000 		.word	UARTD3
 310 0020 00000000 		.word	.LANCHOR1
 311              		.cfi_endproc
 312              	.LFE256:
 313              		.size	xMBMasterPortSerialInit, .-xMBMasterPortSerialInit
 314 0024 AFF30080 		.section	.text.vMBMasterPortSerialEnable,"ax",%progbits
 314      AFF30080 
 314      AFF30080 
 315              		.align	2
 316              		.p2align 4,,15
 317              		.global	vMBMasterPortSerialEnable
 318              		.thumb
 319              		.thumb_func
 320              		.type	vMBMasterPortSerialEnable, %function
 321              	vMBMasterPortSerialEnable:
 322              	.LFB257:
 323              		.loc 1 79 0
 324              		.cfi_startproc
 325              		@ args = 0, pretend = 0, frame = 0
 326              		@ frame_needed = 0, uses_anonymous_args = 0
 327              	.LVL29:
 328 0000 38B5     		push	{r3, r4, r5, lr}
 329              		.cfi_def_cfa_offset 16
 330              		.cfi_offset 3, -16
 331              		.cfi_offset 4, -12
 332              		.cfi_offset 5, -8
 333              		.cfi_offset 14, -4
 334              		.loc 1 80 0
 335 0002 1B4B     		ldr	r3, .L45
 336 0004 1B68     		ldr	r3, [r3]
 337 0006 9C68     		ldr	r4, [r3, #8]
 338              	.LVL30:
 339              		.loc 1 79 0
ARM GAS  C:\Users\jo\AppData\Local\Temp\cc5Gtjn4.s 			page 7


 340 0008 0D46     		mov	r5, r1
 341              		.loc 1 87 0
 342 000a E368     		ldr	r3, [r4, #12]
 343              		.loc 1 82 0
 344 000c B8B1     		cbz	r0, .L40
 345              		.loc 1 87 0
 346 000e 43F02003 		orr	r3, r3, #32
 347              		.loc 1 88 0
 348 0012 1848     		ldr	r0, .L45+4
 349              	.LVL31:
 350 0014 1849     		ldr	r1, .L45+8
 351              	.LVL32:
 352 0016 194A     		ldr	r2, .L45+12
 353              		.loc 1 87 0
 354 0018 E360     		str	r3, [r4, #12]
 355              		.loc 1 88 0
 356 001a FFF7FEFF 		bl	chprintf.constprop.1
 357              	.LVL33:
 358              		.loc 1 96 0
 359 001e C5B9     		cbnz	r5, .L44
 360              	.L42:
 361              		.loc 1 108 0
 362 0020 E368     		ldr	r3, [r4, #12]
 363              		.loc 1 110 0
 364 0022 1448     		ldr	r0, .L45+4
 365 0024 1449     		ldr	r1, .L45+8
 366 0026 164A     		ldr	r2, .L45+16
 367              		.loc 1 108 0
 368 0028 23F08003 		bic	r3, r3, #128
 369 002c E360     		str	r3, [r4, #12]
 370              		.loc 1 109 0
 371 002e E368     		ldr	r3, [r4, #12]
 372 0030 43F04003 		orr	r3, r3, #64
 373 0034 E360     		str	r3, [r4, #12]
 374              		.loc 1 112 0
 375 0036 BDE83840 		pop	{r3, r4, r5, lr}
 376              		.cfi_remember_state
 377              		.cfi_restore 14
 378              		.cfi_restore 5
 379              		.cfi_restore 4
 380              		.cfi_restore 3
 381              		.cfi_def_cfa_offset 0
 382              	.LVL34:
 383              		.loc 1 110 0
 384 003a FFF7FEBF 		b	chprintf.constprop.1
 385              	.LVL35:
 386              	.L40:
 387              		.cfi_restore_state
 388              		.loc 1 93 0
 389 003e 23F02003 		bic	r3, r3, #32
 390              		.loc 1 94 0
 391 0042 0C48     		ldr	r0, .L45+4
 392              	.LVL36:
 393 0044 0C49     		ldr	r1, .L45+8
 394              	.LVL37:
 395 0046 0F4A     		ldr	r2, .L45+20
 396              		.loc 1 93 0
ARM GAS  C:\Users\jo\AppData\Local\Temp\cc5Gtjn4.s 			page 8


 397 0048 E360     		str	r3, [r4, #12]
 398              		.loc 1 94 0
 399 004a FFF7FEFF 		bl	chprintf.constprop.1
 400              	.LVL38:
 401              		.loc 1 96 0
 402 004e 002D     		cmp	r5, #0
 403 0050 E6D0     		beq	.L42
 404              	.L44:
 405              		.loc 1 99 0
 406 0052 0D4B     		ldr	r3, .L45+24
 407              		.loc 1 103 0
 408 0054 0748     		ldr	r0, .L45+4
 409 0056 0849     		ldr	r1, .L45+8
 410 0058 0C4A     		ldr	r2, .L45+28
 411              		.loc 1 99 0
 412 005a 4FF48075 		mov	r5, #256
 413 005e 1D83     		strh	r5, [r3, #24]	@ movhi
 414              		.loc 1 102 0
 415 0060 E368     		ldr	r3, [r4, #12]
 416 0062 43F08003 		orr	r3, r3, #128
 417 0066 E360     		str	r3, [r4, #12]
 418              		.loc 1 112 0
 419 0068 BDE83840 		pop	{r3, r4, r5, lr}
 420              		.cfi_restore 14
 421              		.cfi_restore 5
 422              		.cfi_restore 4
 423              		.cfi_restore 3
 424              		.cfi_def_cfa_offset 0
 425              	.LVL39:
 426              		.loc 1 103 0
 427 006c FFF7FEBF 		b	chprintf.constprop.1
 428              	.LVL40:
 429              	.L46:
 430              		.align	2
 431              	.L45:
 432 0070 00000000 		.word	.LANCHOR1
 433 0074 00000000 		.word	itm_port
 434 0078 00000000 		.word	.LC0
 435 007c 50000000 		.word	.LC7
 436 0080 80000000 		.word	.LC10
 437 0084 60000000 		.word	.LC8
 438 0088 00180240 		.word	1073879040
 439 008c 70000000 		.word	.LC9
 440              		.cfi_endproc
 441              	.LFE257:
 442              		.size	vMBMasterPortSerialEnable, .-vMBMasterPortSerialEnable
 443              		.section	.text.vMBMasterPortClose,"ax",%progbits
 444              		.align	2
 445              		.p2align 4,,15
 446              		.global	vMBMasterPortClose
 447              		.thumb
 448              		.thumb_func
 449              		.type	vMBMasterPortClose, %function
 450              	vMBMasterPortClose:
 451              	.LFB258:
 452              		.loc 1 115 0
 453              		.cfi_startproc
ARM GAS  C:\Users\jo\AppData\Local\Temp\cc5Gtjn4.s 			page 9


 454              		@ args = 0, pretend = 0, frame = 0
 455              		@ frame_needed = 0, uses_anonymous_args = 0
 456              		@ link register save eliminated.
 457              		.loc 1 116 0
 458 0000 014B     		ldr	r3, .L48
 459 0002 1868     		ldr	r0, [r3]
 460 0004 FFF7FEBF 		b	uartStop
 461              	.LVL41:
 462              	.L49:
 463              		.align	2
 464              	.L48:
 465 0008 00000000 		.word	.LANCHOR1
 466              		.cfi_endproc
 467              	.LFE258:
 468              		.size	vMBMasterPortClose, .-vMBMasterPortClose
 469 000c AFF30080 		.section	.text.xMBMasterPortSerialPutByte,"ax",%progbits
 470              		.align	2
 471              		.p2align 4,,15
 472              		.global	xMBMasterPortSerialPutByte
 473              		.thumb
 474              		.thumb_func
 475              		.type	xMBMasterPortSerialPutByte, %function
 476              	xMBMasterPortSerialPutByte:
 477              	.LFB259:
 478              		.loc 1 120 0
 479              		.cfi_startproc
 480              		@ args = 0, pretend = 0, frame = 0
 481              		@ frame_needed = 0, uses_anonymous_args = 0
 482              		@ link register save eliminated.
 483              	.LVL42:
 484              		.loc 1 121 0
 485 0000 024B     		ldr	r3, .L51
 486 0002 1B68     		ldr	r3, [r3]
 487 0004 9B68     		ldr	r3, [r3, #8]
 488              	.LVL43:
 489              		.loc 1 125 0
 490 0006 5860     		str	r0, [r3, #4]
 491              		.loc 1 128 0
 492 0008 0120     		movs	r0, #1
 493              	.LVL44:
 494 000a 7047     		bx	lr
 495              	.L52:
 496              		.align	2
 497              	.L51:
 498 000c 00000000 		.word	.LANCHOR1
 499              		.cfi_endproc
 500              	.LFE259:
 501              		.size	xMBMasterPortSerialPutByte, .-xMBMasterPortSerialPutByte
 502              		.section	.text.xMBMasterPortSerialGetByte,"ax",%progbits
 503              		.align	2
 504              		.p2align 4,,15
 505              		.global	xMBMasterPortSerialGetByte
 506              		.thumb
 507              		.thumb_func
 508              		.type	xMBMasterPortSerialGetByte, %function
 509              	xMBMasterPortSerialGetByte:
 510              	.LFB260:
ARM GAS  C:\Users\jo\AppData\Local\Temp\cc5Gtjn4.s 			page 10


 511              		.loc 1 131 0
 512              		.cfi_startproc
 513              		@ args = 0, pretend = 0, frame = 0
 514              		@ frame_needed = 0, uses_anonymous_args = 0
 515              		@ link register save eliminated.
 516              	.LVL45:
 517              		.loc 1 132 0
 518 0000 034B     		ldr	r3, .L54
 519 0002 1B68     		ldr	r3, [r3]
 520 0004 9B68     		ldr	r3, [r3, #8]
 521              	.LVL46:
 522              		.loc 1 134 0
 523 0006 5B68     		ldr	r3, [r3, #4]
 524              	.LVL47:
 525 0008 0370     		strb	r3, [r0]
 526              	.LVL48:
 527              		.loc 1 139 0
 528 000a 0120     		movs	r0, #1
 529              	.LVL49:
 530 000c 7047     		bx	lr
 531              	.L55:
 532 000e 00BF     		.align	2
 533              	.L54:
 534 0010 00000000 		.word	.LANCHOR1
 535              		.cfi_endproc
 536              	.LFE260:
 537              		.size	xMBMasterPortSerialGetByte, .-xMBMasterPortSerialGetByte
 538 0014 AFF30080 		.section	.data.uartCfg.8468,"aw",%progbits
 538      AFF30080 
 538      AFF30080 
 539              		.align	2
 540              		.set	.LANCHOR0,. + 0
 541              		.type	uartCfg.8468, %object
 542              		.size	uartCfg.8468, 36
 543              	uartCfg.8468:
 544 0000 00000000 		.word	txend1
 545 0004 00000000 		.word	0
 546 0008 00000000 		.word	0
 547 000c 00000000 		.word	rxchar
 548 0010 00000000 		.word	rxerr
 549 0014 80250000 		.word	9600
 550 0018 00000000 		.word	0
 551 001c 00000000 		.word	0
 552 0020 00000000 		.word	0
 553              		.section	.rodata.str1.4,"aMS",%progbits,1
 554              		.align	2
 555              	.LC0:
 556 0000 25730A00 		.ascii	"%s\012\000"
 557              	.LC1:
 558 0004 70617269 		.ascii	"parity err\000"
 558      74792065 
 558      727200
 559 000f 00       		.space	1
 560              	.LC2:
 561 0010 6672616D 		.ascii	"framing err\000"
 561      696E6720 
 561      65727200 
ARM GAS  C:\Users\jo\AppData\Local\Temp\cc5Gtjn4.s 			page 11


 562              	.LC3:
 563 001c 6E6F6973 		.ascii	"noise err\000"
 563      65206572 
 563      7200
 564 0026 0000     		.space	2
 565              	.LC4:
 566 0028 6F766572 		.ascii	"overrun err\000"
 566      72756E20 
 566      65727200 
 567              	.LC5:
 568 0034 69646C65 		.ascii	"idle line err\000"
 568      206C696E 
 568      65206572 
 568      7200
 569 0042 0000     		.space	2
 570              	.LC6:
 571 0044 75617274 		.ascii	"uart rx err\000"
 571      20727820 
 571      65727200 
 572              	.LC7:
 573 0050 52656365 		.ascii	"Receive Enable\000"
 573      69766520 
 573      456E6162 
 573      6C6500
 574 005f 00       		.space	1
 575              	.LC8:
 576 0060 52656365 		.ascii	"Receive Disable\000"
 576      69766520 
 576      44697361 
 576      626C6500 
 577              	.LC9:
 578 0070 5472616E 		.ascii	"Transmit Enable\000"
 578      736D6974 
 578      20456E61 
 578      626C6500 
 579              	.LC10:
 580 0080 5472616E 		.ascii	"Transmit Disable\000"
 580      736D6974 
 580      20446973 
 580      61626C65 
 580      00
 581 0091 000000   		.section	.bss.serial,"aw",%nobits
 582              		.align	2
 583              		.set	.LANCHOR1,. + 0
 584              		.type	serial, %object
 585              		.size	serial, 4
 586              	serial:
 587 0000 00000000 		.space	4
 588              		.text
 589              	.Letext0:
 590              		.file 3 "c:\\program files\\gnu tools arm embedded\\4.9 2014q4\\lib\\gcc\\arm-none-eabi\\4.9.3\\in
 591              		.file 4 "c:\\program files\\gnu tools arm embedded\\4.9 2014q4\\arm-none-eabi\\include\\machine\\_
 592              		.file 5 "c:\\program files\\gnu tools arm embedded\\4.9 2014q4\\arm-none-eabi\\include\\stdint.h"
 593              		.file 6 "../../../os/rt/ports/ARMCMx/compilers/GCC/chtypes.h"
 594              		.file 7 "../../../os/rt/include/chsystypes.h"
 595              		.file 8 "../../../os/rt/include/chschd.h"
 596              		.file 9 "../../../os/ext/CMSIS/ST/stm32f407xx.h"
ARM GAS  C:\Users\jo\AppData\Local\Temp\cc5Gtjn4.s 			page 12


 597              		.file 10 "../../../os/rt/ports/ARMCMx/chcore.h"
 598              		.file 11 "../../../os/rt/ports/ARMCMx/chcore_v7m.h"
 599              		.file 12 "c:\\program files\\gnu tools arm embedded\\4.9 2014q4\\lib\\gcc\\arm-none-eabi\\4.9.3\\i
 600              		.file 13 "<built-in>"
 601              		.file 14 "../../../os/rt/include/chtm.h"
 602              		.file 15 "../../../os/rt/include/chmtx.h"
 603              		.file 16 "../../../os/rt/include/chstreams.h"
 604              		.file 17 "../../../os/hal/ports/STM32/LLD/GPIOv2/pal_lld.h"
 605              		.file 18 "../../../os/hal/include/uart.h"
 606              		.file 19 "../../../os/hal/ports/STM32/LLD/USARTv1/uart_lld.h"
 607              		.file 20 "./ITM_trace.h"
 608              		.file 21 "FreeModbus/port/port.h"
 609              		.file 22 "FreeModbus/modbus/include/mbport.h"
 610              		.file 23 "../../../os/ext/CMSIS/include/core_cm4.h"