ARM GAS  C:\Users\jo\AppData\Local\Temp\ccBf8mGB.s 			page 1


   1              		.syntax unified
   2              		.cpu cortex-m4
   3              		.eabi_attribute 27, 3
   4              		.eabi_attribute 28, 1
   5              		.fpu fpv4-sp-d16
   6              		.eabi_attribute 20, 1
   7              		.eabi_attribute 21, 1
   8              		.eabi_attribute 23, 3
   9              		.eabi_attribute 24, 1
  10              		.eabi_attribute 25, 1
  11              		.eabi_attribute 26, 1
  12              		.eabi_attribute 30, 2
  13              		.eabi_attribute 34, 1
  14              		.eabi_attribute 18, 4
  15              		.thumb
  16              		.file	"portevent_m.c"
  17              		.text
  18              	.Ltext0:
  19              		.cfi_sections	.debug_frame
  20              		.section	.text.xMBMasterPortEventInit,"ax",%progbits
  21              		.align	2
  22              		.p2align 4,,15
  23              		.global	xMBMasterPortEventInit
  24              		.thumb
  25              		.thumb_func
  26              		.type	xMBMasterPortEventInit, %function
  27              	xMBMasterPortEventInit:
  28              	.LFB256:
  29              		.file 1 "FreeModbus/port/rtt/portevent_m.c"
  30              		.loc 1 38 0
  31              		.cfi_startproc
  32              		@ args = 0, pretend = 0, frame = 0
  33              		@ frame_needed = 0, uses_anonymous_args = 0
  34              		@ link register save eliminated.
  35              		.loc 1 39 0
  36 0000 024B     		ldr	r3, .L2
  37 0002 0022     		movs	r2, #0
  38 0004 1A70     		strb	r2, [r3]
  39              		.loc 1 41 0
  40 0006 0120     		movs	r0, #1
  41 0008 7047     		bx	lr
  42              	.L3:
  43 000a 00BF     		.align	2
  44              	.L2:
  45 000c 00000000 		.word	.LANCHOR0
  46              		.cfi_endproc
  47              	.LFE256:
  48              		.size	xMBMasterPortEventInit, .-xMBMasterPortEventInit
  49              		.section	.text.xMBMasterPortEventPost,"ax",%progbits
  50              		.align	2
  51              		.p2align 4,,15
  52              		.global	xMBMasterPortEventPost
  53              		.thumb
  54              		.thumb_func
  55              		.type	xMBMasterPortEventPost, %function
  56              	xMBMasterPortEventPost:
  57              	.LFB257:
ARM GAS  C:\Users\jo\AppData\Local\Temp\ccBf8mGB.s 			page 2


  58              		.loc 1 45 0
  59              		.cfi_startproc
  60              		@ args = 0, pretend = 0, frame = 0
  61              		@ frame_needed = 0, uses_anonymous_args = 0
  62              		@ link register save eliminated.
  63              	.LVL0:
  64              		.loc 1 47 0
  65 0000 024A     		ldr	r2, .L5
  66              		.loc 1 46 0
  67 0002 034B     		ldr	r3, .L5+4
  68              		.loc 1 47 0
  69 0004 1070     		strb	r0, [r2]
  70              		.loc 1 46 0
  71 0006 0120     		movs	r0, #1
  72              	.LVL1:
  73 0008 1870     		strb	r0, [r3]
  74              		.loc 1 49 0
  75 000a 7047     		bx	lr
  76              	.L6:
  77              		.align	2
  78              	.L5:
  79 000c 00000000 		.word	.LANCHOR1
  80 0010 00000000 		.word	.LANCHOR0
  81              		.cfi_endproc
  82              	.LFE257:
  83              		.size	xMBMasterPortEventPost, .-xMBMasterPortEventPost
  84 0014 AFF30080 		.section	.text.xMBMasterPortEventGet,"ax",%progbits
  84      AFF30080 
  84      AFF30080 
  85              		.align	2
  86              		.p2align 4,,15
  87              		.global	xMBMasterPortEventGet
  88              		.thumb
  89              		.thumb_func
  90              		.type	xMBMasterPortEventGet, %function
  91              	xMBMasterPortEventGet:
  92              	.LFB258:
  93              		.loc 1 53 0
  94              		.cfi_startproc
  95              		@ args = 0, pretend = 0, frame = 0
  96              		@ frame_needed = 0, uses_anonymous_args = 0
  97              		@ link register save eliminated.
  98              	.LVL2:
  99              		.loc 1 56 0
 100 0000 054A     		ldr	r2, .L11
 101 0002 1378     		ldrb	r3, [r2]	@ zero_extendqisi2
 102 0004 33B1     		cbz	r3, .L9
 103              		.loc 1 58 0
 104 0006 0549     		ldr	r1, .L11+4
 105              		.loc 1 59 0
 106 0008 0023     		movs	r3, #0
 107              		.loc 1 58 0
 108 000a 0978     		ldrb	r1, [r1]	@ zero_extendqisi2
 109 000c 0180     		strh	r1, [r0]	@ movhi
 110              		.loc 1 59 0
 111 000e 1370     		strb	r3, [r2]
 112              	.LVL3:
ARM GAS  C:\Users\jo\AppData\Local\Temp\ccBf8mGB.s 			page 3


 113              		.loc 1 60 0
 114 0010 0120     		movs	r0, #1
 115              	.LVL4:
 116 0012 7047     		bx	lr
 117              	.LVL5:
 118              	.L9:
 119              		.loc 1 54 0
 120 0014 1846     		mov	r0, r3
 121              	.LVL6:
 122              		.loc 1 63 0
 123 0016 7047     		bx	lr
 124              	.L12:
 125              		.align	2
 126              	.L11:
 127 0018 00000000 		.word	.LANCHOR0
 128 001c 00000000 		.word	.LANCHOR1
 129              		.cfi_endproc
 130              	.LFE258:
 131              		.size	xMBMasterPortEventGet, .-xMBMasterPortEventGet
 132              		.section	.text.vMBMasterOsResInit,"ax",%progbits
 133              		.align	2
 134              		.p2align 4,,15
 135              		.global	vMBMasterOsResInit
 136              		.thumb
 137              		.thumb_func
 138              		.type	vMBMasterOsResInit, %function
 139              	vMBMasterOsResInit:
 140              	.LFB259:
 141              		.loc 1 70 0
 142              		.cfi_startproc
 143              		@ args = 0, pretend = 0, frame = 0
 144              		@ frame_needed = 0, uses_anonymous_args = 0
 145              		@ link register save eliminated.
 146              		.loc 1 71 0
 147 0000 014B     		ldr	r3, .L14
 148 0002 0122     		movs	r2, #1
 149 0004 1A70     		strb	r2, [r3]
 150 0006 7047     		bx	lr
 151              	.L15:
 152              		.align	2
 153              	.L14:
 154 0008 00000000 		.word	.LANCHOR2
 155              		.cfi_endproc
 156              	.LFE259:
 157              		.size	vMBMasterOsResInit, .-vMBMasterOsResInit
 158 000c AFF30080 		.section	.text.xMBMasterRunResTake,"ax",%progbits
 159              		.align	2
 160              		.p2align 4,,15
 161              		.global	xMBMasterRunResTake
 162              		.thumb
 163              		.thumb_func
 164              		.type	xMBMasterRunResTake, %function
 165              	xMBMasterRunResTake:
 166              	.LFB260:
 167              		.loc 1 83 0
 168              		.cfi_startproc
 169              		@ args = 0, pretend = 0, frame = 0
ARM GAS  C:\Users\jo\AppData\Local\Temp\ccBf8mGB.s 			page 4


 170              		@ frame_needed = 0, uses_anonymous_args = 0
 171              		@ link register save eliminated.
 172              	.LVL7:
 173              		.loc 1 86 0
 174 0000 014B     		ldr	r3, .L17
 175              		.loc 1 87 0
 176 0002 1878     		ldrb	r0, [r3]	@ zero_extendqisi2
 177              	.LVL8:
 178 0004 7047     		bx	lr
 179              	.L18:
 180 0006 00BF     		.align	2
 181              	.L17:
 182 0008 00000000 		.word	.LANCHOR2
 183              		.cfi_endproc
 184              	.LFE260:
 185              		.size	xMBMasterRunResTake, .-xMBMasterRunResTake
 186 000c AFF30080 		.section	.text.xMBMasterRunResLock,"ax",%progbits
 187              		.align	2
 188              		.p2align 4,,15
 189              		.global	xMBMasterRunResLock
 190              		.thumb
 191              		.thumb_func
 192              		.type	xMBMasterRunResLock, %function
 193              	xMBMasterRunResLock:
 194              	.LFB261:
 195              		.loc 1 89 0
 196              		.cfi_startproc
 197              		@ args = 0, pretend = 0, frame = 0
 198              		@ frame_needed = 0, uses_anonymous_args = 0
 199              		@ link register save eliminated.
 200              		.loc 1 91 0
 201 0000 014B     		ldr	r3, .L20
 202 0002 0022     		movs	r2, #0
 203 0004 1A70     		strb	r2, [r3]
 204 0006 7047     		bx	lr
 205              	.L21:
 206              		.align	2
 207              	.L20:
 208 0008 00000000 		.word	.LANCHOR2
 209              		.cfi_endproc
 210              	.LFE261:
 211              		.size	xMBMasterRunResLock, .-xMBMasterRunResLock
 212 000c AFF30080 		.section	.text.vMBMasterRunResRelease,"ax",%progbits
 213              		.align	2
 214              		.p2align 4,,15
 215              		.global	vMBMasterRunResRelease
 216              		.thumb
 217              		.thumb_func
 218              		.type	vMBMasterRunResRelease, %function
 219              	vMBMasterRunResRelease:
 220              	.LFB262:
 221              		.loc 1 100 0
 222              		.cfi_startproc
 223              		@ args = 0, pretend = 0, frame = 0
 224              		@ frame_needed = 0, uses_anonymous_args = 0
 225              		@ link register save eliminated.
 226              		.loc 1 102 0
ARM GAS  C:\Users\jo\AppData\Local\Temp\ccBf8mGB.s 			page 5


 227 0000 014B     		ldr	r3, .L23
 228 0002 0122     		movs	r2, #1
 229 0004 1A70     		strb	r2, [r3]
 230 0006 7047     		bx	lr
 231              	.L24:
 232              		.align	2
 233              	.L23:
 234 0008 00000000 		.word	.LANCHOR2
 235              		.cfi_endproc
 236              	.LFE262:
 237              		.size	vMBMasterRunResRelease, .-vMBMasterRunResRelease
 238 000c AFF30080 		.section	.text.vMBMasterErrorCBRespondTimeout,"ax",%progbits
 239              		.align	2
 240              		.p2align 4,,15
 241              		.global	vMBMasterErrorCBRespondTimeout
 242              		.thumb
 243              		.thumb_func
 244              		.type	vMBMasterErrorCBRespondTimeout, %function
 245              	vMBMasterErrorCBRespondTimeout:
 246              	.LFB263:
 247              		.loc 1 116 0
 248              		.cfi_startproc
 249              		@ args = 0, pretend = 0, frame = 0
 250              		@ frame_needed = 0, uses_anonymous_args = 0
 251              		@ link register save eliminated.
 252              	.LVL9:
 253              	.LBB12:
 254              	.LBB13:
 255              		.loc 1 46 0
 256 0000 0349     		ldr	r1, .L26
 257              	.LVL10:
 258              		.loc 1 47 0
 259 0002 044B     		ldr	r3, .L26+4
 260              		.loc 1 46 0
 261 0004 0120     		movs	r0, #1
 262              	.LVL11:
 263              		.loc 1 47 0
 264 0006 4022     		movs	r2, #64
 265              	.LVL12:
 266              		.loc 1 46 0
 267 0008 0870     		strb	r0, [r1]
 268              		.loc 1 47 0
 269 000a 1A70     		strb	r2, [r3]
 270 000c 7047     		bx	lr
 271              	.L27:
 272 000e 00BF     		.align	2
 273              	.L26:
 274 0010 00000000 		.word	.LANCHOR0
 275 0014 00000000 		.word	.LANCHOR1
 276              	.LBE13:
 277              	.LBE12:
 278              		.cfi_endproc
 279              	.LFE263:
 280              		.size	vMBMasterErrorCBRespondTimeout, .-vMBMasterErrorCBRespondTimeout
 281 0018 AFF30080 		.section	.text.vMBMasterErrorCBReceiveData,"ax",%progbits
 281      AFF30080 
 282              		.align	2
ARM GAS  C:\Users\jo\AppData\Local\Temp\ccBf8mGB.s 			page 6


 283              		.p2align 4,,15
 284              		.global	vMBMasterErrorCBReceiveData
 285              		.thumb
 286              		.thumb_func
 287              		.type	vMBMasterErrorCBReceiveData, %function
 288              	vMBMasterErrorCBReceiveData:
 289              	.LFB264:
 290              		.loc 1 139 0
 291              		.cfi_startproc
 292              		@ args = 0, pretend = 0, frame = 0
 293              		@ frame_needed = 0, uses_anonymous_args = 0
 294              		@ link register save eliminated.
 295              	.LVL13:
 296              	.LBB14:
 297              	.LBB15:
 298              		.loc 1 46 0
 299 0000 0349     		ldr	r1, .L29
 300              	.LVL14:
 301              		.loc 1 47 0
 302 0002 044B     		ldr	r3, .L29+4
 303              		.loc 1 46 0
 304 0004 0120     		movs	r0, #1
 305              	.LVL15:
 306              		.loc 1 47 0
 307 0006 8022     		movs	r2, #128
 308              	.LVL16:
 309              		.loc 1 46 0
 310 0008 0870     		strb	r0, [r1]
 311              		.loc 1 47 0
 312 000a 1A70     		strb	r2, [r3]
 313 000c 7047     		bx	lr
 314              	.L30:
 315 000e 00BF     		.align	2
 316              	.L29:
 317 0010 00000000 		.word	.LANCHOR0
 318 0014 00000000 		.word	.LANCHOR1
 319              	.LBE15:
 320              	.LBE14:
 321              		.cfi_endproc
 322              	.LFE264:
 323              		.size	vMBMasterErrorCBReceiveData, .-vMBMasterErrorCBReceiveData
 324 0018 AFF30080 		.section	.text.vMBMasterErrorCBExecuteFunction,"ax",%progbits
 324      AFF30080 
 325              		.align	2
 326              		.p2align 4,,15
 327              		.global	vMBMasterErrorCBExecuteFunction
 328              		.thumb
 329              		.thumb_func
 330              		.type	vMBMasterErrorCBExecuteFunction, %function
 331              	vMBMasterErrorCBExecuteFunction:
 332              	.LFB265:
 333              		.loc 1 162 0
 334              		.cfi_startproc
 335              		@ args = 0, pretend = 0, frame = 0
 336              		@ frame_needed = 0, uses_anonymous_args = 0
 337              		@ link register save eliminated.
 338              	.LVL17:
ARM GAS  C:\Users\jo\AppData\Local\Temp\ccBf8mGB.s 			page 7


 339              	.LBB16:
 340              	.LBB17:
 341              		.loc 1 46 0
 342 0000 0349     		ldr	r1, .L32
 343              	.LVL18:
 344              		.loc 1 47 0
 345 0002 044B     		ldr	r3, .L32+4
 346              		.loc 1 46 0
 347 0004 0120     		movs	r0, #1
 348              	.LVL19:
 349              		.loc 1 47 0
 350 0006 0022     		movs	r2, #0
 351              	.LVL20:
 352              		.loc 1 46 0
 353 0008 0870     		strb	r0, [r1]
 354              		.loc 1 47 0
 355 000a 1A70     		strb	r2, [r3]
 356 000c 7047     		bx	lr
 357              	.L33:
 358 000e 00BF     		.align	2
 359              	.L32:
 360 0010 00000000 		.word	.LANCHOR0
 361 0014 00000000 		.word	.LANCHOR1
 362              	.LBE17:
 363              	.LBE16:
 364              		.cfi_endproc
 365              	.LFE265:
 366              		.size	vMBMasterErrorCBExecuteFunction, .-vMBMasterErrorCBExecuteFunction
 367 0018 AFF30080 		.section	.text.vMBMasterCBRequestScuuess,"ax",%progbits
 367      AFF30080 
 368              		.align	2
 369              		.p2align 4,,15
 370              		.global	vMBMasterCBRequestScuuess
 371              		.thumb
 372              		.thumb_func
 373              		.type	vMBMasterCBRequestScuuess, %function
 374              	vMBMasterCBRequestScuuess:
 375              	.LFB266:
 376              		.loc 1 180 0
 377              		.cfi_startproc
 378              		@ args = 0, pretend = 0, frame = 0
 379              		@ frame_needed = 0, uses_anonymous_args = 0
 380              		@ link register save eliminated.
 381              	.LVL21:
 382              	.LBB18:
 383              	.LBB19:
 384              		.loc 1 46 0
 385 0000 0349     		ldr	r1, .L35
 386              		.loc 1 47 0
 387 0002 044B     		ldr	r3, .L35+4
 388              		.loc 1 46 0
 389 0004 0120     		movs	r0, #1
 390              		.loc 1 47 0
 391 0006 2022     		movs	r2, #32
 392              		.loc 1 46 0
 393 0008 0870     		strb	r0, [r1]
 394              		.loc 1 47 0
ARM GAS  C:\Users\jo\AppData\Local\Temp\ccBf8mGB.s 			page 8


 395 000a 1A70     		strb	r2, [r3]
 396 000c 7047     		bx	lr
 397              	.L36:
 398 000e 00BF     		.align	2
 399              	.L35:
 400 0010 00000000 		.word	.LANCHOR0
 401 0014 00000000 		.word	.LANCHOR1
 402              	.LBE19:
 403              	.LBE18:
 404              		.cfi_endproc
 405              	.LFE266:
 406              		.size	vMBMasterCBRequestScuuess, .-vMBMasterCBRequestScuuess
 407 0018 AFF30080 		.section	.text.eMBMasterWaitRequestFinish,"ax",%progbits
 407      AFF30080 
 408              		.align	2
 409              		.p2align 4,,15
 410              		.global	eMBMasterWaitRequestFinish
 411              		.thumb
 412              		.thumb_func
 413              		.type	eMBMasterWaitRequestFinish, %function
 414              	eMBMasterWaitRequestFinish:
 415              	.LFB267:
 416              		.loc 1 201 0
 417              		.cfi_startproc
 418              		@ args = 0, pretend = 0, frame = 0
 419              		@ frame_needed = 0, uses_anonymous_args = 0
 420              		@ link register save eliminated.
 421              	.LVL22:
 422              	.LBB20:
 423              	.LBB21:
 424              		.loc 1 56 0
 425 0000 074A     		ldr	r2, .L46
 426 0002 1178     		ldrb	r1, [r2]	@ zero_extendqisi2
 427 0004 19B1     		cbz	r1, .L38
 428              		.loc 1 58 0
 429 0006 074B     		ldr	r3, .L46+4
 430              		.loc 1 59 0
 431 0008 0021     		movs	r1, #0
 432              		.loc 1 58 0
 433 000a 1B78     		ldrb	r3, [r3]	@ zero_extendqisi2
 434              	.LVL23:
 435              		.loc 1 59 0
 436 000c 1170     		strb	r1, [r2]
 437              	.LVL24:
 438              	.L38:
 439              	.LBE21:
 440              	.LBE20:
 441              		.loc 1 207 0
 442 000e 402B     		cmp	r3, #64
 443 0010 04D0     		beq	.L40
 444              		.loc 1 202 0
 445 0012 802B     		cmp	r3, #128
 446 0014 0CBF     		ite	eq
 447 0016 0320     		moveq	r0, #3
 448 0018 0020     		movne	r0, #0
 449 001a 7047     		bx	lr
 450              	.L40:
ARM GAS  C:\Users\jo\AppData\Local\Temp\ccBf8mGB.s 			page 9


 451              		.loc 1 213 0
 452 001c 0420     		movs	r0, #4
 453              	.LVL25:
 454              		.loc 1 228 0
 455 001e 7047     		bx	lr
 456              	.L47:
 457              		.align	2
 458              	.L46:
 459 0020 00000000 		.word	.LANCHOR0
 460 0024 00000000 		.word	.LANCHOR1
 461              		.cfi_endproc
 462              	.LFE267:
 463              		.size	eMBMasterWaitRequestFinish, .-eMBMasterWaitRequestFinish
 464 0028 AFF30080 		.section	.bss.xEventInQueue,"aw",%nobits
 464      AFF30080 
 465              		.set	.LANCHOR0,. + 0
 466              		.type	xEventInQueue, %object
 467              		.size	xEventInQueue, 1
 468              	xEventInQueue:
 469 0000 00       		.space	1
 470              		.section	.bss.xtNeedPoll,"aw",%nobits
 471              		.set	.LANCHOR2,. + 0
 472              		.type	xtNeedPoll, %object
 473              		.size	xtNeedPoll, 1
 474              	xtNeedPoll:
 475 0000 00       		.space	1
 476              		.section	.bss.eQueuedEvent,"aw",%nobits
 477              		.set	.LANCHOR1,. + 0
 478              		.type	eQueuedEvent, %object
 479              		.size	eQueuedEvent, 1
 480              	eQueuedEvent:
 481 0000 00       		.space	1
 482              		.text
 483              	.Letext0:
 484              		.file 2 "c:\\program files\\gnu tools arm embedded\\4.9 2014q4\\lib\\gcc\\arm-none-eabi\\4.9.3\\in
 485              		.file 3 "c:\\program files\\gnu tools arm embedded\\4.9 2014q4\\arm-none-eabi\\include\\machine\\_
 486              		.file 4 "c:\\program files\\gnu tools arm embedded\\4.9 2014q4\\arm-none-eabi\\include\\stdint.h"
 487              		.file 5 "../../../os/rt/ports/ARMCMx/compilers/GCC/chtypes.h"
 488              		.file 6 "../../../os/rt/include/chsystypes.h"
 489              		.file 7 "../../../os/rt/include/chschd.h"
 490              		.file 8 "../../../os/rt/ports/ARMCMx/chcore.h"
 491              		.file 9 "../../../os/rt/ports/ARMCMx/chcore_v7m.h"
 492              		.file 10 "../../../os/rt/include/chtm.h"
 493              		.file 11 "../../../os/rt/include/chmtx.h"
 494              		.file 12 "FreeModbus/port/port.h"
 495              		.file 13 "FreeModbus/modbus/include/mbport.h"
 496              		.file 14 "FreeModbus/modbus/include/mb_m.h"
 497              		.file 15 "../../../os/ext/CMSIS/include/core_cm4.h"
 498              		.section	.debug_info,"",%progbits
 499              	.Ldebug_info0:
 500 0000 6C0A0000 		.4byte	0xa6c
 501 0004 0400     		.2byte	0x4
 502 0006 00000000 		.4byte	.Ldebug_abbrev0
 503 000a 04       		.byte	0x4
 504 000b 01       		.uleb128 0x1
 505 000c 51030000 		.4byte	.LASF146
 506 0010 01       		.byte	0x1
ARM GAS  C:\Users\jo\AppData\Local\Temp\ccBf8mGB.s 			page 10


 507 0011 8C000000 		.4byte	.LASF147
 508 0015 E6060000 		.4byte	.LASF148
 509 0019 00000000 		.4byte	.Ldebug_ranges0+0
 510 001d 00000000 		.4byte	0
 511 0021 00000000 		.4byte	.Ldebug_line0
 512 0025 02       		.uleb128 0x2
 513 0026 04       		.byte	0x4
 514 0027 05       		.byte	0x5
 515 0028 696E7400 		.ascii	"int\000"
 516 002c 03       		.uleb128 0x3
 517 002d 1B000000 		.4byte	.LASF2
 518 0031 02       		.byte	0x2
 519 0032 D4       		.byte	0xd4
 520 0033 37000000 		.4byte	0x37
 521 0037 04       		.uleb128 0x4
 522 0038 04       		.byte	0x4
 523 0039 07       		.byte	0x7
 524 003a 45020000 		.4byte	.LASF0
 525 003e 04       		.uleb128 0x4
 526 003f 01       		.byte	0x1
 527 0040 06       		.byte	0x6
 528 0041 44010000 		.4byte	.LASF1
 529 0045 03       		.uleb128 0x3
 530 0046 3F000000 		.4byte	.LASF3
 531 004a 03       		.byte	0x3
 532 004b 1D       		.byte	0x1d
 533 004c 50000000 		.4byte	0x50
 534 0050 04       		.uleb128 0x4
 535 0051 01       		.byte	0x1
 536 0052 08       		.byte	0x8
 537 0053 D1050000 		.4byte	.LASF4
 538 0057 04       		.uleb128 0x4
 539 0058 02       		.byte	0x2
 540 0059 05       		.byte	0x5
 541 005a FC050000 		.4byte	.LASF5
 542 005e 03       		.uleb128 0x3
 543 005f 2E070000 		.4byte	.LASF6
 544 0063 03       		.byte	0x3
 545 0064 2B       		.byte	0x2b
 546 0065 69000000 		.4byte	0x69
 547 0069 04       		.uleb128 0x4
 548 006a 02       		.byte	0x2
 549 006b 07       		.byte	0x7
 550 006c C3020000 		.4byte	.LASF7
 551 0070 03       		.uleb128 0x3
 552 0071 3C030000 		.4byte	.LASF8
 553 0075 03       		.byte	0x3
 554 0076 3F       		.byte	0x3f
 555 0077 7B000000 		.4byte	0x7b
 556 007b 04       		.uleb128 0x4
 557 007c 04       		.byte	0x4
 558 007d 05       		.byte	0x5
 559 007e 9D010000 		.4byte	.LASF9
 560 0082 03       		.uleb128 0x3
 561 0083 87070000 		.4byte	.LASF10
 562 0087 03       		.byte	0x3
 563 0088 41       		.byte	0x41
ARM GAS  C:\Users\jo\AppData\Local\Temp\ccBf8mGB.s 			page 11


 564 0089 8D000000 		.4byte	0x8d
 565 008d 04       		.uleb128 0x4
 566 008e 04       		.byte	0x4
 567 008f 07       		.byte	0x7
 568 0090 B2060000 		.4byte	.LASF11
 569 0094 04       		.uleb128 0x4
 570 0095 08       		.byte	0x8
 571 0096 05       		.byte	0x5
 572 0097 36010000 		.4byte	.LASF12
 573 009b 03       		.uleb128 0x3
 574 009c 4F050000 		.4byte	.LASF13
 575 00a0 03       		.byte	0x3
 576 00a1 5B       		.byte	0x5b
 577 00a2 A6000000 		.4byte	0xa6
 578 00a6 04       		.uleb128 0x4
 579 00a7 08       		.byte	0x8
 580 00a8 07       		.byte	0x7
 581 00a9 AE000000 		.4byte	.LASF14
 582 00ad 03       		.uleb128 0x3
 583 00ae 37080000 		.4byte	.LASF15
 584 00b2 04       		.byte	0x4
 585 00b3 15       		.byte	0x15
 586 00b4 45000000 		.4byte	0x45
 587 00b8 03       		.uleb128 0x3
 588 00b9 19030000 		.4byte	.LASF16
 589 00bd 04       		.byte	0x4
 590 00be 21       		.byte	0x21
 591 00bf 5E000000 		.4byte	0x5e
 592 00c3 03       		.uleb128 0x3
 593 00c4 C9050000 		.4byte	.LASF17
 594 00c8 04       		.byte	0x4
 595 00c9 2C       		.byte	0x2c
 596 00ca 70000000 		.4byte	0x70
 597 00ce 03       		.uleb128 0x3
 598 00cf 91060000 		.4byte	.LASF18
 599 00d3 04       		.byte	0x4
 600 00d4 2D       		.byte	0x2d
 601 00d5 82000000 		.4byte	0x82
 602 00d9 03       		.uleb128 0x3
 603 00da 36000000 		.4byte	.LASF19
 604 00de 04       		.byte	0x4
 605 00df 39       		.byte	0x39
 606 00e0 9B000000 		.4byte	0x9b
 607 00e4 05       		.uleb128 0x5
 608 00e5 C3000000 		.4byte	0xc3
 609 00e9 03       		.uleb128 0x3
 610 00ea BF070000 		.4byte	.LASF20
 611 00ee 05       		.byte	0x5
 612 00ef 45       		.byte	0x45
 613 00f0 CE000000 		.4byte	0xce
 614 00f4 03       		.uleb128 0x3
 615 00f5 31060000 		.4byte	.LASF21
 616 00f9 05       		.byte	0x5
 617 00fa 48       		.byte	0x48
 618 00fb AD000000 		.4byte	0xad
 619 00ff 03       		.uleb128 0x3
 620 0100 A6010000 		.4byte	.LASF22
ARM GAS  C:\Users\jo\AppData\Local\Temp\ccBf8mGB.s 			page 12


 621 0104 05       		.byte	0x5
 622 0105 49       		.byte	0x49
 623 0106 AD000000 		.4byte	0xad
 624 010a 03       		.uleb128 0x3
 625 010b 5A050000 		.4byte	.LASF23
 626 010f 05       		.byte	0x5
 627 0110 4A       		.byte	0x4a
 628 0111 AD000000 		.4byte	0xad
 629 0115 03       		.uleb128 0x3
 630 0116 8B050000 		.4byte	.LASF24
 631 011a 05       		.byte	0x5
 632 011b 4C       		.byte	0x4c
 633 011c CE000000 		.4byte	0xce
 634 0120 03       		.uleb128 0x3
 635 0121 EC020000 		.4byte	.LASF25
 636 0125 05       		.byte	0x5
 637 0126 4D       		.byte	0x4d
 638 0127 C3000000 		.4byte	0xc3
 639 012b 03       		.uleb128 0x3
 640 012c 30030000 		.4byte	.LASF26
 641 0130 05       		.byte	0x5
 642 0131 4F       		.byte	0x4f
 643 0132 CE000000 		.4byte	0xce
 644 0136 03       		.uleb128 0x3
 645 0137 69070000 		.4byte	.LASF27
 646 013b 06       		.byte	0x6
 647 013c 33       		.byte	0x33
 648 013d CE000000 		.4byte	0xce
 649 0141 03       		.uleb128 0x3
 650 0142 59070000 		.4byte	.LASF28
 651 0146 06       		.byte	0x6
 652 0147 3F       		.byte	0x3f
 653 0148 4C010000 		.4byte	0x14c
 654 014c 06       		.uleb128 0x6
 655 014d E2020000 		.4byte	.LASF47
 656 0151 44       		.byte	0x44
 657 0152 07       		.byte	0x7
 658 0153 BE       		.byte	0xbe
 659 0154 39020000 		.4byte	0x239
 660 0158 07       		.uleb128 0x7
 661 0159 2A060000 		.4byte	.LASF29
 662 015d 07       		.byte	0x7
 663 015e BF       		.byte	0xbf
 664 015f F5050000 		.4byte	0x5f5
 665 0163 00       		.byte	0
 666 0164 07       		.uleb128 0x7
 667 0165 84050000 		.4byte	.LASF30
 668 0169 07       		.byte	0x7
 669 016a C1       		.byte	0xc1
 670 016b F5050000 		.4byte	0x5f5
 671 016f 04       		.byte	0x4
 672 0170 07       		.uleb128 0x7
 673 0171 21010000 		.4byte	.LASF31
 674 0175 07       		.byte	0x7
 675 0176 C3       		.byte	0xc3
 676 0177 15010000 		.4byte	0x115
 677 017b 08       		.byte	0x8
ARM GAS  C:\Users\jo\AppData\Local\Temp\ccBf8mGB.s 			page 13


 678 017c 07       		.uleb128 0x7
 679 017d C2080000 		.4byte	.LASF32
 680 0181 07       		.byte	0x7
 681 0182 C4       		.byte	0xc4
 682 0183 63040000 		.4byte	0x463
 683 0187 0C       		.byte	0xc
 684 0188 07       		.uleb128 0x7
 685 0189 D4010000 		.4byte	.LASF33
 686 018d 07       		.byte	0x7
 687 018e C6       		.byte	0xc6
 688 018f F5050000 		.4byte	0x5f5
 689 0193 10       		.byte	0x10
 690 0194 07       		.uleb128 0x7
 691 0195 EA040000 		.4byte	.LASF34
 692 0199 07       		.byte	0x7
 693 019a C7       		.byte	0xc7
 694 019b F5050000 		.4byte	0x5f5
 695 019f 14       		.byte	0x14
 696 01a0 07       		.uleb128 0x7
 697 01a1 6A080000 		.4byte	.LASF35
 698 01a5 07       		.byte	0x7
 699 01a6 CE       		.byte	0xce
 700 01a7 CA050000 		.4byte	0x5ca
 701 01ab 18       		.byte	0x18
 702 01ac 07       		.uleb128 0x7
 703 01ad 06060000 		.4byte	.LASF36
 704 01b1 07       		.byte	0x7
 705 01b2 D9       		.byte	0xd9
 706 01b3 FF000000 		.4byte	0xff
 707 01b7 1C       		.byte	0x1c
 708 01b8 07       		.uleb128 0x7
 709 01b9 48060000 		.4byte	.LASF37
 710 01bd 07       		.byte	0x7
 711 01be DD       		.byte	0xdd
 712 01bf F4000000 		.4byte	0xf4
 713 01c3 1D       		.byte	0x1d
 714 01c4 07       		.uleb128 0x7
 715 01c5 07080000 		.4byte	.LASF38
 716 01c9 07       		.byte	0x7
 717 01ca E2       		.byte	0xe2
 718 01cb 0A010000 		.4byte	0x10a
 719 01cf 1E       		.byte	0x1e
 720 01d0 08       		.uleb128 0x8
 721 01d1 705F7500 		.ascii	"p_u\000"
 722 01d5 07       		.byte	0x7
 723 01d6 1401     		.2byte	0x114
 724 01d8 FB050000 		.4byte	0x5fb
 725 01dc 20       		.byte	0x20
 726 01dd 09       		.uleb128 0x9
 727 01de 8B040000 		.4byte	.LASF39
 728 01e2 07       		.byte	0x7
 729 01e3 1901     		.2byte	0x119
 730 01e5 39020000 		.4byte	0x239
 731 01e9 24       		.byte	0x24
 732 01ea 09       		.uleb128 0x9
 733 01eb 7C020000 		.4byte	.LASF40
 734 01ef 07       		.byte	0x7
ARM GAS  C:\Users\jo\AppData\Local\Temp\ccBf8mGB.s 			page 14


 735 01f0 1F01     		.2byte	0x11f
 736 01f2 5D020000 		.4byte	0x25d
 737 01f6 28       		.byte	0x28
 738 01f7 09       		.uleb128 0x9
 739 01f8 8E080000 		.4byte	.LASF41
 740 01fc 07       		.byte	0x7
 741 01fd 2301     		.2byte	0x123
 742 01ff 20010000 		.4byte	0x120
 743 0203 30       		.byte	0x30
 744 0204 09       		.uleb128 0x9
 745 0205 61060000 		.4byte	.LASF42
 746 0209 07       		.byte	0x7
 747 020a 2901     		.2byte	0x129
 748 020c 2B010000 		.4byte	0x12b
 749 0210 34       		.byte	0x34
 750 0211 09       		.uleb128 0x9
 751 0212 F2050000 		.4byte	.LASF43
 752 0216 07       		.byte	0x7
 753 0217 3001     		.2byte	0x130
 754 0219 64060000 		.4byte	0x664
 755 021d 38       		.byte	0x38
 756 021e 09       		.uleb128 0x9
 757 021f 73070000 		.4byte	.LASF44
 758 0223 07       		.byte	0x7
 759 0224 3401     		.2byte	0x134
 760 0226 15010000 		.4byte	0x115
 761 022a 3C       		.byte	0x3c
 762 022b 09       		.uleb128 0x9
 763 022c 50010000 		.4byte	.LASF45
 764 0230 07       		.byte	0x7
 765 0231 3A01     		.2byte	0x13a
 766 0233 10030000 		.4byte	0x310
 767 0237 40       		.byte	0x40
 768 0238 00       		.byte	0
 769 0239 03       		.uleb128 0x3
 770 023a 7F080000 		.4byte	.LASF46
 771 023e 06       		.byte	0x6
 772 023f 44       		.byte	0x44
 773 0240 44020000 		.4byte	0x244
 774 0244 06       		.uleb128 0x6
 775 0245 A2060000 		.4byte	.LASF48
 776 0249 04       		.byte	0x4
 777 024a 07       		.byte	0x7
 778 024b AC       		.byte	0xac
 779 024c 5D020000 		.4byte	0x25d
 780 0250 07       		.uleb128 0x7
 781 0251 2A060000 		.4byte	.LASF29
 782 0255 07       		.byte	0x7
 783 0256 AD       		.byte	0xad
 784 0257 F5050000 		.4byte	0x5f5
 785 025b 00       		.byte	0
 786 025c 00       		.byte	0
 787 025d 03       		.uleb128 0x3
 788 025e F0070000 		.4byte	.LASF49
 789 0262 06       		.byte	0x6
 790 0263 4B       		.byte	0x4b
 791 0264 68020000 		.4byte	0x268
ARM GAS  C:\Users\jo\AppData\Local\Temp\ccBf8mGB.s 			page 15


 792 0268 06       		.uleb128 0x6
 793 0269 FC000000 		.4byte	.LASF50
 794 026d 08       		.byte	0x8
 795 026e 07       		.byte	0x7
 796 026f B3       		.byte	0xb3
 797 0270 8D020000 		.4byte	0x28d
 798 0274 07       		.uleb128 0x7
 799 0275 2A060000 		.4byte	.LASF29
 800 0279 07       		.byte	0x7
 801 027a B4       		.byte	0xb4
 802 027b F5050000 		.4byte	0x5f5
 803 027f 00       		.byte	0
 804 0280 07       		.uleb128 0x7
 805 0281 84050000 		.4byte	.LASF30
 806 0285 07       		.byte	0x7
 807 0286 B5       		.byte	0xb5
 808 0287 F5050000 		.4byte	0x5f5
 809 028b 04       		.byte	0x4
 810 028c 00       		.byte	0
 811 028d 03       		.uleb128 0x3
 812 028e 0E000000 		.4byte	.LASF51
 813 0292 06       		.byte	0x6
 814 0293 52       		.byte	0x52
 815 0294 98020000 		.4byte	0x298
 816 0298 0A       		.uleb128 0xa
 817 0299 22030000 		.4byte	.LASF52
 818 029d 1C       		.byte	0x1c
 819 029e 07       		.byte	0x7
 820 029f 7201     		.2byte	0x172
 821 02a1 F4020000 		.4byte	0x2f4
 822 02a5 09       		.uleb128 0x9
 823 02a6 9A060000 		.4byte	.LASF53
 824 02aa 07       		.byte	0x7
 825 02ab 7301     		.2byte	0x173
 826 02ad 5D020000 		.4byte	0x25d
 827 02b1 00       		.byte	0
 828 02b2 09       		.uleb128 0x9
 829 02b3 1C060000 		.4byte	.LASF54
 830 02b7 07       		.byte	0x7
 831 02b8 7401     		.2byte	0x174
 832 02ba 15010000 		.4byte	0x115
 833 02be 08       		.byte	0x8
 834 02bf 09       		.uleb128 0x9
 835 02c0 F2040000 		.4byte	.LASF55
 836 02c4 07       		.byte	0x7
 837 02c5 7601     		.2byte	0x176
 838 02c7 63040000 		.4byte	0x463
 839 02cb 0C       		.byte	0xc
 840 02cc 09       		.uleb128 0x9
 841 02cd DC010000 		.4byte	.LASF56
 842 02d1 07       		.byte	0x7
 843 02d2 7901     		.2byte	0x179
 844 02d4 F5050000 		.4byte	0x5f5
 845 02d8 10       		.byte	0x10
 846 02d9 09       		.uleb128 0x9
 847 02da 3E050000 		.4byte	.LASF57
 848 02de 07       		.byte	0x7
ARM GAS  C:\Users\jo\AppData\Local\Temp\ccBf8mGB.s 			page 16


 849 02df 7A01     		.2byte	0x17a
 850 02e1 F5050000 		.4byte	0x5f5
 851 02e5 14       		.byte	0x14
 852 02e6 09       		.uleb128 0x9
 853 02e7 34050000 		.4byte	.LASF58
 854 02eb 07       		.byte	0x7
 855 02ec 7D01     		.2byte	0x17d
 856 02ee F5050000 		.4byte	0x5f5
 857 02f2 18       		.byte	0x18
 858 02f3 00       		.byte	0
 859 02f4 03       		.uleb128 0x3
 860 02f5 7E070000 		.4byte	.LASF59
 861 02f9 06       		.byte	0x6
 862 02fa 57       		.byte	0x57
 863 02fb FF020000 		.4byte	0x2ff
 864 02ff 0B       		.uleb128 0xb
 865 0300 04       		.byte	0x4
 866 0301 05030000 		.4byte	0x305
 867 0305 0C       		.uleb128 0xc
 868 0306 10030000 		.4byte	0x310
 869 030a 0D       		.uleb128 0xd
 870 030b 10030000 		.4byte	0x310
 871 030f 00       		.byte	0
 872 0310 0E       		.uleb128 0xe
 873 0311 04       		.byte	0x4
 874 0312 03       		.uleb128 0x3
 875 0313 74050000 		.4byte	.LASF60
 876 0317 06       		.byte	0x6
 877 0318 5C       		.byte	0x5c
 878 0319 1D030000 		.4byte	0x31d
 879 031d 0A       		.uleb128 0xa
 880 031e 50060000 		.4byte	.LASF61
 881 0322 14       		.byte	0x14
 882 0323 07       		.byte	0x7
 883 0324 4D01     		.2byte	0x14d
 884 0326 6C030000 		.4byte	0x36c
 885 032a 09       		.uleb128 0x9
 886 032b 52020000 		.4byte	.LASF62
 887 032f 07       		.byte	0x7
 888 0330 4E01     		.2byte	0x14e
 889 0332 6A060000 		.4byte	0x66a
 890 0336 00       		.byte	0
 891 0337 09       		.uleb128 0x9
 892 0338 F6010000 		.4byte	.LASF63
 893 033c 07       		.byte	0x7
 894 033d 4F01     		.2byte	0x14f
 895 033f 6A060000 		.4byte	0x66a
 896 0343 04       		.byte	0x4
 897 0344 09       		.uleb128 0x9
 898 0345 73020000 		.4byte	.LASF64
 899 0349 07       		.byte	0x7
 900 034a 5001     		.2byte	0x150
 901 034c 36010000 		.4byte	0x136
 902 0350 08       		.byte	0x8
 903 0351 09       		.uleb128 0x9
 904 0352 C8080000 		.4byte	.LASF65
 905 0356 07       		.byte	0x7
ARM GAS  C:\Users\jo\AppData\Local\Temp\ccBf8mGB.s 			page 17


 906 0357 5101     		.2byte	0x151
 907 0359 F4020000 		.4byte	0x2f4
 908 035d 0C       		.byte	0xc
 909 035e 09       		.uleb128 0x9
 910 035f D2070000 		.4byte	.LASF66
 911 0363 07       		.byte	0x7
 912 0364 5301     		.2byte	0x153
 913 0366 10030000 		.4byte	0x310
 914 036a 10       		.byte	0x10
 915 036b 00       		.byte	0
 916 036c 03       		.uleb128 0x3
 917 036d D9000000 		.4byte	.LASF67
 918 0371 06       		.byte	0x6
 919 0372 61       		.byte	0x61
 920 0373 77030000 		.4byte	0x377
 921 0377 0A       		.uleb128 0xa
 922 0378 B5040000 		.4byte	.LASF68
 923 037c 10       		.byte	0x10
 924 037d 07       		.byte	0x7
 925 037e 5D01     		.2byte	0x15d
 926 0380 B9030000 		.4byte	0x3b9
 927 0384 09       		.uleb128 0x9
 928 0385 52020000 		.4byte	.LASF62
 929 0389 07       		.byte	0x7
 930 038a 5E01     		.2byte	0x15e
 931 038c 6A060000 		.4byte	0x66a
 932 0390 00       		.byte	0
 933 0391 09       		.uleb128 0x9
 934 0392 F6010000 		.4byte	.LASF63
 935 0396 07       		.byte	0x7
 936 0397 6001     		.2byte	0x160
 937 0399 6A060000 		.4byte	0x66a
 938 039d 04       		.byte	0x4
 939 039e 09       		.uleb128 0x9
 940 039f 73020000 		.4byte	.LASF64
 941 03a3 07       		.byte	0x7
 942 03a4 6201     		.2byte	0x162
 943 03a6 36010000 		.4byte	0x136
 944 03aa 08       		.byte	0x8
 945 03ab 09       		.uleb128 0x9
 946 03ac DE040000 		.4byte	.LASF69
 947 03b0 07       		.byte	0x7
 948 03b1 6A01     		.2byte	0x16a
 949 03b3 36010000 		.4byte	0x136
 950 03b7 0C       		.byte	0xc
 951 03b8 00       		.byte	0
 952 03b9 03       		.uleb128 0x3
 953 03ba 55000000 		.4byte	.LASF70
 954 03be 06       		.byte	0x6
 955 03bf 66       		.byte	0x66
 956 03c0 C4030000 		.4byte	0x3c4
 957 03c4 0A       		.uleb128 0xa
 958 03c5 B3050000 		.4byte	.LASF71
 959 03c9 04       		.byte	0x4
 960 03ca 07       		.byte	0x7
 961 03cb 8401     		.2byte	0x184
 962 03cd DF030000 		.4byte	0x3df
ARM GAS  C:\Users\jo\AppData\Local\Temp\ccBf8mGB.s 			page 18


 963 03d1 09       		.uleb128 0x9
 964 03d2 92070000 		.4byte	.LASF72
 965 03d6 07       		.byte	0x7
 966 03d7 8C01     		.2byte	0x18c
 967 03d9 70060000 		.4byte	0x670
 968 03dd 00       		.byte	0
 969 03de 00       		.byte	0
 970 03df 03       		.uleb128 0x3
 971 03e0 F2020000 		.4byte	.LASF73
 972 03e4 06       		.byte	0x6
 973 03e5 6B       		.byte	0x6b
 974 03e6 EA030000 		.4byte	0x3ea
 975 03ea 0F       		.uleb128 0xf
 976 03eb 93010000 		.4byte	.LASF74
 977 03ef D801     		.2byte	0x1d8
 978 03f1 07       		.byte	0x7
 979 03f2 A401     		.2byte	0x1a4
 980 03f4 46040000 		.4byte	0x446
 981 03f8 09       		.uleb128 0x9
 982 03f9 2A080000 		.4byte	.LASF75
 983 03fd 07       		.byte	0x7
 984 03fe A801     		.2byte	0x1a8
 985 0400 8D020000 		.4byte	0x28d
 986 0404 00       		.byte	0
 987 0405 09       		.uleb128 0x9
 988 0406 6D010000 		.4byte	.LASF76
 989 040a 07       		.byte	0x7
 990 040b AC01     		.2byte	0x1ac
 991 040d 6C030000 		.4byte	0x36c
 992 0411 1C       		.byte	0x1c
 993 0412 08       		.uleb128 0x8
 994 0413 64626700 		.ascii	"dbg\000"
 995 0417 07       		.byte	0x7
 996 0418 B001     		.2byte	0x1b0
 997 041a B9030000 		.4byte	0x3b9
 998 041e 2C       		.byte	0x2c
 999 041f 09       		.uleb128 0x9
 1000 0420 CE000000 		.4byte	.LASF77
 1001 0424 07       		.byte	0x7
 1002 0425 B401     		.2byte	0x1b4
 1003 0427 41010000 		.4byte	0x141
 1004 042b 30       		.byte	0x30
 1005 042c 08       		.uleb128 0x8
 1006 042d 746D00   		.ascii	"tm\000"
 1007 0430 07       		.byte	0x7
 1008 0431 B901     		.2byte	0x1b9
 1009 0433 EA050000 		.4byte	0x5ea
 1010 0437 74       		.byte	0x74
 1011 0438 09       		.uleb128 0x9
 1012 0439 06020000 		.4byte	.LASF78
 1013 043d 07       		.byte	0x7
 1014 043e C501     		.2byte	0x1c5
 1015 0440 75060000 		.4byte	0x675
 1016 0444 78       		.byte	0x78
 1017 0445 00       		.byte	0
 1018 0446 04       		.uleb128 0x4
 1019 0447 04       		.byte	0x4
ARM GAS  C:\Users\jo\AppData\Local\Temp\ccBf8mGB.s 			page 19


 1020 0448 07       		.byte	0x7
 1021 0449 AC040000 		.4byte	.LASF79
 1022 044d 03       		.uleb128 0x3
 1023 044e ED010000 		.4byte	.LASF80
 1024 0452 08       		.byte	0x8
 1025 0453 85       		.byte	0x85
 1026 0454 10030000 		.4byte	0x310
 1027 0458 03       		.uleb128 0x3
 1028 0459 46030000 		.4byte	.LASF81
 1029 045d 08       		.byte	0x8
 1030 045e 8D       		.byte	0x8d
 1031 045f D9000000 		.4byte	0xd9
 1032 0463 06       		.uleb128 0x6
 1033 0464 B7070000 		.4byte	.LASF82
 1034 0468 04       		.byte	0x4
 1035 0469 08       		.byte	0x8
 1036 046a A9       		.byte	0xa9
 1037 046b 7C040000 		.4byte	0x47c
 1038 046f 10       		.uleb128 0x10
 1039 0470 72313300 		.ascii	"r13\000"
 1040 0474 08       		.byte	0x8
 1041 0475 AA       		.byte	0xaa
 1042 0476 BD050000 		.4byte	0x5bd
 1043 047a 00       		.byte	0
 1044 047b 00       		.byte	0
 1045 047c 06       		.uleb128 0x6
 1046 047d 49000000 		.4byte	.LASF83
 1047 0481 64       		.byte	0x64
 1048 0482 09       		.byte	0x9
 1049 0483 F4       		.byte	0xf4
 1050 0484 BD050000 		.4byte	0x5bd
 1051 0488 10       		.uleb128 0x10
 1052 0489 73313600 		.ascii	"s16\000"
 1053 048d 09       		.byte	0x9
 1054 048e F6       		.byte	0xf6
 1055 048f 4D040000 		.4byte	0x44d
 1056 0493 00       		.byte	0
 1057 0494 10       		.uleb128 0x10
 1058 0495 73313700 		.ascii	"s17\000"
 1059 0499 09       		.byte	0x9
 1060 049a F7       		.byte	0xf7
 1061 049b 4D040000 		.4byte	0x44d
 1062 049f 04       		.byte	0x4
 1063 04a0 10       		.uleb128 0x10
 1064 04a1 73313800 		.ascii	"s18\000"
 1065 04a5 09       		.byte	0x9
 1066 04a6 F8       		.byte	0xf8
 1067 04a7 4D040000 		.4byte	0x44d
 1068 04ab 08       		.byte	0x8
 1069 04ac 10       		.uleb128 0x10
 1070 04ad 73313900 		.ascii	"s19\000"
 1071 04b1 09       		.byte	0x9
 1072 04b2 F9       		.byte	0xf9
 1073 04b3 4D040000 		.4byte	0x44d
 1074 04b7 0C       		.byte	0xc
 1075 04b8 10       		.uleb128 0x10
 1076 04b9 73323000 		.ascii	"s20\000"
ARM GAS  C:\Users\jo\AppData\Local\Temp\ccBf8mGB.s 			page 20


 1077 04bd 09       		.byte	0x9
 1078 04be FA       		.byte	0xfa
 1079 04bf 4D040000 		.4byte	0x44d
 1080 04c3 10       		.byte	0x10
 1081 04c4 10       		.uleb128 0x10
 1082 04c5 73323100 		.ascii	"s21\000"
 1083 04c9 09       		.byte	0x9
 1084 04ca FB       		.byte	0xfb
 1085 04cb 4D040000 		.4byte	0x44d
 1086 04cf 14       		.byte	0x14
 1087 04d0 10       		.uleb128 0x10
 1088 04d1 73323200 		.ascii	"s22\000"
 1089 04d5 09       		.byte	0x9
 1090 04d6 FC       		.byte	0xfc
 1091 04d7 4D040000 		.4byte	0x44d
 1092 04db 18       		.byte	0x18
 1093 04dc 10       		.uleb128 0x10
 1094 04dd 73323300 		.ascii	"s23\000"
 1095 04e1 09       		.byte	0x9
 1096 04e2 FD       		.byte	0xfd
 1097 04e3 4D040000 		.4byte	0x44d
 1098 04e7 1C       		.byte	0x1c
 1099 04e8 10       		.uleb128 0x10
 1100 04e9 73323400 		.ascii	"s24\000"
 1101 04ed 09       		.byte	0x9
 1102 04ee FE       		.byte	0xfe
 1103 04ef 4D040000 		.4byte	0x44d
 1104 04f3 20       		.byte	0x20
 1105 04f4 10       		.uleb128 0x10
 1106 04f5 73323500 		.ascii	"s25\000"
 1107 04f9 09       		.byte	0x9
 1108 04fa FF       		.byte	0xff
 1109 04fb 4D040000 		.4byte	0x44d
 1110 04ff 24       		.byte	0x24
 1111 0500 08       		.uleb128 0x8
 1112 0501 73323600 		.ascii	"s26\000"
 1113 0505 09       		.byte	0x9
 1114 0506 0001     		.2byte	0x100
 1115 0508 4D040000 		.4byte	0x44d
 1116 050c 28       		.byte	0x28
 1117 050d 08       		.uleb128 0x8
 1118 050e 73323700 		.ascii	"s27\000"
 1119 0512 09       		.byte	0x9
 1120 0513 0101     		.2byte	0x101
 1121 0515 4D040000 		.4byte	0x44d
 1122 0519 2C       		.byte	0x2c
 1123 051a 08       		.uleb128 0x8
 1124 051b 73323800 		.ascii	"s28\000"
 1125 051f 09       		.byte	0x9
 1126 0520 0201     		.2byte	0x102
 1127 0522 4D040000 		.4byte	0x44d
 1128 0526 30       		.byte	0x30
 1129 0527 08       		.uleb128 0x8
 1130 0528 73323900 		.ascii	"s29\000"
 1131 052c 09       		.byte	0x9
 1132 052d 0301     		.2byte	0x103
 1133 052f 4D040000 		.4byte	0x44d
ARM GAS  C:\Users\jo\AppData\Local\Temp\ccBf8mGB.s 			page 21


 1134 0533 34       		.byte	0x34
 1135 0534 08       		.uleb128 0x8
 1136 0535 73333000 		.ascii	"s30\000"
 1137 0539 09       		.byte	0x9
 1138 053a 0401     		.2byte	0x104
 1139 053c 4D040000 		.4byte	0x44d
 1140 0540 38       		.byte	0x38
 1141 0541 08       		.uleb128 0x8
 1142 0542 73333100 		.ascii	"s31\000"
 1143 0546 09       		.byte	0x9
 1144 0547 0501     		.2byte	0x105
 1145 0549 4D040000 		.4byte	0x44d
 1146 054d 3C       		.byte	0x3c
 1147 054e 08       		.uleb128 0x8
 1148 054f 723400   		.ascii	"r4\000"
 1149 0552 09       		.byte	0x9
 1150 0553 0701     		.2byte	0x107
 1151 0555 4D040000 		.4byte	0x44d
 1152 0559 40       		.byte	0x40
 1153 055a 08       		.uleb128 0x8
 1154 055b 723500   		.ascii	"r5\000"
 1155 055e 09       		.byte	0x9
 1156 055f 0801     		.2byte	0x108
 1157 0561 4D040000 		.4byte	0x44d
 1158 0565 44       		.byte	0x44
 1159 0566 08       		.uleb128 0x8
 1160 0567 723600   		.ascii	"r6\000"
 1161 056a 09       		.byte	0x9
 1162 056b 0901     		.2byte	0x109
 1163 056d 4D040000 		.4byte	0x44d
 1164 0571 48       		.byte	0x48
 1165 0572 08       		.uleb128 0x8
 1166 0573 723700   		.ascii	"r7\000"
 1167 0576 09       		.byte	0x9
 1168 0577 0A01     		.2byte	0x10a
 1169 0579 4D040000 		.4byte	0x44d
 1170 057d 4C       		.byte	0x4c
 1171 057e 08       		.uleb128 0x8
 1172 057f 723800   		.ascii	"r8\000"
 1173 0582 09       		.byte	0x9
 1174 0583 0B01     		.2byte	0x10b
 1175 0585 4D040000 		.4byte	0x44d
 1176 0589 50       		.byte	0x50
 1177 058a 08       		.uleb128 0x8
 1178 058b 723900   		.ascii	"r9\000"
 1179 058e 09       		.byte	0x9
 1180 058f 0C01     		.2byte	0x10c
 1181 0591 4D040000 		.4byte	0x44d
 1182 0595 54       		.byte	0x54
 1183 0596 08       		.uleb128 0x8
 1184 0597 72313000 		.ascii	"r10\000"
 1185 059b 09       		.byte	0x9
 1186 059c 0D01     		.2byte	0x10d
 1187 059e 4D040000 		.4byte	0x44d
 1188 05a2 58       		.byte	0x58
 1189 05a3 08       		.uleb128 0x8
 1190 05a4 72313100 		.ascii	"r11\000"
ARM GAS  C:\Users\jo\AppData\Local\Temp\ccBf8mGB.s 			page 22


 1191 05a8 09       		.byte	0x9
 1192 05a9 0E01     		.2byte	0x10e
 1193 05ab 4D040000 		.4byte	0x44d
 1194 05af 5C       		.byte	0x5c
 1195 05b0 08       		.uleb128 0x8
 1196 05b1 6C7200   		.ascii	"lr\000"
 1197 05b4 09       		.byte	0x9
 1198 05b5 0F01     		.2byte	0x10f
 1199 05b7 4D040000 		.4byte	0x44d
 1200 05bb 60       		.byte	0x60
 1201 05bc 00       		.byte	0
 1202 05bd 0B       		.uleb128 0xb
 1203 05be 04       		.byte	0x4
 1204 05bf 7C040000 		.4byte	0x47c
 1205 05c3 04       		.uleb128 0x4
 1206 05c4 01       		.byte	0x1
 1207 05c5 08       		.byte	0x8
 1208 05c6 C4060000 		.4byte	.LASF84
 1209 05ca 0B       		.uleb128 0xb
 1210 05cb 04       		.byte	0x4
 1211 05cc D0050000 		.4byte	0x5d0
 1212 05d0 11       		.uleb128 0x11
 1213 05d1 C3050000 		.4byte	0x5c3
 1214 05d5 12       		.uleb128 0x12
 1215 05d6 04       		.byte	0x4
 1216 05d7 0A       		.byte	0xa
 1217 05d8 38       		.byte	0x38
 1218 05d9 EA050000 		.4byte	0x5ea
 1219 05dd 07       		.uleb128 0x7
 1220 05de 9C070000 		.4byte	.LASF85
 1221 05e2 0A       		.byte	0xa
 1222 05e3 3C       		.byte	0x3c
 1223 05e4 E9000000 		.4byte	0xe9
 1224 05e8 00       		.byte	0
 1225 05e9 00       		.byte	0
 1226 05ea 03       		.uleb128 0x3
 1227 05eb 23050000 		.4byte	.LASF86
 1228 05ef 0A       		.byte	0xa
 1229 05f0 3D       		.byte	0x3d
 1230 05f1 D5050000 		.4byte	0x5d5
 1231 05f5 0B       		.uleb128 0xb
 1232 05f6 04       		.byte	0x4
 1233 05f7 41010000 		.4byte	0x141
 1234 05fb 13       		.uleb128 0x13
 1235 05fc 04       		.byte	0x4
 1236 05fd 07       		.byte	0x7
 1237 05fe F6       		.byte	0xf6
 1238 05ff 33060000 		.4byte	0x633
 1239 0603 14       		.uleb128 0x14
 1240 0604 00080000 		.4byte	.LASF87
 1241 0608 07       		.byte	0x7
 1242 0609 FD       		.byte	0xfd
 1243 060a 20010000 		.4byte	0x120
 1244 060e 15       		.uleb128 0x15
 1245 060f C5000000 		.4byte	.LASF88
 1246 0613 07       		.byte	0x7
 1247 0614 0401     		.2byte	0x104
ARM GAS  C:\Users\jo\AppData\Local\Temp\ccBf8mGB.s 			page 23


 1248 0616 20010000 		.4byte	0x120
 1249 061a 15       		.uleb128 0x15
 1250 061b 63080000 		.4byte	.LASF89
 1251 061f 07       		.byte	0x7
 1252 0620 0B01     		.2byte	0x10b
 1253 0622 10030000 		.4byte	0x310
 1254 0626 15       		.uleb128 0x15
 1255 0627 23060000 		.4byte	.LASF90
 1256 062b 07       		.byte	0x7
 1257 062c 1201     		.2byte	0x112
 1258 062e 2B010000 		.4byte	0x12b
 1259 0632 00       		.byte	0
 1260 0633 06       		.uleb128 0x6
 1261 0634 AD050000 		.4byte	.LASF91
 1262 0638 10       		.byte	0x10
 1263 0639 0B       		.byte	0xb
 1264 063a 39       		.byte	0x39
 1265 063b 64060000 		.4byte	0x664
 1266 063f 07       		.uleb128 0x7
 1267 0640 58010000 		.4byte	.LASF92
 1268 0644 0B       		.byte	0xb
 1269 0645 3A       		.byte	0x3a
 1270 0646 5D020000 		.4byte	0x25d
 1271 064a 00       		.byte	0
 1272 064b 07       		.uleb128 0x7
 1273 064c BA080000 		.4byte	.LASF93
 1274 0650 0B       		.byte	0xb
 1275 0651 3C       		.byte	0x3c
 1276 0652 F5050000 		.4byte	0x5f5
 1277 0656 08       		.byte	0x8
 1278 0657 07       		.uleb128 0x7
 1279 0658 62070000 		.4byte	.LASF94
 1280 065c 0B       		.byte	0xb
 1281 065d 3E       		.byte	0x3e
 1282 065e 90060000 		.4byte	0x690
 1283 0662 0C       		.byte	0xc
 1284 0663 00       		.byte	0
 1285 0664 0B       		.uleb128 0xb
 1286 0665 04       		.byte	0x4
 1287 0666 33060000 		.4byte	0x633
 1288 066a 0B       		.uleb128 0xb
 1289 066b 04       		.byte	0x4
 1290 066c 12030000 		.4byte	0x312
 1291 0670 05       		.uleb128 0x5
 1292 0671 CA050000 		.4byte	0x5ca
 1293 0675 16       		.uleb128 0x16
 1294 0676 58040000 		.4byte	0x458
 1295 067a 85060000 		.4byte	0x685
 1296 067e 17       		.uleb128 0x17
 1297 067f 46040000 		.4byte	0x446
 1298 0683 2B       		.byte	0x2b
 1299 0684 00       		.byte	0
 1300 0685 03       		.uleb128 0x3
 1301 0686 FE010000 		.4byte	.LASF95
 1302 068a 0B       		.byte	0xb
 1303 068b 34       		.byte	0x34
 1304 068c 33060000 		.4byte	0x633
ARM GAS  C:\Users\jo\AppData\Local\Temp\ccBf8mGB.s 			page 24


 1305 0690 0B       		.uleb128 0xb
 1306 0691 04       		.byte	0x4
 1307 0692 85060000 		.4byte	0x685
 1308 0696 04       		.uleb128 0x4
 1309 0697 01       		.byte	0x1
 1310 0698 02       		.byte	0x2
 1311 0699 C3050000 		.4byte	.LASF96
 1312 069d 03       		.uleb128 0x3
 1313 069e A6020000 		.4byte	.LASF97
 1314 06a2 0C       		.byte	0xc
 1315 06a3 2B       		.byte	0x2b
 1316 06a4 AD000000 		.4byte	0xad
 1317 06a8 03       		.uleb128 0x3
 1318 06a9 8D010000 		.4byte	.LASF98
 1319 06ad 0C       		.byte	0xc
 1320 06ae 2D       		.byte	0x2d
 1321 06af 50000000 		.4byte	0x50
 1322 06b3 03       		.uleb128 0x3
 1323 06b4 D7040000 		.4byte	.LASF99
 1324 06b8 0C       		.byte	0xc
 1325 06b9 30       		.byte	0x30
 1326 06ba B8000000 		.4byte	0xb8
 1327 06be 03       		.uleb128 0x3
 1328 06bf 1C010000 		.4byte	.LASF100
 1329 06c3 0C       		.byte	0xc
 1330 06c4 34       		.byte	0x34
 1331 06c5 C3000000 		.4byte	0xc3
 1332 06c9 18       		.uleb128 0x18
 1333 06ca 01       		.byte	0x1
 1334 06cb 0D       		.byte	0xd
 1335 06cc 2C       		.byte	0x2c
 1336 06cd EA060000 		.4byte	0x6ea
 1337 06d1 19       		.uleb128 0x19
 1338 06d2 E4010000 		.4byte	.LASF101
 1339 06d6 01       		.sleb128 1
 1340 06d7 19       		.uleb128 0x19
 1341 06d8 62050000 		.4byte	.LASF102
 1342 06dc 02       		.sleb128 2
 1343 06dd 19       		.uleb128 0x19
 1344 06de 64000000 		.4byte	.LASF103
 1345 06e2 04       		.sleb128 4
 1346 06e3 19       		.uleb128 0x19
 1347 06e4 00000000 		.4byte	.LASF104
 1348 06e8 08       		.sleb128 8
 1349 06e9 00       		.byte	0
 1350 06ea 03       		.uleb128 0x3
 1351 06eb 66020000 		.4byte	.LASF105
 1352 06ef 0D       		.byte	0xd
 1353 06f0 31       		.byte	0x31
 1354 06f1 C9060000 		.4byte	0x6c9
 1355 06f5 18       		.uleb128 0x18
 1356 06f6 02       		.byte	0x2
 1357 06f7 0D       		.byte	0xd
 1358 06f8 34       		.byte	0x34
 1359 06f9 37070000 		.4byte	0x737
 1360 06fd 19       		.uleb128 0x19
 1361 06fe 81060000 		.4byte	.LASF106
ARM GAS  C:\Users\jo\AppData\Local\Temp\ccBf8mGB.s 			page 25


 1362 0702 01       		.sleb128 1
 1363 0703 19       		.uleb128 0x19
 1364 0704 15020000 		.4byte	.LASF107
 1365 0708 02       		.sleb128 2
 1366 0709 19       		.uleb128 0x19
 1367 070a C2010000 		.4byte	.LASF108
 1368 070e 04       		.sleb128 4
 1369 070f 19       		.uleb128 0x19
 1370 0710 6C060000 		.4byte	.LASF109
 1371 0714 08       		.sleb128 8
 1372 0715 19       		.uleb128 0x19
 1373 0716 AB020000 		.4byte	.LASF110
 1374 071a 10       		.sleb128 16
 1375 071b 19       		.uleb128 0x19
 1376 071c 74010000 		.4byte	.LASF111
 1377 0720 20       		.sleb128 32
 1378 0721 19       		.uleb128 0x19
 1379 0722 39070000 		.4byte	.LASF112
 1380 0726 C000     		.sleb128 64
 1381 0728 19       		.uleb128 0x19
 1382 0729 C9060000 		.4byte	.LASF113
 1383 072d 8001     		.sleb128 128
 1384 072f 19       		.uleb128 0x19
 1385 0730 6A040000 		.4byte	.LASF114
 1386 0734 8002     		.sleb128 256
 1387 0736 00       		.byte	0
 1388 0737 03       		.uleb128 0x3
 1389 0738 AF010000 		.4byte	.LASF115
 1390 073c 0D       		.byte	0xd
 1391 073d 3E       		.byte	0x3e
 1392 073e F5060000 		.4byte	0x6f5
 1393 0742 18       		.uleb128 0x18
 1394 0743 01       		.byte	0x1
 1395 0744 0E       		.byte	0xe
 1396 0745 4F       		.byte	0x4f
 1397 0746 75070000 		.4byte	0x775
 1398 074a 19       		.uleb128 0x19
 1399 074b 28010000 		.4byte	.LASF116
 1400 074f 00       		.sleb128 0
 1401 0750 19       		.uleb128 0x19
 1402 0751 71080000 		.4byte	.LASF117
 1403 0755 01       		.sleb128 1
 1404 0756 19       		.uleb128 0x19
 1405 0757 39060000 		.4byte	.LASF118
 1406 075b 02       		.sleb128 2
 1407 075c 19       		.uleb128 0x19
 1408 075d 53080000 		.4byte	.LASF119
 1409 0761 03       		.sleb128 3
 1410 0762 19       		.uleb128 0x19
 1411 0763 AA080000 		.4byte	.LASF120
 1412 0767 04       		.sleb128 4
 1413 0768 19       		.uleb128 0x19
 1414 0769 D0080000 		.4byte	.LASF121
 1415 076d 05       		.sleb128 5
 1416 076e 19       		.uleb128 0x19
 1417 076f 6F000000 		.4byte	.LASF122
 1418 0773 06       		.sleb128 6
ARM GAS  C:\Users\jo\AppData\Local\Temp\ccBf8mGB.s 			page 26


 1419 0774 00       		.byte	0
 1420 0775 03       		.uleb128 0x3
 1421 0776 22000000 		.4byte	.LASF123
 1422 077a 0E       		.byte	0xe
 1423 077b 57       		.byte	0x57
 1424 077c 42070000 		.4byte	0x742
 1425 0780 1A       		.uleb128 0x1a
 1426 0781 D9070000 		.4byte	.LASF124
 1427 0785 01       		.byte	0x1
 1428 0786 2C       		.byte	0x2c
 1429 0787 9D060000 		.4byte	0x69d
 1430 078b 01       		.byte	0x1
 1431 078c 9C070000 		.4byte	0x79c
 1432 0790 1B       		.uleb128 0x1b
 1433 0791 30080000 		.4byte	.LASF126
 1434 0795 01       		.byte	0x1
 1435 0796 2C       		.byte	0x2c
 1436 0797 37070000 		.4byte	0x737
 1437 079b 00       		.byte	0
 1438 079c 1A       		.uleb128 0x1a
 1439 079d 94080000 		.4byte	.LASF125
 1440 07a1 01       		.byte	0x1
 1441 07a2 34       		.byte	0x34
 1442 07a3 9D060000 		.4byte	0x69d
 1443 07a7 01       		.byte	0x1
 1444 07a8 C3070000 		.4byte	0x7c3
 1445 07ac 1B       		.uleb128 0x1b
 1446 07ad 30080000 		.4byte	.LASF126
 1447 07b1 01       		.byte	0x1
 1448 07b2 34       		.byte	0x34
 1449 07b3 C3070000 		.4byte	0x7c3
 1450 07b7 1C       		.uleb128 0x1c
 1451 07b8 0D010000 		.4byte	.LASF149
 1452 07bc 01       		.byte	0x1
 1453 07bd 36       		.byte	0x36
 1454 07be 9D060000 		.4byte	0x69d
 1455 07c2 00       		.byte	0
 1456 07c3 0B       		.uleb128 0xb
 1457 07c4 04       		.byte	0x4
 1458 07c5 37070000 		.4byte	0x737
 1459 07c9 1D       		.uleb128 0x1d
 1460 07ca 95040000 		.4byte	.LASF150
 1461 07ce 01       		.byte	0x1
 1462 07cf 25       		.byte	0x25
 1463 07d0 9D060000 		.4byte	0x69d
 1464 07d4 00000000 		.4byte	.LFB256
 1465 07d8 10000000 		.4byte	.LFE256-.LFB256
 1466 07dc 01       		.uleb128 0x1
 1467 07dd 9C       		.byte	0x9c
 1468 07de 1E       		.uleb128 0x1e
 1469 07df 80070000 		.4byte	0x780
 1470 07e3 00000000 		.4byte	.LFB257
 1471 07e7 14000000 		.4byte	.LFE257-.LFB257
 1472 07eb 01       		.uleb128 0x1
 1473 07ec 9C       		.byte	0x9c
 1474 07ed FB070000 		.4byte	0x7fb
 1475 07f1 1F       		.uleb128 0x1f
ARM GAS  C:\Users\jo\AppData\Local\Temp\ccBf8mGB.s 			page 27


 1476 07f2 90070000 		.4byte	0x790
 1477 07f6 00000000 		.4byte	.LLST0
 1478 07fa 00       		.byte	0
 1479 07fb 1E       		.uleb128 0x1e
 1480 07fc 9C070000 		.4byte	0x79c
 1481 0800 00000000 		.4byte	.LFB258
 1482 0804 20000000 		.4byte	.LFE258-.LFB258
 1483 0808 01       		.uleb128 0x1
 1484 0809 9C       		.byte	0x9c
 1485 080a 21080000 		.4byte	0x821
 1486 080e 1F       		.uleb128 0x1f
 1487 080f AC070000 		.4byte	0x7ac
 1488 0813 21000000 		.4byte	.LLST1
 1489 0817 20       		.uleb128 0x20
 1490 0818 B7070000 		.4byte	0x7b7
 1491 081c 5B000000 		.4byte	.LLST2
 1492 0820 00       		.byte	0
 1493 0821 21       		.uleb128 0x21
 1494 0822 DF050000 		.4byte	.LASF127
 1495 0826 01       		.byte	0x1
 1496 0827 45       		.byte	0x45
 1497 0828 00000000 		.4byte	.LFB259
 1498 082c 0C000000 		.4byte	.LFE259-.LFB259
 1499 0830 01       		.uleb128 0x1
 1500 0831 9C       		.byte	0x9c
 1501 0832 22       		.uleb128 0x22
 1502 0833 3F080000 		.4byte	.LASF138
 1503 0837 01       		.byte	0x1
 1504 0838 52       		.byte	0x52
 1505 0839 9D060000 		.4byte	0x69d
 1506 083d 00000000 		.4byte	.LFB260
 1507 0841 0C000000 		.4byte	.LFE260-.LFB260
 1508 0845 01       		.uleb128 0x1
 1509 0846 9C       		.byte	0x9c
 1510 0847 5B080000 		.4byte	0x85b
 1511 084b 23       		.uleb128 0x23
 1512 084c 46050000 		.4byte	.LASF130
 1513 0850 01       		.byte	0x1
 1514 0851 52       		.byte	0x52
 1515 0852 BE060000 		.4byte	0x6be
 1516 0856 92000000 		.4byte	.LLST3
 1517 085a 00       		.byte	0
 1518 085b 21       		.uleb128 0x21
 1519 085c A3070000 		.4byte	.LASF128
 1520 0860 01       		.byte	0x1
 1521 0861 59       		.byte	0x59
 1522 0862 00000000 		.4byte	.LFB261
 1523 0866 0C000000 		.4byte	.LFE261-.LFB261
 1524 086a 01       		.uleb128 0x1
 1525 086b 9C       		.byte	0x9c
 1526 086c 21       		.uleb128 0x21
 1527 086d 2E020000 		.4byte	.LASF129
 1528 0871 01       		.byte	0x1
 1529 0872 63       		.byte	0x63
 1530 0873 00000000 		.4byte	.LFB262
 1531 0877 0C000000 		.4byte	.LFE262-.LFB262
 1532 087b 01       		.uleb128 0x1
ARM GAS  C:\Users\jo\AppData\Local\Temp\ccBf8mGB.s 			page 28


 1533 087c 9C       		.byte	0x9c
 1534 087d 24       		.uleb128 0x24
 1535 087e 87020000 		.4byte	.LASF134
 1536 0882 01       		.byte	0x1
 1537 0883 73       		.byte	0x73
 1538 0884 00000000 		.4byte	.LFB263
 1539 0888 18000000 		.4byte	.LFE263-.LFB263
 1540 088c 01       		.uleb128 0x1
 1541 088d 9C       		.byte	0x9c
 1542 088e D6080000 		.4byte	0x8d6
 1543 0892 23       		.uleb128 0x23
 1544 0893 7E000000 		.4byte	.LASF131
 1545 0897 01       		.byte	0x1
 1546 0898 73       		.byte	0x73
 1547 0899 A8060000 		.4byte	0x6a8
 1548 089d B3000000 		.4byte	.LLST4
 1549 08a1 23       		.uleb128 0x23
 1550 08a2 CC040000 		.4byte	.LASF132
 1551 08a6 01       		.byte	0x1
 1552 08a7 73       		.byte	0x73
 1553 08a8 D6080000 		.4byte	0x8d6
 1554 08ac D4000000 		.4byte	.LLST5
 1555 08b0 23       		.uleb128 0x23
 1556 08b1 5A020000 		.4byte	.LASF133
 1557 08b5 01       		.byte	0x1
 1558 08b6 74       		.byte	0x74
 1559 08b7 B3060000 		.4byte	0x6b3
 1560 08bb F5000000 		.4byte	.LLST6
 1561 08bf 25       		.uleb128 0x25
 1562 08c0 80070000 		.4byte	0x780
 1563 08c4 00000000 		.4byte	.LBB12
 1564 08c8 18000000 		.4byte	.LBE12-.LBB12
 1565 08cc 01       		.byte	0x1
 1566 08cd 7C       		.byte	0x7c
 1567 08ce 26       		.uleb128 0x26
 1568 08cf 90070000 		.4byte	0x790
 1569 08d3 40       		.byte	0x40
 1570 08d4 00       		.byte	0
 1571 08d5 00       		.byte	0
 1572 08d6 0B       		.uleb128 0xb
 1573 08d7 04       		.byte	0x4
 1574 08d8 DC080000 		.4byte	0x8dc
 1575 08dc 11       		.uleb128 0x11
 1576 08dd A8060000 		.4byte	0x6a8
 1577 08e1 24       		.uleb128 0x24
 1578 08e2 0E080000 		.4byte	.LASF135
 1579 08e6 01       		.byte	0x1
 1580 08e7 8A       		.byte	0x8a
 1581 08e8 00000000 		.4byte	.LFB264
 1582 08ec 18000000 		.4byte	.LFE264-.LFB264
 1583 08f0 01       		.uleb128 0x1
 1584 08f1 9C       		.byte	0x9c
 1585 08f2 3A090000 		.4byte	0x93a
 1586 08f6 23       		.uleb128 0x23
 1587 08f7 7E000000 		.4byte	.LASF131
 1588 08fb 01       		.byte	0x1
 1589 08fc 8A       		.byte	0x8a
ARM GAS  C:\Users\jo\AppData\Local\Temp\ccBf8mGB.s 			page 29


 1590 08fd A8060000 		.4byte	0x6a8
 1591 0901 16010000 		.4byte	.LLST7
 1592 0905 23       		.uleb128 0x23
 1593 0906 CC040000 		.4byte	.LASF132
 1594 090a 01       		.byte	0x1
 1595 090b 8A       		.byte	0x8a
 1596 090c D6080000 		.4byte	0x8d6
 1597 0910 37010000 		.4byte	.LLST8
 1598 0914 23       		.uleb128 0x23
 1599 0915 5A020000 		.4byte	.LASF133
 1600 0919 01       		.byte	0x1
 1601 091a 8B       		.byte	0x8b
 1602 091b B3060000 		.4byte	0x6b3
 1603 091f 58010000 		.4byte	.LLST9
 1604 0923 25       		.uleb128 0x25
 1605 0924 80070000 		.4byte	0x780
 1606 0928 00000000 		.4byte	.LBB14
 1607 092c 18000000 		.4byte	.LBE14-.LBB14
 1608 0930 01       		.byte	0x1
 1609 0931 93       		.byte	0x93
 1610 0932 26       		.uleb128 0x26
 1611 0933 90070000 		.4byte	0x790
 1612 0937 80       		.byte	0x80
 1613 0938 00       		.byte	0
 1614 0939 00       		.byte	0
 1615 093a 24       		.uleb128 0x24
 1616 093b F8040000 		.4byte	.LASF136
 1617 093f 01       		.byte	0x1
 1618 0940 A1       		.byte	0xa1
 1619 0941 00000000 		.4byte	.LFB265
 1620 0945 18000000 		.4byte	.LFE265-.LFB265
 1621 0949 01       		.uleb128 0x1
 1622 094a 9C       		.byte	0x9c
 1623 094b 94090000 		.4byte	0x994
 1624 094f 23       		.uleb128 0x23
 1625 0950 7E000000 		.4byte	.LASF131
 1626 0954 01       		.byte	0x1
 1627 0955 A1       		.byte	0xa1
 1628 0956 A8060000 		.4byte	0x6a8
 1629 095a 79010000 		.4byte	.LLST10
 1630 095e 23       		.uleb128 0x23
 1631 095f CC040000 		.4byte	.LASF132
 1632 0963 01       		.byte	0x1
 1633 0964 A1       		.byte	0xa1
 1634 0965 D6080000 		.4byte	0x8d6
 1635 0969 9A010000 		.4byte	.LLST11
 1636 096d 23       		.uleb128 0x23
 1637 096e 5A020000 		.4byte	.LASF133
 1638 0972 01       		.byte	0x1
 1639 0973 A2       		.byte	0xa2
 1640 0974 B3060000 		.4byte	0x6b3
 1641 0978 BB010000 		.4byte	.LLST12
 1642 097c 25       		.uleb128 0x25
 1643 097d 80070000 		.4byte	0x780
 1644 0981 00000000 		.4byte	.LBB16
 1645 0985 18000000 		.4byte	.LBE16-.LBB16
 1646 0989 01       		.byte	0x1
ARM GAS  C:\Users\jo\AppData\Local\Temp\ccBf8mGB.s 			page 30


 1647 098a AA       		.byte	0xaa
 1648 098b 27       		.uleb128 0x27
 1649 098c 90070000 		.4byte	0x790
 1650 0990 0001     		.2byte	0x100
 1651 0992 00       		.byte	0
 1652 0993 00       		.byte	0
 1653 0994 24       		.uleb128 0x24
 1654 0995 93050000 		.4byte	.LASF137
 1655 0999 01       		.byte	0x1
 1656 099a B4       		.byte	0xb4
 1657 099b 00000000 		.4byte	.LFB266
 1658 099f 18000000 		.4byte	.LFE266-.LFB266
 1659 09a3 01       		.uleb128 0x1
 1660 09a4 9C       		.byte	0x9c
 1661 09a5 C0090000 		.4byte	0x9c0
 1662 09a9 25       		.uleb128 0x25
 1663 09aa 80070000 		.4byte	0x780
 1664 09ae 00000000 		.4byte	.LBB18
 1665 09b2 18000000 		.4byte	.LBE18-.LBB18
 1666 09b6 01       		.byte	0x1
 1667 09b7 BC       		.byte	0xbc
 1668 09b8 26       		.uleb128 0x26
 1669 09b9 90070000 		.4byte	0x790
 1670 09bd 20       		.byte	0x20
 1671 09be 00       		.byte	0
 1672 09bf 00       		.byte	0
 1673 09c0 22       		.uleb128 0x22
 1674 09c1 FE020000 		.4byte	.LASF139
 1675 09c5 01       		.byte	0x1
 1676 09c6 C9       		.byte	0xc9
 1677 09c7 75070000 		.4byte	0x775
 1678 09cb 00000000 		.4byte	.LFB267
 1679 09cf 28000000 		.4byte	.LFE267-.LFB267
 1680 09d3 01       		.uleb128 0x1
 1681 09d4 9C       		.byte	0x9c
 1682 09d5 250A0000 		.4byte	0xa25
 1683 09d9 28       		.uleb128 0x28
 1684 09da C7070000 		.4byte	.LASF140
 1685 09de 01       		.byte	0x1
 1686 09df CA       		.byte	0xca
 1687 09e0 75070000 		.4byte	0x775
 1688 09e4 DC010000 		.4byte	.LLST13
 1689 09e8 29       		.uleb128 0x29
 1690 09e9 D6020000 		.4byte	.LASF141
 1691 09ed 01       		.byte	0x1
 1692 09ee CB       		.byte	0xcb
 1693 09ef 37070000 		.4byte	0x737
 1694 09f3 01       		.uleb128 0x1
 1695 09f4 53       		.byte	0x53
 1696 09f5 25       		.uleb128 0x25
 1697 09f6 9C070000 		.4byte	0x79c
 1698 09fa 00000000 		.4byte	.LBB20
 1699 09fe 0E000000 		.4byte	.LBE20-.LBB20
 1700 0a02 01       		.byte	0x1
 1701 0a03 CD       		.byte	0xcd
 1702 0a04 2A       		.uleb128 0x2a
 1703 0a05 AC070000 		.4byte	0x7ac
ARM GAS  C:\Users\jo\AppData\Local\Temp\ccBf8mGB.s 			page 31


 1704 0a09 06       		.uleb128 0x6
 1705 0a0a F2       		.byte	0xf2
 1706 0a0b E8090000 		.4byte	.Ldebug_info0+2536
 1707 0a0f 00       		.sleb128 0
 1708 0a10 2B       		.uleb128 0x2b
 1709 0a11 00000000 		.4byte	.LBB21
 1710 0a15 0E000000 		.4byte	.LBE21-.LBB21
 1711 0a19 20       		.uleb128 0x20
 1712 0a1a B7070000 		.4byte	0x7b7
 1713 0a1e FB010000 		.4byte	.LLST14
 1714 0a22 00       		.byte	0
 1715 0a23 00       		.byte	0
 1716 0a24 00       		.byte	0
 1717 0a25 29       		.uleb128 0x29
 1718 0a26 60010000 		.4byte	.LASF142
 1719 0a2a 01       		.byte	0x1
 1720 0a2b 1F       		.byte	0x1f
 1721 0a2c EA060000 		.4byte	0x6ea
 1722 0a30 05       		.uleb128 0x5
 1723 0a31 03       		.byte	0x3
 1724 0a32 00000000 		.4byte	eQueuedEvent
 1725 0a36 29       		.uleb128 0x29
 1726 0a37 0E060000 		.4byte	.LASF143
 1727 0a3b 01       		.byte	0x1
 1728 0a3c 20       		.byte	0x20
 1729 0a3d 9D060000 		.4byte	0x69d
 1730 0a41 05       		.uleb128 0x5
 1731 0a42 03       		.byte	0x3
 1732 0a43 00000000 		.4byte	xEventInQueue
 1733 0a47 29       		.uleb128 0x29
 1734 0a48 18050000 		.4byte	.LASF144
 1735 0a4c 01       		.byte	0x1
 1736 0a4d 22       		.byte	0x22
 1737 0a4e 96060000 		.4byte	0x696
 1738 0a52 05       		.uleb128 0x5
 1739 0a53 03       		.byte	0x3
 1740 0a54 00000000 		.4byte	xtNeedPoll
 1741 0a58 2C       		.uleb128 0x2c
 1742 0a59 EF000000 		.4byte	.LASF145
 1743 0a5d 0F       		.byte	0xf
 1744 0a5e A706     		.2byte	0x6a7
 1745 0a60 E4000000 		.4byte	0xe4
 1746 0a64 2D       		.uleb128 0x2d
 1747 0a65 636800   		.ascii	"ch\000"
 1748 0a68 07       		.byte	0x7
 1749 0a69 EB01     		.2byte	0x1eb
 1750 0a6b DF030000 		.4byte	0x3df
 1751 0a6f 00       		.byte	0
 1752              		.section	.debug_abbrev,"",%progbits
 1753              	.Ldebug_abbrev0:
 1754 0000 01       		.uleb128 0x1
 1755 0001 11       		.uleb128 0x11
 1756 0002 01       		.byte	0x1
 1757 0003 25       		.uleb128 0x25
 1758 0004 0E       		.uleb128 0xe
 1759 0005 13       		.uleb128 0x13
 1760 0006 0B       		.uleb128 0xb
ARM GAS  C:\Users\jo\AppData\Local\Temp\ccBf8mGB.s 			page 32


 1761 0007 03       		.uleb128 0x3
 1762 0008 0E       		.uleb128 0xe
 1763 0009 1B       		.uleb128 0x1b
 1764 000a 0E       		.uleb128 0xe
 1765 000b 55       		.uleb128 0x55
 1766 000c 17       		.uleb128 0x17
 1767 000d 11       		.uleb128 0x11
 1768 000e 01       		.uleb128 0x1
 1769 000f 10       		.uleb128 0x10
 1770 0010 17       		.uleb128 0x17
 1771 0011 00       		.byte	0
 1772 0012 00       		.byte	0
 1773 0013 02       		.uleb128 0x2
 1774 0014 24       		.uleb128 0x24
 1775 0015 00       		.byte	0
 1776 0016 0B       		.uleb128 0xb
 1777 0017 0B       		.uleb128 0xb
 1778 0018 3E       		.uleb128 0x3e
 1779 0019 0B       		.uleb128 0xb
 1780 001a 03       		.uleb128 0x3
 1781 001b 08       		.uleb128 0x8
 1782 001c 00       		.byte	0
 1783 001d 00       		.byte	0
 1784 001e 03       		.uleb128 0x3
 1785 001f 16       		.uleb128 0x16
 1786 0020 00       		.byte	0
 1787 0021 03       		.uleb128 0x3
 1788 0022 0E       		.uleb128 0xe
 1789 0023 3A       		.uleb128 0x3a
 1790 0024 0B       		.uleb128 0xb
 1791 0025 3B       		.uleb128 0x3b
 1792 0026 0B       		.uleb128 0xb
 1793 0027 49       		.uleb128 0x49
 1794 0028 13       		.uleb128 0x13
 1795 0029 00       		.byte	0
 1796 002a 00       		.byte	0
 1797 002b 04       		.uleb128 0x4
 1798 002c 24       		.uleb128 0x24
 1799 002d 00       		.byte	0
 1800 002e 0B       		.uleb128 0xb
 1801 002f 0B       		.uleb128 0xb
 1802 0030 3E       		.uleb128 0x3e
 1803 0031 0B       		.uleb128 0xb
 1804 0032 03       		.uleb128 0x3
 1805 0033 0E       		.uleb128 0xe
 1806 0034 00       		.byte	0
 1807 0035 00       		.byte	0
 1808 0036 05       		.uleb128 0x5
 1809 0037 35       		.uleb128 0x35
 1810 0038 00       		.byte	0
 1811 0039 49       		.uleb128 0x49
 1812 003a 13       		.uleb128 0x13
 1813 003b 00       		.byte	0
 1814 003c 00       		.byte	0
 1815 003d 06       		.uleb128 0x6
 1816 003e 13       		.uleb128 0x13
 1817 003f 01       		.byte	0x1
ARM GAS  C:\Users\jo\AppData\Local\Temp\ccBf8mGB.s 			page 33


 1818 0040 03       		.uleb128 0x3
 1819 0041 0E       		.uleb128 0xe
 1820 0042 0B       		.uleb128 0xb
 1821 0043 0B       		.uleb128 0xb
 1822 0044 3A       		.uleb128 0x3a
 1823 0045 0B       		.uleb128 0xb
 1824 0046 3B       		.uleb128 0x3b
 1825 0047 0B       		.uleb128 0xb
 1826 0048 01       		.uleb128 0x1
 1827 0049 13       		.uleb128 0x13
 1828 004a 00       		.byte	0
 1829 004b 00       		.byte	0
 1830 004c 07       		.uleb128 0x7
 1831 004d 0D       		.uleb128 0xd
 1832 004e 00       		.byte	0
 1833 004f 03       		.uleb128 0x3
 1834 0050 0E       		.uleb128 0xe
 1835 0051 3A       		.uleb128 0x3a
 1836 0052 0B       		.uleb128 0xb
 1837 0053 3B       		.uleb128 0x3b
 1838 0054 0B       		.uleb128 0xb
 1839 0055 49       		.uleb128 0x49
 1840 0056 13       		.uleb128 0x13
 1841 0057 38       		.uleb128 0x38
 1842 0058 0B       		.uleb128 0xb
 1843 0059 00       		.byte	0
 1844 005a 00       		.byte	0
 1845 005b 08       		.uleb128 0x8
 1846 005c 0D       		.uleb128 0xd
 1847 005d 00       		.byte	0
 1848 005e 03       		.uleb128 0x3
 1849 005f 08       		.uleb128 0x8
 1850 0060 3A       		.uleb128 0x3a
 1851 0061 0B       		.uleb128 0xb
 1852 0062 3B       		.uleb128 0x3b
 1853 0063 05       		.uleb128 0x5
 1854 0064 49       		.uleb128 0x49
 1855 0065 13       		.uleb128 0x13
 1856 0066 38       		.uleb128 0x38
 1857 0067 0B       		.uleb128 0xb
 1858 0068 00       		.byte	0
 1859 0069 00       		.byte	0
 1860 006a 09       		.uleb128 0x9
 1861 006b 0D       		.uleb128 0xd
 1862 006c 00       		.byte	0
 1863 006d 03       		.uleb128 0x3
 1864 006e 0E       		.uleb128 0xe
 1865 006f 3A       		.uleb128 0x3a
 1866 0070 0B       		.uleb128 0xb
 1867 0071 3B       		.uleb128 0x3b
 1868 0072 05       		.uleb128 0x5
 1869 0073 49       		.uleb128 0x49
 1870 0074 13       		.uleb128 0x13
 1871 0075 38       		.uleb128 0x38
 1872 0076 0B       		.uleb128 0xb
 1873 0077 00       		.byte	0
 1874 0078 00       		.byte	0
ARM GAS  C:\Users\jo\AppData\Local\Temp\ccBf8mGB.s 			page 34


 1875 0079 0A       		.uleb128 0xa
 1876 007a 13       		.uleb128 0x13
 1877 007b 01       		.byte	0x1
 1878 007c 03       		.uleb128 0x3
 1879 007d 0E       		.uleb128 0xe
 1880 007e 0B       		.uleb128 0xb
 1881 007f 0B       		.uleb128 0xb
 1882 0080 3A       		.uleb128 0x3a
 1883 0081 0B       		.uleb128 0xb
 1884 0082 3B       		.uleb128 0x3b
 1885 0083 05       		.uleb128 0x5
 1886 0084 01       		.uleb128 0x1
 1887 0085 13       		.uleb128 0x13
 1888 0086 00       		.byte	0
 1889 0087 00       		.byte	0
 1890 0088 0B       		.uleb128 0xb
 1891 0089 0F       		.uleb128 0xf
 1892 008a 00       		.byte	0
 1893 008b 0B       		.uleb128 0xb
 1894 008c 0B       		.uleb128 0xb
 1895 008d 49       		.uleb128 0x49
 1896 008e 13       		.uleb128 0x13
 1897 008f 00       		.byte	0
 1898 0090 00       		.byte	0
 1899 0091 0C       		.uleb128 0xc
 1900 0092 15       		.uleb128 0x15
 1901 0093 01       		.byte	0x1
 1902 0094 27       		.uleb128 0x27
 1903 0095 19       		.uleb128 0x19
 1904 0096 01       		.uleb128 0x1
 1905 0097 13       		.uleb128 0x13
 1906 0098 00       		.byte	0
 1907 0099 00       		.byte	0
 1908 009a 0D       		.uleb128 0xd
 1909 009b 05       		.uleb128 0x5
 1910 009c 00       		.byte	0
 1911 009d 49       		.uleb128 0x49
 1912 009e 13       		.uleb128 0x13
 1913 009f 00       		.byte	0
 1914 00a0 00       		.byte	0
 1915 00a1 0E       		.uleb128 0xe
 1916 00a2 0F       		.uleb128 0xf
 1917 00a3 00       		.byte	0
 1918 00a4 0B       		.uleb128 0xb
 1919 00a5 0B       		.uleb128 0xb
 1920 00a6 00       		.byte	0
 1921 00a7 00       		.byte	0
 1922 00a8 0F       		.uleb128 0xf
 1923 00a9 13       		.uleb128 0x13
 1924 00aa 01       		.byte	0x1
 1925 00ab 03       		.uleb128 0x3
 1926 00ac 0E       		.uleb128 0xe
 1927 00ad 0B       		.uleb128 0xb
 1928 00ae 05       		.uleb128 0x5
 1929 00af 3A       		.uleb128 0x3a
 1930 00b0 0B       		.uleb128 0xb
 1931 00b1 3B       		.uleb128 0x3b
ARM GAS  C:\Users\jo\AppData\Local\Temp\ccBf8mGB.s 			page 35


 1932 00b2 05       		.uleb128 0x5
 1933 00b3 01       		.uleb128 0x1
 1934 00b4 13       		.uleb128 0x13
 1935 00b5 00       		.byte	0
 1936 00b6 00       		.byte	0
 1937 00b7 10       		.uleb128 0x10
 1938 00b8 0D       		.uleb128 0xd
 1939 00b9 00       		.byte	0
 1940 00ba 03       		.uleb128 0x3
 1941 00bb 08       		.uleb128 0x8
 1942 00bc 3A       		.uleb128 0x3a
 1943 00bd 0B       		.uleb128 0xb
 1944 00be 3B       		.uleb128 0x3b
 1945 00bf 0B       		.uleb128 0xb
 1946 00c0 49       		.uleb128 0x49
 1947 00c1 13       		.uleb128 0x13
 1948 00c2 38       		.uleb128 0x38
 1949 00c3 0B       		.uleb128 0xb
 1950 00c4 00       		.byte	0
 1951 00c5 00       		.byte	0
 1952 00c6 11       		.uleb128 0x11
 1953 00c7 26       		.uleb128 0x26
 1954 00c8 00       		.byte	0
 1955 00c9 49       		.uleb128 0x49
 1956 00ca 13       		.uleb128 0x13
 1957 00cb 00       		.byte	0
 1958 00cc 00       		.byte	0
 1959 00cd 12       		.uleb128 0x12
 1960 00ce 13       		.uleb128 0x13
 1961 00cf 01       		.byte	0x1
 1962 00d0 0B       		.uleb128 0xb
 1963 00d1 0B       		.uleb128 0xb
 1964 00d2 3A       		.uleb128 0x3a
 1965 00d3 0B       		.uleb128 0xb
 1966 00d4 3B       		.uleb128 0x3b
 1967 00d5 0B       		.uleb128 0xb
 1968 00d6 01       		.uleb128 0x1
 1969 00d7 13       		.uleb128 0x13
 1970 00d8 00       		.byte	0
 1971 00d9 00       		.byte	0
 1972 00da 13       		.uleb128 0x13
 1973 00db 17       		.uleb128 0x17
 1974 00dc 01       		.byte	0x1
 1975 00dd 0B       		.uleb128 0xb
 1976 00de 0B       		.uleb128 0xb
 1977 00df 3A       		.uleb128 0x3a
 1978 00e0 0B       		.uleb128 0xb
 1979 00e1 3B       		.uleb128 0x3b
 1980 00e2 0B       		.uleb128 0xb
 1981 00e3 01       		.uleb128 0x1
 1982 00e4 13       		.uleb128 0x13
 1983 00e5 00       		.byte	0
 1984 00e6 00       		.byte	0
 1985 00e7 14       		.uleb128 0x14
 1986 00e8 0D       		.uleb128 0xd
 1987 00e9 00       		.byte	0
 1988 00ea 03       		.uleb128 0x3
ARM GAS  C:\Users\jo\AppData\Local\Temp\ccBf8mGB.s 			page 36


 1989 00eb 0E       		.uleb128 0xe
 1990 00ec 3A       		.uleb128 0x3a
 1991 00ed 0B       		.uleb128 0xb
 1992 00ee 3B       		.uleb128 0x3b
 1993 00ef 0B       		.uleb128 0xb
 1994 00f0 49       		.uleb128 0x49
 1995 00f1 13       		.uleb128 0x13
 1996 00f2 00       		.byte	0
 1997 00f3 00       		.byte	0
 1998 00f4 15       		.uleb128 0x15
 1999 00f5 0D       		.uleb128 0xd
 2000 00f6 00       		.byte	0
 2001 00f7 03       		.uleb128 0x3
 2002 00f8 0E       		.uleb128 0xe
 2003 00f9 3A       		.uleb128 0x3a
 2004 00fa 0B       		.uleb128 0xb
 2005 00fb 3B       		.uleb128 0x3b
 2006 00fc 05       		.uleb128 0x5
 2007 00fd 49       		.uleb128 0x49
 2008 00fe 13       		.uleb128 0x13
 2009 00ff 00       		.byte	0
 2010 0100 00       		.byte	0
 2011 0101 16       		.uleb128 0x16
 2012 0102 01       		.uleb128 0x1
 2013 0103 01       		.byte	0x1
 2014 0104 49       		.uleb128 0x49
 2015 0105 13       		.uleb128 0x13
 2016 0106 01       		.uleb128 0x1
 2017 0107 13       		.uleb128 0x13
 2018 0108 00       		.byte	0
 2019 0109 00       		.byte	0
 2020 010a 17       		.uleb128 0x17
 2021 010b 21       		.uleb128 0x21
 2022 010c 00       		.byte	0
 2023 010d 49       		.uleb128 0x49
 2024 010e 13       		.uleb128 0x13
 2025 010f 2F       		.uleb128 0x2f
 2026 0110 0B       		.uleb128 0xb
 2027 0111 00       		.byte	0
 2028 0112 00       		.byte	0
 2029 0113 18       		.uleb128 0x18
 2030 0114 04       		.uleb128 0x4
 2031 0115 01       		.byte	0x1
 2032 0116 0B       		.uleb128 0xb
 2033 0117 0B       		.uleb128 0xb
 2034 0118 3A       		.uleb128 0x3a
 2035 0119 0B       		.uleb128 0xb
 2036 011a 3B       		.uleb128 0x3b
 2037 011b 0B       		.uleb128 0xb
 2038 011c 01       		.uleb128 0x1
 2039 011d 13       		.uleb128 0x13
 2040 011e 00       		.byte	0
 2041 011f 00       		.byte	0
 2042 0120 19       		.uleb128 0x19
 2043 0121 28       		.uleb128 0x28
 2044 0122 00       		.byte	0
 2045 0123 03       		.uleb128 0x3
ARM GAS  C:\Users\jo\AppData\Local\Temp\ccBf8mGB.s 			page 37


 2046 0124 0E       		.uleb128 0xe
 2047 0125 1C       		.uleb128 0x1c
 2048 0126 0D       		.uleb128 0xd
 2049 0127 00       		.byte	0
 2050 0128 00       		.byte	0
 2051 0129 1A       		.uleb128 0x1a
 2052 012a 2E       		.uleb128 0x2e
 2053 012b 01       		.byte	0x1
 2054 012c 3F       		.uleb128 0x3f
 2055 012d 19       		.uleb128 0x19
 2056 012e 03       		.uleb128 0x3
 2057 012f 0E       		.uleb128 0xe
 2058 0130 3A       		.uleb128 0x3a
 2059 0131 0B       		.uleb128 0xb
 2060 0132 3B       		.uleb128 0x3b
 2061 0133 0B       		.uleb128 0xb
 2062 0134 27       		.uleb128 0x27
 2063 0135 19       		.uleb128 0x19
 2064 0136 49       		.uleb128 0x49
 2065 0137 13       		.uleb128 0x13
 2066 0138 20       		.uleb128 0x20
 2067 0139 0B       		.uleb128 0xb
 2068 013a 01       		.uleb128 0x1
 2069 013b 13       		.uleb128 0x13
 2070 013c 00       		.byte	0
 2071 013d 00       		.byte	0
 2072 013e 1B       		.uleb128 0x1b
 2073 013f 05       		.uleb128 0x5
 2074 0140 00       		.byte	0
 2075 0141 03       		.uleb128 0x3
 2076 0142 0E       		.uleb128 0xe
 2077 0143 3A       		.uleb128 0x3a
 2078 0144 0B       		.uleb128 0xb
 2079 0145 3B       		.uleb128 0x3b
 2080 0146 0B       		.uleb128 0xb
 2081 0147 49       		.uleb128 0x49
 2082 0148 13       		.uleb128 0x13
 2083 0149 00       		.byte	0
 2084 014a 00       		.byte	0
 2085 014b 1C       		.uleb128 0x1c
 2086 014c 34       		.uleb128 0x34
 2087 014d 00       		.byte	0
 2088 014e 03       		.uleb128 0x3
 2089 014f 0E       		.uleb128 0xe
 2090 0150 3A       		.uleb128 0x3a
 2091 0151 0B       		.uleb128 0xb
 2092 0152 3B       		.uleb128 0x3b
 2093 0153 0B       		.uleb128 0xb
 2094 0154 49       		.uleb128 0x49
 2095 0155 13       		.uleb128 0x13
 2096 0156 00       		.byte	0
 2097 0157 00       		.byte	0
 2098 0158 1D       		.uleb128 0x1d
 2099 0159 2E       		.uleb128 0x2e
 2100 015a 00       		.byte	0
 2101 015b 3F       		.uleb128 0x3f
 2102 015c 19       		.uleb128 0x19
ARM GAS  C:\Users\jo\AppData\Local\Temp\ccBf8mGB.s 			page 38


 2103 015d 03       		.uleb128 0x3
 2104 015e 0E       		.uleb128 0xe
 2105 015f 3A       		.uleb128 0x3a
 2106 0160 0B       		.uleb128 0xb
 2107 0161 3B       		.uleb128 0x3b
 2108 0162 0B       		.uleb128 0xb
 2109 0163 27       		.uleb128 0x27
 2110 0164 19       		.uleb128 0x19
 2111 0165 49       		.uleb128 0x49
 2112 0166 13       		.uleb128 0x13
 2113 0167 11       		.uleb128 0x11
 2114 0168 01       		.uleb128 0x1
 2115 0169 12       		.uleb128 0x12
 2116 016a 06       		.uleb128 0x6
 2117 016b 40       		.uleb128 0x40
 2118 016c 18       		.uleb128 0x18
 2119 016d 9742     		.uleb128 0x2117
 2120 016f 19       		.uleb128 0x19
 2121 0170 00       		.byte	0
 2122 0171 00       		.byte	0
 2123 0172 1E       		.uleb128 0x1e
 2124 0173 2E       		.uleb128 0x2e
 2125 0174 01       		.byte	0x1
 2126 0175 31       		.uleb128 0x31
 2127 0176 13       		.uleb128 0x13
 2128 0177 11       		.uleb128 0x11
 2129 0178 01       		.uleb128 0x1
 2130 0179 12       		.uleb128 0x12
 2131 017a 06       		.uleb128 0x6
 2132 017b 40       		.uleb128 0x40
 2133 017c 18       		.uleb128 0x18
 2134 017d 9742     		.uleb128 0x2117
 2135 017f 19       		.uleb128 0x19
 2136 0180 01       		.uleb128 0x1
 2137 0181 13       		.uleb128 0x13
 2138 0182 00       		.byte	0
 2139 0183 00       		.byte	0
 2140 0184 1F       		.uleb128 0x1f
 2141 0185 05       		.uleb128 0x5
 2142 0186 00       		.byte	0
 2143 0187 31       		.uleb128 0x31
 2144 0188 13       		.uleb128 0x13
 2145 0189 02       		.uleb128 0x2
 2146 018a 17       		.uleb128 0x17
 2147 018b 00       		.byte	0
 2148 018c 00       		.byte	0
 2149 018d 20       		.uleb128 0x20
 2150 018e 34       		.uleb128 0x34
 2151 018f 00       		.byte	0
 2152 0190 31       		.uleb128 0x31
 2153 0191 13       		.uleb128 0x13
 2154 0192 02       		.uleb128 0x2
 2155 0193 17       		.uleb128 0x17
 2156 0194 00       		.byte	0
 2157 0195 00       		.byte	0
 2158 0196 21       		.uleb128 0x21
 2159 0197 2E       		.uleb128 0x2e
ARM GAS  C:\Users\jo\AppData\Local\Temp\ccBf8mGB.s 			page 39


 2160 0198 00       		.byte	0
 2161 0199 3F       		.uleb128 0x3f
 2162 019a 19       		.uleb128 0x19
 2163 019b 03       		.uleb128 0x3
 2164 019c 0E       		.uleb128 0xe
 2165 019d 3A       		.uleb128 0x3a
 2166 019e 0B       		.uleb128 0xb
 2167 019f 3B       		.uleb128 0x3b
 2168 01a0 0B       		.uleb128 0xb
 2169 01a1 27       		.uleb128 0x27
 2170 01a2 19       		.uleb128 0x19
 2171 01a3 11       		.uleb128 0x11
 2172 01a4 01       		.uleb128 0x1
 2173 01a5 12       		.uleb128 0x12
 2174 01a6 06       		.uleb128 0x6
 2175 01a7 40       		.uleb128 0x40
 2176 01a8 18       		.uleb128 0x18
 2177 01a9 9742     		.uleb128 0x2117
 2178 01ab 19       		.uleb128 0x19
 2179 01ac 00       		.byte	0
 2180 01ad 00       		.byte	0
 2181 01ae 22       		.uleb128 0x22
 2182 01af 2E       		.uleb128 0x2e
 2183 01b0 01       		.byte	0x1
 2184 01b1 3F       		.uleb128 0x3f
 2185 01b2 19       		.uleb128 0x19
 2186 01b3 03       		.uleb128 0x3
 2187 01b4 0E       		.uleb128 0xe
 2188 01b5 3A       		.uleb128 0x3a
 2189 01b6 0B       		.uleb128 0xb
 2190 01b7 3B       		.uleb128 0x3b
 2191 01b8 0B       		.uleb128 0xb
 2192 01b9 27       		.uleb128 0x27
 2193 01ba 19       		.uleb128 0x19
 2194 01bb 49       		.uleb128 0x49
 2195 01bc 13       		.uleb128 0x13
 2196 01bd 11       		.uleb128 0x11
 2197 01be 01       		.uleb128 0x1
 2198 01bf 12       		.uleb128 0x12
 2199 01c0 06       		.uleb128 0x6
 2200 01c1 40       		.uleb128 0x40
 2201 01c2 18       		.uleb128 0x18
 2202 01c3 9742     		.uleb128 0x2117
 2203 01c5 19       		.uleb128 0x19
 2204 01c6 01       		.uleb128 0x1
 2205 01c7 13       		.uleb128 0x13
 2206 01c8 00       		.byte	0
 2207 01c9 00       		.byte	0
 2208 01ca 23       		.uleb128 0x23
 2209 01cb 05       		.uleb128 0x5
 2210 01cc 00       		.byte	0
 2211 01cd 03       		.uleb128 0x3
 2212 01ce 0E       		.uleb128 0xe
 2213 01cf 3A       		.uleb128 0x3a
 2214 01d0 0B       		.uleb128 0xb
 2215 01d1 3B       		.uleb128 0x3b
 2216 01d2 0B       		.uleb128 0xb
ARM GAS  C:\Users\jo\AppData\Local\Temp\ccBf8mGB.s 			page 40


 2217 01d3 49       		.uleb128 0x49
 2218 01d4 13       		.uleb128 0x13
 2219 01d5 02       		.uleb128 0x2
 2220 01d6 17       		.uleb128 0x17
 2221 01d7 00       		.byte	0
 2222 01d8 00       		.byte	0
 2223 01d9 24       		.uleb128 0x24
 2224 01da 2E       		.uleb128 0x2e
 2225 01db 01       		.byte	0x1
 2226 01dc 3F       		.uleb128 0x3f
 2227 01dd 19       		.uleb128 0x19
 2228 01de 03       		.uleb128 0x3
 2229 01df 0E       		.uleb128 0xe
 2230 01e0 3A       		.uleb128 0x3a
 2231 01e1 0B       		.uleb128 0xb
 2232 01e2 3B       		.uleb128 0x3b
 2233 01e3 0B       		.uleb128 0xb
 2234 01e4 27       		.uleb128 0x27
 2235 01e5 19       		.uleb128 0x19
 2236 01e6 11       		.uleb128 0x11
 2237 01e7 01       		.uleb128 0x1
 2238 01e8 12       		.uleb128 0x12
 2239 01e9 06       		.uleb128 0x6
 2240 01ea 40       		.uleb128 0x40
 2241 01eb 18       		.uleb128 0x18
 2242 01ec 9742     		.uleb128 0x2117
 2243 01ee 19       		.uleb128 0x19
 2244 01ef 01       		.uleb128 0x1
 2245 01f0 13       		.uleb128 0x13
 2246 01f1 00       		.byte	0
 2247 01f2 00       		.byte	0
 2248 01f3 25       		.uleb128 0x25
 2249 01f4 1D       		.uleb128 0x1d
 2250 01f5 01       		.byte	0x1
 2251 01f6 31       		.uleb128 0x31
 2252 01f7 13       		.uleb128 0x13
 2253 01f8 11       		.uleb128 0x11
 2254 01f9 01       		.uleb128 0x1
 2255 01fa 12       		.uleb128 0x12
 2256 01fb 06       		.uleb128 0x6
 2257 01fc 58       		.uleb128 0x58
 2258 01fd 0B       		.uleb128 0xb
 2259 01fe 59       		.uleb128 0x59
 2260 01ff 0B       		.uleb128 0xb
 2261 0200 00       		.byte	0
 2262 0201 00       		.byte	0
 2263 0202 26       		.uleb128 0x26
 2264 0203 05       		.uleb128 0x5
 2265 0204 00       		.byte	0
 2266 0205 31       		.uleb128 0x31
 2267 0206 13       		.uleb128 0x13
 2268 0207 1C       		.uleb128 0x1c
 2269 0208 0B       		.uleb128 0xb
 2270 0209 00       		.byte	0
 2271 020a 00       		.byte	0
 2272 020b 27       		.uleb128 0x27
 2273 020c 05       		.uleb128 0x5
ARM GAS  C:\Users\jo\AppData\Local\Temp\ccBf8mGB.s 			page 41


 2274 020d 00       		.byte	0
 2275 020e 31       		.uleb128 0x31
 2276 020f 13       		.uleb128 0x13
 2277 0210 1C       		.uleb128 0x1c
 2278 0211 05       		.uleb128 0x5
 2279 0212 00       		.byte	0
 2280 0213 00       		.byte	0
 2281 0214 28       		.uleb128 0x28
 2282 0215 34       		.uleb128 0x34
 2283 0216 00       		.byte	0
 2284 0217 03       		.uleb128 0x3
 2285 0218 0E       		.uleb128 0xe
 2286 0219 3A       		.uleb128 0x3a
 2287 021a 0B       		.uleb128 0xb
 2288 021b 3B       		.uleb128 0x3b
 2289 021c 0B       		.uleb128 0xb
 2290 021d 49       		.uleb128 0x49
 2291 021e 13       		.uleb128 0x13
 2292 021f 02       		.uleb128 0x2
 2293 0220 17       		.uleb128 0x17
 2294 0221 00       		.byte	0
 2295 0222 00       		.byte	0
 2296 0223 29       		.uleb128 0x29
 2297 0224 34       		.uleb128 0x34
 2298 0225 00       		.byte	0
 2299 0226 03       		.uleb128 0x3
 2300 0227 0E       		.uleb128 0xe
 2301 0228 3A       		.uleb128 0x3a
 2302 0229 0B       		.uleb128 0xb
 2303 022a 3B       		.uleb128 0x3b
 2304 022b 0B       		.uleb128 0xb
 2305 022c 49       		.uleb128 0x49
 2306 022d 13       		.uleb128 0x13
 2307 022e 02       		.uleb128 0x2
 2308 022f 18       		.uleb128 0x18
 2309 0230 00       		.byte	0
 2310 0231 00       		.byte	0
 2311 0232 2A       		.uleb128 0x2a
 2312 0233 05       		.uleb128 0x5
 2313 0234 00       		.byte	0
 2314 0235 31       		.uleb128 0x31
 2315 0236 13       		.uleb128 0x13
 2316 0237 02       		.uleb128 0x2
 2317 0238 18       		.uleb128 0x18
 2318 0239 00       		.byte	0
 2319 023a 00       		.byte	0
 2320 023b 2B       		.uleb128 0x2b
 2321 023c 0B       		.uleb128 0xb
 2322 023d 01       		.byte	0x1
 2323 023e 11       		.uleb128 0x11
 2324 023f 01       		.uleb128 0x1
 2325 0240 12       		.uleb128 0x12
 2326 0241 06       		.uleb128 0x6
 2327 0242 00       		.byte	0
 2328 0243 00       		.byte	0
 2329 0244 2C       		.uleb128 0x2c
 2330 0245 34       		.uleb128 0x34
ARM GAS  C:\Users\jo\AppData\Local\Temp\ccBf8mGB.s 			page 42


 2331 0246 00       		.byte	0
 2332 0247 03       		.uleb128 0x3
 2333 0248 0E       		.uleb128 0xe
 2334 0249 3A       		.uleb128 0x3a
 2335 024a 0B       		.uleb128 0xb
 2336 024b 3B       		.uleb128 0x3b
 2337 024c 05       		.uleb128 0x5
 2338 024d 49       		.uleb128 0x49
 2339 024e 13       		.uleb128 0x13
 2340 024f 3F       		.uleb128 0x3f
 2341 0250 19       		.uleb128 0x19
 2342 0251 3C       		.uleb128 0x3c
 2343 0252 19       		.uleb128 0x19
 2344 0253 00       		.byte	0
 2345 0254 00       		.byte	0
 2346 0255 2D       		.uleb128 0x2d
 2347 0256 34       		.uleb128 0x34
 2348 0257 00       		.byte	0
 2349 0258 03       		.uleb128 0x3
 2350 0259 08       		.uleb128 0x8
 2351 025a 3A       		.uleb128 0x3a
 2352 025b 0B       		.uleb128 0xb
 2353 025c 3B       		.uleb128 0x3b
 2354 025d 05       		.uleb128 0x5
 2355 025e 49       		.uleb128 0x49
 2356 025f 13       		.uleb128 0x13
 2357 0260 3F       		.uleb128 0x3f
 2358 0261 19       		.uleb128 0x19
 2359 0262 3C       		.uleb128 0x3c
 2360 0263 19       		.uleb128 0x19
 2361 0264 00       		.byte	0
 2362 0265 00       		.byte	0
 2363 0266 00       		.byte	0
 2364              		.section	.debug_loc,"",%progbits
 2365              	.Ldebug_loc0:
 2366              	.LLST0:
 2367 0000 00000000 		.4byte	.LVL0
 2368 0004 08000000 		.4byte	.LVL1
 2369 0008 0100     		.2byte	0x1
 2370 000a 50       		.byte	0x50
 2371 000b 08000000 		.4byte	.LVL1
 2372 000f 14000000 		.4byte	.LFE257
 2373 0013 0400     		.2byte	0x4
 2374 0015 F3       		.byte	0xf3
 2375 0016 01       		.uleb128 0x1
 2376 0017 50       		.byte	0x50
 2377 0018 9F       		.byte	0x9f
 2378 0019 00000000 		.4byte	0
 2379 001d 00000000 		.4byte	0
 2380              	.LLST1:
 2381 0021 00000000 		.4byte	.LVL2
 2382 0025 12000000 		.4byte	.LVL4
 2383 0029 0100     		.2byte	0x1
 2384 002b 50       		.byte	0x50
 2385 002c 12000000 		.4byte	.LVL4
 2386 0030 14000000 		.4byte	.LVL5
 2387 0034 0400     		.2byte	0x4
ARM GAS  C:\Users\jo\AppData\Local\Temp\ccBf8mGB.s 			page 43


 2388 0036 F3       		.byte	0xf3
 2389 0037 01       		.uleb128 0x1
 2390 0038 50       		.byte	0x50
 2391 0039 9F       		.byte	0x9f
 2392 003a 14000000 		.4byte	.LVL5
 2393 003e 16000000 		.4byte	.LVL6
 2394 0042 0100     		.2byte	0x1
 2395 0044 50       		.byte	0x50
 2396 0045 16000000 		.4byte	.LVL6
 2397 0049 20000000 		.4byte	.LFE258
 2398 004d 0400     		.2byte	0x4
 2399 004f F3       		.byte	0xf3
 2400 0050 01       		.uleb128 0x1
 2401 0051 50       		.byte	0x50
 2402 0052 9F       		.byte	0x9f
 2403 0053 00000000 		.4byte	0
 2404 0057 00000000 		.4byte	0
 2405              	.LLST2:
 2406 005b 00000000 		.4byte	.LVL2
 2407 005f 10000000 		.4byte	.LVL3
 2408 0063 0200     		.2byte	0x2
 2409 0065 30       		.byte	0x30
 2410 0066 9F       		.byte	0x9f
 2411 0067 10000000 		.4byte	.LVL3
 2412 006b 14000000 		.4byte	.LVL5
 2413 006f 0200     		.2byte	0x2
 2414 0071 31       		.byte	0x31
 2415 0072 9F       		.byte	0x9f
 2416 0073 14000000 		.4byte	.LVL5
 2417 0077 16000000 		.4byte	.LVL6
 2418 007b 0200     		.2byte	0x2
 2419 007d 30       		.byte	0x30
 2420 007e 9F       		.byte	0x9f
 2421 007f 16000000 		.4byte	.LVL6
 2422 0083 20000000 		.4byte	.LFE258
 2423 0087 0100     		.2byte	0x1
 2424 0089 50       		.byte	0x50
 2425 008a 00000000 		.4byte	0
 2426 008e 00000000 		.4byte	0
 2427              	.LLST3:
 2428 0092 00000000 		.4byte	.LVL7
 2429 0096 04000000 		.4byte	.LVL8
 2430 009a 0100     		.2byte	0x1
 2431 009c 50       		.byte	0x50
 2432 009d 04000000 		.4byte	.LVL8
 2433 00a1 0C000000 		.4byte	.LFE260
 2434 00a5 0400     		.2byte	0x4
 2435 00a7 F3       		.byte	0xf3
 2436 00a8 01       		.uleb128 0x1
 2437 00a9 50       		.byte	0x50
 2438 00aa 9F       		.byte	0x9f
 2439 00ab 00000000 		.4byte	0
 2440 00af 00000000 		.4byte	0
 2441              	.LLST4:
 2442 00b3 00000000 		.4byte	.LVL9
 2443 00b7 06000000 		.4byte	.LVL11
 2444 00bb 0100     		.2byte	0x1
ARM GAS  C:\Users\jo\AppData\Local\Temp\ccBf8mGB.s 			page 44


 2445 00bd 50       		.byte	0x50
 2446 00be 06000000 		.4byte	.LVL11
 2447 00c2 18000000 		.4byte	.LFE263
 2448 00c6 0400     		.2byte	0x4
 2449 00c8 F3       		.byte	0xf3
 2450 00c9 01       		.uleb128 0x1
 2451 00ca 50       		.byte	0x50
 2452 00cb 9F       		.byte	0x9f
 2453 00cc 00000000 		.4byte	0
 2454 00d0 00000000 		.4byte	0
 2455              	.LLST5:
 2456 00d4 00000000 		.4byte	.LVL9
 2457 00d8 02000000 		.4byte	.LVL10
 2458 00dc 0100     		.2byte	0x1
 2459 00de 51       		.byte	0x51
 2460 00df 02000000 		.4byte	.LVL10
 2461 00e3 18000000 		.4byte	.LFE263
 2462 00e7 0400     		.2byte	0x4
 2463 00e9 F3       		.byte	0xf3
 2464 00ea 01       		.uleb128 0x1
 2465 00eb 51       		.byte	0x51
 2466 00ec 9F       		.byte	0x9f
 2467 00ed 00000000 		.4byte	0
 2468 00f1 00000000 		.4byte	0
 2469              	.LLST6:
 2470 00f5 00000000 		.4byte	.LVL9
 2471 00f9 08000000 		.4byte	.LVL12
 2472 00fd 0100     		.2byte	0x1
 2473 00ff 52       		.byte	0x52
 2474 0100 08000000 		.4byte	.LVL12
 2475 0104 18000000 		.4byte	.LFE263
 2476 0108 0400     		.2byte	0x4
 2477 010a F3       		.byte	0xf3
 2478 010b 01       		.uleb128 0x1
 2479 010c 52       		.byte	0x52
 2480 010d 9F       		.byte	0x9f
 2481 010e 00000000 		.4byte	0
 2482 0112 00000000 		.4byte	0
 2483              	.LLST7:
 2484 0116 00000000 		.4byte	.LVL13
 2485 011a 06000000 		.4byte	.LVL15
 2486 011e 0100     		.2byte	0x1
 2487 0120 50       		.byte	0x50
 2488 0121 06000000 		.4byte	.LVL15
 2489 0125 18000000 		.4byte	.LFE264
 2490 0129 0400     		.2byte	0x4
 2491 012b F3       		.byte	0xf3
 2492 012c 01       		.uleb128 0x1
 2493 012d 50       		.byte	0x50
 2494 012e 9F       		.byte	0x9f
 2495 012f 00000000 		.4byte	0
 2496 0133 00000000 		.4byte	0
 2497              	.LLST8:
 2498 0137 00000000 		.4byte	.LVL13
 2499 013b 02000000 		.4byte	.LVL14
 2500 013f 0100     		.2byte	0x1
 2501 0141 51       		.byte	0x51
ARM GAS  C:\Users\jo\AppData\Local\Temp\ccBf8mGB.s 			page 45


 2502 0142 02000000 		.4byte	.LVL14
 2503 0146 18000000 		.4byte	.LFE264
 2504 014a 0400     		.2byte	0x4
 2505 014c F3       		.byte	0xf3
 2506 014d 01       		.uleb128 0x1
 2507 014e 51       		.byte	0x51
 2508 014f 9F       		.byte	0x9f
 2509 0150 00000000 		.4byte	0
 2510 0154 00000000 		.4byte	0
 2511              	.LLST9:
 2512 0158 00000000 		.4byte	.LVL13
 2513 015c 08000000 		.4byte	.LVL16
 2514 0160 0100     		.2byte	0x1
 2515 0162 52       		.byte	0x52
 2516 0163 08000000 		.4byte	.LVL16
 2517 0167 18000000 		.4byte	.LFE264
 2518 016b 0400     		.2byte	0x4
 2519 016d F3       		.byte	0xf3
 2520 016e 01       		.uleb128 0x1
 2521 016f 52       		.byte	0x52
 2522 0170 9F       		.byte	0x9f
 2523 0171 00000000 		.4byte	0
 2524 0175 00000000 		.4byte	0
 2525              	.LLST10:
 2526 0179 00000000 		.4byte	.LVL17
 2527 017d 06000000 		.4byte	.LVL19
 2528 0181 0100     		.2byte	0x1
 2529 0183 50       		.byte	0x50
 2530 0184 06000000 		.4byte	.LVL19
 2531 0188 18000000 		.4byte	.LFE265
 2532 018c 0400     		.2byte	0x4
 2533 018e F3       		.byte	0xf3
 2534 018f 01       		.uleb128 0x1
 2535 0190 50       		.byte	0x50
 2536 0191 9F       		.byte	0x9f
 2537 0192 00000000 		.4byte	0
 2538 0196 00000000 		.4byte	0
 2539              	.LLST11:
 2540 019a 00000000 		.4byte	.LVL17
 2541 019e 02000000 		.4byte	.LVL18
 2542 01a2 0100     		.2byte	0x1
 2543 01a4 51       		.byte	0x51
 2544 01a5 02000000 		.4byte	.LVL18
 2545 01a9 18000000 		.4byte	.LFE265
 2546 01ad 0400     		.2byte	0x4
 2547 01af F3       		.byte	0xf3
 2548 01b0 01       		.uleb128 0x1
 2549 01b1 51       		.byte	0x51
 2550 01b2 9F       		.byte	0x9f
 2551 01b3 00000000 		.4byte	0
 2552 01b7 00000000 		.4byte	0
 2553              	.LLST12:
 2554 01bb 00000000 		.4byte	.LVL17
 2555 01bf 08000000 		.4byte	.LVL20
 2556 01c3 0100     		.2byte	0x1
 2557 01c5 52       		.byte	0x52
 2558 01c6 08000000 		.4byte	.LVL20
ARM GAS  C:\Users\jo\AppData\Local\Temp\ccBf8mGB.s 			page 46


 2559 01ca 18000000 		.4byte	.LFE265
 2560 01ce 0400     		.2byte	0x4
 2561 01d0 F3       		.byte	0xf3
 2562 01d1 01       		.uleb128 0x1
 2563 01d2 52       		.byte	0x52
 2564 01d3 9F       		.byte	0x9f
 2565 01d4 00000000 		.4byte	0
 2566 01d8 00000000 		.4byte	0
 2567              	.LLST13:
 2568 01dc 00000000 		.4byte	.LVL22
 2569 01e0 1E000000 		.4byte	.LVL25
 2570 01e4 0200     		.2byte	0x2
 2571 01e6 30       		.byte	0x30
 2572 01e7 9F       		.byte	0x9f
 2573 01e8 1E000000 		.4byte	.LVL25
 2574 01ec 28000000 		.4byte	.LFE267
 2575 01f0 0100     		.2byte	0x1
 2576 01f2 50       		.byte	0x50
 2577 01f3 00000000 		.4byte	0
 2578 01f7 00000000 		.4byte	0
 2579              	.LLST14:
 2580 01fb 00000000 		.4byte	.LVL22
 2581 01ff 0E000000 		.4byte	.LVL24
 2582 0203 0200     		.2byte	0x2
 2583 0205 30       		.byte	0x30
 2584 0206 9F       		.byte	0x9f
 2585 0207 00000000 		.4byte	0
 2586 020b 00000000 		.4byte	0
 2587              		.section	.debug_aranges,"",%progbits
 2588 0000 74000000 		.4byte	0x74
 2589 0004 0200     		.2byte	0x2
 2590 0006 00000000 		.4byte	.Ldebug_info0
 2591 000a 04       		.byte	0x4
 2592 000b 00       		.byte	0
 2593 000c 0000     		.2byte	0
 2594 000e 0000     		.2byte	0
 2595 0010 00000000 		.4byte	.LFB256
 2596 0014 10000000 		.4byte	.LFE256-.LFB256
 2597 0018 00000000 		.4byte	.LFB257
 2598 001c 14000000 		.4byte	.LFE257-.LFB257
 2599 0020 00000000 		.4byte	.LFB258
 2600 0024 20000000 		.4byte	.LFE258-.LFB258
 2601 0028 00000000 		.4byte	.LFB259
 2602 002c 0C000000 		.4byte	.LFE259-.LFB259
 2603 0030 00000000 		.4byte	.LFB260
 2604 0034 0C000000 		.4byte	.LFE260-.LFB260
 2605 0038 00000000 		.4byte	.LFB261
 2606 003c 0C000000 		.4byte	.LFE261-.LFB261
 2607 0040 00000000 		.4byte	.LFB262
 2608 0044 0C000000 		.4byte	.LFE262-.LFB262
 2609 0048 00000000 		.4byte	.LFB263
 2610 004c 18000000 		.4byte	.LFE263-.LFB263
 2611 0050 00000000 		.4byte	.LFB264
 2612 0054 18000000 		.4byte	.LFE264-.LFB264
 2613 0058 00000000 		.4byte	.LFB265
 2614 005c 18000000 		.4byte	.LFE265-.LFB265
 2615 0060 00000000 		.4byte	.LFB266
ARM GAS  C:\Users\jo\AppData\Local\Temp\ccBf8mGB.s 			page 47


 2616 0064 18000000 		.4byte	.LFE266-.LFB266
 2617 0068 00000000 		.4byte	.LFB267
 2618 006c 28000000 		.4byte	.LFE267-.LFB267
 2619 0070 00000000 		.4byte	0
 2620 0074 00000000 		.4byte	0
 2621              		.section	.debug_ranges,"",%progbits
 2622              	.Ldebug_ranges0:
 2623 0000 00000000 		.4byte	.LFB256
 2624 0004 10000000 		.4byte	.LFE256
 2625 0008 00000000 		.4byte	.LFB257
 2626 000c 14000000 		.4byte	.LFE257
 2627 0010 00000000 		.4byte	.LFB258
 2628 0014 20000000 		.4byte	.LFE258
 2629 0018 00000000 		.4byte	.LFB259
 2630 001c 0C000000 		.4byte	.LFE259
 2631 0020 00000000 		.4byte	.LFB260
 2632 0024 0C000000 		.4byte	.LFE260
 2633 0028 00000000 		.4byte	.LFB261
 2634 002c 0C000000 		.4byte	.LFE261
 2635 0030 00000000 		.4byte	.LFB262
 2636 0034 0C000000 		.4byte	.LFE262
 2637 0038 00000000 		.4byte	.LFB263
 2638 003c 18000000 		.4byte	.LFE263
 2639 0040 00000000 		.4byte	.LFB264
 2640 0044 18000000 		.4byte	.LFE264
 2641 0048 00000000 		.4byte	.LFB265
 2642 004c 18000000 		.4byte	.LFE265
 2643 0050 00000000 		.4byte	.LFB266
 2644 0054 18000000 		.4byte	.LFE266
 2645 0058 00000000 		.4byte	.LFB267
 2646 005c 28000000 		.4byte	.LFE267
 2647 0060 00000000 		.4byte	0
 2648 0064 00000000 		.4byte	0
 2649              		.section	.debug_line,"",%progbits
 2650              	.Ldebug_line0:
 2651 0000 94030000 		.section	.debug_str,"MS",%progbits,1
 2651      02008202 
 2651      00000201 
 2651      FB0E0D00 
 2651      01010101 
 2652              	.LASF104:
 2653 0000 45565F46 		.ascii	"EV_FRAME_SENT\000"
 2653      52414D45 
 2653      5F53454E 
 2653      5400
 2654              	.LASF51:
 2655 000e 72656164 		.ascii	"ready_list_t\000"
 2655      795F6C69 
 2655      73745F74 
 2655      00
 2656              	.LASF2:
 2657 001b 73697A65 		.ascii	"size_t\000"
 2657      5F7400
 2658              	.LASF123:
 2659 0022 654D424D 		.ascii	"eMBMasterReqErrCode\000"
 2659      61737465 
 2659      72526571 
ARM GAS  C:\Users\jo\AppData\Local\Temp\ccBf8mGB.s 			page 48


 2659      45727243 
 2659      6F646500 
 2660              	.LASF19:
 2661 0036 75696E74 		.ascii	"uint64_t\000"
 2661      36345F74 
 2661      00
 2662              	.LASF3:
 2663 003f 5F5F7569 		.ascii	"__uint8_t\000"
 2663      6E74385F 
 2663      7400
 2664              	.LASF83:
 2665 0049 706F7274 		.ascii	"port_intctx\000"
 2665      5F696E74 
 2665      63747800 
 2666              	.LASF70:
 2667 0055 73797374 		.ascii	"system_debug_t\000"
 2667      656D5F64 
 2667      65627567 
 2667      5F7400
 2668              	.LASF103:
 2669 0064 45565F45 		.ascii	"EV_EXECUTE\000"
 2669      58454355 
 2669      544500
 2670              	.LASF122:
 2671 006f 4D425F4D 		.ascii	"MB_MRE_EXE_FUN\000"
 2671      52455F45 
 2671      58455F46 
 2671      554E00
 2672              	.LASF131:
 2673 007e 75634465 		.ascii	"ucDestAddress\000"
 2673      73744164 
 2673      64726573 
 2673      7300
 2674              	.LASF147:
 2675 008c 46726565 		.ascii	"FreeModbus/port/rtt/portevent_m.c\000"
 2675      4D6F6462 
 2675      75732F70 
 2675      6F72742F 
 2675      7274742F 
 2676              	.LASF14:
 2677 00ae 6C6F6E67 		.ascii	"long long unsigned int\000"
 2677      206C6F6E 
 2677      6720756E 
 2677      7369676E 
 2677      65642069 
 2678              	.LASF88:
 2679 00c5 65786974 		.ascii	"exitcode\000"
 2679      636F6465 
 2679      00
 2680              	.LASF77:
 2681 00ce 6D61696E 		.ascii	"mainthread\000"
 2681      74687265 
 2681      616400
 2682              	.LASF67:
 2683 00d9 76697274 		.ascii	"virtual_timers_list_t\000"
 2683      75616C5F 
 2683      74696D65 
ARM GAS  C:\Users\jo\AppData\Local\Temp\ccBf8mGB.s 			page 49


 2683      72735F6C 
 2683      6973745F 
 2684              	.LASF145:
 2685 00ef 49544D5F 		.ascii	"ITM_RxBuffer\000"
 2685      52784275 
 2685      66666572 
 2685      00
 2686              	.LASF50:
 2687 00fc 63685F74 		.ascii	"ch_threads_queue\000"
 2687      68726561 
 2687      64735F71 
 2687      75657565 
 2687      00
 2688              	.LASF149:
 2689 010d 78457665 		.ascii	"xEventHappened\000"
 2689      6E744861 
 2689      7070656E 
 2689      656400
 2690              	.LASF100:
 2691 011c 4C4F4E47 		.ascii	"LONG\000"
 2691      00
 2692              	.LASF31:
 2693 0121 705F7072 		.ascii	"p_prio\000"
 2693      696F00
 2694              	.LASF116:
 2695 0128 4D425F4D 		.ascii	"MB_MRE_NO_ERR\000"
 2695      52455F4E 
 2695      4F5F4552 
 2695      5200
 2696              	.LASF12:
 2697 0136 6C6F6E67 		.ascii	"long long int\000"
 2697      206C6F6E 
 2697      6720696E 
 2697      7400
 2698              	.LASF1:
 2699 0144 7369676E 		.ascii	"signed char\000"
 2699      65642063 
 2699      68617200 
 2700              	.LASF45:
 2701 0150 705F6D70 		.ascii	"p_mpool\000"
 2701      6F6F6C00 
 2702              	.LASF92:
 2703 0158 6D5F7175 		.ascii	"m_queue\000"
 2703      65756500 
 2704              	.LASF142:
 2705 0160 65517565 		.ascii	"eQueuedEvent\000"
 2705      75656445 
 2705      76656E74 
 2705      00
 2706              	.LASF76:
 2707 016d 76746C69 		.ascii	"vtlist\000"
 2707      737400
 2708              	.LASF111:
 2709 0174 45565F4D 		.ascii	"EV_MASTER_PROCESS_SUCESS\000"
 2709      41535445 
 2709      525F5052 
 2709      4F434553 
ARM GAS  C:\Users\jo\AppData\Local\Temp\ccBf8mGB.s 			page 50


 2709      535F5355 
 2710              	.LASF98:
 2711 018d 55434841 		.ascii	"UCHAR\000"
 2711      5200
 2712              	.LASF74:
 2713 0193 63685F73 		.ascii	"ch_system\000"
 2713      79737465 
 2713      6D00
 2714              	.LASF9:
 2715 019d 6C6F6E67 		.ascii	"long int\000"
 2715      20696E74 
 2715      00
 2716              	.LASF22:
 2717 01a6 74737461 		.ascii	"tstate_t\000"
 2717      74655F74 
 2717      00
 2718              	.LASF115:
 2719 01af 654D424D 		.ascii	"eMBMasterEventType\000"
 2719      61737465 
 2719      72457665 
 2719      6E745479 
 2719      706500
 2720              	.LASF108:
 2721 01c2 45565F4D 		.ascii	"EV_MASTER_EXECUTE\000"
 2721      41535445 
 2721      525F4558 
 2721      45435554 
 2721      4500
 2722              	.LASF33:
 2723 01d4 705F6E65 		.ascii	"p_newer\000"
 2723      77657200 
 2724              	.LASF56:
 2725 01dc 725F6E65 		.ascii	"r_newer\000"
 2725      77657200 
 2726              	.LASF101:
 2727 01e4 45565F52 		.ascii	"EV_READY\000"
 2727      45414459 
 2727      00
 2728              	.LASF80:
 2729 01ed 72656761 		.ascii	"regarm_t\000"
 2729      726D5F74 
 2729      00
 2730              	.LASF63:
 2731 01f6 76745F70 		.ascii	"vt_prev\000"
 2731      72657600 
 2732              	.LASF95:
 2733 01fe 6D757465 		.ascii	"mutex_t\000"
 2733      785F7400 
 2734              	.LASF78:
 2735 0206 69646C65 		.ascii	"idle_thread_wa\000"
 2735      5F746872 
 2735      6561645F 
 2735      776100
 2736              	.LASF107:
 2737 0215 45565F4D 		.ascii	"EV_MASTER_FRAME_RECEIVED\000"
 2737      41535445 
 2737      525F4652 
ARM GAS  C:\Users\jo\AppData\Local\Temp\ccBf8mGB.s 			page 51


 2737      414D455F 
 2737      52454345 
 2738              	.LASF129:
 2739 022e 764D424D 		.ascii	"vMBMasterRunResRelease\000"
 2739      61737465 
 2739      7252756E 
 2739      52657352 
 2739      656C6561 
 2740              	.LASF0:
 2741 0245 756E7369 		.ascii	"unsigned int\000"
 2741      676E6564 
 2741      20696E74 
 2741      00
 2742              	.LASF62:
 2743 0252 76745F6E 		.ascii	"vt_next\000"
 2743      65787400 
 2744              	.LASF133:
 2745 025a 75635044 		.ascii	"ucPDULength\000"
 2745      554C656E 
 2745      67746800 
 2746              	.LASF105:
 2747 0266 654D4245 		.ascii	"eMBEventType\000"
 2747      76656E74 
 2747      54797065 
 2747      00
 2748              	.LASF64:
 2749 0273 76745F64 		.ascii	"vt_delta\000"
 2749      656C7461 
 2749      00
 2750              	.LASF40:
 2751 027c 705F6D73 		.ascii	"p_msgqueue\000"
 2751      67717565 
 2751      756500
 2752              	.LASF134:
 2753 0287 764D424D 		.ascii	"vMBMasterErrorCBRespondTimeout\000"
 2753      61737465 
 2753      72457272 
 2753      6F724342 
 2753      52657370 
 2754              	.LASF97:
 2755 02a6 424F4F4C 		.ascii	"BOOL\000"
 2755      00
 2756              	.LASF110:
 2757 02ab 45565F4D 		.ascii	"EV_MASTER_ERROR_PROCESS\000"
 2757      41535445 
 2757      525F4552 
 2757      524F525F 
 2757      50524F43 
 2758              	.LASF7:
 2759 02c3 73686F72 		.ascii	"short unsigned int\000"
 2759      7420756E 
 2759      7369676E 
 2759      65642069 
 2759      6E7400
 2760              	.LASF141:
 2761 02d6 72656376 		.ascii	"recvedEvent\000"
 2761      65644576 
ARM GAS  C:\Users\jo\AppData\Local\Temp\ccBf8mGB.s 			page 52


 2761      656E7400 
 2762              	.LASF47:
 2763 02e2 63685F74 		.ascii	"ch_thread\000"
 2763      68726561 
 2763      6400
 2764              	.LASF25:
 2765 02ec 6D73675F 		.ascii	"msg_t\000"
 2765      7400
 2766              	.LASF73:
 2767 02f2 63685F73 		.ascii	"ch_system_t\000"
 2767      79737465 
 2767      6D5F7400 
 2768              	.LASF139:
 2769 02fe 654D424D 		.ascii	"eMBMasterWaitRequestFinish\000"
 2769      61737465 
 2769      72576169 
 2769      74526571 
 2769      75657374 
 2770              	.LASF16:
 2771 0319 75696E74 		.ascii	"uint16_t\000"
 2771      31365F74 
 2771      00
 2772              	.LASF52:
 2773 0322 63685F72 		.ascii	"ch_ready_list\000"
 2773      65616479 
 2773      5F6C6973 
 2773      7400
 2774              	.LASF26:
 2775 0330 6576656E 		.ascii	"eventmask_t\000"
 2775      746D6173 
 2775      6B5F7400 
 2776              	.LASF8:
 2777 033c 5F5F696E 		.ascii	"__int32_t\000"
 2777      7433325F 
 2777      7400
 2778              	.LASF81:
 2779 0346 73746B61 		.ascii	"stkalign_t\000"
 2779      6C69676E 
 2779      5F7400
 2780              	.LASF146:
 2781 0351 474E5520 		.ascii	"GNU C 4.9.3 20141119 (release) [ARM/embedded-4_9-br"
 2781      4320342E 
 2781      392E3320 
 2781      32303134 
 2781      31313139 
 2782 0384 616E6368 		.ascii	"anch revision 218278] -mcpu=cortex-m4 -mfloat-abi=h"
 2782      20726576 
 2782      6973696F 
 2782      6E203231 
 2782      38323738 
 2783 03b7 61726420 		.ascii	"ard -mfpu=fpv4-sp-d16 -mno-thumb-interwork -mthumb "
 2783      2D6D6670 
 2783      753D6670 
 2783      76342D73 
 2783      702D6431 
 2784 03ea 2D676764 		.ascii	"-ggdb -O2 -fomit-frame-pointer -falign-functions=16"
 2784      62202D4F 
ARM GAS  C:\Users\jo\AppData\Local\Temp\ccBf8mGB.s 			page 53


 2784      32202D66 
 2784      6F6D6974 
 2784      2D667261 
 2785 041d 202D6666 		.ascii	" -ffunction-sections -fdata-sections -fno-common -f"
 2785      756E6374 
 2785      696F6E2D 
 2785      73656374 
 2785      696F6E73 
 2786 0450 73696E67 		.ascii	"single-precision-constant\000"
 2786      6C652D70 
 2786      72656369 
 2786      73696F6E 
 2786      2D636F6E 
 2787              	.LASF114:
 2788 046a 45565F4D 		.ascii	"EV_MASTER_ERROR_EXECUTE_FUNCTION\000"
 2788      41535445 
 2788      525F4552 
 2788      524F525F 
 2788      45584543 
 2789              	.LASF39:
 2790 048b 705F7761 		.ascii	"p_waiting\000"
 2790      6974696E 
 2790      6700
 2791              	.LASF150:
 2792 0495 784D424D 		.ascii	"xMBMasterPortEventInit\000"
 2792      61737465 
 2792      72506F72 
 2792      74457665 
 2792      6E74496E 
 2793              	.LASF79:
 2794 04ac 73697A65 		.ascii	"sizetype\000"
 2794      74797065 
 2794      00
 2795              	.LASF68:
 2796 04b5 63685F76 		.ascii	"ch_virtual_timers_list\000"
 2796      69727475 
 2796      616C5F74 
 2796      696D6572 
 2796      735F6C69 
 2797              	.LASF132:
 2798 04cc 70756350 		.ascii	"pucPDUData\000"
 2798      44554461 
 2798      746100
 2799              	.LASF99:
 2800 04d7 5553484F 		.ascii	"USHORT\000"
 2800      525400
 2801              	.LASF69:
 2802 04de 76745F6C 		.ascii	"vt_lasttime\000"
 2802      61737474 
 2802      696D6500 
 2803              	.LASF34:
 2804 04ea 705F6F6C 		.ascii	"p_older\000"
 2804      64657200 
 2805              	.LASF55:
 2806 04f2 725F6374 		.ascii	"r_ctx\000"
 2806      7800
 2807              	.LASF136:
ARM GAS  C:\Users\jo\AppData\Local\Temp\ccBf8mGB.s 			page 54


 2808 04f8 764D424D 		.ascii	"vMBMasterErrorCBExecuteFunction\000"
 2808      61737465 
 2808      72457272 
 2808      6F724342 
 2808      45786563 
 2809              	.LASF144:
 2810 0518 78744E65 		.ascii	"xtNeedPoll\000"
 2810      6564506F 
 2810      6C6C00
 2811              	.LASF86:
 2812 0523 746D5F63 		.ascii	"tm_calibration_t\000"
 2812      616C6962 
 2812      72617469 
 2812      6F6E5F74 
 2812      00
 2813              	.LASF58:
 2814 0534 725F6375 		.ascii	"r_current\000"
 2814      7272656E 
 2814      7400
 2815              	.LASF57:
 2816 053e 725F6F6C 		.ascii	"r_older\000"
 2816      64657200 
 2817              	.LASF130:
 2818 0546 6C54696D 		.ascii	"lTimeOut\000"
 2818      654F7574 
 2818      00
 2819              	.LASF13:
 2820 054f 5F5F7569 		.ascii	"__uint64_t\000"
 2820      6E743634 
 2820      5F7400
 2821              	.LASF23:
 2822 055a 74726566 		.ascii	"trefs_t\000"
 2822      735F7400 
 2823              	.LASF102:
 2824 0562 45565F46 		.ascii	"EV_FRAME_RECEIVED\000"
 2824      52414D45 
 2824      5F524543 
 2824      45495645 
 2824      4400
 2825              	.LASF60:
 2826 0574 76697274 		.ascii	"virtual_timer_t\000"
 2826      75616C5F 
 2826      74696D65 
 2826      725F7400 
 2827              	.LASF30:
 2828 0584 705F7072 		.ascii	"p_prev\000"
 2828      657600
 2829              	.LASF24:
 2830 058b 74707269 		.ascii	"tprio_t\000"
 2830      6F5F7400 
 2831              	.LASF137:
 2832 0593 764D424D 		.ascii	"vMBMasterCBRequestScuuess\000"
 2832      61737465 
 2832      72434252 
 2832      65717565 
 2832      73745363 
 2833              	.LASF91:
ARM GAS  C:\Users\jo\AppData\Local\Temp\ccBf8mGB.s 			page 55


 2834 05ad 6D757465 		.ascii	"mutex\000"
 2834      7800
 2835              	.LASF71:
 2836 05b3 63685F73 		.ascii	"ch_system_debug\000"
 2836      79737465 
 2836      6D5F6465 
 2836      62756700 
 2837              	.LASF96:
 2838 05c3 5F426F6F 		.ascii	"_Bool\000"
 2838      6C00
 2839              	.LASF17:
 2840 05c9 696E7433 		.ascii	"int32_t\000"
 2840      325F7400 
 2841              	.LASF4:
 2842 05d1 756E7369 		.ascii	"unsigned char\000"
 2842      676E6564 
 2842      20636861 
 2842      7200
 2843              	.LASF127:
 2844 05df 764D424D 		.ascii	"vMBMasterOsResInit\000"
 2844      61737465 
 2844      724F7352 
 2844      6573496E 
 2844      697400
 2845              	.LASF43:
 2846 05f2 705F6D74 		.ascii	"p_mtxlist\000"
 2846      786C6973 
 2846      7400
 2847              	.LASF5:
 2848 05fc 73686F72 		.ascii	"short int\000"
 2848      7420696E 
 2848      7400
 2849              	.LASF36:
 2850 0606 705F7374 		.ascii	"p_state\000"
 2850      61746500 
 2851              	.LASF143:
 2852 060e 78457665 		.ascii	"xEventInQueue\000"
 2852      6E74496E 
 2852      51756575 
 2852      6500
 2853              	.LASF54:
 2854 061c 725F7072 		.ascii	"r_prio\000"
 2854      696F00
 2855              	.LASF90:
 2856 0623 65776D61 		.ascii	"ewmask\000"
 2856      736B00
 2857              	.LASF29:
 2858 062a 705F6E65 		.ascii	"p_next\000"
 2858      787400
 2859              	.LASF21:
 2860 0631 746D6F64 		.ascii	"tmode_t\000"
 2860      655F7400 
 2861              	.LASF118:
 2862 0639 4D425F4D 		.ascii	"MB_MRE_ILL_ARG\000"
 2862      52455F49 
 2862      4C4C5F41 
 2862      524700
ARM GAS  C:\Users\jo\AppData\Local\Temp\ccBf8mGB.s 			page 56


 2863              	.LASF37:
 2864 0648 705F666C 		.ascii	"p_flags\000"
 2864      61677300 
 2865              	.LASF61:
 2866 0650 63685F76 		.ascii	"ch_virtual_timer\000"
 2866      69727475 
 2866      616C5F74 
 2866      696D6572 
 2866      00
 2867              	.LASF42:
 2868 0661 705F6570 		.ascii	"p_epending\000"
 2868      656E6469 
 2868      6E6700
 2869              	.LASF109:
 2870 066c 45565F4D 		.ascii	"EV_MASTER_FRAME_SENT\000"
 2870      41535445 
 2870      525F4652 
 2870      414D455F 
 2870      53454E54 
 2871              	.LASF106:
 2872 0681 45565F4D 		.ascii	"EV_MASTER_READY\000"
 2872      41535445 
 2872      525F5245 
 2872      41445900 
 2873              	.LASF18:
 2874 0691 75696E74 		.ascii	"uint32_t\000"
 2874      33325F74 
 2874      00
 2875              	.LASF53:
 2876 069a 725F7175 		.ascii	"r_queue\000"
 2876      65756500 
 2877              	.LASF48:
 2878 06a2 63685F74 		.ascii	"ch_threads_list\000"
 2878      68726561 
 2878      64735F6C 
 2878      69737400 
 2879              	.LASF11:
 2880 06b2 6C6F6E67 		.ascii	"long unsigned int\000"
 2880      20756E73 
 2880      69676E65 
 2880      6420696E 
 2880      7400
 2881              	.LASF84:
 2882 06c4 63686172 		.ascii	"char\000"
 2882      00
 2883              	.LASF113:
 2884 06c9 45565F4D 		.ascii	"EV_MASTER_ERROR_RECEIVE_DATA\000"
 2884      41535445 
 2884      525F4552 
 2884      524F525F 
 2884      52454345 
 2885              	.LASF148:
 2886 06e6 433A5C55 		.ascii	"C:\\Users\\jo\\Documents\\GitHub\\ChibiOS\\demos\\S"
 2886      73657273 
 2886      5C6A6F5C 
 2886      446F6375 
 2886      6D656E74 
ARM GAS  C:\Users\jo\AppData\Local\Temp\ccBf8mGB.s 			page 57


 2887 0712 544D3332 		.ascii	"TM32\\RT-STM32F407-DISCOVERY\000"
 2887      5C52542D 
 2887      53544D33 
 2887      32463430 
 2887      372D4449 
 2888              	.LASF6:
 2889 072e 5F5F7569 		.ascii	"__uint16_t\000"
 2889      6E743136 
 2889      5F7400
 2890              	.LASF112:
 2891 0739 45565F4D 		.ascii	"EV_MASTER_ERROR_RESPOND_TIMEOUT\000"
 2891      41535445 
 2891      525F4552 
 2891      524F525F 
 2891      52455350 
 2892              	.LASF28:
 2893 0759 74687265 		.ascii	"thread_t\000"
 2893      61645F74 
 2893      00
 2894              	.LASF94:
 2895 0762 6D5F6E65 		.ascii	"m_next\000"
 2895      787400
 2896              	.LASF27:
 2897 0769 73797374 		.ascii	"systime_t\000"
 2897      696D655F 
 2897      7400
 2898              	.LASF44:
 2899 0773 705F7265 		.ascii	"p_realprio\000"
 2899      616C7072 
 2899      696F00
 2900              	.LASF59:
 2901 077e 76746675 		.ascii	"vtfunc_t\000"
 2901      6E635F74 
 2901      00
 2902              	.LASF10:
 2903 0787 5F5F7569 		.ascii	"__uint32_t\000"
 2903      6E743332 
 2903      5F7400
 2904              	.LASF72:
 2905 0792 70616E69 		.ascii	"panic_msg\000"
 2905      635F6D73 
 2905      6700
 2906              	.LASF85:
 2907 079c 6F666673 		.ascii	"offset\000"
 2907      657400
 2908              	.LASF128:
 2909 07a3 784D424D 		.ascii	"xMBMasterRunResLock\000"
 2909      61737465 
 2909      7252756E 
 2909      5265734C 
 2909      6F636B00 
 2910              	.LASF82:
 2911 07b7 636F6E74 		.ascii	"context\000"
 2911      65787400 
 2912              	.LASF20:
 2913 07bf 7274636E 		.ascii	"rtcnt_t\000"
 2913      745F7400 
ARM GAS  C:\Users\jo\AppData\Local\Temp\ccBf8mGB.s 			page 58


 2914              	.LASF140:
 2915 07c7 65457272 		.ascii	"eErrStatus\000"
 2915      53746174 
 2915      757300
 2916              	.LASF66:
 2917 07d2 76745F70 		.ascii	"vt_par\000"
 2917      617200
 2918              	.LASF124:
 2919 07d9 784D424D 		.ascii	"xMBMasterPortEventPost\000"
 2919      61737465 
 2919      72506F72 
 2919      74457665 
 2919      6E74506F 
 2920              	.LASF49:
 2921 07f0 74687265 		.ascii	"threads_queue_t\000"
 2921      6164735F 
 2921      71756575 
 2921      655F7400 
 2922              	.LASF87:
 2923 0800 7264796D 		.ascii	"rdymsg\000"
 2923      736700
 2924              	.LASF38:
 2925 0807 705F7265 		.ascii	"p_refs\000"
 2925      667300
 2926              	.LASF135:
 2927 080e 764D424D 		.ascii	"vMBMasterErrorCBReceiveData\000"
 2927      61737465 
 2927      72457272 
 2927      6F724342 
 2927      52656365 
 2928              	.LASF75:
 2929 082a 726C6973 		.ascii	"rlist\000"
 2929      7400
 2930              	.LASF126:
 2931 0830 65457665 		.ascii	"eEvent\000"
 2931      6E7400
 2932              	.LASF15:
 2933 0837 75696E74 		.ascii	"uint8_t\000"
 2933      385F7400 
 2934              	.LASF138:
 2935 083f 784D424D 		.ascii	"xMBMasterRunResTake\000"
 2935      61737465 
 2935      7252756E 
 2935      52657354 
 2935      616B6500 
 2936              	.LASF119:
 2937 0853 4D425F4D 		.ascii	"MB_MRE_REV_DATA\000"
 2937      52455F52 
 2937      45565F44 
 2937      41544100 
 2938              	.LASF89:
 2939 0863 77746F62 		.ascii	"wtobjp\000"
 2939      6A7000
 2940              	.LASF35:
 2941 086a 705F6E61 		.ascii	"p_name\000"
 2941      6D6500
 2942              	.LASF117:
ARM GAS  C:\Users\jo\AppData\Local\Temp\ccBf8mGB.s 			page 59


 2943 0871 4D425F4D 		.ascii	"MB_MRE_NO_REG\000"
 2943      52455F4E 
 2943      4F5F5245 
 2943      4700
 2944              	.LASF46:
 2945 087f 74687265 		.ascii	"threads_list_t\000"
 2945      6164735F 
 2945      6C697374 
 2945      5F7400
 2946              	.LASF41:
 2947 088e 705F6D73 		.ascii	"p_msg\000"
 2947      6700
 2948              	.LASF125:
 2949 0894 784D424D 		.ascii	"xMBMasterPortEventGet\000"
 2949      61737465 
 2949      72506F72 
 2949      74457665 
 2949      6E744765 
 2950              	.LASF120:
 2951 08aa 4D425F4D 		.ascii	"MB_MRE_TIMEDOUT\000"
 2951      52455F54 
 2951      494D4544 
 2951      4F555400 
 2952              	.LASF93:
 2953 08ba 6D5F6F77 		.ascii	"m_owner\000"
 2953      6E657200 
 2954              	.LASF32:
 2955 08c2 705F6374 		.ascii	"p_ctx\000"
 2955      7800
 2956              	.LASF65:
 2957 08c8 76745F66 		.ascii	"vt_func\000"
 2957      756E6300 
 2958              	.LASF121:
 2959 08d0 4D425F4D 		.ascii	"MB_MRE_MASTER_BUSY\000"
 2959      52455F4D 
 2959      41535445 
 2959      525F4255 
 2959      535900
 2960              		.ident	"GCC: (GNU Tools for ARM Embedded Processors) 4.9.3 20141119 (release) [ARM/embedded-4_9-br
ARM GAS  C:\Users\jo\AppData\Local\Temp\ccBf8mGB.s 			page 60


DEFINED SYMBOLS
                            *ABS*:00000000 portevent_m.c
C:\Users\jo\AppData\Local\Temp\ccBf8mGB.s:21     .text.xMBMasterPortEventInit:00000000 $t
C:\Users\jo\AppData\Local\Temp\ccBf8mGB.s:27     .text.xMBMasterPortEventInit:00000000 xMBMasterPortEventInit
C:\Users\jo\AppData\Local\Temp\ccBf8mGB.s:45     .text.xMBMasterPortEventInit:0000000c $d
C:\Users\jo\AppData\Local\Temp\ccBf8mGB.s:50     .text.xMBMasterPortEventPost:00000000 $t
C:\Users\jo\AppData\Local\Temp\ccBf8mGB.s:56     .text.xMBMasterPortEventPost:00000000 xMBMasterPortEventPost
C:\Users\jo\AppData\Local\Temp\ccBf8mGB.s:79     .text.xMBMasterPortEventPost:0000000c $d
C:\Users\jo\AppData\Local\Temp\ccBf8mGB.s:85     .text.xMBMasterPortEventGet:00000000 $t
C:\Users\jo\AppData\Local\Temp\ccBf8mGB.s:91     .text.xMBMasterPortEventGet:00000000 xMBMasterPortEventGet
C:\Users\jo\AppData\Local\Temp\ccBf8mGB.s:127    .text.xMBMasterPortEventGet:00000018 $d
C:\Users\jo\AppData\Local\Temp\ccBf8mGB.s:133    .text.vMBMasterOsResInit:00000000 $t
C:\Users\jo\AppData\Local\Temp\ccBf8mGB.s:139    .text.vMBMasterOsResInit:00000000 vMBMasterOsResInit
C:\Users\jo\AppData\Local\Temp\ccBf8mGB.s:154    .text.vMBMasterOsResInit:00000008 $d
C:\Users\jo\AppData\Local\Temp\ccBf8mGB.s:159    .text.xMBMasterRunResTake:00000000 $t
C:\Users\jo\AppData\Local\Temp\ccBf8mGB.s:165    .text.xMBMasterRunResTake:00000000 xMBMasterRunResTake
C:\Users\jo\AppData\Local\Temp\ccBf8mGB.s:182    .text.xMBMasterRunResTake:00000008 $d
C:\Users\jo\AppData\Local\Temp\ccBf8mGB.s:187    .text.xMBMasterRunResLock:00000000 $t
C:\Users\jo\AppData\Local\Temp\ccBf8mGB.s:193    .text.xMBMasterRunResLock:00000000 xMBMasterRunResLock
C:\Users\jo\AppData\Local\Temp\ccBf8mGB.s:208    .text.xMBMasterRunResLock:00000008 $d
C:\Users\jo\AppData\Local\Temp\ccBf8mGB.s:213    .text.vMBMasterRunResRelease:00000000 $t
C:\Users\jo\AppData\Local\Temp\ccBf8mGB.s:219    .text.vMBMasterRunResRelease:00000000 vMBMasterRunResRelease
C:\Users\jo\AppData\Local\Temp\ccBf8mGB.s:234    .text.vMBMasterRunResRelease:00000008 $d
C:\Users\jo\AppData\Local\Temp\ccBf8mGB.s:239    .text.vMBMasterErrorCBRespondTimeout:00000000 $t
C:\Users\jo\AppData\Local\Temp\ccBf8mGB.s:245    .text.vMBMasterErrorCBRespondTimeout:00000000 vMBMasterErrorCBRespondTimeout
C:\Users\jo\AppData\Local\Temp\ccBf8mGB.s:274    .text.vMBMasterErrorCBRespondTimeout:00000010 $d
C:\Users\jo\AppData\Local\Temp\ccBf8mGB.s:282    .text.vMBMasterErrorCBReceiveData:00000000 $t
C:\Users\jo\AppData\Local\Temp\ccBf8mGB.s:288    .text.vMBMasterErrorCBReceiveData:00000000 vMBMasterErrorCBReceiveData
C:\Users\jo\AppData\Local\Temp\ccBf8mGB.s:317    .text.vMBMasterErrorCBReceiveData:00000010 $d
C:\Users\jo\AppData\Local\Temp\ccBf8mGB.s:325    .text.vMBMasterErrorCBExecuteFunction:00000000 $t
C:\Users\jo\AppData\Local\Temp\ccBf8mGB.s:331    .text.vMBMasterErrorCBExecuteFunction:00000000 vMBMasterErrorCBExecuteFunction
C:\Users\jo\AppData\Local\Temp\ccBf8mGB.s:360    .text.vMBMasterErrorCBExecuteFunction:00000010 $d
C:\Users\jo\AppData\Local\Temp\ccBf8mGB.s:368    .text.vMBMasterCBRequestScuuess:00000000 $t
C:\Users\jo\AppData\Local\Temp\ccBf8mGB.s:374    .text.vMBMasterCBRequestScuuess:00000000 vMBMasterCBRequestScuuess
C:\Users\jo\AppData\Local\Temp\ccBf8mGB.s:400    .text.vMBMasterCBRequestScuuess:00000010 $d
C:\Users\jo\AppData\Local\Temp\ccBf8mGB.s:408    .text.eMBMasterWaitRequestFinish:00000000 $t
C:\Users\jo\AppData\Local\Temp\ccBf8mGB.s:414    .text.eMBMasterWaitRequestFinish:00000000 eMBMasterWaitRequestFinish
C:\Users\jo\AppData\Local\Temp\ccBf8mGB.s:459    .text.eMBMasterWaitRequestFinish:00000020 $d
C:\Users\jo\AppData\Local\Temp\ccBf8mGB.s:468    .bss.xEventInQueue:00000000 xEventInQueue
C:\Users\jo\AppData\Local\Temp\ccBf8mGB.s:469    .bss.xEventInQueue:00000000 $d
C:\Users\jo\AppData\Local\Temp\ccBf8mGB.s:474    .bss.xtNeedPoll:00000000 xtNeedPoll
C:\Users\jo\AppData\Local\Temp\ccBf8mGB.s:475    .bss.xtNeedPoll:00000000 $d
C:\Users\jo\AppData\Local\Temp\ccBf8mGB.s:480    .bss.eQueuedEvent:00000000 eQueuedEvent
C:\Users\jo\AppData\Local\Temp\ccBf8mGB.s:481    .bss.eQueuedEvent:00000000 $d
                     .debug_frame:00000010 $d
C:\Users\jo\AppData\Local\Temp\ccBf8mGB.s:84     .text.xMBMasterPortEventPost:00000014 $t
C:\Users\jo\AppData\Local\Temp\ccBf8mGB.s:158    .text.vMBMasterOsResInit:0000000c $t
C:\Users\jo\AppData\Local\Temp\ccBf8mGB.s:186    .text.xMBMasterRunResTake:0000000c $t
C:\Users\jo\AppData\Local\Temp\ccBf8mGB.s:212    .text.xMBMasterRunResLock:0000000c $t
C:\Users\jo\AppData\Local\Temp\ccBf8mGB.s:238    .text.vMBMasterRunResRelease:0000000c $t
C:\Users\jo\AppData\Local\Temp\ccBf8mGB.s:281    .text.vMBMasterErrorCBRespondTimeout:00000018 $t
C:\Users\jo\AppData\Local\Temp\ccBf8mGB.s:324    .text.vMBMasterErrorCBReceiveData:00000018 $t
C:\Users\jo\AppData\Local\Temp\ccBf8mGB.s:367    .text.vMBMasterErrorCBExecuteFunction:00000018 $t
C:\Users\jo\AppData\Local\Temp\ccBf8mGB.s:407    .text.vMBMasterCBRequestScuuess:00000018 $t
C:\Users\jo\AppData\Local\Temp\ccBf8mGB.s:464    .text.eMBMasterWaitRequestFinish:00000028 $t

NO UNDEFINED SYMBOLS
ARM GAS  C:\Users\jo\AppData\Local\Temp\ccBf8mGB.s 			page 61


