ARM GAS  C:\Users\jo\AppData\Local\Temp\cc5Gtjn4.s 			page 1


   1              		.syntax unified
   2              		.cpu cortex-m4
   3              		.eabi_attribute 27, 3
   4              		.eabi_attribute 28, 1
   5              		.fpu fpv4-sp-d16
   6              		.eabi_attribute 20, 1
   7              		.eabi_attribute 21, 1
   8              		.eabi_attribute 23, 3
   9              		.eabi_attribute 24, 1
  10              		.eabi_attribute 25, 1
  11              		.eabi_attribute 26, 1
  12              		.eabi_attribute 30, 2
  13              		.eabi_attribute 34, 1
  14              		.eabi_attribute 18, 4
  15              		.thumb
  16              		.file	"portserial_m.c"
  17              		.text
  18              	.Ltext0:
  19              		.cfi_sections	.debug_frame
  20              		.section	.text.txend1,"ax",%progbits
  21              		.align	2
  22              		.p2align 4,,15
  23              		.thumb
  24              		.thumb_func
  25              		.type	txend1, %function
  26              	txend1:
  27              	.LFB261:
  28              		.file 1 "FreeModbus/port/rtt/portserial_m.c"
  29              		.loc 1 145 0
  30              		.cfi_startproc
  31              		@ args = 0, pretend = 0, frame = 0
  32              		@ frame_needed = 0, uses_anonymous_args = 0
  33              		@ link register save eliminated.
  34              	.LVL0:
  35              		.loc 1 150 0
  36 0000 014B     		ldr	r3, .L2
  37 0002 1B68     		ldr	r3, [r3]
  38 0004 1847     		bx	r3
  39              	.LVL1:
  40              	.L3:
  41 0006 00BF     		.align	2
  42              	.L2:
  43 0008 00000000 		.word	pxMBMasterFrameCBTransmitterEmpty
  44              		.cfi_endproc
  45              	.LFE261:
  46              		.size	txend1, .-txend1
  47 000c AFF30080 		.section	.text.rxchar,"ax",%progbits
  48              		.align	2
  49              		.p2align 4,,15
  50              		.thumb
  51              		.thumb_func
  52              		.type	rxchar, %function
  53              	rxchar:
  54              	.LFB262:
  55              		.loc 1 159 0
  56              		.cfi_startproc
  57              		@ args = 0, pretend = 0, frame = 0
ARM GAS  C:\Users\jo\AppData\Local\Temp\cc5Gtjn4.s 			page 2


  58              		@ frame_needed = 0, uses_anonymous_args = 0
  59              		@ link register save eliminated.
  60              	.LVL2:
  61              		.loc 1 165 0
  62 0000 014B     		ldr	r3, .L5
  63 0002 1B68     		ldr	r3, [r3]
  64 0004 1847     		bx	r3
  65              	.LVL3:
  66              	.L6:
  67 0006 00BF     		.align	2
  68              	.L5:
  69 0008 00000000 		.word	pxMBMasterFrameCBByteReceived
  70              		.cfi_endproc
  71              	.LFE262:
  72              		.size	rxchar, .-rxchar
  73 000c AFF30080 		.section	.text.chprintf.constprop.1,"ax",%progbits
  74              		.align	2
  75              		.p2align 4,,15
  76              		.thumb
  77              		.thumb_func
  78              		.type	chprintf.constprop.1, %function
  79              	chprintf.constprop.1:
  80              	.LFB265:
  81              		.file 2 "../../../os/hal/lib/streams/chprintf.h"
  82              		.loc 2 69 0
  83              		.cfi_startproc
  84              		@ args = 4, pretend = 12, frame = 8
  85              		@ frame_needed = 0, uses_anonymous_args = 1
  86              	.LVL4:
  87 0000 0EB4     		push	{r1, r2, r3}
  88              		.cfi_def_cfa_offset 12
  89              		.cfi_offset 1, -12
  90              		.cfi_offset 2, -8
  91              		.cfi_offset 3, -4
  92 0002 00B5     		push	{lr}
  93              		.cfi_def_cfa_offset 16
  94              		.cfi_offset 14, -16
  95 0004 82B0     		sub	sp, sp, #8
  96              		.cfi_def_cfa_offset 24
  97              		.loc 2 73 0
  98 0006 04AB     		add	r3, sp, #16
  99              		.loc 2 74 0
 100 0008 1A46     		mov	r2, r3
 101 000a 0549     		ldr	r1, .L9
 102 000c 0548     		ldr	r0, .L9+4
 103              	.LVL5:
 104              		.loc 2 73 0
 105 000e 0193     		str	r3, [sp, #4]
 106              		.loc 2 74 0
 107 0010 FFF7FEFF 		bl	chvprintf
 108              	.LVL6:
 109              		.loc 2 78 0
 110 0014 02B0     		add	sp, sp, #8
 111              		.cfi_def_cfa_offset 16
 112              		@ sp needed
 113 0016 5DF804EB 		ldr	lr, [sp], #4
 114              		.cfi_restore 14
ARM GAS  C:\Users\jo\AppData\Local\Temp\cc5Gtjn4.s 			page 3


 115              		.cfi_def_cfa_offset 12
 116 001a 03B0     		add	sp, sp, #12
 117              		.cfi_restore 3
 118              		.cfi_restore 2
 119              		.cfi_restore 1
 120              		.cfi_def_cfa_offset 0
 121 001c 7047     		bx	lr
 122              	.L10:
 123 001e 00BF     		.align	2
 124              	.L9:
 125 0020 00000000 		.word	.LC0
 126 0024 00000000 		.word	itm_port
 127              		.cfi_endproc
 128              	.LFE265:
 129              		.size	chprintf.constprop.1, .-chprintf.constprop.1
 130 0028 AFF30080 		.section	.text.rxerr,"ax",%progbits
 130      AFF30080 
 131              		.align	2
 132              		.p2align 4,,15
 133              		.thumb
 134              		.thumb_func
 135              		.type	rxerr, %function
 136              	rxerr:
 137              	.LFB263:
 138              		.loc 1 174 0
 139              		.cfi_startproc
 140              		@ args = 0, pretend = 0, frame = 0
 141              		@ frame_needed = 0, uses_anonymous_args = 0
 142              	.LVL7:
 143              		.loc 1 179 0
 144 0000 CB07     		lsls	r3, r1, #31
 145              		.loc 1 174 0
 146 0002 10B5     		push	{r4, lr}
 147              		.cfi_def_cfa_offset 8
 148              		.cfi_offset 4, -8
 149              		.cfi_offset 14, -4
 150              		.loc 1 174 0
 151 0004 0C46     		mov	r4, r1
 152              		.loc 1 179 0
 153 0006 1FD4     		bmi	.L28
 154              		.loc 1 181 0
 155 0008 8807     		lsls	r0, r1, #30
 156              	.LVL8:
 157 000a 23D4     		bmi	.L29
 158              	.LVL9:
 159              	.L13:
 160              		.loc 1 183 0
 161 000c 6107     		lsls	r1, r4, #29
 162 000e 15D4     		bmi	.L30
 163              	.L14:
 164              		.loc 1 185 0
 165 0010 2207     		lsls	r2, r4, #28
 166 0012 0DD4     		bmi	.L31
 167              	.L15:
 168              		.loc 1 187 0
 169 0014 E306     		lsls	r3, r4, #27
 170              	.LBB4:
ARM GAS  C:\Users\jo\AppData\Local\Temp\cc5Gtjn4.s 			page 4


 171              	.LBB5:
 172              		.loc 1 188 0
 173 0016 1248     		ldr	r0, .L33
 174 0018 1249     		ldr	r1, .L33+4
 175              	.LBE5:
 176              	.LBE4:
 177              		.loc 1 187 0
 178 001a 04D4     		bmi	.L32
 179              		.loc 1 190 0
 180 001c 124A     		ldr	r2, .L33+8
 181              		.loc 1 194 0
 182 001e BDE81040 		pop	{r4, lr}
 183              		.cfi_remember_state
 184              		.cfi_restore 14
 185              		.cfi_restore 4
 186              		.cfi_def_cfa_offset 0
 187              	.LVL10:
 188              		.loc 1 190 0
 189 0022 FFF7FEBF 		b	chprintf.constprop.1
 190              	.LVL11:
 191              	.L32:
 192              		.cfi_restore_state
 193              	.LBB8:
 194              	.LBB6:
 195              		.loc 1 188 0
 196 0026 114A     		ldr	r2, .L33+12
 197              	.LBE6:
 198              	.LBE8:
 199              		.loc 1 194 0
 200 0028 BDE81040 		pop	{r4, lr}
 201              		.cfi_remember_state
 202              		.cfi_restore 14
 203              		.cfi_restore 4
 204              		.cfi_def_cfa_offset 0
 205              	.LVL12:
 206              	.LBB9:
 207              	.LBB7:
 208              		.loc 1 188 0
 209 002c FFF7FEBF 		b	chprintf.constprop.1
 210              	.LVL13:
 211              	.L31:
 212              		.cfi_restore_state
 213              	.LBE7:
 214              	.LBE9:
 215              		.loc 1 186 0
 216 0030 0C49     		ldr	r1, .L33+4
 217 0032 0F4A     		ldr	r2, .L33+16
 218 0034 0A48     		ldr	r0, .L33
 219 0036 FFF7FEFF 		bl	chprintf.constprop.1
 220              	.LVL14:
 221 003a EBE7     		b	.L15
 222              	.L30:
 223              		.loc 1 184 0
 224 003c 0949     		ldr	r1, .L33+4
 225 003e 0D4A     		ldr	r2, .L33+20
 226 0040 0748     		ldr	r0, .L33
 227 0042 FFF7FEFF 		bl	chprintf.constprop.1
ARM GAS  C:\Users\jo\AppData\Local\Temp\cc5Gtjn4.s 			page 5


 228              	.LVL15:
 229 0046 E3E7     		b	.L14
 230              	.LVL16:
 231              	.L28:
 232              		.loc 1 180 0
 233 0048 0649     		ldr	r1, .L33+4
 234              	.LVL17:
 235 004a 0B4A     		ldr	r2, .L33+24
 236 004c 0448     		ldr	r0, .L33
 237              	.LVL18:
 238 004e FFF7FEFF 		bl	chprintf.constprop.1
 239              	.LVL19:
 240 0052 DBE7     		b	.L13
 241              	.LVL20:
 242              	.L29:
 243              		.loc 1 182 0
 244 0054 0349     		ldr	r1, .L33+4
 245              	.LVL21:
 246 0056 094A     		ldr	r2, .L33+28
 247 0058 0148     		ldr	r0, .L33
 248 005a FFF7FEFF 		bl	chprintf.constprop.1
 249              	.LVL22:
 250 005e D5E7     		b	.L13
 251              	.L34:
 252              		.align	2
 253              	.L33:
 254 0060 00000000 		.word	itm_port
 255 0064 00000000 		.word	.LC0
 256 0068 44000000 		.word	.LC6
 257 006c 34000000 		.word	.LC5
 258 0070 28000000 		.word	.LC4
 259 0074 1C000000 		.word	.LC3
 260 0078 04000000 		.word	.LC1
 261 007c 10000000 		.word	.LC2
 262              		.cfi_endproc
 263              	.LFE263:
 264              		.size	rxerr, .-rxerr
 265              		.section	.text.xMBMasterPortSerialInit,"ax",%progbits
 266              		.align	2
 267              		.p2align 4,,15
 268              		.global	xMBMasterPortSerialInit
 269              		.thumb
 270              		.thumb_func
 271              		.type	xMBMasterPortSerialInit, %function
 272              	xMBMasterPortSerialInit:
 273              	.LFB256:
 274              		.loc 1 50 0
 275              		.cfi_startproc
 276              		@ args = 0, pretend = 0, frame = 0
 277              		@ frame_needed = 0, uses_anonymous_args = 0
 278              	.LVL23:
 279 0000 10B5     		push	{r4, lr}
 280              		.cfi_def_cfa_offset 8
 281              		.cfi_offset 4, -8
 282              		.cfi_offset 14, -4
 283              		.loc 1 69 0
 284 0002 054A     		ldr	r2, .L37
ARM GAS  C:\Users\jo\AppData\Local\Temp\cc5Gtjn4.s 			page 6


 285              	.LVL24:
 286              		.loc 1 70 0
 287 0004 054B     		ldr	r3, .L37+4
 288              	.LVL25:
 289 0006 064C     		ldr	r4, .L37+8
 290              		.loc 1 69 0
 291 0008 5161     		str	r1, [r2, #20]
 292              		.loc 1 73 0
 293 000a 1846     		mov	r0, r3
 294              	.LVL26:
 295 000c 1146     		mov	r1, r2
 296              	.LVL27:
 297              		.loc 1 70 0
 298 000e 2360     		str	r3, [r4]
 299              		.loc 1 73 0
 300 0010 FFF7FEFF 		bl	uartStart
 301              	.LVL28:
 302              		.loc 1 76 0
 303 0014 0120     		movs	r0, #1
 304 0016 10BD     		pop	{r4, pc}
 305              	.L38:
 306              		.align	2
 307              	.L37:
 308 0018 00000000 		.word	.LANCHOR0
 309 001c 00000000 		.word	UARTD3
 310 0020 00000000 		.word	.LANCHOR1
 311              		.cfi_endproc
 312              	.LFE256:
 313              		.size	xMBMasterPortSerialInit, .-xMBMasterPortSerialInit
 314 0024 AFF30080 		.section	.text.vMBMasterPortSerialEnable,"ax",%progbits
 314      AFF30080 
 314      AFF30080 
 315              		.align	2
 316              		.p2align 4,,15
 317              		.global	vMBMasterPortSerialEnable
 318              		.thumb
 319              		.thumb_func
 320              		.type	vMBMasterPortSerialEnable, %function
 321              	vMBMasterPortSerialEnable:
 322              	.LFB257:
 323              		.loc 1 79 0
 324              		.cfi_startproc
 325              		@ args = 0, pretend = 0, frame = 0
 326              		@ frame_needed = 0, uses_anonymous_args = 0
 327              	.LVL29:
 328 0000 38B5     		push	{r3, r4, r5, lr}
 329              		.cfi_def_cfa_offset 16
 330              		.cfi_offset 3, -16
 331              		.cfi_offset 4, -12
 332              		.cfi_offset 5, -8
 333              		.cfi_offset 14, -4
 334              		.loc 1 80 0
 335 0002 1B4B     		ldr	r3, .L45
 336 0004 1B68     		ldr	r3, [r3]
 337 0006 9C68     		ldr	r4, [r3, #8]
 338              	.LVL30:
 339              		.loc 1 79 0
ARM GAS  C:\Users\jo\AppData\Local\Temp\cc5Gtjn4.s 			page 7


 340 0008 0D46     		mov	r5, r1
 341              		.loc 1 87 0
 342 000a E368     		ldr	r3, [r4, #12]
 343              		.loc 1 82 0
 344 000c B8B1     		cbz	r0, .L40
 345              		.loc 1 87 0
 346 000e 43F02003 		orr	r3, r3, #32
 347              		.loc 1 88 0
 348 0012 1848     		ldr	r0, .L45+4
 349              	.LVL31:
 350 0014 1849     		ldr	r1, .L45+8
 351              	.LVL32:
 352 0016 194A     		ldr	r2, .L45+12
 353              		.loc 1 87 0
 354 0018 E360     		str	r3, [r4, #12]
 355              		.loc 1 88 0
 356 001a FFF7FEFF 		bl	chprintf.constprop.1
 357              	.LVL33:
 358              		.loc 1 96 0
 359 001e C5B9     		cbnz	r5, .L44
 360              	.L42:
 361              		.loc 1 108 0
 362 0020 E368     		ldr	r3, [r4, #12]
 363              		.loc 1 110 0
 364 0022 1448     		ldr	r0, .L45+4
 365 0024 1449     		ldr	r1, .L45+8
 366 0026 164A     		ldr	r2, .L45+16
 367              		.loc 1 108 0
 368 0028 23F08003 		bic	r3, r3, #128
 369 002c E360     		str	r3, [r4, #12]
 370              		.loc 1 109 0
 371 002e E368     		ldr	r3, [r4, #12]
 372 0030 43F04003 		orr	r3, r3, #64
 373 0034 E360     		str	r3, [r4, #12]
 374              		.loc 1 112 0
 375 0036 BDE83840 		pop	{r3, r4, r5, lr}
 376              		.cfi_remember_state
 377              		.cfi_restore 14
 378              		.cfi_restore 5
 379              		.cfi_restore 4
 380              		.cfi_restore 3
 381              		.cfi_def_cfa_offset 0
 382              	.LVL34:
 383              		.loc 1 110 0
 384 003a FFF7FEBF 		b	chprintf.constprop.1
 385              	.LVL35:
 386              	.L40:
 387              		.cfi_restore_state
 388              		.loc 1 93 0
 389 003e 23F02003 		bic	r3, r3, #32
 390              		.loc 1 94 0
 391 0042 0C48     		ldr	r0, .L45+4
 392              	.LVL36:
 393 0044 0C49     		ldr	r1, .L45+8
 394              	.LVL37:
 395 0046 0F4A     		ldr	r2, .L45+20
 396              		.loc 1 93 0
ARM GAS  C:\Users\jo\AppData\Local\Temp\cc5Gtjn4.s 			page 8


 397 0048 E360     		str	r3, [r4, #12]
 398              		.loc 1 94 0
 399 004a FFF7FEFF 		bl	chprintf.constprop.1
 400              	.LVL38:
 401              		.loc 1 96 0
 402 004e 002D     		cmp	r5, #0
 403 0050 E6D0     		beq	.L42
 404              	.L44:
 405              		.loc 1 99 0
 406 0052 0D4B     		ldr	r3, .L45+24
 407              		.loc 1 103 0
 408 0054 0748     		ldr	r0, .L45+4
 409 0056 0849     		ldr	r1, .L45+8
 410 0058 0C4A     		ldr	r2, .L45+28
 411              		.loc 1 99 0
 412 005a 4FF48075 		mov	r5, #256
 413 005e 1D83     		strh	r5, [r3, #24]	@ movhi
 414              		.loc 1 102 0
 415 0060 E368     		ldr	r3, [r4, #12]
 416 0062 43F08003 		orr	r3, r3, #128
 417 0066 E360     		str	r3, [r4, #12]
 418              		.loc 1 112 0
 419 0068 BDE83840 		pop	{r3, r4, r5, lr}
 420              		.cfi_restore 14
 421              		.cfi_restore 5
 422              		.cfi_restore 4
 423              		.cfi_restore 3
 424              		.cfi_def_cfa_offset 0
 425              	.LVL39:
 426              		.loc 1 103 0
 427 006c FFF7FEBF 		b	chprintf.constprop.1
 428              	.LVL40:
 429              	.L46:
 430              		.align	2
 431              	.L45:
 432 0070 00000000 		.word	.LANCHOR1
 433 0074 00000000 		.word	itm_port
 434 0078 00000000 		.word	.LC0
 435 007c 50000000 		.word	.LC7
 436 0080 80000000 		.word	.LC10
 437 0084 60000000 		.word	.LC8
 438 0088 00180240 		.word	1073879040
 439 008c 70000000 		.word	.LC9
 440              		.cfi_endproc
 441              	.LFE257:
 442              		.size	vMBMasterPortSerialEnable, .-vMBMasterPortSerialEnable
 443              		.section	.text.vMBMasterPortClose,"ax",%progbits
 444              		.align	2
 445              		.p2align 4,,15
 446              		.global	vMBMasterPortClose
 447              		.thumb
 448              		.thumb_func
 449              		.type	vMBMasterPortClose, %function
 450              	vMBMasterPortClose:
 451              	.LFB258:
 452              		.loc 1 115 0
 453              		.cfi_startproc
ARM GAS  C:\Users\jo\AppData\Local\Temp\cc5Gtjn4.s 			page 9


 454              		@ args = 0, pretend = 0, frame = 0
 455              		@ frame_needed = 0, uses_anonymous_args = 0
 456              		@ link register save eliminated.
 457              		.loc 1 116 0
 458 0000 014B     		ldr	r3, .L48
 459 0002 1868     		ldr	r0, [r3]
 460 0004 FFF7FEBF 		b	uartStop
 461              	.LVL41:
 462              	.L49:
 463              		.align	2
 464              	.L48:
 465 0008 00000000 		.word	.LANCHOR1
 466              		.cfi_endproc
 467              	.LFE258:
 468              		.size	vMBMasterPortClose, .-vMBMasterPortClose
 469 000c AFF30080 		.section	.text.xMBMasterPortSerialPutByte,"ax",%progbits
 470              		.align	2
 471              		.p2align 4,,15
 472              		.global	xMBMasterPortSerialPutByte
 473              		.thumb
 474              		.thumb_func
 475              		.type	xMBMasterPortSerialPutByte, %function
 476              	xMBMasterPortSerialPutByte:
 477              	.LFB259:
 478              		.loc 1 120 0
 479              		.cfi_startproc
 480              		@ args = 0, pretend = 0, frame = 0
 481              		@ frame_needed = 0, uses_anonymous_args = 0
 482              		@ link register save eliminated.
 483              	.LVL42:
 484              		.loc 1 121 0
 485 0000 024B     		ldr	r3, .L51
 486 0002 1B68     		ldr	r3, [r3]
 487 0004 9B68     		ldr	r3, [r3, #8]
 488              	.LVL43:
 489              		.loc 1 125 0
 490 0006 5860     		str	r0, [r3, #4]
 491              		.loc 1 128 0
 492 0008 0120     		movs	r0, #1
 493              	.LVL44:
 494 000a 7047     		bx	lr
 495              	.L52:
 496              		.align	2
 497              	.L51:
 498 000c 00000000 		.word	.LANCHOR1
 499              		.cfi_endproc
 500              	.LFE259:
 501              		.size	xMBMasterPortSerialPutByte, .-xMBMasterPortSerialPutByte
 502              		.section	.text.xMBMasterPortSerialGetByte,"ax",%progbits
 503              		.align	2
 504              		.p2align 4,,15
 505              		.global	xMBMasterPortSerialGetByte
 506              		.thumb
 507              		.thumb_func
 508              		.type	xMBMasterPortSerialGetByte, %function
 509              	xMBMasterPortSerialGetByte:
 510              	.LFB260:
ARM GAS  C:\Users\jo\AppData\Local\Temp\cc5Gtjn4.s 			page 10


 511              		.loc 1 131 0
 512              		.cfi_startproc
 513              		@ args = 0, pretend = 0, frame = 0
 514              		@ frame_needed = 0, uses_anonymous_args = 0
 515              		@ link register save eliminated.
 516              	.LVL45:
 517              		.loc 1 132 0
 518 0000 034B     		ldr	r3, .L54
 519 0002 1B68     		ldr	r3, [r3]
 520 0004 9B68     		ldr	r3, [r3, #8]
 521              	.LVL46:
 522              		.loc 1 134 0
 523 0006 5B68     		ldr	r3, [r3, #4]
 524              	.LVL47:
 525 0008 0370     		strb	r3, [r0]
 526              	.LVL48:
 527              		.loc 1 139 0
 528 000a 0120     		movs	r0, #1
 529              	.LVL49:
 530 000c 7047     		bx	lr
 531              	.L55:
 532 000e 00BF     		.align	2
 533              	.L54:
 534 0010 00000000 		.word	.LANCHOR1
 535              		.cfi_endproc
 536              	.LFE260:
 537              		.size	xMBMasterPortSerialGetByte, .-xMBMasterPortSerialGetByte
 538 0014 AFF30080 		.section	.data.uartCfg.8468,"aw",%progbits
 538      AFF30080 
 538      AFF30080 
 539              		.align	2
 540              		.set	.LANCHOR0,. + 0
 541              		.type	uartCfg.8468, %object
 542              		.size	uartCfg.8468, 36
 543              	uartCfg.8468:
 544 0000 00000000 		.word	txend1
 545 0004 00000000 		.word	0
 546 0008 00000000 		.word	0
 547 000c 00000000 		.word	rxchar
 548 0010 00000000 		.word	rxerr
 549 0014 80250000 		.word	9600
 550 0018 00000000 		.word	0
 551 001c 00000000 		.word	0
 552 0020 00000000 		.word	0
 553              		.section	.rodata.str1.4,"aMS",%progbits,1
 554              		.align	2
 555              	.LC0:
 556 0000 25730A00 		.ascii	"%s\012\000"
 557              	.LC1:
 558 0004 70617269 		.ascii	"parity err\000"
 558      74792065 
 558      727200
 559 000f 00       		.space	1
 560              	.LC2:
 561 0010 6672616D 		.ascii	"framing err\000"
 561      696E6720 
 561      65727200 
ARM GAS  C:\Users\jo\AppData\Local\Temp\cc5Gtjn4.s 			page 11


 562              	.LC3:
 563 001c 6E6F6973 		.ascii	"noise err\000"
 563      65206572 
 563      7200
 564 0026 0000     		.space	2
 565              	.LC4:
 566 0028 6F766572 		.ascii	"overrun err\000"
 566      72756E20 
 566      65727200 
 567              	.LC5:
 568 0034 69646C65 		.ascii	"idle line err\000"
 568      206C696E 
 568      65206572 
 568      7200
 569 0042 0000     		.space	2
 570              	.LC6:
 571 0044 75617274 		.ascii	"uart rx err\000"
 571      20727820 
 571      65727200 
 572              	.LC7:
 573 0050 52656365 		.ascii	"Receive Enable\000"
 573      69766520 
 573      456E6162 
 573      6C6500
 574 005f 00       		.space	1
 575              	.LC8:
 576 0060 52656365 		.ascii	"Receive Disable\000"
 576      69766520 
 576      44697361 
 576      626C6500 
 577              	.LC9:
 578 0070 5472616E 		.ascii	"Transmit Enable\000"
 578      736D6974 
 578      20456E61 
 578      626C6500 
 579              	.LC10:
 580 0080 5472616E 		.ascii	"Transmit Disable\000"
 580      736D6974 
 580      20446973 
 580      61626C65 
 580      00
 581 0091 000000   		.section	.bss.serial,"aw",%nobits
 582              		.align	2
 583              		.set	.LANCHOR1,. + 0
 584              		.type	serial, %object
 585              		.size	serial, 4
 586              	serial:
 587 0000 00000000 		.space	4
 588              		.text
 589              	.Letext0:
 590              		.file 3 "c:\\program files\\gnu tools arm embedded\\4.9 2014q4\\lib\\gcc\\arm-none-eabi\\4.9.3\\in
 591              		.file 4 "c:\\program files\\gnu tools arm embedded\\4.9 2014q4\\arm-none-eabi\\include\\machine\\_
 592              		.file 5 "c:\\program files\\gnu tools arm embedded\\4.9 2014q4\\arm-none-eabi\\include\\stdint.h"
 593              		.file 6 "../../../os/rt/ports/ARMCMx/compilers/GCC/chtypes.h"
 594              		.file 7 "../../../os/rt/include/chsystypes.h"
 595              		.file 8 "../../../os/rt/include/chschd.h"
 596              		.file 9 "../../../os/ext/CMSIS/ST/stm32f407xx.h"
ARM GAS  C:\Users\jo\AppData\Local\Temp\cc5Gtjn4.s 			page 12


 597              		.file 10 "../../../os/rt/ports/ARMCMx/chcore.h"
 598              		.file 11 "../../../os/rt/ports/ARMCMx/chcore_v7m.h"
 599              		.file 12 "c:\\program files\\gnu tools arm embedded\\4.9 2014q4\\lib\\gcc\\arm-none-eabi\\4.9.3\\i
 600              		.file 13 "<built-in>"
 601              		.file 14 "../../../os/rt/include/chtm.h"
 602              		.file 15 "../../../os/rt/include/chmtx.h"
 603              		.file 16 "../../../os/rt/include/chstreams.h"
 604              		.file 17 "../../../os/hal/ports/STM32/LLD/GPIOv2/pal_lld.h"
 605              		.file 18 "../../../os/hal/include/uart.h"
 606              		.file 19 "../../../os/hal/ports/STM32/LLD/USARTv1/uart_lld.h"
 607              		.file 20 "./ITM_trace.h"
 608              		.file 21 "FreeModbus/port/port.h"
 609              		.file 22 "FreeModbus/modbus/include/mbport.h"
 610              		.file 23 "../../../os/ext/CMSIS/include/core_cm4.h"
 611              		.section	.debug_info,"",%progbits
 612              	.Ldebug_info0:
 613 0000 72100000 		.4byte	0x1072
 614 0004 0400     		.2byte	0x4
 615 0006 00000000 		.4byte	.Ldebug_abbrev0
 616 000a 04       		.byte	0x4
 617 000b 01       		.uleb128 0x1
 618 000c 5A040000 		.4byte	.LASF188
 619 0010 01       		.byte	0x1
 620 0011 ED080000 		.4byte	.LASF189
 621 0015 2A070000 		.4byte	.LASF190
 622 0019 20000000 		.4byte	.Ldebug_ranges0+0x20
 623 001d 00000000 		.4byte	0
 624 0021 00000000 		.4byte	.Ldebug_line0
 625 0025 02       		.uleb128 0x2
 626 0026 04       		.byte	0x4
 627 0027 05       		.byte	0x5
 628 0028 696E7400 		.ascii	"int\000"
 629 002c 03       		.uleb128 0x3
 630 002d 15000000 		.4byte	.LASF2
 631 0031 03       		.byte	0x3
 632 0032 D4       		.byte	0xd4
 633 0033 37000000 		.4byte	0x37
 634 0037 04       		.uleb128 0x4
 635 0038 04       		.byte	0x4
 636 0039 07       		.byte	0x7
 637 003a 9B020000 		.4byte	.LASF0
 638 003e 04       		.uleb128 0x4
 639 003f 01       		.byte	0x1
 640 0040 06       		.byte	0x6
 641 0041 37010000 		.4byte	.LASF1
 642 0045 03       		.uleb128 0x3
 643 0046 36000000 		.4byte	.LASF3
 644 004a 04       		.byte	0x4
 645 004b 1D       		.byte	0x1d
 646 004c 50000000 		.4byte	0x50
 647 0050 04       		.uleb128 0x4
 648 0051 01       		.byte	0x1
 649 0052 08       		.byte	0x8
 650 0053 E7050000 		.4byte	.LASF4
 651 0057 04       		.uleb128 0x4
 652 0058 02       		.byte	0x2
 653 0059 05       		.byte	0x5
ARM GAS  C:\Users\jo\AppData\Local\Temp\cc5Gtjn4.s 			page 13


 654 005a 20060000 		.4byte	.LASF5
 655 005e 03       		.uleb128 0x3
 656 005f 72070000 		.4byte	.LASF6
 657 0063 04       		.byte	0x4
 658 0064 2B       		.byte	0x2b
 659 0065 69000000 		.4byte	0x69
 660 0069 04       		.uleb128 0x4
 661 006a 02       		.byte	0x2
 662 006b 07       		.byte	0x7
 663 006c DC020000 		.4byte	.LASF7
 664 0070 03       		.uleb128 0x3
 665 0071 D0000000 		.4byte	.LASF8
 666 0075 04       		.byte	0x4
 667 0076 3F       		.byte	0x3f
 668 0077 7B000000 		.4byte	0x7b
 669 007b 04       		.uleb128 0x4
 670 007c 04       		.byte	0x4
 671 007d 05       		.byte	0x5
 672 007e 93010000 		.4byte	.LASF9
 673 0082 03       		.uleb128 0x3
 674 0083 D2070000 		.4byte	.LASF10
 675 0087 04       		.byte	0x4
 676 0088 41       		.byte	0x41
 677 0089 8D000000 		.4byte	0x8d
 678 008d 04       		.uleb128 0x4
 679 008e 04       		.byte	0x4
 680 008f 07       		.byte	0x7
 681 0090 CB060000 		.4byte	.LASF11
 682 0094 04       		.uleb128 0x4
 683 0095 08       		.byte	0x8
 684 0096 05       		.byte	0x5
 685 0097 29010000 		.4byte	.LASF12
 686 009b 03       		.uleb128 0x3
 687 009c 7A050000 		.4byte	.LASF13
 688 00a0 04       		.byte	0x4
 689 00a1 5B       		.byte	0x5b
 690 00a2 A6000000 		.4byte	0xa6
 691 00a6 04       		.uleb128 0x4
 692 00a7 08       		.byte	0x8
 693 00a8 07       		.byte	0x7
 694 00a9 8F000000 		.4byte	.LASF14
 695 00ad 03       		.uleb128 0x3
 696 00ae AB080000 		.4byte	.LASF15
 697 00b2 05       		.byte	0x5
 698 00b3 15       		.byte	0x15
 699 00b4 45000000 		.4byte	0x45
 700 00b8 03       		.uleb128 0x3
 701 00b9 B0020000 		.4byte	.LASF16
 702 00bd 05       		.byte	0x5
 703 00be 21       		.byte	0x21
 704 00bf 5E000000 		.4byte	0x5e
 705 00c3 03       		.uleb128 0x3
 706 00c4 DF050000 		.4byte	.LASF17
 707 00c8 05       		.byte	0x5
 708 00c9 2C       		.byte	0x2c
 709 00ca 70000000 		.4byte	0x70
 710 00ce 03       		.uleb128 0x3
ARM GAS  C:\Users\jo\AppData\Local\Temp\cc5Gtjn4.s 			page 14


 711 00cf 3A090000 		.4byte	.LASF18
 712 00d3 05       		.byte	0x5
 713 00d4 2D       		.byte	0x2d
 714 00d5 82000000 		.4byte	0x82
 715 00d9 03       		.uleb128 0x3
 716 00da 2D000000 		.4byte	.LASF19
 717 00de 05       		.byte	0x5
 718 00df 39       		.byte	0x39
 719 00e0 9B000000 		.4byte	0x9b
 720 00e4 05       		.uleb128 0x5
 721 00e5 AD000000 		.4byte	0xad
 722 00e9 05       		.uleb128 0x5
 723 00ea B8000000 		.4byte	0xb8
 724 00ee 05       		.uleb128 0x5
 725 00ef C3000000 		.4byte	0xc3
 726 00f3 05       		.uleb128 0x5
 727 00f4 CE000000 		.4byte	0xce
 728 00f8 03       		.uleb128 0x3
 729 00f9 29080000 		.4byte	.LASF20
 730 00fd 06       		.byte	0x6
 731 00fe 45       		.byte	0x45
 732 00ff CE000000 		.4byte	0xce
 733 0103 03       		.uleb128 0x3
 734 0104 4A030000 		.4byte	.LASF21
 735 0108 06       		.byte	0x6
 736 0109 48       		.byte	0x48
 737 010a AD000000 		.4byte	0xad
 738 010e 03       		.uleb128 0x3
 739 010f 9C010000 		.4byte	.LASF22
 740 0113 06       		.byte	0x6
 741 0114 49       		.byte	0x49
 742 0115 AD000000 		.4byte	0xad
 743 0119 03       		.uleb128 0x3
 744 011a 00000000 		.4byte	.LASF23
 745 011e 06       		.byte	0x6
 746 011f 4A       		.byte	0x4a
 747 0120 AD000000 		.4byte	0xad
 748 0124 03       		.uleb128 0x3
 749 0125 B5050000 		.4byte	.LASF24
 750 0129 06       		.byte	0x6
 751 012a 4C       		.byte	0x4c
 752 012b CE000000 		.4byte	0xce
 753 012f 03       		.uleb128 0x3
 754 0130 0F030000 		.4byte	.LASF25
 755 0134 06       		.byte	0x6
 756 0135 4D       		.byte	0x4d
 757 0136 C3000000 		.4byte	0xc3
 758 013a 03       		.uleb128 0x3
 759 013b 66030000 		.4byte	.LASF26
 760 013f 06       		.byte	0x6
 761 0140 4F       		.byte	0x4f
 762 0141 CE000000 		.4byte	0xce
 763 0145 03       		.uleb128 0x3
 764 0146 B4070000 		.4byte	.LASF27
 765 014a 07       		.byte	0x7
 766 014b 33       		.byte	0x33
 767 014c CE000000 		.4byte	0xce
ARM GAS  C:\Users\jo\AppData\Local\Temp\cc5Gtjn4.s 			page 15


 768 0150 03       		.uleb128 0x3
 769 0151 9A070000 		.4byte	.LASF28
 770 0155 07       		.byte	0x7
 771 0156 3F       		.byte	0x3f
 772 0157 5B010000 		.4byte	0x15b
 773 015b 06       		.uleb128 0x6
 774 015c 05030000 		.4byte	.LASF47
 775 0160 44       		.byte	0x44
 776 0161 08       		.byte	0x8
 777 0162 BE       		.byte	0xbe
 778 0163 48020000 		.4byte	0x248
 779 0167 07       		.uleb128 0x7
 780 0168 40060000 		.4byte	.LASF29
 781 016c 08       		.byte	0x8
 782 016d BF       		.byte	0xbf
 783 016e 95060000 		.4byte	0x695
 784 0172 00       		.byte	0
 785 0173 07       		.uleb128 0x7
 786 0174 A4050000 		.4byte	.LASF30
 787 0178 08       		.byte	0x8
 788 0179 C1       		.byte	0xc1
 789 017a 95060000 		.4byte	0x695
 790 017e 04       		.byte	0x4
 791 017f 07       		.uleb128 0x7
 792 0180 22010000 		.4byte	.LASF31
 793 0184 08       		.byte	0x8
 794 0185 C3       		.byte	0xc3
 795 0186 24010000 		.4byte	0x124
 796 018a 08       		.byte	0x8
 797 018b 07       		.uleb128 0x7
 798 018c 43090000 		.4byte	.LASF32
 799 0190 08       		.byte	0x8
 800 0191 C4       		.byte	0xc4
 801 0192 E1040000 		.4byte	0x4e1
 802 0196 0C       		.byte	0xc
 803 0197 07       		.uleb128 0x7
 804 0198 D3010000 		.4byte	.LASF33
 805 019c 08       		.byte	0x8
 806 019d C6       		.byte	0xc6
 807 019e 95060000 		.4byte	0x695
 808 01a2 10       		.byte	0x10
 809 01a3 07       		.uleb128 0x7
 810 01a4 F5030000 		.4byte	.LASF34
 811 01a8 08       		.byte	0x8
 812 01a9 C7       		.byte	0xc7
 813 01aa 95060000 		.4byte	0x695
 814 01ae 14       		.byte	0x14
 815 01af 07       		.uleb128 0x7
 816 01b0 8D080000 		.4byte	.LASF35
 817 01b4 08       		.byte	0x8
 818 01b5 CE       		.byte	0xce
 819 01b6 6A060000 		.4byte	0x66a
 820 01ba 18       		.byte	0x18
 821 01bb 07       		.uleb128 0x7
 822 01bc 2A060000 		.4byte	.LASF36
 823 01c0 08       		.byte	0x8
 824 01c1 D9       		.byte	0xd9
ARM GAS  C:\Users\jo\AppData\Local\Temp\cc5Gtjn4.s 			page 16


 825 01c2 0E010000 		.4byte	0x10e
 826 01c6 1C       		.byte	0x1c
 827 01c7 07       		.uleb128 0x7
 828 01c8 47060000 		.4byte	.LASF37
 829 01cc 08       		.byte	0x8
 830 01cd DD       		.byte	0xdd
 831 01ce 03010000 		.4byte	0x103
 832 01d2 1D       		.byte	0x1d
 833 01d3 07       		.uleb128 0x7
 834 01d4 94080000 		.4byte	.LASF38
 835 01d8 08       		.byte	0x8
 836 01d9 E2       		.byte	0xe2
 837 01da 19010000 		.4byte	0x119
 838 01de 1E       		.byte	0x1e
 839 01df 08       		.uleb128 0x8
 840 01e0 705F7500 		.ascii	"p_u\000"
 841 01e4 08       		.byte	0x8
 842 01e5 1401     		.2byte	0x114
 843 01e7 9B060000 		.4byte	0x69b
 844 01eb 20       		.byte	0x20
 845 01ec 09       		.uleb128 0x9
 846 01ed 58090000 		.4byte	.LASF39
 847 01f1 08       		.byte	0x8
 848 01f2 1901     		.2byte	0x119
 849 01f4 48020000 		.4byte	0x248
 850 01f8 24       		.byte	0x24
 851 01f9 09       		.uleb128 0x9
 852 01fa C2020000 		.4byte	.LASF40
 853 01fe 08       		.byte	0x8
 854 01ff 1F01     		.2byte	0x11f
 855 0201 6C020000 		.4byte	0x26c
 856 0205 28       		.byte	0x28
 857 0206 09       		.uleb128 0x9
 858 0207 10090000 		.4byte	.LASF41
 859 020b 08       		.byte	0x8
 860 020c 2301     		.2byte	0x123
 861 020e 2F010000 		.4byte	0x12f
 862 0212 30       		.byte	0x30
 863 0213 09       		.uleb128 0x9
 864 0214 6A060000 		.4byte	.LASF42
 865 0218 08       		.byte	0x8
 866 0219 2901     		.2byte	0x129
 867 021b 3A010000 		.4byte	0x13a
 868 021f 34       		.byte	0x34
 869 0220 09       		.uleb128 0x9
 870 0221 16060000 		.4byte	.LASF43
 871 0225 08       		.byte	0x8
 872 0226 3001     		.2byte	0x130
 873 0228 04070000 		.4byte	0x704
 874 022c 38       		.byte	0x38
 875 022d 09       		.uleb128 0x9
 876 022e BE070000 		.4byte	.LASF44
 877 0232 08       		.byte	0x8
 878 0233 3401     		.2byte	0x134
 879 0235 24010000 		.4byte	0x124
 880 0239 3C       		.byte	0x3c
 881 023a 09       		.uleb128 0x9
ARM GAS  C:\Users\jo\AppData\Local\Temp\cc5Gtjn4.s 			page 17


 882 023b 56010000 		.4byte	.LASF45
 883 023f 08       		.byte	0x8
 884 0240 3A01     		.2byte	0x13a
 885 0242 1F030000 		.4byte	0x31f
 886 0246 40       		.byte	0x40
 887 0247 00       		.byte	0
 888 0248 03       		.uleb128 0x3
 889 0249 DE080000 		.4byte	.LASF46
 890 024d 07       		.byte	0x7
 891 024e 44       		.byte	0x44
 892 024f 53020000 		.4byte	0x253
 893 0253 06       		.uleb128 0x6
 894 0254 15030000 		.4byte	.LASF48
 895 0258 04       		.byte	0x4
 896 0259 08       		.byte	0x8
 897 025a AC       		.byte	0xac
 898 025b 6C020000 		.4byte	0x26c
 899 025f 07       		.uleb128 0x7
 900 0260 40060000 		.4byte	.LASF29
 901 0264 08       		.byte	0x8
 902 0265 AD       		.byte	0xad
 903 0266 95060000 		.4byte	0x695
 904 026a 00       		.byte	0
 905 026b 00       		.byte	0
 906 026c 03       		.uleb128 0x3
 907 026d 7D080000 		.4byte	.LASF49
 908 0271 07       		.byte	0x7
 909 0272 4B       		.byte	0x4b
 910 0273 77020000 		.4byte	0x277
 911 0277 06       		.uleb128 0x6
 912 0278 6C080000 		.4byte	.LASF50
 913 027c 08       		.byte	0x8
 914 027d 08       		.byte	0x8
 915 027e B3       		.byte	0xb3
 916 027f 9C020000 		.4byte	0x29c
 917 0283 07       		.uleb128 0x7
 918 0284 40060000 		.4byte	.LASF29
 919 0288 08       		.byte	0x8
 920 0289 B4       		.byte	0xb4
 921 028a 95060000 		.4byte	0x695
 922 028e 00       		.byte	0
 923 028f 07       		.uleb128 0x7
 924 0290 A4050000 		.4byte	.LASF30
 925 0294 08       		.byte	0x8
 926 0295 B5       		.byte	0xb5
 927 0296 95060000 		.4byte	0x695
 928 029a 04       		.byte	0x4
 929 029b 00       		.byte	0
 930 029c 03       		.uleb128 0x3
 931 029d 08000000 		.4byte	.LASF51
 932 02a1 07       		.byte	0x7
 933 02a2 52       		.byte	0x52
 934 02a3 A7020000 		.4byte	0x2a7
 935 02a7 0A       		.uleb128 0xa
 936 02a8 58030000 		.4byte	.LASF52
 937 02ac 1C       		.byte	0x1c
 938 02ad 08       		.byte	0x8
ARM GAS  C:\Users\jo\AppData\Local\Temp\cc5Gtjn4.s 			page 18


 939 02ae 7201     		.2byte	0x172
 940 02b0 03030000 		.4byte	0x303
 941 02b4 09       		.uleb128 0x9
 942 02b5 8D060000 		.4byte	.LASF53
 943 02b9 08       		.byte	0x8
 944 02ba 7301     		.2byte	0x173
 945 02bc 6C020000 		.4byte	0x26c
 946 02c0 00       		.byte	0
 947 02c1 09       		.uleb128 0x9
 948 02c2 32060000 		.4byte	.LASF54
 949 02c6 08       		.byte	0x8
 950 02c7 7401     		.2byte	0x174
 951 02c9 24010000 		.4byte	0x124
 952 02cd 08       		.byte	0x8
 953 02ce 09       		.uleb128 0x9
 954 02cf FD030000 		.4byte	.LASF55
 955 02d3 08       		.byte	0x8
 956 02d4 7601     		.2byte	0x176
 957 02d6 E1040000 		.4byte	0x4e1
 958 02da 0C       		.byte	0xc
 959 02db 09       		.uleb128 0x9
 960 02dc FC010000 		.4byte	.LASF56
 961 02e0 08       		.byte	0x8
 962 02e1 7901     		.2byte	0x179
 963 02e3 95060000 		.4byte	0x695
 964 02e7 10       		.byte	0x10
 965 02e8 09       		.uleb128 0x9
 966 02e9 52040000 		.4byte	.LASF57
 967 02ed 08       		.byte	0x8
 968 02ee 7A01     		.2byte	0x17a
 969 02f0 95060000 		.4byte	0x695
 970 02f4 14       		.byte	0x14
 971 02f5 09       		.uleb128 0x9
 972 02f6 48040000 		.4byte	.LASF58
 973 02fa 08       		.byte	0x8
 974 02fb 7D01     		.2byte	0x17d
 975 02fd 95060000 		.4byte	0x695
 976 0301 18       		.byte	0x18
 977 0302 00       		.byte	0
 978 0303 03       		.uleb128 0x3
 979 0304 C9070000 		.4byte	.LASF59
 980 0308 07       		.byte	0x7
 981 0309 57       		.byte	0x57
 982 030a 0E030000 		.4byte	0x30e
 983 030e 0B       		.uleb128 0xb
 984 030f 04       		.byte	0x4
 985 0310 14030000 		.4byte	0x314
 986 0314 0C       		.uleb128 0xc
 987 0315 1F030000 		.4byte	0x31f
 988 0319 0D       		.uleb128 0xd
 989 031a 1F030000 		.4byte	0x31f
 990 031e 00       		.byte	0
 991 031f 0E       		.uleb128 0xe
 992 0320 04       		.byte	0x4
 993 0321 03       		.uleb128 0x3
 994 0322 94050000 		.4byte	.LASF60
 995 0326 07       		.byte	0x7
ARM GAS  C:\Users\jo\AppData\Local\Temp\cc5Gtjn4.s 			page 19


 996 0327 5C       		.byte	0x5c
 997 0328 2C030000 		.4byte	0x32c
 998 032c 0A       		.uleb128 0xa
 999 032d 18080000 		.4byte	.LASF61
 1000 0331 14       		.byte	0x14
 1001 0332 08       		.byte	0x8
 1002 0333 4D01     		.2byte	0x14d
 1003 0335 7B030000 		.4byte	0x37b
 1004 0339 09       		.uleb128 0x9
 1005 033a A8020000 		.4byte	.LASF62
 1006 033e 08       		.byte	0x8
 1007 033f 4E01     		.2byte	0x14e
 1008 0341 0A070000 		.4byte	0x70a
 1009 0345 00       		.byte	0
 1010 0346 09       		.uleb128 0x9
 1011 0347 19020000 		.4byte	.LASF63
 1012 034b 08       		.byte	0x8
 1013 034c 4F01     		.2byte	0x14f
 1014 034e 0A070000 		.4byte	0x70a
 1015 0352 04       		.byte	0x4
 1016 0353 09       		.uleb128 0x9
 1017 0354 B9020000 		.4byte	.LASF64
 1018 0358 08       		.byte	0x8
 1019 0359 5001     		.2byte	0x150
 1020 035b 45010000 		.4byte	0x145
 1021 035f 08       		.byte	0x8
 1022 0360 09       		.uleb128 0x9
 1023 0361 49090000 		.4byte	.LASF65
 1024 0365 08       		.byte	0x8
 1025 0366 5101     		.2byte	0x151
 1026 0368 03030000 		.4byte	0x303
 1027 036c 0C       		.byte	0xc
 1028 036d 09       		.uleb128 0x9
 1029 036e 54080000 		.4byte	.LASF66
 1030 0372 08       		.byte	0x8
 1031 0373 5301     		.2byte	0x153
 1032 0375 1F030000 		.4byte	0x31f
 1033 0379 10       		.byte	0x10
 1034 037a 00       		.byte	0
 1035 037b 03       		.uleb128 0x3
 1036 037c DA000000 		.4byte	.LASF67
 1037 0380 07       		.byte	0x7
 1038 0381 61       		.byte	0x61
 1039 0382 86030000 		.4byte	0x386
 1040 0386 0A       		.uleb128 0xa
 1041 0387 A3030000 		.4byte	.LASF68
 1042 038b 10       		.byte	0x10
 1043 038c 08       		.byte	0x8
 1044 038d 5D01     		.2byte	0x15d
 1045 038f C8030000 		.4byte	0x3c8
 1046 0393 09       		.uleb128 0x9
 1047 0394 A8020000 		.4byte	.LASF62
 1048 0398 08       		.byte	0x8
 1049 0399 5E01     		.2byte	0x15e
 1050 039b 0A070000 		.4byte	0x70a
 1051 039f 00       		.byte	0
 1052 03a0 09       		.uleb128 0x9
ARM GAS  C:\Users\jo\AppData\Local\Temp\cc5Gtjn4.s 			page 20


 1053 03a1 19020000 		.4byte	.LASF63
 1054 03a5 08       		.byte	0x8
 1055 03a6 6001     		.2byte	0x160
 1056 03a8 0A070000 		.4byte	0x70a
 1057 03ac 04       		.byte	0x4
 1058 03ad 09       		.uleb128 0x9
 1059 03ae B9020000 		.4byte	.LASF64
 1060 03b2 08       		.byte	0x8
 1061 03b3 6201     		.2byte	0x162
 1062 03b5 45010000 		.4byte	0x145
 1063 03b9 08       		.byte	0x8
 1064 03ba 09       		.uleb128 0x9
 1065 03bb E9030000 		.4byte	.LASF69
 1066 03bf 08       		.byte	0x8
 1067 03c0 6A01     		.2byte	0x16a
 1068 03c2 45010000 		.4byte	0x145
 1069 03c6 0C       		.byte	0xc
 1070 03c7 00       		.byte	0
 1071 03c8 03       		.uleb128 0x3
 1072 03c9 5B000000 		.4byte	.LASF70
 1073 03cd 07       		.byte	0x7
 1074 03ce 66       		.byte	0x66
 1075 03cf D3030000 		.4byte	0x3d3
 1076 03d3 0A       		.uleb128 0xa
 1077 03d4 C9050000 		.4byte	.LASF71
 1078 03d8 04       		.byte	0x4
 1079 03d9 08       		.byte	0x8
 1080 03da 8401     		.2byte	0x184
 1081 03dc EE030000 		.4byte	0x3ee
 1082 03e0 09       		.uleb128 0x9
 1083 03e1 EA070000 		.4byte	.LASF72
 1084 03e5 08       		.byte	0x8
 1085 03e6 8C01     		.2byte	0x18c
 1086 03e8 10070000 		.4byte	0x710
 1087 03ec 00       		.byte	0
 1088 03ed 00       		.byte	0
 1089 03ee 03       		.uleb128 0x3
 1090 03ef 25030000 		.4byte	.LASF73
 1091 03f3 07       		.byte	0x7
 1092 03f4 6B       		.byte	0x6b
 1093 03f5 F9030000 		.4byte	0x3f9
 1094 03f9 0F       		.uleb128 0xf
 1095 03fa 4F060000 		.4byte	.LASF74
 1096 03fe D801     		.2byte	0x1d8
 1097 0400 08       		.byte	0x8
 1098 0401 A401     		.2byte	0x1a4
 1099 0403 55040000 		.4byte	0x455
 1100 0407 09       		.uleb128 0x9
 1101 0408 A5080000 		.4byte	.LASF75
 1102 040c 08       		.byte	0x8
 1103 040d A801     		.2byte	0x1a8
 1104 040f 9C020000 		.4byte	0x29c
 1105 0413 00       		.byte	0
 1106 0414 09       		.uleb128 0x9
 1107 0415 21020000 		.4byte	.LASF76
 1108 0419 08       		.byte	0x8
 1109 041a AC01     		.2byte	0x1ac
ARM GAS  C:\Users\jo\AppData\Local\Temp\cc5Gtjn4.s 			page 21


 1110 041c 7B030000 		.4byte	0x37b
 1111 0420 1C       		.byte	0x1c
 1112 0421 08       		.uleb128 0x8
 1113 0422 64626700 		.ascii	"dbg\000"
 1114 0426 08       		.byte	0x8
 1115 0427 B001     		.2byte	0x1b0
 1116 0429 C8030000 		.4byte	0x3c8
 1117 042d 2C       		.byte	0x2c
 1118 042e 09       		.uleb128 0x9
 1119 042f C5000000 		.4byte	.LASF77
 1120 0433 08       		.byte	0x8
 1121 0434 B401     		.2byte	0x1b4
 1122 0436 50010000 		.4byte	0x150
 1123 043a 30       		.byte	0x30
 1124 043b 08       		.uleb128 0x8
 1125 043c 746D00   		.ascii	"tm\000"
 1126 043f 08       		.byte	0x8
 1127 0440 B901     		.2byte	0x1b9
 1128 0442 8A060000 		.4byte	0x68a
 1129 0446 74       		.byte	0x74
 1130 0447 09       		.uleb128 0x9
 1131 0448 77020000 		.4byte	.LASF78
 1132 044c 08       		.byte	0x8
 1133 044d C501     		.2byte	0x1c5
 1134 044f 15070000 		.4byte	0x715
 1135 0453 78       		.byte	0x78
 1136 0454 00       		.byte	0
 1137 0455 04       		.uleb128 0x4
 1138 0456 04       		.byte	0x4
 1139 0457 07       		.byte	0x7
 1140 0458 9A030000 		.4byte	.LASF79
 1141 045c 10       		.uleb128 0x10
 1142 045d 1C       		.byte	0x1c
 1143 045e 09       		.byte	0x9
 1144 045f 0903     		.2byte	0x309
 1145 0461 BF040000 		.4byte	0x4bf
 1146 0465 08       		.uleb128 0x8
 1147 0466 535200   		.ascii	"SR\000"
 1148 0469 09       		.byte	0x9
 1149 046a 0B03     		.2byte	0x30b
 1150 046c F3000000 		.4byte	0xf3
 1151 0470 00       		.byte	0
 1152 0471 08       		.uleb128 0x8
 1153 0472 445200   		.ascii	"DR\000"
 1154 0475 09       		.byte	0x9
 1155 0476 0C03     		.2byte	0x30c
 1156 0478 F3000000 		.4byte	0xf3
 1157 047c 04       		.byte	0x4
 1158 047d 08       		.uleb128 0x8
 1159 047e 42525200 		.ascii	"BRR\000"
 1160 0482 09       		.byte	0x9
 1161 0483 0D03     		.2byte	0x30d
 1162 0485 F3000000 		.4byte	0xf3
 1163 0489 08       		.byte	0x8
 1164 048a 08       		.uleb128 0x8
 1165 048b 43523100 		.ascii	"CR1\000"
 1166 048f 09       		.byte	0x9
ARM GAS  C:\Users\jo\AppData\Local\Temp\cc5Gtjn4.s 			page 22


 1167 0490 0E03     		.2byte	0x30e
 1168 0492 F3000000 		.4byte	0xf3
 1169 0496 0C       		.byte	0xc
 1170 0497 08       		.uleb128 0x8
 1171 0498 43523200 		.ascii	"CR2\000"
 1172 049c 09       		.byte	0x9
 1173 049d 0F03     		.2byte	0x30f
 1174 049f F3000000 		.4byte	0xf3
 1175 04a3 10       		.byte	0x10
 1176 04a4 08       		.uleb128 0x8
 1177 04a5 43523300 		.ascii	"CR3\000"
 1178 04a9 09       		.byte	0x9
 1179 04aa 1003     		.2byte	0x310
 1180 04ac F3000000 		.4byte	0xf3
 1181 04b0 14       		.byte	0x14
 1182 04b1 09       		.uleb128 0x9
 1183 04b2 51010000 		.4byte	.LASF80
 1184 04b6 09       		.byte	0x9
 1185 04b7 1103     		.2byte	0x311
 1186 04b9 F3000000 		.4byte	0xf3
 1187 04bd 18       		.byte	0x18
 1188 04be 00       		.byte	0
 1189 04bf 11       		.uleb128 0x11
 1190 04c0 31030000 		.4byte	.LASF81
 1191 04c4 09       		.byte	0x9
 1192 04c5 1203     		.2byte	0x312
 1193 04c7 5C040000 		.4byte	0x45c
 1194 04cb 03       		.uleb128 0x3
 1195 04cc 10020000 		.4byte	.LASF82
 1196 04d0 0A       		.byte	0xa
 1197 04d1 85       		.byte	0x85
 1198 04d2 1F030000 		.4byte	0x31f
 1199 04d6 03       		.uleb128 0x3
 1200 04d7 78030000 		.4byte	.LASF83
 1201 04db 0A       		.byte	0xa
 1202 04dc 8D       		.byte	0x8d
 1203 04dd D9000000 		.4byte	0xd9
 1204 04e1 06       		.uleb128 0x6
 1205 04e2 10080000 		.4byte	.LASF84
 1206 04e6 04       		.byte	0x4
 1207 04e7 0A       		.byte	0xa
 1208 04e8 A9       		.byte	0xa9
 1209 04e9 FA040000 		.4byte	0x4fa
 1210 04ed 12       		.uleb128 0x12
 1211 04ee 72313300 		.ascii	"r13\000"
 1212 04f2 0A       		.byte	0xa
 1213 04f3 AA       		.byte	0xaa
 1214 04f4 3B060000 		.4byte	0x63b
 1215 04f8 00       		.byte	0
 1216 04f9 00       		.byte	0
 1217 04fa 06       		.uleb128 0x6
 1218 04fb 47000000 		.4byte	.LASF85
 1219 04ff 64       		.byte	0x64
 1220 0500 0B       		.byte	0xb
 1221 0501 F4       		.byte	0xf4
 1222 0502 3B060000 		.4byte	0x63b
 1223 0506 12       		.uleb128 0x12
ARM GAS  C:\Users\jo\AppData\Local\Temp\cc5Gtjn4.s 			page 23


 1224 0507 73313600 		.ascii	"s16\000"
 1225 050b 0B       		.byte	0xb
 1226 050c F6       		.byte	0xf6
 1227 050d CB040000 		.4byte	0x4cb
 1228 0511 00       		.byte	0
 1229 0512 12       		.uleb128 0x12
 1230 0513 73313700 		.ascii	"s17\000"
 1231 0517 0B       		.byte	0xb
 1232 0518 F7       		.byte	0xf7
 1233 0519 CB040000 		.4byte	0x4cb
 1234 051d 04       		.byte	0x4
 1235 051e 12       		.uleb128 0x12
 1236 051f 73313800 		.ascii	"s18\000"
 1237 0523 0B       		.byte	0xb
 1238 0524 F8       		.byte	0xf8
 1239 0525 CB040000 		.4byte	0x4cb
 1240 0529 08       		.byte	0x8
 1241 052a 12       		.uleb128 0x12
 1242 052b 73313900 		.ascii	"s19\000"
 1243 052f 0B       		.byte	0xb
 1244 0530 F9       		.byte	0xf9
 1245 0531 CB040000 		.4byte	0x4cb
 1246 0535 0C       		.byte	0xc
 1247 0536 12       		.uleb128 0x12
 1248 0537 73323000 		.ascii	"s20\000"
 1249 053b 0B       		.byte	0xb
 1250 053c FA       		.byte	0xfa
 1251 053d CB040000 		.4byte	0x4cb
 1252 0541 10       		.byte	0x10
 1253 0542 12       		.uleb128 0x12
 1254 0543 73323100 		.ascii	"s21\000"
 1255 0547 0B       		.byte	0xb
 1256 0548 FB       		.byte	0xfb
 1257 0549 CB040000 		.4byte	0x4cb
 1258 054d 14       		.byte	0x14
 1259 054e 12       		.uleb128 0x12
 1260 054f 73323200 		.ascii	"s22\000"
 1261 0553 0B       		.byte	0xb
 1262 0554 FC       		.byte	0xfc
 1263 0555 CB040000 		.4byte	0x4cb
 1264 0559 18       		.byte	0x18
 1265 055a 12       		.uleb128 0x12
 1266 055b 73323300 		.ascii	"s23\000"
 1267 055f 0B       		.byte	0xb
 1268 0560 FD       		.byte	0xfd
 1269 0561 CB040000 		.4byte	0x4cb
 1270 0565 1C       		.byte	0x1c
 1271 0566 12       		.uleb128 0x12
 1272 0567 73323400 		.ascii	"s24\000"
 1273 056b 0B       		.byte	0xb
 1274 056c FE       		.byte	0xfe
 1275 056d CB040000 		.4byte	0x4cb
 1276 0571 20       		.byte	0x20
 1277 0572 12       		.uleb128 0x12
 1278 0573 73323500 		.ascii	"s25\000"
 1279 0577 0B       		.byte	0xb
 1280 0578 FF       		.byte	0xff
ARM GAS  C:\Users\jo\AppData\Local\Temp\cc5Gtjn4.s 			page 24


 1281 0579 CB040000 		.4byte	0x4cb
 1282 057d 24       		.byte	0x24
 1283 057e 08       		.uleb128 0x8
 1284 057f 73323600 		.ascii	"s26\000"
 1285 0583 0B       		.byte	0xb
 1286 0584 0001     		.2byte	0x100
 1287 0586 CB040000 		.4byte	0x4cb
 1288 058a 28       		.byte	0x28
 1289 058b 08       		.uleb128 0x8
 1290 058c 73323700 		.ascii	"s27\000"
 1291 0590 0B       		.byte	0xb
 1292 0591 0101     		.2byte	0x101
 1293 0593 CB040000 		.4byte	0x4cb
 1294 0597 2C       		.byte	0x2c
 1295 0598 08       		.uleb128 0x8
 1296 0599 73323800 		.ascii	"s28\000"
 1297 059d 0B       		.byte	0xb
 1298 059e 0201     		.2byte	0x102
 1299 05a0 CB040000 		.4byte	0x4cb
 1300 05a4 30       		.byte	0x30
 1301 05a5 08       		.uleb128 0x8
 1302 05a6 73323900 		.ascii	"s29\000"
 1303 05aa 0B       		.byte	0xb
 1304 05ab 0301     		.2byte	0x103
 1305 05ad CB040000 		.4byte	0x4cb
 1306 05b1 34       		.byte	0x34
 1307 05b2 08       		.uleb128 0x8
 1308 05b3 73333000 		.ascii	"s30\000"
 1309 05b7 0B       		.byte	0xb
 1310 05b8 0401     		.2byte	0x104
 1311 05ba CB040000 		.4byte	0x4cb
 1312 05be 38       		.byte	0x38
 1313 05bf 08       		.uleb128 0x8
 1314 05c0 73333100 		.ascii	"s31\000"
 1315 05c4 0B       		.byte	0xb
 1316 05c5 0501     		.2byte	0x105
 1317 05c7 CB040000 		.4byte	0x4cb
 1318 05cb 3C       		.byte	0x3c
 1319 05cc 08       		.uleb128 0x8
 1320 05cd 723400   		.ascii	"r4\000"
 1321 05d0 0B       		.byte	0xb
 1322 05d1 0701     		.2byte	0x107
 1323 05d3 CB040000 		.4byte	0x4cb
 1324 05d7 40       		.byte	0x40
 1325 05d8 08       		.uleb128 0x8
 1326 05d9 723500   		.ascii	"r5\000"
 1327 05dc 0B       		.byte	0xb
 1328 05dd 0801     		.2byte	0x108
 1329 05df CB040000 		.4byte	0x4cb
 1330 05e3 44       		.byte	0x44
 1331 05e4 08       		.uleb128 0x8
 1332 05e5 723600   		.ascii	"r6\000"
 1333 05e8 0B       		.byte	0xb
 1334 05e9 0901     		.2byte	0x109
 1335 05eb CB040000 		.4byte	0x4cb
 1336 05ef 48       		.byte	0x48
 1337 05f0 08       		.uleb128 0x8
ARM GAS  C:\Users\jo\AppData\Local\Temp\cc5Gtjn4.s 			page 25


 1338 05f1 723700   		.ascii	"r7\000"
 1339 05f4 0B       		.byte	0xb
 1340 05f5 0A01     		.2byte	0x10a
 1341 05f7 CB040000 		.4byte	0x4cb
 1342 05fb 4C       		.byte	0x4c
 1343 05fc 08       		.uleb128 0x8
 1344 05fd 723800   		.ascii	"r8\000"
 1345 0600 0B       		.byte	0xb
 1346 0601 0B01     		.2byte	0x10b
 1347 0603 CB040000 		.4byte	0x4cb
 1348 0607 50       		.byte	0x50
 1349 0608 08       		.uleb128 0x8
 1350 0609 723900   		.ascii	"r9\000"
 1351 060c 0B       		.byte	0xb
 1352 060d 0C01     		.2byte	0x10c
 1353 060f CB040000 		.4byte	0x4cb
 1354 0613 54       		.byte	0x54
 1355 0614 08       		.uleb128 0x8
 1356 0615 72313000 		.ascii	"r10\000"
 1357 0619 0B       		.byte	0xb
 1358 061a 0D01     		.2byte	0x10d
 1359 061c CB040000 		.4byte	0x4cb
 1360 0620 58       		.byte	0x58
 1361 0621 08       		.uleb128 0x8
 1362 0622 72313100 		.ascii	"r11\000"
 1363 0626 0B       		.byte	0xb
 1364 0627 0E01     		.2byte	0x10e
 1365 0629 CB040000 		.4byte	0x4cb
 1366 062d 5C       		.byte	0x5c
 1367 062e 08       		.uleb128 0x8
 1368 062f 6C7200   		.ascii	"lr\000"
 1369 0632 0B       		.byte	0xb
 1370 0633 0F01     		.2byte	0x10f
 1371 0635 CB040000 		.4byte	0x4cb
 1372 0639 60       		.byte	0x60
 1373 063a 00       		.byte	0
 1374 063b 0B       		.uleb128 0xb
 1375 063c 04       		.byte	0x4
 1376 063d FA040000 		.4byte	0x4fa
 1377 0641 03       		.uleb128 0x3
 1378 0642 D1030000 		.4byte	.LASF86
 1379 0646 0C       		.byte	0xc
 1380 0647 28       		.byte	0x28
 1381 0648 4C060000 		.4byte	0x64c
 1382 064c 06       		.uleb128 0x6
 1383 064d B8010000 		.4byte	.LASF87
 1384 0651 04       		.byte	0x4
 1385 0652 0D       		.byte	0xd
 1386 0653 00       		.byte	0
 1387 0654 63060000 		.4byte	0x663
 1388 0658 13       		.uleb128 0x13
 1389 0659 CE010000 		.4byte	.LASF91
 1390 065d 1F030000 		.4byte	0x31f
 1391 0661 00       		.byte	0
 1392 0662 00       		.byte	0
 1393 0663 04       		.uleb128 0x4
 1394 0664 01       		.byte	0x1
ARM GAS  C:\Users\jo\AppData\Local\Temp\cc5Gtjn4.s 			page 26


 1395 0665 08       		.byte	0x8
 1396 0666 E2060000 		.4byte	.LASF88
 1397 066a 0B       		.uleb128 0xb
 1398 066b 04       		.byte	0x4
 1399 066c 70060000 		.4byte	0x670
 1400 0670 14       		.uleb128 0x14
 1401 0671 63060000 		.4byte	0x663
 1402 0675 15       		.uleb128 0x15
 1403 0676 04       		.byte	0x4
 1404 0677 0E       		.byte	0xe
 1405 0678 38       		.byte	0x38
 1406 0679 8A060000 		.4byte	0x68a
 1407 067d 07       		.uleb128 0x7
 1408 067e FF070000 		.4byte	.LASF89
 1409 0682 0E       		.byte	0xe
 1410 0683 3C       		.byte	0x3c
 1411 0684 F8000000 		.4byte	0xf8
 1412 0688 00       		.byte	0
 1413 0689 00       		.byte	0
 1414 068a 03       		.uleb128 0x3
 1415 068b 22040000 		.4byte	.LASF90
 1416 068f 0E       		.byte	0xe
 1417 0690 3D       		.byte	0x3d
 1418 0691 75060000 		.4byte	0x675
 1419 0695 0B       		.uleb128 0xb
 1420 0696 04       		.byte	0x4
 1421 0697 50010000 		.4byte	0x150
 1422 069b 16       		.uleb128 0x16
 1423 069c 04       		.byte	0x4
 1424 069d 08       		.byte	0x8
 1425 069e F6       		.byte	0xf6
 1426 069f D3060000 		.4byte	0x6d3
 1427 06a3 17       		.uleb128 0x17
 1428 06a4 26000000 		.4byte	.LASF92
 1429 06a8 08       		.byte	0x8
 1430 06a9 FD       		.byte	0xfd
 1431 06aa 2F010000 		.4byte	0x12f
 1432 06ae 18       		.uleb128 0x18
 1433 06af BC000000 		.4byte	.LASF93
 1434 06b3 08       		.byte	0x8
 1435 06b4 0401     		.2byte	0x104
 1436 06b6 2F010000 		.4byte	0x12f
 1437 06ba 18       		.uleb128 0x18
 1438 06bb CC080000 		.4byte	.LASF94
 1439 06bf 08       		.byte	0x8
 1440 06c0 0B01     		.2byte	0x10b
 1441 06c2 1F030000 		.4byte	0x31f
 1442 06c6 18       		.uleb128 0x18
 1443 06c7 39060000 		.4byte	.LASF95
 1444 06cb 08       		.byte	0x8
 1445 06cc 1201     		.2byte	0x112
 1446 06ce 3A010000 		.4byte	0x13a
 1447 06d2 00       		.byte	0
 1448 06d3 06       		.uleb128 0x6
 1449 06d4 C3050000 		.4byte	.LASF96
 1450 06d8 10       		.byte	0x10
 1451 06d9 0F       		.byte	0xf
ARM GAS  C:\Users\jo\AppData\Local\Temp\cc5Gtjn4.s 			page 27


 1452 06da 39       		.byte	0x39
 1453 06db 04070000 		.4byte	0x704
 1454 06df 07       		.uleb128 0x7
 1455 06e0 66010000 		.4byte	.LASF97
 1456 06e4 0F       		.byte	0xf
 1457 06e5 3A       		.byte	0x3a
 1458 06e6 6C020000 		.4byte	0x26c
 1459 06ea 00       		.byte	0
 1460 06eb 07       		.uleb128 0x7
 1461 06ec 23090000 		.4byte	.LASF98
 1462 06f0 0F       		.byte	0xf
 1463 06f1 3C       		.byte	0x3c
 1464 06f2 95060000 		.4byte	0x695
 1465 06f6 08       		.byte	0x8
 1466 06f7 07       		.uleb128 0x7
 1467 06f8 41040000 		.4byte	.LASF99
 1468 06fc 0F       		.byte	0xf
 1469 06fd 3E       		.byte	0x3e
 1470 06fe 45070000 		.4byte	0x745
 1471 0702 0C       		.byte	0xc
 1472 0703 00       		.byte	0
 1473 0704 0B       		.uleb128 0xb
 1474 0705 04       		.byte	0x4
 1475 0706 D3060000 		.4byte	0x6d3
 1476 070a 0B       		.uleb128 0xb
 1477 070b 04       		.byte	0x4
 1478 070c 21030000 		.4byte	0x321
 1479 0710 05       		.uleb128 0x5
 1480 0711 6A060000 		.4byte	0x66a
 1481 0715 19       		.uleb128 0x19
 1482 0716 D6040000 		.4byte	0x4d6
 1483 071a 25070000 		.4byte	0x725
 1484 071e 1A       		.uleb128 0x1a
 1485 071f 55040000 		.4byte	0x455
 1486 0723 2B       		.byte	0x2b
 1487 0724 00       		.byte	0
 1488 0725 0B       		.uleb128 0xb
 1489 0726 04       		.byte	0x4
 1490 0727 2B070000 		.4byte	0x72b
 1491 072b 1B       		.uleb128 0x1b
 1492 072c 2F010000 		.4byte	0x12f
 1493 0730 3A070000 		.4byte	0x73a
 1494 0734 0D       		.uleb128 0xd
 1495 0735 1F030000 		.4byte	0x31f
 1496 0739 00       		.byte	0
 1497 073a 03       		.uleb128 0x3
 1498 073b 3C020000 		.4byte	.LASF100
 1499 073f 0F       		.byte	0xf
 1500 0740 34       		.byte	0x34
 1501 0741 D3060000 		.4byte	0x6d3
 1502 0745 0B       		.uleb128 0xb
 1503 0746 04       		.byte	0x4
 1504 0747 3A070000 		.4byte	0x73a
 1505 074b 0B       		.uleb128 0xb
 1506 074c 04       		.byte	0x4
 1507 074d AD000000 		.4byte	0xad
 1508 0751 06       		.uleb128 0x6
ARM GAS  C:\Users\jo\AppData\Local\Temp\cc5Gtjn4.s 			page 28


 1509 0752 75060000 		.4byte	.LASF101
 1510 0756 10       		.byte	0x10
 1511 0757 10       		.byte	0x10
 1512 0758 40       		.byte	0x40
 1513 0759 8E070000 		.4byte	0x78e
 1514 075d 07       		.uleb128 0x7
 1515 075e 8E030000 		.4byte	.LASF102
 1516 0762 10       		.byte	0x10
 1517 0763 41       		.byte	0x41
 1518 0764 B2070000 		.4byte	0x7b2
 1519 0768 00       		.byte	0
 1520 0769 07       		.uleb128 0x7
 1521 076a DD060000 		.4byte	.LASF103
 1522 076e 10       		.byte	0x10
 1523 076f 41       		.byte	0x41
 1524 0770 D1070000 		.4byte	0x7d1
 1525 0774 04       		.byte	0x4
 1526 0775 12       		.uleb128 0x12
 1527 0776 70757400 		.ascii	"put\000"
 1528 077a 10       		.byte	0x10
 1529 077b 41       		.byte	0x41
 1530 077c EB070000 		.4byte	0x7eb
 1531 0780 08       		.byte	0x8
 1532 0781 12       		.uleb128 0x12
 1533 0782 67657400 		.ascii	"get\000"
 1534 0786 10       		.byte	0x10
 1535 0787 41       		.byte	0x41
 1536 0788 25070000 		.4byte	0x725
 1537 078c 0C       		.byte	0xc
 1538 078d 00       		.byte	0
 1539 078e 1B       		.uleb128 0x1b
 1540 078f 2C000000 		.4byte	0x2c
 1541 0793 A7070000 		.4byte	0x7a7
 1542 0797 0D       		.uleb128 0xd
 1543 0798 1F030000 		.4byte	0x31f
 1544 079c 0D       		.uleb128 0xd
 1545 079d A7070000 		.4byte	0x7a7
 1546 07a1 0D       		.uleb128 0xd
 1547 07a2 2C000000 		.4byte	0x2c
 1548 07a6 00       		.byte	0
 1549 07a7 0B       		.uleb128 0xb
 1550 07a8 04       		.byte	0x4
 1551 07a9 AD070000 		.4byte	0x7ad
 1552 07ad 14       		.uleb128 0x14
 1553 07ae AD000000 		.4byte	0xad
 1554 07b2 0B       		.uleb128 0xb
 1555 07b3 04       		.byte	0x4
 1556 07b4 8E070000 		.4byte	0x78e
 1557 07b8 1B       		.uleb128 0x1b
 1558 07b9 2C000000 		.4byte	0x2c
 1559 07bd D1070000 		.4byte	0x7d1
 1560 07c1 0D       		.uleb128 0xd
 1561 07c2 1F030000 		.4byte	0x31f
 1562 07c6 0D       		.uleb128 0xd
 1563 07c7 4B070000 		.4byte	0x74b
 1564 07cb 0D       		.uleb128 0xd
 1565 07cc 2C000000 		.4byte	0x2c
ARM GAS  C:\Users\jo\AppData\Local\Temp\cc5Gtjn4.s 			page 29


 1566 07d0 00       		.byte	0
 1567 07d1 0B       		.uleb128 0xb
 1568 07d2 04       		.byte	0x4
 1569 07d3 B8070000 		.4byte	0x7b8
 1570 07d7 1B       		.uleb128 0x1b
 1571 07d8 2F010000 		.4byte	0x12f
 1572 07dc EB070000 		.4byte	0x7eb
 1573 07e0 0D       		.uleb128 0xd
 1574 07e1 1F030000 		.4byte	0x31f
 1575 07e5 0D       		.uleb128 0xd
 1576 07e6 AD000000 		.4byte	0xad
 1577 07ea 00       		.byte	0
 1578 07eb 0B       		.uleb128 0xb
 1579 07ec 04       		.byte	0x4
 1580 07ed D7070000 		.4byte	0x7d7
 1581 07f1 15       		.uleb128 0x15
 1582 07f2 04       		.byte	0x4
 1583 07f3 10       		.byte	0x10
 1584 07f4 49       		.byte	0x49
 1585 07f5 06080000 		.4byte	0x806
 1586 07f9 12       		.uleb128 0x12
 1587 07fa 766D7400 		.ascii	"vmt\000"
 1588 07fe 10       		.byte	0x10
 1589 07ff 4B       		.byte	0x4b
 1590 0800 06080000 		.4byte	0x806
 1591 0804 00       		.byte	0
 1592 0805 00       		.byte	0
 1593 0806 0B       		.uleb128 0xb
 1594 0807 04       		.byte	0x4
 1595 0808 0C080000 		.4byte	0x80c
 1596 080c 14       		.uleb128 0x14
 1597 080d 51070000 		.4byte	0x751
 1598 0811 03       		.uleb128 0x3
 1599 0812 62020000 		.4byte	.LASF104
 1600 0816 10       		.byte	0x10
 1601 0817 4D       		.byte	0x4d
 1602 0818 F1070000 		.4byte	0x7f1
 1603 081c 04       		.uleb128 0x4
 1604 081d 01       		.byte	0x1
 1605 081e 02       		.byte	0x2
 1606 081f D9050000 		.4byte	.LASF105
 1607 0823 15       		.uleb128 0x15
 1608 0824 04       		.byte	0x4
 1609 0825 11       		.byte	0x11
 1610 0826 B3       		.byte	0xb3
 1611 0827 44080000 		.4byte	0x844
 1612 082b 12       		.uleb128 0x12
 1613 082c 73657400 		.ascii	"set\000"
 1614 0830 11       		.byte	0x11
 1615 0831 B4       		.byte	0xb4
 1616 0832 B8000000 		.4byte	0xb8
 1617 0836 00       		.byte	0
 1618 0837 07       		.uleb128 0x7
 1619 0838 BA030000 		.4byte	.LASF106
 1620 083c 11       		.byte	0x11
 1621 083d B5       		.byte	0xb5
 1622 083e B8000000 		.4byte	0xb8
ARM GAS  C:\Users\jo\AppData\Local\Temp\cc5Gtjn4.s 			page 30


 1623 0842 02       		.byte	0x2
 1624 0843 00       		.byte	0
 1625 0844 16       		.uleb128 0x16
 1626 0845 04       		.byte	0x4
 1627 0846 11       		.byte	0x11
 1628 0847 B1       		.byte	0xb1
 1629 0848 5F080000 		.4byte	0x85f
 1630 084c 1C       		.uleb128 0x1c
 1631 084d 5700     		.ascii	"W\000"
 1632 084f 11       		.byte	0x11
 1633 0850 B2       		.byte	0xb2
 1634 0851 CE000000 		.4byte	0xce
 1635 0855 1C       		.uleb128 0x1c
 1636 0856 4800     		.ascii	"H\000"
 1637 0858 11       		.byte	0x11
 1638 0859 B6       		.byte	0xb6
 1639 085a 23080000 		.4byte	0x823
 1640 085e 00       		.byte	0
 1641 085f 15       		.uleb128 0x15
 1642 0860 2C       		.byte	0x2c
 1643 0861 11       		.byte	0x11
 1644 0862 A9       		.byte	0xa9
 1645 0863 EC080000 		.4byte	0x8ec
 1646 0867 07       		.uleb128 0x7
 1647 0868 89000000 		.4byte	.LASF107
 1648 086c 11       		.byte	0x11
 1649 086d AB       		.byte	0xab
 1650 086e F3000000 		.4byte	0xf3
 1651 0872 00       		.byte	0
 1652 0873 07       		.uleb128 0x7
 1653 0874 40000000 		.4byte	.LASF108
 1654 0878 11       		.byte	0x11
 1655 0879 AC       		.byte	0xac
 1656 087a F3000000 		.4byte	0xf3
 1657 087e 04       		.byte	0x4
 1658 087f 07       		.uleb128 0x7
 1659 0880 F4010000 		.4byte	.LASF109
 1660 0884 11       		.byte	0x11
 1661 0885 AD       		.byte	0xad
 1662 0886 F3000000 		.4byte	0xf3
 1663 088a 08       		.byte	0x8
 1664 088b 07       		.uleb128 0x7
 1665 088c B6000000 		.4byte	.LASF110
 1666 0890 11       		.byte	0x11
 1667 0891 AE       		.byte	0xae
 1668 0892 F3000000 		.4byte	0xf3
 1669 0896 0C       		.byte	0xc
 1670 0897 12       		.uleb128 0x12
 1671 0898 49445200 		.ascii	"IDR\000"
 1672 089c 11       		.byte	0x11
 1673 089d AF       		.byte	0xaf
 1674 089e F3000000 		.4byte	0xf3
 1675 08a2 10       		.byte	0x10
 1676 08a3 12       		.uleb128 0x12
 1677 08a4 4F445200 		.ascii	"ODR\000"
 1678 08a8 11       		.byte	0x11
 1679 08a9 B0       		.byte	0xb0
ARM GAS  C:\Users\jo\AppData\Local\Temp\cc5Gtjn4.s 			page 31


 1680 08aa F3000000 		.4byte	0xf3
 1681 08ae 14       		.byte	0x14
 1682 08af 07       		.uleb128 0x7
 1683 08b0 4C010000 		.4byte	.LASF111
 1684 08b4 11       		.byte	0x11
 1685 08b5 B7       		.byte	0xb7
 1686 08b6 EC080000 		.4byte	0x8ec
 1687 08ba 18       		.byte	0x18
 1688 08bb 07       		.uleb128 0x7
 1689 08bc D7020000 		.4byte	.LASF112
 1690 08c0 11       		.byte	0x11
 1691 08c1 B8       		.byte	0xb8
 1692 08c2 F3000000 		.4byte	0xf3
 1693 08c6 1C       		.byte	0x1c
 1694 08c7 07       		.uleb128 0x7
 1695 08c8 85050000 		.4byte	.LASF113
 1696 08cc 11       		.byte	0x11
 1697 08cd B9       		.byte	0xb9
 1698 08ce F3000000 		.4byte	0xf3
 1699 08d2 20       		.byte	0x20
 1700 08d3 07       		.uleb128 0x7
 1701 08d4 1E090000 		.4byte	.LASF114
 1702 08d8 11       		.byte	0x11
 1703 08d9 BA       		.byte	0xba
 1704 08da F3000000 		.4byte	0xf3
 1705 08de 24       		.byte	0x24
 1706 08df 12       		.uleb128 0x12
 1707 08e0 42525200 		.ascii	"BRR\000"
 1708 08e4 11       		.byte	0x11
 1709 08e5 BB       		.byte	0xbb
 1710 08e6 F3000000 		.4byte	0xf3
 1711 08ea 28       		.byte	0x28
 1712 08eb 00       		.byte	0
 1713 08ec 05       		.uleb128 0x5
 1714 08ed 44080000 		.4byte	0x844
 1715 08f1 03       		.uleb128 0x3
 1716 08f2 2F020000 		.4byte	.LASF115
 1717 08f6 11       		.byte	0x11
 1718 08f7 BC       		.byte	0xbc
 1719 08f8 5F080000 		.4byte	0x85f
 1720 08fc 11       		.uleb128 0x11
 1721 08fd 75000000 		.4byte	.LASF116
 1722 0901 11       		.byte	0x11
 1723 0902 0E01     		.2byte	0x10e
 1724 0904 CE000000 		.4byte	0xce
 1725 0908 0B       		.uleb128 0xb
 1726 0909 04       		.byte	0x4
 1727 090a BF040000 		.4byte	0x4bf
 1728 090e 1D       		.uleb128 0x1d
 1729 090f 01       		.byte	0x1
 1730 0910 12       		.byte	0x12
 1731 0911 40       		.byte	0x40
 1732 0912 29090000 		.4byte	0x929
 1733 0916 1E       		.uleb128 0x1e
 1734 0917 EF020000 		.4byte	.LASF117
 1735 091b 00       		.sleb128 0
 1736 091c 1E       		.uleb128 0x1e
ARM GAS  C:\Users\jo\AppData\Local\Temp\cc5Gtjn4.s 			page 32


 1737 091d FB020000 		.4byte	.LASF118
 1738 0921 01       		.sleb128 1
 1739 0922 1E       		.uleb128 0x1e
 1740 0923 83030000 		.4byte	.LASF119
 1741 0927 02       		.sleb128 2
 1742 0928 00       		.byte	0
 1743 0929 03       		.uleb128 0x3
 1744 092a 04020000 		.4byte	.LASF120
 1745 092e 12       		.byte	0x12
 1746 092f 44       		.byte	0x44
 1747 0930 0E090000 		.4byte	0x90e
 1748 0934 1D       		.uleb128 0x1d
 1749 0935 01       		.byte	0x1
 1750 0936 12       		.byte	0x12
 1751 0937 49       		.byte	0x49
 1752 0938 4F090000 		.4byte	0x94f
 1753 093c 1E       		.uleb128 0x1e
 1754 093d DD070000 		.4byte	.LASF121
 1755 0941 00       		.sleb128 0
 1756 0942 1E       		.uleb128 0x1e
 1757 0943 86020000 		.4byte	.LASF122
 1758 0947 01       		.sleb128 1
 1759 0948 1E       		.uleb128 0x1e
 1760 0949 59060000 		.4byte	.LASF123
 1761 094d 02       		.sleb128 2
 1762 094e 00       		.byte	0
 1763 094f 03       		.uleb128 0x3
 1764 0950 33040000 		.4byte	.LASF124
 1765 0954 12       		.byte	0x12
 1766 0955 4D       		.byte	0x4d
 1767 0956 34090000 		.4byte	0x934
 1768 095a 1D       		.uleb128 0x1d
 1769 095b 01       		.byte	0x1
 1770 095c 12       		.byte	0x12
 1771 095d 52       		.byte	0x52
 1772 095e 75090000 		.4byte	0x975
 1773 0962 1E       		.uleb128 0x1e
 1774 0963 1D070000 		.4byte	.LASF125
 1775 0967 00       		.sleb128 0
 1776 0968 1E       		.uleb128 0x1e
 1777 0969 2B090000 		.4byte	.LASF126
 1778 096d 01       		.sleb128 1
 1779 096e 1E       		.uleb128 0x1e
 1780 096f C0030000 		.4byte	.LASF127
 1781 0973 02       		.sleb128 2
 1782 0974 00       		.byte	0
 1783 0975 03       		.uleb128 0x3
 1784 0976 DB010000 		.4byte	.LASF128
 1785 097a 12       		.byte	0x12
 1786 097b 56       		.byte	0x56
 1787 097c 5A090000 		.4byte	0x95a
 1788 0980 11       		.uleb128 0x11
 1789 0981 03040000 		.4byte	.LASF129
 1790 0985 13       		.byte	0x13
 1791 0986 2D01     		.2byte	0x12d
 1792 0988 CE000000 		.4byte	0xce
 1793 098c 11       		.uleb128 0x11
ARM GAS  C:\Users\jo\AppData\Local\Temp\cc5Gtjn4.s 			page 33


 1794 098d E9010000 		.4byte	.LASF130
 1795 0991 13       		.byte	0x13
 1796 0992 3201     		.2byte	0x132
 1797 0994 98090000 		.4byte	0x998
 1798 0998 0A       		.uleb128 0xa
 1799 0999 E9010000 		.4byte	.LASF130
 1800 099d 1C       		.byte	0x1c
 1801 099e 13       		.byte	0x13
 1802 099f 7A01     		.2byte	0x17a
 1803 09a1 280A0000 		.4byte	0xa28
 1804 09a5 09       		.uleb128 0x9
 1805 09a6 85010000 		.4byte	.LASF131
 1806 09aa 13       		.byte	0x13
 1807 09ab 7E01     		.2byte	0x17e
 1808 09ad 29090000 		.4byte	0x929
 1809 09b1 00       		.byte	0
 1810 09b2 09       		.uleb128 0x9
 1811 09b3 8B010000 		.4byte	.LASF132
 1812 09b7 13       		.byte	0x13
 1813 09b8 8201     		.2byte	0x182
 1814 09ba 4F090000 		.4byte	0x94f
 1815 09be 01       		.byte	0x1
 1816 09bf 09       		.uleb128 0x9
 1817 09c0 5E010000 		.4byte	.LASF133
 1818 09c4 13       		.byte	0x13
 1819 09c5 8601     		.2byte	0x186
 1820 09c7 75090000 		.4byte	0x975
 1821 09cb 02       		.byte	0x2
 1822 09cc 09       		.uleb128 0x9
 1823 09cd 16070000 		.4byte	.LASF134
 1824 09d1 13       		.byte	0x13
 1825 09d2 8A01     		.2byte	0x18a
 1826 09d4 1A0B0000 		.4byte	0xb1a
 1827 09d8 04       		.byte	0x4
 1828 09d9 09       		.uleb128 0x9
 1829 09da 95020000 		.4byte	.LASF135
 1830 09de 13       		.byte	0x13
 1831 09df 9201     		.2byte	0x192
 1832 09e1 08090000 		.4byte	0x908
 1833 09e5 08       		.byte	0x8
 1834 09e6 09       		.uleb128 0x9
 1835 09e7 08010000 		.4byte	.LASF136
 1836 09eb 13       		.byte	0x13
 1837 09ec A501     		.2byte	0x1a5
 1838 09ee E9000000 		.4byte	0xe9
 1839 09f2 0C       		.byte	0xc
 1840 09f3 09       		.uleb128 0x9
 1841 09f4 BD080000 		.4byte	.LASF137
 1842 09f8 13       		.byte	0x13
 1843 09f9 A701     		.2byte	0x1a7
 1844 09fb E9000000 		.4byte	0xe9
 1845 09ff 0E       		.byte	0xe
 1846 0a00 09       		.uleb128 0x9
 1847 0a01 52030000 		.4byte	.LASF138
 1848 0a05 13       		.byte	0x13
 1849 0a06 A801     		.2byte	0x1a8
 1850 0a08 250B0000 		.4byte	0xb25
ARM GAS  C:\Users\jo\AppData\Local\Temp\cc5Gtjn4.s 			page 34


 1851 0a0c 10       		.byte	0x10
 1852 0a0d 09       		.uleb128 0x9
 1853 0a0e 16090000 		.4byte	.LASF139
 1854 0a12 13       		.byte	0x13
 1855 0a13 A901     		.2byte	0x1a9
 1856 0a15 E9000000 		.4byte	0xe9
 1857 0a19 14       		.byte	0x14
 1858 0a1a 09       		.uleb128 0x9
 1859 0a1b 74010000 		.4byte	.LASF140
 1860 0a1f 13       		.byte	0x13
 1861 0a20 AA01     		.2byte	0x1aa
 1862 0a22 250B0000 		.4byte	0xb25
 1863 0a26 18       		.byte	0x18
 1864 0a27 00       		.byte	0
 1865 0a28 11       		.uleb128 0x11
 1866 0a29 43010000 		.4byte	.LASF141
 1867 0a2d 13       		.byte	0x13
 1868 0a2e 3901     		.2byte	0x139
 1869 0a30 340A0000 		.4byte	0xa34
 1870 0a34 0B       		.uleb128 0xb
 1871 0a35 04       		.byte	0x4
 1872 0a36 3A0A0000 		.4byte	0xa3a
 1873 0a3a 0C       		.uleb128 0xc
 1874 0a3b 450A0000 		.4byte	0xa45
 1875 0a3f 0D       		.uleb128 0xd
 1876 0a40 450A0000 		.4byte	0xa45
 1877 0a44 00       		.byte	0
 1878 0a45 0B       		.uleb128 0xb
 1879 0a46 04       		.byte	0x4
 1880 0a47 8C090000 		.4byte	0x98c
 1881 0a4b 11       		.uleb128 0x11
 1882 0a4c B8060000 		.4byte	.LASF142
 1883 0a50 13       		.byte	0x13
 1884 0a51 4101     		.2byte	0x141
 1885 0a53 570A0000 		.4byte	0xa57
 1886 0a57 0B       		.uleb128 0xb
 1887 0a58 04       		.byte	0x4
 1888 0a59 5D0A0000 		.4byte	0xa5d
 1889 0a5d 0C       		.uleb128 0xc
 1890 0a5e 6D0A0000 		.4byte	0xa6d
 1891 0a62 0D       		.uleb128 0xd
 1892 0a63 450A0000 		.4byte	0xa45
 1893 0a67 0D       		.uleb128 0xd
 1894 0a68 B8000000 		.4byte	0xb8
 1895 0a6c 00       		.byte	0
 1896 0a6d 11       		.uleb128 0x11
 1897 0a6e CD020000 		.4byte	.LASF143
 1898 0a72 13       		.byte	0x13
 1899 0a73 4901     		.2byte	0x149
 1900 0a75 790A0000 		.4byte	0xa79
 1901 0a79 0B       		.uleb128 0xb
 1902 0a7a 04       		.byte	0x4
 1903 0a7b 7F0A0000 		.4byte	0xa7f
 1904 0a7f 0C       		.uleb128 0xc
 1905 0a80 8F0A0000 		.4byte	0xa8f
 1906 0a84 0D       		.uleb128 0xd
 1907 0a85 450A0000 		.4byte	0xa45
ARM GAS  C:\Users\jo\AppData\Local\Temp\cc5Gtjn4.s 			page 35


 1908 0a89 0D       		.uleb128 0xd
 1909 0a8a 80090000 		.4byte	0x980
 1910 0a8e 00       		.byte	0
 1911 0a8f 10       		.uleb128 0x10
 1912 0a90 24       		.byte	0x24
 1913 0a91 13       		.byte	0x13
 1914 0a92 4F01     		.2byte	0x14f
 1915 0a94 0E0B0000 		.4byte	0xb0e
 1916 0a98 09       		.uleb128 0x9
 1917 0a99 9B080000 		.4byte	.LASF144
 1918 0a9d 13       		.byte	0x13
 1919 0a9e 5301     		.2byte	0x153
 1920 0aa0 280A0000 		.4byte	0xa28
 1921 0aa4 00       		.byte	0
 1922 0aa5 09       		.uleb128 0x9
 1923 0aa6 AB050000 		.4byte	.LASF145
 1924 0aaa 13       		.byte	0x13
 1925 0aab 5701     		.2byte	0x157
 1926 0aad 280A0000 		.4byte	0xa28
 1927 0ab1 04       		.byte	0x4
 1928 0ab2 09       		.uleb128 0x9
 1929 0ab3 19040000 		.4byte	.LASF146
 1930 0ab7 13       		.byte	0x13
 1931 0ab8 5B01     		.2byte	0x15b
 1932 0aba 280A0000 		.4byte	0xa28
 1933 0abe 08       		.byte	0x8
 1934 0abf 09       		.uleb128 0x9
 1935 0ac0 1C000000 		.4byte	.LASF147
 1936 0ac4 13       		.byte	0x13
 1937 0ac5 5F01     		.2byte	0x15f
 1938 0ac7 4B0A0000 		.4byte	0xa4b
 1939 0acb 0C       		.byte	0xc
 1940 0acc 09       		.uleb128 0x9
 1941 0acd E0030000 		.4byte	.LASF148
 1942 0ad1 13       		.byte	0x13
 1943 0ad2 6301     		.2byte	0x163
 1944 0ad4 6D0A0000 		.4byte	0xa6d
 1945 0ad8 10       		.byte	0x10
 1946 0ad9 09       		.uleb128 0x9
 1947 0ada 72030000 		.4byte	.LASF149
 1948 0ade 13       		.byte	0x13
 1949 0adf 6801     		.2byte	0x168
 1950 0ae1 CE000000 		.4byte	0xce
 1951 0ae5 14       		.byte	0x14
 1952 0ae6 08       		.uleb128 0x8
 1953 0ae7 63723100 		.ascii	"cr1\000"
 1954 0aeb 13       		.byte	0x13
 1955 0aec 6C01     		.2byte	0x16c
 1956 0aee CE000000 		.4byte	0xce
 1957 0af2 18       		.byte	0x18
 1958 0af3 08       		.uleb128 0x8
 1959 0af4 63723200 		.ascii	"cr2\000"
 1960 0af8 13       		.byte	0x13
 1961 0af9 7001     		.2byte	0x170
 1962 0afb CE000000 		.4byte	0xce
 1963 0aff 1C       		.byte	0x1c
 1964 0b00 08       		.uleb128 0x8
ARM GAS  C:\Users\jo\AppData\Local\Temp\cc5Gtjn4.s 			page 36


 1965 0b01 63723300 		.ascii	"cr3\000"
 1966 0b05 13       		.byte	0x13
 1967 0b06 7401     		.2byte	0x174
 1968 0b08 CE000000 		.4byte	0xce
 1969 0b0c 20       		.byte	0x20
 1970 0b0d 00       		.byte	0
 1971 0b0e 11       		.uleb128 0x11
 1972 0b0f F0000000 		.4byte	.LASF150
 1973 0b13 13       		.byte	0x13
 1974 0b14 7501     		.2byte	0x175
 1975 0b16 8F0A0000 		.4byte	0xa8f
 1976 0b1a 0B       		.uleb128 0xb
 1977 0b1b 04       		.byte	0x4
 1978 0b1c 200B0000 		.4byte	0xb20
 1979 0b20 14       		.uleb128 0x14
 1980 0b21 0E0B0000 		.4byte	0xb0e
 1981 0b25 0B       		.uleb128 0xb
 1982 0b26 04       		.byte	0x4
 1983 0b27 E4000000 		.4byte	0xe4
 1984 0b2b 06       		.uleb128 0x6
 1985 0b2c E7060000 		.4byte	.LASF151
 1986 0b30 10       		.byte	0x10
 1987 0b31 14       		.byte	0x14
 1988 0b32 2E       		.byte	0x2e
 1989 0b33 680B0000 		.4byte	0xb68
 1990 0b37 07       		.uleb128 0x7
 1991 0b38 8E030000 		.4byte	.LASF102
 1992 0b3c 14       		.byte	0x14
 1993 0b3d 2F       		.byte	0x2f
 1994 0b3e B2070000 		.4byte	0x7b2
 1995 0b42 00       		.byte	0
 1996 0b43 07       		.uleb128 0x7
 1997 0b44 DD060000 		.4byte	.LASF103
 1998 0b48 14       		.byte	0x14
 1999 0b49 2F       		.byte	0x2f
 2000 0b4a D1070000 		.4byte	0x7d1
 2001 0b4e 04       		.byte	0x4
 2002 0b4f 12       		.uleb128 0x12
 2003 0b50 70757400 		.ascii	"put\000"
 2004 0b54 14       		.byte	0x14
 2005 0b55 2F       		.byte	0x2f
 2006 0b56 EB070000 		.4byte	0x7eb
 2007 0b5a 08       		.byte	0x8
 2008 0b5b 12       		.uleb128 0x12
 2009 0b5c 67657400 		.ascii	"get\000"
 2010 0b60 14       		.byte	0x14
 2011 0b61 2F       		.byte	0x2f
 2012 0b62 25070000 		.4byte	0x725
 2013 0b66 0C       		.byte	0xc
 2014 0b67 00       		.byte	0
 2015 0b68 15       		.uleb128 0x15
 2016 0b69 04       		.byte	0x4
 2017 0b6a 14       		.byte	0x14
 2018 0b6b 39       		.byte	0x39
 2019 0b6c 7D0B0000 		.4byte	0xb7d
 2020 0b70 12       		.uleb128 0x12
 2021 0b71 766D7400 		.ascii	"vmt\000"
ARM GAS  C:\Users\jo\AppData\Local\Temp\cc5Gtjn4.s 			page 37


 2022 0b75 14       		.byte	0x14
 2023 0b76 3B       		.byte	0x3b
 2024 0b77 7D0B0000 		.4byte	0xb7d
 2025 0b7b 00       		.byte	0
 2026 0b7c 00       		.byte	0
 2027 0b7d 0B       		.uleb128 0xb
 2028 0b7e 04       		.byte	0x4
 2029 0b7f 830B0000 		.4byte	0xb83
 2030 0b83 14       		.uleb128 0x14
 2031 0b84 2B0B0000 		.4byte	0xb2b
 2032 0b88 03       		.uleb128 0x3
 2033 0b89 8A050000 		.4byte	.LASF152
 2034 0b8d 14       		.byte	0x14
 2035 0b8e 3D       		.byte	0x3d
 2036 0b8f 680B0000 		.4byte	0xb68
 2037 0b93 03       		.uleb128 0x3
 2038 0b94 53000000 		.4byte	.LASF153
 2039 0b98 0C       		.byte	0xc
 2040 0b99 62       		.byte	0x62
 2041 0b9a 41060000 		.4byte	0x641
 2042 0b9e 03       		.uleb128 0x3
 2043 0b9f 70000000 		.4byte	.LASF154
 2044 0ba3 15       		.byte	0x15
 2045 0ba4 2B       		.byte	0x2b
 2046 0ba5 AD000000 		.4byte	0xad
 2047 0ba9 03       		.uleb128 0x3
 2048 0baa 6A000000 		.4byte	.LASF155
 2049 0bae 15       		.byte	0x15
 2050 0baf 2D       		.byte	0x2d
 2051 0bb0 50000000 		.4byte	0x50
 2052 0bb4 03       		.uleb128 0x3
 2053 0bb5 AF070000 		.4byte	.LASF156
 2054 0bb9 15       		.byte	0x15
 2055 0bba 2E       		.byte	0x2e
 2056 0bbb 63060000 		.4byte	0x663
 2057 0bbf 03       		.uleb128 0x3
 2058 0bc0 6E010000 		.4byte	.LASF157
 2059 0bc4 15       		.byte	0x15
 2060 0bc5 33       		.byte	0x33
 2061 0bc6 CE000000 		.4byte	0xce
 2062 0bca 1D       		.uleb128 0x1d
 2063 0bcb 01       		.byte	0x1
 2064 0bcc 16       		.byte	0x16
 2065 0bcd 50       		.byte	0x50
 2066 0bce E50B0000 		.4byte	0xbe5
 2067 0bd2 1E       		.uleb128 0x1e
 2068 0bd3 C2010000 		.4byte	.LASF158
 2069 0bd7 00       		.sleb128 0
 2070 0bd8 1E       		.uleb128 0x1e
 2071 0bd9 D3080000 		.4byte	.LASF159
 2072 0bdd 01       		.sleb128 1
 2073 0bde 1E       		.uleb128 0x1e
 2074 0bdf A3070000 		.4byte	.LASF160
 2075 0be3 02       		.sleb128 2
 2076 0be4 00       		.byte	0
 2077 0be5 03       		.uleb128 0x3
 2078 0be6 18010000 		.4byte	.LASF161
ARM GAS  C:\Users\jo\AppData\Local\Temp\cc5Gtjn4.s 			page 38


 2079 0bea 16       		.byte	0x16
 2080 0beb 54       		.byte	0x54
 2081 0bec CA0B0000 		.4byte	0xbca
 2082 0bf0 1F       		.uleb128 0x1f
 2083 0bf1 BD050000 		.4byte	.LASF191
 2084 0bf5 01       		.byte	0x1
 2085 0bf6 AE       		.byte	0xae
 2086 0bf7 01       		.byte	0x1
 2087 0bf8 110C0000 		.4byte	0xc11
 2088 0bfc 20       		.uleb128 0x20
 2089 0bfd 94030000 		.4byte	.LASF162
 2090 0c01 01       		.byte	0x1
 2091 0c02 AE       		.byte	0xae
 2092 0c03 450A0000 		.4byte	0xa45
 2093 0c07 21       		.uleb128 0x21
 2094 0c08 6500     		.ascii	"e\000"
 2095 0c0a 01       		.byte	0x1
 2096 0c0b AE       		.byte	0xae
 2097 0c0c 80090000 		.4byte	0x980
 2098 0c10 00       		.byte	0
 2099 0c11 22       		.uleb128 0x22
 2100 0c12 62090000 		.4byte	.LASF192
 2101 0c16 02       		.byte	0x2
 2102 0c17 45       		.byte	0x45
 2103 0c18 25000000 		.4byte	0x25
 2104 0c1c 03       		.byte	0x3
 2105 0c1d 4E0C0000 		.4byte	0xc4e
 2106 0c21 21       		.uleb128 0x21
 2107 0c22 63687000 		.ascii	"chp\000"
 2108 0c26 02       		.byte	0x2
 2109 0c27 45       		.byte	0x45
 2110 0c28 4E0C0000 		.4byte	0xc4e
 2111 0c2c 21       		.uleb128 0x21
 2112 0c2d 666D7400 		.ascii	"fmt\000"
 2113 0c31 02       		.byte	0x2
 2114 0c32 45       		.byte	0x45
 2115 0c33 6A060000 		.4byte	0x66a
 2116 0c37 23       		.uleb128 0x23
 2117 0c38 24       		.uleb128 0x24
 2118 0c39 617000   		.ascii	"ap\000"
 2119 0c3c 02       		.byte	0x2
 2120 0c3d 46       		.byte	0x46
 2121 0c3e 930B0000 		.4byte	0xb93
 2122 0c42 25       		.uleb128 0x25
 2123 0c43 A6000000 		.4byte	.LASF163
 2124 0c47 02       		.byte	0x2
 2125 0c48 47       		.byte	0x47
 2126 0c49 25000000 		.4byte	0x25
 2127 0c4d 00       		.byte	0
 2128 0c4e 0B       		.uleb128 0xb
 2129 0c4f 04       		.byte	0x4
 2130 0c50 11080000 		.4byte	0x811
 2131 0c54 26       		.uleb128 0x26
 2132 0c55 28020000 		.4byte	.LASF164
 2133 0c59 01       		.byte	0x1
 2134 0c5a 91       		.byte	0x91
 2135 0c5b 00000000 		.4byte	.LFB261
ARM GAS  C:\Users\jo\AppData\Local\Temp\cc5Gtjn4.s 			page 39


 2136 0c5f 0C000000 		.4byte	.LFE261-.LFB261
 2137 0c63 01       		.uleb128 0x1
 2138 0c64 9C       		.byte	0x9c
 2139 0c65 790C0000 		.4byte	0xc79
 2140 0c69 27       		.uleb128 0x27
 2141 0c6a 94030000 		.4byte	.LASF162
 2142 0c6e 01       		.byte	0x1
 2143 0c6f 91       		.byte	0x91
 2144 0c70 450A0000 		.4byte	0xa45
 2145 0c74 00000000 		.4byte	.LLST0
 2146 0c78 00       		.byte	0
 2147 0c79 26       		.uleb128 0x26
 2148 0c7a 73050000 		.4byte	.LASF165
 2149 0c7e 01       		.byte	0x1
 2150 0c7f 9F       		.byte	0x9f
 2151 0c80 00000000 		.4byte	.LFB262
 2152 0c84 0C000000 		.4byte	.LFE262-.LFB262
 2153 0c88 01       		.uleb128 0x1
 2154 0c89 9C       		.byte	0x9c
 2155 0c8a AB0C0000 		.4byte	0xcab
 2156 0c8e 27       		.uleb128 0x27
 2157 0c8f 94030000 		.4byte	.LASF162
 2158 0c93 01       		.byte	0x1
 2159 0c94 9F       		.byte	0x9f
 2160 0c95 450A0000 		.4byte	0xa45
 2161 0c99 21000000 		.4byte	.LLST1
 2162 0c9d 28       		.uleb128 0x28
 2163 0c9e 6300     		.ascii	"c\000"
 2164 0ca0 01       		.byte	0x1
 2165 0ca1 9F       		.byte	0x9f
 2166 0ca2 B8000000 		.4byte	0xb8
 2167 0ca6 42000000 		.4byte	.LLST2
 2168 0caa 00       		.byte	0
 2169 0cab 29       		.uleb128 0x29
 2170 0cac 110C0000 		.4byte	0xc11
 2171 0cb0 00000000 		.4byte	.LFB265
 2172 0cb4 28000000 		.4byte	.LFE265-.LFB265
 2173 0cb8 01       		.uleb128 0x1
 2174 0cb9 9C       		.byte	0x9c
 2175 0cba 0A0D0000 		.4byte	0xd0a
 2176 0cbe 2A       		.uleb128 0x2a
 2177 0cbf 210C0000 		.4byte	0xc21
 2178 0cc3 63000000 		.4byte	.LLST3
 2179 0cc7 2B       		.uleb128 0x2b
 2180 0cc8 2C0C0000 		.4byte	0xc2c
 2181 0ccc 02       		.uleb128 0x2
 2182 0ccd 91       		.byte	0x91
 2183 0cce 74       		.sleb128 -12
 2184 0ccf 23       		.uleb128 0x23
 2185 0cd0 2C       		.uleb128 0x2c
 2186 0cd1 380C0000 		.4byte	0xc38
 2187 0cd5 02       		.uleb128 0x2
 2188 0cd6 91       		.byte	0x91
 2189 0cd7 6C       		.sleb128 -20
 2190 0cd8 2C       		.uleb128 0x2c
 2191 0cd9 420C0000 		.4byte	0xc42
 2192 0cdd 01       		.uleb128 0x1
ARM GAS  C:\Users\jo\AppData\Local\Temp\cc5Gtjn4.s 			page 40


 2193 0cde 50       		.byte	0x50
 2194 0cdf 2B       		.uleb128 0x2b
 2195 0ce0 2C0C0000 		.4byte	0xc2c
 2196 0ce4 06       		.uleb128 0x6
 2197 0ce5 03       		.byte	0x3
 2198 0ce6 00000000 		.4byte	.LC0
 2199 0cea 9F       		.byte	0x9f
 2200 0ceb 2D       		.uleb128 0x2d
 2201 0cec 210C0000 		.4byte	0xc21
 2202 0cf0 2E       		.uleb128 0x2e
 2203 0cf1 14000000 		.4byte	.LVL6
 2204 0cf5 33100000 		.4byte	0x1033
 2205 0cf9 2F       		.uleb128 0x2f
 2206 0cfa 01       		.uleb128 0x1
 2207 0cfb 52       		.byte	0x52
 2208 0cfc 02       		.uleb128 0x2
 2209 0cfd 91       		.byte	0x91
 2210 0cfe 60       		.sleb128 -32
 2211 0cff 2F       		.uleb128 0x2f
 2212 0d00 01       		.uleb128 0x1
 2213 0d01 51       		.byte	0x51
 2214 0d02 05       		.uleb128 0x5
 2215 0d03 03       		.byte	0x3
 2216 0d04 00000000 		.4byte	.LC0
 2217 0d08 00       		.byte	0
 2218 0d09 00       		.byte	0
 2219 0d0a 29       		.uleb128 0x29
 2220 0d0b F00B0000 		.4byte	0xbf0
 2221 0d0f 00000000 		.4byte	.LFB263
 2222 0d13 80000000 		.4byte	.LFE263-.LFB263
 2223 0d17 01       		.uleb128 0x1
 2224 0d18 9C       		.byte	0x9c
 2225 0d19 FB0D0000 		.4byte	0xdfb
 2226 0d1d 2A       		.uleb128 0x2a
 2227 0d1e FC0B0000 		.4byte	0xbfc
 2228 0d22 84000000 		.4byte	.LLST4
 2229 0d26 2A       		.uleb128 0x2a
 2230 0d27 070C0000 		.4byte	0xc07
 2231 0d2b BE000000 		.4byte	.LLST5
 2232 0d2f 30       		.uleb128 0x30
 2233 0d30 00000000 		.4byte	.Ldebug_ranges0+0
 2234 0d34 5E0D0000 		.4byte	0xd5e
 2235 0d38 2A       		.uleb128 0x2a
 2236 0d39 FC0B0000 		.4byte	0xbfc
 2237 0d3d 3A010000 		.4byte	.LLST6
 2238 0d41 2A       		.uleb128 0x2a
 2239 0d42 070C0000 		.4byte	0xc07
 2240 0d46 50010000 		.4byte	.LLST7
 2241 0d4a 31       		.uleb128 0x31
 2242 0d4b 30000000 		.4byte	.LVL13
 2243 0d4f AB0C0000 		.4byte	0xcab
 2244 0d53 2F       		.uleb128 0x2f
 2245 0d54 01       		.uleb128 0x1
 2246 0d55 52       		.byte	0x52
 2247 0d56 05       		.uleb128 0x5
 2248 0d57 03       		.byte	0x3
 2249 0d58 34000000 		.4byte	.LC5
ARM GAS  C:\Users\jo\AppData\Local\Temp\cc5Gtjn4.s 			page 41


 2250 0d5c 00       		.byte	0
 2251 0d5d 00       		.byte	0
 2252 0d5e 32       		.uleb128 0x32
 2253 0d5f 26000000 		.4byte	.LVL11
 2254 0d63 AB0C0000 		.4byte	0xcab
 2255 0d67 7E0D0000 		.4byte	0xd7e
 2256 0d6b 2F       		.uleb128 0x2f
 2257 0d6c 01       		.uleb128 0x1
 2258 0d6d 52       		.byte	0x52
 2259 0d6e 05       		.uleb128 0x5
 2260 0d6f 03       		.byte	0x3
 2261 0d70 44000000 		.4byte	.LC6
 2262 0d74 2F       		.uleb128 0x2f
 2263 0d75 01       		.uleb128 0x1
 2264 0d76 51       		.byte	0x51
 2265 0d77 05       		.uleb128 0x5
 2266 0d78 03       		.byte	0x3
 2267 0d79 00000000 		.4byte	.LC0
 2268 0d7d 00       		.byte	0
 2269 0d7e 33       		.uleb128 0x33
 2270 0d7f 3A000000 		.4byte	.LVL14
 2271 0d83 AB0C0000 		.4byte	0xcab
 2272 0d87 9E0D0000 		.4byte	0xd9e
 2273 0d8b 2F       		.uleb128 0x2f
 2274 0d8c 01       		.uleb128 0x1
 2275 0d8d 52       		.byte	0x52
 2276 0d8e 05       		.uleb128 0x5
 2277 0d8f 03       		.byte	0x3
 2278 0d90 28000000 		.4byte	.LC4
 2279 0d94 2F       		.uleb128 0x2f
 2280 0d95 01       		.uleb128 0x1
 2281 0d96 51       		.byte	0x51
 2282 0d97 05       		.uleb128 0x5
 2283 0d98 03       		.byte	0x3
 2284 0d99 00000000 		.4byte	.LC0
 2285 0d9d 00       		.byte	0
 2286 0d9e 33       		.uleb128 0x33
 2287 0d9f 46000000 		.4byte	.LVL15
 2288 0da3 AB0C0000 		.4byte	0xcab
 2289 0da7 BE0D0000 		.4byte	0xdbe
 2290 0dab 2F       		.uleb128 0x2f
 2291 0dac 01       		.uleb128 0x1
 2292 0dad 52       		.byte	0x52
 2293 0dae 05       		.uleb128 0x5
 2294 0daf 03       		.byte	0x3
 2295 0db0 1C000000 		.4byte	.LC3
 2296 0db4 2F       		.uleb128 0x2f
 2297 0db5 01       		.uleb128 0x1
 2298 0db6 51       		.byte	0x51
 2299 0db7 05       		.uleb128 0x5
 2300 0db8 03       		.byte	0x3
 2301 0db9 00000000 		.4byte	.LC0
 2302 0dbd 00       		.byte	0
 2303 0dbe 33       		.uleb128 0x33
 2304 0dbf 52000000 		.4byte	.LVL19
 2305 0dc3 AB0C0000 		.4byte	0xcab
 2306 0dc7 DE0D0000 		.4byte	0xdde
ARM GAS  C:\Users\jo\AppData\Local\Temp\cc5Gtjn4.s 			page 42


 2307 0dcb 2F       		.uleb128 0x2f
 2308 0dcc 01       		.uleb128 0x1
 2309 0dcd 52       		.byte	0x52
 2310 0dce 05       		.uleb128 0x5
 2311 0dcf 03       		.byte	0x3
 2312 0dd0 04000000 		.4byte	.LC1
 2313 0dd4 2F       		.uleb128 0x2f
 2314 0dd5 01       		.uleb128 0x1
 2315 0dd6 51       		.byte	0x51
 2316 0dd7 05       		.uleb128 0x5
 2317 0dd8 03       		.byte	0x3
 2318 0dd9 00000000 		.4byte	.LC0
 2319 0ddd 00       		.byte	0
 2320 0dde 2E       		.uleb128 0x2e
 2321 0ddf 5E000000 		.4byte	.LVL22
 2322 0de3 AB0C0000 		.4byte	0xcab
 2323 0de7 2F       		.uleb128 0x2f
 2324 0de8 01       		.uleb128 0x1
 2325 0de9 52       		.byte	0x52
 2326 0dea 05       		.uleb128 0x5
 2327 0deb 03       		.byte	0x3
 2328 0dec 10000000 		.4byte	.LC2
 2329 0df0 2F       		.uleb128 0x2f
 2330 0df1 01       		.uleb128 0x1
 2331 0df2 51       		.byte	0x51
 2332 0df3 05       		.uleb128 0x5
 2333 0df4 03       		.byte	0x3
 2334 0df5 00000000 		.4byte	.LC0
 2335 0df9 00       		.byte	0
 2336 0dfa 00       		.byte	0
 2337 0dfb 34       		.uleb128 0x34
 2338 0dfc 7D070000 		.4byte	.LASF177
 2339 0e00 01       		.byte	0x1
 2340 0e01 30       		.byte	0x30
 2341 0e02 9E0B0000 		.4byte	0xb9e
 2342 0e06 00000000 		.4byte	.LFB256
 2343 0e0a 24000000 		.4byte	.LFE256-.LFB256
 2344 0e0e 01       		.uleb128 0x1
 2345 0e0f 9C       		.byte	0x9c
 2346 0e10 810E0000 		.4byte	0xe81
 2347 0e14 27       		.uleb128 0x27
 2348 0e15 0F060000 		.4byte	.LASF166
 2349 0e19 01       		.byte	0x1
 2350 0e1a 30       		.byte	0x30
 2351 0e1b A90B0000 		.4byte	0xba9
 2352 0e1f 71010000 		.4byte	.LLST8
 2353 0e23 27       		.uleb128 0x27
 2354 0e24 3F030000 		.4byte	.LASF167
 2355 0e28 01       		.byte	0x1
 2356 0e29 30       		.byte	0x30
 2357 0e2a BF0B0000 		.4byte	0xbbf
 2358 0e2e 92010000 		.4byte	.LLST9
 2359 0e32 27       		.uleb128 0x27
 2360 0e33 F4070000 		.4byte	.LASF168
 2361 0e37 01       		.byte	0x1
 2362 0e38 30       		.byte	0x30
 2363 0e39 A90B0000 		.4byte	0xba9
ARM GAS  C:\Users\jo\AppData\Local\Temp\cc5Gtjn4.s 			page 43


 2364 0e3d C2010000 		.4byte	.LLST10
 2365 0e41 27       		.uleb128 0x27
 2366 0e42 5B080000 		.4byte	.LASF169
 2367 0e46 01       		.byte	0x1
 2368 0e47 31       		.byte	0x31
 2369 0e48 E50B0000 		.4byte	0xbe5
 2370 0e4c E3010000 		.4byte	.LLST11
 2371 0e50 35       		.uleb128 0x35
 2372 0e51 7D010000 		.4byte	.LASF170
 2373 0e55 01       		.byte	0x1
 2374 0e56 33       		.byte	0x33
 2375 0e57 9E0B0000 		.4byte	0xb9e
 2376 0e5b 00       		.byte	0
 2377 0e5c 36       		.uleb128 0x36
 2378 0e5d 95060000 		.4byte	.LASF171
 2379 0e61 01       		.byte	0x1
 2380 0e62 39       		.byte	0x39
 2381 0e63 0E0B0000 		.4byte	0xb0e
 2382 0e67 05       		.uleb128 0x5
 2383 0e68 03       		.byte	0x3
 2384 0e69 00000000 		.4byte	uartCfg.8468
 2385 0e6d 2E       		.uleb128 0x2e
 2386 0e6e 14000000 		.4byte	.LVL28
 2387 0e72 52100000 		.4byte	0x1052
 2388 0e76 2F       		.uleb128 0x2f
 2389 0e77 01       		.uleb128 0x1
 2390 0e78 51       		.byte	0x51
 2391 0e79 05       		.uleb128 0x5
 2392 0e7a 03       		.byte	0x3
 2393 0e7b 00000000 		.4byte	.LANCHOR0
 2394 0e7f 00       		.byte	0
 2395 0e80 00       		.byte	0
 2396 0e81 37       		.uleb128 0x37
 2397 0e82 F5050000 		.4byte	.LASF175
 2398 0e86 01       		.byte	0x1
 2399 0e87 4E       		.byte	0x4e
 2400 0e88 00000000 		.4byte	.LFB257
 2401 0e8c 90000000 		.4byte	.LFE257-.LFB257
 2402 0e90 01       		.uleb128 0x1
 2403 0e91 9C       		.byte	0x9c
 2404 0e92 400F0000 		.4byte	0xf40
 2405 0e96 27       		.uleb128 0x27
 2406 0e97 0E010000 		.4byte	.LASF172
 2407 0e9b 01       		.byte	0x1
 2408 0e9c 4E       		.byte	0x4e
 2409 0e9d 9E0B0000 		.4byte	0xb9e
 2410 0ea1 04020000 		.4byte	.LLST12
 2411 0ea5 27       		.uleb128 0x27
 2412 0ea6 06080000 		.4byte	.LASF173
 2413 0eaa 01       		.byte	0x1
 2414 0eab 4E       		.byte	0x4e
 2415 0eac 9E0B0000 		.4byte	0xb9e
 2416 0eb0 3E020000 		.4byte	.LLST13
 2417 0eb4 38       		.uleb128 0x38
 2418 0eb5 95070000 		.4byte	.LASF174
 2419 0eb9 01       		.byte	0x1
 2420 0eba 50       		.byte	0x50
ARM GAS  C:\Users\jo\AppData\Local\Temp\cc5Gtjn4.s 			page 44


 2421 0ebb 08090000 		.4byte	0x908
 2422 0ebf 78020000 		.4byte	.LLST14
 2423 0ec3 33       		.uleb128 0x33
 2424 0ec4 1E000000 		.4byte	.LVL33
 2425 0ec8 AB0C0000 		.4byte	0xcab
 2426 0ecc E30E0000 		.4byte	0xee3
 2427 0ed0 2F       		.uleb128 0x2f
 2428 0ed1 01       		.uleb128 0x1
 2429 0ed2 52       		.byte	0x52
 2430 0ed3 05       		.uleb128 0x5
 2431 0ed4 03       		.byte	0x3
 2432 0ed5 50000000 		.4byte	.LC7
 2433 0ed9 2F       		.uleb128 0x2f
 2434 0eda 01       		.uleb128 0x1
 2435 0edb 51       		.byte	0x51
 2436 0edc 05       		.uleb128 0x5
 2437 0edd 03       		.byte	0x3
 2438 0ede 00000000 		.4byte	.LC0
 2439 0ee2 00       		.byte	0
 2440 0ee3 32       		.uleb128 0x32
 2441 0ee4 3E000000 		.4byte	.LVL35
 2442 0ee8 AB0C0000 		.4byte	0xcab
 2443 0eec 030F0000 		.4byte	0xf03
 2444 0ef0 2F       		.uleb128 0x2f
 2445 0ef1 01       		.uleb128 0x1
 2446 0ef2 52       		.byte	0x52
 2447 0ef3 05       		.uleb128 0x5
 2448 0ef4 03       		.byte	0x3
 2449 0ef5 80000000 		.4byte	.LC10
 2450 0ef9 2F       		.uleb128 0x2f
 2451 0efa 01       		.uleb128 0x1
 2452 0efb 51       		.byte	0x51
 2453 0efc 05       		.uleb128 0x5
 2454 0efd 03       		.byte	0x3
 2455 0efe 00000000 		.4byte	.LC0
 2456 0f02 00       		.byte	0
 2457 0f03 33       		.uleb128 0x33
 2458 0f04 4E000000 		.4byte	.LVL38
 2459 0f08 AB0C0000 		.4byte	0xcab
 2460 0f0c 230F0000 		.4byte	0xf23
 2461 0f10 2F       		.uleb128 0x2f
 2462 0f11 01       		.uleb128 0x1
 2463 0f12 52       		.byte	0x52
 2464 0f13 05       		.uleb128 0x5
 2465 0f14 03       		.byte	0x3
 2466 0f15 60000000 		.4byte	.LC8
 2467 0f19 2F       		.uleb128 0x2f
 2468 0f1a 01       		.uleb128 0x1
 2469 0f1b 51       		.byte	0x51
 2470 0f1c 05       		.uleb128 0x5
 2471 0f1d 03       		.byte	0x3
 2472 0f1e 00000000 		.4byte	.LC0
 2473 0f22 00       		.byte	0
 2474 0f23 31       		.uleb128 0x31
 2475 0f24 70000000 		.4byte	.LVL40
 2476 0f28 AB0C0000 		.4byte	0xcab
 2477 0f2c 2F       		.uleb128 0x2f
ARM GAS  C:\Users\jo\AppData\Local\Temp\cc5Gtjn4.s 			page 45


 2478 0f2d 01       		.uleb128 0x1
 2479 0f2e 52       		.byte	0x52
 2480 0f2f 05       		.uleb128 0x5
 2481 0f30 03       		.byte	0x3
 2482 0f31 70000000 		.4byte	.LC9
 2483 0f35 2F       		.uleb128 0x2f
 2484 0f36 01       		.uleb128 0x1
 2485 0f37 51       		.byte	0x51
 2486 0f38 05       		.uleb128 0x5
 2487 0f39 03       		.byte	0x3
 2488 0f3a 00000000 		.4byte	.LC0
 2489 0f3e 00       		.byte	0
 2490 0f3f 00       		.byte	0
 2491 0f40 37       		.uleb128 0x37
 2492 0f41 A5010000 		.4byte	.LASF176
 2493 0f45 01       		.byte	0x1
 2494 0f46 72       		.byte	0x72
 2495 0f47 00000000 		.4byte	.LFB258
 2496 0f4b 0C000000 		.4byte	.LFE258-.LFB258
 2497 0f4f 01       		.uleb128 0x1
 2498 0f50 9C       		.byte	0x9c
 2499 0f51 5F0F0000 		.4byte	0xf5f
 2500 0f55 39       		.uleb128 0x39
 2501 0f56 08000000 		.4byte	.LVL41
 2502 0f5a 68100000 		.4byte	0x1068
 2503 0f5e 00       		.byte	0
 2504 0f5f 34       		.uleb128 0x34
 2505 0f60 31080000 		.4byte	.LASF178
 2506 0f64 01       		.byte	0x1
 2507 0f65 77       		.byte	0x77
 2508 0f66 9E0B0000 		.4byte	0xb9e
 2509 0f6a 00000000 		.4byte	.LFB259
 2510 0f6e 10000000 		.4byte	.LFE259-.LFB259
 2511 0f72 01       		.uleb128 0x1
 2512 0f73 9C       		.byte	0x9c
 2513 0f74 950F0000 		.4byte	0xf95
 2514 0f78 27       		.uleb128 0x27
 2515 0f79 82000000 		.4byte	.LASF179
 2516 0f7d 01       		.byte	0x1
 2517 0f7e 77       		.byte	0x77
 2518 0f7f B40B0000 		.4byte	0xbb4
 2519 0f83 96020000 		.4byte	.LLST15
 2520 0f87 36       		.uleb128 0x36
 2521 0f88 95070000 		.4byte	.LASF174
 2522 0f8c 01       		.byte	0x1
 2523 0f8d 79       		.byte	0x79
 2524 0f8e 08090000 		.4byte	0x908
 2525 0f92 01       		.uleb128 0x1
 2526 0f93 53       		.byte	0x53
 2527 0f94 00       		.byte	0
 2528 0f95 34       		.uleb128 0x34
 2529 0f96 9D060000 		.4byte	.LASF180
 2530 0f9a 01       		.byte	0x1
 2531 0f9b 82       		.byte	0x82
 2532 0f9c 9E0B0000 		.4byte	0xb9e
 2533 0fa0 00000000 		.4byte	.LFB260
 2534 0fa4 14000000 		.4byte	.LFE260-.LFB260
ARM GAS  C:\Users\jo\AppData\Local\Temp\cc5Gtjn4.s 			page 46


 2535 0fa8 01       		.uleb128 0x1
 2536 0fa9 9C       		.byte	0x9c
 2537 0faa CD0F0000 		.4byte	0xfcd
 2538 0fae 27       		.uleb128 0x27
 2539 0faf 4C080000 		.4byte	.LASF181
 2540 0fb3 01       		.byte	0x1
 2541 0fb4 82       		.byte	0x82
 2542 0fb5 CD0F0000 		.4byte	0xfcd
 2543 0fb9 B7020000 		.4byte	.LLST16
 2544 0fbd 38       		.uleb128 0x38
 2545 0fbe 95070000 		.4byte	.LASF174
 2546 0fc2 01       		.byte	0x1
 2547 0fc3 84       		.byte	0x84
 2548 0fc4 08090000 		.4byte	0x908
 2549 0fc8 D8020000 		.4byte	.LLST17
 2550 0fcc 00       		.byte	0
 2551 0fcd 0B       		.uleb128 0xb
 2552 0fce 04       		.byte	0x4
 2553 0fcf B40B0000 		.4byte	0xbb4
 2554 0fd3 36       		.uleb128 0x36
 2555 0fd4 C5080000 		.4byte	.LASF182
 2556 0fd8 01       		.byte	0x1
 2557 0fd9 1F       		.byte	0x1f
 2558 0fda 450A0000 		.4byte	0xa45
 2559 0fde 05       		.uleb128 0x5
 2560 0fdf 03       		.byte	0x3
 2561 0fe0 00000000 		.4byte	serial
 2562 0fe4 3A       		.uleb128 0x3a
 2563 0fe5 FB000000 		.4byte	.LASF183
 2564 0fe9 17       		.byte	0x17
 2565 0fea A706     		.2byte	0x6a7
 2566 0fec EE000000 		.4byte	0xee
 2567 0ff0 3B       		.uleb128 0x3b
 2568 0ff1 636800   		.ascii	"ch\000"
 2569 0ff4 08       		.byte	0x8
 2570 0ff5 EB01     		.2byte	0x1eb
 2571 0ff7 EE030000 		.4byte	0x3ee
 2572 0ffb 3A       		.uleb128 0x3a
 2573 0ffc 51090000 		.4byte	.LASF184
 2574 1000 13       		.byte	0x13
 2575 1001 BF01     		.2byte	0x1bf
 2576 1003 8C090000 		.4byte	0x98c
 2577 1007 3C       		.uleb128 0x3c
 2578 1008 9E0B0000 		.4byte	0xb9e
 2579 100c 3D       		.uleb128 0x3d
 2580 100d 44020000 		.4byte	.LASF185
 2581 1011 16       		.byte	0x16
 2582 1012 BC       		.byte	0xbc
 2583 1013 17100000 		.4byte	0x1017
 2584 1017 0B       		.uleb128 0xb
 2585 1018 04       		.byte	0x4
 2586 1019 07100000 		.4byte	0x1007
 2587 101d 3D       		.uleb128 0x3d
 2588 101e F4060000 		.4byte	.LASF186
 2589 1022 16       		.byte	0x16
 2590 1023 BE       		.byte	0xbe
 2591 1024 17100000 		.4byte	0x1017
ARM GAS  C:\Users\jo\AppData\Local\Temp\cc5Gtjn4.s 			page 47


 2592 1028 3D       		.uleb128 0x3d
 2593 1029 63080000 		.4byte	.LASF187
 2594 102d 01       		.byte	0x1
 2595 102e 21       		.byte	0x21
 2596 102f 880B0000 		.4byte	0xb88
 2597 1033 3E       		.uleb128 0x3e
 2598 1034 B3080000 		.4byte	.LASF193
 2599 1038 02       		.byte	0x2
 2600 1039 28       		.byte	0x28
 2601 103a 25000000 		.4byte	0x25
 2602 103e 52100000 		.4byte	0x1052
 2603 1042 0D       		.uleb128 0xd
 2604 1043 4E0C0000 		.4byte	0xc4e
 2605 1047 0D       		.uleb128 0xd
 2606 1048 6A060000 		.4byte	0x66a
 2607 104c 0D       		.uleb128 0xd
 2608 104d 930B0000 		.4byte	0xb93
 2609 1051 00       		.byte	0
 2610 1052 3F       		.uleb128 0x3f
 2611 1053 0F040000 		.4byte	.LASF194
 2612 1057 12       		.byte	0x12
 2613 1058 67       		.byte	0x67
 2614 1059 68100000 		.4byte	0x1068
 2615 105d 0D       		.uleb128 0xd
 2616 105e 450A0000 		.4byte	0xa45
 2617 1062 0D       		.uleb128 0xd
 2618 1063 1A0B0000 		.4byte	0xb1a
 2619 1067 00       		.byte	0
 2620 1068 40       		.uleb128 0x40
 2621 1069 C2060000 		.4byte	.LASF195
 2622 106d 12       		.byte	0x12
 2623 106e 68       		.byte	0x68
 2624 106f 0D       		.uleb128 0xd
 2625 1070 450A0000 		.4byte	0xa45
 2626 1074 00       		.byte	0
 2627 1075 00       		.byte	0
 2628              		.section	.debug_abbrev,"",%progbits
 2629              	.Ldebug_abbrev0:
 2630 0000 01       		.uleb128 0x1
 2631 0001 11       		.uleb128 0x11
 2632 0002 01       		.byte	0x1
 2633 0003 25       		.uleb128 0x25
 2634 0004 0E       		.uleb128 0xe
 2635 0005 13       		.uleb128 0x13
 2636 0006 0B       		.uleb128 0xb
 2637 0007 03       		.uleb128 0x3
 2638 0008 0E       		.uleb128 0xe
 2639 0009 1B       		.uleb128 0x1b
 2640 000a 0E       		.uleb128 0xe
 2641 000b 55       		.uleb128 0x55
 2642 000c 17       		.uleb128 0x17
 2643 000d 11       		.uleb128 0x11
 2644 000e 01       		.uleb128 0x1
 2645 000f 10       		.uleb128 0x10
 2646 0010 17       		.uleb128 0x17
 2647 0011 00       		.byte	0
 2648 0012 00       		.byte	0
ARM GAS  C:\Users\jo\AppData\Local\Temp\cc5Gtjn4.s 			page 48


 2649 0013 02       		.uleb128 0x2
 2650 0014 24       		.uleb128 0x24
 2651 0015 00       		.byte	0
 2652 0016 0B       		.uleb128 0xb
 2653 0017 0B       		.uleb128 0xb
 2654 0018 3E       		.uleb128 0x3e
 2655 0019 0B       		.uleb128 0xb
 2656 001a 03       		.uleb128 0x3
 2657 001b 08       		.uleb128 0x8
 2658 001c 00       		.byte	0
 2659 001d 00       		.byte	0
 2660 001e 03       		.uleb128 0x3
 2661 001f 16       		.uleb128 0x16
 2662 0020 00       		.byte	0
 2663 0021 03       		.uleb128 0x3
 2664 0022 0E       		.uleb128 0xe
 2665 0023 3A       		.uleb128 0x3a
 2666 0024 0B       		.uleb128 0xb
 2667 0025 3B       		.uleb128 0x3b
 2668 0026 0B       		.uleb128 0xb
 2669 0027 49       		.uleb128 0x49
 2670 0028 13       		.uleb128 0x13
 2671 0029 00       		.byte	0
 2672 002a 00       		.byte	0
 2673 002b 04       		.uleb128 0x4
 2674 002c 24       		.uleb128 0x24
 2675 002d 00       		.byte	0
 2676 002e 0B       		.uleb128 0xb
 2677 002f 0B       		.uleb128 0xb
 2678 0030 3E       		.uleb128 0x3e
 2679 0031 0B       		.uleb128 0xb
 2680 0032 03       		.uleb128 0x3
 2681 0033 0E       		.uleb128 0xe
 2682 0034 00       		.byte	0
 2683 0035 00       		.byte	0
 2684 0036 05       		.uleb128 0x5
 2685 0037 35       		.uleb128 0x35
 2686 0038 00       		.byte	0
 2687 0039 49       		.uleb128 0x49
 2688 003a 13       		.uleb128 0x13
 2689 003b 00       		.byte	0
 2690 003c 00       		.byte	0
 2691 003d 06       		.uleb128 0x6
 2692 003e 13       		.uleb128 0x13
 2693 003f 01       		.byte	0x1
 2694 0040 03       		.uleb128 0x3
 2695 0041 0E       		.uleb128 0xe
 2696 0042 0B       		.uleb128 0xb
 2697 0043 0B       		.uleb128 0xb
 2698 0044 3A       		.uleb128 0x3a
 2699 0045 0B       		.uleb128 0xb
 2700 0046 3B       		.uleb128 0x3b
 2701 0047 0B       		.uleb128 0xb
 2702 0048 01       		.uleb128 0x1
 2703 0049 13       		.uleb128 0x13
 2704 004a 00       		.byte	0
 2705 004b 00       		.byte	0
ARM GAS  C:\Users\jo\AppData\Local\Temp\cc5Gtjn4.s 			page 49


 2706 004c 07       		.uleb128 0x7
 2707 004d 0D       		.uleb128 0xd
 2708 004e 00       		.byte	0
 2709 004f 03       		.uleb128 0x3
 2710 0050 0E       		.uleb128 0xe
 2711 0051 3A       		.uleb128 0x3a
 2712 0052 0B       		.uleb128 0xb
 2713 0053 3B       		.uleb128 0x3b
 2714 0054 0B       		.uleb128 0xb
 2715 0055 49       		.uleb128 0x49
 2716 0056 13       		.uleb128 0x13
 2717 0057 38       		.uleb128 0x38
 2718 0058 0B       		.uleb128 0xb
 2719 0059 00       		.byte	0
 2720 005a 00       		.byte	0
 2721 005b 08       		.uleb128 0x8
 2722 005c 0D       		.uleb128 0xd
 2723 005d 00       		.byte	0
 2724 005e 03       		.uleb128 0x3
 2725 005f 08       		.uleb128 0x8
 2726 0060 3A       		.uleb128 0x3a
 2727 0061 0B       		.uleb128 0xb
 2728 0062 3B       		.uleb128 0x3b
 2729 0063 05       		.uleb128 0x5
 2730 0064 49       		.uleb128 0x49
 2731 0065 13       		.uleb128 0x13
 2732 0066 38       		.uleb128 0x38
 2733 0067 0B       		.uleb128 0xb
 2734 0068 00       		.byte	0
 2735 0069 00       		.byte	0
 2736 006a 09       		.uleb128 0x9
 2737 006b 0D       		.uleb128 0xd
 2738 006c 00       		.byte	0
 2739 006d 03       		.uleb128 0x3
 2740 006e 0E       		.uleb128 0xe
 2741 006f 3A       		.uleb128 0x3a
 2742 0070 0B       		.uleb128 0xb
 2743 0071 3B       		.uleb128 0x3b
 2744 0072 05       		.uleb128 0x5
 2745 0073 49       		.uleb128 0x49
 2746 0074 13       		.uleb128 0x13
 2747 0075 38       		.uleb128 0x38
 2748 0076 0B       		.uleb128 0xb
 2749 0077 00       		.byte	0
 2750 0078 00       		.byte	0
 2751 0079 0A       		.uleb128 0xa
 2752 007a 13       		.uleb128 0x13
 2753 007b 01       		.byte	0x1
 2754 007c 03       		.uleb128 0x3
 2755 007d 0E       		.uleb128 0xe
 2756 007e 0B       		.uleb128 0xb
 2757 007f 0B       		.uleb128 0xb
 2758 0080 3A       		.uleb128 0x3a
 2759 0081 0B       		.uleb128 0xb
 2760 0082 3B       		.uleb128 0x3b
 2761 0083 05       		.uleb128 0x5
 2762 0084 01       		.uleb128 0x1
ARM GAS  C:\Users\jo\AppData\Local\Temp\cc5Gtjn4.s 			page 50


 2763 0085 13       		.uleb128 0x13
 2764 0086 00       		.byte	0
 2765 0087 00       		.byte	0
 2766 0088 0B       		.uleb128 0xb
 2767 0089 0F       		.uleb128 0xf
 2768 008a 00       		.byte	0
 2769 008b 0B       		.uleb128 0xb
 2770 008c 0B       		.uleb128 0xb
 2771 008d 49       		.uleb128 0x49
 2772 008e 13       		.uleb128 0x13
 2773 008f 00       		.byte	0
 2774 0090 00       		.byte	0
 2775 0091 0C       		.uleb128 0xc
 2776 0092 15       		.uleb128 0x15
 2777 0093 01       		.byte	0x1
 2778 0094 27       		.uleb128 0x27
 2779 0095 19       		.uleb128 0x19
 2780 0096 01       		.uleb128 0x1
 2781 0097 13       		.uleb128 0x13
 2782 0098 00       		.byte	0
 2783 0099 00       		.byte	0
 2784 009a 0D       		.uleb128 0xd
 2785 009b 05       		.uleb128 0x5
 2786 009c 00       		.byte	0
 2787 009d 49       		.uleb128 0x49
 2788 009e 13       		.uleb128 0x13
 2789 009f 00       		.byte	0
 2790 00a0 00       		.byte	0
 2791 00a1 0E       		.uleb128 0xe
 2792 00a2 0F       		.uleb128 0xf
 2793 00a3 00       		.byte	0
 2794 00a4 0B       		.uleb128 0xb
 2795 00a5 0B       		.uleb128 0xb
 2796 00a6 00       		.byte	0
 2797 00a7 00       		.byte	0
 2798 00a8 0F       		.uleb128 0xf
 2799 00a9 13       		.uleb128 0x13
 2800 00aa 01       		.byte	0x1
 2801 00ab 03       		.uleb128 0x3
 2802 00ac 0E       		.uleb128 0xe
 2803 00ad 0B       		.uleb128 0xb
 2804 00ae 05       		.uleb128 0x5
 2805 00af 3A       		.uleb128 0x3a
 2806 00b0 0B       		.uleb128 0xb
 2807 00b1 3B       		.uleb128 0x3b
 2808 00b2 05       		.uleb128 0x5
 2809 00b3 01       		.uleb128 0x1
 2810 00b4 13       		.uleb128 0x13
 2811 00b5 00       		.byte	0
 2812 00b6 00       		.byte	0
 2813 00b7 10       		.uleb128 0x10
 2814 00b8 13       		.uleb128 0x13
 2815 00b9 01       		.byte	0x1
 2816 00ba 0B       		.uleb128 0xb
 2817 00bb 0B       		.uleb128 0xb
 2818 00bc 3A       		.uleb128 0x3a
 2819 00bd 0B       		.uleb128 0xb
ARM GAS  C:\Users\jo\AppData\Local\Temp\cc5Gtjn4.s 			page 51


 2820 00be 3B       		.uleb128 0x3b
 2821 00bf 05       		.uleb128 0x5
 2822 00c0 01       		.uleb128 0x1
 2823 00c1 13       		.uleb128 0x13
 2824 00c2 00       		.byte	0
 2825 00c3 00       		.byte	0
 2826 00c4 11       		.uleb128 0x11
 2827 00c5 16       		.uleb128 0x16
 2828 00c6 00       		.byte	0
 2829 00c7 03       		.uleb128 0x3
 2830 00c8 0E       		.uleb128 0xe
 2831 00c9 3A       		.uleb128 0x3a
 2832 00ca 0B       		.uleb128 0xb
 2833 00cb 3B       		.uleb128 0x3b
 2834 00cc 05       		.uleb128 0x5
 2835 00cd 49       		.uleb128 0x49
 2836 00ce 13       		.uleb128 0x13
 2837 00cf 00       		.byte	0
 2838 00d0 00       		.byte	0
 2839 00d1 12       		.uleb128 0x12
 2840 00d2 0D       		.uleb128 0xd
 2841 00d3 00       		.byte	0
 2842 00d4 03       		.uleb128 0x3
 2843 00d5 08       		.uleb128 0x8
 2844 00d6 3A       		.uleb128 0x3a
 2845 00d7 0B       		.uleb128 0xb
 2846 00d8 3B       		.uleb128 0x3b
 2847 00d9 0B       		.uleb128 0xb
 2848 00da 49       		.uleb128 0x49
 2849 00db 13       		.uleb128 0x13
 2850 00dc 38       		.uleb128 0x38
 2851 00dd 0B       		.uleb128 0xb
 2852 00de 00       		.byte	0
 2853 00df 00       		.byte	0
 2854 00e0 13       		.uleb128 0x13
 2855 00e1 0D       		.uleb128 0xd
 2856 00e2 00       		.byte	0
 2857 00e3 03       		.uleb128 0x3
 2858 00e4 0E       		.uleb128 0xe
 2859 00e5 49       		.uleb128 0x49
 2860 00e6 13       		.uleb128 0x13
 2861 00e7 38       		.uleb128 0x38
 2862 00e8 0B       		.uleb128 0xb
 2863 00e9 34       		.uleb128 0x34
 2864 00ea 19       		.uleb128 0x19
 2865 00eb 00       		.byte	0
 2866 00ec 00       		.byte	0
 2867 00ed 14       		.uleb128 0x14
 2868 00ee 26       		.uleb128 0x26
 2869 00ef 00       		.byte	0
 2870 00f0 49       		.uleb128 0x49
 2871 00f1 13       		.uleb128 0x13
 2872 00f2 00       		.byte	0
 2873 00f3 00       		.byte	0
 2874 00f4 15       		.uleb128 0x15
 2875 00f5 13       		.uleb128 0x13
 2876 00f6 01       		.byte	0x1
ARM GAS  C:\Users\jo\AppData\Local\Temp\cc5Gtjn4.s 			page 52


 2877 00f7 0B       		.uleb128 0xb
 2878 00f8 0B       		.uleb128 0xb
 2879 00f9 3A       		.uleb128 0x3a
 2880 00fa 0B       		.uleb128 0xb
 2881 00fb 3B       		.uleb128 0x3b
 2882 00fc 0B       		.uleb128 0xb
 2883 00fd 01       		.uleb128 0x1
 2884 00fe 13       		.uleb128 0x13
 2885 00ff 00       		.byte	0
 2886 0100 00       		.byte	0
 2887 0101 16       		.uleb128 0x16
 2888 0102 17       		.uleb128 0x17
 2889 0103 01       		.byte	0x1
 2890 0104 0B       		.uleb128 0xb
 2891 0105 0B       		.uleb128 0xb
 2892 0106 3A       		.uleb128 0x3a
 2893 0107 0B       		.uleb128 0xb
 2894 0108 3B       		.uleb128 0x3b
 2895 0109 0B       		.uleb128 0xb
 2896 010a 01       		.uleb128 0x1
 2897 010b 13       		.uleb128 0x13
 2898 010c 00       		.byte	0
 2899 010d 00       		.byte	0
 2900 010e 17       		.uleb128 0x17
 2901 010f 0D       		.uleb128 0xd
 2902 0110 00       		.byte	0
 2903 0111 03       		.uleb128 0x3
 2904 0112 0E       		.uleb128 0xe
 2905 0113 3A       		.uleb128 0x3a
 2906 0114 0B       		.uleb128 0xb
 2907 0115 3B       		.uleb128 0x3b
 2908 0116 0B       		.uleb128 0xb
 2909 0117 49       		.uleb128 0x49
 2910 0118 13       		.uleb128 0x13
 2911 0119 00       		.byte	0
 2912 011a 00       		.byte	0
 2913 011b 18       		.uleb128 0x18
 2914 011c 0D       		.uleb128 0xd
 2915 011d 00       		.byte	0
 2916 011e 03       		.uleb128 0x3
 2917 011f 0E       		.uleb128 0xe
 2918 0120 3A       		.uleb128 0x3a
 2919 0121 0B       		.uleb128 0xb
 2920 0122 3B       		.uleb128 0x3b
 2921 0123 05       		.uleb128 0x5
 2922 0124 49       		.uleb128 0x49
 2923 0125 13       		.uleb128 0x13
 2924 0126 00       		.byte	0
 2925 0127 00       		.byte	0
 2926 0128 19       		.uleb128 0x19
 2927 0129 01       		.uleb128 0x1
 2928 012a 01       		.byte	0x1
 2929 012b 49       		.uleb128 0x49
 2930 012c 13       		.uleb128 0x13
 2931 012d 01       		.uleb128 0x1
 2932 012e 13       		.uleb128 0x13
 2933 012f 00       		.byte	0
ARM GAS  C:\Users\jo\AppData\Local\Temp\cc5Gtjn4.s 			page 53


 2934 0130 00       		.byte	0
 2935 0131 1A       		.uleb128 0x1a
 2936 0132 21       		.uleb128 0x21
 2937 0133 00       		.byte	0
 2938 0134 49       		.uleb128 0x49
 2939 0135 13       		.uleb128 0x13
 2940 0136 2F       		.uleb128 0x2f
 2941 0137 0B       		.uleb128 0xb
 2942 0138 00       		.byte	0
 2943 0139 00       		.byte	0
 2944 013a 1B       		.uleb128 0x1b
 2945 013b 15       		.uleb128 0x15
 2946 013c 01       		.byte	0x1
 2947 013d 27       		.uleb128 0x27
 2948 013e 19       		.uleb128 0x19
 2949 013f 49       		.uleb128 0x49
 2950 0140 13       		.uleb128 0x13
 2951 0141 01       		.uleb128 0x1
 2952 0142 13       		.uleb128 0x13
 2953 0143 00       		.byte	0
 2954 0144 00       		.byte	0
 2955 0145 1C       		.uleb128 0x1c
 2956 0146 0D       		.uleb128 0xd
 2957 0147 00       		.byte	0
 2958 0148 03       		.uleb128 0x3
 2959 0149 08       		.uleb128 0x8
 2960 014a 3A       		.uleb128 0x3a
 2961 014b 0B       		.uleb128 0xb
 2962 014c 3B       		.uleb128 0x3b
 2963 014d 0B       		.uleb128 0xb
 2964 014e 49       		.uleb128 0x49
 2965 014f 13       		.uleb128 0x13
 2966 0150 00       		.byte	0
 2967 0151 00       		.byte	0
 2968 0152 1D       		.uleb128 0x1d
 2969 0153 04       		.uleb128 0x4
 2970 0154 01       		.byte	0x1
 2971 0155 0B       		.uleb128 0xb
 2972 0156 0B       		.uleb128 0xb
 2973 0157 3A       		.uleb128 0x3a
 2974 0158 0B       		.uleb128 0xb
 2975 0159 3B       		.uleb128 0x3b
 2976 015a 0B       		.uleb128 0xb
 2977 015b 01       		.uleb128 0x1
 2978 015c 13       		.uleb128 0x13
 2979 015d 00       		.byte	0
 2980 015e 00       		.byte	0
 2981 015f 1E       		.uleb128 0x1e
 2982 0160 28       		.uleb128 0x28
 2983 0161 00       		.byte	0
 2984 0162 03       		.uleb128 0x3
 2985 0163 0E       		.uleb128 0xe
 2986 0164 1C       		.uleb128 0x1c
 2987 0165 0D       		.uleb128 0xd
 2988 0166 00       		.byte	0
 2989 0167 00       		.byte	0
 2990 0168 1F       		.uleb128 0x1f
ARM GAS  C:\Users\jo\AppData\Local\Temp\cc5Gtjn4.s 			page 54


 2991 0169 2E       		.uleb128 0x2e
 2992 016a 01       		.byte	0x1
 2993 016b 03       		.uleb128 0x3
 2994 016c 0E       		.uleb128 0xe
 2995 016d 3A       		.uleb128 0x3a
 2996 016e 0B       		.uleb128 0xb
 2997 016f 3B       		.uleb128 0x3b
 2998 0170 0B       		.uleb128 0xb
 2999 0171 27       		.uleb128 0x27
 3000 0172 19       		.uleb128 0x19
 3001 0173 20       		.uleb128 0x20
 3002 0174 0B       		.uleb128 0xb
 3003 0175 01       		.uleb128 0x1
 3004 0176 13       		.uleb128 0x13
 3005 0177 00       		.byte	0
 3006 0178 00       		.byte	0
 3007 0179 20       		.uleb128 0x20
 3008 017a 05       		.uleb128 0x5
 3009 017b 00       		.byte	0
 3010 017c 03       		.uleb128 0x3
 3011 017d 0E       		.uleb128 0xe
 3012 017e 3A       		.uleb128 0x3a
 3013 017f 0B       		.uleb128 0xb
 3014 0180 3B       		.uleb128 0x3b
 3015 0181 0B       		.uleb128 0xb
 3016 0182 49       		.uleb128 0x49
 3017 0183 13       		.uleb128 0x13
 3018 0184 00       		.byte	0
 3019 0185 00       		.byte	0
 3020 0186 21       		.uleb128 0x21
 3021 0187 05       		.uleb128 0x5
 3022 0188 00       		.byte	0
 3023 0189 03       		.uleb128 0x3
 3024 018a 08       		.uleb128 0x8
 3025 018b 3A       		.uleb128 0x3a
 3026 018c 0B       		.uleb128 0xb
 3027 018d 3B       		.uleb128 0x3b
 3028 018e 0B       		.uleb128 0xb
 3029 018f 49       		.uleb128 0x49
 3030 0190 13       		.uleb128 0x13
 3031 0191 00       		.byte	0
 3032 0192 00       		.byte	0
 3033 0193 22       		.uleb128 0x22
 3034 0194 2E       		.uleb128 0x2e
 3035 0195 01       		.byte	0x1
 3036 0196 03       		.uleb128 0x3
 3037 0197 0E       		.uleb128 0xe
 3038 0198 3A       		.uleb128 0x3a
 3039 0199 0B       		.uleb128 0xb
 3040 019a 3B       		.uleb128 0x3b
 3041 019b 0B       		.uleb128 0xb
 3042 019c 27       		.uleb128 0x27
 3043 019d 19       		.uleb128 0x19
 3044 019e 49       		.uleb128 0x49
 3045 019f 13       		.uleb128 0x13
 3046 01a0 20       		.uleb128 0x20
 3047 01a1 0B       		.uleb128 0xb
ARM GAS  C:\Users\jo\AppData\Local\Temp\cc5Gtjn4.s 			page 55


 3048 01a2 01       		.uleb128 0x1
 3049 01a3 13       		.uleb128 0x13
 3050 01a4 00       		.byte	0
 3051 01a5 00       		.byte	0
 3052 01a6 23       		.uleb128 0x23
 3053 01a7 18       		.uleb128 0x18
 3054 01a8 00       		.byte	0
 3055 01a9 00       		.byte	0
 3056 01aa 00       		.byte	0
 3057 01ab 24       		.uleb128 0x24
 3058 01ac 34       		.uleb128 0x34
 3059 01ad 00       		.byte	0
 3060 01ae 03       		.uleb128 0x3
 3061 01af 08       		.uleb128 0x8
 3062 01b0 3A       		.uleb128 0x3a
 3063 01b1 0B       		.uleb128 0xb
 3064 01b2 3B       		.uleb128 0x3b
 3065 01b3 0B       		.uleb128 0xb
 3066 01b4 49       		.uleb128 0x49
 3067 01b5 13       		.uleb128 0x13
 3068 01b6 00       		.byte	0
 3069 01b7 00       		.byte	0
 3070 01b8 25       		.uleb128 0x25
 3071 01b9 34       		.uleb128 0x34
 3072 01ba 00       		.byte	0
 3073 01bb 03       		.uleb128 0x3
 3074 01bc 0E       		.uleb128 0xe
 3075 01bd 3A       		.uleb128 0x3a
 3076 01be 0B       		.uleb128 0xb
 3077 01bf 3B       		.uleb128 0x3b
 3078 01c0 0B       		.uleb128 0xb
 3079 01c1 49       		.uleb128 0x49
 3080 01c2 13       		.uleb128 0x13
 3081 01c3 00       		.byte	0
 3082 01c4 00       		.byte	0
 3083 01c5 26       		.uleb128 0x26
 3084 01c6 2E       		.uleb128 0x2e
 3085 01c7 01       		.byte	0x1
 3086 01c8 03       		.uleb128 0x3
 3087 01c9 0E       		.uleb128 0xe
 3088 01ca 3A       		.uleb128 0x3a
 3089 01cb 0B       		.uleb128 0xb
 3090 01cc 3B       		.uleb128 0x3b
 3091 01cd 0B       		.uleb128 0xb
 3092 01ce 27       		.uleb128 0x27
 3093 01cf 19       		.uleb128 0x19
 3094 01d0 11       		.uleb128 0x11
 3095 01d1 01       		.uleb128 0x1
 3096 01d2 12       		.uleb128 0x12
 3097 01d3 06       		.uleb128 0x6
 3098 01d4 40       		.uleb128 0x40
 3099 01d5 18       		.uleb128 0x18
 3100 01d6 01       		.uleb128 0x1
 3101 01d7 13       		.uleb128 0x13
 3102 01d8 00       		.byte	0
 3103 01d9 00       		.byte	0
 3104 01da 27       		.uleb128 0x27
ARM GAS  C:\Users\jo\AppData\Local\Temp\cc5Gtjn4.s 			page 56


 3105 01db 05       		.uleb128 0x5
 3106 01dc 00       		.byte	0
 3107 01dd 03       		.uleb128 0x3
 3108 01de 0E       		.uleb128 0xe
 3109 01df 3A       		.uleb128 0x3a
 3110 01e0 0B       		.uleb128 0xb
 3111 01e1 3B       		.uleb128 0x3b
 3112 01e2 0B       		.uleb128 0xb
 3113 01e3 49       		.uleb128 0x49
 3114 01e4 13       		.uleb128 0x13
 3115 01e5 02       		.uleb128 0x2
 3116 01e6 17       		.uleb128 0x17
 3117 01e7 00       		.byte	0
 3118 01e8 00       		.byte	0
 3119 01e9 28       		.uleb128 0x28
 3120 01ea 05       		.uleb128 0x5
 3121 01eb 00       		.byte	0
 3122 01ec 03       		.uleb128 0x3
 3123 01ed 08       		.uleb128 0x8
 3124 01ee 3A       		.uleb128 0x3a
 3125 01ef 0B       		.uleb128 0xb
 3126 01f0 3B       		.uleb128 0x3b
 3127 01f1 0B       		.uleb128 0xb
 3128 01f2 49       		.uleb128 0x49
 3129 01f3 13       		.uleb128 0x13
 3130 01f4 02       		.uleb128 0x2
 3131 01f5 17       		.uleb128 0x17
 3132 01f6 00       		.byte	0
 3133 01f7 00       		.byte	0
 3134 01f8 29       		.uleb128 0x29
 3135 01f9 2E       		.uleb128 0x2e
 3136 01fa 01       		.byte	0x1
 3137 01fb 31       		.uleb128 0x31
 3138 01fc 13       		.uleb128 0x13
 3139 01fd 11       		.uleb128 0x11
 3140 01fe 01       		.uleb128 0x1
 3141 01ff 12       		.uleb128 0x12
 3142 0200 06       		.uleb128 0x6
 3143 0201 40       		.uleb128 0x40
 3144 0202 18       		.uleb128 0x18
 3145 0203 9742     		.uleb128 0x2117
 3146 0205 19       		.uleb128 0x19
 3147 0206 01       		.uleb128 0x1
 3148 0207 13       		.uleb128 0x13
 3149 0208 00       		.byte	0
 3150 0209 00       		.byte	0
 3151 020a 2A       		.uleb128 0x2a
 3152 020b 05       		.uleb128 0x5
 3153 020c 00       		.byte	0
 3154 020d 31       		.uleb128 0x31
 3155 020e 13       		.uleb128 0x13
 3156 020f 02       		.uleb128 0x2
 3157 0210 17       		.uleb128 0x17
 3158 0211 00       		.byte	0
 3159 0212 00       		.byte	0
 3160 0213 2B       		.uleb128 0x2b
 3161 0214 05       		.uleb128 0x5
ARM GAS  C:\Users\jo\AppData\Local\Temp\cc5Gtjn4.s 			page 57


 3162 0215 00       		.byte	0
 3163 0216 31       		.uleb128 0x31
 3164 0217 13       		.uleb128 0x13
 3165 0218 02       		.uleb128 0x2
 3166 0219 18       		.uleb128 0x18
 3167 021a 00       		.byte	0
 3168 021b 00       		.byte	0
 3169 021c 2C       		.uleb128 0x2c
 3170 021d 34       		.uleb128 0x34
 3171 021e 00       		.byte	0
 3172 021f 31       		.uleb128 0x31
 3173 0220 13       		.uleb128 0x13
 3174 0221 02       		.uleb128 0x2
 3175 0222 18       		.uleb128 0x18
 3176 0223 00       		.byte	0
 3177 0224 00       		.byte	0
 3178 0225 2D       		.uleb128 0x2d
 3179 0226 05       		.uleb128 0x5
 3180 0227 00       		.byte	0
 3181 0228 31       		.uleb128 0x31
 3182 0229 13       		.uleb128 0x13
 3183 022a 00       		.byte	0
 3184 022b 00       		.byte	0
 3185 022c 2E       		.uleb128 0x2e
 3186 022d 898201   		.uleb128 0x4109
 3187 0230 01       		.byte	0x1
 3188 0231 11       		.uleb128 0x11
 3189 0232 01       		.uleb128 0x1
 3190 0233 31       		.uleb128 0x31
 3191 0234 13       		.uleb128 0x13
 3192 0235 00       		.byte	0
 3193 0236 00       		.byte	0
 3194 0237 2F       		.uleb128 0x2f
 3195 0238 8A8201   		.uleb128 0x410a
 3196 023b 00       		.byte	0
 3197 023c 02       		.uleb128 0x2
 3198 023d 18       		.uleb128 0x18
 3199 023e 9142     		.uleb128 0x2111
 3200 0240 18       		.uleb128 0x18
 3201 0241 00       		.byte	0
 3202 0242 00       		.byte	0
 3203 0243 30       		.uleb128 0x30
 3204 0244 0B       		.uleb128 0xb
 3205 0245 01       		.byte	0x1
 3206 0246 55       		.uleb128 0x55
 3207 0247 17       		.uleb128 0x17
 3208 0248 01       		.uleb128 0x1
 3209 0249 13       		.uleb128 0x13
 3210 024a 00       		.byte	0
 3211 024b 00       		.byte	0
 3212 024c 31       		.uleb128 0x31
 3213 024d 898201   		.uleb128 0x4109
 3214 0250 01       		.byte	0x1
 3215 0251 11       		.uleb128 0x11
 3216 0252 01       		.uleb128 0x1
 3217 0253 9542     		.uleb128 0x2115
 3218 0255 19       		.uleb128 0x19
ARM GAS  C:\Users\jo\AppData\Local\Temp\cc5Gtjn4.s 			page 58


 3219 0256 31       		.uleb128 0x31
 3220 0257 13       		.uleb128 0x13
 3221 0258 00       		.byte	0
 3222 0259 00       		.byte	0
 3223 025a 32       		.uleb128 0x32
 3224 025b 898201   		.uleb128 0x4109
 3225 025e 01       		.byte	0x1
 3226 025f 11       		.uleb128 0x11
 3227 0260 01       		.uleb128 0x1
 3228 0261 9542     		.uleb128 0x2115
 3229 0263 19       		.uleb128 0x19
 3230 0264 31       		.uleb128 0x31
 3231 0265 13       		.uleb128 0x13
 3232 0266 01       		.uleb128 0x1
 3233 0267 13       		.uleb128 0x13
 3234 0268 00       		.byte	0
 3235 0269 00       		.byte	0
 3236 026a 33       		.uleb128 0x33
 3237 026b 898201   		.uleb128 0x4109
 3238 026e 01       		.byte	0x1
 3239 026f 11       		.uleb128 0x11
 3240 0270 01       		.uleb128 0x1
 3241 0271 31       		.uleb128 0x31
 3242 0272 13       		.uleb128 0x13
 3243 0273 01       		.uleb128 0x1
 3244 0274 13       		.uleb128 0x13
 3245 0275 00       		.byte	0
 3246 0276 00       		.byte	0
 3247 0277 34       		.uleb128 0x34
 3248 0278 2E       		.uleb128 0x2e
 3249 0279 01       		.byte	0x1
 3250 027a 3F       		.uleb128 0x3f
 3251 027b 19       		.uleb128 0x19
 3252 027c 03       		.uleb128 0x3
 3253 027d 0E       		.uleb128 0xe
 3254 027e 3A       		.uleb128 0x3a
 3255 027f 0B       		.uleb128 0xb
 3256 0280 3B       		.uleb128 0x3b
 3257 0281 0B       		.uleb128 0xb
 3258 0282 27       		.uleb128 0x27
 3259 0283 19       		.uleb128 0x19
 3260 0284 49       		.uleb128 0x49
 3261 0285 13       		.uleb128 0x13
 3262 0286 11       		.uleb128 0x11
 3263 0287 01       		.uleb128 0x1
 3264 0288 12       		.uleb128 0x12
 3265 0289 06       		.uleb128 0x6
 3266 028a 40       		.uleb128 0x40
 3267 028b 18       		.uleb128 0x18
 3268 028c 9742     		.uleb128 0x2117
 3269 028e 19       		.uleb128 0x19
 3270 028f 01       		.uleb128 0x1
 3271 0290 13       		.uleb128 0x13
 3272 0291 00       		.byte	0
 3273 0292 00       		.byte	0
 3274 0293 35       		.uleb128 0x35
 3275 0294 34       		.uleb128 0x34
ARM GAS  C:\Users\jo\AppData\Local\Temp\cc5Gtjn4.s 			page 59


 3276 0295 00       		.byte	0
 3277 0296 03       		.uleb128 0x3
 3278 0297 0E       		.uleb128 0xe
 3279 0298 3A       		.uleb128 0x3a
 3280 0299 0B       		.uleb128 0xb
 3281 029a 3B       		.uleb128 0x3b
 3282 029b 0B       		.uleb128 0xb
 3283 029c 49       		.uleb128 0x49
 3284 029d 13       		.uleb128 0x13
 3285 029e 1C       		.uleb128 0x1c
 3286 029f 0B       		.uleb128 0xb
 3287 02a0 00       		.byte	0
 3288 02a1 00       		.byte	0
 3289 02a2 36       		.uleb128 0x36
 3290 02a3 34       		.uleb128 0x34
 3291 02a4 00       		.byte	0
 3292 02a5 03       		.uleb128 0x3
 3293 02a6 0E       		.uleb128 0xe
 3294 02a7 3A       		.uleb128 0x3a
 3295 02a8 0B       		.uleb128 0xb
 3296 02a9 3B       		.uleb128 0x3b
 3297 02aa 0B       		.uleb128 0xb
 3298 02ab 49       		.uleb128 0x49
 3299 02ac 13       		.uleb128 0x13
 3300 02ad 02       		.uleb128 0x2
 3301 02ae 18       		.uleb128 0x18
 3302 02af 00       		.byte	0
 3303 02b0 00       		.byte	0
 3304 02b1 37       		.uleb128 0x37
 3305 02b2 2E       		.uleb128 0x2e
 3306 02b3 01       		.byte	0x1
 3307 02b4 3F       		.uleb128 0x3f
 3308 02b5 19       		.uleb128 0x19
 3309 02b6 03       		.uleb128 0x3
 3310 02b7 0E       		.uleb128 0xe
 3311 02b8 3A       		.uleb128 0x3a
 3312 02b9 0B       		.uleb128 0xb
 3313 02ba 3B       		.uleb128 0x3b
 3314 02bb 0B       		.uleb128 0xb
 3315 02bc 27       		.uleb128 0x27
 3316 02bd 19       		.uleb128 0x19
 3317 02be 11       		.uleb128 0x11
 3318 02bf 01       		.uleb128 0x1
 3319 02c0 12       		.uleb128 0x12
 3320 02c1 06       		.uleb128 0x6
 3321 02c2 40       		.uleb128 0x40
 3322 02c3 18       		.uleb128 0x18
 3323 02c4 9742     		.uleb128 0x2117
 3324 02c6 19       		.uleb128 0x19
 3325 02c7 01       		.uleb128 0x1
 3326 02c8 13       		.uleb128 0x13
 3327 02c9 00       		.byte	0
 3328 02ca 00       		.byte	0
 3329 02cb 38       		.uleb128 0x38
 3330 02cc 34       		.uleb128 0x34
 3331 02cd 00       		.byte	0
 3332 02ce 03       		.uleb128 0x3
ARM GAS  C:\Users\jo\AppData\Local\Temp\cc5Gtjn4.s 			page 60


 3333 02cf 0E       		.uleb128 0xe
 3334 02d0 3A       		.uleb128 0x3a
 3335 02d1 0B       		.uleb128 0xb
 3336 02d2 3B       		.uleb128 0x3b
 3337 02d3 0B       		.uleb128 0xb
 3338 02d4 49       		.uleb128 0x49
 3339 02d5 13       		.uleb128 0x13
 3340 02d6 02       		.uleb128 0x2
 3341 02d7 17       		.uleb128 0x17
 3342 02d8 00       		.byte	0
 3343 02d9 00       		.byte	0
 3344 02da 39       		.uleb128 0x39
 3345 02db 898201   		.uleb128 0x4109
 3346 02de 00       		.byte	0
 3347 02df 11       		.uleb128 0x11
 3348 02e0 01       		.uleb128 0x1
 3349 02e1 9542     		.uleb128 0x2115
 3350 02e3 19       		.uleb128 0x19
 3351 02e4 31       		.uleb128 0x31
 3352 02e5 13       		.uleb128 0x13
 3353 02e6 00       		.byte	0
 3354 02e7 00       		.byte	0
 3355 02e8 3A       		.uleb128 0x3a
 3356 02e9 34       		.uleb128 0x34
 3357 02ea 00       		.byte	0
 3358 02eb 03       		.uleb128 0x3
 3359 02ec 0E       		.uleb128 0xe
 3360 02ed 3A       		.uleb128 0x3a
 3361 02ee 0B       		.uleb128 0xb
 3362 02ef 3B       		.uleb128 0x3b
 3363 02f0 05       		.uleb128 0x5
 3364 02f1 49       		.uleb128 0x49
 3365 02f2 13       		.uleb128 0x13
 3366 02f3 3F       		.uleb128 0x3f
 3367 02f4 19       		.uleb128 0x19
 3368 02f5 3C       		.uleb128 0x3c
 3369 02f6 19       		.uleb128 0x19
 3370 02f7 00       		.byte	0
 3371 02f8 00       		.byte	0
 3372 02f9 3B       		.uleb128 0x3b
 3373 02fa 34       		.uleb128 0x34
 3374 02fb 00       		.byte	0
 3375 02fc 03       		.uleb128 0x3
 3376 02fd 08       		.uleb128 0x8
 3377 02fe 3A       		.uleb128 0x3a
 3378 02ff 0B       		.uleb128 0xb
 3379 0300 3B       		.uleb128 0x3b
 3380 0301 05       		.uleb128 0x5
 3381 0302 49       		.uleb128 0x49
 3382 0303 13       		.uleb128 0x13
 3383 0304 3F       		.uleb128 0x3f
 3384 0305 19       		.uleb128 0x19
 3385 0306 3C       		.uleb128 0x3c
 3386 0307 19       		.uleb128 0x19
 3387 0308 00       		.byte	0
 3388 0309 00       		.byte	0
 3389 030a 3C       		.uleb128 0x3c
ARM GAS  C:\Users\jo\AppData\Local\Temp\cc5Gtjn4.s 			page 61


 3390 030b 15       		.uleb128 0x15
 3391 030c 00       		.byte	0
 3392 030d 27       		.uleb128 0x27
 3393 030e 19       		.uleb128 0x19
 3394 030f 49       		.uleb128 0x49
 3395 0310 13       		.uleb128 0x13
 3396 0311 00       		.byte	0
 3397 0312 00       		.byte	0
 3398 0313 3D       		.uleb128 0x3d
 3399 0314 34       		.uleb128 0x34
 3400 0315 00       		.byte	0
 3401 0316 03       		.uleb128 0x3
 3402 0317 0E       		.uleb128 0xe
 3403 0318 3A       		.uleb128 0x3a
 3404 0319 0B       		.uleb128 0xb
 3405 031a 3B       		.uleb128 0x3b
 3406 031b 0B       		.uleb128 0xb
 3407 031c 49       		.uleb128 0x49
 3408 031d 13       		.uleb128 0x13
 3409 031e 3F       		.uleb128 0x3f
 3410 031f 19       		.uleb128 0x19
 3411 0320 3C       		.uleb128 0x3c
 3412 0321 19       		.uleb128 0x19
 3413 0322 00       		.byte	0
 3414 0323 00       		.byte	0
 3415 0324 3E       		.uleb128 0x3e
 3416 0325 2E       		.uleb128 0x2e
 3417 0326 01       		.byte	0x1
 3418 0327 3F       		.uleb128 0x3f
 3419 0328 19       		.uleb128 0x19
 3420 0329 03       		.uleb128 0x3
 3421 032a 0E       		.uleb128 0xe
 3422 032b 3A       		.uleb128 0x3a
 3423 032c 0B       		.uleb128 0xb
 3424 032d 3B       		.uleb128 0x3b
 3425 032e 0B       		.uleb128 0xb
 3426 032f 27       		.uleb128 0x27
 3427 0330 19       		.uleb128 0x19
 3428 0331 49       		.uleb128 0x49
 3429 0332 13       		.uleb128 0x13
 3430 0333 3C       		.uleb128 0x3c
 3431 0334 19       		.uleb128 0x19
 3432 0335 01       		.uleb128 0x1
 3433 0336 13       		.uleb128 0x13
 3434 0337 00       		.byte	0
 3435 0338 00       		.byte	0
 3436 0339 3F       		.uleb128 0x3f
 3437 033a 2E       		.uleb128 0x2e
 3438 033b 01       		.byte	0x1
 3439 033c 3F       		.uleb128 0x3f
 3440 033d 19       		.uleb128 0x19
 3441 033e 03       		.uleb128 0x3
 3442 033f 0E       		.uleb128 0xe
 3443 0340 3A       		.uleb128 0x3a
 3444 0341 0B       		.uleb128 0xb
 3445 0342 3B       		.uleb128 0x3b
 3446 0343 0B       		.uleb128 0xb
ARM GAS  C:\Users\jo\AppData\Local\Temp\cc5Gtjn4.s 			page 62


 3447 0344 27       		.uleb128 0x27
 3448 0345 19       		.uleb128 0x19
 3449 0346 3C       		.uleb128 0x3c
 3450 0347 19       		.uleb128 0x19
 3451 0348 01       		.uleb128 0x1
 3452 0349 13       		.uleb128 0x13
 3453 034a 00       		.byte	0
 3454 034b 00       		.byte	0
 3455 034c 40       		.uleb128 0x40
 3456 034d 2E       		.uleb128 0x2e
 3457 034e 01       		.byte	0x1
 3458 034f 3F       		.uleb128 0x3f
 3459 0350 19       		.uleb128 0x19
 3460 0351 03       		.uleb128 0x3
 3461 0352 0E       		.uleb128 0xe
 3462 0353 3A       		.uleb128 0x3a
 3463 0354 0B       		.uleb128 0xb
 3464 0355 3B       		.uleb128 0x3b
 3465 0356 0B       		.uleb128 0xb
 3466 0357 27       		.uleb128 0x27
 3467 0358 19       		.uleb128 0x19
 3468 0359 3C       		.uleb128 0x3c
 3469 035a 19       		.uleb128 0x19
 3470 035b 00       		.byte	0
 3471 035c 00       		.byte	0
 3472 035d 00       		.byte	0
 3473              		.section	.debug_loc,"",%progbits
 3474              	.Ldebug_loc0:
 3475              	.LLST0:
 3476 0000 00000000 		.4byte	.LVL0
 3477 0004 05000000 		.4byte	.LVL1-1
 3478 0008 0100     		.2byte	0x1
 3479 000a 50       		.byte	0x50
 3480 000b 05000000 		.4byte	.LVL1-1
 3481 000f 0C000000 		.4byte	.LFE261
 3482 0013 0400     		.2byte	0x4
 3483 0015 F3       		.byte	0xf3
 3484 0016 01       		.uleb128 0x1
 3485 0017 50       		.byte	0x50
 3486 0018 9F       		.byte	0x9f
 3487 0019 00000000 		.4byte	0
 3488 001d 00000000 		.4byte	0
 3489              	.LLST1:
 3490 0021 00000000 		.4byte	.LVL2
 3491 0025 05000000 		.4byte	.LVL3-1
 3492 0029 0100     		.2byte	0x1
 3493 002b 50       		.byte	0x50
 3494 002c 05000000 		.4byte	.LVL3-1
 3495 0030 0C000000 		.4byte	.LFE262
 3496 0034 0400     		.2byte	0x4
 3497 0036 F3       		.byte	0xf3
 3498 0037 01       		.uleb128 0x1
 3499 0038 50       		.byte	0x50
 3500 0039 9F       		.byte	0x9f
 3501 003a 00000000 		.4byte	0
 3502 003e 00000000 		.4byte	0
 3503              	.LLST2:
ARM GAS  C:\Users\jo\AppData\Local\Temp\cc5Gtjn4.s 			page 63


 3504 0042 00000000 		.4byte	.LVL2
 3505 0046 05000000 		.4byte	.LVL3-1
 3506 004a 0100     		.2byte	0x1
 3507 004c 51       		.byte	0x51
 3508 004d 05000000 		.4byte	.LVL3-1
 3509 0051 0C000000 		.4byte	.LFE262
 3510 0055 0400     		.2byte	0x4
 3511 0057 F3       		.byte	0xf3
 3512 0058 01       		.uleb128 0x1
 3513 0059 51       		.byte	0x51
 3514 005a 9F       		.byte	0x9f
 3515 005b 00000000 		.4byte	0
 3516 005f 00000000 		.4byte	0
 3517              	.LLST3:
 3518 0063 00000000 		.4byte	.LVL4
 3519 0067 0E000000 		.4byte	.LVL5
 3520 006b 0100     		.2byte	0x1
 3521 006d 50       		.byte	0x50
 3522 006e 0E000000 		.4byte	.LVL5
 3523 0072 28000000 		.4byte	.LFE265
 3524 0076 0400     		.2byte	0x4
 3525 0078 F3       		.byte	0xf3
 3526 0079 01       		.uleb128 0x1
 3527 007a 50       		.byte	0x50
 3528 007b 9F       		.byte	0x9f
 3529 007c 00000000 		.4byte	0
 3530 0080 00000000 		.4byte	0
 3531              	.LLST4:
 3532 0084 00000000 		.4byte	.LVL7
 3533 0088 0A000000 		.4byte	.LVL8
 3534 008c 0100     		.2byte	0x1
 3535 008e 50       		.byte	0x50
 3536 008f 0A000000 		.4byte	.LVL8
 3537 0093 48000000 		.4byte	.LVL16
 3538 0097 0400     		.2byte	0x4
 3539 0099 F3       		.byte	0xf3
 3540 009a 01       		.uleb128 0x1
 3541 009b 50       		.byte	0x50
 3542 009c 9F       		.byte	0x9f
 3543 009d 48000000 		.4byte	.LVL16
 3544 00a1 4E000000 		.4byte	.LVL18
 3545 00a5 0100     		.2byte	0x1
 3546 00a7 50       		.byte	0x50
 3547 00a8 4E000000 		.4byte	.LVL18
 3548 00ac 80000000 		.4byte	.LFE263
 3549 00b0 0400     		.2byte	0x4
 3550 00b2 F3       		.byte	0xf3
 3551 00b3 01       		.uleb128 0x1
 3552 00b4 50       		.byte	0x50
 3553 00b5 9F       		.byte	0x9f
 3554 00b6 00000000 		.4byte	0
 3555 00ba 00000000 		.4byte	0
 3556              	.LLST5:
 3557 00be 00000000 		.4byte	.LVL7
 3558 00c2 0C000000 		.4byte	.LVL9
 3559 00c6 0100     		.2byte	0x1
 3560 00c8 51       		.byte	0x51
ARM GAS  C:\Users\jo\AppData\Local\Temp\cc5Gtjn4.s 			page 64


 3561 00c9 0C000000 		.4byte	.LVL9
 3562 00cd 22000000 		.4byte	.LVL10
 3563 00d1 0100     		.2byte	0x1
 3564 00d3 54       		.byte	0x54
 3565 00d4 22000000 		.4byte	.LVL10
 3566 00d8 26000000 		.4byte	.LVL11
 3567 00dc 0400     		.2byte	0x4
 3568 00de F3       		.byte	0xf3
 3569 00df 01       		.uleb128 0x1
 3570 00e0 51       		.byte	0x51
 3571 00e1 9F       		.byte	0x9f
 3572 00e2 26000000 		.4byte	.LVL11
 3573 00e6 2C000000 		.4byte	.LVL12
 3574 00ea 0100     		.2byte	0x1
 3575 00ec 54       		.byte	0x54
 3576 00ed 2C000000 		.4byte	.LVL12
 3577 00f1 30000000 		.4byte	.LVL13
 3578 00f5 0400     		.2byte	0x4
 3579 00f7 F3       		.byte	0xf3
 3580 00f8 01       		.uleb128 0x1
 3581 00f9 51       		.byte	0x51
 3582 00fa 9F       		.byte	0x9f
 3583 00fb 30000000 		.4byte	.LVL13
 3584 00ff 48000000 		.4byte	.LVL16
 3585 0103 0100     		.2byte	0x1
 3586 0105 54       		.byte	0x54
 3587 0106 48000000 		.4byte	.LVL16
 3588 010a 4A000000 		.4byte	.LVL17
 3589 010e 0100     		.2byte	0x1
 3590 0110 51       		.byte	0x51
 3591 0111 4A000000 		.4byte	.LVL17
 3592 0115 54000000 		.4byte	.LVL20
 3593 0119 0100     		.2byte	0x1
 3594 011b 54       		.byte	0x54
 3595 011c 54000000 		.4byte	.LVL20
 3596 0120 56000000 		.4byte	.LVL21
 3597 0124 0100     		.2byte	0x1
 3598 0126 51       		.byte	0x51
 3599 0127 56000000 		.4byte	.LVL21
 3600 012b 80000000 		.4byte	.LFE263
 3601 012f 0100     		.2byte	0x1
 3602 0131 54       		.byte	0x54
 3603 0132 00000000 		.4byte	0
 3604 0136 00000000 		.4byte	0
 3605              	.LLST6:
 3606 013a 26000000 		.4byte	.LVL11
 3607 013e 30000000 		.4byte	.LVL13
 3608 0142 0400     		.2byte	0x4
 3609 0144 F3       		.byte	0xf3
 3610 0145 01       		.uleb128 0x1
 3611 0146 50       		.byte	0x50
 3612 0147 9F       		.byte	0x9f
 3613 0148 00000000 		.4byte	0
 3614 014c 00000000 		.4byte	0
 3615              	.LLST7:
 3616 0150 26000000 		.4byte	.LVL11
 3617 0154 2C000000 		.4byte	.LVL12
ARM GAS  C:\Users\jo\AppData\Local\Temp\cc5Gtjn4.s 			page 65


 3618 0158 0100     		.2byte	0x1
 3619 015a 54       		.byte	0x54
 3620 015b 2C000000 		.4byte	.LVL12
 3621 015f 30000000 		.4byte	.LVL13
 3622 0163 0400     		.2byte	0x4
 3623 0165 F3       		.byte	0xf3
 3624 0166 01       		.uleb128 0x1
 3625 0167 51       		.byte	0x51
 3626 0168 9F       		.byte	0x9f
 3627 0169 00000000 		.4byte	0
 3628 016d 00000000 		.4byte	0
 3629              	.LLST8:
 3630 0171 00000000 		.4byte	.LVL23
 3631 0175 0C000000 		.4byte	.LVL26
 3632 0179 0100     		.2byte	0x1
 3633 017b 50       		.byte	0x50
 3634 017c 0C000000 		.4byte	.LVL26
 3635 0180 24000000 		.4byte	.LFE256
 3636 0184 0400     		.2byte	0x4
 3637 0186 F3       		.byte	0xf3
 3638 0187 01       		.uleb128 0x1
 3639 0188 50       		.byte	0x50
 3640 0189 9F       		.byte	0x9f
 3641 018a 00000000 		.4byte	0
 3642 018e 00000000 		.4byte	0
 3643              	.LLST9:
 3644 0192 00000000 		.4byte	.LVL23
 3645 0196 0E000000 		.4byte	.LVL27
 3646 019a 0100     		.2byte	0x1
 3647 019c 51       		.byte	0x51
 3648 019d 0E000000 		.4byte	.LVL27
 3649 01a1 13000000 		.4byte	.LVL28-1
 3650 01a5 0500     		.2byte	0x5
 3651 01a7 03       		.byte	0x3
 3652 01a8 14000000 		.4byte	uartCfg.8468+20
 3653 01ac 13000000 		.4byte	.LVL28-1
 3654 01b0 24000000 		.4byte	.LFE256
 3655 01b4 0400     		.2byte	0x4
 3656 01b6 F3       		.byte	0xf3
 3657 01b7 01       		.uleb128 0x1
 3658 01b8 51       		.byte	0x51
 3659 01b9 9F       		.byte	0x9f
 3660 01ba 00000000 		.4byte	0
 3661 01be 00000000 		.4byte	0
 3662              	.LLST10:
 3663 01c2 00000000 		.4byte	.LVL23
 3664 01c6 04000000 		.4byte	.LVL24
 3665 01ca 0100     		.2byte	0x1
 3666 01cc 52       		.byte	0x52
 3667 01cd 04000000 		.4byte	.LVL24
 3668 01d1 24000000 		.4byte	.LFE256
 3669 01d5 0400     		.2byte	0x4
 3670 01d7 F3       		.byte	0xf3
 3671 01d8 01       		.uleb128 0x1
 3672 01d9 52       		.byte	0x52
 3673 01da 9F       		.byte	0x9f
 3674 01db 00000000 		.4byte	0
ARM GAS  C:\Users\jo\AppData\Local\Temp\cc5Gtjn4.s 			page 66


 3675 01df 00000000 		.4byte	0
 3676              	.LLST11:
 3677 01e3 00000000 		.4byte	.LVL23
 3678 01e7 06000000 		.4byte	.LVL25
 3679 01eb 0100     		.2byte	0x1
 3680 01ed 53       		.byte	0x53
 3681 01ee 06000000 		.4byte	.LVL25
 3682 01f2 24000000 		.4byte	.LFE256
 3683 01f6 0400     		.2byte	0x4
 3684 01f8 F3       		.byte	0xf3
 3685 01f9 01       		.uleb128 0x1
 3686 01fa 53       		.byte	0x53
 3687 01fb 9F       		.byte	0x9f
 3688 01fc 00000000 		.4byte	0
 3689 0200 00000000 		.4byte	0
 3690              	.LLST12:
 3691 0204 00000000 		.4byte	.LVL29
 3692 0208 14000000 		.4byte	.LVL31
 3693 020c 0100     		.2byte	0x1
 3694 020e 50       		.byte	0x50
 3695 020f 14000000 		.4byte	.LVL31
 3696 0213 3E000000 		.4byte	.LVL35
 3697 0217 0400     		.2byte	0x4
 3698 0219 F3       		.byte	0xf3
 3699 021a 01       		.uleb128 0x1
 3700 021b 50       		.byte	0x50
 3701 021c 9F       		.byte	0x9f
 3702 021d 3E000000 		.4byte	.LVL35
 3703 0221 44000000 		.4byte	.LVL36
 3704 0225 0100     		.2byte	0x1
 3705 0227 50       		.byte	0x50
 3706 0228 44000000 		.4byte	.LVL36
 3707 022c 90000000 		.4byte	.LFE257
 3708 0230 0400     		.2byte	0x4
 3709 0232 F3       		.byte	0xf3
 3710 0233 01       		.uleb128 0x1
 3711 0234 50       		.byte	0x50
 3712 0235 9F       		.byte	0x9f
 3713 0236 00000000 		.4byte	0
 3714 023a 00000000 		.4byte	0
 3715              	.LLST13:
 3716 023e 00000000 		.4byte	.LVL29
 3717 0242 16000000 		.4byte	.LVL32
 3718 0246 0100     		.2byte	0x1
 3719 0248 51       		.byte	0x51
 3720 0249 16000000 		.4byte	.LVL32
 3721 024d 3E000000 		.4byte	.LVL35
 3722 0251 0400     		.2byte	0x4
 3723 0253 F3       		.byte	0xf3
 3724 0254 01       		.uleb128 0x1
 3725 0255 51       		.byte	0x51
 3726 0256 9F       		.byte	0x9f
 3727 0257 3E000000 		.4byte	.LVL35
 3728 025b 46000000 		.4byte	.LVL37
 3729 025f 0100     		.2byte	0x1
 3730 0261 51       		.byte	0x51
 3731 0262 46000000 		.4byte	.LVL37
ARM GAS  C:\Users\jo\AppData\Local\Temp\cc5Gtjn4.s 			page 67


 3732 0266 90000000 		.4byte	.LFE257
 3733 026a 0400     		.2byte	0x4
 3734 026c F3       		.byte	0xf3
 3735 026d 01       		.uleb128 0x1
 3736 026e 51       		.byte	0x51
 3737 026f 9F       		.byte	0x9f
 3738 0270 00000000 		.4byte	0
 3739 0274 00000000 		.4byte	0
 3740              	.LLST14:
 3741 0278 08000000 		.4byte	.LVL30
 3742 027c 3A000000 		.4byte	.LVL34
 3743 0280 0100     		.2byte	0x1
 3744 0282 54       		.byte	0x54
 3745 0283 3E000000 		.4byte	.LVL35
 3746 0287 6C000000 		.4byte	.LVL39
 3747 028b 0100     		.2byte	0x1
 3748 028d 54       		.byte	0x54
 3749 028e 00000000 		.4byte	0
 3750 0292 00000000 		.4byte	0
 3751              	.LLST15:
 3752 0296 00000000 		.4byte	.LVL42
 3753 029a 0A000000 		.4byte	.LVL44
 3754 029e 0100     		.2byte	0x1
 3755 02a0 50       		.byte	0x50
 3756 02a1 0A000000 		.4byte	.LVL44
 3757 02a5 10000000 		.4byte	.LFE259
 3758 02a9 0400     		.2byte	0x4
 3759 02ab F3       		.byte	0xf3
 3760 02ac 01       		.uleb128 0x1
 3761 02ad 50       		.byte	0x50
 3762 02ae 9F       		.byte	0x9f
 3763 02af 00000000 		.4byte	0
 3764 02b3 00000000 		.4byte	0
 3765              	.LLST16:
 3766 02b7 00000000 		.4byte	.LVL45
 3767 02bb 0C000000 		.4byte	.LVL49
 3768 02bf 0100     		.2byte	0x1
 3769 02c1 50       		.byte	0x50
 3770 02c2 0C000000 		.4byte	.LVL49
 3771 02c6 14000000 		.4byte	.LFE260
 3772 02ca 0400     		.2byte	0x4
 3773 02cc F3       		.byte	0xf3
 3774 02cd 01       		.uleb128 0x1
 3775 02ce 50       		.byte	0x50
 3776 02cf 9F       		.byte	0x9f
 3777 02d0 00000000 		.4byte	0
 3778 02d4 00000000 		.4byte	0
 3779              	.LLST17:
 3780 02d8 06000000 		.4byte	.LVL46
 3781 02dc 08000000 		.4byte	.LVL47
 3782 02e0 0100     		.2byte	0x1
 3783 02e2 53       		.byte	0x53
 3784 02e3 08000000 		.4byte	.LVL47
 3785 02e7 0A000000 		.4byte	.LVL48
 3786 02eb 0800     		.2byte	0x8
 3787 02ed 03       		.byte	0x3
 3788 02ee 00000000 		.4byte	serial
ARM GAS  C:\Users\jo\AppData\Local\Temp\cc5Gtjn4.s 			page 68


 3789 02f2 06       		.byte	0x6
 3790 02f3 23       		.byte	0x23
 3791 02f4 08       		.uleb128 0x8
 3792 02f5 00000000 		.4byte	0
 3793 02f9 00000000 		.4byte	0
 3794              		.section	.debug_aranges,"",%progbits
 3795 0000 5C000000 		.4byte	0x5c
 3796 0004 0200     		.2byte	0x2
 3797 0006 00000000 		.4byte	.Ldebug_info0
 3798 000a 04       		.byte	0x4
 3799 000b 00       		.byte	0
 3800 000c 0000     		.2byte	0
 3801 000e 0000     		.2byte	0
 3802 0010 00000000 		.4byte	.LFB261
 3803 0014 0C000000 		.4byte	.LFE261-.LFB261
 3804 0018 00000000 		.4byte	.LFB262
 3805 001c 0C000000 		.4byte	.LFE262-.LFB262
 3806 0020 00000000 		.4byte	.LFB265
 3807 0024 28000000 		.4byte	.LFE265-.LFB265
 3808 0028 00000000 		.4byte	.LFB263
 3809 002c 80000000 		.4byte	.LFE263-.LFB263
 3810 0030 00000000 		.4byte	.LFB256
 3811 0034 24000000 		.4byte	.LFE256-.LFB256
 3812 0038 00000000 		.4byte	.LFB257
 3813 003c 90000000 		.4byte	.LFE257-.LFB257
 3814 0040 00000000 		.4byte	.LFB258
 3815 0044 0C000000 		.4byte	.LFE258-.LFB258
 3816 0048 00000000 		.4byte	.LFB259
 3817 004c 10000000 		.4byte	.LFE259-.LFB259
 3818 0050 00000000 		.4byte	.LFB260
 3819 0054 14000000 		.4byte	.LFE260-.LFB260
 3820 0058 00000000 		.4byte	0
 3821 005c 00000000 		.4byte	0
 3822              		.section	.debug_ranges,"",%progbits
 3823              	.Ldebug_ranges0:
 3824 0000 16000000 		.4byte	.LBB4
 3825 0004 1A000000 		.4byte	.LBE4
 3826 0008 26000000 		.4byte	.LBB8
 3827 000c 28000000 		.4byte	.LBE8
 3828 0010 2C000000 		.4byte	.LBB9
 3829 0014 30000000 		.4byte	.LBE9
 3830 0018 00000000 		.4byte	0
 3831 001c 00000000 		.4byte	0
 3832 0020 00000000 		.4byte	.LFB261
 3833 0024 0C000000 		.4byte	.LFE261
 3834 0028 00000000 		.4byte	.LFB262
 3835 002c 0C000000 		.4byte	.LFE262
 3836 0030 00000000 		.4byte	.LFB265
 3837 0034 28000000 		.4byte	.LFE265
 3838 0038 00000000 		.4byte	.LFB263
 3839 003c 80000000 		.4byte	.LFE263
 3840 0040 00000000 		.4byte	.LFB256
 3841 0044 24000000 		.4byte	.LFE256
 3842 0048 00000000 		.4byte	.LFB257
 3843 004c 90000000 		.4byte	.LFE257
 3844 0050 00000000 		.4byte	.LFB258
 3845 0054 0C000000 		.4byte	.LFE258
ARM GAS  C:\Users\jo\AppData\Local\Temp\cc5Gtjn4.s 			page 69


 3846 0058 00000000 		.4byte	.LFB259
 3847 005c 10000000 		.4byte	.LFE259
 3848 0060 00000000 		.4byte	.LFB260
 3849 0064 14000000 		.4byte	.LFE260
 3850 0068 00000000 		.4byte	0
 3851 006c 00000000 		.4byte	0
 3852              		.section	.debug_line,"",%progbits
 3853              	.Ldebug_line0:
 3854 0000 79040000 		.section	.debug_str,"MS",%progbits,1
 3854      02009303 
 3854      00000201 
 3854      FB0E0D00 
 3854      01010101 
 3855              	.LASF23:
 3856 0000 74726566 		.ascii	"trefs_t\000"
 3856      735F7400 
 3857              	.LASF51:
 3858 0008 72656164 		.ascii	"ready_list_t\000"
 3858      795F6C69 
 3858      73745F74 
 3858      00
 3859              	.LASF2:
 3860 0015 73697A65 		.ascii	"size_t\000"
 3860      5F7400
 3861              	.LASF147:
 3862 001c 72786368 		.ascii	"rxchar_cb\000"
 3862      61725F63 
 3862      6200
 3863              	.LASF92:
 3864 0026 7264796D 		.ascii	"rdymsg\000"
 3864      736700
 3865              	.LASF19:
 3866 002d 75696E74 		.ascii	"uint64_t\000"
 3866      36345F74 
 3866      00
 3867              	.LASF3:
 3868 0036 5F5F7569 		.ascii	"__uint8_t\000"
 3868      6E74385F 
 3868      7400
 3869              	.LASF108:
 3870 0040 4F545950 		.ascii	"OTYPER\000"
 3870      455200
 3871              	.LASF85:
 3872 0047 706F7274 		.ascii	"port_intctx\000"
 3872      5F696E74 
 3872      63747800 
 3873              	.LASF153:
 3874 0053 76615F6C 		.ascii	"va_list\000"
 3874      69737400 
 3875              	.LASF70:
 3876 005b 73797374 		.ascii	"system_debug_t\000"
 3876      656D5F64 
 3876      65627567 
 3876      5F7400
 3877              	.LASF155:
 3878 006a 55434841 		.ascii	"UCHAR\000"
 3878      5200
ARM GAS  C:\Users\jo\AppData\Local\Temp\cc5Gtjn4.s 			page 70


 3879              	.LASF154:
 3880 0070 424F4F4C 		.ascii	"BOOL\000"
 3880      00
 3881              	.LASF116:
 3882 0075 696F706F 		.ascii	"ioportmask_t\000"
 3882      72746D61 
 3882      736B5F74 
 3882      00
 3883              	.LASF179:
 3884 0082 75634279 		.ascii	"ucByte\000"
 3884      746500
 3885              	.LASF107:
 3886 0089 4D4F4445 		.ascii	"MODER\000"
 3886      5200
 3887              	.LASF14:
 3888 008f 6C6F6E67 		.ascii	"long long unsigned int\000"
 3888      206C6F6E 
 3888      6720756E 
 3888      7369676E 
 3888      65642069 
 3889              	.LASF163:
 3890 00a6 666F726D 		.ascii	"formatted_bytes\000"
 3890      61747465 
 3890      645F6279 
 3890      74657300 
 3891              	.LASF110:
 3892 00b6 50555044 		.ascii	"PUPDR\000"
 3892      5200
 3893              	.LASF93:
 3894 00bc 65786974 		.ascii	"exitcode\000"
 3894      636F6465 
 3894      00
 3895              	.LASF77:
 3896 00c5 6D61696E 		.ascii	"mainthread\000"
 3896      74687265 
 3896      616400
 3897              	.LASF8:
 3898 00d0 5F5F696E 		.ascii	"__int32_t\000"
 3898      7433325F 
 3898      7400
 3899              	.LASF67:
 3900 00da 76697274 		.ascii	"virtual_timers_list_t\000"
 3900      75616C5F 
 3900      74696D65 
 3900      72735F6C 
 3900      6973745F 
 3901              	.LASF150:
 3902 00f0 55415254 		.ascii	"UARTConfig\000"
 3902      436F6E66 
 3902      696700
 3903              	.LASF183:
 3904 00fb 49544D5F 		.ascii	"ITM_RxBuffer\000"
 3904      52784275 
 3904      66666572 
 3904      00
 3905              	.LASF136:
 3906 0108 72786275 		.ascii	"rxbuf\000"
ARM GAS  C:\Users\jo\AppData\Local\Temp\cc5Gtjn4.s 			page 71


 3906      6600
 3907              	.LASF172:
 3908 010e 78527845 		.ascii	"xRxEnable\000"
 3908      6E61626C 
 3908      6500
 3909              	.LASF161:
 3910 0118 654D4250 		.ascii	"eMBParity\000"
 3910      61726974 
 3910      7900
 3911              	.LASF31:
 3912 0122 705F7072 		.ascii	"p_prio\000"
 3912      696F00
 3913              	.LASF12:
 3914 0129 6C6F6E67 		.ascii	"long long int\000"
 3914      206C6F6E 
 3914      6720696E 
 3914      7400
 3915              	.LASF1:
 3916 0137 7369676E 		.ascii	"signed char\000"
 3916      65642063 
 3916      68617200 
 3917              	.LASF141:
 3918 0143 75617274 		.ascii	"uartcb_t\000"
 3918      63625F74 
 3918      00
 3919              	.LASF111:
 3920 014c 42535252 		.ascii	"BSRR\000"
 3920      00
 3921              	.LASF80:
 3922 0151 47545052 		.ascii	"GTPR\000"
 3922      00
 3923              	.LASF45:
 3924 0156 705F6D70 		.ascii	"p_mpool\000"
 3924      6F6F6C00 
 3925              	.LASF133:
 3926 015e 72787374 		.ascii	"rxstate\000"
 3926      61746500 
 3927              	.LASF97:
 3928 0166 6D5F7175 		.ascii	"m_queue\000"
 3928      65756500 
 3929              	.LASF157:
 3930 016e 554C4F4E 		.ascii	"ULONG\000"
 3930      4700
 3931              	.LASF140:
 3932 0174 72784275 		.ascii	"rxBuffer\000"
 3932      66666572 
 3932      00
 3933              	.LASF170:
 3934 017d 62537461 		.ascii	"bStatus\000"
 3934      74757300 
 3935              	.LASF131:
 3936 0185 73746174 		.ascii	"state\000"
 3936      6500
 3937              	.LASF132:
 3938 018b 74787374 		.ascii	"txstate\000"
 3938      61746500 
 3939              	.LASF9:
ARM GAS  C:\Users\jo\AppData\Local\Temp\cc5Gtjn4.s 			page 72


 3940 0193 6C6F6E67 		.ascii	"long int\000"
 3940      20696E74 
 3940      00
 3941              	.LASF22:
 3942 019c 74737461 		.ascii	"tstate_t\000"
 3942      74655F74 
 3942      00
 3943              	.LASF176:
 3944 01a5 764D424D 		.ascii	"vMBMasterPortClose\000"
 3944      61737465 
 3944      72506F72 
 3944      74436C6F 
 3944      736500
 3945              	.LASF87:
 3946 01b8 5F5F7661 		.ascii	"__va_list\000"
 3946      5F6C6973 
 3946      7400
 3947              	.LASF158:
 3948 01c2 4D425F50 		.ascii	"MB_PAR_NONE\000"
 3948      41525F4E 
 3948      4F4E4500 
 3949              	.LASF91:
 3950 01ce 5F5F6170 		.ascii	"__ap\000"
 3950      00
 3951              	.LASF33:
 3952 01d3 705F6E65 		.ascii	"p_newer\000"
 3952      77657200 
 3953              	.LASF128:
 3954 01db 75617274 		.ascii	"uartrxstate_t\000"
 3954      72787374 
 3954      6174655F 
 3954      7400
 3955              	.LASF130:
 3956 01e9 55415254 		.ascii	"UARTDriver\000"
 3956      44726976 
 3956      657200
 3957              	.LASF109:
 3958 01f4 4F535045 		.ascii	"OSPEEDR\000"
 3958      45445200 
 3959              	.LASF56:
 3960 01fc 725F6E65 		.ascii	"r_newer\000"
 3960      77657200 
 3961              	.LASF120:
 3962 0204 75617274 		.ascii	"uartstate_t\000"
 3962      73746174 
 3962      655F7400 
 3963              	.LASF82:
 3964 0210 72656761 		.ascii	"regarm_t\000"
 3964      726D5F74 
 3964      00
 3965              	.LASF63:
 3966 0219 76745F70 		.ascii	"vt_prev\000"
 3966      72657600 
 3967              	.LASF76:
 3968 0221 76746C69 		.ascii	"vtlist\000"
 3968      737400
 3969              	.LASF164:
ARM GAS  C:\Users\jo\AppData\Local\Temp\cc5Gtjn4.s 			page 73


 3970 0228 7478656E 		.ascii	"txend1\000"
 3970      643100
 3971              	.LASF115:
 3972 022f 73746D33 		.ascii	"stm32_gpio_t\000"
 3972      325F6770 
 3972      696F5F74 
 3972      00
 3973              	.LASF100:
 3974 023c 6D757465 		.ascii	"mutex_t\000"
 3974      785F7400 
 3975              	.LASF185:
 3976 0244 70784D42 		.ascii	"pxMBMasterFrameCBByteReceived\000"
 3976      4D617374 
 3976      65724672 
 3976      616D6543 
 3976      42427974 
 3977              	.LASF104:
 3978 0262 42617365 		.ascii	"BaseSequentialStream\000"
 3978      53657175 
 3978      656E7469 
 3978      616C5374 
 3978      7265616D 
 3979              	.LASF78:
 3980 0277 69646C65 		.ascii	"idle_thread_wa\000"
 3980      5F746872 
 3980      6561645F 
 3980      776100
 3981              	.LASF122:
 3982 0286 55415254 		.ascii	"UART_TX_ACTIVE\000"
 3982      5F54585F 
 3982      41435449 
 3982      564500
 3983              	.LASF135:
 3984 0295 75736172 		.ascii	"usart\000"
 3984      7400
 3985              	.LASF0:
 3986 029b 756E7369 		.ascii	"unsigned int\000"
 3986      676E6564 
 3986      20696E74 
 3986      00
 3987              	.LASF62:
 3988 02a8 76745F6E 		.ascii	"vt_next\000"
 3988      65787400 
 3989              	.LASF16:
 3990 02b0 75696E74 		.ascii	"uint16_t\000"
 3990      31365F74 
 3990      00
 3991              	.LASF64:
 3992 02b9 76745F64 		.ascii	"vt_delta\000"
 3992      656C7461 
 3992      00
 3993              	.LASF40:
 3994 02c2 705F6D73 		.ascii	"p_msgqueue\000"
 3994      67717565 
 3994      756500
 3995              	.LASF143:
 3996 02cd 75617274 		.ascii	"uartecb_t\000"
ARM GAS  C:\Users\jo\AppData\Local\Temp\cc5Gtjn4.s 			page 74


 3996      6563625F 
 3996      7400
 3997              	.LASF112:
 3998 02d7 4C434B52 		.ascii	"LCKR\000"
 3998      00
 3999              	.LASF7:
 4000 02dc 73686F72 		.ascii	"short unsigned int\000"
 4000      7420756E 
 4000      7369676E 
 4000      65642069 
 4000      6E7400
 4001              	.LASF117:
 4002 02ef 55415254 		.ascii	"UART_UNINIT\000"
 4002      5F554E49 
 4002      4E495400 
 4003              	.LASF118:
 4004 02fb 55415254 		.ascii	"UART_STOP\000"
 4004      5F53544F 
 4004      5000
 4005              	.LASF47:
 4006 0305 63685F74 		.ascii	"ch_thread\000"
 4006      68726561 
 4006      6400
 4007              	.LASF25:
 4008 030f 6D73675F 		.ascii	"msg_t\000"
 4008      7400
 4009              	.LASF48:
 4010 0315 63685F74 		.ascii	"ch_threads_list\000"
 4010      68726561 
 4010      64735F6C 
 4010      69737400 
 4011              	.LASF73:
 4012 0325 63685F73 		.ascii	"ch_system_t\000"
 4012      79737465 
 4012      6D5F7400 
 4013              	.LASF81:
 4014 0331 55534152 		.ascii	"USART_TypeDef\000"
 4014      545F5479 
 4014      70654465 
 4014      6600
 4015              	.LASF167:
 4016 033f 756C4261 		.ascii	"ulBaudRate\000"
 4016      75645261 
 4016      746500
 4017              	.LASF21:
 4018 034a 746D6F64 		.ascii	"tmode_t\000"
 4018      655F7400 
 4019              	.LASF138:
 4020 0352 74784275 		.ascii	"txBuf\000"
 4020      6600
 4021              	.LASF52:
 4022 0358 63685F72 		.ascii	"ch_ready_list\000"
 4022      65616479 
 4022      5F6C6973 
 4022      7400
 4023              	.LASF26:
 4024 0366 6576656E 		.ascii	"eventmask_t\000"
ARM GAS  C:\Users\jo\AppData\Local\Temp\cc5Gtjn4.s 			page 75


 4024      746D6173 
 4024      6B5F7400 
 4025              	.LASF149:
 4026 0372 73706565 		.ascii	"speed\000"
 4026      6400
 4027              	.LASF83:
 4028 0378 73746B61 		.ascii	"stkalign_t\000"
 4028      6C69676E 
 4028      5F7400
 4029              	.LASF119:
 4030 0383 55415254 		.ascii	"UART_READY\000"
 4030      5F524541 
 4030      445900
 4031              	.LASF102:
 4032 038e 77726974 		.ascii	"write\000"
 4032      6500
 4033              	.LASF162:
 4034 0394 75617274 		.ascii	"uartp\000"
 4034      7000
 4035              	.LASF79:
 4036 039a 73697A65 		.ascii	"sizetype\000"
 4036      74797065 
 4036      00
 4037              	.LASF68:
 4038 03a3 63685F76 		.ascii	"ch_virtual_timers_list\000"
 4038      69727475 
 4038      616C5F74 
 4038      696D6572 
 4038      735F6C69 
 4039              	.LASF106:
 4040 03ba 636C6561 		.ascii	"clear\000"
 4040      7200
 4041              	.LASF127:
 4042 03c0 55415254 		.ascii	"UART_RX_COMPLETE\000"
 4042      5F52585F 
 4042      434F4D50 
 4042      4C455445 
 4042      00
 4043              	.LASF86:
 4044 03d1 5F5F676E 		.ascii	"__gnuc_va_list\000"
 4044      75635F76 
 4044      615F6C69 
 4044      737400
 4045              	.LASF148:
 4046 03e0 72786572 		.ascii	"rxerr_cb\000"
 4046      725F6362 
 4046      00
 4047              	.LASF69:
 4048 03e9 76745F6C 		.ascii	"vt_lasttime\000"
 4048      61737474 
 4048      696D6500 
 4049              	.LASF34:
 4050 03f5 705F6F6C 		.ascii	"p_older\000"
 4050      64657200 
 4051              	.LASF55:
 4052 03fd 725F6374 		.ascii	"r_ctx\000"
 4052      7800
ARM GAS  C:\Users\jo\AppData\Local\Temp\cc5Gtjn4.s 			page 76


 4053              	.LASF129:
 4054 0403 75617274 		.ascii	"uartflags_t\000"
 4054      666C6167 
 4054      735F7400 
 4055              	.LASF194:
 4056 040f 75617274 		.ascii	"uartStart\000"
 4056      53746172 
 4056      7400
 4057              	.LASF146:
 4058 0419 7278656E 		.ascii	"rxend_cb\000"
 4058      645F6362 
 4058      00
 4059              	.LASF90:
 4060 0422 746D5F63 		.ascii	"tm_calibration_t\000"
 4060      616C6962 
 4060      72617469 
 4060      6F6E5F74 
 4060      00
 4061              	.LASF124:
 4062 0433 75617274 		.ascii	"uarttxstate_t\000"
 4062      74787374 
 4062      6174655F 
 4062      7400
 4063              	.LASF99:
 4064 0441 6D5F6E65 		.ascii	"m_next\000"
 4064      787400
 4065              	.LASF58:
 4066 0448 725F6375 		.ascii	"r_current\000"
 4066      7272656E 
 4066      7400
 4067              	.LASF57:
 4068 0452 725F6F6C 		.ascii	"r_older\000"
 4068      64657200 
 4069              	.LASF188:
 4070 045a 474E5520 		.ascii	"GNU C 4.9.3 20141119 (release) [ARM/embedded-4_9-br"
 4070      4320342E 
 4070      392E3320 
 4070      32303134 
 4070      31313139 
 4071 048d 616E6368 		.ascii	"anch revision 218278] -mcpu=cortex-m4 -mfloat-abi=h"
 4071      20726576 
 4071      6973696F 
 4071      6E203231 
 4071      38323738 
 4072 04c0 61726420 		.ascii	"ard -mfpu=fpv4-sp-d16 -mno-thumb-interwork -mthumb "
 4072      2D6D6670 
 4072      753D6670 
 4072      76342D73 
 4072      702D6431 
 4073 04f3 2D676764 		.ascii	"-ggdb -O2 -fomit-frame-pointer -falign-functions=16"
 4073      62202D4F 
 4073      32202D66 
 4073      6F6D6974 
 4073      2D667261 
 4074 0526 202D6666 		.ascii	" -ffunction-sections -fdata-sections -fno-common -f"
 4074      756E6374 
 4074      696F6E2D 
ARM GAS  C:\Users\jo\AppData\Local\Temp\cc5Gtjn4.s 			page 77


 4074      73656374 
 4074      696F6E73 
 4075 0559 73696E67 		.ascii	"single-precision-constant\000"
 4075      6C652D70 
 4075      72656369 
 4075      73696F6E 
 4075      2D636F6E 
 4076              	.LASF165:
 4077 0573 72786368 		.ascii	"rxchar\000"
 4077      617200
 4078              	.LASF13:
 4079 057a 5F5F7569 		.ascii	"__uint64_t\000"
 4079      6E743634 
 4079      5F7400
 4080              	.LASF113:
 4081 0585 4146524C 		.ascii	"AFRL\000"
 4081      00
 4082              	.LASF152:
 4083 058a 49544D53 		.ascii	"ITMStream\000"
 4083      74726561 
 4083      6D00
 4084              	.LASF60:
 4085 0594 76697274 		.ascii	"virtual_timer_t\000"
 4085      75616C5F 
 4085      74696D65 
 4085      725F7400 
 4086              	.LASF30:
 4087 05a4 705F7072 		.ascii	"p_prev\000"
 4087      657600
 4088              	.LASF145:
 4089 05ab 7478656E 		.ascii	"txend2_cb\000"
 4089      64325F63 
 4089      6200
 4090              	.LASF24:
 4091 05b5 74707269 		.ascii	"tprio_t\000"
 4091      6F5F7400 
 4092              	.LASF191:
 4093 05bd 72786572 		.ascii	"rxerr\000"
 4093      7200
 4094              	.LASF96:
 4095 05c3 6D757465 		.ascii	"mutex\000"
 4095      7800
 4096              	.LASF71:
 4097 05c9 63685F73 		.ascii	"ch_system_debug\000"
 4097      79737465 
 4097      6D5F6465 
 4097      62756700 
 4098              	.LASF105:
 4099 05d9 5F426F6F 		.ascii	"_Bool\000"
 4099      6C00
 4100              	.LASF17:
 4101 05df 696E7433 		.ascii	"int32_t\000"
 4101      325F7400 
 4102              	.LASF4:
 4103 05e7 756E7369 		.ascii	"unsigned char\000"
 4103      676E6564 
 4103      20636861 
ARM GAS  C:\Users\jo\AppData\Local\Temp\cc5Gtjn4.s 			page 78


 4103      7200
 4104              	.LASF175:
 4105 05f5 764D424D 		.ascii	"vMBMasterPortSerialEnable\000"
 4105      61737465 
 4105      72506F72 
 4105      74536572 
 4105      69616C45 
 4106              	.LASF166:
 4107 060f 7563504F 		.ascii	"ucPORT\000"
 4107      525400
 4108              	.LASF43:
 4109 0616 705F6D74 		.ascii	"p_mtxlist\000"
 4109      786C6973 
 4109      7400
 4110              	.LASF5:
 4111 0620 73686F72 		.ascii	"short int\000"
 4111      7420696E 
 4111      7400
 4112              	.LASF36:
 4113 062a 705F7374 		.ascii	"p_state\000"
 4113      61746500 
 4114              	.LASF54:
 4115 0632 725F7072 		.ascii	"r_prio\000"
 4115      696F00
 4116              	.LASF95:
 4117 0639 65776D61 		.ascii	"ewmask\000"
 4117      736B00
 4118              	.LASF29:
 4119 0640 705F6E65 		.ascii	"p_next\000"
 4119      787400
 4120              	.LASF37:
 4121 0647 705F666C 		.ascii	"p_flags\000"
 4121      61677300 
 4122              	.LASF74:
 4123 064f 63685F73 		.ascii	"ch_system\000"
 4123      79737465 
 4123      6D00
 4124              	.LASF123:
 4125 0659 55415254 		.ascii	"UART_TX_COMPLETE\000"
 4125      5F54585F 
 4125      434F4D50 
 4125      4C455445 
 4125      00
 4126              	.LASF42:
 4127 066a 705F6570 		.ascii	"p_epending\000"
 4127      656E6469 
 4127      6E6700
 4128              	.LASF101:
 4129 0675 42617365 		.ascii	"BaseSequentialStreamVMT\000"
 4129      53657175 
 4129      656E7469 
 4129      616C5374 
 4129      7265616D 
 4130              	.LASF53:
 4131 068d 725F7175 		.ascii	"r_queue\000"
 4131      65756500 
 4132              	.LASF171:
ARM GAS  C:\Users\jo\AppData\Local\Temp\cc5Gtjn4.s 			page 79


 4133 0695 75617274 		.ascii	"uartCfg\000"
 4133      43666700 
 4134              	.LASF180:
 4135 069d 784D424D 		.ascii	"xMBMasterPortSerialGetByte\000"
 4135      61737465 
 4135      72506F72 
 4135      74536572 
 4135      69616C47 
 4136              	.LASF142:
 4137 06b8 75617274 		.ascii	"uartccb_t\000"
 4137      6363625F 
 4137      7400
 4138              	.LASF195:
 4139 06c2 75617274 		.ascii	"uartStop\000"
 4139      53746F70 
 4139      00
 4140              	.LASF11:
 4141 06cb 6C6F6E67 		.ascii	"long unsigned int\000"
 4141      20756E73 
 4141      69676E65 
 4141      6420696E 
 4141      7400
 4142              	.LASF103:
 4143 06dd 72656164 		.ascii	"read\000"
 4143      00
 4144              	.LASF88:
 4145 06e2 63686172 		.ascii	"char\000"
 4145      00
 4146              	.LASF151:
 4147 06e7 49544D53 		.ascii	"ITMStreamVMT\000"
 4147      74726561 
 4147      6D564D54 
 4147      00
 4148              	.LASF186:
 4149 06f4 70784D42 		.ascii	"pxMBMasterFrameCBTransmitterEmpty\000"
 4149      4D617374 
 4149      65724672 
 4149      616D6543 
 4149      42547261 
 4150              	.LASF134:
 4151 0716 636F6E66 		.ascii	"config\000"
 4151      696700
 4152              	.LASF125:
 4153 071d 55415254 		.ascii	"UART_RX_IDLE\000"
 4153      5F52585F 
 4153      49444C45 
 4153      00
 4154              	.LASF190:
 4155 072a 433A5C55 		.ascii	"C:\\Users\\jo\\Documents\\GitHub\\ChibiOS\\demos\\S"
 4155      73657273 
 4155      5C6A6F5C 
 4155      446F6375 
 4155      6D656E74 
 4156 0756 544D3332 		.ascii	"TM32\\RT-STM32F407-DISCOVERY\000"
 4156      5C52542D 
 4156      53544D33 
 4156      32463430 
ARM GAS  C:\Users\jo\AppData\Local\Temp\cc5Gtjn4.s 			page 80


 4156      372D4449 
 4157              	.LASF6:
 4158 0772 5F5F7569 		.ascii	"__uint16_t\000"
 4158      6E743136 
 4158      5F7400
 4159              	.LASF177:
 4160 077d 784D424D 		.ascii	"xMBMasterPortSerialInit\000"
 4160      61737465 
 4160      72506F72 
 4160      74536572 
 4160      69616C49 
 4161              	.LASF174:
 4162 0795 75726567 		.ascii	"ureg\000"
 4162      00
 4163              	.LASF28:
 4164 079a 74687265 		.ascii	"thread_t\000"
 4164      61645F74 
 4164      00
 4165              	.LASF160:
 4166 07a3 4D425F50 		.ascii	"MB_PAR_EVEN\000"
 4166      41525F45 
 4166      56454E00 
 4167              	.LASF156:
 4168 07af 43484152 		.ascii	"CHAR\000"
 4168      00
 4169              	.LASF27:
 4170 07b4 73797374 		.ascii	"systime_t\000"
 4170      696D655F 
 4170      7400
 4171              	.LASF44:
 4172 07be 705F7265 		.ascii	"p_realprio\000"
 4172      616C7072 
 4172      696F00
 4173              	.LASF59:
 4174 07c9 76746675 		.ascii	"vtfunc_t\000"
 4174      6E635F74 
 4174      00
 4175              	.LASF10:
 4176 07d2 5F5F7569 		.ascii	"__uint32_t\000"
 4176      6E743332 
 4176      5F7400
 4177              	.LASF121:
 4178 07dd 55415254 		.ascii	"UART_TX_IDLE\000"
 4178      5F54585F 
 4178      49444C45 
 4178      00
 4179              	.LASF72:
 4180 07ea 70616E69 		.ascii	"panic_msg\000"
 4180      635F6D73 
 4180      6700
 4181              	.LASF168:
 4182 07f4 75634461 		.ascii	"ucDataBits\000"
 4182      74614269 
 4182      747300
 4183              	.LASF89:
 4184 07ff 6F666673 		.ascii	"offset\000"
 4184      657400
ARM GAS  C:\Users\jo\AppData\Local\Temp\cc5Gtjn4.s 			page 81


 4185              	.LASF173:
 4186 0806 78547845 		.ascii	"xTxEnable\000"
 4186      6E61626C 
 4186      6500
 4187              	.LASF84:
 4188 0810 636F6E74 		.ascii	"context\000"
 4188      65787400 
 4189              	.LASF61:
 4190 0818 63685F76 		.ascii	"ch_virtual_timer\000"
 4190      69727475 
 4190      616C5F74 
 4190      696D6572 
 4190      00
 4191              	.LASF20:
 4192 0829 7274636E 		.ascii	"rtcnt_t\000"
 4192      745F7400 
 4193              	.LASF178:
 4194 0831 784D424D 		.ascii	"xMBMasterPortSerialPutByte\000"
 4194      61737465 
 4194      72506F72 
 4194      74536572 
 4194      69616C50 
 4195              	.LASF181:
 4196 084c 70756342 		.ascii	"pucByte\000"
 4196      79746500 
 4197              	.LASF66:
 4198 0854 76745F70 		.ascii	"vt_par\000"
 4198      617200
 4199              	.LASF169:
 4200 085b 65506172 		.ascii	"eParity\000"
 4200      69747900 
 4201              	.LASF187:
 4202 0863 69746D5F 		.ascii	"itm_port\000"
 4202      706F7274 
 4202      00
 4203              	.LASF50:
 4204 086c 63685F74 		.ascii	"ch_threads_queue\000"
 4204      68726561 
 4204      64735F71 
 4204      75657565 
 4204      00
 4205              	.LASF49:
 4206 087d 74687265 		.ascii	"threads_queue_t\000"
 4206      6164735F 
 4206      71756575 
 4206      655F7400 
 4207              	.LASF35:
 4208 088d 705F6E61 		.ascii	"p_name\000"
 4208      6D6500
 4209              	.LASF38:
 4210 0894 705F7265 		.ascii	"p_refs\000"
 4210      667300
 4211              	.LASF144:
 4212 089b 7478656E 		.ascii	"txend1_cb\000"
 4212      64315F63 
 4212      6200
 4213              	.LASF75:
ARM GAS  C:\Users\jo\AppData\Local\Temp\cc5Gtjn4.s 			page 82


 4214 08a5 726C6973 		.ascii	"rlist\000"
 4214      7400
 4215              	.LASF15:
 4216 08ab 75696E74 		.ascii	"uint8_t\000"
 4216      385F7400 
 4217              	.LASF193:
 4218 08b3 63687670 		.ascii	"chvprintf\000"
 4218      72696E74 
 4218      6600
 4219              	.LASF137:
 4220 08bd 7478436F 		.ascii	"txCount\000"
 4220      756E7400 
 4221              	.LASF182:
 4222 08c5 73657269 		.ascii	"serial\000"
 4222      616C00
 4223              	.LASF94:
 4224 08cc 77746F62 		.ascii	"wtobjp\000"
 4224      6A7000
 4225              	.LASF159:
 4226 08d3 4D425F50 		.ascii	"MB_PAR_ODD\000"
 4226      41525F4F 
 4226      444400
 4227              	.LASF46:
 4228 08de 74687265 		.ascii	"threads_list_t\000"
 4228      6164735F 
 4228      6C697374 
 4228      5F7400
 4229              	.LASF189:
 4230 08ed 46726565 		.ascii	"FreeModbus/port/rtt/portserial_m.c\000"
 4230      4D6F6462 
 4230      75732F70 
 4230      6F72742F 
 4230      7274742F 
 4231              	.LASF41:
 4232 0910 705F6D73 		.ascii	"p_msg\000"
 4232      6700
 4233              	.LASF139:
 4234 0916 7278436F 		.ascii	"rxCount\000"
 4234      756E7400 
 4235              	.LASF114:
 4236 091e 41465248 		.ascii	"AFRH\000"
 4236      00
 4237              	.LASF98:
 4238 0923 6D5F6F77 		.ascii	"m_owner\000"
 4238      6E657200 
 4239              	.LASF126:
 4240 092b 55415254 		.ascii	"UART_RX_ACTIVE\000"
 4240      5F52585F 
 4240      41435449 
 4240      564500
 4241              	.LASF18:
 4242 093a 75696E74 		.ascii	"uint32_t\000"
 4242      33325F74 
 4242      00
 4243              	.LASF32:
 4244 0943 705F6374 		.ascii	"p_ctx\000"
 4244      7800
ARM GAS  C:\Users\jo\AppData\Local\Temp\cc5Gtjn4.s 			page 83


 4245              	.LASF65:
 4246 0949 76745F66 		.ascii	"vt_func\000"
 4246      756E6300 
 4247              	.LASF184:
 4248 0951 55415254 		.ascii	"UARTD3\000"
 4248      443300
 4249              	.LASF39:
 4250 0958 705F7761 		.ascii	"p_waiting\000"
 4250      6974696E 
 4250      6700
 4251              	.LASF192:
 4252 0962 63687072 		.ascii	"chprintf\000"
 4252      696E7466 
 4252      00
 4253              		.ident	"GCC: (GNU Tools for ARM Embedded Processors) 4.9.3 20141119 (release) [ARM/embedded-4_9-br
ARM GAS  C:\Users\jo\AppData\Local\Temp\cc5Gtjn4.s 			page 84


DEFINED SYMBOLS
                            *ABS*:00000000 portserial_m.c
C:\Users\jo\AppData\Local\Temp\cc5Gtjn4.s:21     .text.txend1:00000000 $t
C:\Users\jo\AppData\Local\Temp\cc5Gtjn4.s:26     .text.txend1:00000000 txend1
C:\Users\jo\AppData\Local\Temp\cc5Gtjn4.s:43     .text.txend1:00000008 $d
C:\Users\jo\AppData\Local\Temp\cc5Gtjn4.s:48     .text.rxchar:00000000 $t
C:\Users\jo\AppData\Local\Temp\cc5Gtjn4.s:53     .text.rxchar:00000000 rxchar
C:\Users\jo\AppData\Local\Temp\cc5Gtjn4.s:69     .text.rxchar:00000008 $d
C:\Users\jo\AppData\Local\Temp\cc5Gtjn4.s:74     .text.chprintf.constprop.1:00000000 $t
C:\Users\jo\AppData\Local\Temp\cc5Gtjn4.s:79     .text.chprintf.constprop.1:00000000 chprintf.constprop.1
C:\Users\jo\AppData\Local\Temp\cc5Gtjn4.s:125    .text.chprintf.constprop.1:00000020 $d
C:\Users\jo\AppData\Local\Temp\cc5Gtjn4.s:131    .text.rxerr:00000000 $t
C:\Users\jo\AppData\Local\Temp\cc5Gtjn4.s:136    .text.rxerr:00000000 rxerr
C:\Users\jo\AppData\Local\Temp\cc5Gtjn4.s:254    .text.rxerr:00000060 $d
C:\Users\jo\AppData\Local\Temp\cc5Gtjn4.s:266    .text.xMBMasterPortSerialInit:00000000 $t
C:\Users\jo\AppData\Local\Temp\cc5Gtjn4.s:272    .text.xMBMasterPortSerialInit:00000000 xMBMasterPortSerialInit
C:\Users\jo\AppData\Local\Temp\cc5Gtjn4.s:308    .text.xMBMasterPortSerialInit:00000018 $d
C:\Users\jo\AppData\Local\Temp\cc5Gtjn4.s:315    .text.vMBMasterPortSerialEnable:00000000 $t
C:\Users\jo\AppData\Local\Temp\cc5Gtjn4.s:321    .text.vMBMasterPortSerialEnable:00000000 vMBMasterPortSerialEnable
C:\Users\jo\AppData\Local\Temp\cc5Gtjn4.s:432    .text.vMBMasterPortSerialEnable:00000070 $d
C:\Users\jo\AppData\Local\Temp\cc5Gtjn4.s:444    .text.vMBMasterPortClose:00000000 $t
C:\Users\jo\AppData\Local\Temp\cc5Gtjn4.s:450    .text.vMBMasterPortClose:00000000 vMBMasterPortClose
C:\Users\jo\AppData\Local\Temp\cc5Gtjn4.s:465    .text.vMBMasterPortClose:00000008 $d
C:\Users\jo\AppData\Local\Temp\cc5Gtjn4.s:470    .text.xMBMasterPortSerialPutByte:00000000 $t
C:\Users\jo\AppData\Local\Temp\cc5Gtjn4.s:476    .text.xMBMasterPortSerialPutByte:00000000 xMBMasterPortSerialPutByte
C:\Users\jo\AppData\Local\Temp\cc5Gtjn4.s:498    .text.xMBMasterPortSerialPutByte:0000000c $d
C:\Users\jo\AppData\Local\Temp\cc5Gtjn4.s:503    .text.xMBMasterPortSerialGetByte:00000000 $t
C:\Users\jo\AppData\Local\Temp\cc5Gtjn4.s:509    .text.xMBMasterPortSerialGetByte:00000000 xMBMasterPortSerialGetByte
C:\Users\jo\AppData\Local\Temp\cc5Gtjn4.s:534    .text.xMBMasterPortSerialGetByte:00000010 $d
C:\Users\jo\AppData\Local\Temp\cc5Gtjn4.s:539    .data.uartCfg.8468:00000000 $d
C:\Users\jo\AppData\Local\Temp\cc5Gtjn4.s:543    .data.uartCfg.8468:00000000 uartCfg.8468
C:\Users\jo\AppData\Local\Temp\cc5Gtjn4.s:554    .rodata.str1.4:00000000 $d
C:\Users\jo\AppData\Local\Temp\cc5Gtjn4.s:582    .bss.serial:00000000 $d
C:\Users\jo\AppData\Local\Temp\cc5Gtjn4.s:586    .bss.serial:00000000 serial
                     .debug_frame:00000010 $d
C:\Users\jo\AppData\Local\Temp\cc5Gtjn4.s:47     .text.txend1:0000000c $t
C:\Users\jo\AppData\Local\Temp\cc5Gtjn4.s:73     .text.rxchar:0000000c $t
C:\Users\jo\AppData\Local\Temp\cc5Gtjn4.s:130    .text.chprintf.constprop.1:00000028 $t
C:\Users\jo\AppData\Local\Temp\cc5Gtjn4.s:314    .text.xMBMasterPortSerialInit:00000024 $t
C:\Users\jo\AppData\Local\Temp\cc5Gtjn4.s:469    .text.vMBMasterPortClose:0000000c $t
C:\Users\jo\AppData\Local\Temp\cc5Gtjn4.s:538    .text.xMBMasterPortSerialGetByte:00000014 $t

UNDEFINED SYMBOLS
pxMBMasterFrameCBTransmitterEmpty
pxMBMasterFrameCBByteReceived
chvprintf
itm_port
uartStart
UARTD3
uartStop
