ARM GAS  C:\Users\jo\AppData\Local\Temp\ccBf8mGB.s 			page 1


   1              		.syntax unified
   2              		.cpu cortex-m4
   3              		.eabi_attribute 27, 3
   4              		.eabi_attribute 28, 1
   5              		.fpu fpv4-sp-d16
   6              		.eabi_attribute 20, 1
   7              		.eabi_attribute 21, 1
   8              		.eabi_attribute 23, 3
   9              		.eabi_attribute 24, 1
  10              		.eabi_attribute 25, 1
  11              		.eabi_attribute 26, 1
  12              		.eabi_attribute 30, 2
  13              		.eabi_attribute 34, 1
  14              		.eabi_attribute 18, 4
  15              		.thumb
  16              		.file	"portevent_m.c"
  17              		.text
  18              	.Ltext0:
  19              		.cfi_sections	.debug_frame
  20              		.section	.text.xMBMasterPortEventInit,"ax",%progbits
  21              		.align	2
  22              		.p2align 4,,15
  23              		.global	xMBMasterPortEventInit
  24              		.thumb
  25              		.thumb_func
  26              		.type	xMBMasterPortEventInit, %function
  27              	xMBMasterPortEventInit:
  28              	.LFB256:
  29              		.file 1 "FreeModbus/port/rtt/portevent_m.c"
  30              		.loc 1 38 0
  31              		.cfi_startproc
  32              		@ args = 0, pretend = 0, frame = 0
  33              		@ frame_needed = 0, uses_anonymous_args = 0
  34              		@ link register save eliminated.
  35              		.loc 1 39 0
  36 0000 024B     		ldr	r3, .L2
  37 0002 0022     		movs	r2, #0
  38 0004 1A70     		strb	r2, [r3]
  39              		.loc 1 41 0
  40 0006 0120     		movs	r0, #1
  41 0008 7047     		bx	lr
  42              	.L3:
  43 000a 00BF     		.align	2
  44              	.L2:
  45 000c 00000000 		.word	.LANCHOR0
  46              		.cfi_endproc
  47              	.LFE256:
  48              		.size	xMBMasterPortEventInit, .-xMBMasterPortEventInit
  49              		.section	.text.xMBMasterPortEventPost,"ax",%progbits
  50              		.align	2
  51              		.p2align 4,,15
  52              		.global	xMBMasterPortEventPost
  53              		.thumb
  54              		.thumb_func
  55              		.type	xMBMasterPortEventPost, %function
  56              	xMBMasterPortEventPost:
  57              	.LFB257:
ARM GAS  C:\Users\jo\AppData\Local\Temp\ccBf8mGB.s 			page 2


  58              		.loc 1 45 0
  59              		.cfi_startproc
  60              		@ args = 0, pretend = 0, frame = 0
  61              		@ frame_needed = 0, uses_anonymous_args = 0
  62              		@ link register save eliminated.
  63              	.LVL0:
  64              		.loc 1 47 0
  65 0000 024A     		ldr	r2, .L5
  66              		.loc 1 46 0
  67 0002 034B     		ldr	r3, .L5+4
  68              		.loc 1 47 0
  69 0004 1070     		strb	r0, [r2]
  70              		.loc 1 46 0
  71 0006 0120     		movs	r0, #1
  72              	.LVL1:
  73 0008 1870     		strb	r0, [r3]
  74              		.loc 1 49 0
  75 000a 7047     		bx	lr
  76              	.L6:
  77              		.align	2
  78              	.L5:
  79 000c 00000000 		.word	.LANCHOR1
  80 0010 00000000 		.word	.LANCHOR0
  81              		.cfi_endproc
  82              	.LFE257:
  83              		.size	xMBMasterPortEventPost, .-xMBMasterPortEventPost
  84 0014 AFF30080 		.section	.text.xMBMasterPortEventGet,"ax",%progbits
  84      AFF30080 
  84      AFF30080 
  85              		.align	2
  86              		.p2align 4,,15
  87              		.global	xMBMasterPortEventGet
  88              		.thumb
  89              		.thumb_func
  90              		.type	xMBMasterPortEventGet, %function
  91              	xMBMasterPortEventGet:
  92              	.LFB258:
  93              		.loc 1 53 0
  94              		.cfi_startproc
  95              		@ args = 0, pretend = 0, frame = 0
  96              		@ frame_needed = 0, uses_anonymous_args = 0
  97              		@ link register save eliminated.
  98              	.LVL2:
  99              		.loc 1 56 0
 100 0000 054A     		ldr	r2, .L11
 101 0002 1378     		ldrb	r3, [r2]	@ zero_extendqisi2
 102 0004 33B1     		cbz	r3, .L9
 103              		.loc 1 58 0
 104 0006 0549     		ldr	r1, .L11+4
 105              		.loc 1 59 0
 106 0008 0023     		movs	r3, #0
 107              		.loc 1 58 0
 108 000a 0978     		ldrb	r1, [r1]	@ zero_extendqisi2
 109 000c 0180     		strh	r1, [r0]	@ movhi
 110              		.loc 1 59 0
 111 000e 1370     		strb	r3, [r2]
 112              	.LVL3:
ARM GAS  C:\Users\jo\AppData\Local\Temp\ccBf8mGB.s 			page 3


 113              		.loc 1 60 0
 114 0010 0120     		movs	r0, #1
 115              	.LVL4:
 116 0012 7047     		bx	lr
 117              	.LVL5:
 118              	.L9:
 119              		.loc 1 54 0
 120 0014 1846     		mov	r0, r3
 121              	.LVL6:
 122              		.loc 1 63 0
 123 0016 7047     		bx	lr
 124              	.L12:
 125              		.align	2
 126              	.L11:
 127 0018 00000000 		.word	.LANCHOR0
 128 001c 00000000 		.word	.LANCHOR1
 129              		.cfi_endproc
 130              	.LFE258:
 131              		.size	xMBMasterPortEventGet, .-xMBMasterPortEventGet
 132              		.section	.text.vMBMasterOsResInit,"ax",%progbits
 133              		.align	2
 134              		.p2align 4,,15
 135              		.global	vMBMasterOsResInit
 136              		.thumb
 137              		.thumb_func
 138              		.type	vMBMasterOsResInit, %function
 139              	vMBMasterOsResInit:
 140              	.LFB259:
 141              		.loc 1 70 0
 142              		.cfi_startproc
 143              		@ args = 0, pretend = 0, frame = 0
 144              		@ frame_needed = 0, uses_anonymous_args = 0
 145              		@ link register save eliminated.
 146              		.loc 1 71 0
 147 0000 014B     		ldr	r3, .L14
 148 0002 0122     		movs	r2, #1
 149 0004 1A70     		strb	r2, [r3]
 150 0006 7047     		bx	lr
 151              	.L15:
 152              		.align	2
 153              	.L14:
 154 0008 00000000 		.word	.LANCHOR2
 155              		.cfi_endproc
 156              	.LFE259:
 157              		.size	vMBMasterOsResInit, .-vMBMasterOsResInit
 158 000c AFF30080 		.section	.text.xMBMasterRunResTake,"ax",%progbits
 159              		.align	2
 160              		.p2align 4,,15
 161              		.global	xMBMasterRunResTake
 162              		.thumb
 163              		.thumb_func
 164              		.type	xMBMasterRunResTake, %function
 165              	xMBMasterRunResTake:
 166              	.LFB260:
 167              		.loc 1 83 0
 168              		.cfi_startproc
 169              		@ args = 0, pretend = 0, frame = 0
ARM GAS  C:\Users\jo\AppData\Local\Temp\ccBf8mGB.s 			page 4


 170              		@ frame_needed = 0, uses_anonymous_args = 0
 171              		@ link register save eliminated.
 172              	.LVL7:
 173              		.loc 1 86 0
 174 0000 014B     		ldr	r3, .L17
 175              		.loc 1 87 0
 176 0002 1878     		ldrb	r0, [r3]	@ zero_extendqisi2
 177              	.LVL8:
 178 0004 7047     		bx	lr
 179              	.L18:
 180 0006 00BF     		.align	2
 181              	.L17:
 182 0008 00000000 		.word	.LANCHOR2
 183              		.cfi_endproc
 184              	.LFE260:
 185              		.size	xMBMasterRunResTake, .-xMBMasterRunResTake
 186 000c AFF30080 		.section	.text.xMBMasterRunResLock,"ax",%progbits
 187              		.align	2
 188              		.p2align 4,,15
 189              		.global	xMBMasterRunResLock
 190              		.thumb
 191              		.thumb_func
 192              		.type	xMBMasterRunResLock, %function
 193              	xMBMasterRunResLock:
 194              	.LFB261:
 195              		.loc 1 89 0
 196              		.cfi_startproc
 197              		@ args = 0, pretend = 0, frame = 0
 198              		@ frame_needed = 0, uses_anonymous_args = 0
 199              		@ link register save eliminated.
 200              		.loc 1 91 0
 201 0000 014B     		ldr	r3, .L20
 202 0002 0022     		movs	r2, #0
 203 0004 1A70     		strb	r2, [r3]
 204 0006 7047     		bx	lr
 205              	.L21:
 206              		.align	2
 207              	.L20:
 208 0008 00000000 		.word	.LANCHOR2
 209              		.cfi_endproc
 210              	.LFE261:
 211              		.size	xMBMasterRunResLock, .-xMBMasterRunResLock
 212 000c AFF30080 		.section	.text.vMBMasterRunResRelease,"ax",%progbits
 213              		.align	2
 214              		.p2align 4,,15
 215              		.global	vMBMasterRunResRelease
 216              		.thumb
 217              		.thumb_func
 218              		.type	vMBMasterRunResRelease, %function
 219              	vMBMasterRunResRelease:
 220              	.LFB262:
 221              		.loc 1 100 0
 222              		.cfi_startproc
 223              		@ args = 0, pretend = 0, frame = 0
 224              		@ frame_needed = 0, uses_anonymous_args = 0
 225              		@ link register save eliminated.
 226              		.loc 1 102 0
ARM GAS  C:\Users\jo\AppData\Local\Temp\ccBf8mGB.s 			page 5


 227 0000 014B     		ldr	r3, .L23
 228 0002 0122     		movs	r2, #1
 229 0004 1A70     		strb	r2, [r3]
 230 0006 7047     		bx	lr
 231              	.L24:
 232              		.align	2
 233              	.L23:
 234 0008 00000000 		.word	.LANCHOR2
 235              		.cfi_endproc
 236              	.LFE262:
 237              		.size	vMBMasterRunResRelease, .-vMBMasterRunResRelease
 238 000c AFF30080 		.section	.text.vMBMasterErrorCBRespondTimeout,"ax",%progbits
 239              		.align	2
 240              		.p2align 4,,15
 241              		.global	vMBMasterErrorCBRespondTimeout
 242              		.thumb
 243              		.thumb_func
 244              		.type	vMBMasterErrorCBRespondTimeout, %function
 245              	vMBMasterErrorCBRespondTimeout:
 246              	.LFB263:
 247              		.loc 1 116 0
 248              		.cfi_startproc
 249              		@ args = 0, pretend = 0, frame = 0
 250              		@ frame_needed = 0, uses_anonymous_args = 0
 251              		@ link register save eliminated.
 252              	.LVL9:
 253              	.LBB12:
 254              	.LBB13:
 255              		.loc 1 46 0
 256 0000 0349     		ldr	r1, .L26
 257              	.LVL10:
 258              		.loc 1 47 0
 259 0002 044B     		ldr	r3, .L26+4
 260              		.loc 1 46 0
 261 0004 0120     		movs	r0, #1
 262              	.LVL11:
 263              		.loc 1 47 0
 264 0006 4022     		movs	r2, #64
 265              	.LVL12:
 266              		.loc 1 46 0
 267 0008 0870     		strb	r0, [r1]
 268              		.loc 1 47 0
 269 000a 1A70     		strb	r2, [r3]
 270 000c 7047     		bx	lr
 271              	.L27:
 272 000e 00BF     		.align	2
 273              	.L26:
 274 0010 00000000 		.word	.LANCHOR0
 275 0014 00000000 		.word	.LANCHOR1
 276              	.LBE13:
 277              	.LBE12:
 278              		.cfi_endproc
 279              	.LFE263:
 280              		.size	vMBMasterErrorCBRespondTimeout, .-vMBMasterErrorCBRespondTimeout
 281 0018 AFF30080 		.section	.text.vMBMasterErrorCBReceiveData,"ax",%progbits
 281      AFF30080 
 282              		.align	2
ARM GAS  C:\Users\jo\AppData\Local\Temp\ccBf8mGB.s 			page 6


 283              		.p2align 4,,15
 284              		.global	vMBMasterErrorCBReceiveData
 285              		.thumb
 286              		.thumb_func
 287              		.type	vMBMasterErrorCBReceiveData, %function
 288              	vMBMasterErrorCBReceiveData:
 289              	.LFB264:
 290              		.loc 1 139 0
 291              		.cfi_startproc
 292              		@ args = 0, pretend = 0, frame = 0
 293              		@ frame_needed = 0, uses_anonymous_args = 0
 294              		@ link register save eliminated.
 295              	.LVL13:
 296              	.LBB14:
 297              	.LBB15:
 298              		.loc 1 46 0
 299 0000 0349     		ldr	r1, .L29
 300              	.LVL14:
 301              		.loc 1 47 0
 302 0002 044B     		ldr	r3, .L29+4
 303              		.loc 1 46 0
 304 0004 0120     		movs	r0, #1
 305              	.LVL15:
 306              		.loc 1 47 0
 307 0006 8022     		movs	r2, #128
 308              	.LVL16:
 309              		.loc 1 46 0
 310 0008 0870     		strb	r0, [r1]
 311              		.loc 1 47 0
 312 000a 1A70     		strb	r2, [r3]
 313 000c 7047     		bx	lr
 314              	.L30:
 315 000e 00BF     		.align	2
 316              	.L29:
 317 0010 00000000 		.word	.LANCHOR0
 318 0014 00000000 		.word	.LANCHOR1
 319              	.LBE15:
 320              	.LBE14:
 321              		.cfi_endproc
 322              	.LFE264:
 323              		.size	vMBMasterErrorCBReceiveData, .-vMBMasterErrorCBReceiveData
 324 0018 AFF30080 		.section	.text.vMBMasterErrorCBExecuteFunction,"ax",%progbits
 324      AFF30080 
 325              		.align	2
 326              		.p2align 4,,15
 327              		.global	vMBMasterErrorCBExecuteFunction
 328              		.thumb
 329              		.thumb_func
 330              		.type	vMBMasterErrorCBExecuteFunction, %function
 331              	vMBMasterErrorCBExecuteFunction:
 332              	.LFB265:
 333              		.loc 1 162 0
 334              		.cfi_startproc
 335              		@ args = 0, pretend = 0, frame = 0
 336              		@ frame_needed = 0, uses_anonymous_args = 0
 337              		@ link register save eliminated.
 338              	.LVL17:
ARM GAS  C:\Users\jo\AppData\Local\Temp\ccBf8mGB.s 			page 7


 339              	.LBB16:
 340              	.LBB17:
 341              		.loc 1 46 0
 342 0000 0349     		ldr	r1, .L32
 343              	.LVL18:
 344              		.loc 1 47 0
 345 0002 044B     		ldr	r3, .L32+4
 346              		.loc 1 46 0
 347 0004 0120     		movs	r0, #1
 348              	.LVL19:
 349              		.loc 1 47 0
 350 0006 0022     		movs	r2, #0
 351              	.LVL20:
 352              		.loc 1 46 0
 353 0008 0870     		strb	r0, [r1]
 354              		.loc 1 47 0
 355 000a 1A70     		strb	r2, [r3]
 356 000c 7047     		bx	lr
 357              	.L33:
 358 000e 00BF     		.align	2
 359              	.L32:
 360 0010 00000000 		.word	.LANCHOR0
 361 0014 00000000 		.word	.LANCHOR1
 362              	.LBE17:
 363              	.LBE16:
 364              		.cfi_endproc
 365              	.LFE265:
 366              		.size	vMBMasterErrorCBExecuteFunction, .-vMBMasterErrorCBExecuteFunction
 367 0018 AFF30080 		.section	.text.vMBMasterCBRequestScuuess,"ax",%progbits
 367      AFF30080 
 368              		.align	2
 369              		.p2align 4,,15
 370              		.global	vMBMasterCBRequestScuuess
 371              		.thumb
 372              		.thumb_func
 373              		.type	vMBMasterCBRequestScuuess, %function
 374              	vMBMasterCBRequestScuuess:
 375              	.LFB266:
 376              		.loc 1 180 0
 377              		.cfi_startproc
 378              		@ args = 0, pretend = 0, frame = 0
 379              		@ frame_needed = 0, uses_anonymous_args = 0
 380              		@ link register save eliminated.
 381              	.LVL21:
 382              	.LBB18:
 383              	.LBB19:
 384              		.loc 1 46 0
 385 0000 0349     		ldr	r1, .L35
 386              		.loc 1 47 0
 387 0002 044B     		ldr	r3, .L35+4
 388              		.loc 1 46 0
 389 0004 0120     		movs	r0, #1
 390              		.loc 1 47 0
 391 0006 2022     		movs	r2, #32
 392              		.loc 1 46 0
 393 0008 0870     		strb	r0, [r1]
 394              		.loc 1 47 0
ARM GAS  C:\Users\jo\AppData\Local\Temp\ccBf8mGB.s 			page 8


 395 000a 1A70     		strb	r2, [r3]
 396 000c 7047     		bx	lr
 397              	.L36:
 398 000e 00BF     		.align	2
 399              	.L35:
 400 0010 00000000 		.word	.LANCHOR0
 401 0014 00000000 		.word	.LANCHOR1
 402              	.LBE19:
 403              	.LBE18:
 404              		.cfi_endproc
 405              	.LFE266:
 406              		.size	vMBMasterCBRequestScuuess, .-vMBMasterCBRequestScuuess
 407 0018 AFF30080 		.section	.text.eMBMasterWaitRequestFinish,"ax",%progbits
 407      AFF30080 
 408              		.align	2
 409              		.p2align 4,,15
 410              		.global	eMBMasterWaitRequestFinish
 411              		.thumb
 412              		.thumb_func
 413              		.type	eMBMasterWaitRequestFinish, %function
 414              	eMBMasterWaitRequestFinish:
 415              	.LFB267:
 416              		.loc 1 201 0
 417              		.cfi_startproc
 418              		@ args = 0, pretend = 0, frame = 0
 419              		@ frame_needed = 0, uses_anonymous_args = 0
 420              		@ link register save eliminated.
 421              	.LVL22:
 422              	.LBB20:
 423              	.LBB21:
 424              		.loc 1 56 0
 425 0000 074A     		ldr	r2, .L46
 426 0002 1178     		ldrb	r1, [r2]	@ zero_extendqisi2
 427 0004 19B1     		cbz	r1, .L38
 428              		.loc 1 58 0
 429 0006 074B     		ldr	r3, .L46+4
 430              		.loc 1 59 0
 431 0008 0021     		movs	r1, #0
 432              		.loc 1 58 0
 433 000a 1B78     		ldrb	r3, [r3]	@ zero_extendqisi2
 434              	.LVL23:
 435              		.loc 1 59 0
 436 000c 1170     		strb	r1, [r2]
 437              	.LVL24:
 438              	.L38:
 439              	.LBE21:
 440              	.LBE20:
 441              		.loc 1 207 0
 442 000e 402B     		cmp	r3, #64
 443 0010 04D0     		beq	.L40
 444              		.loc 1 202 0
 445 0012 802B     		cmp	r3, #128
 446 0014 0CBF     		ite	eq
 447 0016 0320     		moveq	r0, #3
 448 0018 0020     		movne	r0, #0
 449 001a 7047     		bx	lr
 450              	.L40:
ARM GAS  C:\Users\jo\AppData\Local\Temp\ccBf8mGB.s 			page 9


 451              		.loc 1 213 0
 452 001c 0420     		movs	r0, #4
 453              	.LVL25:
 454              		.loc 1 228 0
 455 001e 7047     		bx	lr
 456              	.L47:
 457              		.align	2
 458              	.L46:
 459 0020 00000000 		.word	.LANCHOR0
 460 0024 00000000 		.word	.LANCHOR1
 461              		.cfi_endproc
 462              	.LFE267:
 463              		.size	eMBMasterWaitRequestFinish, .-eMBMasterWaitRequestFinish
 464 0028 AFF30080 		.section	.bss.xEventInQueue,"aw",%nobits
 464      AFF30080 
 465              		.set	.LANCHOR0,. + 0
 466              		.type	xEventInQueue, %object
 467              		.size	xEventInQueue, 1
 468              	xEventInQueue:
 469 0000 00       		.space	1
 470              		.section	.bss.xtNeedPoll,"aw",%nobits
 471              		.set	.LANCHOR2,. + 0
 472              		.type	xtNeedPoll, %object
 473              		.size	xtNeedPoll, 1
 474              	xtNeedPoll:
 475 0000 00       		.space	1
 476              		.section	.bss.eQueuedEvent,"aw",%nobits
 477              		.set	.LANCHOR1,. + 0
 478              		.type	eQueuedEvent, %object
 479              		.size	eQueuedEvent, 1
 480              	eQueuedEvent:
 481 0000 00       		.space	1
 482              		.text
 483              	.Letext0:
 484              		.file 2 "c:\\program files\\gnu tools arm embedded\\4.9 2014q4\\lib\\gcc\\arm-none-eabi\\4.9.3\\in
 485              		.file 3 "c:\\program files\\gnu tools arm embedded\\4.9 2014q4\\arm-none-eabi\\include\\machine\\_
 486              		.file 4 "c:\\program files\\gnu tools arm embedded\\4.9 2014q4\\arm-none-eabi\\include\\stdint.h"
 487              		.file 5 "../../../os/rt/ports/ARMCMx/compilers/GCC/chtypes.h"
 488              		.file 6 "../../../os/rt/include/chsystypes.h"
 489              		.file 7 "../../../os/rt/include/chschd.h"
 490              		.file 8 "../../../os/rt/ports/ARMCMx/chcore.h"
 491              		.file 9 "../../../os/rt/ports/ARMCMx/chcore_v7m.h"
 492              		.file 10 "../../../os/rt/include/chtm.h"
 493              		.file 11 "../../../os/rt/include/chmtx.h"
 494              		.file 12 "FreeModbus/port/port.h"
 495              		.file 13 "FreeModbus/modbus/include/mbport.h"
 496              		.file 14 "FreeModbus/modbus/include/mb_m.h"
 497              		.file 15 "../../../os/ext/CMSIS/include/core_cm4.h"