ARM GAS  C:\Users\jo\AppData\Local\Temp\ccEaxovC.s 			page 1


   1              		.syntax unified
   2              		.cpu cortex-m4
   3              		.eabi_attribute 27, 3
   4              		.eabi_attribute 28, 1
   5              		.fpu fpv4-sp-d16
   6              		.eabi_attribute 20, 1
   7              		.eabi_attribute 21, 1
   8              		.eabi_attribute 23, 3
   9              		.eabi_attribute 24, 1
  10              		.eabi_attribute 25, 1
  11              		.eabi_attribute 26, 1
  12              		.eabi_attribute 30, 2
  13              		.eabi_attribute 34, 1
  14              		.eabi_attribute 18, 4
  15              		.thumb
  16              		.file	"raw.c"
  17              		.text
  18              	.Ltext0:
  19              		.cfi_sections	.debug_frame
  20              		.section	.text.chprintf.constprop.0,"ax",%progbits
  21              		.align	2
  22              		.p2align 4,,15
  23              		.thumb
  24              		.thumb_func
  25              		.type	chprintf.constprop.0, %function
  26              	chprintf.constprop.0:
  27              	.LFB264:
  28              		.file 1 "../../../os/hal/lib/streams/chprintf.h"
  29              		.loc 1 69 0
  30              		.cfi_startproc
  31              		@ args = 4, pretend = 12, frame = 8
  32              		@ frame_needed = 0, uses_anonymous_args = 1
  33              	.LVL0:
  34 0000 0EB4     		push	{r1, r2, r3}
  35              		.cfi_def_cfa_offset 12
  36              		.cfi_offset 1, -12
  37              		.cfi_offset 2, -8
  38              		.cfi_offset 3, -4
  39 0002 00B5     		push	{lr}
  40              		.cfi_def_cfa_offset 16
  41              		.cfi_offset 14, -16
  42 0004 82B0     		sub	sp, sp, #8
  43              		.cfi_def_cfa_offset 24
  44              		.loc 1 73 0
  45 0006 04AB     		add	r3, sp, #16
  46              		.loc 1 74 0
  47 0008 1A46     		mov	r2, r3
  48 000a 0549     		ldr	r1, .L3
  49 000c 0548     		ldr	r0, .L3+4
  50              	.LVL1:
  51              		.loc 1 73 0
  52 000e 0193     		str	r3, [sp, #4]
  53              		.loc 1 74 0
  54 0010 FFF7FEFF 		bl	chvprintf
  55              	.LVL2:
  56              		.loc 1 78 0
  57 0014 02B0     		add	sp, sp, #8
ARM GAS  C:\Users\jo\AppData\Local\Temp\ccEaxovC.s 			page 2


  58              		.cfi_def_cfa_offset 16
  59              		@ sp needed
  60 0016 5DF804EB 		ldr	lr, [sp], #4
  61              		.cfi_restore 14
  62              		.cfi_def_cfa_offset 12
  63 001a 03B0     		add	sp, sp, #12
  64              		.cfi_restore 3
  65              		.cfi_restore 2
  66              		.cfi_restore 1
  67              		.cfi_def_cfa_offset 0
  68 001c 7047     		bx	lr
  69              	.L4:
  70 001e 00BF     		.align	2
  71              	.L3:
  72 0020 00000000 		.word	.LC0
  73 0024 00000000 		.word	itm_port
  74              		.cfi_endproc
  75              	.LFE264:
  76              		.size	chprintf.constprop.0, .-chprintf.constprop.0
  77 0028 AFF30080 		.section	.text.raw_input,"ax",%progbits
  77      AFF30080 
  78              		.align	2
  79              		.p2align 4,,15
  80              		.global	raw_input
  81              		.thumb
  82              		.thumb_func
  83              		.type	raw_input, %function
  84              	raw_input:
  85              	.LFB256:
  86              		.file 2 "../../../os/ext/lwip-1.4.1/src/core/raw.c"
  87              		.loc 2 77 0
  88              		.cfi_startproc
  89              		@ args = 0, pretend = 0, frame = 0
  90              		@ frame_needed = 0, uses_anonymous_args = 0
  91              	.LVL3:
  92 0000 2DE9F047 		push	{r4, r5, r6, r7, r8, r9, r10, lr}
  93              		.cfi_def_cfa_offset 32
  94              		.cfi_offset 4, -32
  95              		.cfi_offset 5, -28
  96              		.cfi_offset 6, -24
  97              		.cfi_offset 7, -20
  98              		.cfi_offset 8, -16
  99              		.cfi_offset 9, -12
 100              		.cfi_offset 10, -8
 101              		.cfi_offset 14, -4
 102              		.loc 2 89 0
 103 0004 DFF86880 		ldr	r8, .L29+4
 104              		.loc 2 86 0
 105 0008 4368     		ldr	r3, [r0, #4]
 106              		.loc 2 89 0
 107 000a D8F80040 		ldr	r4, [r8]
 108              		.loc 2 86 0
 109 000e 5E7A     		ldrb	r6, [r3, #9]	@ zero_extendqisi2
 110              	.LVL4:
 111              		.loc 2 92 0
 112 0010 44B3     		cbz	r4, .L12
 113 0012 8246     		mov	r10, r0
ARM GAS  C:\Users\jo\AppData\Local\Temp\ccEaxovC.s 			page 3


 114 0014 0025     		movs	r5, #0
 115              		.loc 2 95 0
 116 0016 DFF85C90 		ldr	r9, .L29+8
 117 001a 03E0     		b	.L11
 118              	.LVL5:
 119              	.L8:
 120              		.loc 2 122 0
 121 001c E368     		ldr	r3, [r4, #12]
 122              	.LVL6:
 123 001e 2546     		mov	r5, r4
 124              		.loc 2 92 0
 125 0020 03B3     		cbz	r3, .L12
 126 0022 1C46     		mov	r4, r3
 127              	.LVL7:
 128              	.L11:
 129              		.loc 2 93 0
 130 0024 237C     		ldrb	r3, [r4, #16]	@ zero_extendqisi2
 131 0026 B342     		cmp	r3, r6
 132 0028 F8D1     		bne	.L8
 133              		.loc 2 94 0 discriminator 1
 134 002a 2068     		ldr	r0, [r4]
 135              		.loc 2 104 0 discriminator 1
 136 002c 0F4B     		ldr	r3, .L29
 137 002e 2146     		mov	r1, r4
 138 0030 5246     		mov	r2, r10
 139              		.loc 2 94 0 discriminator 1
 140 0032 18B1     		cbz	r0, .L9
 141 0034 D9F80070 		ldr	r7, [r9]
 142 0038 B842     		cmp	r0, r7
 143 003a EFD1     		bne	.L8
 144              	.L9:
 145              		.loc 2 102 0
 146 003c D4F814C0 		ldr	ip, [r4, #20]
 147 0040 BCF1000F 		cmp	ip, #0
 148 0044 EAD0     		beq	.L8
 149              		.loc 2 104 0
 150 0046 A069     		ldr	r0, [r4, #24]
 151 0048 E047     		blx	ip
 152              	.LVL8:
 153 004a 0028     		cmp	r0, #0
 154 004c E6D0     		beq	.L8
 155              	.LVL9:
 156              		.loc 2 108 0
 157 004e 35B1     		cbz	r5, .L10
 158              		.loc 2 111 0
 159 0050 E268     		ldr	r2, [r4, #12]
 160              		.loc 2 112 0
 161 0052 D8F80030 		ldr	r3, [r8]
 162              		.loc 2 111 0
 163 0056 EA60     		str	r2, [r5, #12]
 164              		.loc 2 113 0
 165 0058 C8F80040 		str	r4, [r8]
 166              		.loc 2 112 0
 167 005c E360     		str	r3, [r4, #12]
 168              	.L10:
 169              	.LVL10:
 170 005e 0120     		movs	r0, #1
ARM GAS  C:\Users\jo\AppData\Local\Temp\ccEaxovC.s 			page 4


 171              		.loc 2 125 0
 172 0060 BDE8F087 		pop	{r4, r5, r6, r7, r8, r9, r10, pc}
 173              	.LVL11:
 174              	.L12:
 175 0064 0020     		movs	r0, #0
 176 0066 BDE8F087 		pop	{r4, r5, r6, r7, r8, r9, r10, pc}
 177              	.LVL12:
 178              	.L30:
 179 006a 00BF     		.align	2
 180              	.L29:
 181 006c 00000000 		.word	current_iphdr_src
 182 0070 00000000 		.word	.LANCHOR0
 183 0074 00000000 		.word	current_iphdr_dest
 184              		.cfi_endproc
 185              	.LFE256:
 186              		.size	raw_input, .-raw_input
 187 0078 AFF30080 		.section	.text.raw_bind,"ax",%progbits
 187      AFF30080 
 188              		.align	2
 189              		.p2align 4,,15
 190              		.global	raw_bind
 191              		.thumb
 192              		.thumb_func
 193              		.type	raw_bind, %function
 194              	raw_bind:
 195              	.LFB257:
 196              		.loc 2 143 0
 197              		.cfi_startproc
 198              		@ args = 0, pretend = 0, frame = 0
 199              		@ frame_needed = 0, uses_anonymous_args = 0
 200              		@ link register save eliminated.
 201              	.LVL13:
 202              		.loc 2 144 0
 203 0000 01B1     		cbz	r1, .L32
 204              		.loc 2 144 0 is_stmt 0 discriminator 1
 205 0002 0968     		ldr	r1, [r1]
 206              	.LVL14:
 207              	.L32:
 208              		.loc 2 144 0 discriminator 4
 209 0004 0160     		str	r1, [r0]
 210              		.loc 2 146 0 is_stmt 1 discriminator 4
 211 0006 0020     		movs	r0, #0
 212              	.LVL15:
 213 0008 7047     		bx	lr
 214              		.cfi_endproc
 215              	.LFE257:
 216              		.size	raw_bind, .-raw_bind
 217 000a 00BFAFF3 		.section	.text.raw_connect,"ax",%progbits
 217      0080
 218              		.align	2
 219              		.p2align 4,,15
 220              		.global	raw_connect
 221              		.thumb
 222              		.thumb_func
 223              		.type	raw_connect, %function
 224              	raw_connect:
 225              	.LFB258:
ARM GAS  C:\Users\jo\AppData\Local\Temp\ccEaxovC.s 			page 5


 226              		.loc 2 163 0
 227              		.cfi_startproc
 228              		@ args = 0, pretend = 0, frame = 0
 229              		@ frame_needed = 0, uses_anonymous_args = 0
 230              		@ link register save eliminated.
 231              	.LVL16:
 232              		.loc 2 164 0
 233 0000 01B1     		cbz	r1, .L35
 234              		.loc 2 164 0 is_stmt 0 discriminator 1
 235 0002 0968     		ldr	r1, [r1]
 236              	.LVL17:
 237              	.L35:
 238              		.loc 2 164 0 discriminator 4
 239 0004 4160     		str	r1, [r0, #4]
 240              		.loc 2 166 0 is_stmt 1 discriminator 4
 241 0006 0020     		movs	r0, #0
 242              	.LVL18:
 243 0008 7047     		bx	lr
 244              		.cfi_endproc
 245              	.LFE258:
 246              		.size	raw_connect, .-raw_connect
 247 000a 00BFAFF3 		.section	.text.raw_recv,"ax",%progbits
 247      0080
 248              		.align	2
 249              		.p2align 4,,15
 250              		.global	raw_recv
 251              		.thumb
 252              		.thumb_func
 253              		.type	raw_recv, %function
 254              	raw_recv:
 255              	.LFB259:
 256              		.loc 2 184 0
 257              		.cfi_startproc
 258              		@ args = 0, pretend = 0, frame = 0
 259              		@ frame_needed = 0, uses_anonymous_args = 0
 260              		@ link register save eliminated.
 261              	.LVL19:
 262              		.loc 2 186 0
 263 0000 4161     		str	r1, [r0, #20]
 264              		.loc 2 187 0
 265 0002 8261     		str	r2, [r0, #24]
 266 0004 7047     		bx	lr
 267              		.cfi_endproc
 268              	.LFE259:
 269              		.size	raw_recv, .-raw_recv
 270              		.section	.text.raw_sendto,"ax",%progbits
 271              		.align	2
 272              		.p2align 4,,15
 273              		.global	raw_sendto
 274              		.thumb
 275              		.thumb_func
 276              		.type	raw_sendto, %function
 277              	raw_sendto:
 278              	.LFB260:
 279              		.loc 2 204 0
 280              		.cfi_startproc
 281              		@ args = 0, pretend = 0, frame = 0
ARM GAS  C:\Users\jo\AppData\Local\Temp\ccEaxovC.s 			page 6


 282              		@ frame_needed = 0, uses_anonymous_args = 0
 283              	.LVL20:
 284 0000 F0B5     		push	{r4, r5, r6, r7, lr}
 285              		.cfi_def_cfa_offset 20
 286              		.cfi_offset 4, -20
 287              		.cfi_offset 5, -16
 288              		.cfi_offset 6, -12
 289              		.cfi_offset 7, -8
 290              		.cfi_offset 14, -4
 291 0002 0D46     		mov	r5, r1
 292 0004 85B0     		sub	sp, sp, #20
 293              		.cfi_def_cfa_offset 40
 294              		.loc 2 204 0
 295 0006 0446     		mov	r4, r0
 296              		.loc 2 213 0
 297 0008 1421     		movs	r1, #20
 298              	.LVL21:
 299 000a 2846     		mov	r0, r5
 300              	.LVL22:
 301              		.loc 2 204 0
 302 000c 1746     		mov	r7, r2
 303              		.loc 2 213 0
 304 000e FFF7FEFF 		bl	pbuf_header
 305              	.LVL23:
 306 0012 40B3     		cbz	r0, .L39
 307              		.loc 2 215 0
 308 0014 0021     		movs	r1, #0
 309 0016 0A46     		mov	r2, r1
 310 0018 0120     		movs	r0, #1
 311 001a FFF7FEFF 		bl	pbuf_alloc
 312              	.LVL24:
 313              		.loc 2 217 0
 314 001e 0646     		mov	r6, r0
 315 0020 0028     		cmp	r0, #0
 316 0022 46D0     		beq	.L48
 317              		.loc 2 221 0
 318 0024 2B89     		ldrh	r3, [r5, #8]
 319 0026 9BBB     		cbnz	r3, .L62
 320              	.LVL25:
 321              	.L41:
 322              		.loc 2 236 0
 323 0028 3846     		mov	r0, r7
 324 002a FFF7FEFF 		bl	ip_route
 325              	.LVL26:
 326 002e 30B3     		cbz	r0, .L63
 327              	.L43:
 328              		.loc 2 258 0
 329 0030 2146     		mov	r1, r4
 330 0032 0CB1     		cbz	r4, .L45
 331              	.LVL27:
 332              		.loc 2 258 0 is_stmt 0 discriminator 1
 333 0034 2368     		ldr	r3, [r4]
 334 0036 03B9     		cbnz	r3, .L46
 335              	.L45:
 336              		.loc 2 260 0 is_stmt 1
 337 0038 011D     		adds	r1, r0, #4
 338              	.LVL28:
ARM GAS  C:\Users\jo\AppData\Local\Temp\ccEaxovC.s 			page 7


 339              	.L46:
 340              		.loc 2 267 0
 341 003a A37A     		ldrb	r3, [r4, #10]	@ zero_extendqisi2
 342 003c 94F809E0 		ldrb	lr, [r4, #9]	@ zero_extendqisi2
 343 0040 247C     		ldrb	r4, [r4, #16]	@ zero_extendqisi2
 344              	.LVL29:
 345 0042 0194     		str	r4, [sp, #4]
 346 0044 0290     		str	r0, [sp, #8]
 347 0046 3A46     		mov	r2, r7
 348 0048 CDF800E0 		str	lr, [sp]
 349 004c 3046     		mov	r0, r6
 350              	.LVL30:
 351 004e FFF7FEFF 		bl	ip_output_if
 352              	.LVL31:
 353              		.loc 2 271 0
 354 0052 AE42     		cmp	r6, r5
 355              		.loc 2 267 0
 356 0054 0446     		mov	r4, r0
 357              	.LVL32:
 358              		.loc 2 271 0
 359 0056 03D0     		beq	.L40
 360              		.loc 2 273 0
 361 0058 3046     		mov	r0, r6
 362              	.LVL33:
 363 005a FFF7FEFF 		bl	pbuf_free
 364              	.LVL34:
 365              		.loc 2 275 0
 366 005e 2046     		mov	r0, r4
 367              	.LVL35:
 368              	.L40:
 369 0060 40B2     		sxtb	r0, r0
 370              		.loc 2 276 0
 371 0062 05B0     		add	sp, sp, #20
 372              		.cfi_remember_state
 373              		.cfi_def_cfa_offset 20
 374              		@ sp needed
 375 0064 F0BD     		pop	{r4, r5, r6, r7, pc}
 376              	.LVL36:
 377              	.L39:
 378              		.cfi_restore_state
 379              		.loc 2 230 0
 380 0066 2846     		mov	r0, r5
 381 0068 6FF01301 		mvn	r1, #19
 382 006c FFF7FEFF 		bl	pbuf_header
 383              	.LVL37:
 384 0070 90B9     		cbnz	r0, .L64
 385              		.loc 2 236 0
 386 0072 3846     		mov	r0, r7
 387 0074 FFF7FEFF 		bl	ip_route
 388              	.LVL38:
 389 0078 30B1     		cbz	r0, .L61
 390 007a 2E46     		mov	r6, r5
 391 007c D8E7     		b	.L43
 392              	.LVL39:
 393              	.L63:
 394              		.loc 2 240 0
 395 007e B542     		cmp	r5, r6
ARM GAS  C:\Users\jo\AppData\Local\Temp\ccEaxovC.s 			page 8


 396 0080 02D0     		beq	.L61
 397              		.loc 2 241 0
 398 0082 3046     		mov	r0, r6
 399              	.LVL40:
 400 0084 FFF7FEFF 		bl	pbuf_free
 401              	.LVL41:
 402              	.L61:
 403              		.loc 2 243 0
 404 0088 FC20     		movs	r0, #252
 405 008a 40B2     		sxtb	r0, r0
 406              		.loc 2 276 0
 407 008c 05B0     		add	sp, sp, #20
 408              		.cfi_remember_state
 409              		.cfi_def_cfa_offset 20
 410              		@ sp needed
 411 008e F0BD     		pop	{r4, r5, r6, r7, pc}
 412              	.LVL42:
 413              	.L62:
 414              		.cfi_restore_state
 415              		.loc 2 223 0
 416 0090 2946     		mov	r1, r5
 417 0092 FFF7FEFF 		bl	pbuf_chain
 418              	.LVL43:
 419 0096 C7E7     		b	.L41
 420              	.LVL44:
 421              	.L64:
 422              		.loc 2 231 0 discriminator 1
 423 0098 074B     		ldr	r3, .L65
 424 009a 0093     		str	r3, [sp]
 425 009c 0749     		ldr	r1, .L65+4
 426 009e 084A     		ldr	r2, .L65+8
 427 00a0 0848     		ldr	r0, .L65+12
 428 00a2 E723     		movs	r3, #231
 429 00a4 FFF7FEFF 		bl	chprintf.constprop.0
 430              	.LVL45:
 431              	.LBB4:
 432              	.LBB5:
 433              		.file 3 "../../../os/hal/osal/rt/osal.h"
 434              		.loc 3 414 0 discriminator 1
 435 00a8 0548     		ldr	r0, .L65+8
 436 00aa FFF7FEFF 		bl	chSysHalt
 437              	.LVL46:
 438              	.LBE5:
 439              	.LBE4:
 440              		.loc 2 232 0 discriminator 1
 441 00ae FF20     		movs	r0, #255
 442 00b0 D6E7     		b	.L40
 443              	.LVL47:
 444              	.L48:
 445              		.loc 2 219 0
 446 00b2 FF20     		movs	r0, #255
 447              	.LVL48:
 448 00b4 D4E7     		b	.L40
 449              	.L66:
 450 00b6 00BF     		.align	2
 451              	.L65:
 452 00b8 50000000 		.word	.LC2
ARM GAS  C:\Users\jo\AppData\Local\Temp\ccEaxovC.s 			page 9


 453 00bc 00000000 		.word	.LC0
 454 00c0 28000000 		.word	.LC1
 455 00c4 00000000 		.word	itm_port
 456              		.cfi_endproc
 457              	.LFE260:
 458              		.size	raw_sendto, .-raw_sendto
 459 00c8 AFF30080 		.section	.text.raw_send,"ax",%progbits
 459      AFF30080 
 460              		.align	2
 461              		.p2align 4,,15
 462              		.global	raw_send
 463              		.thumb
 464              		.thumb_func
 465              		.type	raw_send, %function
 466              	raw_send:
 467              	.LFB261:
 468              		.loc 2 287 0
 469              		.cfi_startproc
 470              		@ args = 0, pretend = 0, frame = 0
 471              		@ frame_needed = 0, uses_anonymous_args = 0
 472              		@ link register save eliminated.
 473              	.LVL49:
 474              		.loc 2 288 0
 475 0000 021D     		adds	r2, r0, #4
 476 0002 FFF7FEBF 		b	raw_sendto
 477              	.LVL50:
 478              		.cfi_endproc
 479              	.LFE261:
 480              		.size	raw_send, .-raw_send
 481 0006 00BFAFF3 		.section	.text.raw_remove,"ax",%progbits
 481      0080AFF3 
 481      0080
 482              		.align	2
 483              		.p2align 4,,15
 484              		.global	raw_remove
 485              		.thumb
 486              		.thumb_func
 487              		.type	raw_remove, %function
 488              	raw_remove:
 489              	.LFB262:
 490              		.loc 2 301 0
 491              		.cfi_startproc
 492              		@ args = 0, pretend = 0, frame = 0
 493              		@ frame_needed = 0, uses_anonymous_args = 0
 494              		@ link register save eliminated.
 495              	.LVL51:
 496              		.loc 2 304 0
 497 0000 0D4B     		ldr	r3, .L84
 498 0002 1A68     		ldr	r2, [r3]
 499 0004 8242     		cmp	r2, r0
 500              		.loc 2 301 0
 501 0006 0146     		mov	r1, r0
 502              		.loc 2 304 0
 503 0008 11D0     		beq	.L69
 504              	.LVL52:
 505              		.loc 2 309 0 discriminator 1
 506 000a 3AB1     		cbz	r2, .L72
ARM GAS  C:\Users\jo\AppData\Local\Temp\ccEaxovC.s 			page 10


 507              		.loc 2 311 0
 508 000c D368     		ldr	r3, [r2, #12]
 509 000e 2BB1     		cbz	r3, .L72
 510              	.L82:
 511              		.loc 2 311 0 is_stmt 0 discriminator 1
 512 0010 9942     		cmp	r1, r3
 513 0012 06D0     		beq	.L81
 514              		.loc 2 301 0 is_stmt 1
 515 0014 1A46     		mov	r2, r3
 516              	.LVL53:
 517              	.L83:
 518              		.loc 2 311 0
 519 0016 D368     		ldr	r3, [r2, #12]
 520 0018 002B     		cmp	r3, #0
 521 001a F9D1     		bne	.L82
 522              	.LVL54:
 523              	.L72:
 524              		.loc 2 317 0
 525 001c 0020     		movs	r0, #0
 526              	.LVL55:
 527 001e FFF7FEBF 		b	memp_free
 528              	.LVL56:
 529              	.L81:
 530              		.loc 2 313 0
 531 0022 CB68     		ldr	r3, [r1, #12]
 532 0024 D360     		str	r3, [r2, #12]
 533              	.LVL57:
 534              		.loc 2 309 0
 535 0026 002B     		cmp	r3, #0
 536 0028 F8D0     		beq	.L72
 537              		.loc 2 301 0
 538 002a 1A46     		mov	r2, r3
 539 002c F3E7     		b	.L83
 540              	.LVL58:
 541              	.L69:
 542              		.loc 2 306 0
 543 002e C268     		ldr	r2, [r0, #12]
 544 0030 1A60     		str	r2, [r3]
 545              		.loc 2 317 0
 546 0032 0020     		movs	r0, #0
 547              	.LVL59:
 548 0034 FFF7FEBF 		b	memp_free
 549              	.LVL60:
 550              	.L85:
 551              		.align	2
 552              	.L84:
 553 0038 00000000 		.word	.LANCHOR0
 554              		.cfi_endproc
 555              	.LFE262:
 556              		.size	raw_remove, .-raw_remove
 557 003c AFF30080 		.section	.text.raw_new,"ax",%progbits
 558              		.align	2
 559              		.p2align 4,,15
 560              		.global	raw_new
 561              		.thumb
 562              		.thumb_func
 563              		.type	raw_new, %function
ARM GAS  C:\Users\jo\AppData\Local\Temp\ccEaxovC.s 			page 11


 564              	raw_new:
 565              	.LFB263:
 566              		.loc 2 332 0
 567              		.cfi_startproc
 568              		@ args = 0, pretend = 0, frame = 0
 569              		@ frame_needed = 0, uses_anonymous_args = 0
 570              	.LVL61:
 571 0000 38B5     		push	{r3, r4, r5, lr}
 572              		.cfi_def_cfa_offset 16
 573              		.cfi_offset 3, -16
 574              		.cfi_offset 4, -12
 575              		.cfi_offset 5, -8
 576              		.cfi_offset 14, -4
 577              		.loc 2 332 0
 578 0002 0546     		mov	r5, r0
 579              		.loc 2 337 0
 580 0004 0020     		movs	r0, #0
 581              	.LVL62:
 582 0006 FFF7FEFF 		bl	memp_malloc
 583              	.LVL63:
 584              		.loc 2 339 0
 585 000a 0446     		mov	r4, r0
 586 000c 50B1     		cbz	r0, .L87
 587              		.loc 2 341 0
 588 000e 1C22     		movs	r2, #28
 589 0010 0021     		movs	r1, #0
 590 0012 FFF7FEFF 		bl	memset
 591              	.LVL64:
 592              		.loc 2 344 0
 593 0016 044B     		ldr	r3, .L92
 594              		.loc 2 342 0
 595 0018 2574     		strb	r5, [r4, #16]
 596              		.loc 2 344 0
 597 001a 1A68     		ldr	r2, [r3]
 598 001c E260     		str	r2, [r4, #12]
 599              		.loc 2 343 0
 600 001e FF22     		movs	r2, #255
 601              		.loc 2 345 0
 602 0020 1C60     		str	r4, [r3]
 603              		.loc 2 343 0
 604 0022 A272     		strb	r2, [r4, #10]
 605              	.L87:
 606              		.loc 2 348 0
 607 0024 2046     		mov	r0, r4
 608 0026 38BD     		pop	{r3, r4, r5, pc}
 609              	.LVL65:
 610              	.L93:
 611              		.align	2
 612              	.L92:
 613 0028 00000000 		.word	.LANCHOR0
 614              		.cfi_endproc
 615              	.LFE263:
 616              		.size	raw_new, .-raw_new
 617 002c AFF30080 		.section	.rodata.str1.4,"aMS",%progbits,1
 618              		.align	2
 619              	.LC0:
 620 0000 41737365 		.ascii	"Assertion \"%s\" failed at line %d in %s\012\000"
ARM GAS  C:\Users\jo\AppData\Local\Temp\ccEaxovC.s 			page 12


 620      7274696F 
 620      6E202225 
 620      73222066 
 620      61696C65 
 621              	.LC1:
 622 0028 43616E27 		.ascii	"Can't restore header we just removed!\000"
 622      74207265 
 622      73746F72 
 622      65206865 
 622      61646572 
 623 004e 0000     		.space	2
 624              	.LC2:
 625 0050 2E2E2F2E 		.ascii	"../../../os/ext/lwip-1.4.1/src/core/raw.c\000"
 625      2E2F2E2E 
 625      2F6F732F 
 625      6578742F 
 625      6C776970 
 626 007a 0000     		.section	.bss.raw_pcbs,"aw",%nobits
 627              		.align	2
 628              		.set	.LANCHOR0,. + 0
 629              		.type	raw_pcbs, %object
 630              		.size	raw_pcbs, 4
 631              	raw_pcbs:
 632 0000 00000000 		.space	4
 633              		.text
 634              	.Letext0:
 635              		.file 4 "c:\\program files\\gnu tools arm embedded\\4.9 2014q4\\lib\\gcc\\arm-none-eabi\\4.9.3\\in
 636              		.file 5 "c:\\program files\\gnu tools arm embedded\\4.9 2014q4\\arm-none-eabi\\include\\machine\\_
 637              		.file 6 "c:\\program files\\gnu tools arm embedded\\4.9 2014q4\\arm-none-eabi\\include\\stdint.h"
 638              		.file 7 "../../../os/rt/ports/ARMCMx/compilers/GCC/chtypes.h"
 639              		.file 8 "../../../os/rt/include/chsystypes.h"
 640              		.file 9 "../../../os/rt/include/chschd.h"
 641              		.file 10 "../../../os/rt/ports/ARMCMx/chcore.h"
 642              		.file 11 "../../../os/rt/ports/ARMCMx/chcore_v7m.h"
 643              		.file 12 "c:\\program files\\gnu tools arm embedded\\4.9 2014q4\\lib\\gcc\\arm-none-eabi\\4.9.3\\i
 644              		.file 13 "<built-in>"
 645              		.file 14 "../../../os/rt/include/chtm.h"
 646              		.file 15 "../../../os/rt/include/chmtx.h"
 647              		.file 16 "../../../os/rt/include/chstreams.h"
 648              		.file 17 "./ITM_trace.h"
 649              		.file 18 "../../../os/various/lwip_bindings/arch/cc.h"
 650              		.file 19 "../../../os/ext/lwip-1.4.1/src/include/lwip/memp.h"
 651              		.file 20 "../../../os/ext/lwip-1.4.1/src/include/ipv4/lwip/ip_addr.h"
 652              		.file 21 "../../../os/ext/lwip-1.4.1/src/include/lwip/err.h"
 653              		.file 22 "../../../os/ext/lwip-1.4.1/src/include/lwip/pbuf.h"
 654              		.file 23 "../../../os/ext/lwip-1.4.1/src/include/lwip/netif.h"
 655              		.file 24 "../../../os/ext/lwip-1.4.1/src/include/ipv4/lwip/ip.h"
 656              		.file 25 "../../../os/ext/lwip-1.4.1/src/include/lwip/raw.h"
 657              		.file 26 "../../../os/ext/CMSIS/include/core_cm4.h"
 658              		.file 27 "../../../os/rt/include/chsys.h"