ARM GAS  C:\Users\jo\AppData\Local\Temp\ccuk5psZ.s 			page 1


   1              		.syntax unified
   2              		.cpu cortex-m4
   3              		.eabi_attribute 27, 3
   4              		.eabi_attribute 28, 1
   5              		.fpu fpv4-sp-d16
   6              		.eabi_attribute 20, 1
   7              		.eabi_attribute 21, 1
   8              		.eabi_attribute 23, 3
   9              		.eabi_attribute 24, 1
  10              		.eabi_attribute 25, 1
  11              		.eabi_attribute 26, 1
  12              		.eabi_attribute 30, 2
  13              		.eabi_attribute 34, 1
  14              		.eabi_attribute 18, 4
  15              		.thumb
  16              		.file	"serial.c"
  17              		.text
  18              	.Ltext0:
  19              		.cfi_sections	.debug_frame
  20              		.section	.text.readt,"ax",%progbits
  21              		.align	2
  22              		.p2align 4,,15
  23              		.thumb
  24              		.thumb_func
  25              		.type	readt, %function
  26              	readt:
  27              	.LFB262:
  28              		.file 1 "../../../os/hal/src/serial.c"
  29              		.loc 1 90 0
  30              		.cfi_startproc
  31              		@ args = 0, pretend = 0, frame = 0
  32              		@ frame_needed = 0, uses_anonymous_args = 0
  33              		@ link register save eliminated.
  34              	.LVL0:
  35              		.loc 1 92 0
  36 0000 0C30     		adds	r0, r0, #12
  37              	.LVL1:
  38 0002 FFF7FEBF 		b	chIQReadTimeout
  39              	.LVL2:
  40              		.cfi_endproc
  41              	.LFE262:
  42              		.size	readt, .-readt
  43 0006 00BFAFF3 		.section	.text.read,"ax",%progbits
  43      0080AFF3 
  43      0080
  44              		.align	2
  45              		.p2align 4,,15
  46              		.thumb
  47              		.thumb_func
  48              		.type	read, %function
  49              	read:
  50              	.LFB256:
  51              		.loc 1 59 0
  52              		.cfi_startproc
  53              		@ args = 0, pretend = 0, frame = 0
  54              		@ frame_needed = 0, uses_anonymous_args = 0
  55              		@ link register save eliminated.
ARM GAS  C:\Users\jo\AppData\Local\Temp\ccuk5psZ.s 			page 2


  56              	.LVL3:
  57              		.loc 1 61 0
  58 0000 0C30     		adds	r0, r0, #12
  59              	.LVL4:
  60 0002 4FF0FF33 		mov	r3, #-1
  61 0006 FFF7FEBF 		b	chIQReadTimeout
  62              	.LVL5:
  63              		.cfi_endproc
  64              	.LFE256:
  65              		.size	read, .-read
  66 000a 00BFAFF3 		.section	.text.writet,"ax",%progbits
  66      0080
  67              		.align	2
  68              		.p2align 4,,15
  69              		.thumb
  70              		.thumb_func
  71              		.type	writet, %function
  72              	writet:
  73              	.LFB261:
  74              		.loc 1 85 0
  75              		.cfi_startproc
  76              		@ args = 0, pretend = 0, frame = 0
  77              		@ frame_needed = 0, uses_anonymous_args = 0
  78              		@ link register save eliminated.
  79              	.LVL6:
  80              		.loc 1 87 0
  81 0000 3030     		adds	r0, r0, #48
  82              	.LVL7:
  83 0002 FFF7FEBF 		b	chOQWriteTimeout
  84              	.LVL8:
  85              		.cfi_endproc
  86              	.LFE261:
  87              		.size	writet, .-writet
  88 0006 00BFAFF3 		.section	.text.write,"ax",%progbits
  88      0080AFF3 
  88      0080
  89              		.align	2
  90              		.p2align 4,,15
  91              		.thumb
  92              		.thumb_func
  93              		.type	write, %function
  94              	write:
  95              	.LFB255:
  96              		.loc 1 53 0
  97              		.cfi_startproc
  98              		@ args = 0, pretend = 0, frame = 0
  99              		@ frame_needed = 0, uses_anonymous_args = 0
 100              		@ link register save eliminated.
 101              	.LVL9:
 102              		.loc 1 55 0
 103 0000 3030     		adds	r0, r0, #48
 104              	.LVL10:
 105 0002 4FF0FF33 		mov	r3, #-1
 106 0006 FFF7FEBF 		b	chOQWriteTimeout
 107              	.LVL11:
 108              		.cfi_endproc
 109              	.LFE255:
ARM GAS  C:\Users\jo\AppData\Local\Temp\ccuk5psZ.s 			page 3


 110              		.size	write, .-write
 111 000a 00BFAFF3 		.section	.text.gett,"ax",%progbits
 111      0080
 112              		.align	2
 113              		.p2align 4,,15
 114              		.thumb
 115              		.thumb_func
 116              		.type	gett, %function
 117              	gett:
 118              	.LFB260:
 119              		.loc 1 80 0
 120              		.cfi_startproc
 121              		@ args = 0, pretend = 0, frame = 0
 122              		@ frame_needed = 0, uses_anonymous_args = 0
 123              		@ link register save eliminated.
 124              	.LVL12:
 125              		.loc 1 82 0
 126 0000 0C30     		adds	r0, r0, #12
 127              	.LVL13:
 128 0002 FFF7FEBF 		b	chIQGetTimeout
 129              	.LVL14:
 130              		.cfi_endproc
 131              	.LFE260:
 132              		.size	gett, .-gett
 133 0006 00BFAFF3 		.section	.text.get,"ax",%progbits
 133      0080AFF3 
 133      0080
 134              		.align	2
 135              		.p2align 4,,15
 136              		.thumb
 137              		.thumb_func
 138              		.type	get, %function
 139              	get:
 140              	.LFB258:
 141              		.loc 1 70 0
 142              		.cfi_startproc
 143              		@ args = 0, pretend = 0, frame = 0
 144              		@ frame_needed = 0, uses_anonymous_args = 0
 145              		@ link register save eliminated.
 146              	.LVL15:
 147              		.loc 1 72 0
 148 0000 0C30     		adds	r0, r0, #12
 149              	.LVL16:
 150 0002 4FF0FF31 		mov	r1, #-1
 151 0006 FFF7FEBF 		b	chIQGetTimeout
 152              	.LVL17:
 153              		.cfi_endproc
 154              	.LFE258:
 155              		.size	get, .-get
 156 000a 00BFAFF3 		.section	.text.putt,"ax",%progbits
 156      0080
 157              		.align	2
 158              		.p2align 4,,15
 159              		.thumb
 160              		.thumb_func
 161              		.type	putt, %function
 162              	putt:
ARM GAS  C:\Users\jo\AppData\Local\Temp\ccuk5psZ.s 			page 4


 163              	.LFB259:
 164              		.loc 1 75 0
 165              		.cfi_startproc
 166              		@ args = 0, pretend = 0, frame = 0
 167              		@ frame_needed = 0, uses_anonymous_args = 0
 168              		@ link register save eliminated.
 169              	.LVL18:
 170              		.loc 1 77 0
 171 0000 3030     		adds	r0, r0, #48
 172              	.LVL19:
 173 0002 FFF7FEBF 		b	chOQPutTimeout
 174              	.LVL20:
 175              		.cfi_endproc
 176              	.LFE259:
 177              		.size	putt, .-putt
 178 0006 00BFAFF3 		.section	.text.put,"ax",%progbits
 178      0080AFF3 
 178      0080
 179              		.align	2
 180              		.p2align 4,,15
 181              		.thumb
 182              		.thumb_func
 183              		.type	put, %function
 184              	put:
 185              	.LFB257:
 186              		.loc 1 65 0
 187              		.cfi_startproc
 188              		@ args = 0, pretend = 0, frame = 0
 189              		@ frame_needed = 0, uses_anonymous_args = 0
 190              		@ link register save eliminated.
 191              	.LVL21:
 192              		.loc 1 67 0
 193 0000 3030     		adds	r0, r0, #48
 194              	.LVL22:
 195 0002 4FF0FF32 		mov	r2, #-1
 196 0006 FFF7FEBF 		b	chOQPutTimeout
 197              	.LVL23:
 198              		.cfi_endproc
 199              	.LFE257:
 200              		.size	put, .-put
 201 000a 00BFAFF3 		.section	.text.sdInit,"ax",%progbits
 201      0080
 202              		.align	2
 203              		.p2align 4,,15
 204              		.global	sdInit
 205              		.thumb
 206              		.thumb_func
 207              		.type	sdInit, %function
 208              	sdInit:
 209              	.LFB263:
 210              		.loc 1 111 0
 211              		.cfi_startproc
 212              		@ args = 0, pretend = 0, frame = 0
 213              		@ frame_needed = 0, uses_anonymous_args = 0
 214              		@ link register save eliminated.
 215              		.loc 1 113 0
 216 0000 FFF7FEBF 		b	sd_lld_init
ARM GAS  C:\Users\jo\AppData\Local\Temp\ccuk5psZ.s 			page 5


 217              	.LVL24:
 218              		.cfi_endproc
 219              	.LFE263:
 220              		.size	sdInit, .-sdInit
 221 0004 AFF30080 		.section	.text.sdObjectInit,"ax",%progbits
 221      AFF30080 
 221      AFF30080 
 222              		.align	2
 223              		.p2align 4,,15
 224              		.global	sdObjectInit
 225              		.thumb
 226              		.thumb_func
 227              		.type	sdObjectInit, %function
 228              	sdObjectInit:
 229              	.LFB264:
 230              		.loc 1 131 0
 231              		.cfi_startproc
 232              		@ args = 0, pretend = 0, frame = 0
 233              		@ frame_needed = 0, uses_anonymous_args = 0
 234              	.LVL25:
 235 0000 70B5     		push	{r4, r5, r6, lr}
 236              		.cfi_def_cfa_offset 16
 237              		.cfi_offset 4, -16
 238              		.cfi_offset 5, -12
 239              		.cfi_offset 6, -8
 240              		.cfi_offset 14, -4
 241              		.loc 1 133 0
 242 0002 0E4B     		ldr	r3, .L12
 243              		.loc 1 131 0
 244 0004 0446     		mov	r4, r0
 245 0006 82B0     		sub	sp, sp, #8
 246              		.cfi_def_cfa_offset 24
 247              		.loc 1 133 0
 248 0008 40F8043B 		str	r3, [r0], #4
 249              	.LVL26:
 250              		.loc 1 135 0
 251 000c 0126     		movs	r6, #1
 252              		.loc 1 136 0
 253 000e 0094     		str	r4, [sp]
 254              		.loc 1 131 0
 255 0010 0B46     		mov	r3, r1
 256 0012 1546     		mov	r5, r2
 257              	.LBB66:
 258              	.LBB67:
 259              	.LBB68:
 260              		.file 2 "../../../os/rt/include/chevents.h"
 261              		.loc 2 172 0
 262 0014 6060     		str	r0, [r4, #4]
 263              	.LBE68:
 264              	.LBE67:
 265              	.LBE66:
 266              		.loc 1 136 0
 267 0016 04F15401 		add	r1, r4, #84
 268              	.LVL27:
 269 001a 04F10C00 		add	r0, r4, #12
 270              	.LVL28:
 271              		.loc 1 135 0
ARM GAS  C:\Users\jo\AppData\Local\Temp\ccuk5psZ.s 			page 6


 272 001e 2672     		strb	r6, [r4, #8]
 273              		.loc 1 136 0
 274 0020 1022     		movs	r2, #16
 275              	.LVL29:
 276 0022 FFF7FEFF 		bl	chIQObjectInit
 277              	.LVL30:
 278              		.loc 1 137 0
 279 0026 0094     		str	r4, [sp]
 280 0028 2B46     		mov	r3, r5
 281 002a 04F13000 		add	r0, r4, #48
 282 002e 04F16401 		add	r1, r4, #100
 283 0032 1022     		movs	r2, #16
 284 0034 FFF7FEFF 		bl	chOQObjectInit
 285              	.LVL31:
 286              		.loc 1 138 0
 287 0038 02B0     		add	sp, sp, #8
 288              		.cfi_def_cfa_offset 16
 289              		@ sp needed
 290 003a 70BD     		pop	{r4, r5, r6, pc}
 291              	.LVL32:
 292              	.L13:
 293              		.align	2
 294              	.L12:
 295 003c 00000000 		.word	.LANCHOR0
 296              		.cfi_endproc
 297              	.LFE264:
 298              		.size	sdObjectInit, .-sdObjectInit
 299              		.section	.text.sdStart,"ax",%progbits
 300              		.align	2
 301              		.p2align 4,,15
 302              		.global	sdStart
 303              		.thumb
 304              		.thumb_func
 305              		.type	sdStart, %function
 306              	sdStart:
 307              	.LFB265:
 308              		.loc 1 150 0
 309              		.cfi_startproc
 310              		@ args = 0, pretend = 0, frame = 0
 311              		@ frame_needed = 0, uses_anonymous_args = 0
 312              	.LVL33:
 313 0000 10B5     		push	{r4, lr}
 314              		.cfi_def_cfa_offset 8
 315              		.cfi_offset 4, -8
 316              		.cfi_offset 14, -4
 317              	.LBB69:
 318              	.LBB70:
 319              	.LBB71:
 320              	.LBB72:
 321              	.LBB73:
 322              		.file 3 "../../../os/ext/CMSIS/include/core_cmFunc.h"
 323              		.loc 3 546 0
 324 0002 2023     		movs	r3, #32
 325              	.LBE73:
 326              	.LBE72:
 327              	.LBE71:
 328              	.LBE70:
ARM GAS  C:\Users\jo\AppData\Local\Temp\ccuk5psZ.s 			page 7


 329              	.LBE69:
 330              		.loc 1 150 0
 331 0004 0446     		mov	r4, r0
 332              	.LBB78:
 333              	.LBB77:
 334              	.LBB76:
 335              	.LBB75:
 336              	.LBB74:
 337              		.loc 3 546 0
 338              	@ 546 "../../../os/ext/CMSIS/include/core_cmFunc.h" 1
 339 0006 83F31188 		MSR basepri, r3
 340              	@ 0 "" 2
 341              		.thumb
 342              	.LBE74:
 343              	.LBE75:
 344              	.LBE76:
 345              	.LBE77:
 346              	.LBE78:
 347              		.loc 1 157 0
 348 000a FFF7FEFF 		bl	sd_lld_start
 349              	.LVL34:
 350              		.loc 1 158 0
 351 000e 0223     		movs	r3, #2
 352 0010 2372     		strb	r3, [r4, #8]
 353              	.LVL35:
 354              	.LBB79:
 355              	.LBB80:
 356              	.LBB81:
 357              	.LBB82:
 358              	.LBB83:
 359              	.LBB84:
 360              		.loc 3 546 0
 361 0012 0023     		movs	r3, #0
 362              	@ 546 "../../../os/ext/CMSIS/include/core_cmFunc.h" 1
 363 0014 83F31188 		MSR basepri, r3
 364              	@ 0 "" 2
 365              		.thumb
 366 0018 10BD     		pop	{r4, pc}
 367              	.LBE84:
 368              	.LBE83:
 369              	.LBE82:
 370              	.LBE81:
 371              	.LBE80:
 372              	.LBE79:
 373              		.cfi_endproc
 374              	.LFE265:
 375              		.size	sdStart, .-sdStart
 376              		.section	.text.sdStop,"ax",%progbits
 377              		.align	2
 378              		.p2align 4,,15
 379              		.global	sdStop
 380              		.thumb
 381              		.thumb_func
 382              		.type	sdStop, %function
 383              	sdStop:
 384              	.LFB266:
 385              		.loc 1 171 0
ARM GAS  C:\Users\jo\AppData\Local\Temp\ccuk5psZ.s 			page 8


 386              		.cfi_startproc
 387              		@ args = 0, pretend = 0, frame = 0
 388              		@ frame_needed = 0, uses_anonymous_args = 0
 389              	.LVL36:
 390 0000 10B5     		push	{r4, lr}
 391              		.cfi_def_cfa_offset 8
 392              		.cfi_offset 4, -8
 393              		.cfi_offset 14, -4
 394              	.LBB85:
 395              	.LBB86:
 396              	.LBB87:
 397              	.LBB88:
 398              	.LBB89:
 399              		.loc 3 546 0
 400 0002 2023     		movs	r3, #32
 401              	.LBE89:
 402              	.LBE88:
 403              	.LBE87:
 404              	.LBE86:
 405              	.LBE85:
 406              		.loc 1 171 0
 407 0004 0446     		mov	r4, r0
 408              	.LBB94:
 409              	.LBB93:
 410              	.LBB92:
 411              	.LBB91:
 412              	.LBB90:
 413              		.loc 3 546 0
 414              	@ 546 "../../../os/ext/CMSIS/include/core_cmFunc.h" 1
 415 0006 83F31188 		MSR basepri, r3
 416              	@ 0 "" 2
 417              		.thumb
 418              	.LBE90:
 419              	.LBE91:
 420              	.LBE92:
 421              	.LBE93:
 422              	.LBE94:
 423              		.loc 1 178 0
 424 000a FFF7FEFF 		bl	sd_lld_stop
 425              	.LVL37:
 426              		.loc 1 179 0
 427 000e 0123     		movs	r3, #1
 428 0010 2372     		strb	r3, [r4, #8]
 429              		.loc 1 180 0
 430 0012 04F13000 		add	r0, r4, #48
 431 0016 FFF7FEFF 		bl	chOQResetI
 432              	.LVL38:
 433              		.loc 1 181 0
 434 001a 04F10C00 		add	r0, r4, #12
 435 001e FFF7FEFF 		bl	chIQResetI
 436              	.LVL39:
 437              	.LBB95:
 438              	.LBB96:
 439              		.file 4 "../../../os/hal/osal/rt/osal.h"
 440              		.loc 4 532 0
 441 0022 FFF7FEFF 		bl	chSchRescheduleS
 442              	.LVL40:
ARM GAS  C:\Users\jo\AppData\Local\Temp\ccuk5psZ.s 			page 9


 443              	.LBE96:
 444              	.LBE95:
 445              	.LBB97:
 446              	.LBB98:
 447              	.LBB99:
 448              	.LBB100:
 449              	.LBB101:
 450              	.LBB102:
 451              		.loc 3 546 0
 452 0026 0023     		movs	r3, #0
 453              	@ 546 "../../../os/ext/CMSIS/include/core_cmFunc.h" 1
 454 0028 83F31188 		MSR basepri, r3
 455              	@ 0 "" 2
 456              		.thumb
 457 002c 10BD     		pop	{r4, pc}
 458              	.LBE102:
 459              	.LBE101:
 460              	.LBE100:
 461              	.LBE99:
 462              	.LBE98:
 463              	.LBE97:
 464              		.cfi_endproc
 465              	.LFE266:
 466              		.size	sdStop, .-sdStop
 467 002e 00BF     		.section	.text.sdIncomingDataI,"ax",%progbits
 468              		.align	2
 469              		.p2align 4,,15
 470              		.global	sdIncomingDataI
 471              		.thumb
 472              		.thumb_func
 473              		.type	sdIncomingDataI, %function
 474              	sdIncomingDataI:
 475              	.LFB267:
 476              		.loc 1 202 0
 477              		.cfi_startproc
 478              		@ args = 0, pretend = 0, frame = 0
 479              		@ frame_needed = 0, uses_anonymous_args = 0
 480              	.LVL41:
 481 0000 38B5     		push	{r3, r4, r5, lr}
 482              		.cfi_def_cfa_offset 16
 483              		.cfi_offset 3, -16
 484              		.cfi_offset 4, -12
 485              		.cfi_offset 5, -8
 486              		.cfi_offset 14, -4
 487              		.loc 1 207 0
 488 0002 4369     		ldr	r3, [r0, #20]
 489              		.loc 1 202 0
 490 0004 0446     		mov	r4, r0
 491              	.LVL42:
 492 0006 0D46     		mov	r5, r1
 493              		.loc 1 207 0
 494 0008 3BB1     		cbz	r3, .L23
 495              		.loc 1 209 0
 496 000a 2946     		mov	r1, r5
 497              	.LVL43:
 498 000c 04F10C00 		add	r0, r4, #12
 499              	.LVL44:
ARM GAS  C:\Users\jo\AppData\Local\Temp\ccuk5psZ.s 			page 10


 500 0010 FFF7FEFF 		bl	chIQPutI
 501              	.LVL45:
 502 0014 0028     		cmp	r0, #0
 503 0016 0BDB     		blt	.L24
 504              	.L18:
 505 0018 38BD     		pop	{r3, r4, r5, pc}
 506              	.LVL46:
 507              	.L23:
 508              	.LBB103:
 509              	.LBB104:
 510              		.loc 4 776 0
 511 001a 0430     		adds	r0, r0, #4
 512              	.LVL47:
 513 001c 0421     		movs	r1, #4
 514              	.LVL48:
 515 001e FFF7FEFF 		bl	chEvtBroadcastFlagsI
 516              	.LVL49:
 517              	.LBE104:
 518              	.LBE103:
 519              		.loc 1 209 0
 520 0022 2946     		mov	r1, r5
 521 0024 04F10C00 		add	r0, r4, #12
 522 0028 FFF7FEFF 		bl	chIQPutI
 523              	.LVL50:
 524 002c 0028     		cmp	r0, #0
 525 002e F3DA     		bge	.L18
 526              	.LVL51:
 527              	.L24:
 528              	.LBB105:
 529              	.LBB106:
 530              		.loc 4 776 0
 531 0030 201D     		adds	r0, r4, #4
 532              	.LVL52:
 533 0032 8021     		movs	r1, #128
 534              	.LBE106:
 535              	.LBE105:
 536              		.loc 1 211 0
 537 0034 BDE83840 		pop	{r3, r4, r5, lr}
 538              		.cfi_restore 14
 539              		.cfi_restore 5
 540              		.cfi_restore 4
 541              		.cfi_restore 3
 542              		.cfi_def_cfa_offset 0
 543              	.LVL53:
 544              	.LBB108:
 545              	.LBB107:
 546              		.loc 4 776 0
 547 0038 FFF7FEBF 		b	chEvtBroadcastFlagsI
 548              	.LVL54:
 549              	.LBE107:
 550              	.LBE108:
 551              		.cfi_endproc
 552              	.LFE267:
 553              		.size	sdIncomingDataI, .-sdIncomingDataI
 554 003c AFF30080 		.section	.text.sdRequestDataI,"ax",%progbits
 555              		.align	2
 556              		.p2align 4,,15
ARM GAS  C:\Users\jo\AppData\Local\Temp\ccuk5psZ.s 			page 11


 557              		.global	sdRequestDataI
 558              		.thumb
 559              		.thumb_func
 560              		.type	sdRequestDataI, %function
 561              	sdRequestDataI:
 562              	.LFB268:
 563              		.loc 1 228 0
 564              		.cfi_startproc
 565              		@ args = 0, pretend = 0, frame = 0
 566              		@ frame_needed = 0, uses_anonymous_args = 0
 567              	.LVL55:
 568 0000 38B5     		push	{r3, r4, r5, lr}
 569              		.cfi_def_cfa_offset 16
 570              		.cfi_offset 3, -16
 571              		.cfi_offset 4, -12
 572              		.cfi_offset 5, -8
 573              		.cfi_offset 14, -4
 574              		.loc 1 228 0
 575 0002 0446     		mov	r4, r0
 576              		.loc 1 234 0
 577 0004 3030     		adds	r0, r0, #48
 578              	.LVL56:
 579 0006 FFF7FEFF 		bl	chOQGetI
 580              	.LVL57:
 581              		.loc 1 235 0
 582 000a 051E     		subs	r5, r0, #0
 583 000c 01DB     		blt	.L28
 584              		.loc 1 238 0
 585 000e 2846     		mov	r0, r5
 586 0010 38BD     		pop	{r3, r4, r5, pc}
 587              	.LVL58:
 588              	.L28:
 589              	.LBB109:
 590              	.LBB110:
 591              		.loc 4 776 0
 592 0012 201D     		adds	r0, r4, #4
 593              	.LVL59:
 594 0014 0821     		movs	r1, #8
 595 0016 FFF7FEFF 		bl	chEvtBroadcastFlagsI
 596              	.LVL60:
 597              	.LBE110:
 598              	.LBE109:
 599              		.loc 1 238 0
 600 001a 2846     		mov	r0, r5
 601 001c 38BD     		pop	{r3, r4, r5, pc}
 602              		.cfi_endproc
 603              	.LFE268:
 604              		.size	sdRequestDataI, .-sdRequestDataI
 605 001e 00BF     		.section	.rodata.vmt,"a",%progbits
 606              		.align	2
 607              		.set	.LANCHOR0,. + 0
 608              		.type	vmt, %object
 609              		.size	vmt, 32
 610              	vmt:
 611 0000 00000000 		.word	write
 612 0004 00000000 		.word	read
 613 0008 00000000 		.word	put
ARM GAS  C:\Users\jo\AppData\Local\Temp\ccuk5psZ.s 			page 12


 614 000c 00000000 		.word	get
 615 0010 00000000 		.word	putt
 616 0014 00000000 		.word	gett
 617 0018 00000000 		.word	writet
 618 001c 00000000 		.word	readt
 619              		.text
 620              	.Letext0:
 621              		.file 5 "c:\\program files\\gnu tools arm embedded\\4.9 2014q4\\lib\\gcc\\arm-none-eabi\\4.9.3\\in
 622              		.file 6 "c:\\program files\\gnu tools arm embedded\\4.9 2014q4\\arm-none-eabi\\include\\machine\\_
 623              		.file 7 "c:\\program files\\gnu tools arm embedded\\4.9 2014q4\\arm-none-eabi\\include\\stdint.h"
 624              		.file 8 "../../../os/rt/ports/ARMCMx/compilers/GCC/chtypes.h"
 625              		.file 9 "../../../os/rt/include/chsystypes.h"
 626              		.file 10 "../../../os/rt/include/chschd.h"
 627              		.file 11 "../../../os/ext/CMSIS/ST/stm32f407xx.h"
 628              		.file 12 "../../../os/rt/ports/ARMCMx/chcore.h"
 629              		.file 13 "../../../os/rt/ports/ARMCMx/chcore_v7m.h"
 630              		.file 14 "../../../os/rt/include/chtm.h"
 631              		.file 15 "../../../os/rt/include/chmtx.h"
 632              		.file 16 "../../../os/rt/include/chqueues.h"
 633              		.file 17 "../../../os/hal/include/serial.h"
 634              		.file 18 "../../../os/hal/ports/STM32/LLD/USARTv1/serial_lld.h"
 635              		.file 19 "../../../os/rt/include/chsys.h"
 636              		.file 20 "../../../os/ext/CMSIS/include/core_cm4.h"
 637              		.section	.debug_info,"",%progbits
 638              	.Ldebug_info0:
 639 0000 31150000 		.4byte	0x1531
 640 0004 0400     		.2byte	0x4
 641 0006 00000000 		.4byte	.Ldebug_abbrev0
 642 000a 04       		.byte	0x4
 643 000b 01       		.uleb128 0x1
 644 000c 3C040000 		.4byte	.LASF182
 645 0010 01       		.byte	0x1
 646 0011 B6080000 		.4byte	.LASF183
 647 0015 F5060000 		.4byte	.LASF184
 648 0019 48000000 		.4byte	.Ldebug_ranges0+0x48
 649 001d 00000000 		.4byte	0
 650 0021 00000000 		.4byte	.Ldebug_line0
 651 0025 02       		.uleb128 0x2
 652 0026 04       		.byte	0x4
 653 0027 05       		.byte	0x5
 654 0028 696E7400 		.ascii	"int\000"
 655 002c 03       		.uleb128 0x3
 656 002d 24000000 		.4byte	.LASF2
 657 0031 05       		.byte	0x5
 658 0032 D4       		.byte	0xd4
 659 0033 37000000 		.4byte	0x37
 660 0037 04       		.uleb128 0x4
 661 0038 04       		.byte	0x4
 662 0039 07       		.byte	0x7
 663 003a 7C020000 		.4byte	.LASF0
 664 003e 04       		.uleb128 0x4
 665 003f 01       		.byte	0x1
 666 0040 06       		.byte	0x6
 667 0041 41010000 		.4byte	.LASF1
 668 0045 03       		.uleb128 0x3
 669 0046 3B000000 		.4byte	.LASF3
 670 004a 06       		.byte	0x6
ARM GAS  C:\Users\jo\AppData\Local\Temp\ccuk5psZ.s 			page 13


 671 004b 1D       		.byte	0x1d
 672 004c 50000000 		.4byte	0x50
 673 0050 04       		.uleb128 0x4
 674 0051 01       		.byte	0x1
 675 0052 08       		.byte	0x8
 676 0053 DD050000 		.4byte	.LASF4
 677 0057 04       		.uleb128 0x4
 678 0058 02       		.byte	0x2
 679 0059 05       		.byte	0x5
 680 005a 1F060000 		.4byte	.LASF5
 681 005e 03       		.uleb128 0x3
 682 005f 3D070000 		.4byte	.LASF6
 683 0063 06       		.byte	0x6
 684 0064 2B       		.byte	0x2b
 685 0065 69000000 		.4byte	0x69
 686 0069 04       		.uleb128 0x4
 687 006a 02       		.byte	0x2
 688 006b 07       		.byte	0x7
 689 006c E8010000 		.4byte	.LASF7
 690 0070 03       		.uleb128 0x3
 691 0071 CD000000 		.4byte	.LASF8
 692 0075 06       		.byte	0x6
 693 0076 3F       		.byte	0x3f
 694 0077 7B000000 		.4byte	0x7b
 695 007b 04       		.uleb128 0x4
 696 007c 04       		.byte	0x4
 697 007d 05       		.byte	0x5
 698 007e 92010000 		.4byte	.LASF9
 699 0082 03       		.uleb128 0x3
 700 0083 76070000 		.4byte	.LASF10
 701 0087 06       		.byte	0x6
 702 0088 41       		.byte	0x41
 703 0089 8D000000 		.4byte	0x8d
 704 008d 04       		.uleb128 0x4
 705 008e 04       		.byte	0x4
 706 008f 07       		.byte	0x7
 707 0090 BA060000 		.4byte	.LASF11
 708 0094 04       		.uleb128 0x4
 709 0095 08       		.byte	0x8
 710 0096 05       		.byte	0x5
 711 0097 33010000 		.4byte	.LASF12
 712 009b 03       		.uleb128 0x3
 713 009c 6C050000 		.4byte	.LASF13
 714 00a0 06       		.byte	0x6
 715 00a1 5B       		.byte	0x5b
 716 00a2 A6000000 		.4byte	0xa6
 717 00a6 04       		.uleb128 0x4
 718 00a7 08       		.byte	0x8
 719 00a8 07       		.byte	0x7
 720 00a9 89000000 		.4byte	.LASF14
 721 00ad 03       		.uleb128 0x3
 722 00ae 4F080000 		.4byte	.LASF15
 723 00b2 07       		.byte	0x7
 724 00b3 15       		.byte	0x15
 725 00b4 45000000 		.4byte	0x45
 726 00b8 03       		.uleb128 0x3
 727 00b9 91020000 		.4byte	.LASF16
ARM GAS  C:\Users\jo\AppData\Local\Temp\ccuk5psZ.s 			page 14


 728 00bd 07       		.byte	0x7
 729 00be 21       		.byte	0x21
 730 00bf 5E000000 		.4byte	0x5e
 731 00c3 03       		.uleb128 0x3
 732 00c4 D5050000 		.4byte	.LASF17
 733 00c8 07       		.byte	0x7
 734 00c9 2C       		.byte	0x2c
 735 00ca 70000000 		.4byte	0x70
 736 00ce 03       		.uleb128 0x3
 737 00cf 8C060000 		.4byte	.LASF18
 738 00d3 07       		.byte	0x7
 739 00d4 2D       		.byte	0x2d
 740 00d5 82000000 		.4byte	0x82
 741 00d9 03       		.uleb128 0x3
 742 00da 32000000 		.4byte	.LASF19
 743 00de 07       		.byte	0x7
 744 00df 39       		.byte	0x39
 745 00e0 9B000000 		.4byte	0x9b
 746 00e4 05       		.uleb128 0x5
 747 00e5 C3000000 		.4byte	0xc3
 748 00e9 05       		.uleb128 0x5
 749 00ea CE000000 		.4byte	0xce
 750 00ee 03       		.uleb128 0x3
 751 00ef D5070000 		.4byte	.LASF20
 752 00f3 08       		.byte	0x8
 753 00f4 45       		.byte	0x45
 754 00f5 CE000000 		.4byte	0xce
 755 00f9 03       		.uleb128 0x3
 756 00fa 4A030000 		.4byte	.LASF21
 757 00fe 08       		.byte	0x8
 758 00ff 48       		.byte	0x48
 759 0100 AD000000 		.4byte	0xad
 760 0104 03       		.uleb128 0x3
 761 0105 A8010000 		.4byte	.LASF22
 762 0109 08       		.byte	0x8
 763 010a 49       		.byte	0x49
 764 010b AD000000 		.4byte	0xad
 765 010f 03       		.uleb128 0x3
 766 0110 0F000000 		.4byte	.LASF23
 767 0114 08       		.byte	0x8
 768 0115 4A       		.byte	0x4a
 769 0116 AD000000 		.4byte	0xad
 770 011a 03       		.uleb128 0x3
 771 011b A9050000 		.4byte	.LASF24
 772 011f 08       		.byte	0x8
 773 0120 4C       		.byte	0x4c
 774 0121 CE000000 		.4byte	0xce
 775 0125 03       		.uleb128 0x3
 776 0126 14030000 		.4byte	.LASF25
 777 012a 08       		.byte	0x8
 778 012b 4D       		.byte	0x4d
 779 012c C3000000 		.4byte	0xc3
 780 0130 03       		.uleb128 0x3
 781 0131 60030000 		.4byte	.LASF26
 782 0135 08       		.byte	0x8
 783 0136 4F       		.byte	0x4f
 784 0137 CE000000 		.4byte	0xce
ARM GAS  C:\Users\jo\AppData\Local\Temp\ccuk5psZ.s 			page 15


 785 013b 03       		.uleb128 0x3
 786 013c E9070000 		.4byte	.LASF27
 787 0140 08       		.byte	0x8
 788 0141 50       		.byte	0x50
 789 0142 CE000000 		.4byte	0xce
 790 0146 03       		.uleb128 0x3
 791 0147 58070000 		.4byte	.LASF28
 792 014b 09       		.byte	0x9
 793 014c 33       		.byte	0x33
 794 014d CE000000 		.4byte	0xce
 795 0151 03       		.uleb128 0x3
 796 0152 48070000 		.4byte	.LASF29
 797 0156 09       		.byte	0x9
 798 0157 3F       		.byte	0x3f
 799 0158 5C010000 		.4byte	0x15c
 800 015c 06       		.uleb128 0x6
 801 015d 00030000 		.4byte	.LASF48
 802 0161 44       		.byte	0x44
 803 0162 0A       		.byte	0xa
 804 0163 BE       		.byte	0xbe
 805 0164 49020000 		.4byte	0x249
 806 0168 07       		.uleb128 0x7
 807 0169 37060000 		.4byte	.LASF30
 808 016d 0A       		.byte	0xa
 809 016e BF       		.byte	0xbf
 810 016f 84060000 		.4byte	0x684
 811 0173 00       		.byte	0
 812 0174 07       		.uleb128 0x7
 813 0175 A2050000 		.4byte	.LASF31
 814 0179 0A       		.byte	0xa
 815 017a C1       		.byte	0xc1
 816 017b 84060000 		.4byte	0x684
 817 017f 04       		.byte	0x4
 818 0180 07       		.uleb128 0x7
 819 0181 EA030000 		.4byte	.LASF32
 820 0185 0A       		.byte	0xa
 821 0186 C3       		.byte	0xc3
 822 0187 1A010000 		.4byte	0x11a
 823 018b 08       		.byte	0x8
 824 018c 07       		.uleb128 0x7
 825 018d DB080000 		.4byte	.LASF33
 826 0191 0A       		.byte	0xa
 827 0192 C4       		.byte	0xc4
 828 0193 E2040000 		.4byte	0x4e2
 829 0197 0C       		.byte	0xc
 830 0198 07       		.uleb128 0x7
 831 0199 E0010000 		.4byte	.LASF34
 832 019d 0A       		.byte	0xa
 833 019e C6       		.byte	0xc6
 834 019f 84060000 		.4byte	0x684
 835 01a3 10       		.byte	0x10
 836 01a4 07       		.uleb128 0x7
 837 01a5 FD030000 		.4byte	.LASF35
 838 01a9 0A       		.byte	0xa
 839 01aa C7       		.byte	0xc7
 840 01ab 84060000 		.4byte	0x684
 841 01af 14       		.byte	0x14
ARM GAS  C:\Users\jo\AppData\Local\Temp\ccuk5psZ.s 			page 16


 842 01b0 07       		.uleb128 0x7
 843 01b1 15080000 		.4byte	.LASF36
 844 01b5 0A       		.byte	0xa
 845 01b6 CE       		.byte	0xce
 846 01b7 49060000 		.4byte	0x649
 847 01bb 18       		.byte	0x18
 848 01bc 07       		.uleb128 0x7
 849 01bd 0D060000 		.4byte	.LASF37
 850 01c1 0A       		.byte	0xa
 851 01c2 D9       		.byte	0xd9
 852 01c3 04010000 		.4byte	0x104
 853 01c7 1C       		.byte	0x1c
 854 01c8 07       		.uleb128 0x7
 855 01c9 3E060000 		.4byte	.LASF38
 856 01cd 0A       		.byte	0xa
 857 01ce DD       		.byte	0xdd
 858 01cf F9000000 		.4byte	0xf9
 859 01d3 1D       		.byte	0x1d
 860 01d4 07       		.uleb128 0x7
 861 01d5 23040000 		.4byte	.LASF39
 862 01d9 0A       		.byte	0xa
 863 01da E2       		.byte	0xe2
 864 01db 0F010000 		.4byte	0x10f
 865 01df 1E       		.byte	0x1e
 866 01e0 08       		.uleb128 0x8
 867 01e1 705F7500 		.ascii	"p_u\000"
 868 01e5 0A       		.byte	0xa
 869 01e6 1401     		.2byte	0x114
 870 01e8 8A060000 		.4byte	0x68a
 871 01ec 20       		.byte	0x20
 872 01ed 09       		.uleb128 0x9
 873 01ee 07090000 		.4byte	.LASF40
 874 01f2 0A       		.byte	0xa
 875 01f3 1901     		.2byte	0x119
 876 01f5 49020000 		.4byte	0x249
 877 01f9 24       		.byte	0x24
 878 01fa 09       		.uleb128 0x9
 879 01fb C6020000 		.4byte	.LASF41
 880 01ff 0A       		.byte	0xa
 881 0200 1F01     		.2byte	0x11f
 882 0202 6D020000 		.4byte	0x26d
 883 0206 28       		.byte	0x28
 884 0207 09       		.uleb128 0x9
 885 0208 8E080000 		.4byte	.LASF42
 886 020c 0A       		.byte	0xa
 887 020d 2301     		.2byte	0x123
 888 020f 25010000 		.4byte	0x125
 889 0213 30       		.byte	0x30
 890 0214 09       		.uleb128 0x9
 891 0215 77060000 		.4byte	.LASF43
 892 0219 0A       		.byte	0xa
 893 021a 2901     		.2byte	0x129
 894 021c 30010000 		.4byte	0x130
 895 0220 34       		.byte	0x34
 896 0221 09       		.uleb128 0x9
 897 0222 15060000 		.4byte	.LASF44
 898 0226 0A       		.byte	0xa
ARM GAS  C:\Users\jo\AppData\Local\Temp\ccuk5psZ.s 			page 17


 899 0227 3001     		.2byte	0x130
 900 0229 F3060000 		.4byte	0x6f3
 901 022d 38       		.byte	0x38
 902 022e 09       		.uleb128 0x9
 903 022f 62070000 		.4byte	.LASF45
 904 0233 0A       		.byte	0xa
 905 0234 3401     		.2byte	0x134
 906 0236 1A010000 		.4byte	0x11a
 907 023a 3C       		.byte	0x3c
 908 023b 09       		.uleb128 0x9
 909 023c 52010000 		.4byte	.LASF46
 910 0240 0A       		.byte	0xa
 911 0241 3A01     		.2byte	0x13a
 912 0243 20030000 		.4byte	0x320
 913 0247 40       		.byte	0x40
 914 0248 00       		.byte	0
 915 0249 03       		.uleb128 0x3
 916 024a 73080000 		.4byte	.LASF47
 917 024e 09       		.byte	0x9
 918 024f 44       		.byte	0x44
 919 0250 54020000 		.4byte	0x254
 920 0254 06       		.uleb128 0x6
 921 0255 9D060000 		.4byte	.LASF49
 922 0259 04       		.byte	0x4
 923 025a 0A       		.byte	0xa
 924 025b AC       		.byte	0xac
 925 025c 6D020000 		.4byte	0x26d
 926 0260 07       		.uleb128 0x7
 927 0261 37060000 		.4byte	.LASF30
 928 0265 0A       		.byte	0xa
 929 0266 AD       		.byte	0xad
 930 0267 84060000 		.4byte	0x684
 931 026b 00       		.byte	0
 932 026c 00       		.byte	0
 933 026d 03       		.uleb128 0x3
 934 026e 67060000 		.4byte	.LASF50
 935 0272 09       		.byte	0x9
 936 0273 4B       		.byte	0x4b
 937 0274 78020000 		.4byte	0x278
 938 0278 06       		.uleb128 0x6
 939 0279 05010000 		.4byte	.LASF51
 940 027d 08       		.byte	0x8
 941 027e 0A       		.byte	0xa
 942 027f B3       		.byte	0xb3
 943 0280 9D020000 		.4byte	0x29d
 944 0284 07       		.uleb128 0x7
 945 0285 37060000 		.4byte	.LASF30
 946 0289 0A       		.byte	0xa
 947 028a B4       		.byte	0xb4
 948 028b 84060000 		.4byte	0x684
 949 028f 00       		.byte	0
 950 0290 07       		.uleb128 0x7
 951 0291 A2050000 		.4byte	.LASF31
 952 0295 0A       		.byte	0xa
 953 0296 B5       		.byte	0xb5
 954 0297 84060000 		.4byte	0x684
 955 029b 04       		.byte	0x4
ARM GAS  C:\Users\jo\AppData\Local\Temp\ccuk5psZ.s 			page 18


 956 029c 00       		.byte	0
 957 029d 03       		.uleb128 0x3
 958 029e 17000000 		.4byte	.LASF52
 959 02a2 09       		.byte	0x9
 960 02a3 52       		.byte	0x52
 961 02a4 A8020000 		.4byte	0x2a8
 962 02a8 0A       		.uleb128 0xa
 963 02a9 52030000 		.4byte	.LASF53
 964 02ad 1C       		.byte	0x1c
 965 02ae 0A       		.byte	0xa
 966 02af 7201     		.2byte	0x172
 967 02b1 04030000 		.4byte	0x304
 968 02b5 09       		.uleb128 0x9
 969 02b6 95060000 		.4byte	.LASF54
 970 02ba 0A       		.byte	0xa
 971 02bb 7301     		.2byte	0x173
 972 02bd 6D020000 		.4byte	0x26d
 973 02c1 00       		.byte	0
 974 02c2 09       		.uleb128 0x9
 975 02c3 29060000 		.4byte	.LASF55
 976 02c7 0A       		.byte	0xa
 977 02c8 7401     		.2byte	0x174
 978 02ca 1A010000 		.4byte	0x11a
 979 02ce 08       		.byte	0x8
 980 02cf 09       		.uleb128 0x9
 981 02d0 05040000 		.4byte	.LASF56
 982 02d4 0A       		.byte	0xa
 983 02d5 7601     		.2byte	0x176
 984 02d7 E2040000 		.4byte	0x4e2
 985 02db 0C       		.byte	0xc
 986 02dc 09       		.uleb128 0x9
 987 02dd 0C020000 		.4byte	.LASF57
 988 02e1 0A       		.byte	0xa
 989 02e2 7901     		.2byte	0x179
 990 02e4 84060000 		.4byte	0x684
 991 02e8 10       		.byte	0x10
 992 02e9 09       		.uleb128 0x9
 993 02ea 34040000 		.4byte	.LASF58
 994 02ee 0A       		.byte	0xa
 995 02ef 7A01     		.2byte	0x17a
 996 02f1 84060000 		.4byte	0x684
 997 02f5 14       		.byte	0x14
 998 02f6 09       		.uleb128 0x9
 999 02f7 2A040000 		.4byte	.LASF59
 1000 02fb 0A       		.byte	0xa
 1001 02fc 7D01     		.2byte	0x17d
 1002 02fe 84060000 		.4byte	0x684
 1003 0302 18       		.byte	0x18
 1004 0303 00       		.byte	0
 1005 0304 03       		.uleb128 0x3
 1006 0305 6D070000 		.4byte	.LASF60
 1007 0309 09       		.byte	0x9
 1008 030a 57       		.byte	0x57
 1009 030b 0F030000 		.4byte	0x30f
 1010 030f 0B       		.uleb128 0xb
 1011 0310 04       		.byte	0x4
 1012 0311 15030000 		.4byte	0x315
ARM GAS  C:\Users\jo\AppData\Local\Temp\ccuk5psZ.s 			page 19


 1013 0315 0C       		.uleb128 0xc
 1014 0316 20030000 		.4byte	0x320
 1015 031a 0D       		.uleb128 0xd
 1016 031b 20030000 		.4byte	0x320
 1017 031f 00       		.byte	0
 1018 0320 0E       		.uleb128 0xe
 1019 0321 04       		.byte	0x4
 1020 0322 03       		.uleb128 0x3
 1021 0323 92050000 		.4byte	.LASF61
 1022 0327 09       		.byte	0x9
 1023 0328 5C       		.byte	0x5c
 1024 0329 2D030000 		.4byte	0x32d
 1025 032d 0A       		.uleb128 0xa
 1026 032e C4070000 		.4byte	.LASF62
 1027 0332 14       		.byte	0x14
 1028 0333 0A       		.byte	0xa
 1029 0334 4D01     		.2byte	0x14d
 1030 0336 7C030000 		.4byte	0x37c
 1031 033a 09       		.uleb128 0x9
 1032 033b 89020000 		.4byte	.LASF63
 1033 033f 0A       		.byte	0xa
 1034 0340 4E01     		.2byte	0x14e
 1035 0342 F9060000 		.4byte	0x6f9
 1036 0346 00       		.byte	0
 1037 0347 09       		.uleb128 0x9
 1038 0348 1D020000 		.4byte	.LASF64
 1039 034c 0A       		.byte	0xa
 1040 034d 4F01     		.2byte	0x14f
 1041 034f F9060000 		.4byte	0x6f9
 1042 0353 04       		.byte	0x4
 1043 0354 09       		.uleb128 0x9
 1044 0355 BD020000 		.4byte	.LASF65
 1045 0359 0A       		.byte	0xa
 1046 035a 5001     		.2byte	0x150
 1047 035c 46010000 		.4byte	0x146
 1048 0360 08       		.byte	0x8
 1049 0361 09       		.uleb128 0x9
 1050 0362 E1080000 		.4byte	.LASF66
 1051 0366 0A       		.byte	0xa
 1052 0367 5101     		.2byte	0x151
 1053 0369 04030000 		.4byte	0x304
 1054 036d 0C       		.byte	0xc
 1055 036e 09       		.uleb128 0x9
 1056 036f E2070000 		.4byte	.LASF67
 1057 0373 0A       		.byte	0xa
 1058 0374 5301     		.2byte	0x153
 1059 0376 20030000 		.4byte	0x320
 1060 037a 10       		.byte	0x10
 1061 037b 00       		.byte	0
 1062 037c 03       		.uleb128 0x3
 1063 037d D7000000 		.4byte	.LASF68
 1064 0381 09       		.byte	0x9
 1065 0382 61       		.byte	0x61
 1066 0383 87030000 		.4byte	0x387
 1067 0387 0A       		.uleb128 0xa
 1068 0388 BA030000 		.4byte	.LASF69
 1069 038c 10       		.byte	0x10
ARM GAS  C:\Users\jo\AppData\Local\Temp\ccuk5psZ.s 			page 20


 1070 038d 0A       		.byte	0xa
 1071 038e 5D01     		.2byte	0x15d
 1072 0390 C9030000 		.4byte	0x3c9
 1073 0394 09       		.uleb128 0x9
 1074 0395 89020000 		.4byte	.LASF63
 1075 0399 0A       		.byte	0xa
 1076 039a 5E01     		.2byte	0x15e
 1077 039c F9060000 		.4byte	0x6f9
 1078 03a0 00       		.byte	0
 1079 03a1 09       		.uleb128 0x9
 1080 03a2 1D020000 		.4byte	.LASF64
 1081 03a6 0A       		.byte	0xa
 1082 03a7 6001     		.2byte	0x160
 1083 03a9 F9060000 		.4byte	0x6f9
 1084 03ad 04       		.byte	0x4
 1085 03ae 09       		.uleb128 0x9
 1086 03af BD020000 		.4byte	.LASF65
 1087 03b3 0A       		.byte	0xa
 1088 03b4 6201     		.2byte	0x162
 1089 03b6 46010000 		.4byte	0x146
 1090 03ba 08       		.byte	0x8
 1091 03bb 09       		.uleb128 0x9
 1092 03bc F1030000 		.4byte	.LASF70
 1093 03c0 0A       		.byte	0xa
 1094 03c1 6A01     		.2byte	0x16a
 1095 03c3 46010000 		.4byte	0x146
 1096 03c7 0C       		.byte	0xc
 1097 03c8 00       		.byte	0
 1098 03c9 03       		.uleb128 0x3
 1099 03ca 51000000 		.4byte	.LASF71
 1100 03ce 09       		.byte	0x9
 1101 03cf 66       		.byte	0x66
 1102 03d0 D4030000 		.4byte	0x3d4
 1103 03d4 0A       		.uleb128 0xa
 1104 03d5 BF050000 		.4byte	.LASF72
 1105 03d9 04       		.byte	0x4
 1106 03da 0A       		.byte	0xa
 1107 03db 8401     		.2byte	0x184
 1108 03dd EF030000 		.4byte	0x3ef
 1109 03e1 09       		.uleb128 0x9
 1110 03e2 8F070000 		.4byte	.LASF73
 1111 03e6 0A       		.byte	0xa
 1112 03e7 8C01     		.2byte	0x18c
 1113 03e9 FF060000 		.4byte	0x6ff
 1114 03ed 00       		.byte	0
 1115 03ee 00       		.byte	0
 1116 03ef 03       		.uleb128 0x3
 1117 03f0 29030000 		.4byte	.LASF74
 1118 03f4 09       		.byte	0x9
 1119 03f5 6B       		.byte	0x6b
 1120 03f6 FA030000 		.4byte	0x3fa
 1121 03fa 0F       		.uleb128 0xf
 1122 03fb 88010000 		.4byte	.LASF75
 1123 03ff D801     		.2byte	0x1d8
 1124 0401 0A       		.byte	0xa
 1125 0402 A401     		.2byte	0x1a4
 1126 0404 56040000 		.4byte	0x456
ARM GAS  C:\Users\jo\AppData\Local\Temp\ccuk5psZ.s 			page 21


 1127 0408 09       		.uleb128 0x9
 1128 0409 3A080000 		.4byte	.LASF76
 1129 040d 0A       		.byte	0xa
 1130 040e A801     		.2byte	0x1a8
 1131 0410 9D020000 		.4byte	0x29d
 1132 0414 00       		.byte	0
 1133 0415 09       		.uleb128 0x9
 1134 0416 25020000 		.4byte	.LASF77
 1135 041a 0A       		.byte	0xa
 1136 041b AC01     		.2byte	0x1ac
 1137 041d 7C030000 		.4byte	0x37c
 1138 0421 1C       		.byte	0x1c
 1139 0422 08       		.uleb128 0x8
 1140 0423 64626700 		.ascii	"dbg\000"
 1141 0427 0A       		.byte	0xa
 1142 0428 B001     		.2byte	0x1b0
 1143 042a C9030000 		.4byte	0x3c9
 1144 042e 2C       		.byte	0x2c
 1145 042f 09       		.uleb128 0x9
 1146 0430 C2000000 		.4byte	.LASF78
 1147 0434 0A       		.byte	0xa
 1148 0435 B401     		.2byte	0x1b4
 1149 0437 51010000 		.4byte	0x151
 1150 043b 30       		.byte	0x30
 1151 043c 08       		.uleb128 0x8
 1152 043d 746D00   		.ascii	"tm\000"
 1153 0440 0A       		.byte	0xa
 1154 0441 B901     		.2byte	0x1b9
 1155 0443 79060000 		.4byte	0x679
 1156 0447 74       		.byte	0x74
 1157 0448 09       		.uleb128 0x9
 1158 0449 67020000 		.4byte	.LASF79
 1159 044d 0A       		.byte	0xa
 1160 044e C501     		.2byte	0x1c5
 1161 0450 04070000 		.4byte	0x704
 1162 0454 78       		.byte	0x78
 1163 0455 00       		.byte	0
 1164 0456 04       		.uleb128 0x4
 1165 0457 04       		.byte	0x4
 1166 0458 07       		.byte	0x7
 1167 0459 B1030000 		.4byte	.LASF80
 1168 045d 10       		.uleb128 0x10
 1169 045e 1C       		.byte	0x1c
 1170 045f 0B       		.byte	0xb
 1171 0460 0903     		.2byte	0x309
 1172 0462 C0040000 		.4byte	0x4c0
 1173 0466 08       		.uleb128 0x8
 1174 0467 535200   		.ascii	"SR\000"
 1175 046a 0B       		.byte	0xb
 1176 046b 0B03     		.2byte	0x30b
 1177 046d E9000000 		.4byte	0xe9
 1178 0471 00       		.byte	0
 1179 0472 08       		.uleb128 0x8
 1180 0473 445200   		.ascii	"DR\000"
 1181 0476 0B       		.byte	0xb
 1182 0477 0C03     		.2byte	0x30c
 1183 0479 E9000000 		.4byte	0xe9
ARM GAS  C:\Users\jo\AppData\Local\Temp\ccuk5psZ.s 			page 22


 1184 047d 04       		.byte	0x4
 1185 047e 08       		.uleb128 0x8
 1186 047f 42525200 		.ascii	"BRR\000"
 1187 0483 0B       		.byte	0xb
 1188 0484 0D03     		.2byte	0x30d
 1189 0486 E9000000 		.4byte	0xe9
 1190 048a 08       		.byte	0x8
 1191 048b 08       		.uleb128 0x8
 1192 048c 43523100 		.ascii	"CR1\000"
 1193 0490 0B       		.byte	0xb
 1194 0491 0E03     		.2byte	0x30e
 1195 0493 E9000000 		.4byte	0xe9
 1196 0497 0C       		.byte	0xc
 1197 0498 08       		.uleb128 0x8
 1198 0499 43523200 		.ascii	"CR2\000"
 1199 049d 0B       		.byte	0xb
 1200 049e 0F03     		.2byte	0x30f
 1201 04a0 E9000000 		.4byte	0xe9
 1202 04a4 10       		.byte	0x10
 1203 04a5 08       		.uleb128 0x8
 1204 04a6 43523300 		.ascii	"CR3\000"
 1205 04aa 0B       		.byte	0xb
 1206 04ab 1003     		.2byte	0x310
 1207 04ad E9000000 		.4byte	0xe9
 1208 04b1 14       		.byte	0x14
 1209 04b2 09       		.uleb128 0x9
 1210 04b3 4D010000 		.4byte	.LASF81
 1211 04b7 0B       		.byte	0xb
 1212 04b8 1103     		.2byte	0x311
 1213 04ba E9000000 		.4byte	0xe9
 1214 04be 18       		.byte	0x18
 1215 04bf 00       		.byte	0
 1216 04c0 11       		.uleb128 0x11
 1217 04c1 35030000 		.4byte	.LASF82
 1218 04c5 0B       		.byte	0xb
 1219 04c6 1203     		.2byte	0x312
 1220 04c8 5D040000 		.4byte	0x45d
 1221 04cc 03       		.uleb128 0x3
 1222 04cd 14020000 		.4byte	.LASF83
 1223 04d1 0C       		.byte	0xc
 1224 04d2 85       		.byte	0x85
 1225 04d3 20030000 		.4byte	0x320
 1226 04d7 03       		.uleb128 0x3
 1227 04d8 7C030000 		.4byte	.LASF84
 1228 04dc 0C       		.byte	0xc
 1229 04dd 8D       		.byte	0x8d
 1230 04de D9000000 		.4byte	0xd9
 1231 04e2 06       		.uleb128 0x6
 1232 04e3 BC070000 		.4byte	.LASF85
 1233 04e7 04       		.byte	0x4
 1234 04e8 0C       		.byte	0xc
 1235 04e9 A9       		.byte	0xa9
 1236 04ea FB040000 		.4byte	0x4fb
 1237 04ee 12       		.uleb128 0x12
 1238 04ef 72313300 		.ascii	"r13\000"
 1239 04f3 0C       		.byte	0xc
 1240 04f4 AA       		.byte	0xaa
ARM GAS  C:\Users\jo\AppData\Local\Temp\ccuk5psZ.s 			page 23


 1241 04f5 3C060000 		.4byte	0x63c
 1242 04f9 00       		.byte	0
 1243 04fa 00       		.byte	0
 1244 04fb 06       		.uleb128 0x6
 1245 04fc 45000000 		.4byte	.LASF86
 1246 0500 64       		.byte	0x64
 1247 0501 0D       		.byte	0xd
 1248 0502 F4       		.byte	0xf4
 1249 0503 3C060000 		.4byte	0x63c
 1250 0507 12       		.uleb128 0x12
 1251 0508 73313600 		.ascii	"s16\000"
 1252 050c 0D       		.byte	0xd
 1253 050d F6       		.byte	0xf6
 1254 050e CC040000 		.4byte	0x4cc
 1255 0512 00       		.byte	0
 1256 0513 12       		.uleb128 0x12
 1257 0514 73313700 		.ascii	"s17\000"
 1258 0518 0D       		.byte	0xd
 1259 0519 F7       		.byte	0xf7
 1260 051a CC040000 		.4byte	0x4cc
 1261 051e 04       		.byte	0x4
 1262 051f 12       		.uleb128 0x12
 1263 0520 73313800 		.ascii	"s18\000"
 1264 0524 0D       		.byte	0xd
 1265 0525 F8       		.byte	0xf8
 1266 0526 CC040000 		.4byte	0x4cc
 1267 052a 08       		.byte	0x8
 1268 052b 12       		.uleb128 0x12
 1269 052c 73313900 		.ascii	"s19\000"
 1270 0530 0D       		.byte	0xd
 1271 0531 F9       		.byte	0xf9
 1272 0532 CC040000 		.4byte	0x4cc
 1273 0536 0C       		.byte	0xc
 1274 0537 12       		.uleb128 0x12
 1275 0538 73323000 		.ascii	"s20\000"
 1276 053c 0D       		.byte	0xd
 1277 053d FA       		.byte	0xfa
 1278 053e CC040000 		.4byte	0x4cc
 1279 0542 10       		.byte	0x10
 1280 0543 12       		.uleb128 0x12
 1281 0544 73323100 		.ascii	"s21\000"
 1282 0548 0D       		.byte	0xd
 1283 0549 FB       		.byte	0xfb
 1284 054a CC040000 		.4byte	0x4cc
 1285 054e 14       		.byte	0x14
 1286 054f 12       		.uleb128 0x12
 1287 0550 73323200 		.ascii	"s22\000"
 1288 0554 0D       		.byte	0xd
 1289 0555 FC       		.byte	0xfc
 1290 0556 CC040000 		.4byte	0x4cc
 1291 055a 18       		.byte	0x18
 1292 055b 12       		.uleb128 0x12
 1293 055c 73323300 		.ascii	"s23\000"
 1294 0560 0D       		.byte	0xd
 1295 0561 FD       		.byte	0xfd
 1296 0562 CC040000 		.4byte	0x4cc
 1297 0566 1C       		.byte	0x1c
ARM GAS  C:\Users\jo\AppData\Local\Temp\ccuk5psZ.s 			page 24


 1298 0567 12       		.uleb128 0x12
 1299 0568 73323400 		.ascii	"s24\000"
 1300 056c 0D       		.byte	0xd
 1301 056d FE       		.byte	0xfe
 1302 056e CC040000 		.4byte	0x4cc
 1303 0572 20       		.byte	0x20
 1304 0573 12       		.uleb128 0x12
 1305 0574 73323500 		.ascii	"s25\000"
 1306 0578 0D       		.byte	0xd
 1307 0579 FF       		.byte	0xff
 1308 057a CC040000 		.4byte	0x4cc
 1309 057e 24       		.byte	0x24
 1310 057f 08       		.uleb128 0x8
 1311 0580 73323600 		.ascii	"s26\000"
 1312 0584 0D       		.byte	0xd
 1313 0585 0001     		.2byte	0x100
 1314 0587 CC040000 		.4byte	0x4cc
 1315 058b 28       		.byte	0x28
 1316 058c 08       		.uleb128 0x8
 1317 058d 73323700 		.ascii	"s27\000"
 1318 0591 0D       		.byte	0xd
 1319 0592 0101     		.2byte	0x101
 1320 0594 CC040000 		.4byte	0x4cc
 1321 0598 2C       		.byte	0x2c
 1322 0599 08       		.uleb128 0x8
 1323 059a 73323800 		.ascii	"s28\000"
 1324 059e 0D       		.byte	0xd
 1325 059f 0201     		.2byte	0x102
 1326 05a1 CC040000 		.4byte	0x4cc
 1327 05a5 30       		.byte	0x30
 1328 05a6 08       		.uleb128 0x8
 1329 05a7 73323900 		.ascii	"s29\000"
 1330 05ab 0D       		.byte	0xd
 1331 05ac 0301     		.2byte	0x103
 1332 05ae CC040000 		.4byte	0x4cc
 1333 05b2 34       		.byte	0x34
 1334 05b3 08       		.uleb128 0x8
 1335 05b4 73333000 		.ascii	"s30\000"
 1336 05b8 0D       		.byte	0xd
 1337 05b9 0401     		.2byte	0x104
 1338 05bb CC040000 		.4byte	0x4cc
 1339 05bf 38       		.byte	0x38
 1340 05c0 08       		.uleb128 0x8
 1341 05c1 73333100 		.ascii	"s31\000"
 1342 05c5 0D       		.byte	0xd
 1343 05c6 0501     		.2byte	0x105
 1344 05c8 CC040000 		.4byte	0x4cc
 1345 05cc 3C       		.byte	0x3c
 1346 05cd 08       		.uleb128 0x8
 1347 05ce 723400   		.ascii	"r4\000"
 1348 05d1 0D       		.byte	0xd
 1349 05d2 0701     		.2byte	0x107
 1350 05d4 CC040000 		.4byte	0x4cc
 1351 05d8 40       		.byte	0x40
 1352 05d9 08       		.uleb128 0x8
 1353 05da 723500   		.ascii	"r5\000"
 1354 05dd 0D       		.byte	0xd
ARM GAS  C:\Users\jo\AppData\Local\Temp\ccuk5psZ.s 			page 25


 1355 05de 0801     		.2byte	0x108
 1356 05e0 CC040000 		.4byte	0x4cc
 1357 05e4 44       		.byte	0x44
 1358 05e5 08       		.uleb128 0x8
 1359 05e6 723600   		.ascii	"r6\000"
 1360 05e9 0D       		.byte	0xd
 1361 05ea 0901     		.2byte	0x109
 1362 05ec CC040000 		.4byte	0x4cc
 1363 05f0 48       		.byte	0x48
 1364 05f1 08       		.uleb128 0x8
 1365 05f2 723700   		.ascii	"r7\000"
 1366 05f5 0D       		.byte	0xd
 1367 05f6 0A01     		.2byte	0x10a
 1368 05f8 CC040000 		.4byte	0x4cc
 1369 05fc 4C       		.byte	0x4c
 1370 05fd 08       		.uleb128 0x8
 1371 05fe 723800   		.ascii	"r8\000"
 1372 0601 0D       		.byte	0xd
 1373 0602 0B01     		.2byte	0x10b
 1374 0604 CC040000 		.4byte	0x4cc
 1375 0608 50       		.byte	0x50
 1376 0609 08       		.uleb128 0x8
 1377 060a 723900   		.ascii	"r9\000"
 1378 060d 0D       		.byte	0xd
 1379 060e 0C01     		.2byte	0x10c
 1380 0610 CC040000 		.4byte	0x4cc
 1381 0614 54       		.byte	0x54
 1382 0615 08       		.uleb128 0x8
 1383 0616 72313000 		.ascii	"r10\000"
 1384 061a 0D       		.byte	0xd
 1385 061b 0D01     		.2byte	0x10d
 1386 061d CC040000 		.4byte	0x4cc
 1387 0621 58       		.byte	0x58
 1388 0622 08       		.uleb128 0x8
 1389 0623 72313100 		.ascii	"r11\000"
 1390 0627 0D       		.byte	0xd
 1391 0628 0E01     		.2byte	0x10e
 1392 062a CC040000 		.4byte	0x4cc
 1393 062e 5C       		.byte	0x5c
 1394 062f 08       		.uleb128 0x8
 1395 0630 6C7200   		.ascii	"lr\000"
 1396 0633 0D       		.byte	0xd
 1397 0634 0F01     		.2byte	0x10f
 1398 0636 CC040000 		.4byte	0x4cc
 1399 063a 60       		.byte	0x60
 1400 063b 00       		.byte	0
 1401 063c 0B       		.uleb128 0xb
 1402 063d 04       		.byte	0x4
 1403 063e FB040000 		.4byte	0x4fb
 1404 0642 04       		.uleb128 0x4
 1405 0643 01       		.byte	0x1
 1406 0644 08       		.byte	0x8
 1407 0645 D1060000 		.4byte	.LASF87
 1408 0649 0B       		.uleb128 0xb
 1409 064a 04       		.byte	0x4
 1410 064b 4F060000 		.4byte	0x64f
 1411 064f 13       		.uleb128 0x13
ARM GAS  C:\Users\jo\AppData\Local\Temp\ccuk5psZ.s 			page 26


 1412 0650 42060000 		.4byte	0x642
 1413 0654 14       		.uleb128 0x14
 1414 0655 42060000 		.4byte	0x642
 1415 0659 64060000 		.4byte	0x664
 1416 065d 15       		.uleb128 0x15
 1417 065e 56040000 		.4byte	0x456
 1418 0662 07       		.byte	0x7
 1419 0663 00       		.byte	0
 1420 0664 16       		.uleb128 0x16
 1421 0665 04       		.byte	0x4
 1422 0666 0E       		.byte	0xe
 1423 0667 38       		.byte	0x38
 1424 0668 79060000 		.4byte	0x679
 1425 066c 07       		.uleb128 0x7
 1426 066d 99070000 		.4byte	.LASF88
 1427 0671 0E       		.byte	0xe
 1428 0672 3C       		.byte	0x3c
 1429 0673 EE000000 		.4byte	0xee
 1430 0677 00       		.byte	0
 1431 0678 00       		.byte	0
 1432 0679 03       		.uleb128 0x3
 1433 067a 0B040000 		.4byte	.LASF89
 1434 067e 0E       		.byte	0xe
 1435 067f 3D       		.byte	0x3d
 1436 0680 64060000 		.4byte	0x664
 1437 0684 0B       		.uleb128 0xb
 1438 0685 04       		.byte	0x4
 1439 0686 51010000 		.4byte	0x151
 1440 068a 17       		.uleb128 0x17
 1441 068b 04       		.byte	0x4
 1442 068c 0A       		.byte	0xa
 1443 068d F6       		.byte	0xf6
 1444 068e C2060000 		.4byte	0x6c2
 1445 0692 18       		.uleb128 0x18
 1446 0693 2B000000 		.4byte	.LASF90
 1447 0697 0A       		.byte	0xa
 1448 0698 FD       		.byte	0xfd
 1449 0699 25010000 		.4byte	0x125
 1450 069d 19       		.uleb128 0x19
 1451 069e B9000000 		.4byte	.LASF91
 1452 06a2 0A       		.byte	0xa
 1453 06a3 0401     		.2byte	0x104
 1454 06a5 25010000 		.4byte	0x125
 1455 06a9 19       		.uleb128 0x19
 1456 06aa 65080000 		.4byte	.LASF92
 1457 06ae 0A       		.byte	0xa
 1458 06af 0B01     		.2byte	0x10b
 1459 06b1 20030000 		.4byte	0x320
 1460 06b5 19       		.uleb128 0x19
 1461 06b6 30060000 		.4byte	.LASF93
 1462 06ba 0A       		.byte	0xa
 1463 06bb 1201     		.2byte	0x112
 1464 06bd 30010000 		.4byte	0x130
 1465 06c1 00       		.byte	0
 1466 06c2 06       		.uleb128 0x6
 1467 06c3 B9050000 		.4byte	.LASF94
 1468 06c7 10       		.byte	0x10
ARM GAS  C:\Users\jo\AppData\Local\Temp\ccuk5psZ.s 			page 27


 1469 06c8 0F       		.byte	0xf
 1470 06c9 39       		.byte	0x39
 1471 06ca F3060000 		.4byte	0x6f3
 1472 06ce 07       		.uleb128 0x7
 1473 06cf 6E010000 		.4byte	.LASF95
 1474 06d3 0F       		.byte	0xf
 1475 06d4 3A       		.byte	0x3a
 1476 06d5 6D020000 		.4byte	0x26d
 1477 06d9 00       		.byte	0
 1478 06da 07       		.uleb128 0x7
 1479 06db D3080000 		.4byte	.LASF96
 1480 06df 0F       		.byte	0xf
 1481 06e0 3C       		.byte	0x3c
 1482 06e1 84060000 		.4byte	0x684
 1483 06e5 08       		.byte	0x8
 1484 06e6 07       		.uleb128 0x7
 1485 06e7 51070000 		.4byte	.LASF97
 1486 06eb 0F       		.byte	0xf
 1487 06ec 3E       		.byte	0x3e
 1488 06ed 34070000 		.4byte	0x734
 1489 06f1 0C       		.byte	0xc
 1490 06f2 00       		.byte	0
 1491 06f3 0B       		.uleb128 0xb
 1492 06f4 04       		.byte	0x4
 1493 06f5 C2060000 		.4byte	0x6c2
 1494 06f9 0B       		.uleb128 0xb
 1495 06fa 04       		.byte	0x4
 1496 06fb 22030000 		.4byte	0x322
 1497 06ff 05       		.uleb128 0x5
 1498 0700 49060000 		.4byte	0x649
 1499 0704 14       		.uleb128 0x14
 1500 0705 D7040000 		.4byte	0x4d7
 1501 0709 14070000 		.4byte	0x714
 1502 070d 15       		.uleb128 0x15
 1503 070e 56040000 		.4byte	0x456
 1504 0712 2B       		.byte	0x2b
 1505 0713 00       		.byte	0
 1506 0714 0B       		.uleb128 0xb
 1507 0715 04       		.byte	0x4
 1508 0716 1A070000 		.4byte	0x71a
 1509 071a 1A       		.uleb128 0x1a
 1510 071b 25010000 		.4byte	0x125
 1511 071f 29070000 		.4byte	0x729
 1512 0723 0D       		.uleb128 0xd
 1513 0724 20030000 		.4byte	0x320
 1514 0728 00       		.byte	0
 1515 0729 03       		.uleb128 0x3
 1516 072a 41020000 		.4byte	.LASF98
 1517 072e 0F       		.byte	0xf
 1518 072f 34       		.byte	0x34
 1519 0730 C2060000 		.4byte	0x6c2
 1520 0734 0B       		.uleb128 0xb
 1521 0735 04       		.byte	0x4
 1522 0736 29070000 		.4byte	0x729
 1523 073a 03       		.uleb128 0x3
 1524 073b A0070000 		.4byte	.LASF99
 1525 073f 02       		.byte	0x2
ARM GAS  C:\Users\jo\AppData\Local\Temp\ccuk5psZ.s 			page 28


 1526 0740 34       		.byte	0x34
 1527 0741 45070000 		.4byte	0x745
 1528 0745 06       		.uleb128 0x6
 1529 0746 F8080000 		.4byte	.LASF100
 1530 074a 14       		.byte	0x14
 1531 074b 02       		.byte	0x2
 1532 074c 39       		.byte	0x39
 1533 074d 8E070000 		.4byte	0x78e
 1534 0751 07       		.uleb128 0x7
 1535 0752 21030000 		.4byte	.LASF101
 1536 0756 02       		.byte	0x2
 1537 0757 3A       		.byte	0x3a
 1538 0758 8E070000 		.4byte	0x78e
 1539 075c 00       		.byte	0
 1540 075d 07       		.uleb128 0x7
 1541 075e F8050000 		.4byte	.LASF102
 1542 0762 02       		.byte	0x2
 1543 0763 3D       		.byte	0x3d
 1544 0764 84060000 		.4byte	0x684
 1545 0768 04       		.byte	0x4
 1546 0769 07       		.uleb128 0x7
 1547 076a 55050000 		.4byte	.LASF103
 1548 076e 02       		.byte	0x2
 1549 076f 3F       		.byte	0x3f
 1550 0770 30010000 		.4byte	0x130
 1551 0774 08       		.byte	0x8
 1552 0775 07       		.uleb128 0x7
 1553 0776 04060000 		.4byte	.LASF104
 1554 077a 02       		.byte	0x2
 1555 077b 41       		.byte	0x41
 1556 077c 3B010000 		.4byte	0x13b
 1557 0780 0C       		.byte	0xc
 1558 0781 07       		.uleb128 0x7
 1559 0782 0A030000 		.4byte	.LASF105
 1560 0786 02       		.byte	0x2
 1561 0787 43       		.byte	0x43
 1562 0788 3B010000 		.4byte	0x13b
 1563 078c 10       		.byte	0x10
 1564 078d 00       		.byte	0
 1565 078e 0B       		.uleb128 0xb
 1566 078f 04       		.byte	0x4
 1567 0790 3A070000 		.4byte	0x73a
 1568 0794 06       		.uleb128 0x6
 1569 0795 9B010000 		.4byte	.LASF106
 1570 0799 04       		.byte	0x4
 1571 079a 02       		.byte	0x2
 1572 079b 4A       		.byte	0x4a
 1573 079c AD070000 		.4byte	0x7ad
 1574 07a0 07       		.uleb128 0x7
 1575 07a1 1C080000 		.4byte	.LASF107
 1576 07a5 02       		.byte	0x2
 1577 07a6 4B       		.byte	0x4b
 1578 07a7 8E070000 		.4byte	0x78e
 1579 07ab 00       		.byte	0
 1580 07ac 00       		.byte	0
 1581 07ad 03       		.uleb128 0x3
 1582 07ae 58020000 		.4byte	.LASF108
ARM GAS  C:\Users\jo\AppData\Local\Temp\ccuk5psZ.s 			page 29


 1583 07b2 02       		.byte	0x2
 1584 07b3 4E       		.byte	0x4e
 1585 07b4 94070000 		.4byte	0x794
 1586 07b8 03       		.uleb128 0x3
 1587 07b9 FA000000 		.4byte	.LASF109
 1588 07bd 10       		.byte	0x10
 1589 07be 3F       		.byte	0x3f
 1590 07bf C3070000 		.4byte	0x7c3
 1591 07c3 06       		.uleb128 0x6
 1592 07c4 4F020000 		.4byte	.LASF110
 1593 07c8 24       		.byte	0x24
 1594 07c9 10       		.byte	0x10
 1595 07ca 4D       		.byte	0x4d
 1596 07cb 30080000 		.4byte	0x830
 1597 07cf 07       		.uleb128 0x7
 1598 07d0 29010000 		.4byte	.LASF111
 1599 07d4 10       		.byte	0x10
 1600 07d5 4E       		.byte	0x4e
 1601 07d6 6D020000 		.4byte	0x26d
 1602 07da 00       		.byte	0
 1603 07db 07       		.uleb128 0x7
 1604 07dc D1030000 		.4byte	.LASF112
 1605 07e0 10       		.byte	0x10
 1606 07e1 4F       		.byte	0x4f
 1607 07e2 2C000000 		.4byte	0x2c
 1608 07e6 08       		.byte	0x8
 1609 07e7 07       		.uleb128 0x7
 1610 07e8 BA010000 		.4byte	.LASF113
 1611 07ec 10       		.byte	0x10
 1612 07ed 50       		.byte	0x50
 1613 07ee 52080000 		.4byte	0x852
 1614 07f2 0C       		.byte	0xc
 1615 07f3 07       		.uleb128 0x7
 1616 07f4 0F080000 		.4byte	.LASF114
 1617 07f8 10       		.byte	0x10
 1618 07f9 51       		.byte	0x51
 1619 07fa 52080000 		.4byte	0x852
 1620 07fe 10       		.byte	0x10
 1621 07ff 07       		.uleb128 0x7
 1622 0800 F8020000 		.4byte	.LASF115
 1623 0804 10       		.byte	0x10
 1624 0805 53       		.byte	0x53
 1625 0806 52080000 		.4byte	0x852
 1626 080a 14       		.byte	0x14
 1627 080b 07       		.uleb128 0x7
 1628 080c B1050000 		.4byte	.LASF116
 1629 0810 10       		.byte	0x10
 1630 0811 54       		.byte	0x54
 1631 0812 52080000 		.4byte	0x852
 1632 0816 18       		.byte	0x18
 1633 0817 07       		.uleb128 0x7
 1634 0818 31080000 		.4byte	.LASF117
 1635 081c 10       		.byte	0x10
 1636 081d 55       		.byte	0x55
 1637 081e 30080000 		.4byte	0x830
 1638 0822 1C       		.byte	0x1c
 1639 0823 07       		.uleb128 0x7
ARM GAS  C:\Users\jo\AppData\Local\Temp\ccuk5psZ.s 			page 30


 1640 0824 AF080000 		.4byte	.LASF118
 1641 0828 10       		.byte	0x10
 1642 0829 56       		.byte	0x56
 1643 082a 20030000 		.4byte	0x320
 1644 082e 20       		.byte	0x20
 1645 082f 00       		.byte	0
 1646 0830 03       		.uleb128 0x3
 1647 0831 72030000 		.4byte	.LASF119
 1648 0835 10       		.byte	0x10
 1649 0836 42       		.byte	0x42
 1650 0837 3B080000 		.4byte	0x83b
 1651 083b 0B       		.uleb128 0xb
 1652 083c 04       		.byte	0x4
 1653 083d 41080000 		.4byte	0x841
 1654 0841 0C       		.uleb128 0xc
 1655 0842 4C080000 		.4byte	0x84c
 1656 0846 0D       		.uleb128 0xd
 1657 0847 4C080000 		.4byte	0x84c
 1658 084b 00       		.byte	0
 1659 084c 0B       		.uleb128 0xb
 1660 084d 04       		.byte	0x4
 1661 084e B8070000 		.4byte	0x7b8
 1662 0852 0B       		.uleb128 0xb
 1663 0853 04       		.byte	0x4
 1664 0854 AD000000 		.4byte	0xad
 1665 0858 03       		.uleb128 0x3
 1666 0859 9E030000 		.4byte	.LASF120
 1667 085d 10       		.byte	0x10
 1668 085e 64       		.byte	0x64
 1669 085f B8070000 		.4byte	0x7b8
 1670 0863 03       		.uleb128 0x3
 1671 0864 DB030000 		.4byte	.LASF121
 1672 0868 10       		.byte	0x10
 1673 0869 71       		.byte	0x71
 1674 086a B8070000 		.4byte	0x7b8
 1675 086e 1A       		.uleb128 0x1a
 1676 086f 2C000000 		.4byte	0x2c
 1677 0873 87080000 		.4byte	0x887
 1678 0877 0D       		.uleb128 0xd
 1679 0878 20030000 		.4byte	0x320
 1680 087c 0D       		.uleb128 0xd
 1681 087d 87080000 		.4byte	0x887
 1682 0881 0D       		.uleb128 0xd
 1683 0882 2C000000 		.4byte	0x2c
 1684 0886 00       		.byte	0
 1685 0887 0B       		.uleb128 0xb
 1686 0888 04       		.byte	0x4
 1687 0889 8D080000 		.4byte	0x88d
 1688 088d 13       		.uleb128 0x13
 1689 088e AD000000 		.4byte	0xad
 1690 0892 0B       		.uleb128 0xb
 1691 0893 04       		.byte	0x4
 1692 0894 6E080000 		.4byte	0x86e
 1693 0898 1A       		.uleb128 0x1a
 1694 0899 2C000000 		.4byte	0x2c
 1695 089d B1080000 		.4byte	0x8b1
 1696 08a1 0D       		.uleb128 0xd
ARM GAS  C:\Users\jo\AppData\Local\Temp\ccuk5psZ.s 			page 31


 1697 08a2 20030000 		.4byte	0x320
 1698 08a6 0D       		.uleb128 0xd
 1699 08a7 52080000 		.4byte	0x852
 1700 08ab 0D       		.uleb128 0xd
 1701 08ac 2C000000 		.4byte	0x2c
 1702 08b0 00       		.byte	0
 1703 08b1 0B       		.uleb128 0xb
 1704 08b2 04       		.byte	0x4
 1705 08b3 98080000 		.4byte	0x898
 1706 08b7 1A       		.uleb128 0x1a
 1707 08b8 25010000 		.4byte	0x125
 1708 08bc CB080000 		.4byte	0x8cb
 1709 08c0 0D       		.uleb128 0xd
 1710 08c1 20030000 		.4byte	0x320
 1711 08c5 0D       		.uleb128 0xd
 1712 08c6 AD000000 		.4byte	0xad
 1713 08ca 00       		.byte	0
 1714 08cb 0B       		.uleb128 0xb
 1715 08cc 04       		.byte	0x4
 1716 08cd B7080000 		.4byte	0x8b7
 1717 08d1 1A       		.uleb128 0x1a
 1718 08d2 25010000 		.4byte	0x125
 1719 08d6 EA080000 		.4byte	0x8ea
 1720 08da 0D       		.uleb128 0xd
 1721 08db 20030000 		.4byte	0x320
 1722 08df 0D       		.uleb128 0xd
 1723 08e0 AD000000 		.4byte	0xad
 1724 08e4 0D       		.uleb128 0xd
 1725 08e5 46010000 		.4byte	0x146
 1726 08e9 00       		.byte	0
 1727 08ea 0B       		.uleb128 0xb
 1728 08eb 04       		.byte	0x4
 1729 08ec D1080000 		.4byte	0x8d1
 1730 08f0 1A       		.uleb128 0x1a
 1731 08f1 25010000 		.4byte	0x125
 1732 08f5 04090000 		.4byte	0x904
 1733 08f9 0D       		.uleb128 0xd
 1734 08fa 20030000 		.4byte	0x320
 1735 08fe 0D       		.uleb128 0xd
 1736 08ff 46010000 		.4byte	0x146
 1737 0903 00       		.byte	0
 1738 0904 0B       		.uleb128 0xb
 1739 0905 04       		.byte	0x4
 1740 0906 F0080000 		.4byte	0x8f0
 1741 090a 1A       		.uleb128 0x1a
 1742 090b 2C000000 		.4byte	0x2c
 1743 090f 28090000 		.4byte	0x928
 1744 0913 0D       		.uleb128 0xd
 1745 0914 20030000 		.4byte	0x320
 1746 0918 0D       		.uleb128 0xd
 1747 0919 87080000 		.4byte	0x887
 1748 091d 0D       		.uleb128 0xd
 1749 091e 2C000000 		.4byte	0x2c
 1750 0922 0D       		.uleb128 0xd
 1751 0923 46010000 		.4byte	0x146
 1752 0927 00       		.byte	0
 1753 0928 0B       		.uleb128 0xb
ARM GAS  C:\Users\jo\AppData\Local\Temp\ccuk5psZ.s 			page 32


 1754 0929 04       		.byte	0x4
 1755 092a 0A090000 		.4byte	0x90a
 1756 092e 1A       		.uleb128 0x1a
 1757 092f 2C000000 		.4byte	0x2c
 1758 0933 4C090000 		.4byte	0x94c
 1759 0937 0D       		.uleb128 0xd
 1760 0938 20030000 		.4byte	0x320
 1761 093c 0D       		.uleb128 0xd
 1762 093d 52080000 		.4byte	0x852
 1763 0941 0D       		.uleb128 0xd
 1764 0942 2C000000 		.4byte	0x2c
 1765 0946 0D       		.uleb128 0xd
 1766 0947 46010000 		.4byte	0x146
 1767 094b 00       		.byte	0
 1768 094c 0B       		.uleb128 0xb
 1769 094d 04       		.byte	0x4
 1770 094e 2E090000 		.4byte	0x92e
 1771 0952 04       		.uleb128 0x4
 1772 0953 01       		.byte	0x1
 1773 0954 02       		.byte	0x2
 1774 0955 CF050000 		.4byte	.LASF122
 1775 0959 1B       		.uleb128 0x1b
 1776 095a 01       		.byte	0x1
 1777 095b 11       		.byte	0x11
 1778 095c 58       		.byte	0x58
 1779 095d 74090000 		.4byte	0x974
 1780 0961 1C       		.uleb128 0x1c
 1781 0962 82060000 		.4byte	.LASF123
 1782 0966 00       		.sleb128 0
 1783 0967 1C       		.uleb128 0x1c
 1784 0968 D8010000 		.4byte	.LASF124
 1785 096c 01       		.sleb128 1
 1786 096d 1C       		.uleb128 0x1c
 1787 096e 77050000 		.4byte	.LASF125
 1788 0972 02       		.sleb128 2
 1789 0973 00       		.byte	0
 1790 0974 03       		.uleb128 0x3
 1791 0975 05080000 		.4byte	.LASF126
 1792 0979 11       		.byte	0x11
 1793 097a 5C       		.byte	0x5c
 1794 097b 59090000 		.4byte	0x959
 1795 097f 03       		.uleb128 0x3
 1796 0980 AD060000 		.4byte	.LASF127
 1797 0984 11       		.byte	0x11
 1798 0985 61       		.byte	0x61
 1799 0986 8A090000 		.4byte	0x98a
 1800 098a 06       		.uleb128 0x6
 1801 098b AD060000 		.4byte	.LASF127
 1802 098f 78       		.byte	0x78
 1803 0990 11       		.byte	0x11
 1804 0991 7B       		.byte	0x7b
 1805 0992 F5090000 		.4byte	0x9f5
 1806 0996 12       		.uleb128 0x12
 1807 0997 766D7400 		.ascii	"vmt\000"
 1808 099b 11       		.byte	0x11
 1809 099c 7D       		.byte	0x7d
 1810 099d A60A0000 		.4byte	0xaa6
ARM GAS  C:\Users\jo\AppData\Local\Temp\ccuk5psZ.s 			page 33


 1811 09a1 00       		.byte	0
 1812 09a2 07       		.uleb128 0x7
 1813 09a3 E2020000 		.4byte	.LASF128
 1814 09a7 11       		.byte	0x11
 1815 09a8 7E       		.byte	0x7e
 1816 09a9 AD070000 		.4byte	0x7ad
 1817 09ad 04       		.byte	0x4
 1818 09ae 07       		.uleb128 0x7
 1819 09af 82010000 		.4byte	.LASF129
 1820 09b3 11       		.byte	0x11
 1821 09b4 7E       		.byte	0x7e
 1822 09b5 74090000 		.4byte	0x974
 1823 09b9 08       		.byte	0x8
 1824 09ba 07       		.uleb128 0x7
 1825 09bb 6C080000 		.4byte	.LASF130
 1826 09bf 11       		.byte	0x11
 1827 09c0 7E       		.byte	0x7e
 1828 09c1 58080000 		.4byte	0x858
 1829 09c5 0C       		.byte	0xc
 1830 09c6 07       		.uleb128 0x7
 1831 09c7 1A030000 		.4byte	.LASF131
 1832 09cb 11       		.byte	0x11
 1833 09cc 7E       		.byte	0x7e
 1834 09cd 63080000 		.4byte	0x863
 1835 09d1 30       		.byte	0x30
 1836 09d2 12       		.uleb128 0x12
 1837 09d3 696200   		.ascii	"ib\000"
 1838 09d6 11       		.byte	0x11
 1839 09d7 7E       		.byte	0x7e
 1840 09d8 B10A0000 		.4byte	0xab1
 1841 09dc 54       		.byte	0x54
 1842 09dd 12       		.uleb128 0x12
 1843 09de 6F6200   		.ascii	"ob\000"
 1844 09e1 11       		.byte	0x11
 1845 09e2 7E       		.byte	0x7e
 1846 09e3 B10A0000 		.4byte	0xab1
 1847 09e7 64       		.byte	0x64
 1848 09e8 07       		.uleb128 0x7
 1849 09e9 76020000 		.4byte	.LASF132
 1850 09ed 11       		.byte	0x11
 1851 09ee 7E       		.byte	0x7e
 1852 09ef C10A0000 		.4byte	0xac1
 1853 09f3 74       		.byte	0x74
 1854 09f4 00       		.byte	0
 1855 09f5 16       		.uleb128 0x16
 1856 09f6 0C       		.byte	0xc
 1857 09f7 12       		.byte	0x12
 1858 09f8 D7       		.byte	0xd7
 1859 09f9 2E0A0000 		.4byte	0xa2e
 1860 09fd 07       		.uleb128 0x7
 1861 09fe 6C030000 		.4byte	.LASF133
 1862 0a02 12       		.byte	0x12
 1863 0a03 DB       		.byte	0xdb
 1864 0a04 CE000000 		.4byte	0xce
 1865 0a08 00       		.byte	0
 1866 0a09 12       		.uleb128 0x12
 1867 0a0a 63723100 		.ascii	"cr1\000"
ARM GAS  C:\Users\jo\AppData\Local\Temp\ccuk5psZ.s 			page 34


 1868 0a0e 12       		.byte	0x12
 1869 0a0f E0       		.byte	0xe0
 1870 0a10 B8000000 		.4byte	0xb8
 1871 0a14 04       		.byte	0x4
 1872 0a15 12       		.uleb128 0x12
 1873 0a16 63723200 		.ascii	"cr2\000"
 1874 0a1a 12       		.byte	0x12
 1875 0a1b E4       		.byte	0xe4
 1876 0a1c B8000000 		.4byte	0xb8
 1877 0a20 06       		.byte	0x6
 1878 0a21 12       		.uleb128 0x12
 1879 0a22 63723300 		.ascii	"cr3\000"
 1880 0a26 12       		.byte	0x12
 1881 0a27 E8       		.byte	0xe8
 1882 0a28 B8000000 		.4byte	0xb8
 1883 0a2c 08       		.byte	0x8
 1884 0a2d 00       		.byte	0
 1885 0a2e 03       		.uleb128 0x3
 1886 0a2f 5F050000 		.4byte	.LASF134
 1887 0a33 12       		.byte	0x12
 1888 0a34 E9       		.byte	0xe9
 1889 0a35 F5090000 		.4byte	0x9f5
 1890 0a39 06       		.uleb128 0x6
 1891 0a3a 9A020000 		.4byte	.LASF135
 1892 0a3e 20       		.byte	0x20
 1893 0a3f 11       		.byte	0x11
 1894 0a40 70       		.byte	0x70
 1895 0a41 A60A0000 		.4byte	0xaa6
 1896 0a45 07       		.uleb128 0x7
 1897 0a46 98030000 		.4byte	.LASF136
 1898 0a4a 11       		.byte	0x11
 1899 0a4b 71       		.byte	0x71
 1900 0a4c 92080000 		.4byte	0x892
 1901 0a50 00       		.byte	0
 1902 0a51 07       		.uleb128 0x7
 1903 0a52 CC060000 		.4byte	.LASF137
 1904 0a56 11       		.byte	0x11
 1905 0a57 71       		.byte	0x71
 1906 0a58 B1080000 		.4byte	0x8b1
 1907 0a5c 04       		.byte	0x4
 1908 0a5d 12       		.uleb128 0x12
 1909 0a5e 70757400 		.ascii	"put\000"
 1910 0a62 11       		.byte	0x11
 1911 0a63 71       		.byte	0x71
 1912 0a64 CB080000 		.4byte	0x8cb
 1913 0a68 08       		.byte	0x8
 1914 0a69 12       		.uleb128 0x12
 1915 0a6a 67657400 		.ascii	"get\000"
 1916 0a6e 11       		.byte	0x11
 1917 0a6f 71       		.byte	0x71
 1918 0a70 14070000 		.4byte	0x714
 1919 0a74 0C       		.byte	0xc
 1920 0a75 07       		.uleb128 0x7
 1921 0a76 AC030000 		.4byte	.LASF138
 1922 0a7a 11       		.byte	0x11
 1923 0a7b 71       		.byte	0x71
 1924 0a7c EA080000 		.4byte	0x8ea
ARM GAS  C:\Users\jo\AppData\Local\Temp\ccuk5psZ.s 			page 35


 1925 0a80 10       		.byte	0x10
 1926 0a81 07       		.uleb128 0x7
 1927 0a82 DD020000 		.4byte	.LASF139
 1928 0a86 11       		.byte	0x11
 1929 0a87 71       		.byte	0x71
 1930 0a88 04090000 		.4byte	0x904
 1931 0a8c 14       		.byte	0x14
 1932 0a8d 07       		.uleb128 0x7
 1933 0a8e 43030000 		.4byte	.LASF140
 1934 0a92 11       		.byte	0x11
 1935 0a93 71       		.byte	0x71
 1936 0a94 28090000 		.4byte	0x928
 1937 0a98 18       		.byte	0x18
 1938 0a99 07       		.uleb128 0x7
 1939 0a9a 23010000 		.4byte	.LASF141
 1940 0a9e 11       		.byte	0x11
 1941 0a9f 71       		.byte	0x71
 1942 0aa0 4C090000 		.4byte	0x94c
 1943 0aa4 1C       		.byte	0x1c
 1944 0aa5 00       		.byte	0
 1945 0aa6 0B       		.uleb128 0xb
 1946 0aa7 04       		.byte	0x4
 1947 0aa8 AC0A0000 		.4byte	0xaac
 1948 0aac 13       		.uleb128 0x13
 1949 0aad 390A0000 		.4byte	0xa39
 1950 0ab1 14       		.uleb128 0x14
 1951 0ab2 AD000000 		.4byte	0xad
 1952 0ab6 C10A0000 		.4byte	0xac1
 1953 0aba 15       		.uleb128 0x15
 1954 0abb 56040000 		.4byte	0x456
 1955 0abf 0F       		.byte	0xf
 1956 0ac0 00       		.byte	0
 1957 0ac1 0B       		.uleb128 0xb
 1958 0ac2 04       		.byte	0x4
 1959 0ac3 C0040000 		.4byte	0x4c0
 1960 0ac7 1D       		.uleb128 0x1d
 1961 0ac8 81070000 		.4byte	.LASF146
 1962 0acc 03       		.byte	0x3
 1963 0acd 2002     		.2byte	0x220
 1964 0acf 03       		.byte	0x3
 1965 0ad0 E10A0000 		.4byte	0xae1
 1966 0ad4 1E       		.uleb128 0x1e
 1967 0ad5 49020000 		.4byte	.LASF144
 1968 0ad9 03       		.byte	0x3
 1969 0ada 2002     		.2byte	0x220
 1970 0adc CE000000 		.4byte	0xce
 1971 0ae0 00       		.byte	0
 1972 0ae1 1F       		.uleb128 0x1f
 1973 0ae2 70000000 		.4byte	.LASF142
 1974 0ae6 0D       		.byte	0xd
 1975 0ae7 BB01     		.2byte	0x1bb
 1976 0ae9 03       		.byte	0x3
 1977 0aea 1F       		.uleb128 0x1f
 1978 0aeb 76010000 		.4byte	.LASF143
 1979 0aef 0D       		.byte	0xd
 1980 0af0 C901     		.2byte	0x1c9
 1981 0af2 03       		.byte	0x3
ARM GAS  C:\Users\jo\AppData\Local\Temp\ccuk5psZ.s 			page 36


 1982 0af3 20       		.uleb128 0x20
 1983 0af4 24080000 		.4byte	.LASF185
 1984 0af8 10       		.byte	0x10
 1985 0af9 2C01     		.2byte	0x12c
 1986 0afb 52090000 		.4byte	0x952
 1987 0aff 03       		.byte	0x3
 1988 0b00 110B0000 		.4byte	0xb11
 1989 0b04 21       		.uleb128 0x21
 1990 0b05 69717000 		.ascii	"iqp\000"
 1991 0b09 10       		.byte	0x10
 1992 0b0a 2C01     		.2byte	0x12c
 1993 0b0c 110B0000 		.4byte	0xb11
 1994 0b10 00       		.byte	0
 1995 0b11 0B       		.uleb128 0xb
 1996 0b12 04       		.byte	0x4
 1997 0b13 58080000 		.4byte	0x858
 1998 0b17 1F       		.uleb128 0x1f
 1999 0b18 4F060000 		.4byte	.LASF145
 2000 0b1c 13       		.byte	0x13
 2001 0b1d 2901     		.2byte	0x129
 2002 0b1f 03       		.byte	0x3
 2003 0b20 1D       		.uleb128 0x1d
 2004 0b21 82080000 		.4byte	.LASF147
 2005 0b25 13       		.byte	0x13
 2006 0b26 3501     		.2byte	0x135
 2007 0b28 03       		.byte	0x3
 2008 0b29 3B0B0000 		.4byte	0xb3b
 2009 0b2d 22       		.uleb128 0x22
 2010 0b2e 46060000 		.4byte	.LASF164
 2011 0b32 4B0B0000 		.4byte	0xb4b
 2012 0b36 82080000 		.4byte	.LASF147
 2013 0b3a 00       		.byte	0
 2014 0b3b 14       		.uleb128 0x14
 2015 0b3c 42060000 		.4byte	0x642
 2016 0b40 4B0B0000 		.4byte	0xb4b
 2017 0b44 15       		.uleb128 0x15
 2018 0b45 56040000 		.4byte	0x456
 2019 0b49 0B       		.byte	0xb
 2020 0b4a 00       		.byte	0
 2021 0b4b 13       		.uleb128 0x13
 2022 0b4c 3B0B0000 		.4byte	0xb3b
 2023 0b50 23       		.uleb128 0x23
 2024 0b51 E8020000 		.4byte	.LASF148
 2025 0b55 02       		.byte	0x2
 2026 0b56 AA       		.byte	0xaa
 2027 0b57 03       		.byte	0x3
 2028 0b58 680B0000 		.4byte	0xb68
 2029 0b5c 24       		.uleb128 0x24
 2030 0b5d 65737000 		.ascii	"esp\000"
 2031 0b61 02       		.byte	0x2
 2032 0b62 AA       		.byte	0xaa
 2033 0b63 680B0000 		.4byte	0xb68
 2034 0b67 00       		.byte	0
 2035 0b68 0B       		.uleb128 0xb
 2036 0b69 04       		.byte	0x4
 2037 0b6a AD070000 		.4byte	0x7ad
 2038 0b6e 1D       		.uleb128 0x1d
ARM GAS  C:\Users\jo\AppData\Local\Temp\ccuk5psZ.s 			page 37


 2039 0b6f 5A010000 		.4byte	.LASF149
 2040 0b73 04       		.byte	0x4
 2041 0b74 F102     		.2byte	0x2f1
 2042 0b76 03       		.byte	0x3
 2043 0b77 880B0000 		.4byte	0xb88
 2044 0b7b 21       		.uleb128 0x21
 2045 0b7c 65737000 		.ascii	"esp\000"
 2046 0b80 04       		.byte	0x4
 2047 0b81 F102     		.2byte	0x2f1
 2048 0b83 680B0000 		.4byte	0xb68
 2049 0b87 00       		.byte	0
 2050 0b88 1F       		.uleb128 0x1f
 2051 0b89 35020000 		.4byte	.LASF150
 2052 0b8d 04       		.byte	0x4
 2053 0b8e A701     		.2byte	0x1a7
 2054 0b90 03       		.byte	0x3
 2055 0b91 1F       		.uleb128 0x1f
 2056 0b92 59060000 		.4byte	.LASF151
 2057 0b96 04       		.byte	0x4
 2058 0b97 B201     		.2byte	0x1b2
 2059 0b99 03       		.byte	0x3
 2060 0b9a 1F       		.uleb128 0x1f
 2061 0b9b 80050000 		.4byte	.LASF152
 2062 0b9f 04       		.byte	0x4
 2063 0ba0 1202     		.2byte	0x212
 2064 0ba2 03       		.byte	0x3
 2065 0ba3 1D       		.uleb128 0x1d
 2066 0ba4 A0000000 		.4byte	.LASF153
 2067 0ba8 04       		.byte	0x4
 2068 0ba9 0503     		.2byte	0x305
 2069 0bab 03       		.byte	0x3
 2070 0bac C90B0000 		.4byte	0xbc9
 2071 0bb0 21       		.uleb128 0x21
 2072 0bb1 65737000 		.ascii	"esp\000"
 2073 0bb5 04       		.byte	0x4
 2074 0bb6 0503     		.2byte	0x305
 2075 0bb8 680B0000 		.4byte	0xb68
 2076 0bbc 1E       		.uleb128 0x1e
 2077 0bbd 57080000 		.4byte	.LASF154
 2078 0bc1 04       		.byte	0x4
 2079 0bc2 0603     		.2byte	0x306
 2080 0bc4 3B010000 		.4byte	0x13b
 2081 0bc8 00       		.byte	0
 2082 0bc9 25       		.uleb128 0x25
 2083 0bca 23010000 		.4byte	.LASF141
 2084 0bce 01       		.byte	0x1
 2085 0bcf 5A       		.byte	0x5a
 2086 0bd0 2C000000 		.4byte	0x2c
 2087 0bd4 00000000 		.4byte	.LFB262
 2088 0bd8 06000000 		.4byte	.LFE262-.LFB262
 2089 0bdc 01       		.uleb128 0x1
 2090 0bdd 9C       		.byte	0x9c
 2091 0bde 430C0000 		.4byte	0xc43
 2092 0be2 26       		.uleb128 0x26
 2093 0be3 697000   		.ascii	"ip\000"
 2094 0be6 01       		.byte	0x1
 2095 0be7 5A       		.byte	0x5a
ARM GAS  C:\Users\jo\AppData\Local\Temp\ccuk5psZ.s 			page 38


 2096 0be8 20030000 		.4byte	0x320
 2097 0bec 00000000 		.4byte	.LLST0
 2098 0bf0 26       		.uleb128 0x26
 2099 0bf1 627000   		.ascii	"bp\000"
 2100 0bf4 01       		.byte	0x1
 2101 0bf5 5A       		.byte	0x5a
 2102 0bf6 52080000 		.4byte	0x852
 2103 0bfa 2E000000 		.4byte	.LLST1
 2104 0bfe 26       		.uleb128 0x26
 2105 0bff 6E00     		.ascii	"n\000"
 2106 0c01 01       		.byte	0x1
 2107 0c02 5A       		.byte	0x5a
 2108 0c03 2C000000 		.4byte	0x2c
 2109 0c07 4F000000 		.4byte	.LLST2
 2110 0c0b 27       		.uleb128 0x27
 2111 0c0c DD070000 		.4byte	.LASF155
 2112 0c10 01       		.byte	0x1
 2113 0c11 5A       		.byte	0x5a
 2114 0c12 46010000 		.4byte	0x146
 2115 0c16 70000000 		.4byte	.LLST3
 2116 0c1a 28       		.uleb128 0x28
 2117 0c1b 06000000 		.4byte	.LVL2
 2118 0c1f C7130000 		.4byte	0x13c7
 2119 0c23 29       		.uleb128 0x29
 2120 0c24 01       		.uleb128 0x1
 2121 0c25 53       		.byte	0x53
 2122 0c26 03       		.uleb128 0x3
 2123 0c27 F3       		.byte	0xf3
 2124 0c28 01       		.uleb128 0x1
 2125 0c29 53       		.byte	0x53
 2126 0c2a 29       		.uleb128 0x29
 2127 0c2b 01       		.uleb128 0x1
 2128 0c2c 52       		.byte	0x52
 2129 0c2d 03       		.uleb128 0x3
 2130 0c2e F3       		.byte	0xf3
 2131 0c2f 01       		.uleb128 0x1
 2132 0c30 52       		.byte	0x52
 2133 0c31 29       		.uleb128 0x29
 2134 0c32 01       		.uleb128 0x1
 2135 0c33 51       		.byte	0x51
 2136 0c34 03       		.uleb128 0x3
 2137 0c35 F3       		.byte	0xf3
 2138 0c36 01       		.uleb128 0x1
 2139 0c37 51       		.byte	0x51
 2140 0c38 29       		.uleb128 0x29
 2141 0c39 01       		.uleb128 0x1
 2142 0c3a 50       		.byte	0x50
 2143 0c3b 05       		.uleb128 0x5
 2144 0c3c F3       		.byte	0xf3
 2145 0c3d 01       		.uleb128 0x1
 2146 0c3e 50       		.byte	0x50
 2147 0c3f 23       		.byte	0x23
 2148 0c40 0C       		.uleb128 0xc
 2149 0c41 00       		.byte	0
 2150 0c42 00       		.byte	0
 2151 0c43 25       		.uleb128 0x25
 2152 0c44 CC060000 		.4byte	.LASF137
ARM GAS  C:\Users\jo\AppData\Local\Temp\ccuk5psZ.s 			page 39


 2153 0c48 01       		.byte	0x1
 2154 0c49 3B       		.byte	0x3b
 2155 0c4a 2C000000 		.4byte	0x2c
 2156 0c4e 00000000 		.4byte	.LFB256
 2157 0c52 0A000000 		.4byte	.LFE256-.LFB256
 2158 0c56 01       		.uleb128 0x1
 2159 0c57 9C       		.byte	0x9c
 2160 0c58 AD0C0000 		.4byte	0xcad
 2161 0c5c 26       		.uleb128 0x26
 2162 0c5d 697000   		.ascii	"ip\000"
 2163 0c60 01       		.byte	0x1
 2164 0c61 3B       		.byte	0x3b
 2165 0c62 20030000 		.4byte	0x320
 2166 0c66 91000000 		.4byte	.LLST4
 2167 0c6a 26       		.uleb128 0x26
 2168 0c6b 627000   		.ascii	"bp\000"
 2169 0c6e 01       		.byte	0x1
 2170 0c6f 3B       		.byte	0x3b
 2171 0c70 52080000 		.4byte	0x852
 2172 0c74 BF000000 		.4byte	.LLST5
 2173 0c78 26       		.uleb128 0x26
 2174 0c79 6E00     		.ascii	"n\000"
 2175 0c7b 01       		.byte	0x1
 2176 0c7c 3B       		.byte	0x3b
 2177 0c7d 2C000000 		.4byte	0x2c
 2178 0c81 E0000000 		.4byte	.LLST6
 2179 0c85 28       		.uleb128 0x28
 2180 0c86 0A000000 		.4byte	.LVL5
 2181 0c8a C7130000 		.4byte	0x13c7
 2182 0c8e 29       		.uleb128 0x29
 2183 0c8f 01       		.uleb128 0x1
 2184 0c90 53       		.byte	0x53
 2185 0c91 02       		.uleb128 0x2
 2186 0c92 09       		.byte	0x9
 2187 0c93 FF       		.byte	0xff
 2188 0c94 29       		.uleb128 0x29
 2189 0c95 01       		.uleb128 0x1
 2190 0c96 52       		.byte	0x52
 2191 0c97 03       		.uleb128 0x3
 2192 0c98 F3       		.byte	0xf3
 2193 0c99 01       		.uleb128 0x1
 2194 0c9a 52       		.byte	0x52
 2195 0c9b 29       		.uleb128 0x29
 2196 0c9c 01       		.uleb128 0x1
 2197 0c9d 51       		.byte	0x51
 2198 0c9e 03       		.uleb128 0x3
 2199 0c9f F3       		.byte	0xf3
 2200 0ca0 01       		.uleb128 0x1
 2201 0ca1 51       		.byte	0x51
 2202 0ca2 29       		.uleb128 0x29
 2203 0ca3 01       		.uleb128 0x1
 2204 0ca4 50       		.byte	0x50
 2205 0ca5 05       		.uleb128 0x5
 2206 0ca6 F3       		.byte	0xf3
 2207 0ca7 01       		.uleb128 0x1
 2208 0ca8 50       		.byte	0x50
 2209 0ca9 23       		.byte	0x23
ARM GAS  C:\Users\jo\AppData\Local\Temp\ccuk5psZ.s 			page 40


 2210 0caa 0C       		.uleb128 0xc
 2211 0cab 00       		.byte	0
 2212 0cac 00       		.byte	0
 2213 0cad 25       		.uleb128 0x25
 2214 0cae 43030000 		.4byte	.LASF140
 2215 0cb2 01       		.byte	0x1
 2216 0cb3 55       		.byte	0x55
 2217 0cb4 2C000000 		.4byte	0x2c
 2218 0cb8 00000000 		.4byte	.LFB261
 2219 0cbc 06000000 		.4byte	.LFE261-.LFB261
 2220 0cc0 01       		.uleb128 0x1
 2221 0cc1 9C       		.byte	0x9c
 2222 0cc2 270D0000 		.4byte	0xd27
 2223 0cc6 26       		.uleb128 0x26
 2224 0cc7 697000   		.ascii	"ip\000"
 2225 0cca 01       		.byte	0x1
 2226 0ccb 55       		.byte	0x55
 2227 0ccc 20030000 		.4byte	0x320
 2228 0cd0 01010000 		.4byte	.LLST7
 2229 0cd4 26       		.uleb128 0x26
 2230 0cd5 627000   		.ascii	"bp\000"
 2231 0cd8 01       		.byte	0x1
 2232 0cd9 55       		.byte	0x55
 2233 0cda 87080000 		.4byte	0x887
 2234 0cde 2F010000 		.4byte	.LLST8
 2235 0ce2 26       		.uleb128 0x26
 2236 0ce3 6E00     		.ascii	"n\000"
 2237 0ce5 01       		.byte	0x1
 2238 0ce6 55       		.byte	0x55
 2239 0ce7 2C000000 		.4byte	0x2c
 2240 0ceb 50010000 		.4byte	.LLST9
 2241 0cef 27       		.uleb128 0x27
 2242 0cf0 DD070000 		.4byte	.LASF155
 2243 0cf4 01       		.byte	0x1
 2244 0cf5 55       		.byte	0x55
 2245 0cf6 46010000 		.4byte	0x146
 2246 0cfa 71010000 		.4byte	.LLST10
 2247 0cfe 28       		.uleb128 0x28
 2248 0cff 06000000 		.4byte	.LVL8
 2249 0d03 EB130000 		.4byte	0x13eb
 2250 0d07 29       		.uleb128 0x29
 2251 0d08 01       		.uleb128 0x1
 2252 0d09 53       		.byte	0x53
 2253 0d0a 03       		.uleb128 0x3
 2254 0d0b F3       		.byte	0xf3
 2255 0d0c 01       		.uleb128 0x1
 2256 0d0d 53       		.byte	0x53
 2257 0d0e 29       		.uleb128 0x29
 2258 0d0f 01       		.uleb128 0x1
 2259 0d10 52       		.byte	0x52
 2260 0d11 03       		.uleb128 0x3
 2261 0d12 F3       		.byte	0xf3
 2262 0d13 01       		.uleb128 0x1
 2263 0d14 52       		.byte	0x52
 2264 0d15 29       		.uleb128 0x29
 2265 0d16 01       		.uleb128 0x1
 2266 0d17 51       		.byte	0x51
ARM GAS  C:\Users\jo\AppData\Local\Temp\ccuk5psZ.s 			page 41


 2267 0d18 03       		.uleb128 0x3
 2268 0d19 F3       		.byte	0xf3
 2269 0d1a 01       		.uleb128 0x1
 2270 0d1b 51       		.byte	0x51
 2271 0d1c 29       		.uleb128 0x29
 2272 0d1d 01       		.uleb128 0x1
 2273 0d1e 50       		.byte	0x50
 2274 0d1f 05       		.uleb128 0x5
 2275 0d20 F3       		.byte	0xf3
 2276 0d21 01       		.uleb128 0x1
 2277 0d22 50       		.byte	0x50
 2278 0d23 23       		.byte	0x23
 2279 0d24 30       		.uleb128 0x30
 2280 0d25 00       		.byte	0
 2281 0d26 00       		.byte	0
 2282 0d27 25       		.uleb128 0x25
 2283 0d28 98030000 		.4byte	.LASF136
 2284 0d2c 01       		.byte	0x1
 2285 0d2d 35       		.byte	0x35
 2286 0d2e 2C000000 		.4byte	0x2c
 2287 0d32 00000000 		.4byte	.LFB255
 2288 0d36 0A000000 		.4byte	.LFE255-.LFB255
 2289 0d3a 01       		.uleb128 0x1
 2290 0d3b 9C       		.byte	0x9c
 2291 0d3c 910D0000 		.4byte	0xd91
 2292 0d40 26       		.uleb128 0x26
 2293 0d41 697000   		.ascii	"ip\000"
 2294 0d44 01       		.byte	0x1
 2295 0d45 35       		.byte	0x35
 2296 0d46 20030000 		.4byte	0x320
 2297 0d4a 92010000 		.4byte	.LLST11
 2298 0d4e 26       		.uleb128 0x26
 2299 0d4f 627000   		.ascii	"bp\000"
 2300 0d52 01       		.byte	0x1
 2301 0d53 35       		.byte	0x35
 2302 0d54 87080000 		.4byte	0x887
 2303 0d58 C0010000 		.4byte	.LLST12
 2304 0d5c 26       		.uleb128 0x26
 2305 0d5d 6E00     		.ascii	"n\000"
 2306 0d5f 01       		.byte	0x1
 2307 0d60 35       		.byte	0x35
 2308 0d61 2C000000 		.4byte	0x2c
 2309 0d65 E1010000 		.4byte	.LLST13
 2310 0d69 28       		.uleb128 0x28
 2311 0d6a 0A000000 		.4byte	.LVL11
 2312 0d6e EB130000 		.4byte	0x13eb
 2313 0d72 29       		.uleb128 0x29
 2314 0d73 01       		.uleb128 0x1
 2315 0d74 53       		.byte	0x53
 2316 0d75 02       		.uleb128 0x2
 2317 0d76 09       		.byte	0x9
 2318 0d77 FF       		.byte	0xff
 2319 0d78 29       		.uleb128 0x29
 2320 0d79 01       		.uleb128 0x1
 2321 0d7a 52       		.byte	0x52
 2322 0d7b 03       		.uleb128 0x3
 2323 0d7c F3       		.byte	0xf3
ARM GAS  C:\Users\jo\AppData\Local\Temp\ccuk5psZ.s 			page 42


 2324 0d7d 01       		.uleb128 0x1
 2325 0d7e 52       		.byte	0x52
 2326 0d7f 29       		.uleb128 0x29
 2327 0d80 01       		.uleb128 0x1
 2328 0d81 51       		.byte	0x51
 2329 0d82 03       		.uleb128 0x3
 2330 0d83 F3       		.byte	0xf3
 2331 0d84 01       		.uleb128 0x1
 2332 0d85 51       		.byte	0x51
 2333 0d86 29       		.uleb128 0x29
 2334 0d87 01       		.uleb128 0x1
 2335 0d88 50       		.byte	0x50
 2336 0d89 05       		.uleb128 0x5
 2337 0d8a F3       		.byte	0xf3
 2338 0d8b 01       		.uleb128 0x1
 2339 0d8c 50       		.byte	0x50
 2340 0d8d 23       		.byte	0x23
 2341 0d8e 30       		.uleb128 0x30
 2342 0d8f 00       		.byte	0
 2343 0d90 00       		.byte	0
 2344 0d91 25       		.uleb128 0x25
 2345 0d92 DD020000 		.4byte	.LASF139
 2346 0d96 01       		.byte	0x1
 2347 0d97 50       		.byte	0x50
 2348 0d98 25010000 		.4byte	0x125
 2349 0d9c 00000000 		.4byte	.LFB260
 2350 0da0 06000000 		.4byte	.LFE260-.LFB260
 2351 0da4 01       		.uleb128 0x1
 2352 0da5 9C       		.byte	0x9c
 2353 0da6 E20D0000 		.4byte	0xde2
 2354 0daa 26       		.uleb128 0x26
 2355 0dab 697000   		.ascii	"ip\000"
 2356 0dae 01       		.byte	0x1
 2357 0daf 50       		.byte	0x50
 2358 0db0 20030000 		.4byte	0x320
 2359 0db4 02020000 		.4byte	.LLST14
 2360 0db8 27       		.uleb128 0x27
 2361 0db9 A0080000 		.4byte	.LASF156
 2362 0dbd 01       		.byte	0x1
 2363 0dbe 50       		.byte	0x50
 2364 0dbf 46010000 		.4byte	0x146
 2365 0dc3 30020000 		.4byte	.LLST15
 2366 0dc7 28       		.uleb128 0x28
 2367 0dc8 06000000 		.4byte	.LVL14
 2368 0dcc 15140000 		.4byte	0x1415
 2369 0dd0 29       		.uleb128 0x29
 2370 0dd1 01       		.uleb128 0x1
 2371 0dd2 51       		.byte	0x51
 2372 0dd3 03       		.uleb128 0x3
 2373 0dd4 F3       		.byte	0xf3
 2374 0dd5 01       		.uleb128 0x1
 2375 0dd6 51       		.byte	0x51
 2376 0dd7 29       		.uleb128 0x29
 2377 0dd8 01       		.uleb128 0x1
 2378 0dd9 50       		.byte	0x50
 2379 0dda 05       		.uleb128 0x5
 2380 0ddb F3       		.byte	0xf3
ARM GAS  C:\Users\jo\AppData\Local\Temp\ccuk5psZ.s 			page 43


 2381 0ddc 01       		.uleb128 0x1
 2382 0ddd 50       		.byte	0x50
 2383 0dde 23       		.byte	0x23
 2384 0ddf 0C       		.uleb128 0xc
 2385 0de0 00       		.byte	0
 2386 0de1 00       		.byte	0
 2387 0de2 2A       		.uleb128 0x2a
 2388 0de3 67657400 		.ascii	"get\000"
 2389 0de7 01       		.byte	0x1
 2390 0de8 46       		.byte	0x46
 2391 0de9 25010000 		.4byte	0x125
 2392 0ded 00000000 		.4byte	.LFB258
 2393 0df1 0A000000 		.4byte	.LFE258-.LFB258
 2394 0df5 01       		.uleb128 0x1
 2395 0df6 9C       		.byte	0x9c
 2396 0df7 230E0000 		.4byte	0xe23
 2397 0dfb 26       		.uleb128 0x26
 2398 0dfc 697000   		.ascii	"ip\000"
 2399 0dff 01       		.byte	0x1
 2400 0e00 46       		.byte	0x46
 2401 0e01 20030000 		.4byte	0x320
 2402 0e05 51020000 		.4byte	.LLST16
 2403 0e09 28       		.uleb128 0x28
 2404 0e0a 0A000000 		.4byte	.LVL17
 2405 0e0e 15140000 		.4byte	0x1415
 2406 0e12 29       		.uleb128 0x29
 2407 0e13 01       		.uleb128 0x1
 2408 0e14 51       		.byte	0x51
 2409 0e15 02       		.uleb128 0x2
 2410 0e16 09       		.byte	0x9
 2411 0e17 FF       		.byte	0xff
 2412 0e18 29       		.uleb128 0x29
 2413 0e19 01       		.uleb128 0x1
 2414 0e1a 50       		.byte	0x50
 2415 0e1b 05       		.uleb128 0x5
 2416 0e1c F3       		.byte	0xf3
 2417 0e1d 01       		.uleb128 0x1
 2418 0e1e 50       		.byte	0x50
 2419 0e1f 23       		.byte	0x23
 2420 0e20 0C       		.uleb128 0xc
 2421 0e21 00       		.byte	0
 2422 0e22 00       		.byte	0
 2423 0e23 25       		.uleb128 0x25
 2424 0e24 AC030000 		.4byte	.LASF138
 2425 0e28 01       		.byte	0x1
 2426 0e29 4B       		.byte	0x4b
 2427 0e2a 25010000 		.4byte	0x125
 2428 0e2e 00000000 		.4byte	.LFB259
 2429 0e32 06000000 		.4byte	.LFE259-.LFB259
 2430 0e36 01       		.uleb128 0x1
 2431 0e37 9C       		.byte	0x9c
 2432 0e38 810E0000 		.4byte	0xe81
 2433 0e3c 26       		.uleb128 0x26
 2434 0e3d 697000   		.ascii	"ip\000"
 2435 0e40 01       		.byte	0x1
 2436 0e41 4B       		.byte	0x4b
 2437 0e42 20030000 		.4byte	0x320
ARM GAS  C:\Users\jo\AppData\Local\Temp\ccuk5psZ.s 			page 44


 2438 0e46 7F020000 		.4byte	.LLST17
 2439 0e4a 26       		.uleb128 0x26
 2440 0e4b 6200     		.ascii	"b\000"
 2441 0e4d 01       		.byte	0x1
 2442 0e4e 4B       		.byte	0x4b
 2443 0e4f AD000000 		.4byte	0xad
 2444 0e53 AD020000 		.4byte	.LLST18
 2445 0e57 27       		.uleb128 0x27
 2446 0e58 A0080000 		.4byte	.LASF156
 2447 0e5c 01       		.byte	0x1
 2448 0e5d 4B       		.byte	0x4b
 2449 0e5e 46010000 		.4byte	0x146
 2450 0e62 CE020000 		.4byte	.LLST19
 2451 0e66 28       		.uleb128 0x28
 2452 0e67 06000000 		.4byte	.LVL20
 2453 0e6b 2F140000 		.4byte	0x142f
 2454 0e6f 29       		.uleb128 0x29
 2455 0e70 01       		.uleb128 0x1
 2456 0e71 52       		.byte	0x52
 2457 0e72 03       		.uleb128 0x3
 2458 0e73 F3       		.byte	0xf3
 2459 0e74 01       		.uleb128 0x1
 2460 0e75 52       		.byte	0x52
 2461 0e76 29       		.uleb128 0x29
 2462 0e77 01       		.uleb128 0x1
 2463 0e78 50       		.byte	0x50
 2464 0e79 05       		.uleb128 0x5
 2465 0e7a F3       		.byte	0xf3
 2466 0e7b 01       		.uleb128 0x1
 2467 0e7c 50       		.byte	0x50
 2468 0e7d 23       		.byte	0x23
 2469 0e7e 30       		.uleb128 0x30
 2470 0e7f 00       		.byte	0
 2471 0e80 00       		.byte	0
 2472 0e81 2A       		.uleb128 0x2a
 2473 0e82 70757400 		.ascii	"put\000"
 2474 0e86 01       		.byte	0x1
 2475 0e87 41       		.byte	0x41
 2476 0e88 25010000 		.4byte	0x125
 2477 0e8c 00000000 		.4byte	.LFB257
 2478 0e90 0A000000 		.4byte	.LFE257-.LFB257
 2479 0e94 01       		.uleb128 0x1
 2480 0e95 9C       		.byte	0x9c
 2481 0e96 CF0E0000 		.4byte	0xecf
 2482 0e9a 26       		.uleb128 0x26
 2483 0e9b 697000   		.ascii	"ip\000"
 2484 0e9e 01       		.byte	0x1
 2485 0e9f 41       		.byte	0x41
 2486 0ea0 20030000 		.4byte	0x320
 2487 0ea4 EF020000 		.4byte	.LLST20
 2488 0ea8 26       		.uleb128 0x26
 2489 0ea9 6200     		.ascii	"b\000"
 2490 0eab 01       		.byte	0x1
 2491 0eac 41       		.byte	0x41
 2492 0ead AD000000 		.4byte	0xad
 2493 0eb1 1D030000 		.4byte	.LLST21
 2494 0eb5 28       		.uleb128 0x28
ARM GAS  C:\Users\jo\AppData\Local\Temp\ccuk5psZ.s 			page 45


 2495 0eb6 0A000000 		.4byte	.LVL23
 2496 0eba 2F140000 		.4byte	0x142f
 2497 0ebe 29       		.uleb128 0x29
 2498 0ebf 01       		.uleb128 0x1
 2499 0ec0 52       		.byte	0x52
 2500 0ec1 02       		.uleb128 0x2
 2501 0ec2 09       		.byte	0x9
 2502 0ec3 FF       		.byte	0xff
 2503 0ec4 29       		.uleb128 0x29
 2504 0ec5 01       		.uleb128 0x1
 2505 0ec6 50       		.byte	0x50
 2506 0ec7 05       		.uleb128 0x5
 2507 0ec8 F3       		.byte	0xf3
 2508 0ec9 01       		.uleb128 0x1
 2509 0eca 50       		.byte	0x50
 2510 0ecb 23       		.byte	0x23
 2511 0ecc 30       		.uleb128 0x30
 2512 0ecd 00       		.byte	0
 2513 0ece 00       		.byte	0
 2514 0ecf 2B       		.uleb128 0x2b
 2515 0ed0 A8080000 		.4byte	.LASF157
 2516 0ed4 01       		.byte	0x1
 2517 0ed5 6F       		.byte	0x6f
 2518 0ed6 00000000 		.4byte	.LFB263
 2519 0eda 04000000 		.4byte	.LFE263-.LFB263
 2520 0ede 01       		.uleb128 0x1
 2521 0edf 9C       		.byte	0x9c
 2522 0ee0 EE0E0000 		.4byte	0xeee
 2523 0ee4 2C       		.uleb128 0x2c
 2524 0ee5 04000000 		.4byte	.LVL24
 2525 0ee9 4E140000 		.4byte	0x144e
 2526 0eed 00       		.byte	0
 2527 0eee 2B       		.uleb128 0x2b
 2528 0eef 16010000 		.4byte	.LASF158
 2529 0ef3 01       		.byte	0x1
 2530 0ef4 83       		.byte	0x83
 2531 0ef5 00000000 		.4byte	.LFB264
 2532 0ef9 40000000 		.4byte	.LFE264-.LFB264
 2533 0efd 01       		.uleb128 0x1
 2534 0efe 9C       		.byte	0x9c
 2535 0eff B80F0000 		.4byte	0xfb8
 2536 0f03 26       		.uleb128 0x26
 2537 0f04 73647000 		.ascii	"sdp\000"
 2538 0f08 01       		.byte	0x1
 2539 0f09 83       		.byte	0x83
 2540 0f0a B80F0000 		.4byte	0xfb8
 2541 0f0e 3E030000 		.4byte	.LLST22
 2542 0f12 27       		.uleb128 0x27
 2543 0f13 B5020000 		.4byte	.LASF159
 2544 0f17 01       		.byte	0x1
 2545 0f18 83       		.byte	0x83
 2546 0f19 30080000 		.4byte	0x830
 2547 0f1d 6A030000 		.4byte	.LLST23
 2548 0f21 27       		.uleb128 0x27
 2549 0f22 5D080000 		.4byte	.LASF160
 2550 0f26 01       		.byte	0x1
 2551 0f27 83       		.byte	0x83
ARM GAS  C:\Users\jo\AppData\Local\Temp\ccuk5psZ.s 			page 46


 2552 0f28 30080000 		.4byte	0x830
 2553 0f2c 96030000 		.4byte	.LLST24
 2554 0f30 2D       		.uleb128 0x2d
 2555 0f31 6E0B0000 		.4byte	0xb6e
 2556 0f35 14000000 		.4byte	.LBB66
 2557 0f39 02000000 		.4byte	.LBE66-.LBB66
 2558 0f3d 01       		.byte	0x1
 2559 0f3e 86       		.byte	0x86
 2560 0f3f 670F0000 		.4byte	0xf67
 2561 0f43 2E       		.uleb128 0x2e
 2562 0f44 7B0B0000 		.4byte	0xb7b
 2563 0f48 C2030000 		.4byte	.LLST25
 2564 0f4c 2F       		.uleb128 0x2f
 2565 0f4d 500B0000 		.4byte	0xb50
 2566 0f51 14000000 		.4byte	.LBB67
 2567 0f55 02000000 		.4byte	.LBE67-.LBB67
 2568 0f59 04       		.byte	0x4
 2569 0f5a F302     		.2byte	0x2f3
 2570 0f5c 2E       		.uleb128 0x2e
 2571 0f5d 5C0B0000 		.4byte	0xb5c
 2572 0f61 C2030000 		.4byte	.LLST25
 2573 0f65 00       		.byte	0
 2574 0f66 00       		.byte	0
 2575 0f67 30       		.uleb128 0x30
 2576 0f68 26000000 		.4byte	.LVL30
 2577 0f6c 56140000 		.4byte	0x1456
 2578 0f70 8E0F0000 		.4byte	0xf8e
 2579 0f74 29       		.uleb128 0x29
 2580 0f75 01       		.uleb128 0x1
 2581 0f76 53       		.byte	0x53
 2582 0f77 03       		.uleb128 0x3
 2583 0f78 F3       		.byte	0xf3
 2584 0f79 01       		.uleb128 0x1
 2585 0f7a 51       		.byte	0x51
 2586 0f7b 29       		.uleb128 0x29
 2587 0f7c 01       		.uleb128 0x1
 2588 0f7d 52       		.byte	0x52
 2589 0f7e 01       		.uleb128 0x1
 2590 0f7f 40       		.byte	0x40
 2591 0f80 29       		.uleb128 0x29
 2592 0f81 01       		.uleb128 0x1
 2593 0f82 51       		.byte	0x51
 2594 0f83 03       		.uleb128 0x3
 2595 0f84 74       		.byte	0x74
 2596 0f85 D400     		.sleb128 84
 2597 0f87 29       		.uleb128 0x29
 2598 0f88 01       		.uleb128 0x1
 2599 0f89 50       		.byte	0x50
 2600 0f8a 02       		.uleb128 0x2
 2601 0f8b 74       		.byte	0x74
 2602 0f8c 0C       		.sleb128 12
 2603 0f8d 00       		.byte	0
 2604 0f8e 31       		.uleb128 0x31
 2605 0f8f 38000000 		.4byte	.LVL31
 2606 0f93 7B140000 		.4byte	0x147b
 2607 0f97 29       		.uleb128 0x29
 2608 0f98 01       		.uleb128 0x1
ARM GAS  C:\Users\jo\AppData\Local\Temp\ccuk5psZ.s 			page 47


 2609 0f99 53       		.byte	0x53
 2610 0f9a 02       		.uleb128 0x2
 2611 0f9b 75       		.byte	0x75
 2612 0f9c 00       		.sleb128 0
 2613 0f9d 29       		.uleb128 0x29
 2614 0f9e 01       		.uleb128 0x1
 2615 0f9f 52       		.byte	0x52
 2616 0fa0 01       		.uleb128 0x1
 2617 0fa1 40       		.byte	0x40
 2618 0fa2 29       		.uleb128 0x29
 2619 0fa3 01       		.uleb128 0x1
 2620 0fa4 51       		.byte	0x51
 2621 0fa5 03       		.uleb128 0x3
 2622 0fa6 74       		.byte	0x74
 2623 0fa7 E400     		.sleb128 100
 2624 0fa9 29       		.uleb128 0x29
 2625 0faa 01       		.uleb128 0x1
 2626 0fab 50       		.byte	0x50
 2627 0fac 02       		.uleb128 0x2
 2628 0fad 74       		.byte	0x74
 2629 0fae 30       		.sleb128 48
 2630 0faf 29       		.uleb128 0x29
 2631 0fb0 02       		.uleb128 0x2
 2632 0fb1 7D       		.byte	0x7d
 2633 0fb2 00       		.sleb128 0
 2634 0fb3 02       		.uleb128 0x2
 2635 0fb4 74       		.byte	0x74
 2636 0fb5 00       		.sleb128 0
 2637 0fb6 00       		.byte	0
 2638 0fb7 00       		.byte	0
 2639 0fb8 0B       		.uleb128 0xb
 2640 0fb9 04       		.byte	0x4
 2641 0fba 7F090000 		.4byte	0x97f
 2642 0fbe 2B       		.uleb128 0x2b
 2643 0fbf ED060000 		.4byte	.LASF161
 2644 0fc3 01       		.byte	0x1
 2645 0fc4 96       		.byte	0x96
 2646 0fc5 00000000 		.4byte	.LFB265
 2647 0fc9 1A000000 		.4byte	.LFE265-.LFB265
 2648 0fcd 01       		.uleb128 0x1
 2649 0fce 9C       		.byte	0x9c
 2650 0fcf BB100000 		.4byte	0x10bb
 2651 0fd3 26       		.uleb128 0x26
 2652 0fd4 73647000 		.ascii	"sdp\000"
 2653 0fd8 01       		.byte	0x1
 2654 0fd9 96       		.byte	0x96
 2655 0fda B80F0000 		.4byte	0xfb8
 2656 0fde F2030000 		.4byte	.LLST27
 2657 0fe2 27       		.uleb128 0x27
 2658 0fe3 E6060000 		.4byte	.LASF162
 2659 0fe7 01       		.byte	0x1
 2660 0fe8 96       		.byte	0x96
 2661 0fe9 BB100000 		.4byte	0x10bb
 2662 0fed 10040000 		.4byte	.LLST28
 2663 0ff1 32       		.uleb128 0x32
 2664 0ff2 46060000 		.4byte	.LASF164
 2665 0ff6 C6100000 		.4byte	0x10c6
ARM GAS  C:\Users\jo\AppData\Local\Temp\ccuk5psZ.s 			page 48


 2666 0ffa 33       		.uleb128 0x33
 2667 0ffb 880B0000 		.4byte	0xb88
 2668 0fff 02000000 		.4byte	.LBB69
 2669 1003 00000000 		.4byte	.Ldebug_ranges0+0
 2670 1007 01       		.byte	0x1
 2671 1008 9A       		.byte	0x9a
 2672 1009 47100000 		.4byte	0x1047
 2673 100d 34       		.uleb128 0x34
 2674 100e 170B0000 		.4byte	0xb17
 2675 1012 02000000 		.4byte	.LBB70
 2676 1016 00000000 		.4byte	.Ldebug_ranges0+0
 2677 101a 04       		.byte	0x4
 2678 101b A901     		.2byte	0x1a9
 2679 101d 34       		.uleb128 0x34
 2680 101e E10A0000 		.4byte	0xae1
 2681 1022 02000000 		.4byte	.LBB71
 2682 1026 00000000 		.4byte	.Ldebug_ranges0+0
 2683 102a 13       		.byte	0x13
 2684 102b 2B01     		.2byte	0x12b
 2685 102d 34       		.uleb128 0x34
 2686 102e C70A0000 		.4byte	0xac7
 2687 1032 02000000 		.4byte	.LBB72
 2688 1036 00000000 		.4byte	.Ldebug_ranges0+0
 2689 103a 0D       		.byte	0xd
 2690 103b BE01     		.2byte	0x1be
 2691 103d 35       		.uleb128 0x35
 2692 103e D40A0000 		.4byte	0xad4
 2693 1042 20       		.byte	0x20
 2694 1043 00       		.byte	0
 2695 1044 00       		.byte	0
 2696 1045 00       		.byte	0
 2697 1046 00       		.byte	0
 2698 1047 2D       		.uleb128 0x2d
 2699 1048 910B0000 		.4byte	0xb91
 2700 104c 12000000 		.4byte	.LBB79
 2701 1050 08000000 		.4byte	.LBE79-.LBB79
 2702 1054 01       		.byte	0x1
 2703 1055 9F       		.byte	0x9f
 2704 1056 A3100000 		.4byte	0x10a3
 2705 105a 2F       		.uleb128 0x2f
 2706 105b 200B0000 		.4byte	0xb20
 2707 105f 12000000 		.4byte	.LBB80
 2708 1063 08000000 		.4byte	.LBE80-.LBB80
 2709 1067 04       		.byte	0x4
 2710 1068 B401     		.2byte	0x1b4
 2711 106a 36       		.uleb128 0x36
 2712 106b 12000000 		.4byte	.LBB81
 2713 106f 08000000 		.4byte	.LBE81-.LBB81
 2714 1073 37       		.uleb128 0x37
 2715 1074 2D0B0000 		.4byte	0xb2d
 2716 1078 2F       		.uleb128 0x2f
 2717 1079 EA0A0000 		.4byte	0xaea
 2718 107d 12000000 		.4byte	.LBB82
 2719 1081 08000000 		.4byte	.LBE82-.LBB82
 2720 1085 13       		.byte	0x13
 2721 1086 4101     		.2byte	0x141
 2722 1088 2F       		.uleb128 0x2f
ARM GAS  C:\Users\jo\AppData\Local\Temp\ccuk5psZ.s 			page 49


 2723 1089 C70A0000 		.4byte	0xac7
 2724 108d 12000000 		.4byte	.LBB83
 2725 1091 08000000 		.4byte	.LBE83-.LBB83
 2726 1095 0D       		.byte	0xd
 2727 1096 CC01     		.2byte	0x1cc
 2728 1098 35       		.uleb128 0x35
 2729 1099 D40A0000 		.4byte	0xad4
 2730 109d 00       		.byte	0
 2731 109e 00       		.byte	0
 2732 109f 00       		.byte	0
 2733 10a0 00       		.byte	0
 2734 10a1 00       		.byte	0
 2735 10a2 00       		.byte	0
 2736 10a3 31       		.uleb128 0x31
 2737 10a4 0E000000 		.4byte	.LVL34
 2738 10a8 A0140000 		.4byte	0x14a0
 2739 10ac 29       		.uleb128 0x29
 2740 10ad 01       		.uleb128 0x1
 2741 10ae 51       		.byte	0x51
 2742 10af 03       		.uleb128 0x3
 2743 10b0 F3       		.byte	0xf3
 2744 10b1 01       		.uleb128 0x1
 2745 10b2 51       		.byte	0x51
 2746 10b3 29       		.uleb128 0x29
 2747 10b4 01       		.uleb128 0x1
 2748 10b5 50       		.byte	0x50
 2749 10b6 02       		.uleb128 0x2
 2750 10b7 74       		.byte	0x74
 2751 10b8 00       		.sleb128 0
 2752 10b9 00       		.byte	0
 2753 10ba 00       		.byte	0
 2754 10bb 0B       		.uleb128 0xb
 2755 10bc 04       		.byte	0x4
 2756 10bd C1100000 		.4byte	0x10c1
 2757 10c1 13       		.uleb128 0x13
 2758 10c2 2E0A0000 		.4byte	0xa2e
 2759 10c6 13       		.uleb128 0x13
 2760 10c7 54060000 		.4byte	0x654
 2761 10cb 2B       		.uleb128 0x2b
 2762 10cc 1C040000 		.4byte	.LASF163
 2763 10d0 01       		.byte	0x1
 2764 10d1 AB       		.byte	0xab
 2765 10d2 00000000 		.4byte	.LFB266
 2766 10d6 2E000000 		.4byte	.LFE266-.LFB266
 2767 10da 01       		.uleb128 0x1
 2768 10db 9C       		.byte	0x9c
 2769 10dc F7110000 		.4byte	0x11f7
 2770 10e0 26       		.uleb128 0x26
 2771 10e1 73647000 		.ascii	"sdp\000"
 2772 10e5 01       		.byte	0x1
 2773 10e6 AB       		.byte	0xab
 2774 10e7 B80F0000 		.4byte	0xfb8
 2775 10eb 31040000 		.4byte	.LLST29
 2776 10ef 32       		.uleb128 0x32
 2777 10f0 46060000 		.4byte	.LASF164
 2778 10f4 07120000 		.4byte	0x1207
 2779 10f8 33       		.uleb128 0x33
ARM GAS  C:\Users\jo\AppData\Local\Temp\ccuk5psZ.s 			page 50


 2780 10f9 880B0000 		.4byte	0xb88
 2781 10fd 02000000 		.4byte	.LBB85
 2782 1101 18000000 		.4byte	.Ldebug_ranges0+0x18
 2783 1105 01       		.byte	0x1
 2784 1106 AF       		.byte	0xaf
 2785 1107 45110000 		.4byte	0x1145
 2786 110b 34       		.uleb128 0x34
 2787 110c 170B0000 		.4byte	0xb17
 2788 1110 02000000 		.4byte	.LBB86
 2789 1114 18000000 		.4byte	.Ldebug_ranges0+0x18
 2790 1118 04       		.byte	0x4
 2791 1119 A901     		.2byte	0x1a9
 2792 111b 34       		.uleb128 0x34
 2793 111c E10A0000 		.4byte	0xae1
 2794 1120 02000000 		.4byte	.LBB87
 2795 1124 18000000 		.4byte	.Ldebug_ranges0+0x18
 2796 1128 13       		.byte	0x13
 2797 1129 2B01     		.2byte	0x12b
 2798 112b 34       		.uleb128 0x34
 2799 112c C70A0000 		.4byte	0xac7
 2800 1130 02000000 		.4byte	.LBB88
 2801 1134 18000000 		.4byte	.Ldebug_ranges0+0x18
 2802 1138 0D       		.byte	0xd
 2803 1139 BE01     		.2byte	0x1be
 2804 113b 35       		.uleb128 0x35
 2805 113c D40A0000 		.4byte	0xad4
 2806 1140 20       		.byte	0x20
 2807 1141 00       		.byte	0
 2808 1142 00       		.byte	0
 2809 1143 00       		.byte	0
 2810 1144 00       		.byte	0
 2811 1145 2D       		.uleb128 0x2d
 2812 1146 9A0B0000 		.4byte	0xb9a
 2813 114a 22000000 		.4byte	.LBB95
 2814 114e 04000000 		.4byte	.LBE95-.LBB95
 2815 1152 01       		.byte	0x1
 2816 1153 B6       		.byte	0xb6
 2817 1154 62110000 		.4byte	0x1162
 2818 1158 38       		.uleb128 0x38
 2819 1159 26000000 		.4byte	.LVL40
 2820 115d B7140000 		.4byte	0x14b7
 2821 1161 00       		.byte	0
 2822 1162 2D       		.uleb128 0x2d
 2823 1163 910B0000 		.4byte	0xb91
 2824 1167 26000000 		.4byte	.LBB97
 2825 116b 08000000 		.4byte	.LBE97-.LBB97
 2826 116f 01       		.byte	0x1
 2827 1170 B7       		.byte	0xb7
 2828 1171 BE110000 		.4byte	0x11be
 2829 1175 2F       		.uleb128 0x2f
 2830 1176 200B0000 		.4byte	0xb20
 2831 117a 26000000 		.4byte	.LBB98
 2832 117e 08000000 		.4byte	.LBE98-.LBB98
 2833 1182 04       		.byte	0x4
 2834 1183 B401     		.2byte	0x1b4
 2835 1185 36       		.uleb128 0x36
 2836 1186 26000000 		.4byte	.LBB99
ARM GAS  C:\Users\jo\AppData\Local\Temp\ccuk5psZ.s 			page 51


 2837 118a 08000000 		.4byte	.LBE99-.LBB99
 2838 118e 37       		.uleb128 0x37
 2839 118f 2D0B0000 		.4byte	0xb2d
 2840 1193 2F       		.uleb128 0x2f
 2841 1194 EA0A0000 		.4byte	0xaea
 2842 1198 26000000 		.4byte	.LBB100
 2843 119c 08000000 		.4byte	.LBE100-.LBB100
 2844 11a0 13       		.byte	0x13
 2845 11a1 4101     		.2byte	0x141
 2846 11a3 2F       		.uleb128 0x2f
 2847 11a4 C70A0000 		.4byte	0xac7
 2848 11a8 26000000 		.4byte	.LBB101
 2849 11ac 08000000 		.4byte	.LBE101-.LBB101
 2850 11b0 0D       		.byte	0xd
 2851 11b1 CC01     		.2byte	0x1cc
 2852 11b3 35       		.uleb128 0x35
 2853 11b4 D40A0000 		.4byte	0xad4
 2854 11b8 00       		.byte	0
 2855 11b9 00       		.byte	0
 2856 11ba 00       		.byte	0
 2857 11bb 00       		.byte	0
 2858 11bc 00       		.byte	0
 2859 11bd 00       		.byte	0
 2860 11be 30       		.uleb128 0x30
 2861 11bf 0E000000 		.4byte	.LVL37
 2862 11c3 BF140000 		.4byte	0x14bf
 2863 11c7 D2110000 		.4byte	0x11d2
 2864 11cb 29       		.uleb128 0x29
 2865 11cc 01       		.uleb128 0x1
 2866 11cd 50       		.byte	0x50
 2867 11ce 02       		.uleb128 0x2
 2868 11cf 74       		.byte	0x74
 2869 11d0 00       		.sleb128 0
 2870 11d1 00       		.byte	0
 2871 11d2 30       		.uleb128 0x30
 2872 11d3 1A000000 		.4byte	.LVL38
 2873 11d7 D1140000 		.4byte	0x14d1
 2874 11db E6110000 		.4byte	0x11e6
 2875 11df 29       		.uleb128 0x29
 2876 11e0 01       		.uleb128 0x1
 2877 11e1 50       		.byte	0x50
 2878 11e2 02       		.uleb128 0x2
 2879 11e3 74       		.byte	0x74
 2880 11e4 30       		.sleb128 48
 2881 11e5 00       		.byte	0
 2882 11e6 31       		.uleb128 0x31
 2883 11e7 22000000 		.4byte	.LVL39
 2884 11eb E2140000 		.4byte	0x14e2
 2885 11ef 29       		.uleb128 0x29
 2886 11f0 01       		.uleb128 0x1
 2887 11f1 50       		.byte	0x50
 2888 11f2 02       		.uleb128 0x2
 2889 11f3 74       		.byte	0x74
 2890 11f4 0C       		.sleb128 12
 2891 11f5 00       		.byte	0
 2892 11f6 00       		.byte	0
 2893 11f7 14       		.uleb128 0x14
ARM GAS  C:\Users\jo\AppData\Local\Temp\ccuk5psZ.s 			page 52


 2894 11f8 42060000 		.4byte	0x642
 2895 11fc 07120000 		.4byte	0x1207
 2896 1200 15       		.uleb128 0x15
 2897 1201 56040000 		.4byte	0x456
 2898 1205 06       		.byte	0x6
 2899 1206 00       		.byte	0
 2900 1207 13       		.uleb128 0x13
 2901 1208 F7110000 		.4byte	0x11f7
 2902 120c 2B       		.uleb128 0x2b
 2903 120d D6060000 		.4byte	.LASF165
 2904 1211 01       		.byte	0x1
 2905 1212 CA       		.byte	0xca
 2906 1213 00000000 		.4byte	.LFB267
 2907 1217 3C000000 		.4byte	.LFE267-.LFB267
 2908 121b 01       		.uleb128 0x1
 2909 121c 9C       		.byte	0x9c
 2910 121d EE120000 		.4byte	0x12ee
 2911 1221 26       		.uleb128 0x26
 2912 1222 73647000 		.ascii	"sdp\000"
 2913 1226 01       		.byte	0x1
 2914 1227 CA       		.byte	0xca
 2915 1228 B80F0000 		.4byte	0xfb8
 2916 122c 4F040000 		.4byte	.LLST30
 2917 1230 26       		.uleb128 0x26
 2918 1231 6200     		.ascii	"b\000"
 2919 1233 01       		.byte	0x1
 2920 1234 CA       		.byte	0xca
 2921 1235 AD000000 		.4byte	0xad
 2922 1239 9E040000 		.4byte	.LLST31
 2923 123d 32       		.uleb128 0x32
 2924 123e 46060000 		.4byte	.LASF164
 2925 1242 FE120000 		.4byte	0x12fe
 2926 1246 2D       		.uleb128 0x2d
 2927 1247 A30B0000 		.4byte	0xba3
 2928 124b 1A000000 		.4byte	.LBB103
 2929 124f 08000000 		.4byte	.LBE103-.LBB103
 2930 1253 01       		.byte	0x1
 2931 1254 D0       		.byte	0xd0
 2932 1255 81120000 		.4byte	0x1281
 2933 1259 2E       		.uleb128 0x2e
 2934 125a BC0B0000 		.4byte	0xbbc
 2935 125e D8040000 		.4byte	.LLST32
 2936 1262 2E       		.uleb128 0x2e
 2937 1263 B00B0000 		.4byte	0xbb0
 2938 1267 EC040000 		.4byte	.LLST33
 2939 126b 31       		.uleb128 0x31
 2940 126c 22000000 		.4byte	.LVL49
 2941 1270 F3140000 		.4byte	0x14f3
 2942 1274 29       		.uleb128 0x29
 2943 1275 01       		.uleb128 0x1
 2944 1276 51       		.byte	0x51
 2945 1277 01       		.uleb128 0x1
 2946 1278 34       		.byte	0x34
 2947 1279 29       		.uleb128 0x29
 2948 127a 01       		.uleb128 0x1
 2949 127b 50       		.byte	0x50
 2950 127c 02       		.uleb128 0x2
ARM GAS  C:\Users\jo\AppData\Local\Temp\ccuk5psZ.s 			page 53


 2951 127d 74       		.byte	0x74
 2952 127e 04       		.sleb128 4
 2953 127f 00       		.byte	0
 2954 1280 00       		.byte	0
 2955 1281 33       		.uleb128 0x33
 2956 1282 A30B0000 		.4byte	0xba3
 2957 1286 30000000 		.4byte	.LBB105
 2958 128a 30000000 		.4byte	.Ldebug_ranges0+0x30
 2959 128e 01       		.byte	0x1
 2960 128f D2       		.byte	0xd2
 2961 1290 BD120000 		.4byte	0x12bd
 2962 1294 35       		.uleb128 0x35
 2963 1295 BC0B0000 		.4byte	0xbbc
 2964 1299 80       		.byte	0x80
 2965 129a 2E       		.uleb128 0x2e
 2966 129b B00B0000 		.4byte	0xbb0
 2967 129f 19050000 		.4byte	.LLST34
 2968 12a3 28       		.uleb128 0x28
 2969 12a4 3C000000 		.4byte	.LVL54
 2970 12a8 F3140000 		.4byte	0x14f3
 2971 12ac 29       		.uleb128 0x29
 2972 12ad 01       		.uleb128 0x1
 2973 12ae 51       		.byte	0x51
 2974 12af 02       		.uleb128 0x2
 2975 12b0 08       		.byte	0x8
 2976 12b1 80       		.byte	0x80
 2977 12b2 29       		.uleb128 0x29
 2978 12b3 01       		.uleb128 0x1
 2979 12b4 50       		.byte	0x50
 2980 12b5 05       		.uleb128 0x5
 2981 12b6 F3       		.byte	0xf3
 2982 12b7 01       		.uleb128 0x1
 2983 12b8 50       		.byte	0x50
 2984 12b9 23       		.byte	0x23
 2985 12ba 04       		.uleb128 0x4
 2986 12bb 00       		.byte	0
 2987 12bc 00       		.byte	0
 2988 12bd 30       		.uleb128 0x30
 2989 12be 14000000 		.4byte	.LVL45
 2990 12c2 09150000 		.4byte	0x1509
 2991 12c6 D7120000 		.4byte	0x12d7
 2992 12ca 29       		.uleb128 0x29
 2993 12cb 01       		.uleb128 0x1
 2994 12cc 51       		.byte	0x51
 2995 12cd 02       		.uleb128 0x2
 2996 12ce 75       		.byte	0x75
 2997 12cf 00       		.sleb128 0
 2998 12d0 29       		.uleb128 0x29
 2999 12d1 01       		.uleb128 0x1
 3000 12d2 50       		.byte	0x50
 3001 12d3 02       		.uleb128 0x2
 3002 12d4 74       		.byte	0x74
 3003 12d5 0C       		.sleb128 12
 3004 12d6 00       		.byte	0
 3005 12d7 31       		.uleb128 0x31
 3006 12d8 2C000000 		.4byte	.LVL50
 3007 12dc 09150000 		.4byte	0x1509
ARM GAS  C:\Users\jo\AppData\Local\Temp\ccuk5psZ.s 			page 54


 3008 12e0 29       		.uleb128 0x29
 3009 12e1 01       		.uleb128 0x1
 3010 12e2 51       		.byte	0x51
 3011 12e3 02       		.uleb128 0x2
 3012 12e4 75       		.byte	0x75
 3013 12e5 00       		.sleb128 0
 3014 12e6 29       		.uleb128 0x29
 3015 12e7 01       		.uleb128 0x1
 3016 12e8 50       		.byte	0x50
 3017 12e9 02       		.uleb128 0x2
 3018 12ea 74       		.byte	0x74
 3019 12eb 0C       		.sleb128 12
 3020 12ec 00       		.byte	0
 3021 12ed 00       		.byte	0
 3022 12ee 14       		.uleb128 0x14
 3023 12ef 42060000 		.4byte	0x642
 3024 12f3 FE120000 		.4byte	0x12fe
 3025 12f7 15       		.uleb128 0x15
 3026 12f8 56040000 		.4byte	0x456
 3027 12fc 0F       		.byte	0xf
 3028 12fd 00       		.byte	0
 3029 12fe 13       		.uleb128 0x13
 3030 12ff EE120000 		.4byte	0x12ee
 3031 1303 39       		.uleb128 0x39
 3032 1304 40080000 		.4byte	.LASF186
 3033 1308 01       		.byte	0x1
 3034 1309 E4       		.byte	0xe4
 3035 130a 25010000 		.4byte	0x125
 3036 130e 00000000 		.4byte	.LFB268
 3037 1312 1E000000 		.4byte	.LFE268-.LFB268
 3038 1316 01       		.uleb128 0x1
 3039 1317 9C       		.byte	0x9c
 3040 1318 8A130000 		.4byte	0x138a
 3041 131c 26       		.uleb128 0x26
 3042 131d 73647000 		.ascii	"sdp\000"
 3043 1321 01       		.byte	0x1
 3044 1322 E4       		.byte	0xe4
 3045 1323 B80F0000 		.4byte	0xfb8
 3046 1327 49050000 		.4byte	.LLST35
 3047 132b 3A       		.uleb128 0x3a
 3048 132c 6200     		.ascii	"b\000"
 3049 132e 01       		.byte	0x1
 3050 132f E5       		.byte	0xe5
 3051 1330 25010000 		.4byte	0x125
 3052 1334 67050000 		.4byte	.LLST36
 3053 1338 32       		.uleb128 0x32
 3054 1339 46060000 		.4byte	.LASF164
 3055 133d 9A130000 		.4byte	0x139a
 3056 1341 2D       		.uleb128 0x2d
 3057 1342 A30B0000 		.4byte	0xba3
 3058 1346 12000000 		.4byte	.LBB109
 3059 134a 08000000 		.4byte	.LBE109-.LBB109
 3060 134e 01       		.byte	0x1
 3061 134f EC       		.byte	0xec
 3062 1350 79130000 		.4byte	0x1379
 3063 1354 35       		.uleb128 0x35
 3064 1355 BC0B0000 		.4byte	0xbbc
ARM GAS  C:\Users\jo\AppData\Local\Temp\ccuk5psZ.s 			page 55


 3065 1359 08       		.byte	0x8
 3066 135a 2E       		.uleb128 0x2e
 3067 135b B00B0000 		.4byte	0xbb0
 3068 135f 85050000 		.4byte	.LLST37
 3069 1363 31       		.uleb128 0x31
 3070 1364 1A000000 		.4byte	.LVL60
 3071 1368 F3140000 		.4byte	0x14f3
 3072 136c 29       		.uleb128 0x29
 3073 136d 01       		.uleb128 0x1
 3074 136e 51       		.byte	0x51
 3075 136f 01       		.uleb128 0x1
 3076 1370 38       		.byte	0x38
 3077 1371 29       		.uleb128 0x29
 3078 1372 01       		.uleb128 0x1
 3079 1373 50       		.byte	0x50
 3080 1374 02       		.uleb128 0x2
 3081 1375 74       		.byte	0x74
 3082 1376 04       		.sleb128 4
 3083 1377 00       		.byte	0
 3084 1378 00       		.byte	0
 3085 1379 31       		.uleb128 0x31
 3086 137a 0A000000 		.4byte	.LVL57
 3087 137e 23150000 		.4byte	0x1523
 3088 1382 29       		.uleb128 0x29
 3089 1383 01       		.uleb128 0x1
 3090 1384 50       		.byte	0x50
 3091 1385 02       		.uleb128 0x2
 3092 1386 74       		.byte	0x74
 3093 1387 30       		.sleb128 48
 3094 1388 00       		.byte	0
 3095 1389 00       		.byte	0
 3096 138a 14       		.uleb128 0x14
 3097 138b 42060000 		.4byte	0x642
 3098 138f 9A130000 		.4byte	0x139a
 3099 1393 15       		.uleb128 0x15
 3100 1394 56040000 		.4byte	0x456
 3101 1398 0E       		.byte	0xe
 3102 1399 00       		.byte	0
 3103 139a 13       		.uleb128 0x13
 3104 139b 8A130000 		.4byte	0x138a
 3105 139f 3B       		.uleb128 0x3b
 3106 13a0 766D7400 		.ascii	"vmt\000"
 3107 13a4 01       		.byte	0x1
 3108 13a5 5F       		.byte	0x5f
 3109 13a6 AC0A0000 		.4byte	0xaac
 3110 13aa 05       		.uleb128 0x5
 3111 13ab 03       		.byte	0x3
 3112 13ac 00000000 		.4byte	vmt
 3113 13b0 3C       		.uleb128 0x3c
 3114 13b1 ED000000 		.4byte	.LASF166
 3115 13b5 14       		.byte	0x14
 3116 13b6 A706     		.2byte	0x6a7
 3117 13b8 E4000000 		.4byte	0xe4
 3118 13bc 3D       		.uleb128 0x3d
 3119 13bd 636800   		.ascii	"ch\000"
 3120 13c0 0A       		.byte	0xa
 3121 13c1 EB01     		.2byte	0x1eb
ARM GAS  C:\Users\jo\AppData\Local\Temp\ccuk5psZ.s 			page 56


 3122 13c3 EF030000 		.4byte	0x3ef
 3123 13c7 3E       		.uleb128 0x3e
 3124 13c8 60000000 		.4byte	.LASF167
 3125 13cc 10       		.byte	0x10
 3126 13cd F0       		.byte	0xf0
 3127 13ce 2C000000 		.4byte	0x2c
 3128 13d2 EB130000 		.4byte	0x13eb
 3129 13d6 0D       		.uleb128 0xd
 3130 13d7 110B0000 		.4byte	0xb11
 3131 13db 0D       		.uleb128 0xd
 3132 13dc 52080000 		.4byte	0x852
 3133 13e0 0D       		.uleb128 0xd
 3134 13e1 2C000000 		.4byte	0x2c
 3135 13e5 0D       		.uleb128 0xd
 3136 13e6 46010000 		.4byte	0x146
 3137 13ea 00       		.byte	0
 3138 13eb 3E       		.uleb128 0x3e
 3139 13ec 87030000 		.4byte	.LASF168
 3140 13f0 10       		.byte	0x10
 3141 13f1 F8       		.byte	0xf8
 3142 13f2 2C000000 		.4byte	0x2c
 3143 13f6 0F140000 		.4byte	0x140f
 3144 13fa 0D       		.uleb128 0xd
 3145 13fb 0F140000 		.4byte	0x140f
 3146 13ff 0D       		.uleb128 0xd
 3147 1400 87080000 		.4byte	0x887
 3148 1404 0D       		.uleb128 0xd
 3149 1405 2C000000 		.4byte	0x2c
 3150 1409 0D       		.uleb128 0xd
 3151 140a 46010000 		.4byte	0x146
 3152 140e 00       		.byte	0
 3153 140f 0B       		.uleb128 0xb
 3154 1410 04       		.byte	0x4
 3155 1411 63080000 		.4byte	0x863
 3156 1415 3E       		.uleb128 0x3e
 3157 1416 E9080000 		.4byte	.LASF169
 3158 141a 10       		.byte	0x10
 3159 141b EF       		.byte	0xef
 3160 141c 25010000 		.4byte	0x125
 3161 1420 2F140000 		.4byte	0x142f
 3162 1424 0D       		.uleb128 0xd
 3163 1425 110B0000 		.4byte	0xb11
 3164 1429 0D       		.uleb128 0xd
 3165 142a 46010000 		.4byte	0x146
 3166 142e 00       		.byte	0
 3167 142f 3E       		.uleb128 0x3e
 3168 1430 00000000 		.4byte	.LASF170
 3169 1434 10       		.byte	0x10
 3170 1435 F6       		.byte	0xf6
 3171 1436 25010000 		.4byte	0x125
 3172 143a 4E140000 		.4byte	0x144e
 3173 143e 0D       		.uleb128 0xd
 3174 143f 0F140000 		.4byte	0x140f
 3175 1443 0D       		.uleb128 0xd
 3176 1444 AD000000 		.4byte	0xad
 3177 1448 0D       		.uleb128 0xd
 3178 1449 46010000 		.4byte	0x146
ARM GAS  C:\Users\jo\AppData\Local\Temp\ccuk5psZ.s 			page 57


 3179 144d 00       		.byte	0
 3180 144e 3F       		.uleb128 0x3f
 3181 144f D1020000 		.4byte	.LASF174
 3182 1453 12       		.byte	0x12
 3183 1454 2401     		.2byte	0x124
 3184 1456 40       		.uleb128 0x40
 3185 1457 7A000000 		.4byte	.LASF171
 3186 145b 10       		.byte	0x10
 3187 145c EB       		.byte	0xeb
 3188 145d 7B140000 		.4byte	0x147b
 3189 1461 0D       		.uleb128 0xd
 3190 1462 110B0000 		.4byte	0xb11
 3191 1466 0D       		.uleb128 0xd
 3192 1467 52080000 		.4byte	0x852
 3193 146b 0D       		.uleb128 0xd
 3194 146c 2C000000 		.4byte	0x2c
 3195 1470 0D       		.uleb128 0xd
 3196 1471 30080000 		.4byte	0x830
 3197 1475 0D       		.uleb128 0xd
 3198 1476 20030000 		.4byte	0x320
 3199 147a 00       		.byte	0
 3200 147b 40       		.uleb128 0x40
 3201 147c F6070000 		.4byte	.LASF172
 3202 1480 10       		.byte	0x10
 3203 1481 F3       		.byte	0xf3
 3204 1482 A0140000 		.4byte	0x14a0
 3205 1486 0D       		.uleb128 0xd
 3206 1487 0F140000 		.4byte	0x140f
 3207 148b 0D       		.uleb128 0xd
 3208 148c 52080000 		.4byte	0x852
 3209 1490 0D       		.uleb128 0xd
 3210 1491 2C000000 		.4byte	0x2c
 3211 1495 0D       		.uleb128 0xd
 3212 1496 30080000 		.4byte	0x830
 3213 149a 0D       		.uleb128 0xd
 3214 149b 20030000 		.4byte	0x320
 3215 149f 00       		.byte	0
 3216 14a0 41       		.uleb128 0x41
 3217 14a1 EB050000 		.4byte	.LASF173
 3218 14a5 12       		.byte	0x12
 3219 14a6 2501     		.2byte	0x125
 3220 14a8 B7140000 		.4byte	0x14b7
 3221 14ac 0D       		.uleb128 0xd
 3222 14ad B80F0000 		.4byte	0xfb8
 3223 14b1 0D       		.uleb128 0xd
 3224 14b2 BB100000 		.4byte	0x10bb
 3225 14b6 00       		.byte	0
 3226 14b7 3F       		.uleb128 0x3f
 3227 14b8 FB010000 		.4byte	.LASF175
 3228 14bc 0A       		.byte	0xa
 3229 14bd F901     		.2byte	0x1f9
 3230 14bf 41       		.uleb128 0x41
 3231 14c0 94080000 		.4byte	.LASF176
 3232 14c4 12       		.byte	0x12
 3233 14c5 2601     		.2byte	0x126
 3234 14c7 D1140000 		.4byte	0x14d1
 3235 14cb 0D       		.uleb128 0xd
ARM GAS  C:\Users\jo\AppData\Local\Temp\ccuk5psZ.s 			page 58


 3236 14cc B80F0000 		.4byte	0xfb8
 3237 14d0 00       		.byte	0
 3238 14d1 40       		.uleb128 0x40
 3239 14d2 B1070000 		.4byte	.LASF177
 3240 14d6 10       		.byte	0x10
 3241 14d7 F5       		.byte	0xf5
 3242 14d8 E2140000 		.4byte	0x14e2
 3243 14dc 0D       		.uleb128 0xd
 3244 14dd 0F140000 		.4byte	0x140f
 3245 14e1 00       		.byte	0
 3246 14e2 40       		.uleb128 0x40
 3247 14e3 AA020000 		.4byte	.LASF178
 3248 14e7 10       		.byte	0x10
 3249 14e8 ED       		.byte	0xed
 3250 14e9 F3140000 		.4byte	0x14f3
 3251 14ed 0D       		.uleb128 0xd
 3252 14ee 110B0000 		.4byte	0xb11
 3253 14f2 00       		.byte	0
 3254 14f3 40       		.uleb128 0x40
 3255 14f4 C3010000 		.4byte	.LASF179
 3256 14f8 02       		.byte	0x2
 3257 14f9 87       		.byte	0x87
 3258 14fa 09150000 		.4byte	0x1509
 3259 14fe 0D       		.uleb128 0xd
 3260 14ff 680B0000 		.4byte	0xb68
 3261 1503 0D       		.uleb128 0xd
 3262 1504 3B010000 		.4byte	0x13b
 3263 1508 00       		.byte	0
 3264 1509 3E       		.uleb128 0x3e
 3265 150a 2C020000 		.4byte	.LASF180
 3266 150e 10       		.byte	0x10
 3267 150f EE       		.byte	0xee
 3268 1510 25010000 		.4byte	0x125
 3269 1514 23150000 		.4byte	0x1523
 3270 1518 0D       		.uleb128 0xd
 3271 1519 110B0000 		.4byte	0xb11
 3272 151d 0D       		.uleb128 0xd
 3273 151e AD000000 		.4byte	0xad
 3274 1522 00       		.byte	0
 3275 1523 42       		.uleb128 0x42
 3276 1524 B1010000 		.4byte	.LASF181
 3277 1528 10       		.byte	0x10
 3278 1529 F7       		.byte	0xf7
 3279 152a 25010000 		.4byte	0x125
 3280 152e 0D       		.uleb128 0xd
 3281 152f 0F140000 		.4byte	0x140f
 3282 1533 00       		.byte	0
 3283 1534 00       		.byte	0
 3284              		.section	.debug_abbrev,"",%progbits
 3285              	.Ldebug_abbrev0:
 3286 0000 01       		.uleb128 0x1
 3287 0001 11       		.uleb128 0x11
 3288 0002 01       		.byte	0x1
 3289 0003 25       		.uleb128 0x25
 3290 0004 0E       		.uleb128 0xe
 3291 0005 13       		.uleb128 0x13
 3292 0006 0B       		.uleb128 0xb
ARM GAS  C:\Users\jo\AppData\Local\Temp\ccuk5psZ.s 			page 59


 3293 0007 03       		.uleb128 0x3
 3294 0008 0E       		.uleb128 0xe
 3295 0009 1B       		.uleb128 0x1b
 3296 000a 0E       		.uleb128 0xe
 3297 000b 55       		.uleb128 0x55
 3298 000c 17       		.uleb128 0x17
 3299 000d 11       		.uleb128 0x11
 3300 000e 01       		.uleb128 0x1
 3301 000f 10       		.uleb128 0x10
 3302 0010 17       		.uleb128 0x17
 3303 0011 00       		.byte	0
 3304 0012 00       		.byte	0
 3305 0013 02       		.uleb128 0x2
 3306 0014 24       		.uleb128 0x24
 3307 0015 00       		.byte	0
 3308 0016 0B       		.uleb128 0xb
 3309 0017 0B       		.uleb128 0xb
 3310 0018 3E       		.uleb128 0x3e
 3311 0019 0B       		.uleb128 0xb
 3312 001a 03       		.uleb128 0x3
 3313 001b 08       		.uleb128 0x8
 3314 001c 00       		.byte	0
 3315 001d 00       		.byte	0
 3316 001e 03       		.uleb128 0x3
 3317 001f 16       		.uleb128 0x16
 3318 0020 00       		.byte	0
 3319 0021 03       		.uleb128 0x3
 3320 0022 0E       		.uleb128 0xe
 3321 0023 3A       		.uleb128 0x3a
 3322 0024 0B       		.uleb128 0xb
 3323 0025 3B       		.uleb128 0x3b
 3324 0026 0B       		.uleb128 0xb
 3325 0027 49       		.uleb128 0x49
 3326 0028 13       		.uleb128 0x13
 3327 0029 00       		.byte	0
 3328 002a 00       		.byte	0
 3329 002b 04       		.uleb128 0x4
 3330 002c 24       		.uleb128 0x24
 3331 002d 00       		.byte	0
 3332 002e 0B       		.uleb128 0xb
 3333 002f 0B       		.uleb128 0xb
 3334 0030 3E       		.uleb128 0x3e
 3335 0031 0B       		.uleb128 0xb
 3336 0032 03       		.uleb128 0x3
 3337 0033 0E       		.uleb128 0xe
 3338 0034 00       		.byte	0
 3339 0035 00       		.byte	0
 3340 0036 05       		.uleb128 0x5
 3341 0037 35       		.uleb128 0x35
 3342 0038 00       		.byte	0
 3343 0039 49       		.uleb128 0x49
 3344 003a 13       		.uleb128 0x13
 3345 003b 00       		.byte	0
 3346 003c 00       		.byte	0
 3347 003d 06       		.uleb128 0x6
 3348 003e 13       		.uleb128 0x13
 3349 003f 01       		.byte	0x1
ARM GAS  C:\Users\jo\AppData\Local\Temp\ccuk5psZ.s 			page 60


 3350 0040 03       		.uleb128 0x3
 3351 0041 0E       		.uleb128 0xe
 3352 0042 0B       		.uleb128 0xb
 3353 0043 0B       		.uleb128 0xb
 3354 0044 3A       		.uleb128 0x3a
 3355 0045 0B       		.uleb128 0xb
 3356 0046 3B       		.uleb128 0x3b
 3357 0047 0B       		.uleb128 0xb
 3358 0048 01       		.uleb128 0x1
 3359 0049 13       		.uleb128 0x13
 3360 004a 00       		.byte	0
 3361 004b 00       		.byte	0
 3362 004c 07       		.uleb128 0x7
 3363 004d 0D       		.uleb128 0xd
 3364 004e 00       		.byte	0
 3365 004f 03       		.uleb128 0x3
 3366 0050 0E       		.uleb128 0xe
 3367 0051 3A       		.uleb128 0x3a
 3368 0052 0B       		.uleb128 0xb
 3369 0053 3B       		.uleb128 0x3b
 3370 0054 0B       		.uleb128 0xb
 3371 0055 49       		.uleb128 0x49
 3372 0056 13       		.uleb128 0x13
 3373 0057 38       		.uleb128 0x38
 3374 0058 0B       		.uleb128 0xb
 3375 0059 00       		.byte	0
 3376 005a 00       		.byte	0
 3377 005b 08       		.uleb128 0x8
 3378 005c 0D       		.uleb128 0xd
 3379 005d 00       		.byte	0
 3380 005e 03       		.uleb128 0x3
 3381 005f 08       		.uleb128 0x8
 3382 0060 3A       		.uleb128 0x3a
 3383 0061 0B       		.uleb128 0xb
 3384 0062 3B       		.uleb128 0x3b
 3385 0063 05       		.uleb128 0x5
 3386 0064 49       		.uleb128 0x49
 3387 0065 13       		.uleb128 0x13
 3388 0066 38       		.uleb128 0x38
 3389 0067 0B       		.uleb128 0xb
 3390 0068 00       		.byte	0
 3391 0069 00       		.byte	0
 3392 006a 09       		.uleb128 0x9
 3393 006b 0D       		.uleb128 0xd
 3394 006c 00       		.byte	0
 3395 006d 03       		.uleb128 0x3
 3396 006e 0E       		.uleb128 0xe
 3397 006f 3A       		.uleb128 0x3a
 3398 0070 0B       		.uleb128 0xb
 3399 0071 3B       		.uleb128 0x3b
 3400 0072 05       		.uleb128 0x5
 3401 0073 49       		.uleb128 0x49
 3402 0074 13       		.uleb128 0x13
 3403 0075 38       		.uleb128 0x38
 3404 0076 0B       		.uleb128 0xb
 3405 0077 00       		.byte	0
 3406 0078 00       		.byte	0
ARM GAS  C:\Users\jo\AppData\Local\Temp\ccuk5psZ.s 			page 61


 3407 0079 0A       		.uleb128 0xa
 3408 007a 13       		.uleb128 0x13
 3409 007b 01       		.byte	0x1
 3410 007c 03       		.uleb128 0x3
 3411 007d 0E       		.uleb128 0xe
 3412 007e 0B       		.uleb128 0xb
 3413 007f 0B       		.uleb128 0xb
 3414 0080 3A       		.uleb128 0x3a
 3415 0081 0B       		.uleb128 0xb
 3416 0082 3B       		.uleb128 0x3b
 3417 0083 05       		.uleb128 0x5
 3418 0084 01       		.uleb128 0x1
 3419 0085 13       		.uleb128 0x13
 3420 0086 00       		.byte	0
 3421 0087 00       		.byte	0
 3422 0088 0B       		.uleb128 0xb
 3423 0089 0F       		.uleb128 0xf
 3424 008a 00       		.byte	0
 3425 008b 0B       		.uleb128 0xb
 3426 008c 0B       		.uleb128 0xb
 3427 008d 49       		.uleb128 0x49
 3428 008e 13       		.uleb128 0x13
 3429 008f 00       		.byte	0
 3430 0090 00       		.byte	0
 3431 0091 0C       		.uleb128 0xc
 3432 0092 15       		.uleb128 0x15
 3433 0093 01       		.byte	0x1
 3434 0094 27       		.uleb128 0x27
 3435 0095 19       		.uleb128 0x19
 3436 0096 01       		.uleb128 0x1
 3437 0097 13       		.uleb128 0x13
 3438 0098 00       		.byte	0
 3439 0099 00       		.byte	0
 3440 009a 0D       		.uleb128 0xd
 3441 009b 05       		.uleb128 0x5
 3442 009c 00       		.byte	0
 3443 009d 49       		.uleb128 0x49
 3444 009e 13       		.uleb128 0x13
 3445 009f 00       		.byte	0
 3446 00a0 00       		.byte	0
 3447 00a1 0E       		.uleb128 0xe
 3448 00a2 0F       		.uleb128 0xf
 3449 00a3 00       		.byte	0
 3450 00a4 0B       		.uleb128 0xb
 3451 00a5 0B       		.uleb128 0xb
 3452 00a6 00       		.byte	0
 3453 00a7 00       		.byte	0
 3454 00a8 0F       		.uleb128 0xf
 3455 00a9 13       		.uleb128 0x13
 3456 00aa 01       		.byte	0x1
 3457 00ab 03       		.uleb128 0x3
 3458 00ac 0E       		.uleb128 0xe
 3459 00ad 0B       		.uleb128 0xb
 3460 00ae 05       		.uleb128 0x5
 3461 00af 3A       		.uleb128 0x3a
 3462 00b0 0B       		.uleb128 0xb
 3463 00b1 3B       		.uleb128 0x3b
ARM GAS  C:\Users\jo\AppData\Local\Temp\ccuk5psZ.s 			page 62


 3464 00b2 05       		.uleb128 0x5
 3465 00b3 01       		.uleb128 0x1
 3466 00b4 13       		.uleb128 0x13
 3467 00b5 00       		.byte	0
 3468 00b6 00       		.byte	0
 3469 00b7 10       		.uleb128 0x10
 3470 00b8 13       		.uleb128 0x13
 3471 00b9 01       		.byte	0x1
 3472 00ba 0B       		.uleb128 0xb
 3473 00bb 0B       		.uleb128 0xb
 3474 00bc 3A       		.uleb128 0x3a
 3475 00bd 0B       		.uleb128 0xb
 3476 00be 3B       		.uleb128 0x3b
 3477 00bf 05       		.uleb128 0x5
 3478 00c0 01       		.uleb128 0x1
 3479 00c1 13       		.uleb128 0x13
 3480 00c2 00       		.byte	0
 3481 00c3 00       		.byte	0
 3482 00c4 11       		.uleb128 0x11
 3483 00c5 16       		.uleb128 0x16
 3484 00c6 00       		.byte	0
 3485 00c7 03       		.uleb128 0x3
 3486 00c8 0E       		.uleb128 0xe
 3487 00c9 3A       		.uleb128 0x3a
 3488 00ca 0B       		.uleb128 0xb
 3489 00cb 3B       		.uleb128 0x3b
 3490 00cc 05       		.uleb128 0x5
 3491 00cd 49       		.uleb128 0x49
 3492 00ce 13       		.uleb128 0x13
 3493 00cf 00       		.byte	0
 3494 00d0 00       		.byte	0
 3495 00d1 12       		.uleb128 0x12
 3496 00d2 0D       		.uleb128 0xd
 3497 00d3 00       		.byte	0
 3498 00d4 03       		.uleb128 0x3
 3499 00d5 08       		.uleb128 0x8
 3500 00d6 3A       		.uleb128 0x3a
 3501 00d7 0B       		.uleb128 0xb
 3502 00d8 3B       		.uleb128 0x3b
 3503 00d9 0B       		.uleb128 0xb
 3504 00da 49       		.uleb128 0x49
 3505 00db 13       		.uleb128 0x13
 3506 00dc 38       		.uleb128 0x38
 3507 00dd 0B       		.uleb128 0xb
 3508 00de 00       		.byte	0
 3509 00df 00       		.byte	0
 3510 00e0 13       		.uleb128 0x13
 3511 00e1 26       		.uleb128 0x26
 3512 00e2 00       		.byte	0
 3513 00e3 49       		.uleb128 0x49
 3514 00e4 13       		.uleb128 0x13
 3515 00e5 00       		.byte	0
 3516 00e6 00       		.byte	0
 3517 00e7 14       		.uleb128 0x14
 3518 00e8 01       		.uleb128 0x1
 3519 00e9 01       		.byte	0x1
 3520 00ea 49       		.uleb128 0x49
ARM GAS  C:\Users\jo\AppData\Local\Temp\ccuk5psZ.s 			page 63


 3521 00eb 13       		.uleb128 0x13
 3522 00ec 01       		.uleb128 0x1
 3523 00ed 13       		.uleb128 0x13
 3524 00ee 00       		.byte	0
 3525 00ef 00       		.byte	0
 3526 00f0 15       		.uleb128 0x15
 3527 00f1 21       		.uleb128 0x21
 3528 00f2 00       		.byte	0
 3529 00f3 49       		.uleb128 0x49
 3530 00f4 13       		.uleb128 0x13
 3531 00f5 2F       		.uleb128 0x2f
 3532 00f6 0B       		.uleb128 0xb
 3533 00f7 00       		.byte	0
 3534 00f8 00       		.byte	0
 3535 00f9 16       		.uleb128 0x16
 3536 00fa 13       		.uleb128 0x13
 3537 00fb 01       		.byte	0x1
 3538 00fc 0B       		.uleb128 0xb
 3539 00fd 0B       		.uleb128 0xb
 3540 00fe 3A       		.uleb128 0x3a
 3541 00ff 0B       		.uleb128 0xb
 3542 0100 3B       		.uleb128 0x3b
 3543 0101 0B       		.uleb128 0xb
 3544 0102 01       		.uleb128 0x1
 3545 0103 13       		.uleb128 0x13
 3546 0104 00       		.byte	0
 3547 0105 00       		.byte	0
 3548 0106 17       		.uleb128 0x17
 3549 0107 17       		.uleb128 0x17
 3550 0108 01       		.byte	0x1
 3551 0109 0B       		.uleb128 0xb
 3552 010a 0B       		.uleb128 0xb
 3553 010b 3A       		.uleb128 0x3a
 3554 010c 0B       		.uleb128 0xb
 3555 010d 3B       		.uleb128 0x3b
 3556 010e 0B       		.uleb128 0xb
 3557 010f 01       		.uleb128 0x1
 3558 0110 13       		.uleb128 0x13
 3559 0111 00       		.byte	0
 3560 0112 00       		.byte	0
 3561 0113 18       		.uleb128 0x18
 3562 0114 0D       		.uleb128 0xd
 3563 0115 00       		.byte	0
 3564 0116 03       		.uleb128 0x3
 3565 0117 0E       		.uleb128 0xe
 3566 0118 3A       		.uleb128 0x3a
 3567 0119 0B       		.uleb128 0xb
 3568 011a 3B       		.uleb128 0x3b
 3569 011b 0B       		.uleb128 0xb
 3570 011c 49       		.uleb128 0x49
 3571 011d 13       		.uleb128 0x13
 3572 011e 00       		.byte	0
 3573 011f 00       		.byte	0
 3574 0120 19       		.uleb128 0x19
 3575 0121 0D       		.uleb128 0xd
 3576 0122 00       		.byte	0
 3577 0123 03       		.uleb128 0x3
ARM GAS  C:\Users\jo\AppData\Local\Temp\ccuk5psZ.s 			page 64


 3578 0124 0E       		.uleb128 0xe
 3579 0125 3A       		.uleb128 0x3a
 3580 0126 0B       		.uleb128 0xb
 3581 0127 3B       		.uleb128 0x3b
 3582 0128 05       		.uleb128 0x5
 3583 0129 49       		.uleb128 0x49
 3584 012a 13       		.uleb128 0x13
 3585 012b 00       		.byte	0
 3586 012c 00       		.byte	0
 3587 012d 1A       		.uleb128 0x1a
 3588 012e 15       		.uleb128 0x15
 3589 012f 01       		.byte	0x1
 3590 0130 27       		.uleb128 0x27
 3591 0131 19       		.uleb128 0x19
 3592 0132 49       		.uleb128 0x49
 3593 0133 13       		.uleb128 0x13
 3594 0134 01       		.uleb128 0x1
 3595 0135 13       		.uleb128 0x13
 3596 0136 00       		.byte	0
 3597 0137 00       		.byte	0
 3598 0138 1B       		.uleb128 0x1b
 3599 0139 04       		.uleb128 0x4
 3600 013a 01       		.byte	0x1
 3601 013b 0B       		.uleb128 0xb
 3602 013c 0B       		.uleb128 0xb
 3603 013d 3A       		.uleb128 0x3a
 3604 013e 0B       		.uleb128 0xb
 3605 013f 3B       		.uleb128 0x3b
 3606 0140 0B       		.uleb128 0xb
 3607 0141 01       		.uleb128 0x1
 3608 0142 13       		.uleb128 0x13
 3609 0143 00       		.byte	0
 3610 0144 00       		.byte	0
 3611 0145 1C       		.uleb128 0x1c
 3612 0146 28       		.uleb128 0x28
 3613 0147 00       		.byte	0
 3614 0148 03       		.uleb128 0x3
 3615 0149 0E       		.uleb128 0xe
 3616 014a 1C       		.uleb128 0x1c
 3617 014b 0D       		.uleb128 0xd
 3618 014c 00       		.byte	0
 3619 014d 00       		.byte	0
 3620 014e 1D       		.uleb128 0x1d
 3621 014f 2E       		.uleb128 0x2e
 3622 0150 01       		.byte	0x1
 3623 0151 03       		.uleb128 0x3
 3624 0152 0E       		.uleb128 0xe
 3625 0153 3A       		.uleb128 0x3a
 3626 0154 0B       		.uleb128 0xb
 3627 0155 3B       		.uleb128 0x3b
 3628 0156 05       		.uleb128 0x5
 3629 0157 27       		.uleb128 0x27
 3630 0158 19       		.uleb128 0x19
 3631 0159 20       		.uleb128 0x20
 3632 015a 0B       		.uleb128 0xb
 3633 015b 01       		.uleb128 0x1
 3634 015c 13       		.uleb128 0x13
ARM GAS  C:\Users\jo\AppData\Local\Temp\ccuk5psZ.s 			page 65


 3635 015d 00       		.byte	0
 3636 015e 00       		.byte	0
 3637 015f 1E       		.uleb128 0x1e
 3638 0160 05       		.uleb128 0x5
 3639 0161 00       		.byte	0
 3640 0162 03       		.uleb128 0x3
 3641 0163 0E       		.uleb128 0xe
 3642 0164 3A       		.uleb128 0x3a
 3643 0165 0B       		.uleb128 0xb
 3644 0166 3B       		.uleb128 0x3b
 3645 0167 05       		.uleb128 0x5
 3646 0168 49       		.uleb128 0x49
 3647 0169 13       		.uleb128 0x13
 3648 016a 00       		.byte	0
 3649 016b 00       		.byte	0
 3650 016c 1F       		.uleb128 0x1f
 3651 016d 2E       		.uleb128 0x2e
 3652 016e 00       		.byte	0
 3653 016f 03       		.uleb128 0x3
 3654 0170 0E       		.uleb128 0xe
 3655 0171 3A       		.uleb128 0x3a
 3656 0172 0B       		.uleb128 0xb
 3657 0173 3B       		.uleb128 0x3b
 3658 0174 05       		.uleb128 0x5
 3659 0175 27       		.uleb128 0x27
 3660 0176 19       		.uleb128 0x19
 3661 0177 20       		.uleb128 0x20
 3662 0178 0B       		.uleb128 0xb
 3663 0179 00       		.byte	0
 3664 017a 00       		.byte	0
 3665 017b 20       		.uleb128 0x20
 3666 017c 2E       		.uleb128 0x2e
 3667 017d 01       		.byte	0x1
 3668 017e 03       		.uleb128 0x3
 3669 017f 0E       		.uleb128 0xe
 3670 0180 3A       		.uleb128 0x3a
 3671 0181 0B       		.uleb128 0xb
 3672 0182 3B       		.uleb128 0x3b
 3673 0183 05       		.uleb128 0x5
 3674 0184 27       		.uleb128 0x27
 3675 0185 19       		.uleb128 0x19
 3676 0186 49       		.uleb128 0x49
 3677 0187 13       		.uleb128 0x13
 3678 0188 20       		.uleb128 0x20
 3679 0189 0B       		.uleb128 0xb
 3680 018a 01       		.uleb128 0x1
 3681 018b 13       		.uleb128 0x13
 3682 018c 00       		.byte	0
 3683 018d 00       		.byte	0
 3684 018e 21       		.uleb128 0x21
 3685 018f 05       		.uleb128 0x5
 3686 0190 00       		.byte	0
 3687 0191 03       		.uleb128 0x3
 3688 0192 08       		.uleb128 0x8
 3689 0193 3A       		.uleb128 0x3a
 3690 0194 0B       		.uleb128 0xb
 3691 0195 3B       		.uleb128 0x3b
ARM GAS  C:\Users\jo\AppData\Local\Temp\ccuk5psZ.s 			page 66


 3692 0196 05       		.uleb128 0x5
 3693 0197 49       		.uleb128 0x49
 3694 0198 13       		.uleb128 0x13
 3695 0199 00       		.byte	0
 3696 019a 00       		.byte	0
 3697 019b 22       		.uleb128 0x22
 3698 019c 34       		.uleb128 0x34
 3699 019d 00       		.byte	0
 3700 019e 03       		.uleb128 0x3
 3701 019f 0E       		.uleb128 0xe
 3702 01a0 49       		.uleb128 0x49
 3703 01a1 13       		.uleb128 0x13
 3704 01a2 34       		.uleb128 0x34
 3705 01a3 19       		.uleb128 0x19
 3706 01a4 1C       		.uleb128 0x1c
 3707 01a5 0E       		.uleb128 0xe
 3708 01a6 00       		.byte	0
 3709 01a7 00       		.byte	0
 3710 01a8 23       		.uleb128 0x23
 3711 01a9 2E       		.uleb128 0x2e
 3712 01aa 01       		.byte	0x1
 3713 01ab 03       		.uleb128 0x3
 3714 01ac 0E       		.uleb128 0xe
 3715 01ad 3A       		.uleb128 0x3a
 3716 01ae 0B       		.uleb128 0xb
 3717 01af 3B       		.uleb128 0x3b
 3718 01b0 0B       		.uleb128 0xb
 3719 01b1 27       		.uleb128 0x27
 3720 01b2 19       		.uleb128 0x19
 3721 01b3 20       		.uleb128 0x20
 3722 01b4 0B       		.uleb128 0xb
 3723 01b5 01       		.uleb128 0x1
 3724 01b6 13       		.uleb128 0x13
 3725 01b7 00       		.byte	0
 3726 01b8 00       		.byte	0
 3727 01b9 24       		.uleb128 0x24
 3728 01ba 05       		.uleb128 0x5
 3729 01bb 00       		.byte	0
 3730 01bc 03       		.uleb128 0x3
 3731 01bd 08       		.uleb128 0x8
 3732 01be 3A       		.uleb128 0x3a
 3733 01bf 0B       		.uleb128 0xb
 3734 01c0 3B       		.uleb128 0x3b
 3735 01c1 0B       		.uleb128 0xb
 3736 01c2 49       		.uleb128 0x49
 3737 01c3 13       		.uleb128 0x13
 3738 01c4 00       		.byte	0
 3739 01c5 00       		.byte	0
 3740 01c6 25       		.uleb128 0x25
 3741 01c7 2E       		.uleb128 0x2e
 3742 01c8 01       		.byte	0x1
 3743 01c9 03       		.uleb128 0x3
 3744 01ca 0E       		.uleb128 0xe
 3745 01cb 3A       		.uleb128 0x3a
 3746 01cc 0B       		.uleb128 0xb
 3747 01cd 3B       		.uleb128 0x3b
 3748 01ce 0B       		.uleb128 0xb
ARM GAS  C:\Users\jo\AppData\Local\Temp\ccuk5psZ.s 			page 67


 3749 01cf 27       		.uleb128 0x27
 3750 01d0 19       		.uleb128 0x19
 3751 01d1 49       		.uleb128 0x49
 3752 01d2 13       		.uleb128 0x13
 3753 01d3 11       		.uleb128 0x11
 3754 01d4 01       		.uleb128 0x1
 3755 01d5 12       		.uleb128 0x12
 3756 01d6 06       		.uleb128 0x6
 3757 01d7 40       		.uleb128 0x40
 3758 01d8 18       		.uleb128 0x18
 3759 01d9 9742     		.uleb128 0x2117
 3760 01db 19       		.uleb128 0x19
 3761 01dc 01       		.uleb128 0x1
 3762 01dd 13       		.uleb128 0x13
 3763 01de 00       		.byte	0
 3764 01df 00       		.byte	0
 3765 01e0 26       		.uleb128 0x26
 3766 01e1 05       		.uleb128 0x5
 3767 01e2 00       		.byte	0
 3768 01e3 03       		.uleb128 0x3
 3769 01e4 08       		.uleb128 0x8
 3770 01e5 3A       		.uleb128 0x3a
 3771 01e6 0B       		.uleb128 0xb
 3772 01e7 3B       		.uleb128 0x3b
 3773 01e8 0B       		.uleb128 0xb
 3774 01e9 49       		.uleb128 0x49
 3775 01ea 13       		.uleb128 0x13
 3776 01eb 02       		.uleb128 0x2
 3777 01ec 17       		.uleb128 0x17
 3778 01ed 00       		.byte	0
 3779 01ee 00       		.byte	0
 3780 01ef 27       		.uleb128 0x27
 3781 01f0 05       		.uleb128 0x5
 3782 01f1 00       		.byte	0
 3783 01f2 03       		.uleb128 0x3
 3784 01f3 0E       		.uleb128 0xe
 3785 01f4 3A       		.uleb128 0x3a
 3786 01f5 0B       		.uleb128 0xb
 3787 01f6 3B       		.uleb128 0x3b
 3788 01f7 0B       		.uleb128 0xb
 3789 01f8 49       		.uleb128 0x49
 3790 01f9 13       		.uleb128 0x13
 3791 01fa 02       		.uleb128 0x2
 3792 01fb 17       		.uleb128 0x17
 3793 01fc 00       		.byte	0
 3794 01fd 00       		.byte	0
 3795 01fe 28       		.uleb128 0x28
 3796 01ff 898201   		.uleb128 0x4109
 3797 0202 01       		.byte	0x1
 3798 0203 11       		.uleb128 0x11
 3799 0204 01       		.uleb128 0x1
 3800 0205 9542     		.uleb128 0x2115
 3801 0207 19       		.uleb128 0x19
 3802 0208 31       		.uleb128 0x31
 3803 0209 13       		.uleb128 0x13
 3804 020a 00       		.byte	0
 3805 020b 00       		.byte	0
ARM GAS  C:\Users\jo\AppData\Local\Temp\ccuk5psZ.s 			page 68


 3806 020c 29       		.uleb128 0x29
 3807 020d 8A8201   		.uleb128 0x410a
 3808 0210 00       		.byte	0
 3809 0211 02       		.uleb128 0x2
 3810 0212 18       		.uleb128 0x18
 3811 0213 9142     		.uleb128 0x2111
 3812 0215 18       		.uleb128 0x18
 3813 0216 00       		.byte	0
 3814 0217 00       		.byte	0
 3815 0218 2A       		.uleb128 0x2a
 3816 0219 2E       		.uleb128 0x2e
 3817 021a 01       		.byte	0x1
 3818 021b 03       		.uleb128 0x3
 3819 021c 08       		.uleb128 0x8
 3820 021d 3A       		.uleb128 0x3a
 3821 021e 0B       		.uleb128 0xb
 3822 021f 3B       		.uleb128 0x3b
 3823 0220 0B       		.uleb128 0xb
 3824 0221 27       		.uleb128 0x27
 3825 0222 19       		.uleb128 0x19
 3826 0223 49       		.uleb128 0x49
 3827 0224 13       		.uleb128 0x13
 3828 0225 11       		.uleb128 0x11
 3829 0226 01       		.uleb128 0x1
 3830 0227 12       		.uleb128 0x12
 3831 0228 06       		.uleb128 0x6
 3832 0229 40       		.uleb128 0x40
 3833 022a 18       		.uleb128 0x18
 3834 022b 9742     		.uleb128 0x2117
 3835 022d 19       		.uleb128 0x19
 3836 022e 01       		.uleb128 0x1
 3837 022f 13       		.uleb128 0x13
 3838 0230 00       		.byte	0
 3839 0231 00       		.byte	0
 3840 0232 2B       		.uleb128 0x2b
 3841 0233 2E       		.uleb128 0x2e
 3842 0234 01       		.byte	0x1
 3843 0235 3F       		.uleb128 0x3f
 3844 0236 19       		.uleb128 0x19
 3845 0237 03       		.uleb128 0x3
 3846 0238 0E       		.uleb128 0xe
 3847 0239 3A       		.uleb128 0x3a
 3848 023a 0B       		.uleb128 0xb
 3849 023b 3B       		.uleb128 0x3b
 3850 023c 0B       		.uleb128 0xb
 3851 023d 27       		.uleb128 0x27
 3852 023e 19       		.uleb128 0x19
 3853 023f 11       		.uleb128 0x11
 3854 0240 01       		.uleb128 0x1
 3855 0241 12       		.uleb128 0x12
 3856 0242 06       		.uleb128 0x6
 3857 0243 40       		.uleb128 0x40
 3858 0244 18       		.uleb128 0x18
 3859 0245 9742     		.uleb128 0x2117
 3860 0247 19       		.uleb128 0x19
 3861 0248 01       		.uleb128 0x1
 3862 0249 13       		.uleb128 0x13
ARM GAS  C:\Users\jo\AppData\Local\Temp\ccuk5psZ.s 			page 69


 3863 024a 00       		.byte	0
 3864 024b 00       		.byte	0
 3865 024c 2C       		.uleb128 0x2c
 3866 024d 898201   		.uleb128 0x4109
 3867 0250 00       		.byte	0
 3868 0251 11       		.uleb128 0x11
 3869 0252 01       		.uleb128 0x1
 3870 0253 9542     		.uleb128 0x2115
 3871 0255 19       		.uleb128 0x19
 3872 0256 31       		.uleb128 0x31
 3873 0257 13       		.uleb128 0x13
 3874 0258 00       		.byte	0
 3875 0259 00       		.byte	0
 3876 025a 2D       		.uleb128 0x2d
 3877 025b 1D       		.uleb128 0x1d
 3878 025c 01       		.byte	0x1
 3879 025d 31       		.uleb128 0x31
 3880 025e 13       		.uleb128 0x13
 3881 025f 11       		.uleb128 0x11
 3882 0260 01       		.uleb128 0x1
 3883 0261 12       		.uleb128 0x12
 3884 0262 06       		.uleb128 0x6
 3885 0263 58       		.uleb128 0x58
 3886 0264 0B       		.uleb128 0xb
 3887 0265 59       		.uleb128 0x59
 3888 0266 0B       		.uleb128 0xb
 3889 0267 01       		.uleb128 0x1
 3890 0268 13       		.uleb128 0x13
 3891 0269 00       		.byte	0
 3892 026a 00       		.byte	0
 3893 026b 2E       		.uleb128 0x2e
 3894 026c 05       		.uleb128 0x5
 3895 026d 00       		.byte	0
 3896 026e 31       		.uleb128 0x31
 3897 026f 13       		.uleb128 0x13
 3898 0270 02       		.uleb128 0x2
 3899 0271 17       		.uleb128 0x17
 3900 0272 00       		.byte	0
 3901 0273 00       		.byte	0
 3902 0274 2F       		.uleb128 0x2f
 3903 0275 1D       		.uleb128 0x1d
 3904 0276 01       		.byte	0x1
 3905 0277 31       		.uleb128 0x31
 3906 0278 13       		.uleb128 0x13
 3907 0279 11       		.uleb128 0x11
 3908 027a 01       		.uleb128 0x1
 3909 027b 12       		.uleb128 0x12
 3910 027c 06       		.uleb128 0x6
 3911 027d 58       		.uleb128 0x58
 3912 027e 0B       		.uleb128 0xb
 3913 027f 59       		.uleb128 0x59
 3914 0280 05       		.uleb128 0x5
 3915 0281 00       		.byte	0
 3916 0282 00       		.byte	0
 3917 0283 30       		.uleb128 0x30
 3918 0284 898201   		.uleb128 0x4109
 3919 0287 01       		.byte	0x1
ARM GAS  C:\Users\jo\AppData\Local\Temp\ccuk5psZ.s 			page 70


 3920 0288 11       		.uleb128 0x11
 3921 0289 01       		.uleb128 0x1
 3922 028a 31       		.uleb128 0x31
 3923 028b 13       		.uleb128 0x13
 3924 028c 01       		.uleb128 0x1
 3925 028d 13       		.uleb128 0x13
 3926 028e 00       		.byte	0
 3927 028f 00       		.byte	0
 3928 0290 31       		.uleb128 0x31
 3929 0291 898201   		.uleb128 0x4109
 3930 0294 01       		.byte	0x1
 3931 0295 11       		.uleb128 0x11
 3932 0296 01       		.uleb128 0x1
 3933 0297 31       		.uleb128 0x31
 3934 0298 13       		.uleb128 0x13
 3935 0299 00       		.byte	0
 3936 029a 00       		.byte	0
 3937 029b 32       		.uleb128 0x32
 3938 029c 34       		.uleb128 0x34
 3939 029d 00       		.byte	0
 3940 029e 03       		.uleb128 0x3
 3941 029f 0E       		.uleb128 0xe
 3942 02a0 49       		.uleb128 0x49
 3943 02a1 13       		.uleb128 0x13
 3944 02a2 34       		.uleb128 0x34
 3945 02a3 19       		.uleb128 0x19
 3946 02a4 00       		.byte	0
 3947 02a5 00       		.byte	0
 3948 02a6 33       		.uleb128 0x33
 3949 02a7 1D       		.uleb128 0x1d
 3950 02a8 01       		.byte	0x1
 3951 02a9 31       		.uleb128 0x31
 3952 02aa 13       		.uleb128 0x13
 3953 02ab 52       		.uleb128 0x52
 3954 02ac 01       		.uleb128 0x1
 3955 02ad 55       		.uleb128 0x55
 3956 02ae 17       		.uleb128 0x17
 3957 02af 58       		.uleb128 0x58
 3958 02b0 0B       		.uleb128 0xb
 3959 02b1 59       		.uleb128 0x59
 3960 02b2 0B       		.uleb128 0xb
 3961 02b3 01       		.uleb128 0x1
 3962 02b4 13       		.uleb128 0x13
 3963 02b5 00       		.byte	0
 3964 02b6 00       		.byte	0
 3965 02b7 34       		.uleb128 0x34
 3966 02b8 1D       		.uleb128 0x1d
 3967 02b9 01       		.byte	0x1
 3968 02ba 31       		.uleb128 0x31
 3969 02bb 13       		.uleb128 0x13
 3970 02bc 52       		.uleb128 0x52
 3971 02bd 01       		.uleb128 0x1
 3972 02be 55       		.uleb128 0x55
 3973 02bf 17       		.uleb128 0x17
 3974 02c0 58       		.uleb128 0x58
 3975 02c1 0B       		.uleb128 0xb
 3976 02c2 59       		.uleb128 0x59
ARM GAS  C:\Users\jo\AppData\Local\Temp\ccuk5psZ.s 			page 71


 3977 02c3 05       		.uleb128 0x5
 3978 02c4 00       		.byte	0
 3979 02c5 00       		.byte	0
 3980 02c6 35       		.uleb128 0x35
 3981 02c7 05       		.uleb128 0x5
 3982 02c8 00       		.byte	0
 3983 02c9 31       		.uleb128 0x31
 3984 02ca 13       		.uleb128 0x13
 3985 02cb 1C       		.uleb128 0x1c
 3986 02cc 0B       		.uleb128 0xb
 3987 02cd 00       		.byte	0
 3988 02ce 00       		.byte	0
 3989 02cf 36       		.uleb128 0x36
 3990 02d0 0B       		.uleb128 0xb
 3991 02d1 01       		.byte	0x1
 3992 02d2 11       		.uleb128 0x11
 3993 02d3 01       		.uleb128 0x1
 3994 02d4 12       		.uleb128 0x12
 3995 02d5 06       		.uleb128 0x6
 3996 02d6 00       		.byte	0
 3997 02d7 00       		.byte	0
 3998 02d8 37       		.uleb128 0x37
 3999 02d9 34       		.uleb128 0x34
 4000 02da 00       		.byte	0
 4001 02db 31       		.uleb128 0x31
 4002 02dc 13       		.uleb128 0x13
 4003 02dd 00       		.byte	0
 4004 02de 00       		.byte	0
 4005 02df 38       		.uleb128 0x38
 4006 02e0 898201   		.uleb128 0x4109
 4007 02e3 00       		.byte	0
 4008 02e4 11       		.uleb128 0x11
 4009 02e5 01       		.uleb128 0x1
 4010 02e6 31       		.uleb128 0x31
 4011 02e7 13       		.uleb128 0x13
 4012 02e8 00       		.byte	0
 4013 02e9 00       		.byte	0
 4014 02ea 39       		.uleb128 0x39
 4015 02eb 2E       		.uleb128 0x2e
 4016 02ec 01       		.byte	0x1
 4017 02ed 3F       		.uleb128 0x3f
 4018 02ee 19       		.uleb128 0x19
 4019 02ef 03       		.uleb128 0x3
 4020 02f0 0E       		.uleb128 0xe
 4021 02f1 3A       		.uleb128 0x3a
 4022 02f2 0B       		.uleb128 0xb
 4023 02f3 3B       		.uleb128 0x3b
 4024 02f4 0B       		.uleb128 0xb
 4025 02f5 27       		.uleb128 0x27
 4026 02f6 19       		.uleb128 0x19
 4027 02f7 49       		.uleb128 0x49
 4028 02f8 13       		.uleb128 0x13
 4029 02f9 11       		.uleb128 0x11
 4030 02fa 01       		.uleb128 0x1
 4031 02fb 12       		.uleb128 0x12
 4032 02fc 06       		.uleb128 0x6
 4033 02fd 40       		.uleb128 0x40
ARM GAS  C:\Users\jo\AppData\Local\Temp\ccuk5psZ.s 			page 72


 4034 02fe 18       		.uleb128 0x18
 4035 02ff 9742     		.uleb128 0x2117
 4036 0301 19       		.uleb128 0x19
 4037 0302 01       		.uleb128 0x1
 4038 0303 13       		.uleb128 0x13
 4039 0304 00       		.byte	0
 4040 0305 00       		.byte	0
 4041 0306 3A       		.uleb128 0x3a
 4042 0307 34       		.uleb128 0x34
 4043 0308 00       		.byte	0
 4044 0309 03       		.uleb128 0x3
 4045 030a 08       		.uleb128 0x8
 4046 030b 3A       		.uleb128 0x3a
 4047 030c 0B       		.uleb128 0xb
 4048 030d 3B       		.uleb128 0x3b
 4049 030e 0B       		.uleb128 0xb
 4050 030f 49       		.uleb128 0x49
 4051 0310 13       		.uleb128 0x13
 4052 0311 02       		.uleb128 0x2
 4053 0312 17       		.uleb128 0x17
 4054 0313 00       		.byte	0
 4055 0314 00       		.byte	0
 4056 0315 3B       		.uleb128 0x3b
 4057 0316 34       		.uleb128 0x34
 4058 0317 00       		.byte	0
 4059 0318 03       		.uleb128 0x3
 4060 0319 08       		.uleb128 0x8
 4061 031a 3A       		.uleb128 0x3a
 4062 031b 0B       		.uleb128 0xb
 4063 031c 3B       		.uleb128 0x3b
 4064 031d 0B       		.uleb128 0xb
 4065 031e 49       		.uleb128 0x49
 4066 031f 13       		.uleb128 0x13
 4067 0320 02       		.uleb128 0x2
 4068 0321 18       		.uleb128 0x18
 4069 0322 00       		.byte	0
 4070 0323 00       		.byte	0
 4071 0324 3C       		.uleb128 0x3c
 4072 0325 34       		.uleb128 0x34
 4073 0326 00       		.byte	0
 4074 0327 03       		.uleb128 0x3
 4075 0328 0E       		.uleb128 0xe
 4076 0329 3A       		.uleb128 0x3a
 4077 032a 0B       		.uleb128 0xb
 4078 032b 3B       		.uleb128 0x3b
 4079 032c 05       		.uleb128 0x5
 4080 032d 49       		.uleb128 0x49
 4081 032e 13       		.uleb128 0x13
 4082 032f 3F       		.uleb128 0x3f
 4083 0330 19       		.uleb128 0x19
 4084 0331 3C       		.uleb128 0x3c
 4085 0332 19       		.uleb128 0x19
 4086 0333 00       		.byte	0
 4087 0334 00       		.byte	0
 4088 0335 3D       		.uleb128 0x3d
 4089 0336 34       		.uleb128 0x34
 4090 0337 00       		.byte	0
ARM GAS  C:\Users\jo\AppData\Local\Temp\ccuk5psZ.s 			page 73


 4091 0338 03       		.uleb128 0x3
 4092 0339 08       		.uleb128 0x8
 4093 033a 3A       		.uleb128 0x3a
 4094 033b 0B       		.uleb128 0xb
 4095 033c 3B       		.uleb128 0x3b
 4096 033d 05       		.uleb128 0x5
 4097 033e 49       		.uleb128 0x49
 4098 033f 13       		.uleb128 0x13
 4099 0340 3F       		.uleb128 0x3f
 4100 0341 19       		.uleb128 0x19
 4101 0342 3C       		.uleb128 0x3c
 4102 0343 19       		.uleb128 0x19
 4103 0344 00       		.byte	0
 4104 0345 00       		.byte	0
 4105 0346 3E       		.uleb128 0x3e
 4106 0347 2E       		.uleb128 0x2e
 4107 0348 01       		.byte	0x1
 4108 0349 3F       		.uleb128 0x3f
 4109 034a 19       		.uleb128 0x19
 4110 034b 03       		.uleb128 0x3
 4111 034c 0E       		.uleb128 0xe
 4112 034d 3A       		.uleb128 0x3a
 4113 034e 0B       		.uleb128 0xb
 4114 034f 3B       		.uleb128 0x3b
 4115 0350 0B       		.uleb128 0xb
 4116 0351 27       		.uleb128 0x27
 4117 0352 19       		.uleb128 0x19
 4118 0353 49       		.uleb128 0x49
 4119 0354 13       		.uleb128 0x13
 4120 0355 3C       		.uleb128 0x3c
 4121 0356 19       		.uleb128 0x19
 4122 0357 01       		.uleb128 0x1
 4123 0358 13       		.uleb128 0x13
 4124 0359 00       		.byte	0
 4125 035a 00       		.byte	0
 4126 035b 3F       		.uleb128 0x3f
 4127 035c 2E       		.uleb128 0x2e
 4128 035d 00       		.byte	0
 4129 035e 3F       		.uleb128 0x3f
 4130 035f 19       		.uleb128 0x19
 4131 0360 03       		.uleb128 0x3
 4132 0361 0E       		.uleb128 0xe
 4133 0362 3A       		.uleb128 0x3a
 4134 0363 0B       		.uleb128 0xb
 4135 0364 3B       		.uleb128 0x3b
 4136 0365 05       		.uleb128 0x5
 4137 0366 27       		.uleb128 0x27
 4138 0367 19       		.uleb128 0x19
 4139 0368 3C       		.uleb128 0x3c
 4140 0369 19       		.uleb128 0x19
 4141 036a 00       		.byte	0
 4142 036b 00       		.byte	0
 4143 036c 40       		.uleb128 0x40
 4144 036d 2E       		.uleb128 0x2e
 4145 036e 01       		.byte	0x1
 4146 036f 3F       		.uleb128 0x3f
 4147 0370 19       		.uleb128 0x19
ARM GAS  C:\Users\jo\AppData\Local\Temp\ccuk5psZ.s 			page 74


 4148 0371 03       		.uleb128 0x3
 4149 0372 0E       		.uleb128 0xe
 4150 0373 3A       		.uleb128 0x3a
 4151 0374 0B       		.uleb128 0xb
 4152 0375 3B       		.uleb128 0x3b
 4153 0376 0B       		.uleb128 0xb
 4154 0377 27       		.uleb128 0x27
 4155 0378 19       		.uleb128 0x19
 4156 0379 3C       		.uleb128 0x3c
 4157 037a 19       		.uleb128 0x19
 4158 037b 01       		.uleb128 0x1
 4159 037c 13       		.uleb128 0x13
 4160 037d 00       		.byte	0
 4161 037e 00       		.byte	0
 4162 037f 41       		.uleb128 0x41
 4163 0380 2E       		.uleb128 0x2e
 4164 0381 01       		.byte	0x1
 4165 0382 3F       		.uleb128 0x3f
 4166 0383 19       		.uleb128 0x19
 4167 0384 03       		.uleb128 0x3
 4168 0385 0E       		.uleb128 0xe
 4169 0386 3A       		.uleb128 0x3a
 4170 0387 0B       		.uleb128 0xb
 4171 0388 3B       		.uleb128 0x3b
 4172 0389 05       		.uleb128 0x5
 4173 038a 27       		.uleb128 0x27
 4174 038b 19       		.uleb128 0x19
 4175 038c 3C       		.uleb128 0x3c
 4176 038d 19       		.uleb128 0x19
 4177 038e 01       		.uleb128 0x1
 4178 038f 13       		.uleb128 0x13
 4179 0390 00       		.byte	0
 4180 0391 00       		.byte	0
 4181 0392 42       		.uleb128 0x42
 4182 0393 2E       		.uleb128 0x2e
 4183 0394 01       		.byte	0x1
 4184 0395 3F       		.uleb128 0x3f
 4185 0396 19       		.uleb128 0x19
 4186 0397 03       		.uleb128 0x3
 4187 0398 0E       		.uleb128 0xe
 4188 0399 3A       		.uleb128 0x3a
 4189 039a 0B       		.uleb128 0xb
 4190 039b 3B       		.uleb128 0x3b
 4191 039c 0B       		.uleb128 0xb
 4192 039d 27       		.uleb128 0x27
 4193 039e 19       		.uleb128 0x19
 4194 039f 49       		.uleb128 0x49
 4195 03a0 13       		.uleb128 0x13
 4196 03a1 3C       		.uleb128 0x3c
 4197 03a2 19       		.uleb128 0x19
 4198 03a3 00       		.byte	0
 4199 03a4 00       		.byte	0
 4200 03a5 00       		.byte	0
 4201              		.section	.debug_loc,"",%progbits
 4202              	.Ldebug_loc0:
 4203              	.LLST0:
 4204 0000 00000000 		.4byte	.LVL0
ARM GAS  C:\Users\jo\AppData\Local\Temp\ccuk5psZ.s 			page 75


 4205 0004 02000000 		.4byte	.LVL1
 4206 0008 0100     		.2byte	0x1
 4207 000a 50       		.byte	0x50
 4208 000b 02000000 		.4byte	.LVL1
 4209 000f 05000000 		.4byte	.LVL2-1
 4210 0013 0300     		.2byte	0x3
 4211 0015 70       		.byte	0x70
 4212 0016 74       		.sleb128 -12
 4213 0017 9F       		.byte	0x9f
 4214 0018 05000000 		.4byte	.LVL2-1
 4215 001c 06000000 		.4byte	.LFE262
 4216 0020 0400     		.2byte	0x4
 4217 0022 F3       		.byte	0xf3
 4218 0023 01       		.uleb128 0x1
 4219 0024 50       		.byte	0x50
 4220 0025 9F       		.byte	0x9f
 4221 0026 00000000 		.4byte	0
 4222 002a 00000000 		.4byte	0
 4223              	.LLST1:
 4224 002e 00000000 		.4byte	.LVL0
 4225 0032 05000000 		.4byte	.LVL2-1
 4226 0036 0100     		.2byte	0x1
 4227 0038 51       		.byte	0x51
 4228 0039 05000000 		.4byte	.LVL2-1
 4229 003d 06000000 		.4byte	.LFE262
 4230 0041 0400     		.2byte	0x4
 4231 0043 F3       		.byte	0xf3
 4232 0044 01       		.uleb128 0x1
 4233 0045 51       		.byte	0x51
 4234 0046 9F       		.byte	0x9f
 4235 0047 00000000 		.4byte	0
 4236 004b 00000000 		.4byte	0
 4237              	.LLST2:
 4238 004f 00000000 		.4byte	.LVL0
 4239 0053 05000000 		.4byte	.LVL2-1
 4240 0057 0100     		.2byte	0x1
 4241 0059 52       		.byte	0x52
 4242 005a 05000000 		.4byte	.LVL2-1
 4243 005e 06000000 		.4byte	.LFE262
 4244 0062 0400     		.2byte	0x4
 4245 0064 F3       		.byte	0xf3
 4246 0065 01       		.uleb128 0x1
 4247 0066 52       		.byte	0x52
 4248 0067 9F       		.byte	0x9f
 4249 0068 00000000 		.4byte	0
 4250 006c 00000000 		.4byte	0
 4251              	.LLST3:
 4252 0070 00000000 		.4byte	.LVL0
 4253 0074 05000000 		.4byte	.LVL2-1
 4254 0078 0100     		.2byte	0x1
 4255 007a 53       		.byte	0x53
 4256 007b 05000000 		.4byte	.LVL2-1
 4257 007f 06000000 		.4byte	.LFE262
 4258 0083 0400     		.2byte	0x4
 4259 0085 F3       		.byte	0xf3
 4260 0086 01       		.uleb128 0x1
 4261 0087 53       		.byte	0x53
ARM GAS  C:\Users\jo\AppData\Local\Temp\ccuk5psZ.s 			page 76


 4262 0088 9F       		.byte	0x9f
 4263 0089 00000000 		.4byte	0
 4264 008d 00000000 		.4byte	0
 4265              	.LLST4:
 4266 0091 00000000 		.4byte	.LVL3
 4267 0095 02000000 		.4byte	.LVL4
 4268 0099 0100     		.2byte	0x1
 4269 009b 50       		.byte	0x50
 4270 009c 02000000 		.4byte	.LVL4
 4271 00a0 09000000 		.4byte	.LVL5-1
 4272 00a4 0300     		.2byte	0x3
 4273 00a6 70       		.byte	0x70
 4274 00a7 74       		.sleb128 -12
 4275 00a8 9F       		.byte	0x9f
 4276 00a9 09000000 		.4byte	.LVL5-1
 4277 00ad 0A000000 		.4byte	.LFE256
 4278 00b1 0400     		.2byte	0x4
 4279 00b3 F3       		.byte	0xf3
 4280 00b4 01       		.uleb128 0x1
 4281 00b5 50       		.byte	0x50
 4282 00b6 9F       		.byte	0x9f
 4283 00b7 00000000 		.4byte	0
 4284 00bb 00000000 		.4byte	0
 4285              	.LLST5:
 4286 00bf 00000000 		.4byte	.LVL3
 4287 00c3 09000000 		.4byte	.LVL5-1
 4288 00c7 0100     		.2byte	0x1
 4289 00c9 51       		.byte	0x51
 4290 00ca 09000000 		.4byte	.LVL5-1
 4291 00ce 0A000000 		.4byte	.LFE256
 4292 00d2 0400     		.2byte	0x4
 4293 00d4 F3       		.byte	0xf3
 4294 00d5 01       		.uleb128 0x1
 4295 00d6 51       		.byte	0x51
 4296 00d7 9F       		.byte	0x9f
 4297 00d8 00000000 		.4byte	0
 4298 00dc 00000000 		.4byte	0
 4299              	.LLST6:
 4300 00e0 00000000 		.4byte	.LVL3
 4301 00e4 09000000 		.4byte	.LVL5-1
 4302 00e8 0100     		.2byte	0x1
 4303 00ea 52       		.byte	0x52
 4304 00eb 09000000 		.4byte	.LVL5-1
 4305 00ef 0A000000 		.4byte	.LFE256
 4306 00f3 0400     		.2byte	0x4
 4307 00f5 F3       		.byte	0xf3
 4308 00f6 01       		.uleb128 0x1
 4309 00f7 52       		.byte	0x52
 4310 00f8 9F       		.byte	0x9f
 4311 00f9 00000000 		.4byte	0
 4312 00fd 00000000 		.4byte	0
 4313              	.LLST7:
 4314 0101 00000000 		.4byte	.LVL6
 4315 0105 02000000 		.4byte	.LVL7
 4316 0109 0100     		.2byte	0x1
 4317 010b 50       		.byte	0x50
 4318 010c 02000000 		.4byte	.LVL7
ARM GAS  C:\Users\jo\AppData\Local\Temp\ccuk5psZ.s 			page 77


 4319 0110 05000000 		.4byte	.LVL8-1
 4320 0114 0300     		.2byte	0x3
 4321 0116 70       		.byte	0x70
 4322 0117 50       		.sleb128 -48
 4323 0118 9F       		.byte	0x9f
 4324 0119 05000000 		.4byte	.LVL8-1
 4325 011d 06000000 		.4byte	.LFE261
 4326 0121 0400     		.2byte	0x4
 4327 0123 F3       		.byte	0xf3
 4328 0124 01       		.uleb128 0x1
 4329 0125 50       		.byte	0x50
 4330 0126 9F       		.byte	0x9f
 4331 0127 00000000 		.4byte	0
 4332 012b 00000000 		.4byte	0
 4333              	.LLST8:
 4334 012f 00000000 		.4byte	.LVL6
 4335 0133 05000000 		.4byte	.LVL8-1
 4336 0137 0100     		.2byte	0x1
 4337 0139 51       		.byte	0x51
 4338 013a 05000000 		.4byte	.LVL8-1
 4339 013e 06000000 		.4byte	.LFE261
 4340 0142 0400     		.2byte	0x4
 4341 0144 F3       		.byte	0xf3
 4342 0145 01       		.uleb128 0x1
 4343 0146 51       		.byte	0x51
 4344 0147 9F       		.byte	0x9f
 4345 0148 00000000 		.4byte	0
 4346 014c 00000000 		.4byte	0
 4347              	.LLST9:
 4348 0150 00000000 		.4byte	.LVL6
 4349 0154 05000000 		.4byte	.LVL8-1
 4350 0158 0100     		.2byte	0x1
 4351 015a 52       		.byte	0x52
 4352 015b 05000000 		.4byte	.LVL8-1
 4353 015f 06000000 		.4byte	.LFE261
 4354 0163 0400     		.2byte	0x4
 4355 0165 F3       		.byte	0xf3
 4356 0166 01       		.uleb128 0x1
 4357 0167 52       		.byte	0x52
 4358 0168 9F       		.byte	0x9f
 4359 0169 00000000 		.4byte	0
 4360 016d 00000000 		.4byte	0
 4361              	.LLST10:
 4362 0171 00000000 		.4byte	.LVL6
 4363 0175 05000000 		.4byte	.LVL8-1
 4364 0179 0100     		.2byte	0x1
 4365 017b 53       		.byte	0x53
 4366 017c 05000000 		.4byte	.LVL8-1
 4367 0180 06000000 		.4byte	.LFE261
 4368 0184 0400     		.2byte	0x4
 4369 0186 F3       		.byte	0xf3
 4370 0187 01       		.uleb128 0x1
 4371 0188 53       		.byte	0x53
 4372 0189 9F       		.byte	0x9f
 4373 018a 00000000 		.4byte	0
 4374 018e 00000000 		.4byte	0
 4375              	.LLST11:
ARM GAS  C:\Users\jo\AppData\Local\Temp\ccuk5psZ.s 			page 78


 4376 0192 00000000 		.4byte	.LVL9
 4377 0196 02000000 		.4byte	.LVL10
 4378 019a 0100     		.2byte	0x1
 4379 019c 50       		.byte	0x50
 4380 019d 02000000 		.4byte	.LVL10
 4381 01a1 09000000 		.4byte	.LVL11-1
 4382 01a5 0300     		.2byte	0x3
 4383 01a7 70       		.byte	0x70
 4384 01a8 50       		.sleb128 -48
 4385 01a9 9F       		.byte	0x9f
 4386 01aa 09000000 		.4byte	.LVL11-1
 4387 01ae 0A000000 		.4byte	.LFE255
 4388 01b2 0400     		.2byte	0x4
 4389 01b4 F3       		.byte	0xf3
 4390 01b5 01       		.uleb128 0x1
 4391 01b6 50       		.byte	0x50
 4392 01b7 9F       		.byte	0x9f
 4393 01b8 00000000 		.4byte	0
 4394 01bc 00000000 		.4byte	0
 4395              	.LLST12:
 4396 01c0 00000000 		.4byte	.LVL9
 4397 01c4 09000000 		.4byte	.LVL11-1
 4398 01c8 0100     		.2byte	0x1
 4399 01ca 51       		.byte	0x51
 4400 01cb 09000000 		.4byte	.LVL11-1
 4401 01cf 0A000000 		.4byte	.LFE255
 4402 01d3 0400     		.2byte	0x4
 4403 01d5 F3       		.byte	0xf3
 4404 01d6 01       		.uleb128 0x1
 4405 01d7 51       		.byte	0x51
 4406 01d8 9F       		.byte	0x9f
 4407 01d9 00000000 		.4byte	0
 4408 01dd 00000000 		.4byte	0
 4409              	.LLST13:
 4410 01e1 00000000 		.4byte	.LVL9
 4411 01e5 09000000 		.4byte	.LVL11-1
 4412 01e9 0100     		.2byte	0x1
 4413 01eb 52       		.byte	0x52
 4414 01ec 09000000 		.4byte	.LVL11-1
 4415 01f0 0A000000 		.4byte	.LFE255
 4416 01f4 0400     		.2byte	0x4
 4417 01f6 F3       		.byte	0xf3
 4418 01f7 01       		.uleb128 0x1
 4419 01f8 52       		.byte	0x52
 4420 01f9 9F       		.byte	0x9f
 4421 01fa 00000000 		.4byte	0
 4422 01fe 00000000 		.4byte	0
 4423              	.LLST14:
 4424 0202 00000000 		.4byte	.LVL12
 4425 0206 02000000 		.4byte	.LVL13
 4426 020a 0100     		.2byte	0x1
 4427 020c 50       		.byte	0x50
 4428 020d 02000000 		.4byte	.LVL13
 4429 0211 05000000 		.4byte	.LVL14-1
 4430 0215 0300     		.2byte	0x3
 4431 0217 70       		.byte	0x70
 4432 0218 74       		.sleb128 -12
ARM GAS  C:\Users\jo\AppData\Local\Temp\ccuk5psZ.s 			page 79


 4433 0219 9F       		.byte	0x9f
 4434 021a 05000000 		.4byte	.LVL14-1
 4435 021e 06000000 		.4byte	.LFE260
 4436 0222 0400     		.2byte	0x4
 4437 0224 F3       		.byte	0xf3
 4438 0225 01       		.uleb128 0x1
 4439 0226 50       		.byte	0x50
 4440 0227 9F       		.byte	0x9f
 4441 0228 00000000 		.4byte	0
 4442 022c 00000000 		.4byte	0
 4443              	.LLST15:
 4444 0230 00000000 		.4byte	.LVL12
 4445 0234 05000000 		.4byte	.LVL14-1
 4446 0238 0100     		.2byte	0x1
 4447 023a 51       		.byte	0x51
 4448 023b 05000000 		.4byte	.LVL14-1
 4449 023f 06000000 		.4byte	.LFE260
 4450 0243 0400     		.2byte	0x4
 4451 0245 F3       		.byte	0xf3
 4452 0246 01       		.uleb128 0x1
 4453 0247 51       		.byte	0x51
 4454 0248 9F       		.byte	0x9f
 4455 0249 00000000 		.4byte	0
 4456 024d 00000000 		.4byte	0
 4457              	.LLST16:
 4458 0251 00000000 		.4byte	.LVL15
 4459 0255 02000000 		.4byte	.LVL16
 4460 0259 0100     		.2byte	0x1
 4461 025b 50       		.byte	0x50
 4462 025c 02000000 		.4byte	.LVL16
 4463 0260 09000000 		.4byte	.LVL17-1
 4464 0264 0300     		.2byte	0x3
 4465 0266 70       		.byte	0x70
 4466 0267 74       		.sleb128 -12
 4467 0268 9F       		.byte	0x9f
 4468 0269 09000000 		.4byte	.LVL17-1
 4469 026d 0A000000 		.4byte	.LFE258
 4470 0271 0400     		.2byte	0x4
 4471 0273 F3       		.byte	0xf3
 4472 0274 01       		.uleb128 0x1
 4473 0275 50       		.byte	0x50
 4474 0276 9F       		.byte	0x9f
 4475 0277 00000000 		.4byte	0
 4476 027b 00000000 		.4byte	0
 4477              	.LLST17:
 4478 027f 00000000 		.4byte	.LVL18
 4479 0283 02000000 		.4byte	.LVL19
 4480 0287 0100     		.2byte	0x1
 4481 0289 50       		.byte	0x50
 4482 028a 02000000 		.4byte	.LVL19
 4483 028e 05000000 		.4byte	.LVL20-1
 4484 0292 0300     		.2byte	0x3
 4485 0294 70       		.byte	0x70
 4486 0295 50       		.sleb128 -48
 4487 0296 9F       		.byte	0x9f
 4488 0297 05000000 		.4byte	.LVL20-1
 4489 029b 06000000 		.4byte	.LFE259
ARM GAS  C:\Users\jo\AppData\Local\Temp\ccuk5psZ.s 			page 80


 4490 029f 0400     		.2byte	0x4
 4491 02a1 F3       		.byte	0xf3
 4492 02a2 01       		.uleb128 0x1
 4493 02a3 50       		.byte	0x50
 4494 02a4 9F       		.byte	0x9f
 4495 02a5 00000000 		.4byte	0
 4496 02a9 00000000 		.4byte	0
 4497              	.LLST18:
 4498 02ad 00000000 		.4byte	.LVL18
 4499 02b1 05000000 		.4byte	.LVL20-1
 4500 02b5 0100     		.2byte	0x1
 4501 02b7 51       		.byte	0x51
 4502 02b8 05000000 		.4byte	.LVL20-1
 4503 02bc 06000000 		.4byte	.LFE259
 4504 02c0 0400     		.2byte	0x4
 4505 02c2 F3       		.byte	0xf3
 4506 02c3 01       		.uleb128 0x1
 4507 02c4 51       		.byte	0x51
 4508 02c5 9F       		.byte	0x9f
 4509 02c6 00000000 		.4byte	0
 4510 02ca 00000000 		.4byte	0
 4511              	.LLST19:
 4512 02ce 00000000 		.4byte	.LVL18
 4513 02d2 05000000 		.4byte	.LVL20-1
 4514 02d6 0100     		.2byte	0x1
 4515 02d8 52       		.byte	0x52
 4516 02d9 05000000 		.4byte	.LVL20-1
 4517 02dd 06000000 		.4byte	.LFE259
 4518 02e1 0400     		.2byte	0x4
 4519 02e3 F3       		.byte	0xf3
 4520 02e4 01       		.uleb128 0x1
 4521 02e5 52       		.byte	0x52
 4522 02e6 9F       		.byte	0x9f
 4523 02e7 00000000 		.4byte	0
 4524 02eb 00000000 		.4byte	0
 4525              	.LLST20:
 4526 02ef 00000000 		.4byte	.LVL21
 4527 02f3 02000000 		.4byte	.LVL22
 4528 02f7 0100     		.2byte	0x1
 4529 02f9 50       		.byte	0x50
 4530 02fa 02000000 		.4byte	.LVL22
 4531 02fe 09000000 		.4byte	.LVL23-1
 4532 0302 0300     		.2byte	0x3
 4533 0304 70       		.byte	0x70
 4534 0305 50       		.sleb128 -48
 4535 0306 9F       		.byte	0x9f
 4536 0307 09000000 		.4byte	.LVL23-1
 4537 030b 0A000000 		.4byte	.LFE257
 4538 030f 0400     		.2byte	0x4
 4539 0311 F3       		.byte	0xf3
 4540 0312 01       		.uleb128 0x1
 4541 0313 50       		.byte	0x50
 4542 0314 9F       		.byte	0x9f
 4543 0315 00000000 		.4byte	0
 4544 0319 00000000 		.4byte	0
 4545              	.LLST21:
 4546 031d 00000000 		.4byte	.LVL21
ARM GAS  C:\Users\jo\AppData\Local\Temp\ccuk5psZ.s 			page 81


 4547 0321 09000000 		.4byte	.LVL23-1
 4548 0325 0100     		.2byte	0x1
 4549 0327 51       		.byte	0x51
 4550 0328 09000000 		.4byte	.LVL23-1
 4551 032c 0A000000 		.4byte	.LFE257
 4552 0330 0400     		.2byte	0x4
 4553 0332 F3       		.byte	0xf3
 4554 0333 01       		.uleb128 0x1
 4555 0334 51       		.byte	0x51
 4556 0335 9F       		.byte	0x9f
 4557 0336 00000000 		.4byte	0
 4558 033a 00000000 		.4byte	0
 4559              	.LLST22:
 4560 033e 00000000 		.4byte	.LVL25
 4561 0342 0C000000 		.4byte	.LVL26
 4562 0346 0100     		.2byte	0x1
 4563 0348 50       		.byte	0x50
 4564 0349 0C000000 		.4byte	.LVL26
 4565 034d 3C000000 		.4byte	.LVL32
 4566 0351 0100     		.2byte	0x1
 4567 0353 54       		.byte	0x54
 4568 0354 3C000000 		.4byte	.LVL32
 4569 0358 40000000 		.4byte	.LFE264
 4570 035c 0400     		.2byte	0x4
 4571 035e F3       		.byte	0xf3
 4572 035f 01       		.uleb128 0x1
 4573 0360 50       		.byte	0x50
 4574 0361 9F       		.byte	0x9f
 4575 0362 00000000 		.4byte	0
 4576 0366 00000000 		.4byte	0
 4577              	.LLST23:
 4578 036a 00000000 		.4byte	.LVL25
 4579 036e 1A000000 		.4byte	.LVL27
 4580 0372 0100     		.2byte	0x1
 4581 0374 51       		.byte	0x51
 4582 0375 1A000000 		.4byte	.LVL27
 4583 0379 25000000 		.4byte	.LVL30-1
 4584 037d 0100     		.2byte	0x1
 4585 037f 53       		.byte	0x53
 4586 0380 25000000 		.4byte	.LVL30-1
 4587 0384 40000000 		.4byte	.LFE264
 4588 0388 0400     		.2byte	0x4
 4589 038a F3       		.byte	0xf3
 4590 038b 01       		.uleb128 0x1
 4591 038c 51       		.byte	0x51
 4592 038d 9F       		.byte	0x9f
 4593 038e 00000000 		.4byte	0
 4594 0392 00000000 		.4byte	0
 4595              	.LLST24:
 4596 0396 00000000 		.4byte	.LVL25
 4597 039a 22000000 		.4byte	.LVL29
 4598 039e 0100     		.2byte	0x1
 4599 03a0 52       		.byte	0x52
 4600 03a1 22000000 		.4byte	.LVL29
 4601 03a5 3C000000 		.4byte	.LVL32
 4602 03a9 0100     		.2byte	0x1
 4603 03ab 55       		.byte	0x55
ARM GAS  C:\Users\jo\AppData\Local\Temp\ccuk5psZ.s 			page 82


 4604 03ac 3C000000 		.4byte	.LVL32
 4605 03b0 40000000 		.4byte	.LFE264
 4606 03b4 0400     		.2byte	0x4
 4607 03b6 F3       		.byte	0xf3
 4608 03b7 01       		.uleb128 0x1
 4609 03b8 52       		.byte	0x52
 4610 03b9 9F       		.byte	0x9f
 4611 03ba 00000000 		.4byte	0
 4612 03be 00000000 		.4byte	0
 4613              	.LLST25:
 4614 03c2 0C000000 		.4byte	.LVL26
 4615 03c6 1E000000 		.4byte	.LVL28
 4616 03ca 0100     		.2byte	0x1
 4617 03cc 50       		.byte	0x50
 4618 03cd 1E000000 		.4byte	.LVL28
 4619 03d1 3C000000 		.4byte	.LVL32
 4620 03d5 0300     		.2byte	0x3
 4621 03d7 74       		.byte	0x74
 4622 03d8 04       		.sleb128 4
 4623 03d9 9F       		.byte	0x9f
 4624 03da 3C000000 		.4byte	.LVL32
 4625 03de 40000000 		.4byte	.LFE264
 4626 03e2 0600     		.2byte	0x6
 4627 03e4 F3       		.byte	0xf3
 4628 03e5 01       		.uleb128 0x1
 4629 03e6 50       		.byte	0x50
 4630 03e7 23       		.byte	0x23
 4631 03e8 04       		.uleb128 0x4
 4632 03e9 9F       		.byte	0x9f
 4633 03ea 00000000 		.4byte	0
 4634 03ee 00000000 		.4byte	0
 4635              	.LLST27:
 4636 03f2 00000000 		.4byte	.LVL33
 4637 03f6 0D000000 		.4byte	.LVL34-1
 4638 03fa 0100     		.2byte	0x1
 4639 03fc 50       		.byte	0x50
 4640 03fd 0D000000 		.4byte	.LVL34-1
 4641 0401 1A000000 		.4byte	.LFE265
 4642 0405 0100     		.2byte	0x1
 4643 0407 54       		.byte	0x54
 4644 0408 00000000 		.4byte	0
 4645 040c 00000000 		.4byte	0
 4646              	.LLST28:
 4647 0410 00000000 		.4byte	.LVL33
 4648 0414 0D000000 		.4byte	.LVL34-1
 4649 0418 0100     		.2byte	0x1
 4650 041a 51       		.byte	0x51
 4651 041b 0D000000 		.4byte	.LVL34-1
 4652 041f 1A000000 		.4byte	.LFE265
 4653 0423 0400     		.2byte	0x4
 4654 0425 F3       		.byte	0xf3
 4655 0426 01       		.uleb128 0x1
 4656 0427 51       		.byte	0x51
 4657 0428 9F       		.byte	0x9f
 4658 0429 00000000 		.4byte	0
 4659 042d 00000000 		.4byte	0
 4660              	.LLST29:
ARM GAS  C:\Users\jo\AppData\Local\Temp\ccuk5psZ.s 			page 83


 4661 0431 00000000 		.4byte	.LVL36
 4662 0435 0D000000 		.4byte	.LVL37-1
 4663 0439 0100     		.2byte	0x1
 4664 043b 50       		.byte	0x50
 4665 043c 0D000000 		.4byte	.LVL37-1
 4666 0440 2E000000 		.4byte	.LFE266
 4667 0444 0100     		.2byte	0x1
 4668 0446 54       		.byte	0x54
 4669 0447 00000000 		.4byte	0
 4670 044b 00000000 		.4byte	0
 4671              	.LLST30:
 4672 044f 00000000 		.4byte	.LVL41
 4673 0453 10000000 		.4byte	.LVL44
 4674 0457 0100     		.2byte	0x1
 4675 0459 50       		.byte	0x50
 4676 045a 10000000 		.4byte	.LVL44
 4677 045e 1A000000 		.4byte	.LVL46
 4678 0462 0100     		.2byte	0x1
 4679 0464 54       		.byte	0x54
 4680 0465 1A000000 		.4byte	.LVL46
 4681 0469 1C000000 		.4byte	.LVL47
 4682 046d 0100     		.2byte	0x1
 4683 046f 50       		.byte	0x50
 4684 0470 1C000000 		.4byte	.LVL47
 4685 0474 38000000 		.4byte	.LVL53
 4686 0478 0100     		.2byte	0x1
 4687 047a 54       		.byte	0x54
 4688 047b 38000000 		.4byte	.LVL53
 4689 047f 3B000000 		.4byte	.LVL54-1
 4690 0483 0300     		.2byte	0x3
 4691 0485 70       		.byte	0x70
 4692 0486 7C       		.sleb128 -4
 4693 0487 9F       		.byte	0x9f
 4694 0488 3B000000 		.4byte	.LVL54-1
 4695 048c 3C000000 		.4byte	.LFE267
 4696 0490 0400     		.2byte	0x4
 4697 0492 F3       		.byte	0xf3
 4698 0493 01       		.uleb128 0x1
 4699 0494 50       		.byte	0x50
 4700 0495 9F       		.byte	0x9f
 4701 0496 00000000 		.4byte	0
 4702 049a 00000000 		.4byte	0
 4703              	.LLST31:
 4704 049e 00000000 		.4byte	.LVL41
 4705 04a2 0C000000 		.4byte	.LVL43
 4706 04a6 0100     		.2byte	0x1
 4707 04a8 51       		.byte	0x51
 4708 04a9 0C000000 		.4byte	.LVL43
 4709 04ad 1A000000 		.4byte	.LVL46
 4710 04b1 0400     		.2byte	0x4
 4711 04b3 F3       		.byte	0xf3
 4712 04b4 01       		.uleb128 0x1
 4713 04b5 51       		.byte	0x51
 4714 04b6 9F       		.byte	0x9f
 4715 04b7 1A000000 		.4byte	.LVL46
 4716 04bb 1E000000 		.4byte	.LVL48
 4717 04bf 0100     		.2byte	0x1
ARM GAS  C:\Users\jo\AppData\Local\Temp\ccuk5psZ.s 			page 84


 4718 04c1 51       		.byte	0x51
 4719 04c2 1E000000 		.4byte	.LVL48
 4720 04c6 3C000000 		.4byte	.LFE267
 4721 04ca 0400     		.2byte	0x4
 4722 04cc F3       		.byte	0xf3
 4723 04cd 01       		.uleb128 0x1
 4724 04ce 51       		.byte	0x51
 4725 04cf 9F       		.byte	0x9f
 4726 04d0 00000000 		.4byte	0
 4727 04d4 00000000 		.4byte	0
 4728              	.LLST32:
 4729 04d8 1A000000 		.4byte	.LVL46
 4730 04dc 30000000 		.4byte	.LVL51
 4731 04e0 0200     		.2byte	0x2
 4732 04e2 34       		.byte	0x34
 4733 04e3 9F       		.byte	0x9f
 4734 04e4 00000000 		.4byte	0
 4735 04e8 00000000 		.4byte	0
 4736              	.LLST33:
 4737 04ec 1A000000 		.4byte	.LVL46
 4738 04f0 1C000000 		.4byte	.LVL47
 4739 04f4 0300     		.2byte	0x3
 4740 04f6 70       		.byte	0x70
 4741 04f7 04       		.sleb128 4
 4742 04f8 9F       		.byte	0x9f
 4743 04f9 1C000000 		.4byte	.LVL47
 4744 04fd 21000000 		.4byte	.LVL49-1
 4745 0501 0100     		.2byte	0x1
 4746 0503 50       		.byte	0x50
 4747 0504 21000000 		.4byte	.LVL49-1
 4748 0508 30000000 		.4byte	.LVL51
 4749 050c 0300     		.2byte	0x3
 4750 050e 74       		.byte	0x74
 4751 050f 04       		.sleb128 4
 4752 0510 9F       		.byte	0x9f
 4753 0511 00000000 		.4byte	0
 4754 0515 00000000 		.4byte	0
 4755              	.LLST34:
 4756 0519 30000000 		.4byte	.LVL51
 4757 051d 32000000 		.4byte	.LVL52
 4758 0521 0300     		.2byte	0x3
 4759 0523 74       		.byte	0x74
 4760 0524 04       		.sleb128 4
 4761 0525 9F       		.byte	0x9f
 4762 0526 32000000 		.4byte	.LVL52
 4763 052a 3B000000 		.4byte	.LVL54-1
 4764 052e 0100     		.2byte	0x1
 4765 0530 50       		.byte	0x50
 4766 0531 3B000000 		.4byte	.LVL54-1
 4767 0535 3C000000 		.4byte	.LFE267
 4768 0539 0600     		.2byte	0x6
 4769 053b F3       		.byte	0xf3
 4770 053c 01       		.uleb128 0x1
 4771 053d 50       		.byte	0x50
 4772 053e 23       		.byte	0x23
 4773 053f 04       		.uleb128 0x4
 4774 0540 9F       		.byte	0x9f
ARM GAS  C:\Users\jo\AppData\Local\Temp\ccuk5psZ.s 			page 85


 4775 0541 00000000 		.4byte	0
 4776 0545 00000000 		.4byte	0
 4777              	.LLST35:
 4778 0549 00000000 		.4byte	.LVL55
 4779 054d 06000000 		.4byte	.LVL56
 4780 0551 0100     		.2byte	0x1
 4781 0553 50       		.byte	0x50
 4782 0554 06000000 		.4byte	.LVL56
 4783 0558 1E000000 		.4byte	.LFE268
 4784 055c 0100     		.2byte	0x1
 4785 055e 54       		.byte	0x54
 4786 055f 00000000 		.4byte	0
 4787 0563 00000000 		.4byte	0
 4788              	.LLST36:
 4789 0567 0A000000 		.4byte	.LVL57
 4790 056b 14000000 		.4byte	.LVL59
 4791 056f 0100     		.2byte	0x1
 4792 0571 50       		.byte	0x50
 4793 0572 14000000 		.4byte	.LVL59
 4794 0576 1E000000 		.4byte	.LFE268
 4795 057a 0100     		.2byte	0x1
 4796 057c 55       		.byte	0x55
 4797 057d 00000000 		.4byte	0
 4798 0581 00000000 		.4byte	0
 4799              	.LLST37:
 4800 0585 12000000 		.4byte	.LVL58
 4801 0589 14000000 		.4byte	.LVL59
 4802 058d 0300     		.2byte	0x3
 4803 058f 74       		.byte	0x74
 4804 0590 04       		.sleb128 4
 4805 0591 9F       		.byte	0x9f
 4806 0592 14000000 		.4byte	.LVL59
 4807 0596 19000000 		.4byte	.LVL60-1
 4808 059a 0100     		.2byte	0x1
 4809 059c 50       		.byte	0x50
 4810 059d 19000000 		.4byte	.LVL60-1
 4811 05a1 1E000000 		.4byte	.LFE268
 4812 05a5 0300     		.2byte	0x3
 4813 05a7 74       		.byte	0x74
 4814 05a8 04       		.sleb128 4
 4815 05a9 9F       		.byte	0x9f
 4816 05aa 00000000 		.4byte	0
 4817 05ae 00000000 		.4byte	0
 4818              		.section	.debug_aranges,"",%progbits
 4819 0000 84000000 		.4byte	0x84
 4820 0004 0200     		.2byte	0x2
 4821 0006 00000000 		.4byte	.Ldebug_info0
 4822 000a 04       		.byte	0x4
 4823 000b 00       		.byte	0
 4824 000c 0000     		.2byte	0
 4825 000e 0000     		.2byte	0
 4826 0010 00000000 		.4byte	.LFB262
 4827 0014 06000000 		.4byte	.LFE262-.LFB262
 4828 0018 00000000 		.4byte	.LFB256
 4829 001c 0A000000 		.4byte	.LFE256-.LFB256
 4830 0020 00000000 		.4byte	.LFB261
 4831 0024 06000000 		.4byte	.LFE261-.LFB261
ARM GAS  C:\Users\jo\AppData\Local\Temp\ccuk5psZ.s 			page 86


 4832 0028 00000000 		.4byte	.LFB255
 4833 002c 0A000000 		.4byte	.LFE255-.LFB255
 4834 0030 00000000 		.4byte	.LFB260
 4835 0034 06000000 		.4byte	.LFE260-.LFB260
 4836 0038 00000000 		.4byte	.LFB258
 4837 003c 0A000000 		.4byte	.LFE258-.LFB258
 4838 0040 00000000 		.4byte	.LFB259
 4839 0044 06000000 		.4byte	.LFE259-.LFB259
 4840 0048 00000000 		.4byte	.LFB257
 4841 004c 0A000000 		.4byte	.LFE257-.LFB257
 4842 0050 00000000 		.4byte	.LFB263
 4843 0054 04000000 		.4byte	.LFE263-.LFB263
 4844 0058 00000000 		.4byte	.LFB264
 4845 005c 40000000 		.4byte	.LFE264-.LFB264
 4846 0060 00000000 		.4byte	.LFB265
 4847 0064 1A000000 		.4byte	.LFE265-.LFB265
 4848 0068 00000000 		.4byte	.LFB266
 4849 006c 2E000000 		.4byte	.LFE266-.LFB266
 4850 0070 00000000 		.4byte	.LFB267
 4851 0074 3C000000 		.4byte	.LFE267-.LFB267
 4852 0078 00000000 		.4byte	.LFB268
 4853 007c 1E000000 		.4byte	.LFE268-.LFB268
 4854 0080 00000000 		.4byte	0
 4855 0084 00000000 		.4byte	0
 4856              		.section	.debug_ranges,"",%progbits
 4857              	.Ldebug_ranges0:
 4858 0000 02000000 		.4byte	.LBB69
 4859 0004 04000000 		.4byte	.LBE69
 4860 0008 06000000 		.4byte	.LBB78
 4861 000c 0A000000 		.4byte	.LBE78
 4862 0010 00000000 		.4byte	0
 4863 0014 00000000 		.4byte	0
 4864 0018 02000000 		.4byte	.LBB85
 4865 001c 04000000 		.4byte	.LBE85
 4866 0020 06000000 		.4byte	.LBB94
 4867 0024 0A000000 		.4byte	.LBE94
 4868 0028 00000000 		.4byte	0
 4869 002c 00000000 		.4byte	0
 4870 0030 30000000 		.4byte	.LBB105
 4871 0034 34000000 		.4byte	.LBE105
 4872 0038 38000000 		.4byte	.LBB108
 4873 003c 3C000000 		.4byte	.LBE108
 4874 0040 00000000 		.4byte	0
 4875 0044 00000000 		.4byte	0
 4876 0048 00000000 		.4byte	.LFB262
 4877 004c 06000000 		.4byte	.LFE262
 4878 0050 00000000 		.4byte	.LFB256
 4879 0054 0A000000 		.4byte	.LFE256
 4880 0058 00000000 		.4byte	.LFB261
 4881 005c 06000000 		.4byte	.LFE261
 4882 0060 00000000 		.4byte	.LFB255
 4883 0064 0A000000 		.4byte	.LFE255
 4884 0068 00000000 		.4byte	.LFB260
 4885 006c 06000000 		.4byte	.LFE260
 4886 0070 00000000 		.4byte	.LFB258
 4887 0074 0A000000 		.4byte	.LFE258
 4888 0078 00000000 		.4byte	.LFB259
ARM GAS  C:\Users\jo\AppData\Local\Temp\ccuk5psZ.s 			page 87


 4889 007c 06000000 		.4byte	.LFE259
 4890 0080 00000000 		.4byte	.LFB257
 4891 0084 0A000000 		.4byte	.LFE257
 4892 0088 00000000 		.4byte	.LFB263
 4893 008c 04000000 		.4byte	.LFE263
 4894 0090 00000000 		.4byte	.LFB264
 4895 0094 40000000 		.4byte	.LFE264
 4896 0098 00000000 		.4byte	.LFB265
 4897 009c 1A000000 		.4byte	.LFE265
 4898 00a0 00000000 		.4byte	.LFB266
 4899 00a4 2E000000 		.4byte	.LFE266
 4900 00a8 00000000 		.4byte	.LFB267
 4901 00ac 3C000000 		.4byte	.LFE267
 4902 00b0 00000000 		.4byte	.LFB268
 4903 00b4 1E000000 		.4byte	.LFE268
 4904 00b8 00000000 		.4byte	0
 4905 00bc 00000000 		.4byte	0
 4906              		.section	.debug_line,"",%progbits
 4907              	.Ldebug_line0:
 4908 0000 8B040000 		.section	.debug_str,"MS",%progbits,1
 4908      02001303 
 4908      00000201 
 4908      FB0E0D00 
 4908      01010101 
 4909              	.LASF170:
 4910 0000 63684F51 		.ascii	"chOQPutTimeout\000"
 4910      50757454 
 4910      696D656F 
 4910      757400
 4911              	.LASF23:
 4912 000f 74726566 		.ascii	"trefs_t\000"
 4912      735F7400 
 4913              	.LASF52:
 4914 0017 72656164 		.ascii	"ready_list_t\000"
 4914      795F6C69 
 4914      73745F74 
 4914      00
 4915              	.LASF2:
 4916 0024 73697A65 		.ascii	"size_t\000"
 4916      5F7400
 4917              	.LASF90:
 4918 002b 7264796D 		.ascii	"rdymsg\000"
 4918      736700
 4919              	.LASF19:
 4920 0032 75696E74 		.ascii	"uint64_t\000"
 4920      36345F74 
 4920      00
 4921              	.LASF3:
 4922 003b 5F5F7569 		.ascii	"__uint8_t\000"
 4922      6E74385F 
 4922      7400
 4923              	.LASF86:
 4924 0045 706F7274 		.ascii	"port_intctx\000"
 4924      5F696E74 
 4924      63747800 
 4925              	.LASF71:
 4926 0051 73797374 		.ascii	"system_debug_t\000"
ARM GAS  C:\Users\jo\AppData\Local\Temp\ccuk5psZ.s 			page 88


 4926      656D5F64 
 4926      65627567 
 4926      5F7400
 4927              	.LASF167:
 4928 0060 63684951 		.ascii	"chIQReadTimeout\000"
 4928      52656164 
 4928      54696D65 
 4928      6F757400 
 4929              	.LASF142:
 4930 0070 706F7274 		.ascii	"port_lock\000"
 4930      5F6C6F63 
 4930      6B00
 4931              	.LASF171:
 4932 007a 63684951 		.ascii	"chIQObjectInit\000"
 4932      4F626A65 
 4932      6374496E 
 4932      697400
 4933              	.LASF14:
 4934 0089 6C6F6E67 		.ascii	"long long unsigned int\000"
 4934      206C6F6E 
 4934      6720756E 
 4934      7369676E 
 4934      65642069 
 4935              	.LASF153:
 4936 00a0 6F73616C 		.ascii	"osalEventBroadcastFlagsI\000"
 4936      4576656E 
 4936      7442726F 
 4936      61646361 
 4936      7374466C 
 4937              	.LASF91:
 4938 00b9 65786974 		.ascii	"exitcode\000"
 4938      636F6465 
 4938      00
 4939              	.LASF78:
 4940 00c2 6D61696E 		.ascii	"mainthread\000"
 4940      74687265 
 4940      616400
 4941              	.LASF8:
 4942 00cd 5F5F696E 		.ascii	"__int32_t\000"
 4942      7433325F 
 4942      7400
 4943              	.LASF68:
 4944 00d7 76697274 		.ascii	"virtual_timers_list_t\000"
 4944      75616C5F 
 4944      74696D65 
 4944      72735F6C 
 4944      6973745F 
 4945              	.LASF166:
 4946 00ed 49544D5F 		.ascii	"ITM_RxBuffer\000"
 4946      52784275 
 4946      66666572 
 4946      00
 4947              	.LASF109:
 4948 00fa 696F5F71 		.ascii	"io_queue_t\000"
 4948      75657565 
 4948      5F7400
 4949              	.LASF51:
ARM GAS  C:\Users\jo\AppData\Local\Temp\ccuk5psZ.s 			page 89


 4950 0105 63685F74 		.ascii	"ch_threads_queue\000"
 4950      68726561 
 4950      64735F71 
 4950      75657565 
 4950      00
 4951              	.LASF158:
 4952 0116 73644F62 		.ascii	"sdObjectInit\000"
 4952      6A656374 
 4952      496E6974 
 4952      00
 4953              	.LASF141:
 4954 0123 72656164 		.ascii	"readt\000"
 4954      7400
 4955              	.LASF111:
 4956 0129 715F7761 		.ascii	"q_waiting\000"
 4956      6974696E 
 4956      6700
 4957              	.LASF12:
 4958 0133 6C6F6E67 		.ascii	"long long int\000"
 4958      206C6F6E 
 4958      6720696E 
 4958      7400
 4959              	.LASF1:
 4960 0141 7369676E 		.ascii	"signed char\000"
 4960      65642063 
 4960      68617200 
 4961              	.LASF81:
 4962 014d 47545052 		.ascii	"GTPR\000"
 4962      00
 4963              	.LASF46:
 4964 0152 705F6D70 		.ascii	"p_mpool\000"
 4964      6F6F6C00 
 4965              	.LASF149:
 4966 015a 6F73616C 		.ascii	"osalEventObjectInit\000"
 4966      4576656E 
 4966      744F626A 
 4966      65637449 
 4966      6E697400 
 4967              	.LASF95:
 4968 016e 6D5F7175 		.ascii	"m_queue\000"
 4968      65756500 
 4969              	.LASF143:
 4970 0176 706F7274 		.ascii	"port_unlock\000"
 4970      5F756E6C 
 4970      6F636B00 
 4971              	.LASF129:
 4972 0182 73746174 		.ascii	"state\000"
 4972      6500
 4973              	.LASF75:
 4974 0188 63685F73 		.ascii	"ch_system\000"
 4974      79737465 
 4974      6D00
 4975              	.LASF9:
 4976 0192 6C6F6E67 		.ascii	"long int\000"
 4976      20696E74 
 4976      00
 4977              	.LASF106:
ARM GAS  C:\Users\jo\AppData\Local\Temp\ccuk5psZ.s 			page 90


 4978 019b 6576656E 		.ascii	"event_source\000"
 4978      745F736F 
 4978      75726365 
 4978      00
 4979              	.LASF22:
 4980 01a8 74737461 		.ascii	"tstate_t\000"
 4980      74655F74 
 4980      00
 4981              	.LASF181:
 4982 01b1 63684F51 		.ascii	"chOQGetI\000"
 4982      47657449 
 4982      00
 4983              	.LASF113:
 4984 01ba 715F6275 		.ascii	"q_buffer\000"
 4984      66666572 
 4984      00
 4985              	.LASF179:
 4986 01c3 63684576 		.ascii	"chEvtBroadcastFlagsI\000"
 4986      7442726F 
 4986      61646361 
 4986      7374466C 
 4986      61677349 
 4987              	.LASF124:
 4988 01d8 53445F53 		.ascii	"SD_STOP\000"
 4988      544F5000 
 4989              	.LASF34:
 4990 01e0 705F6E65 		.ascii	"p_newer\000"
 4990      77657200 
 4991              	.LASF7:
 4992 01e8 73686F72 		.ascii	"short unsigned int\000"
 4992      7420756E 
 4992      7369676E 
 4992      65642069 
 4992      6E7400
 4993              	.LASF175:
 4994 01fb 63685363 		.ascii	"chSchRescheduleS\000"
 4994      68526573 
 4994      63686564 
 4994      756C6553 
 4994      00
 4995              	.LASF57:
 4996 020c 725F6E65 		.ascii	"r_newer\000"
 4996      77657200 
 4997              	.LASF83:
 4998 0214 72656761 		.ascii	"regarm_t\000"
 4998      726D5F74 
 4998      00
 4999              	.LASF64:
 5000 021d 76745F70 		.ascii	"vt_prev\000"
 5000      72657600 
 5001              	.LASF77:
 5002 0225 76746C69 		.ascii	"vtlist\000"
 5002      737400
 5003              	.LASF180:
 5004 022c 63684951 		.ascii	"chIQPutI\000"
 5004      50757449 
 5004      00
ARM GAS  C:\Users\jo\AppData\Local\Temp\ccuk5psZ.s 			page 91


 5005              	.LASF150:
 5006 0235 6F73616C 		.ascii	"osalSysLock\000"
 5006      5379734C 
 5006      6F636B00 
 5007              	.LASF98:
 5008 0241 6D757465 		.ascii	"mutex_t\000"
 5008      785F7400 
 5009              	.LASF144:
 5010 0249 76616C75 		.ascii	"value\000"
 5010      6500
 5011              	.LASF110:
 5012 024f 696F5F71 		.ascii	"io_queue\000"
 5012      75657565 
 5012      00
 5013              	.LASF108:
 5014 0258 6576656E 		.ascii	"event_source_t\000"
 5014      745F736F 
 5014      75726365 
 5014      5F7400
 5015              	.LASF79:
 5016 0267 69646C65 		.ascii	"idle_thread_wa\000"
 5016      5F746872 
 5016      6561645F 
 5016      776100
 5017              	.LASF132:
 5018 0276 75736172 		.ascii	"usart\000"
 5018      7400
 5019              	.LASF0:
 5020 027c 756E7369 		.ascii	"unsigned int\000"
 5020      676E6564 
 5020      20696E74 
 5020      00
 5021              	.LASF63:
 5022 0289 76745F6E 		.ascii	"vt_next\000"
 5022      65787400 
 5023              	.LASF16:
 5024 0291 75696E74 		.ascii	"uint16_t\000"
 5024      31365F74 
 5024      00
 5025              	.LASF135:
 5026 029a 53657269 		.ascii	"SerialDriverVMT\000"
 5026      616C4472 
 5026      69766572 
 5026      564D5400 
 5027              	.LASF178:
 5028 02aa 63684951 		.ascii	"chIQResetI\000"
 5028      52657365 
 5028      744900
 5029              	.LASF159:
 5030 02b5 696E6F74 		.ascii	"inotify\000"
 5030      69667900 
 5031              	.LASF65:
 5032 02bd 76745F64 		.ascii	"vt_delta\000"
 5032      656C7461 
 5032      00
 5033              	.LASF41:
 5034 02c6 705F6D73 		.ascii	"p_msgqueue\000"
ARM GAS  C:\Users\jo\AppData\Local\Temp\ccuk5psZ.s 			page 92


 5034      67717565 
 5034      756500
 5035              	.LASF174:
 5036 02d1 73645F6C 		.ascii	"sd_lld_init\000"
 5036      6C645F69 
 5036      6E697400 
 5037              	.LASF139:
 5038 02dd 67657474 		.ascii	"gett\000"
 5038      00
 5039              	.LASF128:
 5040 02e2 6576656E 		.ascii	"event\000"
 5040      7400
 5041              	.LASF148:
 5042 02e8 63684576 		.ascii	"chEvtObjectInit\000"
 5042      744F626A 
 5042      65637449 
 5042      6E697400 
 5043              	.LASF115:
 5044 02f8 715F7772 		.ascii	"q_wrptr\000"
 5044      70747200 
 5045              	.LASF48:
 5046 0300 63685F74 		.ascii	"ch_thread\000"
 5046      68726561 
 5046      6400
 5047              	.LASF105:
 5048 030a 656C5F77 		.ascii	"el_wflags\000"
 5048      666C6167 
 5048      7300
 5049              	.LASF25:
 5050 0314 6D73675F 		.ascii	"msg_t\000"
 5050      7400
 5051              	.LASF131:
 5052 031a 6F717565 		.ascii	"oqueue\000"
 5052      756500
 5053              	.LASF101:
 5054 0321 656C5F6E 		.ascii	"el_next\000"
 5054      65787400 
 5055              	.LASF74:
 5056 0329 63685F73 		.ascii	"ch_system_t\000"
 5056      79737465 
 5056      6D5F7400 
 5057              	.LASF82:
 5058 0335 55534152 		.ascii	"USART_TypeDef\000"
 5058      545F5479 
 5058      70654465 
 5058      6600
 5059              	.LASF140:
 5060 0343 77726974 		.ascii	"writet\000"
 5060      657400
 5061              	.LASF21:
 5062 034a 746D6F64 		.ascii	"tmode_t\000"
 5062      655F7400 
 5063              	.LASF53:
 5064 0352 63685F72 		.ascii	"ch_ready_list\000"
 5064      65616479 
 5064      5F6C6973 
 5064      7400
ARM GAS  C:\Users\jo\AppData\Local\Temp\ccuk5psZ.s 			page 93


 5065              	.LASF26:
 5066 0360 6576656E 		.ascii	"eventmask_t\000"
 5066      746D6173 
 5066      6B5F7400 
 5067              	.LASF133:
 5068 036c 73706565 		.ascii	"speed\000"
 5068      6400
 5069              	.LASF119:
 5070 0372 716E6F74 		.ascii	"qnotify_t\000"
 5070      6966795F 
 5070      7400
 5071              	.LASF84:
 5072 037c 73746B61 		.ascii	"stkalign_t\000"
 5072      6C69676E 
 5072      5F7400
 5073              	.LASF168:
 5074 0387 63684F51 		.ascii	"chOQWriteTimeout\000"
 5074      57726974 
 5074      6554696D 
 5074      656F7574 
 5074      00
 5075              	.LASF136:
 5076 0398 77726974 		.ascii	"write\000"
 5076      6500
 5077              	.LASF120:
 5078 039e 696E7075 		.ascii	"input_queue_t\000"
 5078      745F7175 
 5078      6575655F 
 5078      7400
 5079              	.LASF138:
 5080 03ac 70757474 		.ascii	"putt\000"
 5080      00
 5081              	.LASF80:
 5082 03b1 73697A65 		.ascii	"sizetype\000"
 5082      74797065 
 5082      00
 5083              	.LASF69:
 5084 03ba 63685F76 		.ascii	"ch_virtual_timers_list\000"
 5084      69727475 
 5084      616C5F74 
 5084      696D6572 
 5084      735F6C69 
 5085              	.LASF112:
 5086 03d1 715F636F 		.ascii	"q_counter\000"
 5086      756E7465 
 5086      7200
 5087              	.LASF121:
 5088 03db 6F757470 		.ascii	"output_queue_t\000"
 5088      75745F71 
 5088      75657565 
 5088      5F7400
 5089              	.LASF32:
 5090 03ea 705F7072 		.ascii	"p_prio\000"
 5090      696F00
 5091              	.LASF70:
 5092 03f1 76745F6C 		.ascii	"vt_lasttime\000"
 5092      61737474 
ARM GAS  C:\Users\jo\AppData\Local\Temp\ccuk5psZ.s 			page 94


 5092      696D6500 
 5093              	.LASF35:
 5094 03fd 705F6F6C 		.ascii	"p_older\000"
 5094      64657200 
 5095              	.LASF56:
 5096 0405 725F6374 		.ascii	"r_ctx\000"
 5096      7800
 5097              	.LASF89:
 5098 040b 746D5F63 		.ascii	"tm_calibration_t\000"
 5098      616C6962 
 5098      72617469 
 5098      6F6E5F74 
 5098      00
 5099              	.LASF163:
 5100 041c 73645374 		.ascii	"sdStop\000"
 5100      6F7000
 5101              	.LASF39:
 5102 0423 705F7265 		.ascii	"p_refs\000"
 5102      667300
 5103              	.LASF59:
 5104 042a 725F6375 		.ascii	"r_current\000"
 5104      7272656E 
 5104      7400
 5105              	.LASF58:
 5106 0434 725F6F6C 		.ascii	"r_older\000"
 5106      64657200 
 5107              	.LASF182:
 5108 043c 474E5520 		.ascii	"GNU C 4.9.3 20141119 (release) [ARM/embedded-4_9-br"
 5108      4320342E 
 5108      392E3320 
 5108      32303134 
 5108      31313139 
 5109 046f 616E6368 		.ascii	"anch revision 218278] -mcpu=cortex-m4 -mfloat-abi=h"
 5109      20726576 
 5109      6973696F 
 5109      6E203231 
 5109      38323738 
 5110 04a2 61726420 		.ascii	"ard -mfpu=fpv4-sp-d16 -mno-thumb-interwork -mthumb "
 5110      2D6D6670 
 5110      753D6670 
 5110      76342D73 
 5110      702D6431 
 5111 04d5 2D676764 		.ascii	"-ggdb -O2 -fomit-frame-pointer -falign-functions=16"
 5111      62202D4F 
 5111      32202D66 
 5111      6F6D6974 
 5111      2D667261 
 5112 0508 202D6666 		.ascii	" -ffunction-sections -fdata-sections -fno-common -f"
 5112      756E6374 
 5112      696F6E2D 
 5112      73656374 
 5112      696F6E73 
 5113 053b 73696E67 		.ascii	"single-precision-constant\000"
 5113      6C652D70 
 5113      72656369 
 5113      73696F6E 
 5113      2D636F6E 
ARM GAS  C:\Users\jo\AppData\Local\Temp\ccuk5psZ.s 			page 95


 5114              	.LASF103:
 5115 0555 656C5F65 		.ascii	"el_events\000"
 5115      76656E74 
 5115      7300
 5116              	.LASF134:
 5117 055f 53657269 		.ascii	"SerialConfig\000"
 5117      616C436F 
 5117      6E666967 
 5117      00
 5118              	.LASF13:
 5119 056c 5F5F7569 		.ascii	"__uint64_t\000"
 5119      6E743634 
 5119      5F7400
 5120              	.LASF125:
 5121 0577 53445F52 		.ascii	"SD_READY\000"
 5121      45414459 
 5121      00
 5122              	.LASF152:
 5123 0580 6F73616C 		.ascii	"osalOsRescheduleS\000"
 5123      4F735265 
 5123      73636865 
 5123      64756C65 
 5123      5300
 5124              	.LASF61:
 5125 0592 76697274 		.ascii	"virtual_timer_t\000"
 5125      75616C5F 
 5125      74696D65 
 5125      725F7400 
 5126              	.LASF31:
 5127 05a2 705F7072 		.ascii	"p_prev\000"
 5127      657600
 5128              	.LASF24:
 5129 05a9 74707269 		.ascii	"tprio_t\000"
 5129      6F5F7400 
 5130              	.LASF116:
 5131 05b1 715F7264 		.ascii	"q_rdptr\000"
 5131      70747200 
 5132              	.LASF94:
 5133 05b9 6D757465 		.ascii	"mutex\000"
 5133      7800
 5134              	.LASF72:
 5135 05bf 63685F73 		.ascii	"ch_system_debug\000"
 5135      79737465 
 5135      6D5F6465 
 5135      62756700 
 5136              	.LASF122:
 5137 05cf 5F426F6F 		.ascii	"_Bool\000"
 5137      6C00
 5138              	.LASF17:
 5139 05d5 696E7433 		.ascii	"int32_t\000"
 5139      325F7400 
 5140              	.LASF4:
 5141 05dd 756E7369 		.ascii	"unsigned char\000"
 5141      676E6564 
 5141      20636861 
 5141      7200
 5142              	.LASF173:
ARM GAS  C:\Users\jo\AppData\Local\Temp\ccuk5psZ.s 			page 96


 5143 05eb 73645F6C 		.ascii	"sd_lld_start\000"
 5143      6C645F73 
 5143      74617274 
 5143      00
 5144              	.LASF102:
 5145 05f8 656C5F6C 		.ascii	"el_listener\000"
 5145      69737465 
 5145      6E657200 
 5146              	.LASF104:
 5147 0604 656C5F66 		.ascii	"el_flags\000"
 5147      6C616773 
 5147      00
 5148              	.LASF37:
 5149 060d 705F7374 		.ascii	"p_state\000"
 5149      61746500 
 5150              	.LASF44:
 5151 0615 705F6D74 		.ascii	"p_mtxlist\000"
 5151      786C6973 
 5151      7400
 5152              	.LASF5:
 5153 061f 73686F72 		.ascii	"short int\000"
 5153      7420696E 
 5153      7400
 5154              	.LASF55:
 5155 0629 725F7072 		.ascii	"r_prio\000"
 5155      696F00
 5156              	.LASF93:
 5157 0630 65776D61 		.ascii	"ewmask\000"
 5157      736B00
 5158              	.LASF30:
 5159 0637 705F6E65 		.ascii	"p_next\000"
 5159      787400
 5160              	.LASF38:
 5161 063e 705F666C 		.ascii	"p_flags\000"
 5161      61677300 
 5162              	.LASF164:
 5163 0646 5F5F6675 		.ascii	"__func__\000"
 5163      6E635F5F 
 5163      00
 5164              	.LASF145:
 5165 064f 63685379 		.ascii	"chSysLock\000"
 5165      734C6F63 
 5165      6B00
 5166              	.LASF151:
 5167 0659 6F73616C 		.ascii	"osalSysUnlock\000"
 5167      53797355 
 5167      6E6C6F63 
 5167      6B00
 5168              	.LASF50:
 5169 0667 74687265 		.ascii	"threads_queue_t\000"
 5169      6164735F 
 5169      71756575 
 5169      655F7400 
 5170              	.LASF43:
 5171 0677 705F6570 		.ascii	"p_epending\000"
 5171      656E6469 
 5171      6E6700
ARM GAS  C:\Users\jo\AppData\Local\Temp\ccuk5psZ.s 			page 97


 5172              	.LASF123:
 5173 0682 53445F55 		.ascii	"SD_UNINIT\000"
 5173      4E494E49 
 5173      5400
 5174              	.LASF18:
 5175 068c 75696E74 		.ascii	"uint32_t\000"
 5175      33325F74 
 5175      00
 5176              	.LASF54:
 5177 0695 725F7175 		.ascii	"r_queue\000"
 5177      65756500 
 5178              	.LASF49:
 5179 069d 63685F74 		.ascii	"ch_threads_list\000"
 5179      68726561 
 5179      64735F6C 
 5179      69737400 
 5180              	.LASF127:
 5181 06ad 53657269 		.ascii	"SerialDriver\000"
 5181      616C4472 
 5181      69766572 
 5181      00
 5182              	.LASF11:
 5183 06ba 6C6F6E67 		.ascii	"long unsigned int\000"
 5183      20756E73 
 5183      69676E65 
 5183      6420696E 
 5183      7400
 5184              	.LASF137:
 5185 06cc 72656164 		.ascii	"read\000"
 5185      00
 5186              	.LASF87:
 5187 06d1 63686172 		.ascii	"char\000"
 5187      00
 5188              	.LASF165:
 5189 06d6 7364496E 		.ascii	"sdIncomingDataI\000"
 5189      636F6D69 
 5189      6E674461 
 5189      74614900 
 5190              	.LASF162:
 5191 06e6 636F6E66 		.ascii	"config\000"
 5191      696700
 5192              	.LASF161:
 5193 06ed 73645374 		.ascii	"sdStart\000"
 5193      61727400 
 5194              	.LASF184:
 5195 06f5 433A5C55 		.ascii	"C:\\Users\\jo\\Documents\\GitHub\\ChibiOS\\demos\\S"
 5195      73657273 
 5195      5C6A6F5C 
 5195      446F6375 
 5195      6D656E74 
 5196 0721 544D3332 		.ascii	"TM32\\RT-STM32F407-DISCOVERY\000"
 5196      5C52542D 
 5196      53544D33 
 5196      32463430 
 5196      372D4449 
 5197              	.LASF6:
 5198 073d 5F5F7569 		.ascii	"__uint16_t\000"
ARM GAS  C:\Users\jo\AppData\Local\Temp\ccuk5psZ.s 			page 98


 5198      6E743136 
 5198      5F7400
 5199              	.LASF29:
 5200 0748 74687265 		.ascii	"thread_t\000"
 5200      61645F74 
 5200      00
 5201              	.LASF97:
 5202 0751 6D5F6E65 		.ascii	"m_next\000"
 5202      787400
 5203              	.LASF28:
 5204 0758 73797374 		.ascii	"systime_t\000"
 5204      696D655F 
 5204      7400
 5205              	.LASF45:
 5206 0762 705F7265 		.ascii	"p_realprio\000"
 5206      616C7072 
 5206      696F00
 5207              	.LASF60:
 5208 076d 76746675 		.ascii	"vtfunc_t\000"
 5208      6E635F74 
 5208      00
 5209              	.LASF10:
 5210 0776 5F5F7569 		.ascii	"__uint32_t\000"
 5210      6E743332 
 5210      5F7400
 5211              	.LASF146:
 5212 0781 5F5F7365 		.ascii	"__set_BASEPRI\000"
 5212      745F4241 
 5212      53455052 
 5212      4900
 5213              	.LASF73:
 5214 078f 70616E69 		.ascii	"panic_msg\000"
 5214      635F6D73 
 5214      6700
 5215              	.LASF88:
 5216 0799 6F666673 		.ascii	"offset\000"
 5216      657400
 5217              	.LASF99:
 5218 07a0 6576656E 		.ascii	"event_listener_t\000"
 5218      745F6C69 
 5218      7374656E 
 5218      65725F74 
 5218      00
 5219              	.LASF177:
 5220 07b1 63684F51 		.ascii	"chOQResetI\000"
 5220      52657365 
 5220      744900
 5221              	.LASF85:
 5222 07bc 636F6E74 		.ascii	"context\000"
 5222      65787400 
 5223              	.LASF62:
 5224 07c4 63685F76 		.ascii	"ch_virtual_timer\000"
 5224      69727475 
 5224      616C5F74 
 5224      696D6572 
 5224      00
 5225              	.LASF20:
ARM GAS  C:\Users\jo\AppData\Local\Temp\ccuk5psZ.s 			page 99


 5226 07d5 7274636E 		.ascii	"rtcnt_t\000"
 5226      745F7400 
 5227              	.LASF155:
 5228 07dd 74696D65 		.ascii	"time\000"
 5228      00
 5229              	.LASF67:
 5230 07e2 76745F70 		.ascii	"vt_par\000"
 5230      617200
 5231              	.LASF27:
 5232 07e9 6576656E 		.ascii	"eventflags_t\000"
 5232      74666C61 
 5232      67735F74 
 5232      00
 5233              	.LASF172:
 5234 07f6 63684F51 		.ascii	"chOQObjectInit\000"
 5234      4F626A65 
 5234      6374496E 
 5234      697400
 5235              	.LASF126:
 5236 0805 73647374 		.ascii	"sdstate_t\000"
 5236      6174655F 
 5236      7400
 5237              	.LASF114:
 5238 080f 715F746F 		.ascii	"q_top\000"
 5238      7000
 5239              	.LASF36:
 5240 0815 705F6E61 		.ascii	"p_name\000"
 5240      6D6500
 5241              	.LASF107:
 5242 081c 65735F6E 		.ascii	"es_next\000"
 5242      65787400 
 5243              	.LASF185:
 5244 0824 63684951 		.ascii	"chIQIsEmptyI\000"
 5244      4973456D 
 5244      70747949 
 5244      00
 5245              	.LASF117:
 5246 0831 715F6E6F 		.ascii	"q_notify\000"
 5246      74696679 
 5246      00
 5247              	.LASF76:
 5248 083a 726C6973 		.ascii	"rlist\000"
 5248      7400
 5249              	.LASF186:
 5250 0840 73645265 		.ascii	"sdRequestDataI\000"
 5250      71756573 
 5250      74446174 
 5250      614900
 5251              	.LASF15:
 5252 084f 75696E74 		.ascii	"uint8_t\000"
 5252      385F7400 
 5253              	.LASF154:
 5254 0857 666C6167 		.ascii	"flags\000"
 5254      7300
 5255              	.LASF160:
 5256 085d 6F6E6F74 		.ascii	"onotify\000"
 5256      69667900 
ARM GAS  C:\Users\jo\AppData\Local\Temp\ccuk5psZ.s 			page 100


 5257              	.LASF92:
 5258 0865 77746F62 		.ascii	"wtobjp\000"
 5258      6A7000
 5259              	.LASF130:
 5260 086c 69717565 		.ascii	"iqueue\000"
 5260      756500
 5261              	.LASF47:
 5262 0873 74687265 		.ascii	"threads_list_t\000"
 5262      6164735F 
 5262      6C697374 
 5262      5F7400
 5263              	.LASF147:
 5264 0882 63685379 		.ascii	"chSysUnlock\000"
 5264      73556E6C 
 5264      6F636B00 
 5265              	.LASF42:
 5266 088e 705F6D73 		.ascii	"p_msg\000"
 5266      6700
 5267              	.LASF176:
 5268 0894 73645F6C 		.ascii	"sd_lld_stop\000"
 5268      6C645F73 
 5268      746F7000 
 5269              	.LASF156:
 5270 08a0 74696D65 		.ascii	"timeout\000"
 5270      6F757400 
 5271              	.LASF157:
 5272 08a8 7364496E 		.ascii	"sdInit\000"
 5272      697400
 5273              	.LASF118:
 5274 08af 715F6C69 		.ascii	"q_link\000"
 5274      6E6B00
 5275              	.LASF183:
 5276 08b6 2E2E2F2E 		.ascii	"../../../os/hal/src/serial.c\000"
 5276      2E2F2E2E 
 5276      2F6F732F 
 5276      68616C2F 
 5276      7372632F 
 5277              	.LASF96:
 5278 08d3 6D5F6F77 		.ascii	"m_owner\000"
 5278      6E657200 
 5279              	.LASF33:
 5280 08db 705F6374 		.ascii	"p_ctx\000"
 5280      7800
 5281              	.LASF66:
 5282 08e1 76745F66 		.ascii	"vt_func\000"
 5282      756E6300 
 5283              	.LASF169:
 5284 08e9 63684951 		.ascii	"chIQGetTimeout\000"
 5284      47657454 
 5284      696D656F 
 5284      757400
 5285              	.LASF100:
 5286 08f8 6576656E 		.ascii	"event_listener\000"
 5286      745F6C69 
 5286      7374656E 
 5286      657200
 5287              	.LASF40:
ARM GAS  C:\Users\jo\AppData\Local\Temp\ccuk5psZ.s 			page 101


 5288 0907 705F7761 		.ascii	"p_waiting\000"
 5288      6974696E 
 5288      6700
 5289              		.ident	"GCC: (GNU Tools for ARM Embedded Processors) 4.9.3 20141119 (release) [ARM/embedded-4_9-br
ARM GAS  C:\Users\jo\AppData\Local\Temp\ccuk5psZ.s 			page 102


DEFINED SYMBOLS
                            *ABS*:00000000 serial.c
C:\Users\jo\AppData\Local\Temp\ccuk5psZ.s:21     .text.readt:00000000 $t
C:\Users\jo\AppData\Local\Temp\ccuk5psZ.s:26     .text.readt:00000000 readt
C:\Users\jo\AppData\Local\Temp\ccuk5psZ.s:44     .text.read:00000000 $t
C:\Users\jo\AppData\Local\Temp\ccuk5psZ.s:49     .text.read:00000000 read
C:\Users\jo\AppData\Local\Temp\ccuk5psZ.s:67     .text.writet:00000000 $t
C:\Users\jo\AppData\Local\Temp\ccuk5psZ.s:72     .text.writet:00000000 writet
C:\Users\jo\AppData\Local\Temp\ccuk5psZ.s:89     .text.write:00000000 $t
C:\Users\jo\AppData\Local\Temp\ccuk5psZ.s:94     .text.write:00000000 write
C:\Users\jo\AppData\Local\Temp\ccuk5psZ.s:112    .text.gett:00000000 $t
C:\Users\jo\AppData\Local\Temp\ccuk5psZ.s:117    .text.gett:00000000 gett
C:\Users\jo\AppData\Local\Temp\ccuk5psZ.s:134    .text.get:00000000 $t
C:\Users\jo\AppData\Local\Temp\ccuk5psZ.s:139    .text.get:00000000 get
C:\Users\jo\AppData\Local\Temp\ccuk5psZ.s:157    .text.putt:00000000 $t
C:\Users\jo\AppData\Local\Temp\ccuk5psZ.s:162    .text.putt:00000000 putt
C:\Users\jo\AppData\Local\Temp\ccuk5psZ.s:179    .text.put:00000000 $t
C:\Users\jo\AppData\Local\Temp\ccuk5psZ.s:184    .text.put:00000000 put
C:\Users\jo\AppData\Local\Temp\ccuk5psZ.s:202    .text.sdInit:00000000 $t
C:\Users\jo\AppData\Local\Temp\ccuk5psZ.s:208    .text.sdInit:00000000 sdInit
C:\Users\jo\AppData\Local\Temp\ccuk5psZ.s:222    .text.sdObjectInit:00000000 $t
C:\Users\jo\AppData\Local\Temp\ccuk5psZ.s:228    .text.sdObjectInit:00000000 sdObjectInit
C:\Users\jo\AppData\Local\Temp\ccuk5psZ.s:295    .text.sdObjectInit:0000003c $d
C:\Users\jo\AppData\Local\Temp\ccuk5psZ.s:300    .text.sdStart:00000000 $t
C:\Users\jo\AppData\Local\Temp\ccuk5psZ.s:306    .text.sdStart:00000000 sdStart
C:\Users\jo\AppData\Local\Temp\ccuk5psZ.s:377    .text.sdStop:00000000 $t
C:\Users\jo\AppData\Local\Temp\ccuk5psZ.s:383    .text.sdStop:00000000 sdStop
C:\Users\jo\AppData\Local\Temp\ccuk5psZ.s:468    .text.sdIncomingDataI:00000000 $t
C:\Users\jo\AppData\Local\Temp\ccuk5psZ.s:474    .text.sdIncomingDataI:00000000 sdIncomingDataI
C:\Users\jo\AppData\Local\Temp\ccuk5psZ.s:555    .text.sdRequestDataI:00000000 $t
C:\Users\jo\AppData\Local\Temp\ccuk5psZ.s:561    .text.sdRequestDataI:00000000 sdRequestDataI
C:\Users\jo\AppData\Local\Temp\ccuk5psZ.s:606    .rodata.vmt:00000000 $d
C:\Users\jo\AppData\Local\Temp\ccuk5psZ.s:610    .rodata.vmt:00000000 vmt
                     .debug_frame:00000010 $d

UNDEFINED SYMBOLS
chIQReadTimeout
chOQWriteTimeout
chIQGetTimeout
chOQPutTimeout
sd_lld_init
chIQObjectInit
chOQObjectInit
sd_lld_start
sd_lld_stop
chOQResetI
chIQResetI
chSchRescheduleS
chIQPutI
chEvtBroadcastFlagsI
chOQGetI
