ARM GAS  C:\Users\jo\AppData\Local\Temp\ccuk5psZ.s 			page 1


   1              		.syntax unified
   2              		.cpu cortex-m4
   3              		.eabi_attribute 27, 3
   4              		.eabi_attribute 28, 1
   5              		.fpu fpv4-sp-d16
   6              		.eabi_attribute 20, 1
   7              		.eabi_attribute 21, 1
   8              		.eabi_attribute 23, 3
   9              		.eabi_attribute 24, 1
  10              		.eabi_attribute 25, 1
  11              		.eabi_attribute 26, 1
  12              		.eabi_attribute 30, 2
  13              		.eabi_attribute 34, 1
  14              		.eabi_attribute 18, 4
  15              		.thumb
  16              		.file	"serial.c"
  17              		.text
  18              	.Ltext0:
  19              		.cfi_sections	.debug_frame
  20              		.section	.text.readt,"ax",%progbits
  21              		.align	2
  22              		.p2align 4,,15
  23              		.thumb
  24              		.thumb_func
  25              		.type	readt, %function
  26              	readt:
  27              	.LFB262:
  28              		.file 1 "../../../os/hal/src/serial.c"
  29              		.loc 1 90 0
  30              		.cfi_startproc
  31              		@ args = 0, pretend = 0, frame = 0
  32              		@ frame_needed = 0, uses_anonymous_args = 0
  33              		@ link register save eliminated.
  34              	.LVL0:
  35              		.loc 1 92 0
  36 0000 0C30     		adds	r0, r0, #12
  37              	.LVL1:
  38 0002 FFF7FEBF 		b	chIQReadTimeout
  39              	.LVL2:
  40              		.cfi_endproc
  41              	.LFE262:
  42              		.size	readt, .-readt
  43 0006 00BFAFF3 		.section	.text.read,"ax",%progbits
  43      0080AFF3 
  43      0080
  44              		.align	2
  45              		.p2align 4,,15
  46              		.thumb
  47              		.thumb_func
  48              		.type	read, %function
  49              	read:
  50              	.LFB256:
  51              		.loc 1 59 0
  52              		.cfi_startproc
  53              		@ args = 0, pretend = 0, frame = 0
  54              		@ frame_needed = 0, uses_anonymous_args = 0
  55              		@ link register save eliminated.
ARM GAS  C:\Users\jo\AppData\Local\Temp\ccuk5psZ.s 			page 2


  56              	.LVL3:
  57              		.loc 1 61 0
  58 0000 0C30     		adds	r0, r0, #12
  59              	.LVL4:
  60 0002 4FF0FF33 		mov	r3, #-1
  61 0006 FFF7FEBF 		b	chIQReadTimeout
  62              	.LVL5:
  63              		.cfi_endproc
  64              	.LFE256:
  65              		.size	read, .-read
  66 000a 00BFAFF3 		.section	.text.writet,"ax",%progbits
  66      0080
  67              		.align	2
  68              		.p2align 4,,15
  69              		.thumb
  70              		.thumb_func
  71              		.type	writet, %function
  72              	writet:
  73              	.LFB261:
  74              		.loc 1 85 0
  75              		.cfi_startproc
  76              		@ args = 0, pretend = 0, frame = 0
  77              		@ frame_needed = 0, uses_anonymous_args = 0
  78              		@ link register save eliminated.
  79              	.LVL6:
  80              		.loc 1 87 0
  81 0000 3030     		adds	r0, r0, #48
  82              	.LVL7:
  83 0002 FFF7FEBF 		b	chOQWriteTimeout
  84              	.LVL8:
  85              		.cfi_endproc
  86              	.LFE261:
  87              		.size	writet, .-writet
  88 0006 00BFAFF3 		.section	.text.write,"ax",%progbits
  88      0080AFF3 
  88      0080
  89              		.align	2
  90              		.p2align 4,,15
  91              		.thumb
  92              		.thumb_func
  93              		.type	write, %function
  94              	write:
  95              	.LFB255:
  96              		.loc 1 53 0
  97              		.cfi_startproc
  98              		@ args = 0, pretend = 0, frame = 0
  99              		@ frame_needed = 0, uses_anonymous_args = 0
 100              		@ link register save eliminated.
 101              	.LVL9:
 102              		.loc 1 55 0
 103 0000 3030     		adds	r0, r0, #48
 104              	.LVL10:
 105 0002 4FF0FF33 		mov	r3, #-1
 106 0006 FFF7FEBF 		b	chOQWriteTimeout
 107              	.LVL11:
 108              		.cfi_endproc
 109              	.LFE255:
ARM GAS  C:\Users\jo\AppData\Local\Temp\ccuk5psZ.s 			page 3


 110              		.size	write, .-write
 111 000a 00BFAFF3 		.section	.text.gett,"ax",%progbits
 111      0080
 112              		.align	2
 113              		.p2align 4,,15
 114              		.thumb
 115              		.thumb_func
 116              		.type	gett, %function
 117              	gett:
 118              	.LFB260:
 119              		.loc 1 80 0
 120              		.cfi_startproc
 121              		@ args = 0, pretend = 0, frame = 0
 122              		@ frame_needed = 0, uses_anonymous_args = 0
 123              		@ link register save eliminated.
 124              	.LVL12:
 125              		.loc 1 82 0
 126 0000 0C30     		adds	r0, r0, #12
 127              	.LVL13:
 128 0002 FFF7FEBF 		b	chIQGetTimeout
 129              	.LVL14:
 130              		.cfi_endproc
 131              	.LFE260:
 132              		.size	gett, .-gett
 133 0006 00BFAFF3 		.section	.text.get,"ax",%progbits
 133      0080AFF3 
 133      0080
 134              		.align	2
 135              		.p2align 4,,15
 136              		.thumb
 137              		.thumb_func
 138              		.type	get, %function
 139              	get:
 140              	.LFB258:
 141              		.loc 1 70 0
 142              		.cfi_startproc
 143              		@ args = 0, pretend = 0, frame = 0
 144              		@ frame_needed = 0, uses_anonymous_args = 0
 145              		@ link register save eliminated.
 146              	.LVL15:
 147              		.loc 1 72 0
 148 0000 0C30     		adds	r0, r0, #12
 149              	.LVL16:
 150 0002 4FF0FF31 		mov	r1, #-1
 151 0006 FFF7FEBF 		b	chIQGetTimeout
 152              	.LVL17:
 153              		.cfi_endproc
 154              	.LFE258:
 155              		.size	get, .-get
 156 000a 00BFAFF3 		.section	.text.putt,"ax",%progbits
 156      0080
 157              		.align	2
 158              		.p2align 4,,15
 159              		.thumb
 160              		.thumb_func
 161              		.type	putt, %function
 162              	putt:
ARM GAS  C:\Users\jo\AppData\Local\Temp\ccuk5psZ.s 			page 4


 163              	.LFB259:
 164              		.loc 1 75 0
 165              		.cfi_startproc
 166              		@ args = 0, pretend = 0, frame = 0
 167              		@ frame_needed = 0, uses_anonymous_args = 0
 168              		@ link register save eliminated.
 169              	.LVL18:
 170              		.loc 1 77 0
 171 0000 3030     		adds	r0, r0, #48
 172              	.LVL19:
 173 0002 FFF7FEBF 		b	chOQPutTimeout
 174              	.LVL20:
 175              		.cfi_endproc
 176              	.LFE259:
 177              		.size	putt, .-putt
 178 0006 00BFAFF3 		.section	.text.put,"ax",%progbits
 178      0080AFF3 
 178      0080
 179              		.align	2
 180              		.p2align 4,,15
 181              		.thumb
 182              		.thumb_func
 183              		.type	put, %function
 184              	put:
 185              	.LFB257:
 186              		.loc 1 65 0
 187              		.cfi_startproc
 188              		@ args = 0, pretend = 0, frame = 0
 189              		@ frame_needed = 0, uses_anonymous_args = 0
 190              		@ link register save eliminated.
 191              	.LVL21:
 192              		.loc 1 67 0
 193 0000 3030     		adds	r0, r0, #48
 194              	.LVL22:
 195 0002 4FF0FF32 		mov	r2, #-1
 196 0006 FFF7FEBF 		b	chOQPutTimeout
 197              	.LVL23:
 198              		.cfi_endproc
 199              	.LFE257:
 200              		.size	put, .-put
 201 000a 00BFAFF3 		.section	.text.sdInit,"ax",%progbits
 201      0080
 202              		.align	2
 203              		.p2align 4,,15
 204              		.global	sdInit
 205              		.thumb
 206              		.thumb_func
 207              		.type	sdInit, %function
 208              	sdInit:
 209              	.LFB263:
 210              		.loc 1 111 0
 211              		.cfi_startproc
 212              		@ args = 0, pretend = 0, frame = 0
 213              		@ frame_needed = 0, uses_anonymous_args = 0
 214              		@ link register save eliminated.
 215              		.loc 1 113 0
 216 0000 FFF7FEBF 		b	sd_lld_init
ARM GAS  C:\Users\jo\AppData\Local\Temp\ccuk5psZ.s 			page 5


 217              	.LVL24:
 218              		.cfi_endproc
 219              	.LFE263:
 220              		.size	sdInit, .-sdInit
 221 0004 AFF30080 		.section	.text.sdObjectInit,"ax",%progbits
 221      AFF30080 
 221      AFF30080 
 222              		.align	2
 223              		.p2align 4,,15
 224              		.global	sdObjectInit
 225              		.thumb
 226              		.thumb_func
 227              		.type	sdObjectInit, %function
 228              	sdObjectInit:
 229              	.LFB264:
 230              		.loc 1 131 0
 231              		.cfi_startproc
 232              		@ args = 0, pretend = 0, frame = 0
 233              		@ frame_needed = 0, uses_anonymous_args = 0
 234              	.LVL25:
 235 0000 70B5     		push	{r4, r5, r6, lr}
 236              		.cfi_def_cfa_offset 16
 237              		.cfi_offset 4, -16
 238              		.cfi_offset 5, -12
 239              		.cfi_offset 6, -8
 240              		.cfi_offset 14, -4
 241              		.loc 1 133 0
 242 0002 0E4B     		ldr	r3, .L12
 243              		.loc 1 131 0
 244 0004 0446     		mov	r4, r0
 245 0006 82B0     		sub	sp, sp, #8
 246              		.cfi_def_cfa_offset 24
 247              		.loc 1 133 0
 248 0008 40F8043B 		str	r3, [r0], #4
 249              	.LVL26:
 250              		.loc 1 135 0
 251 000c 0126     		movs	r6, #1
 252              		.loc 1 136 0
 253 000e 0094     		str	r4, [sp]
 254              		.loc 1 131 0
 255 0010 0B46     		mov	r3, r1
 256 0012 1546     		mov	r5, r2
 257              	.LBB66:
 258              	.LBB67:
 259              	.LBB68:
 260              		.file 2 "../../../os/rt/include/chevents.h"
 261              		.loc 2 172 0
 262 0014 6060     		str	r0, [r4, #4]
 263              	.LBE68:
 264              	.LBE67:
 265              	.LBE66:
 266              		.loc 1 136 0
 267 0016 04F15401 		add	r1, r4, #84
 268              	.LVL27:
 269 001a 04F10C00 		add	r0, r4, #12
 270              	.LVL28:
 271              		.loc 1 135 0
ARM GAS  C:\Users\jo\AppData\Local\Temp\ccuk5psZ.s 			page 6


 272 001e 2672     		strb	r6, [r4, #8]
 273              		.loc 1 136 0
 274 0020 1022     		movs	r2, #16
 275              	.LVL29:
 276 0022 FFF7FEFF 		bl	chIQObjectInit
 277              	.LVL30:
 278              		.loc 1 137 0
 279 0026 0094     		str	r4, [sp]
 280 0028 2B46     		mov	r3, r5
 281 002a 04F13000 		add	r0, r4, #48
 282 002e 04F16401 		add	r1, r4, #100
 283 0032 1022     		movs	r2, #16
 284 0034 FFF7FEFF 		bl	chOQObjectInit
 285              	.LVL31:
 286              		.loc 1 138 0
 287 0038 02B0     		add	sp, sp, #8
 288              		.cfi_def_cfa_offset 16
 289              		@ sp needed
 290 003a 70BD     		pop	{r4, r5, r6, pc}
 291              	.LVL32:
 292              	.L13:
 293              		.align	2
 294              	.L12:
 295 003c 00000000 		.word	.LANCHOR0
 296              		.cfi_endproc
 297              	.LFE264:
 298              		.size	sdObjectInit, .-sdObjectInit
 299              		.section	.text.sdStart,"ax",%progbits
 300              		.align	2
 301              		.p2align 4,,15
 302              		.global	sdStart
 303              		.thumb
 304              		.thumb_func
 305              		.type	sdStart, %function
 306              	sdStart:
 307              	.LFB265:
 308              		.loc 1 150 0
 309              		.cfi_startproc
 310              		@ args = 0, pretend = 0, frame = 0
 311              		@ frame_needed = 0, uses_anonymous_args = 0
 312              	.LVL33:
 313 0000 10B5     		push	{r4, lr}
 314              		.cfi_def_cfa_offset 8
 315              		.cfi_offset 4, -8
 316              		.cfi_offset 14, -4
 317              	.LBB69:
 318              	.LBB70:
 319              	.LBB71:
 320              	.LBB72:
 321              	.LBB73:
 322              		.file 3 "../../../os/ext/CMSIS/include/core_cmFunc.h"
 323              		.loc 3 546 0
 324 0002 2023     		movs	r3, #32
 325              	.LBE73:
 326              	.LBE72:
 327              	.LBE71:
 328              	.LBE70:
ARM GAS  C:\Users\jo\AppData\Local\Temp\ccuk5psZ.s 			page 7


 329              	.LBE69:
 330              		.loc 1 150 0
 331 0004 0446     		mov	r4, r0
 332              	.LBB78:
 333              	.LBB77:
 334              	.LBB76:
 335              	.LBB75:
 336              	.LBB74:
 337              		.loc 3 546 0
 338              	@ 546 "../../../os/ext/CMSIS/include/core_cmFunc.h" 1
 339 0006 83F31188 		MSR basepri, r3
 340              	@ 0 "" 2
 341              		.thumb
 342              	.LBE74:
 343              	.LBE75:
 344              	.LBE76:
 345              	.LBE77:
 346              	.LBE78:
 347              		.loc 1 157 0
 348 000a FFF7FEFF 		bl	sd_lld_start
 349              	.LVL34:
 350              		.loc 1 158 0
 351 000e 0223     		movs	r3, #2
 352 0010 2372     		strb	r3, [r4, #8]
 353              	.LVL35:
 354              	.LBB79:
 355              	.LBB80:
 356              	.LBB81:
 357              	.LBB82:
 358              	.LBB83:
 359              	.LBB84:
 360              		.loc 3 546 0
 361 0012 0023     		movs	r3, #0
 362              	@ 546 "../../../os/ext/CMSIS/include/core_cmFunc.h" 1
 363 0014 83F31188 		MSR basepri, r3
 364              	@ 0 "" 2
 365              		.thumb
 366 0018 10BD     		pop	{r4, pc}
 367              	.LBE84:
 368              	.LBE83:
 369              	.LBE82:
 370              	.LBE81:
 371              	.LBE80:
 372              	.LBE79:
 373              		.cfi_endproc
 374              	.LFE265:
 375              		.size	sdStart, .-sdStart
 376              		.section	.text.sdStop,"ax",%progbits
 377              		.align	2
 378              		.p2align 4,,15
 379              		.global	sdStop
 380              		.thumb
 381              		.thumb_func
 382              		.type	sdStop, %function
 383              	sdStop:
 384              	.LFB266:
 385              		.loc 1 171 0
ARM GAS  C:\Users\jo\AppData\Local\Temp\ccuk5psZ.s 			page 8


 386              		.cfi_startproc
 387              		@ args = 0, pretend = 0, frame = 0
 388              		@ frame_needed = 0, uses_anonymous_args = 0
 389              	.LVL36:
 390 0000 10B5     		push	{r4, lr}
 391              		.cfi_def_cfa_offset 8
 392              		.cfi_offset 4, -8
 393              		.cfi_offset 14, -4
 394              	.LBB85:
 395              	.LBB86:
 396              	.LBB87:
 397              	.LBB88:
 398              	.LBB89:
 399              		.loc 3 546 0
 400 0002 2023     		movs	r3, #32
 401              	.LBE89:
 402              	.LBE88:
 403              	.LBE87:
 404              	.LBE86:
 405              	.LBE85:
 406              		.loc 1 171 0
 407 0004 0446     		mov	r4, r0
 408              	.LBB94:
 409              	.LBB93:
 410              	.LBB92:
 411              	.LBB91:
 412              	.LBB90:
 413              		.loc 3 546 0
 414              	@ 546 "../../../os/ext/CMSIS/include/core_cmFunc.h" 1
 415 0006 83F31188 		MSR basepri, r3
 416              	@ 0 "" 2
 417              		.thumb
 418              	.LBE90:
 419              	.LBE91:
 420              	.LBE92:
 421              	.LBE93:
 422              	.LBE94:
 423              		.loc 1 178 0
 424 000a FFF7FEFF 		bl	sd_lld_stop
 425              	.LVL37:
 426              		.loc 1 179 0
 427 000e 0123     		movs	r3, #1
 428 0010 2372     		strb	r3, [r4, #8]
 429              		.loc 1 180 0
 430 0012 04F13000 		add	r0, r4, #48
 431 0016 FFF7FEFF 		bl	chOQResetI
 432              	.LVL38:
 433              		.loc 1 181 0
 434 001a 04F10C00 		add	r0, r4, #12
 435 001e FFF7FEFF 		bl	chIQResetI
 436              	.LVL39:
 437              	.LBB95:
 438              	.LBB96:
 439              		.file 4 "../../../os/hal/osal/rt/osal.h"
 440              		.loc 4 532 0
 441 0022 FFF7FEFF 		bl	chSchRescheduleS
 442              	.LVL40:
ARM GAS  C:\Users\jo\AppData\Local\Temp\ccuk5psZ.s 			page 9


 443              	.LBE96:
 444              	.LBE95:
 445              	.LBB97:
 446              	.LBB98:
 447              	.LBB99:
 448              	.LBB100:
 449              	.LBB101:
 450              	.LBB102:
 451              		.loc 3 546 0
 452 0026 0023     		movs	r3, #0
 453              	@ 546 "../../../os/ext/CMSIS/include/core_cmFunc.h" 1
 454 0028 83F31188 		MSR basepri, r3
 455              	@ 0 "" 2
 456              		.thumb
 457 002c 10BD     		pop	{r4, pc}
 458              	.LBE102:
 459              	.LBE101:
 460              	.LBE100:
 461              	.LBE99:
 462              	.LBE98:
 463              	.LBE97:
 464              		.cfi_endproc
 465              	.LFE266:
 466              		.size	sdStop, .-sdStop
 467 002e 00BF     		.section	.text.sdIncomingDataI,"ax",%progbits
 468              		.align	2
 469              		.p2align 4,,15
 470              		.global	sdIncomingDataI
 471              		.thumb
 472              		.thumb_func
 473              		.type	sdIncomingDataI, %function
 474              	sdIncomingDataI:
 475              	.LFB267:
 476              		.loc 1 202 0
 477              		.cfi_startproc
 478              		@ args = 0, pretend = 0, frame = 0
 479              		@ frame_needed = 0, uses_anonymous_args = 0
 480              	.LVL41:
 481 0000 38B5     		push	{r3, r4, r5, lr}
 482              		.cfi_def_cfa_offset 16
 483              		.cfi_offset 3, -16
 484              		.cfi_offset 4, -12
 485              		.cfi_offset 5, -8
 486              		.cfi_offset 14, -4
 487              		.loc 1 207 0
 488 0002 4369     		ldr	r3, [r0, #20]
 489              		.loc 1 202 0
 490 0004 0446     		mov	r4, r0
 491              	.LVL42:
 492 0006 0D46     		mov	r5, r1
 493              		.loc 1 207 0
 494 0008 3BB1     		cbz	r3, .L23
 495              		.loc 1 209 0
 496 000a 2946     		mov	r1, r5
 497              	.LVL43:
 498 000c 04F10C00 		add	r0, r4, #12
 499              	.LVL44:
ARM GAS  C:\Users\jo\AppData\Local\Temp\ccuk5psZ.s 			page 10


 500 0010 FFF7FEFF 		bl	chIQPutI
 501              	.LVL45:
 502 0014 0028     		cmp	r0, #0
 503 0016 0BDB     		blt	.L24
 504              	.L18:
 505 0018 38BD     		pop	{r3, r4, r5, pc}
 506              	.LVL46:
 507              	.L23:
 508              	.LBB103:
 509              	.LBB104:
 510              		.loc 4 776 0
 511 001a 0430     		adds	r0, r0, #4
 512              	.LVL47:
 513 001c 0421     		movs	r1, #4
 514              	.LVL48:
 515 001e FFF7FEFF 		bl	chEvtBroadcastFlagsI
 516              	.LVL49:
 517              	.LBE104:
 518              	.LBE103:
 519              		.loc 1 209 0
 520 0022 2946     		mov	r1, r5
 521 0024 04F10C00 		add	r0, r4, #12
 522 0028 FFF7FEFF 		bl	chIQPutI
 523              	.LVL50:
 524 002c 0028     		cmp	r0, #0
 525 002e F3DA     		bge	.L18
 526              	.LVL51:
 527              	.L24:
 528              	.LBB105:
 529              	.LBB106:
 530              		.loc 4 776 0
 531 0030 201D     		adds	r0, r4, #4
 532              	.LVL52:
 533 0032 8021     		movs	r1, #128
 534              	.LBE106:
 535              	.LBE105:
 536              		.loc 1 211 0
 537 0034 BDE83840 		pop	{r3, r4, r5, lr}
 538              		.cfi_restore 14
 539              		.cfi_restore 5
 540              		.cfi_restore 4
 541              		.cfi_restore 3
 542              		.cfi_def_cfa_offset 0
 543              	.LVL53:
 544              	.LBB108:
 545              	.LBB107:
 546              		.loc 4 776 0
 547 0038 FFF7FEBF 		b	chEvtBroadcastFlagsI
 548              	.LVL54:
 549              	.LBE107:
 550              	.LBE108:
 551              		.cfi_endproc
 552              	.LFE267:
 553              		.size	sdIncomingDataI, .-sdIncomingDataI
 554 003c AFF30080 		.section	.text.sdRequestDataI,"ax",%progbits
 555              		.align	2
 556              		.p2align 4,,15
ARM GAS  C:\Users\jo\AppData\Local\Temp\ccuk5psZ.s 			page 11


 557              		.global	sdRequestDataI
 558              		.thumb
 559              		.thumb_func
 560              		.type	sdRequestDataI, %function
 561              	sdRequestDataI:
 562              	.LFB268:
 563              		.loc 1 228 0
 564              		.cfi_startproc
 565              		@ args = 0, pretend = 0, frame = 0
 566              		@ frame_needed = 0, uses_anonymous_args = 0
 567              	.LVL55:
 568 0000 38B5     		push	{r3, r4, r5, lr}
 569              		.cfi_def_cfa_offset 16
 570              		.cfi_offset 3, -16
 571              		.cfi_offset 4, -12
 572              		.cfi_offset 5, -8
 573              		.cfi_offset 14, -4
 574              		.loc 1 228 0
 575 0002 0446     		mov	r4, r0
 576              		.loc 1 234 0
 577 0004 3030     		adds	r0, r0, #48
 578              	.LVL56:
 579 0006 FFF7FEFF 		bl	chOQGetI
 580              	.LVL57:
 581              		.loc 1 235 0
 582 000a 051E     		subs	r5, r0, #0
 583 000c 01DB     		blt	.L28
 584              		.loc 1 238 0
 585 000e 2846     		mov	r0, r5
 586 0010 38BD     		pop	{r3, r4, r5, pc}
 587              	.LVL58:
 588              	.L28:
 589              	.LBB109:
 590              	.LBB110:
 591              		.loc 4 776 0
 592 0012 201D     		adds	r0, r4, #4
 593              	.LVL59:
 594 0014 0821     		movs	r1, #8
 595 0016 FFF7FEFF 		bl	chEvtBroadcastFlagsI
 596              	.LVL60:
 597              	.LBE110:
 598              	.LBE109:
 599              		.loc 1 238 0
 600 001a 2846     		mov	r0, r5
 601 001c 38BD     		pop	{r3, r4, r5, pc}
 602              		.cfi_endproc
 603              	.LFE268:
 604              		.size	sdRequestDataI, .-sdRequestDataI
 605 001e 00BF     		.section	.rodata.vmt,"a",%progbits
 606              		.align	2
 607              		.set	.LANCHOR0,. + 0
 608              		.type	vmt, %object
 609              		.size	vmt, 32
 610              	vmt:
 611 0000 00000000 		.word	write
 612 0004 00000000 		.word	read
 613 0008 00000000 		.word	put
ARM GAS  C:\Users\jo\AppData\Local\Temp\ccuk5psZ.s 			page 12


 614 000c 00000000 		.word	get
 615 0010 00000000 		.word	putt
 616 0014 00000000 		.word	gett
 617 0018 00000000 		.word	writet
 618 001c 00000000 		.word	readt
 619              		.text
 620              	.Letext0:
 621              		.file 5 "c:\\program files\\gnu tools arm embedded\\4.9 2014q4\\lib\\gcc\\arm-none-eabi\\4.9.3\\in
 622              		.file 6 "c:\\program files\\gnu tools arm embedded\\4.9 2014q4\\arm-none-eabi\\include\\machine\\_
 623              		.file 7 "c:\\program files\\gnu tools arm embedded\\4.9 2014q4\\arm-none-eabi\\include\\stdint.h"
 624              		.file 8 "../../../os/rt/ports/ARMCMx/compilers/GCC/chtypes.h"
 625              		.file 9 "../../../os/rt/include/chsystypes.h"
 626              		.file 10 "../../../os/rt/include/chschd.h"
 627              		.file 11 "../../../os/ext/CMSIS/ST/stm32f407xx.h"
 628              		.file 12 "../../../os/rt/ports/ARMCMx/chcore.h"
 629              		.file 13 "../../../os/rt/ports/ARMCMx/chcore_v7m.h"
 630              		.file 14 "../../../os/rt/include/chtm.h"
 631              		.file 15 "../../../os/rt/include/chmtx.h"
 632              		.file 16 "../../../os/rt/include/chqueues.h"
 633              		.file 17 "../../../os/hal/include/serial.h"
 634              		.file 18 "../../../os/hal/ports/STM32/LLD/USARTv1/serial_lld.h"
 635              		.file 19 "../../../os/rt/include/chsys.h"
 636              		.file 20 "../../../os/ext/CMSIS/include/core_cm4.h"