ARM GAS  C:\Users\jo\AppData\Local\Temp\ccqUA4E0.s 			page 1


   1              		.syntax unified
   2              		.cpu cortex-m4
   3              		.eabi_attribute 27, 3
   4              		.eabi_attribute 28, 1
   5              		.fpu fpv4-sp-d16
   6              		.eabi_attribute 20, 1
   7              		.eabi_attribute 21, 1
   8              		.eabi_attribute 23, 3
   9              		.eabi_attribute 24, 1
  10              		.eabi_attribute 25, 1
  11              		.eabi_attribute 26, 1
  12              		.eabi_attribute 30, 2
  13              		.eabi_attribute 34, 1
  14              		.eabi_attribute 18, 4
  15              		.thumb
  16              		.file	"serial_lld.c"
  17              		.text
  18              	.Ltext0:
  19              		.cfi_sections	.debug_frame
  20              		.section	.text.notify2,"ax",%progbits
  21              		.align	2
  22              		.p2align 4,,15
  23              		.thumb
  24              		.thumb_func
  25              		.type	notify2, %function
  26              	notify2:
  27              	.LFB259:
  28              		.file 1 "../../../os/hal/ports/STM32/LLD/USARTv1/serial_lld.c"
  29              		.loc 1 216 0
  30              		.cfi_startproc
  31              		@ args = 0, pretend = 0, frame = 0
  32              		@ frame_needed = 0, uses_anonymous_args = 0
  33              		@ link register save eliminated.
  34              	.LVL0:
  35              		.loc 1 219 0
  36 0000 024A     		ldr	r2, .L2
  37 0002 D368     		ldr	r3, [r2, #12]
  38 0004 43F08003 		orr	r3, r3, #128
  39 0008 D360     		str	r3, [r2, #12]
  40 000a 7047     		bx	lr
  41              	.L3:
  42              		.align	2
  43              	.L2:
  44 000c 00440040 		.word	1073759232
  45              		.cfi_endproc
  46              	.LFE259:
  47              		.size	notify2, .-notify2
  48              		.section	.text.notify6,"ax",%progbits
  49              		.align	2
  50              		.p2align 4,,15
  51              		.thumb
  52              		.thumb_func
  53              		.type	notify6, %function
  54              	notify6:
  55              	.LFB260:
  56              		.loc 1 248 0
  57              		.cfi_startproc
ARM GAS  C:\Users\jo\AppData\Local\Temp\ccqUA4E0.s 			page 2


  58              		@ args = 0, pretend = 0, frame = 0
  59              		@ frame_needed = 0, uses_anonymous_args = 0
  60              		@ link register save eliminated.
  61              	.LVL1:
  62              		.loc 1 251 0
  63 0000 024A     		ldr	r2, .L5
  64 0002 D368     		ldr	r3, [r2, #12]
  65 0004 43F08003 		orr	r3, r3, #128
  66 0008 D360     		str	r3, [r2, #12]
  67 000a 7047     		bx	lr
  68              	.L6:
  69              		.align	2
  70              	.L5:
  71 000c 00140140 		.word	1073812480
  72              		.cfi_endproc
  73              	.LFE260:
  74              		.size	notify6, .-notify6
  75              		.section	.text.serve_interrupt,"ax",%progbits
  76              		.align	2
  77              		.p2align 4,,15
  78              		.thumb
  79              		.thumb_func
  80              		.type	serve_interrupt, %function
  81              	serve_interrupt:
  82              	.LFB258:
  83              		.loc 1 153 0
  84              		.cfi_startproc
  85              		@ args = 0, pretend = 0, frame = 0
  86              		@ frame_needed = 0, uses_anonymous_args = 0
  87              	.LVL2:
  88 0000 2DE9F041 		push	{r4, r5, r6, r7, r8, lr}
  89              		.cfi_def_cfa_offset 24
  90              		.cfi_offset 4, -24
  91              		.cfi_offset 5, -20
  92              		.cfi_offset 6, -16
  93              		.cfi_offset 7, -12
  94              		.cfi_offset 8, -8
  95              		.cfi_offset 14, -4
  96              		.loc 1 154 0
  97 0004 456F     		ldr	r5, [r0, #116]
  98              	.LVL3:
  99              		.loc 1 155 0
 100 0006 D5F80C80 		ldr	r8, [r5, #12]
 101              	.LVL4:
 102              		.loc 1 156 0
 103 000a 2B68     		ldr	r3, [r5]
 104              		.loc 1 159 0
 105 000c DA05     		lsls	r2, r3, #23
 106              		.loc 1 153 0
 107 000e 0646     		mov	r6, r0
 108              		.loc 1 156 0
 109 0010 9CB2     		uxth	r4, r3
 110              	.LVL5:
 111              		.loc 1 159 0
 112 0012 51D4     		bmi	.L57
 113              	.LVL6:
 114              	.L8:
ARM GAS  C:\Users\jo\AppData\Local\Temp\ccqUA4E0.s 			page 3


 115              	.LBB168:
 116              	.LBB169:
 117              	.LBB170:
 118              	.LBB171:
 119              	.LBB172:
 120              	.LBB173:
 121              		.file 2 "../../../os/ext/CMSIS/include/core_cmFunc.h"
 122              		.loc 2 546 0
 123 0014 2023     		movs	r3, #32
 124              	@ 546 "../../../os/ext/CMSIS/include/core_cmFunc.h" 1
 125 0016 83F31188 		MSR basepri, r3
 126              	@ 0 "" 2
 127              		.thumb
 128              	.LBE173:
 129              	.LBE172:
 130              	.LBE171:
 131              	.LBE170:
 132              	.LBE169:
 133              	.LBE168:
 134              		.loc 1 168 0
 135 001a 14F02F0F 		tst	r4, #47
 136 001e 2BD0     		beq	.L9
 137              	.LBB174:
 138              	.LBB175:
 139              	.LBB176:
 140              		.loc 1 145 0
 141 0020 371D     		adds	r7, r6, #4
 142 0022 07E0     		b	.L16
 143              	.L10:
 144              	.LBE176:
 145              	.LBE175:
 146              		.loc 1 176 0
 147 0024 A006     		lsls	r0, r4, #26
 148              		.loc 1 175 0
 149 0026 6968     		ldr	r1, [r5, #4]
 150              	.LVL7:
 151              		.loc 1 176 0
 152 0028 1DD4     		bmi	.L58
 153              	.L15:
 154              		.loc 1 178 0
 155 002a 2C68     		ldr	r4, [r5]
 156              	.LVL8:
 157 002c A4B2     		uxth	r4, r4
 158              	.LVL9:
 159              	.LBE174:
 160              		.loc 1 168 0
 161 002e 14F02F0F 		tst	r4, #47
 162 0032 21D0     		beq	.L9
 163              	.LVL10:
 164              	.L16:
 165              	.LBB181:
 166              		.loc 1 173 0
 167 0034 2307     		lsls	r3, r4, #28
 168 0036 F5D0     		beq	.L10
 169              	.LVL11:
 170              	.LBB180:
 171              	.LBB179:
ARM GAS  C:\Users\jo\AppData\Local\Temp\ccqUA4E0.s 			page 4


 172              		.loc 1 138 0
 173 0038 14F0080F 		tst	r4, #8
 174 003c 0CBF     		ite	eq
 175 003e 0021     		moveq	r1, #0
 176 0040 8021     		movne	r1, #128
 177              	.LVL12:
 178              		.loc 1 139 0
 179 0042 E007     		lsls	r0, r4, #31
 180              		.loc 1 140 0
 181 0044 48BF     		it	mi
 182 0046 41F02001 		orrmi	r1, r1, #32
 183              	.LVL13:
 184              		.loc 1 141 0
 185 004a A207     		lsls	r2, r4, #30
 186              		.loc 1 142 0
 187 004c 48BF     		it	mi
 188 004e 41F04001 		orrmi	r1, r1, #64
 189              	.LVL14:
 190              		.loc 1 143 0
 191 0052 6307     		lsls	r3, r4, #29
 192              		.loc 1 144 0
 193 0054 48BF     		it	mi
 194 0056 41F48071 		orrmi	r1, r1, #256
 195              	.LVL15:
 196              	.LBB177:
 197              	.LBB178:
 198              		.file 3 "../../../os/hal/osal/rt/osal.h"
 199              		.loc 3 776 0
 200 005a 3846     		mov	r0, r7
 201 005c FFF7FEFF 		bl	chEvtBroadcastFlagsI
 202              	.LVL16:
 203              	.LBE178:
 204              	.LBE177:
 205              	.LBE179:
 206              	.LBE180:
 207              		.loc 1 176 0
 208 0060 A006     		lsls	r0, r4, #26
 209              		.loc 1 175 0
 210 0062 6968     		ldr	r1, [r5, #4]
 211              	.LVL17:
 212              		.loc 1 176 0
 213 0064 E1D5     		bpl	.L15
 214              	.LVL18:
 215              	.L58:
 216              		.loc 1 177 0
 217 0066 C9B2     		uxtb	r1, r1
 218 0068 3046     		mov	r0, r6
 219 006a FFF7FEFF 		bl	sdIncomingDataI
 220              	.LVL19:
 221              		.loc 1 178 0
 222 006e 2C68     		ldr	r4, [r5]
 223              	.LVL20:
 224 0070 A4B2     		uxth	r4, r4
 225              	.LVL21:
 226              	.LBE181:
 227              		.loc 1 168 0
 228 0072 14F02F0F 		tst	r4, #47
ARM GAS  C:\Users\jo\AppData\Local\Temp\ccqUA4E0.s 			page 5


 229 0076 DDD1     		bne	.L16
 230              	.L9:
 231              	.LVL22:
 232              	.LBB182:
 233              	.LBB183:
 234              	.LBB184:
 235              	.LBB185:
 236              	.LBB186:
 237              	.LBB187:
 238              		.loc 2 546 0
 239 0078 0023     		movs	r3, #0
 240              	@ 546 "../../../os/ext/CMSIS/include/core_cmFunc.h" 1
 241 007a 83F31188 		MSR basepri, r3
 242              	@ 0 "" 2
 243              		.thumb
 244              	.LBE187:
 245              	.LBE186:
 246              	.LBE185:
 247              	.LBE184:
 248              	.LBE183:
 249              	.LBE182:
 250              		.loc 1 183 0
 251 007e 18F0800F 		tst	r8, #128
 252 0082 01D0     		beq	.L17
 253              		.loc 1 183 0 is_stmt 0 discriminator 1
 254 0084 2206     		lsls	r2, r4, #24
 255 0086 26D4     		bmi	.L59
 256              	.L17:
 257              		.loc 1 197 0 is_stmt 1
 258 0088 6306     		lsls	r3, r4, #25
 259 008a 13D5     		bpl	.L7
 260              	.LVL23:
 261              	.LBB188:
 262              	.LBB189:
 263              	.LBB190:
 264              	.LBB191:
 265              	.LBB192:
 266              	.LBB193:
 267              		.loc 2 546 0
 268 008c 2023     		movs	r3, #32
 269              	@ 546 "../../../os/ext/CMSIS/include/core_cmFunc.h" 1
 270 008e 83F31188 		MSR basepri, r3
 271              	@ 0 "" 2
 272              	.LVL24:
 273              		.thumb
 274              	.LBE193:
 275              	.LBE192:
 276              	.LBE191:
 277              	.LBE190:
 278              	.LBE189:
 279              	.LBE188:
 280              	.LBB194:
 281              	.LBB195:
 282              		.file 4 "../../../os/rt/include/chqueues.h"
 283              		.loc 4 387 0
 284 0092 B26C     		ldr	r2, [r6, #72]
 285 0094 736C     		ldr	r3, [r6, #68]
ARM GAS  C:\Users\jo\AppData\Local\Temp\ccqUA4E0.s 			page 6


 286 0096 9A42     		cmp	r2, r3
 287 0098 2BD0     		beq	.L60
 288              	.L21:
 289              	.LBE195:
 290              	.LBE194:
 291              		.loc 1 201 0
 292 009a 4FF6BF73 		movw	r3, #65471
 293 009e 08EA0303 		and	r3, r8, r3
 294              		.loc 1 202 0
 295 00a2 6FF04002 		mvn	r2, #64
 296              		.loc 1 201 0
 297 00a6 EB60     		str	r3, [r5, #12]
 298              	.LBB197:
 299              	.LBB198:
 300              	.LBB199:
 301              	.LBB200:
 302              	.LBB201:
 303              	.LBB202:
 304              		.loc 2 546 0
 305 00a8 0023     		movs	r3, #0
 306              	.LBE202:
 307              	.LBE201:
 308              	.LBE200:
 309              	.LBE199:
 310              	.LBE198:
 311              	.LBE197:
 312              		.loc 1 202 0
 313 00aa 2A60     		str	r2, [r5]
 314              	.LVL25:
 315              	.LBB208:
 316              	.LBB207:
 317              	.LBB206:
 318              	.LBB205:
 319              	.LBB204:
 320              	.LBB203:
 321              		.loc 2 546 0
 322              	@ 546 "../../../os/ext/CMSIS/include/core_cmFunc.h" 1
 323 00ac 83F31188 		MSR basepri, r3
 324              	@ 0 "" 2
 325              		.thumb
 326 00b0 BDE8F081 		pop	{r4, r5, r6, r7, r8, pc}
 327              	.LVL26:
 328              	.L7:
 329 00b4 BDE8F081 		pop	{r4, r5, r6, r7, r8, pc}
 330              	.LVL27:
 331              	.L57:
 332              	.LBE203:
 333              	.LBE204:
 334              	.LBE205:
 335              	.LBE206:
 336              	.LBE207:
 337              	.LBE208:
 338              	.LBB209:
 339              	.LBB210:
 340              	.LBB211:
 341              	.LBB212:
 342              	.LBB213:
ARM GAS  C:\Users\jo\AppData\Local\Temp\ccqUA4E0.s 			page 7


 343              	.LBB214:
 344 00b8 2023     		movs	r3, #32
 345              	@ 546 "../../../os/ext/CMSIS/include/core_cmFunc.h" 1
 346 00ba 83F31188 		MSR basepri, r3
 347              	@ 0 "" 2
 348              	.LVL28:
 349              		.thumb
 350              	.LBE214:
 351              	.LBE213:
 352              	.LBE212:
 353              	.LBE211:
 354              	.LBE210:
 355              	.LBE209:
 356              	.LBB215:
 357              	.LBB216:
 358              		.loc 3 776 0
 359 00be 4FF40071 		mov	r1, #512
 360 00c2 0430     		adds	r0, r0, #4
 361              	.LVL29:
 362 00c4 FFF7FEFF 		bl	chEvtBroadcastFlagsI
 363              	.LVL30:
 364              	.LBE216:
 365              	.LBE215:
 366              		.loc 1 162 0
 367 00c8 6FF48073 		mvn	r3, #256
 368 00cc 2B60     		str	r3, [r5]
 369              	.LVL31:
 370              	.LBB217:
 371              	.LBB218:
 372              	.LBB219:
 373              	.LBB220:
 374              	.LBB221:
 375              	.LBB222:
 376              		.loc 2 546 0
 377 00ce 0023     		movs	r3, #0
 378              	@ 546 "../../../os/ext/CMSIS/include/core_cmFunc.h" 1
 379 00d0 83F31188 		MSR basepri, r3
 380              	@ 0 "" 2
 381              		.thumb
 382 00d4 9EE7     		b	.L8
 383              	.LVL32:
 384              	.L59:
 385              	.LBE222:
 386              	.LBE221:
 387              	.LBE220:
 388              	.LBE219:
 389              	.LBE218:
 390              	.LBE217:
 391              	.LBB223:
 392              	.LBB224:
 393              	.LBB225:
 394              	.LBB226:
 395              	.LBB227:
 396              	.LBB228:
 397              	.LBB229:
 398 00d6 2023     		movs	r3, #32
 399              	@ 546 "../../../os/ext/CMSIS/include/core_cmFunc.h" 1
ARM GAS  C:\Users\jo\AppData\Local\Temp\ccqUA4E0.s 			page 8


 400 00d8 83F31188 		MSR basepri, r3
 401              	@ 0 "" 2
 402              		.thumb
 403              	.LBE229:
 404              	.LBE228:
 405              	.LBE227:
 406              	.LBE226:
 407              	.LBE225:
 408              	.LBE224:
 409              		.loc 1 186 0
 410 00dc 06F13000 		add	r0, r6, #48
 411 00e0 FFF7FEFF 		bl	chOQGetI
 412              	.LVL33:
 413              		.loc 1 187 0
 414 00e4 0028     		cmp	r0, #0
 415 00e6 0CDB     		blt	.L61
 416              		.loc 1 192 0
 417 00e8 6860     		str	r0, [r5, #4]
 418              	.LVL34:
 419              	.L19:
 420              	.LBB230:
 421              	.LBB231:
 422              	.LBB232:
 423              	.LBB233:
 424              	.LBB234:
 425              	.LBB235:
 426              		.loc 2 546 0
 427 00ea 0023     		movs	r3, #0
 428              	@ 546 "../../../os/ext/CMSIS/include/core_cmFunc.h" 1
 429 00ec 83F31188 		MSR basepri, r3
 430              	@ 0 "" 2
 431              		.thumb
 432 00f0 CAE7     		b	.L17
 433              	.LVL35:
 434              	.L60:
 435              	.LBE235:
 436              	.LBE234:
 437              	.LBE233:
 438              	.LBE232:
 439              	.LBE231:
 440              	.LBE230:
 441              	.LBE223:
 442              	.LBB238:
 443              	.LBB196:
 444              		.loc 4 387 0
 445 00f2 B36B     		ldr	r3, [r6, #56]
 446 00f4 002B     		cmp	r3, #0
 447 00f6 D0D0     		beq	.L21
 448              	.LVL36:
 449              	.LBE196:
 450              	.LBE238:
 451              	.LBB239:
 452              	.LBB240:
 453              		.loc 3 776 0
 454 00f8 301D     		adds	r0, r6, #4
 455              	.LVL37:
 456 00fa 1021     		movs	r1, #16
ARM GAS  C:\Users\jo\AppData\Local\Temp\ccqUA4E0.s 			page 9


 457 00fc FFF7FEFF 		bl	chEvtBroadcastFlagsI
 458              	.LVL38:
 459 0100 CBE7     		b	.L21
 460              	.LVL39:
 461              	.L61:
 462              	.LBE240:
 463              	.LBE239:
 464              	.LBB241:
 465              	.LBB236:
 466              	.LBB237:
 467 0102 301D     		adds	r0, r6, #4
 468              	.LVL40:
 469 0104 0821     		movs	r1, #8
 470 0106 FFF7FEFF 		bl	chEvtBroadcastFlagsI
 471              	.LVL41:
 472              	.LBE237:
 473              	.LBE236:
 474              		.loc 1 189 0
 475 010a 4FF63F73 		movw	r3, #65343
 476 010e 08EA0303 		and	r3, r8, r3
 477 0112 43F04003 		orr	r3, r3, #64
 478 0116 EB60     		str	r3, [r5, #12]
 479 0118 E7E7     		b	.L19
 480              	.LBE241:
 481              		.cfi_endproc
 482              	.LFE258:
 483              		.size	serve_interrupt, .-serve_interrupt
 484 011a 00BFAFF3 		.section	.text.VectorD8,"ax",%progbits
 484      0080
 485              		.align	2
 486              		.p2align 4,,15
 487              		.global	VectorD8
 488              		.thumb
 489              		.thumb_func
 490              		.type	VectorD8, %function
 491              	VectorD8:
 492              	.LFB261:
 493              		.loc 1 287 0
 494              		.cfi_startproc
 495              		@ args = 0, pretend = 0, frame = 0
 496              		@ frame_needed = 0, uses_anonymous_args = 0
 497 0000 08B5     		push	{r3, lr}
 498              		.cfi_def_cfa_offset 8
 499              		.cfi_offset 3, -8
 500              		.cfi_offset 14, -4
 501              		.loc 1 291 0
 502 0002 0348     		ldr	r0, .L64
 503 0004 FFF7FEFF 		bl	serve_interrupt
 504              	.LVL42:
 505              		.loc 1 294 0
 506 0008 BDE80840 		pop	{r3, lr}
 507              		.cfi_restore 14
 508              		.cfi_restore 3
 509              		.cfi_def_cfa_offset 0
 510              		.loc 1 293 0
 511 000c FFF7FEBF 		b	_port_irq_epilogue
 512              	.LVL43:
ARM GAS  C:\Users\jo\AppData\Local\Temp\ccqUA4E0.s 			page 10


 513              	.L65:
 514              		.align	2
 515              	.L64:
 516 0010 00000000 		.word	.LANCHOR0
 517              		.cfi_endproc
 518              	.LFE261:
 519              		.size	VectorD8, .-VectorD8
 520 0014 AFF30080 		.section	.text.Vector15C,"ax",%progbits
 520      AFF30080 
 520      AFF30080 
 521              		.align	2
 522              		.p2align 4,,15
 523              		.global	Vector15C
 524              		.thumb
 525              		.thumb_func
 526              		.type	Vector15C, %function
 527              	Vector15C:
 528              	.LFB262:
 529              		.loc 1 363 0
 530              		.cfi_startproc
 531              		@ args = 0, pretend = 0, frame = 0
 532              		@ frame_needed = 0, uses_anonymous_args = 0
 533 0000 08B5     		push	{r3, lr}
 534              		.cfi_def_cfa_offset 8
 535              		.cfi_offset 3, -8
 536              		.cfi_offset 14, -4
 537              		.loc 1 367 0
 538 0002 0348     		ldr	r0, .L68
 539 0004 FFF7FEFF 		bl	serve_interrupt
 540              	.LVL44:
 541              		.loc 1 370 0
 542 0008 BDE80840 		pop	{r3, lr}
 543              		.cfi_restore 14
 544              		.cfi_restore 3
 545              		.cfi_def_cfa_offset 0
 546              		.loc 1 369 0
 547 000c FFF7FEBF 		b	_port_irq_epilogue
 548              	.LVL45:
 549              	.L69:
 550              		.align	2
 551              	.L68:
 552 0010 00000000 		.word	.LANCHOR1
 553              		.cfi_endproc
 554              	.LFE262:
 555              		.size	Vector15C, .-Vector15C
 556 0014 AFF30080 		.section	.text.sd_lld_init,"ax",%progbits
 556      AFF30080 
 556      AFF30080 
 557              		.align	2
 558              		.p2align 4,,15
 559              		.global	sd_lld_init
 560              		.thumb
 561              		.thumb_func
 562              		.type	sd_lld_init, %function
 563              	sd_lld_init:
 564              	.LFB263:
 565              		.loc 1 382 0
ARM GAS  C:\Users\jo\AppData\Local\Temp\ccqUA4E0.s 			page 11


 566              		.cfi_startproc
 567              		@ args = 0, pretend = 0, frame = 0
 568              		@ frame_needed = 0, uses_anonymous_args = 0
 569 0000 38B5     		push	{r3, r4, r5, lr}
 570              		.cfi_def_cfa_offset 16
 571              		.cfi_offset 3, -16
 572              		.cfi_offset 4, -12
 573              		.cfi_offset 5, -8
 574              		.cfi_offset 14, -4
 575              		.loc 1 390 0
 576 0002 084D     		ldr	r5, .L72
 577              		.loc 1 410 0
 578 0004 084C     		ldr	r4, .L72+4
 579              		.loc 1 390 0
 580 0006 094A     		ldr	r2, .L72+8
 581 0008 2846     		mov	r0, r5
 582 000a 0021     		movs	r1, #0
 583 000c FFF7FEFF 		bl	sdObjectInit
 584              	.LVL46:
 585              		.loc 1 391 0
 586 0010 074B     		ldr	r3, .L72+12
 587              		.loc 1 410 0
 588 0012 084A     		ldr	r2, .L72+16
 589              		.loc 1 391 0
 590 0014 6B67     		str	r3, [r5, #116]
 591              		.loc 1 410 0
 592 0016 2046     		mov	r0, r4
 593 0018 0021     		movs	r1, #0
 594 001a FFF7FEFF 		bl	sdObjectInit
 595              	.LVL47:
 596              		.loc 1 411 0
 597 001e 064B     		ldr	r3, .L72+20
 598 0020 6367     		str	r3, [r4, #116]
 599 0022 38BD     		pop	{r3, r4, r5, pc}
 600              	.L73:
 601              		.align	2
 602              	.L72:
 603 0024 00000000 		.word	.LANCHOR0
 604 0028 00000000 		.word	.LANCHOR1
 605 002c 00000000 		.word	notify2
 606 0030 00440040 		.word	1073759232
 607 0034 00000000 		.word	notify6
 608 0038 00140140 		.word	1073812480
 609              		.cfi_endproc
 610              	.LFE263:
 611              		.size	sd_lld_init, .-sd_lld_init
 612 003c AFF30080 		.section	.text.sd_lld_start,"ax",%progbits
 613              		.align	2
 614              		.p2align 4,,15
 615              		.global	sd_lld_start
 616              		.thumb
 617              		.thumb_func
 618              		.type	sd_lld_start, %function
 619              	sd_lld_start:
 620              	.LFB264:
 621              		.loc 1 425 0
 622              		.cfi_startproc
ARM GAS  C:\Users\jo\AppData\Local\Temp\ccqUA4E0.s 			page 12


 623              		@ args = 0, pretend = 0, frame = 0
 624              		@ frame_needed = 0, uses_anonymous_args = 0
 625              	.LVL48:
 626 0000 38B5     		push	{r3, r4, r5, lr}
 627              		.cfi_def_cfa_offset 16
 628              		.cfi_offset 3, -16
 629              		.cfi_offset 4, -12
 630              		.cfi_offset 5, -8
 631              		.cfi_offset 14, -4
 632              		.loc 1 428 0
 633 0002 254C     		ldr	r4, .L84
 634              		.loc 1 430 0
 635 0004 037A     		ldrb	r3, [r0, #8]	@ zero_extendqisi2
 636              		.loc 1 428 0
 637 0006 0029     		cmp	r1, #0
 638 0008 18BF     		it	ne
 639 000a 0C46     		movne	r4, r1
 640              	.LVL49:
 641              		.loc 1 430 0
 642 000c 012B     		cmp	r3, #1
 643              		.loc 1 425 0
 644 000e 0546     		mov	r5, r0
 645              		.loc 1 430 0
 646 0010 22D0     		beq	.L82
 647              	.LVL50:
 648              	.L76:
 649 0012 6B6F     		ldr	r3, [r5, #116]
 650              	.LVL51:
 651              	.LBB244:
 652              	.LBB245:
 653              		.loc 1 96 0
 654 0014 214A     		ldr	r2, .L84+4
 655 0016 9342     		cmp	r3, r2
 656 0018 2ED0     		beq	.L78
 657 001a 02F58062 		add	r2, r2, #1024
 658 001e 9342     		cmp	r3, r2
 659 0020 2AD0     		beq	.L78
 660              		.loc 1 102 0
 661 0022 2168     		ldr	r1, [r4]
 662 0024 1E4A     		ldr	r2, .L84+8
 663 0026 B2FBF1F2 		udiv	r2, r2, r1
 664 002a 9A60     		str	r2, [r3, #8]
 665              	.L80:
 666              		.loc 1 108 0
 667 002c A288     		ldrh	r2, [r4, #4]
 668              		.loc 1 105 0
 669 002e E088     		ldrh	r0, [r4, #6]
 670              		.loc 1 106 0
 671 0030 2189     		ldrh	r1, [r4, #8]
 672              		.loc 1 108 0
 673 0032 42F40452 		orr	r2, r2, #8448
 674              		.loc 1 105 0
 675 0036 40F04000 		orr	r0, r0, #64
 676              		.loc 1 108 0
 677 003a 42F02C02 		orr	r2, r2, #44
 678              		.loc 1 106 0
 679 003e 41F00101 		orr	r1, r1, #1
ARM GAS  C:\Users\jo\AppData\Local\Temp\ccqUA4E0.s 			page 13


 680              		.loc 1 108 0
 681 0042 92B2     		uxth	r2, r2
 682              		.loc 1 105 0
 683 0044 80B2     		uxth	r0, r0
 684              		.loc 1 106 0
 685 0046 89B2     		uxth	r1, r1
 686              		.loc 1 110 0
 687 0048 0024     		movs	r4, #0
 688              	.LVL52:
 689              		.loc 1 105 0
 690 004a 1861     		str	r0, [r3, #16]
 691              		.loc 1 106 0
 692 004c 5961     		str	r1, [r3, #20]
 693              		.loc 1 107 0
 694 004e DA60     		str	r2, [r3, #12]
 695              		.loc 1 110 0
 696 0050 1C60     		str	r4, [r3]
 697              		.loc 1 111 0
 698 0052 1A68     		ldr	r2, [r3]
 699              		.loc 1 112 0
 700 0054 5B68     		ldr	r3, [r3, #4]
 701              	.LVL53:
 702 0056 38BD     		pop	{r3, r4, r5, pc}
 703              	.LVL54:
 704              	.L82:
 705              	.LBE245:
 706              	.LBE244:
 707              		.loc 1 438 0
 708 0058 124B     		ldr	r3, .L84+12
 709 005a 9842     		cmp	r0, r3
 710 005c 12D0     		beq	.L83
 711              		.loc 1 462 0
 712 005e 124B     		ldr	r3, .L84+16
 713 0060 9842     		cmp	r0, r3
 714 0062 D6D1     		bne	.L76
 715              		.loc 1 463 0
 716 0064 114A     		ldr	r2, .L84+20
 717 0066 536C     		ldr	r3, [r2, #68]
 718 0068 43F02003 		orr	r3, r3, #32
 719 006c 5364     		str	r3, [r2, #68]
 720              		.loc 1 464 0
 721 006e 4720     		movs	r0, #71
 722              	.LVL55:
 723 0070 0C21     		movs	r1, #12
 724 0072 FFF7FEFF 		bl	nvicEnableVector
 725              	.LVL56:
 726 0076 CCE7     		b	.L76
 727              	.LVL57:
 728              	.L78:
 729              	.LBB247:
 730              	.LBB246:
 731              		.loc 1 100 0
 732 0078 2168     		ldr	r1, [r4]
 733 007a 0D4A     		ldr	r2, .L84+24
 734 007c B2FBF1F2 		udiv	r2, r2, r1
 735 0080 9A60     		str	r2, [r3, #8]
 736 0082 D3E7     		b	.L80
ARM GAS  C:\Users\jo\AppData\Local\Temp\ccqUA4E0.s 			page 14


 737              	.LVL58:
 738              	.L83:
 739              	.LBE246:
 740              	.LBE247:
 741              		.loc 1 439 0
 742 0084 094A     		ldr	r2, .L84+20
 743 0086 136C     		ldr	r3, [r2, #64]
 744 0088 43F40033 		orr	r3, r3, #131072
 745 008c 1364     		str	r3, [r2, #64]
 746              		.loc 1 440 0
 747 008e 2620     		movs	r0, #38
 748              	.LVL59:
 749 0090 0C21     		movs	r1, #12
 750 0092 FFF7FEFF 		bl	nvicEnableVector
 751              	.LVL60:
 752 0096 BCE7     		b	.L76
 753              	.L85:
 754              		.align	2
 755              	.L84:
 756 0098 00000000 		.word	.LANCHOR2
 757 009c 00100140 		.word	1073811456
 758 00a0 60343C02 		.word	37500000
 759 00a4 00000000 		.word	.LANCHOR0
 760 00a8 00000000 		.word	.LANCHOR1
 761 00ac 00380240 		.word	1073887232
 762 00b0 C0687804 		.word	75000000
 763              		.cfi_endproc
 764              	.LFE264:
 765              		.size	sd_lld_start, .-sd_lld_start
 766 00b4 AFF30080 		.section	.text.sd_lld_stop,"ax",%progbits
 766      AFF30080 
 766      AFF30080 
 767              		.align	2
 768              		.p2align 4,,15
 769              		.global	sd_lld_stop
 770              		.thumb
 771              		.thumb_func
 772              		.type	sd_lld_stop, %function
 773              	sd_lld_stop:
 774              	.LFB265:
 775              		.loc 1 480 0
 776              		.cfi_startproc
 777              		@ args = 0, pretend = 0, frame = 0
 778              		@ frame_needed = 0, uses_anonymous_args = 0
 779              		@ link register save eliminated.
 780              	.LVL61:
 781              		.loc 1 482 0
 782 0000 037A     		ldrb	r3, [r0, #8]	@ zero_extendqisi2
 783 0002 022B     		cmp	r3, #2
 784 0004 00D0     		beq	.L91
 785              	.L86:
 786 0006 7047     		bx	lr
 787              	.L91:
 788              		.loc 1 492 0
 789 0008 0D49     		ldr	r1, .L93
 790              		.loc 1 483 0
 791 000a 436F     		ldr	r3, [r0, #116]
ARM GAS  C:\Users\jo\AppData\Local\Temp\ccqUA4E0.s 			page 15


 792              	.LVL62:
 793              	.LBB248:
 794              	.LBB249:
 795              		.loc 1 123 0
 796 000c 0022     		movs	r2, #0
 797              	.LBE249:
 798              	.LBE248:
 799              		.loc 1 492 0
 800 000e 8842     		cmp	r0, r1
 801              	.LBB251:
 802              	.LBB250:
 803              		.loc 1 123 0
 804 0010 DA60     		str	r2, [r3, #12]
 805              		.loc 1 124 0
 806 0012 1A61     		str	r2, [r3, #16]
 807              		.loc 1 125 0
 808 0014 5A61     		str	r2, [r3, #20]
 809              	.LBE250:
 810              	.LBE251:
 811              		.loc 1 492 0
 812 0016 0AD0     		beq	.L92
 813              		.loc 1 520 0
 814 0018 0A4B     		ldr	r3, .L93+4
 815              	.LVL63:
 816 001a 9842     		cmp	r0, r3
 817 001c F3D1     		bne	.L86
 818              		.loc 1 521 0
 819 001e 0A4A     		ldr	r2, .L93+8
 820 0020 536C     		ldr	r3, [r2, #68]
 821 0022 23F02003 		bic	r3, r3, #32
 822 0026 5364     		str	r3, [r2, #68]
 823              		.loc 1 522 0
 824 0028 4720     		movs	r0, #71
 825              	.LVL64:
 826 002a FFF7FEBF 		b	nvicDisableVector
 827              	.LVL65:
 828              	.L92:
 829              		.loc 1 493 0
 830 002e 064A     		ldr	r2, .L93+8
 831 0030 136C     		ldr	r3, [r2, #64]
 832              	.LVL66:
 833 0032 23F40033 		bic	r3, r3, #131072
 834 0036 1364     		str	r3, [r2, #64]
 835              		.loc 1 494 0
 836 0038 2620     		movs	r0, #38
 837              	.LVL67:
 838 003a FFF7FEBF 		b	nvicDisableVector
 839              	.LVL68:
 840              	.L94:
 841 003e 00BF     		.align	2
 842              	.L93:
 843 0040 00000000 		.word	.LANCHOR0
 844 0044 00000000 		.word	.LANCHOR1
 845 0048 00380240 		.word	1073887232
 846              		.cfi_endproc
 847              	.LFE265:
 848              		.size	sd_lld_stop, .-sd_lld_stop
ARM GAS  C:\Users\jo\AppData\Local\Temp\ccqUA4E0.s 			page 16


 849              		.global	SD6
 850              		.global	SD2
 851 004c AFF30080 		.section	.rodata.default_config,"a",%progbits
 852              		.align	2
 853              		.set	.LANCHOR2,. + 0
 854              		.type	default_config, %object
 855              		.size	default_config, 12
 856              	default_config:
 857 0000 00960000 		.word	38400
 858 0004 0000     		.short	0
 859 0006 0040     		.short	16384
 860 0008 0000     		.short	0
 861 000a 0000     		.space	2
 862              		.section	.bss.SD2,"aw",%nobits
 863              		.align	2
 864              		.set	.LANCHOR0,. + 0
 865              		.type	SD2, %object
 866              		.size	SD2, 120
 867              	SD2:
 868 0000 00000000 		.space	120
 868      00000000 
 868      00000000 
 868      00000000 
 868      00000000 
 869              		.section	.bss.SD6,"aw",%nobits
 870              		.align	2
 871              		.set	.LANCHOR1,. + 0
 872              		.type	SD6, %object
 873              		.size	SD6, 120
 874              	SD6:
 875 0000 00000000 		.space	120
 875      00000000 
 875      00000000 
 875      00000000 
 875      00000000 
 876              		.text
 877              	.Letext0:
 878              		.file 5 "c:\\program files\\gnu tools arm embedded\\4.9 2014q4\\lib\\gcc\\arm-none-eabi\\4.9.3\\in
 879              		.file 6 "c:\\program files\\gnu tools arm embedded\\4.9 2014q4\\arm-none-eabi\\include\\machine\\_
 880              		.file 7 "c:\\program files\\gnu tools arm embedded\\4.9 2014q4\\arm-none-eabi\\include\\stdint.h"
 881              		.file 8 "../../../os/rt/ports/ARMCMx/compilers/GCC/chtypes.h"
 882              		.file 9 "../../../os/rt/include/chsystypes.h"
 883              		.file 10 "../../../os/rt/include/chschd.h"
 884              		.file 11 "../../../os/ext/CMSIS/ST/stm32f407xx.h"
 885              		.file 12 "../../../os/rt/ports/ARMCMx/chcore.h"
 886              		.file 13 "../../../os/rt/ports/ARMCMx/chcore_v7m.h"
 887              		.file 14 "../../../os/rt/include/chtm.h"
 888              		.file 15 "../../../os/rt/include/chmtx.h"
 889              		.file 16 "../../../os/rt/include/chevents.h"
 890              		.file 17 "../../../os/hal/include/serial.h"
 891              		.file 18 "../../../os/hal/ports/STM32/LLD/USARTv1/serial_lld.h"
 892              		.file 19 "../../../os/rt/include/chsys.h"
 893              		.file 20 "../../../os/hal/ports/common/ARMCMx/nvic.h"
 894              		.file 21 "../../../os/ext/CMSIS/include/core_cm4.h"