ARM GAS  C:\Users\jo\AppData\Local\Temp\ccQziWmI.s 			page 1


   1              		.syntax unified
   2              		.cpu cortex-m4
   3              		.eabi_attribute 27, 3
   4              		.eabi_attribute 28, 1
   5              		.fpu fpv4-sp-d16
   6              		.eabi_attribute 20, 1
   7              		.eabi_attribute 21, 1
   8              		.eabi_attribute 23, 3
   9              		.eabi_attribute 24, 1
  10              		.eabi_attribute 25, 1
  11              		.eabi_attribute 26, 1
  12              		.eabi_attribute 30, 2
  13              		.eabi_attribute 34, 1
  14              		.eabi_attribute 18, 4
  15              		.thumb
  16              		.file	"st_lld.c"
  17              		.text
  18              	.Ltext0:
  19              		.cfi_sections	.debug_frame
  20              		.section	.text.VectorB0,"ax",%progbits
  21              		.align	2
  22              		.p2align 4,,15
  23              		.global	VectorB0
  24              		.thumb
  25              		.thumb_func
  26              		.type	VectorB0, %function
  27              	VectorB0:
  28              	.LFB255:
  29              		.file 1 "../../../os/hal/ports/STM32/LLD/TIMv1/st_lld.c"
  30              		.loc 1 153 0
  31              		.cfi_startproc
  32              		@ args = 0, pretend = 0, frame = 0
  33              		@ frame_needed = 0, uses_anonymous_args = 0
  34              		.loc 1 157 0
  35 0000 4FF08043 		mov	r3, #1073741824
  36              		.loc 1 153 0
  37 0004 10B5     		push	{r4, lr}
  38              		.cfi_def_cfa_offset 8
  39              		.cfi_offset 4, -8
  40              		.cfi_offset 14, -4
  41              		.loc 1 157 0
  42 0006 0024     		movs	r4, #0
  43 0008 1C61     		str	r4, [r3, #16]
  44              	.LVL0:
  45              	.LBB52:
  46              	.LBB53:
  47              	.LBB54:
  48              	.LBB55:
  49              	.LBB56:
  50              	.LBB57:
  51              		.file 2 "../../../os/ext/CMSIS/include/core_cmFunc.h"
  52              		.loc 2 546 0
  53 000a 2023     		movs	r3, #32
  54              	@ 546 "../../../os/ext/CMSIS/include/core_cmFunc.h" 1
  55 000c 83F31188 		MSR basepri, r3
  56              	@ 0 "" 2
  57              		.thumb
ARM GAS  C:\Users\jo\AppData\Local\Temp\ccQziWmI.s 			page 2


  58              	.LBE57:
  59              	.LBE56:
  60              	.LBE55:
  61              	.LBE54:
  62              	.LBE53:
  63              	.LBE52:
  64              	.LBB58:
  65              	.LBB59:
  66              		.file 3 "../../../os/hal/osal/rt/osal.h"
  67              		.loc 3 517 0
  68 0010 FFF7FEFF 		bl	chSysTimerHandlerI
  69              	.LVL1:
  70              	.LBE59:
  71              	.LBE58:
  72              	.LBB60:
  73              	.LBB61:
  74              	.LBB62:
  75              	.LBB63:
  76              	.LBB64:
  77              	.LBB65:
  78              		.loc 2 546 0
  79              	@ 546 "../../../os/ext/CMSIS/include/core_cmFunc.h" 1
  80 0014 84F31188 		MSR basepri, r4
  81              	@ 0 "" 2
  82              		.thumb
  83              	.LBE65:
  84              	.LBE64:
  85              	.LBE63:
  86              	.LBE62:
  87              	.LBE61:
  88              	.LBE60:
  89              		.loc 1 164 0
  90 0018 BDE81040 		pop	{r4, lr}
  91              		.cfi_restore 14
  92              		.cfi_restore 4
  93              		.cfi_def_cfa_offset 0
  94              		.loc 1 163 0
  95 001c FFF7FEBF 		b	_port_irq_epilogue
  96              	.LVL2:
  97              		.cfi_endproc
  98              	.LFE255:
  99              		.size	VectorB0, .-VectorB0
 100              		.section	.text.st_lld_init,"ax",%progbits
 101              		.align	2
 102              		.p2align 4,,15
 103              		.global	st_lld_init
 104              		.thumb
 105              		.thumb_func
 106              		.type	st_lld_init, %function
 107              	st_lld_init:
 108              	.LFB256:
 109              		.loc 1 176 0
 110              		.cfi_startproc
 111              		@ args = 0, pretend = 0, frame = 0
 112              		@ frame_needed = 0, uses_anonymous_args = 0
 113              		@ link register save eliminated.
 114 0000 70B4     		push	{r4, r5, r6}
ARM GAS  C:\Users\jo\AppData\Local\Temp\ccQziWmI.s 			page 3


 115              		.cfi_def_cfa_offset 12
 116              		.cfi_offset 4, -12
 117              		.cfi_offset 5, -8
 118              		.cfi_offset 6, -4
 119              		.loc 1 182 0
 120 0002 0D48     		ldr	r0, .L5
 121 0004 016C     		ldr	r1, [r0, #64]
 122              		.loc 1 185 0
 123 0006 4FF08043 		mov	r3, #1073741824
 124              		.loc 1 187 0
 125 000a 0022     		movs	r2, #0
 126              		.loc 1 191 0
 127 000c 0124     		movs	r4, #1
 128              		.loc 1 182 0
 129 000e 41F00101 		orr	r1, r1, #1
 130              		.loc 1 185 0
 131 0012 41F64B56 		movw	r6, #7499
 132              		.loc 1 186 0
 133 0016 4FF0FF35 		mov	r5, #-1
 134              		.loc 1 182 0
 135 001a 0164     		str	r1, [r0, #64]
 136              		.loc 1 185 0
 137 001c 9E62     		str	r6, [r3, #40]
 138              		.loc 1 195 0
 139 001e 1C20     		movs	r0, #28
 140              		.loc 1 186 0
 141 0020 DD62     		str	r5, [r3, #44]
 142              		.loc 1 195 0
 143 0022 0821     		movs	r1, #8
 144              		.loc 1 187 0
 145 0024 9A61     		str	r2, [r3, #24]
 146              		.loc 1 188 0
 147 0026 5A63     		str	r2, [r3, #52]
 148              		.loc 1 189 0
 149 0028 DA60     		str	r2, [r3, #12]
 150              		.loc 1 190 0
 151 002a 5A60     		str	r2, [r3, #4]
 152              		.loc 1 191 0
 153 002c 5C61     		str	r4, [r3, #20]
 154              		.loc 1 192 0
 155 002e 1C60     		str	r4, [r3]
 156              		.loc 1 210 0
 157 0030 70BC     		pop	{r4, r5, r6}
 158              		.cfi_restore 6
 159              		.cfi_restore 5
 160              		.cfi_restore 4
 161              		.cfi_def_cfa_offset 0
 162              		.loc 1 195 0
 163 0032 FFF7FEBF 		b	nvicEnableVector
 164              	.LVL3:
 165              	.L6:
 166 0036 00BF     		.align	2
 167              	.L5:
 168 0038 00380240 		.word	1073887232
 169              		.cfi_endproc
 170              	.LFE256:
 171              		.size	st_lld_init, .-st_lld_init
ARM GAS  C:\Users\jo\AppData\Local\Temp\ccQziWmI.s 			page 4


 172 003c AFF30080 		.text
 173              	.Letext0:
 174              		.file 4 "c:\\program files\\gnu tools arm embedded\\4.9 2014q4\\arm-none-eabi\\include\\machine\\_
 175              		.file 5 "c:\\program files\\gnu tools arm embedded\\4.9 2014q4\\arm-none-eabi\\include\\stdint.h"
 176              		.file 6 "../../../os/rt/ports/ARMCMx/compilers/GCC/chtypes.h"
 177              		.file 7 "../../../os/rt/include/chsystypes.h"
 178              		.file 8 "../../../os/rt/include/chschd.h"
 179              		.file 9 "../../../os/ext/CMSIS/ST/stm32f407xx.h"
 180              		.file 10 "../../../os/rt/ports/ARMCMx/chcore.h"
 181              		.file 11 "../../../os/rt/ports/ARMCMx/chcore_v7m.h"
 182              		.file 12 "../../../os/hal/ports/STM32/LLD/TIMv1/stm32_tim.h"
 183              		.file 13 "../../../os/rt/include/chtm.h"
 184              		.file 14 "../../../os/rt/include/chmtx.h"
 185              		.file 15 "../../../os/rt/include/chsys.h"
 186              		.file 16 "../../../os/ext/CMSIS/include/core_cm4.h"
 187              		.file 17 "../../../os/hal/ports/common/ARMCMx/nvic.h"