ARM GAS  C:\Users\jo\AppData\Local\Temp\ccQziWmI.s 			page 1


   1              		.syntax unified
   2              		.cpu cortex-m4
   3              		.eabi_attribute 27, 3
   4              		.eabi_attribute 28, 1
   5              		.fpu fpv4-sp-d16
   6              		.eabi_attribute 20, 1
   7              		.eabi_attribute 21, 1
   8              		.eabi_attribute 23, 3
   9              		.eabi_attribute 24, 1
  10              		.eabi_attribute 25, 1
  11              		.eabi_attribute 26, 1
  12              		.eabi_attribute 30, 2
  13              		.eabi_attribute 34, 1
  14              		.eabi_attribute 18, 4
  15              		.thumb
  16              		.file	"st_lld.c"
  17              		.text
  18              	.Ltext0:
  19              		.cfi_sections	.debug_frame
  20              		.section	.text.VectorB0,"ax",%progbits
  21              		.align	2
  22              		.p2align 4,,15
  23              		.global	VectorB0
  24              		.thumb
  25              		.thumb_func
  26              		.type	VectorB0, %function
  27              	VectorB0:
  28              	.LFB255:
  29              		.file 1 "../../../os/hal/ports/STM32/LLD/TIMv1/st_lld.c"
  30              		.loc 1 153 0
  31              		.cfi_startproc
  32              		@ args = 0, pretend = 0, frame = 0
  33              		@ frame_needed = 0, uses_anonymous_args = 0
  34              		.loc 1 157 0
  35 0000 4FF08043 		mov	r3, #1073741824
  36              		.loc 1 153 0
  37 0004 10B5     		push	{r4, lr}
  38              		.cfi_def_cfa_offset 8
  39              		.cfi_offset 4, -8
  40              		.cfi_offset 14, -4
  41              		.loc 1 157 0
  42 0006 0024     		movs	r4, #0
  43 0008 1C61     		str	r4, [r3, #16]
  44              	.LVL0:
  45              	.LBB52:
  46              	.LBB53:
  47              	.LBB54:
  48              	.LBB55:
  49              	.LBB56:
  50              	.LBB57:
  51              		.file 2 "../../../os/ext/CMSIS/include/core_cmFunc.h"
  52              		.loc 2 546 0
  53 000a 2023     		movs	r3, #32
  54              	@ 546 "../../../os/ext/CMSIS/include/core_cmFunc.h" 1
  55 000c 83F31188 		MSR basepri, r3
  56              	@ 0 "" 2
  57              		.thumb
ARM GAS  C:\Users\jo\AppData\Local\Temp\ccQziWmI.s 			page 2


  58              	.LBE57:
  59              	.LBE56:
  60              	.LBE55:
  61              	.LBE54:
  62              	.LBE53:
  63              	.LBE52:
  64              	.LBB58:
  65              	.LBB59:
  66              		.file 3 "../../../os/hal/osal/rt/osal.h"
  67              		.loc 3 517 0
  68 0010 FFF7FEFF 		bl	chSysTimerHandlerI
  69              	.LVL1:
  70              	.LBE59:
  71              	.LBE58:
  72              	.LBB60:
  73              	.LBB61:
  74              	.LBB62:
  75              	.LBB63:
  76              	.LBB64:
  77              	.LBB65:
  78              		.loc 2 546 0
  79              	@ 546 "../../../os/ext/CMSIS/include/core_cmFunc.h" 1
  80 0014 84F31188 		MSR basepri, r4
  81              	@ 0 "" 2
  82              		.thumb
  83              	.LBE65:
  84              	.LBE64:
  85              	.LBE63:
  86              	.LBE62:
  87              	.LBE61:
  88              	.LBE60:
  89              		.loc 1 164 0
  90 0018 BDE81040 		pop	{r4, lr}
  91              		.cfi_restore 14
  92              		.cfi_restore 4
  93              		.cfi_def_cfa_offset 0
  94              		.loc 1 163 0
  95 001c FFF7FEBF 		b	_port_irq_epilogue
  96              	.LVL2:
  97              		.cfi_endproc
  98              	.LFE255:
  99              		.size	VectorB0, .-VectorB0
 100              		.section	.text.st_lld_init,"ax",%progbits
 101              		.align	2
 102              		.p2align 4,,15
 103              		.global	st_lld_init
 104              		.thumb
 105              		.thumb_func
 106              		.type	st_lld_init, %function
 107              	st_lld_init:
 108              	.LFB256:
 109              		.loc 1 176 0
 110              		.cfi_startproc
 111              		@ args = 0, pretend = 0, frame = 0
 112              		@ frame_needed = 0, uses_anonymous_args = 0
 113              		@ link register save eliminated.
 114 0000 70B4     		push	{r4, r5, r6}
ARM GAS  C:\Users\jo\AppData\Local\Temp\ccQziWmI.s 			page 3


 115              		.cfi_def_cfa_offset 12
 116              		.cfi_offset 4, -12
 117              		.cfi_offset 5, -8
 118              		.cfi_offset 6, -4
 119              		.loc 1 182 0
 120 0002 0D48     		ldr	r0, .L5
 121 0004 016C     		ldr	r1, [r0, #64]
 122              		.loc 1 185 0
 123 0006 4FF08043 		mov	r3, #1073741824
 124              		.loc 1 187 0
 125 000a 0022     		movs	r2, #0
 126              		.loc 1 191 0
 127 000c 0124     		movs	r4, #1
 128              		.loc 1 182 0
 129 000e 41F00101 		orr	r1, r1, #1
 130              		.loc 1 185 0
 131 0012 41F64B56 		movw	r6, #7499
 132              		.loc 1 186 0
 133 0016 4FF0FF35 		mov	r5, #-1
 134              		.loc 1 182 0
 135 001a 0164     		str	r1, [r0, #64]
 136              		.loc 1 185 0
 137 001c 9E62     		str	r6, [r3, #40]
 138              		.loc 1 195 0
 139 001e 1C20     		movs	r0, #28
 140              		.loc 1 186 0
 141 0020 DD62     		str	r5, [r3, #44]
 142              		.loc 1 195 0
 143 0022 0821     		movs	r1, #8
 144              		.loc 1 187 0
 145 0024 9A61     		str	r2, [r3, #24]
 146              		.loc 1 188 0
 147 0026 5A63     		str	r2, [r3, #52]
 148              		.loc 1 189 0
 149 0028 DA60     		str	r2, [r3, #12]
 150              		.loc 1 190 0
 151 002a 5A60     		str	r2, [r3, #4]
 152              		.loc 1 191 0
 153 002c 5C61     		str	r4, [r3, #20]
 154              		.loc 1 192 0
 155 002e 1C60     		str	r4, [r3]
 156              		.loc 1 210 0
 157 0030 70BC     		pop	{r4, r5, r6}
 158              		.cfi_restore 6
 159              		.cfi_restore 5
 160              		.cfi_restore 4
 161              		.cfi_def_cfa_offset 0
 162              		.loc 1 195 0
 163 0032 FFF7FEBF 		b	nvicEnableVector
 164              	.LVL3:
 165              	.L6:
 166 0036 00BF     		.align	2
 167              	.L5:
 168 0038 00380240 		.word	1073887232
 169              		.cfi_endproc
 170              	.LFE256:
 171              		.size	st_lld_init, .-st_lld_init
ARM GAS  C:\Users\jo\AppData\Local\Temp\ccQziWmI.s 			page 4


 172 003c AFF30080 		.text
 173              	.Letext0:
 174              		.file 4 "c:\\program files\\gnu tools arm embedded\\4.9 2014q4\\arm-none-eabi\\include\\machine\\_
 175              		.file 5 "c:\\program files\\gnu tools arm embedded\\4.9 2014q4\\arm-none-eabi\\include\\stdint.h"
 176              		.file 6 "../../../os/rt/ports/ARMCMx/compilers/GCC/chtypes.h"
 177              		.file 7 "../../../os/rt/include/chsystypes.h"
 178              		.file 8 "../../../os/rt/include/chschd.h"
 179              		.file 9 "../../../os/ext/CMSIS/ST/stm32f407xx.h"
 180              		.file 10 "../../../os/rt/ports/ARMCMx/chcore.h"
 181              		.file 11 "../../../os/rt/ports/ARMCMx/chcore_v7m.h"
 182              		.file 12 "../../../os/hal/ports/STM32/LLD/TIMv1/stm32_tim.h"
 183              		.file 13 "../../../os/rt/include/chtm.h"
 184              		.file 14 "../../../os/rt/include/chmtx.h"
 185              		.file 15 "../../../os/rt/include/chsys.h"
 186              		.file 16 "../../../os/ext/CMSIS/include/core_cm4.h"
 187              		.file 17 "../../../os/hal/ports/common/ARMCMx/nvic.h"
 188              		.section	.debug_info,"",%progbits
 189              	.Ldebug_info0:
 190 0000 200B0000 		.4byte	0xb20
 191 0004 0400     		.2byte	0x4
 192 0006 00000000 		.4byte	.Ldebug_abbrev0
 193 000a 04       		.byte	0x4
 194 000b 01       		.uleb128 0x1
 195 000c ED020000 		.4byte	.LASF146
 196 0010 01       		.byte	0x1
 197 0011 48020000 		.4byte	.LASF147
 198 0015 EE050000 		.4byte	.LASF148
 199 0019 00000000 		.4byte	.Ldebug_ranges0+0
 200 001d 00000000 		.4byte	0
 201 0021 00000000 		.4byte	.Ldebug_line0
 202 0025 02       		.uleb128 0x2
 203 0026 04       		.byte	0x4
 204 0027 05       		.byte	0x5
 205 0028 696E7400 		.ascii	"int\000"
 206 002c 03       		.uleb128 0x3
 207 002d 04       		.byte	0x4
 208 002e 07       		.byte	0x7
 209 002f DF010000 		.4byte	.LASF0
 210 0033 03       		.uleb128 0x3
 211 0034 01       		.byte	0x1
 212 0035 06       		.byte	0x6
 213 0036 FD000000 		.4byte	.LASF1
 214 003a 04       		.uleb128 0x4
 215 003b 22000000 		.4byte	.LASF5
 216 003f 04       		.byte	0x4
 217 0040 1D       		.byte	0x1d
 218 0041 45000000 		.4byte	0x45
 219 0045 03       		.uleb128 0x3
 220 0046 01       		.byte	0x1
 221 0047 08       		.byte	0x8
 222 0048 2C050000 		.4byte	.LASF2
 223 004c 03       		.uleb128 0x3
 224 004d 02       		.byte	0x2
 225 004e 05       		.byte	0x5
 226 004f 51050000 		.4byte	.LASF3
 227 0053 03       		.uleb128 0x3
 228 0054 02       		.byte	0x2
ARM GAS  C:\Users\jo\AppData\Local\Temp\ccQziWmI.s 			page 5


 229 0055 07       		.byte	0x7
 230 0056 6E010000 		.4byte	.LASF4
 231 005a 04       		.uleb128 0x4
 232 005b B5020000 		.4byte	.LASF6
 233 005f 04       		.byte	0x4
 234 0060 3F       		.byte	0x3f
 235 0061 65000000 		.4byte	0x65
 236 0065 03       		.uleb128 0x3
 237 0066 04       		.byte	0x4
 238 0067 05       		.byte	0x5
 239 0068 39010000 		.4byte	.LASF7
 240 006c 04       		.uleb128 0x4
 241 006d 94060000 		.4byte	.LASF8
 242 0071 04       		.byte	0x4
 243 0072 41       		.byte	0x41
 244 0073 77000000 		.4byte	0x77
 245 0077 03       		.uleb128 0x3
 246 0078 04       		.byte	0x4
 247 0079 07       		.byte	0x7
 248 007a D7050000 		.4byte	.LASF9
 249 007e 03       		.uleb128 0x3
 250 007f 08       		.byte	0x8
 251 0080 05       		.byte	0x5
 252 0081 BC010000 		.4byte	.LASF10
 253 0085 04       		.uleb128 0x4
 254 0086 97040000 		.4byte	.LASF11
 255 008a 04       		.byte	0x4
 256 008b 5B       		.byte	0x5b
 257 008c 90000000 		.4byte	0x90
 258 0090 03       		.uleb128 0x3
 259 0091 08       		.byte	0x8
 260 0092 07       		.byte	0x7
 261 0093 51000000 		.4byte	.LASF12
 262 0097 04       		.uleb128 0x4
 263 0098 40070000 		.4byte	.LASF13
 264 009c 05       		.byte	0x5
 265 009d 15       		.byte	0x15
 266 009e 3A000000 		.4byte	0x3a
 267 00a2 04       		.uleb128 0x4
 268 00a3 24050000 		.4byte	.LASF14
 269 00a7 05       		.byte	0x5
 270 00a8 2C       		.byte	0x2c
 271 00a9 5A000000 		.4byte	0x5a
 272 00ad 04       		.uleb128 0x4
 273 00ae B6050000 		.4byte	.LASF15
 274 00b2 05       		.byte	0x5
 275 00b3 2D       		.byte	0x2d
 276 00b4 6C000000 		.4byte	0x6c
 277 00b8 04       		.uleb128 0x4
 278 00b9 19000000 		.4byte	.LASF16
 279 00bd 05       		.byte	0x5
 280 00be 39       		.byte	0x39
 281 00bf 85000000 		.4byte	0x85
 282 00c3 05       		.uleb128 0x5
 283 00c4 A2000000 		.4byte	0xa2
 284 00c8 05       		.uleb128 0x5
 285 00c9 AD000000 		.4byte	0xad
ARM GAS  C:\Users\jo\AppData\Local\Temp\ccQziWmI.s 			page 6


 286 00cd 04       		.uleb128 0x4
 287 00ce EA060000 		.4byte	.LASF17
 288 00d2 06       		.byte	0x6
 289 00d3 45       		.byte	0x45
 290 00d4 AD000000 		.4byte	0xad
 291 00d8 04       		.uleb128 0x4
 292 00d9 6D070000 		.4byte	.LASF18
 293 00dd 06       		.byte	0x6
 294 00de 48       		.byte	0x48
 295 00df 97000000 		.4byte	0x97
 296 00e3 04       		.uleb128 0x4
 297 00e4 55010000 		.4byte	.LASF19
 298 00e8 06       		.byte	0x6
 299 00e9 49       		.byte	0x49
 300 00ea 97000000 		.4byte	0x97
 301 00ee 04       		.uleb128 0x4
 302 00ef A2040000 		.4byte	.LASF20
 303 00f3 06       		.byte	0x6
 304 00f4 4A       		.byte	0x4a
 305 00f5 97000000 		.4byte	0x97
 306 00f9 04       		.uleb128 0x4
 307 00fa ED040000 		.4byte	.LASF21
 308 00fe 06       		.byte	0x6
 309 00ff 4C       		.byte	0x4c
 310 0100 AD000000 		.4byte	0xad
 311 0104 04       		.uleb128 0x4
 312 0105 2E020000 		.4byte	.LASF22
 313 0109 06       		.byte	0x6
 314 010a 4D       		.byte	0x4d
 315 010b A2000000 		.4byte	0xa2
 316 010f 04       		.uleb128 0x4
 317 0110 A9020000 		.4byte	.LASF23
 318 0114 06       		.byte	0x6
 319 0115 4F       		.byte	0x4f
 320 0116 AD000000 		.4byte	0xad
 321 011a 04       		.uleb128 0x4
 322 011b 6E060000 		.4byte	.LASF24
 323 011f 07       		.byte	0x7
 324 0120 33       		.byte	0x33
 325 0121 AD000000 		.4byte	0xad
 326 0125 04       		.uleb128 0x4
 327 0126 59060000 		.4byte	.LASF25
 328 012a 07       		.byte	0x7
 329 012b 3F       		.byte	0x3f
 330 012c 30010000 		.4byte	0x130
 331 0130 06       		.uleb128 0x6
 332 0131 19020000 		.4byte	.LASF44
 333 0135 44       		.byte	0x44
 334 0136 08       		.byte	0x8
 335 0137 BE       		.byte	0xbe
 336 0138 1D020000 		.4byte	0x21d
 337 013c 07       		.uleb128 0x7
 338 013d 40040000 		.4byte	.LASF26
 339 0141 08       		.byte	0x8
 340 0142 BF       		.byte	0xbf
 341 0143 B6080000 		.4byte	0x8b6
 342 0147 00       		.byte	0
ARM GAS  C:\Users\jo\AppData\Local\Temp\ccQziWmI.s 			page 7


 343 0148 07       		.uleb128 0x7
 344 0149 DC040000 		.4byte	.LASF27
 345 014d 08       		.byte	0x8
 346 014e C1       		.byte	0xc1
 347 014f B6080000 		.4byte	0x8b6
 348 0153 04       		.byte	0x4
 349 0154 07       		.uleb128 0x7
 350 0155 D3000000 		.4byte	.LASF28
 351 0159 08       		.byte	0x8
 352 015a C3       		.byte	0xc3
 353 015b F9000000 		.4byte	0xf9
 354 015f 08       		.byte	0x8
 355 0160 07       		.uleb128 0x7
 356 0161 8B070000 		.4byte	.LASF29
 357 0165 08       		.byte	0x8
 358 0166 C4       		.byte	0xc4
 359 0167 02060000 		.4byte	0x602
 360 016b 0C       		.byte	0xc
 361 016c 07       		.uleb128 0x7
 362 016d 5E010000 		.4byte	.LASF30
 363 0171 08       		.byte	0x8
 364 0172 C6       		.byte	0xc6
 365 0173 B6080000 		.4byte	0x8b6
 366 0177 10       		.byte	0x10
 367 0178 07       		.uleb128 0x7
 368 0179 5B040000 		.4byte	.LASF31
 369 017d 08       		.byte	0x8
 370 017e C7       		.byte	0xc7
 371 017f B6080000 		.4byte	0x8b6
 372 0183 14       		.byte	0x14
 373 0184 07       		.uleb128 0x7
 374 0185 59070000 		.4byte	.LASF32
 375 0189 08       		.byte	0x8
 376 018a CE       		.byte	0xce
 377 018b 8B080000 		.4byte	0x88b
 378 018f 18       		.byte	0x18
 379 0190 07       		.uleb128 0x7
 380 0191 5B050000 		.4byte	.LASF33
 381 0195 08       		.byte	0x8
 382 0196 D9       		.byte	0xd9
 383 0197 E3000000 		.4byte	0xe3
 384 019b 1C       		.byte	0x1c
 385 019c 07       		.uleb128 0x7
 386 019d 7B050000 		.4byte	.LASF34
 387 01a1 08       		.byte	0x8
 388 01a2 DD       		.byte	0xdd
 389 01a3 D8000000 		.4byte	0xd8
 390 01a7 1D       		.byte	0x1d
 391 01a8 07       		.uleb128 0x7
 392 01a9 2E070000 		.4byte	.LASF35
 393 01ad 08       		.byte	0x8
 394 01ae E2       		.byte	0xe2
 395 01af EE000000 		.4byte	0xee
 396 01b3 1E       		.byte	0x1e
 397 01b4 08       		.uleb128 0x8
 398 01b5 705F7500 		.ascii	"p_u\000"
 399 01b9 08       		.byte	0x8
ARM GAS  C:\Users\jo\AppData\Local\Temp\ccQziWmI.s 			page 8


 400 01ba 1401     		.2byte	0x114
 401 01bc BC080000 		.4byte	0x8bc
 402 01c0 20       		.byte	0x20
 403 01c1 09       		.uleb128 0x9
 404 01c2 16040000 		.4byte	.LASF36
 405 01c6 08       		.byte	0x8
 406 01c7 1901     		.2byte	0x119
 407 01c9 1D020000 		.4byte	0x21d
 408 01cd 24       		.byte	0x24
 409 01ce 09       		.uleb128 0x9
 410 01cf FD010000 		.4byte	.LASF37
 411 01d3 08       		.byte	0x8
 412 01d4 1F01     		.2byte	0x11f
 413 01d6 41020000 		.4byte	0x241
 414 01da 28       		.byte	0x28
 415 01db 09       		.uleb128 0x9
 416 01dc 75070000 		.4byte	.LASF38
 417 01e0 08       		.byte	0x8
 418 01e1 2301     		.2byte	0x123
 419 01e3 04010000 		.4byte	0x104
 420 01e7 30       		.byte	0x30
 421 01e8 09       		.uleb128 0x9
 422 01e9 A1050000 		.4byte	.LASF39
 423 01ed 08       		.byte	0x8
 424 01ee 2901     		.2byte	0x129
 425 01f0 0F010000 		.4byte	0x10f
 426 01f4 34       		.byte	0x34
 427 01f5 09       		.uleb128 0x9
 428 01f6 47050000 		.4byte	.LASF40
 429 01fa 08       		.byte	0x8
 430 01fb 3001     		.2byte	0x130
 431 01fd 25090000 		.4byte	0x925
 432 0201 38       		.byte	0x38
 433 0202 09       		.uleb128 0x9
 434 0203 3D020000 		.4byte	.LASF41
 435 0207 08       		.byte	0x8
 436 0208 3401     		.2byte	0x134
 437 020a F9000000 		.4byte	0xf9
 438 020e 3C       		.byte	0x3c
 439 020f 09       		.uleb128 0x9
 440 0210 89010000 		.4byte	.LASF42
 441 0214 08       		.byte	0x8
 442 0215 3A01     		.2byte	0x13a
 443 0217 F4020000 		.4byte	0x2f4
 444 021b 40       		.byte	0x40
 445 021c 00       		.byte	0
 446 021d 04       		.uleb128 0x4
 447 021e DE020000 		.4byte	.LASF43
 448 0222 07       		.byte	0x7
 449 0223 44       		.byte	0x44
 450 0224 28020000 		.4byte	0x228
 451 0228 06       		.uleb128 0x6
 452 0229 C7050000 		.4byte	.LASF45
 453 022d 04       		.byte	0x4
 454 022e 08       		.byte	0x8
 455 022f AC       		.byte	0xac
 456 0230 41020000 		.4byte	0x241
ARM GAS  C:\Users\jo\AppData\Local\Temp\ccQziWmI.s 			page 9


 457 0234 07       		.uleb128 0x7
 458 0235 40040000 		.4byte	.LASF26
 459 0239 08       		.byte	0x8
 460 023a AD       		.byte	0xad
 461 023b B6080000 		.4byte	0x8b6
 462 023f 00       		.byte	0
 463 0240 00       		.byte	0
 464 0241 04       		.uleb128 0x4
 465 0242 12070000 		.4byte	.LASF46
 466 0246 07       		.byte	0x7
 467 0247 4B       		.byte	0x4b
 468 0248 4C020000 		.4byte	0x24c
 469 024c 06       		.uleb128 0x6
 470 024d B8000000 		.4byte	.LASF47
 471 0251 08       		.byte	0x8
 472 0252 08       		.byte	0x8
 473 0253 B3       		.byte	0xb3
 474 0254 71020000 		.4byte	0x271
 475 0258 07       		.uleb128 0x7
 476 0259 40040000 		.4byte	.LASF26
 477 025d 08       		.byte	0x8
 478 025e B4       		.byte	0xb4
 479 025f B6080000 		.4byte	0x8b6
 480 0263 00       		.byte	0
 481 0264 07       		.uleb128 0x7
 482 0265 DC040000 		.4byte	.LASF27
 483 0269 08       		.byte	0x8
 484 026a B5       		.byte	0xb5
 485 026b B6080000 		.4byte	0x8b6
 486 026f 04       		.byte	0x4
 487 0270 00       		.byte	0
 488 0271 04       		.uleb128 0x4
 489 0272 00000000 		.4byte	.LASF48
 490 0276 07       		.byte	0x7
 491 0277 52       		.byte	0x52
 492 0278 7C020000 		.4byte	0x27c
 493 027c 0A       		.uleb128 0xa
 494 027d 9B020000 		.4byte	.LASF49
 495 0281 1C       		.byte	0x1c
 496 0282 08       		.byte	0x8
 497 0283 7201     		.2byte	0x172
 498 0285 D8020000 		.4byte	0x2d8
 499 0289 09       		.uleb128 0x9
 500 028a BF050000 		.4byte	.LASF50
 501 028e 08       		.byte	0x8
 502 028f 7301     		.2byte	0x173
 503 0291 41020000 		.4byte	0x241
 504 0295 00       		.byte	0
 505 0296 09       		.uleb128 0x9
 506 0297 6D050000 		.4byte	.LASF51
 507 029b 08       		.byte	0x8
 508 029c 7401     		.2byte	0x174
 509 029e F9000000 		.4byte	0xf9
 510 02a2 08       		.byte	0x8
 511 02a3 09       		.uleb128 0x9
 512 02a4 63040000 		.4byte	.LASF52
 513 02a8 08       		.byte	0x8
ARM GAS  C:\Users\jo\AppData\Local\Temp\ccQziWmI.s 			page 10


 514 02a9 7601     		.2byte	0x176
 515 02ab 02060000 		.4byte	0x602
 516 02af 0C       		.byte	0xc
 517 02b0 09       		.uleb128 0x9
 518 02b1 81010000 		.4byte	.LASF53
 519 02b5 08       		.byte	0x8
 520 02b6 7901     		.2byte	0x179
 521 02b8 B6080000 		.4byte	0x8b6
 522 02bc 10       		.byte	0x10
 523 02bd 09       		.uleb128 0x9
 524 02be D6060000 		.4byte	.LASF54
 525 02c2 08       		.byte	0x8
 526 02c3 7A01     		.2byte	0x17a
 527 02c5 B6080000 		.4byte	0x8b6
 528 02c9 14       		.byte	0x14
 529 02ca 09       		.uleb128 0x9
 530 02cb 84040000 		.4byte	.LASF55
 531 02cf 08       		.byte	0x8
 532 02d0 7D01     		.2byte	0x17d
 533 02d2 B6080000 		.4byte	0x8b6
 534 02d6 18       		.byte	0x18
 535 02d7 00       		.byte	0
 536 02d8 04       		.uleb128 0x4
 537 02d9 8B060000 		.4byte	.LASF56
 538 02dd 07       		.byte	0x7
 539 02de 57       		.byte	0x57
 540 02df E3020000 		.4byte	0x2e3
 541 02e3 0B       		.uleb128 0xb
 542 02e4 04       		.byte	0x4
 543 02e5 E9020000 		.4byte	0x2e9
 544 02e9 0C       		.uleb128 0xc
 545 02ea F4020000 		.4byte	0x2f4
 546 02ee 0D       		.uleb128 0xd
 547 02ef F4020000 		.4byte	0x2f4
 548 02f3 00       		.byte	0
 549 02f4 0E       		.uleb128 0xe
 550 02f5 04       		.byte	0x4
 551 02f6 04       		.uleb128 0x4
 552 02f7 06040000 		.4byte	.LASF57
 553 02fb 07       		.byte	0x7
 554 02fc 5C       		.byte	0x5c
 555 02fd 01030000 		.4byte	0x301
 556 0301 0A       		.uleb128 0xa
 557 0302 8B050000 		.4byte	.LASF58
 558 0306 14       		.byte	0x14
 559 0307 08       		.byte	0x8
 560 0308 4D01     		.2byte	0x14d
 561 030a 50030000 		.4byte	0x350
 562 030e 09       		.uleb128 0x9
 563 030f EC010000 		.4byte	.LASF59
 564 0313 08       		.byte	0x8
 565 0314 4E01     		.2byte	0x14e
 566 0316 2B090000 		.4byte	0x92b
 567 031a 00       		.byte	0
 568 031b 09       		.uleb128 0x9
 569 031c 9A010000 		.4byte	.LASF60
 570 0320 08       		.byte	0x8
ARM GAS  C:\Users\jo\AppData\Local\Temp\ccQziWmI.s 			page 11


 571 0321 4F01     		.2byte	0x14f
 572 0323 2B090000 		.4byte	0x92b
 573 0327 04       		.byte	0x4
 574 0328 09       		.uleb128 0x9
 575 0329 F4010000 		.4byte	.LASF61
 576 032d 08       		.byte	0x8
 577 032e 5001     		.2byte	0x150
 578 0330 1A010000 		.4byte	0x11a
 579 0334 08       		.byte	0x8
 580 0335 09       		.uleb128 0x9
 581 0336 91070000 		.4byte	.LASF62
 582 033a 08       		.byte	0x8
 583 033b 5101     		.2byte	0x151
 584 033d D8020000 		.4byte	0x2d8
 585 0341 0C       		.byte	0xc
 586 0342 09       		.uleb128 0x9
 587 0343 05070000 		.4byte	.LASF63
 588 0347 08       		.byte	0x8
 589 0348 5301     		.2byte	0x153
 590 034a F4020000 		.4byte	0x2f4
 591 034e 10       		.byte	0x10
 592 034f 00       		.byte	0
 593 0350 04       		.uleb128 0x4
 594 0351 7C000000 		.4byte	.LASF64
 595 0355 07       		.byte	0x7
 596 0356 61       		.byte	0x61
 597 0357 5B030000 		.4byte	0x35b
 598 035b 0A       		.uleb128 0xa
 599 035c 29040000 		.4byte	.LASF65
 600 0360 10       		.byte	0x10
 601 0361 08       		.byte	0x8
 602 0362 5D01     		.2byte	0x15d
 603 0364 9D030000 		.4byte	0x39d
 604 0368 09       		.uleb128 0x9
 605 0369 EC010000 		.4byte	.LASF59
 606 036d 08       		.byte	0x8
 607 036e 5E01     		.2byte	0x15e
 608 0370 2B090000 		.4byte	0x92b
 609 0374 00       		.byte	0
 610 0375 09       		.uleb128 0x9
 611 0376 9A010000 		.4byte	.LASF60
 612 037a 08       		.byte	0x8
 613 037b 6001     		.2byte	0x160
 614 037d 2B090000 		.4byte	0x92b
 615 0381 04       		.byte	0x4
 616 0382 09       		.uleb128 0x9
 617 0383 F4010000 		.4byte	.LASF61
 618 0387 08       		.byte	0x8
 619 0388 6201     		.2byte	0x162
 620 038a 1A010000 		.4byte	0x11a
 621 038e 08       		.byte	0x8
 622 038f 09       		.uleb128 0x9
 623 0390 4F040000 		.4byte	.LASF66
 624 0394 08       		.byte	0x8
 625 0395 6A01     		.2byte	0x16a
 626 0397 1A010000 		.4byte	0x11a
 627 039b 0C       		.byte	0xc
ARM GAS  C:\Users\jo\AppData\Local\Temp\ccQziWmI.s 			page 12


 628 039c 00       		.byte	0
 629 039d 04       		.uleb128 0x4
 630 039e 38000000 		.4byte	.LASF67
 631 03a2 07       		.byte	0x7
 632 03a3 66       		.byte	0x66
 633 03a4 A8030000 		.4byte	0x3a8
 634 03a8 0A       		.uleb128 0xa
 635 03a9 0E050000 		.4byte	.LASF68
 636 03ad 04       		.byte	0x4
 637 03ae 08       		.byte	0x8
 638 03af 8401     		.2byte	0x184
 639 03b1 C3030000 		.4byte	0x3c3
 640 03b5 09       		.uleb128 0x9
 641 03b6 AD060000 		.4byte	.LASF69
 642 03ba 08       		.byte	0x8
 643 03bb 8C01     		.2byte	0x18c
 644 03bd 31090000 		.4byte	0x931
 645 03c1 00       		.byte	0
 646 03c2 00       		.byte	0
 647 03c3 04       		.uleb128 0x4
 648 03c4 DE060000 		.4byte	.LASF70
 649 03c8 07       		.byte	0x7
 650 03c9 6B       		.byte	0x6b
 651 03ca CE030000 		.4byte	0x3ce
 652 03ce 0F       		.uleb128 0xf
 653 03cf 2F010000 		.4byte	.LASF71
 654 03d3 D801     		.2byte	0x1d8
 655 03d5 08       		.byte	0x8
 656 03d6 A401     		.2byte	0x1a4
 657 03d8 2A040000 		.4byte	0x42a
 658 03dc 09       		.uleb128 0x9
 659 03dd 3A070000 		.4byte	.LASF72
 660 03e1 08       		.byte	0x8
 661 03e2 A801     		.2byte	0x1a8
 662 03e4 71020000 		.4byte	0x271
 663 03e8 00       		.byte	0
 664 03e9 09       		.uleb128 0x9
 665 03ea A2010000 		.4byte	.LASF73
 666 03ee 08       		.byte	0x8
 667 03ef AC01     		.2byte	0x1ac
 668 03f1 50030000 		.4byte	0x350
 669 03f5 1C       		.byte	0x1c
 670 03f6 08       		.uleb128 0x8
 671 03f7 64626700 		.ascii	"dbg\000"
 672 03fb 08       		.byte	0x8
 673 03fc B001     		.2byte	0x1b0
 674 03fe 9D030000 		.4byte	0x39d
 675 0402 2C       		.byte	0x2c
 676 0403 09       		.uleb128 0x9
 677 0404 71000000 		.4byte	.LASF74
 678 0408 08       		.byte	0x8
 679 0409 B401     		.2byte	0x1b4
 680 040b 25010000 		.4byte	0x125
 681 040f 30       		.byte	0x30
 682 0410 08       		.uleb128 0x8
 683 0411 746D00   		.ascii	"tm\000"
 684 0414 08       		.byte	0x8
ARM GAS  C:\Users\jo\AppData\Local\Temp\ccQziWmI.s 			page 13


 685 0415 B901     		.2byte	0x1b9
 686 0417 AB080000 		.4byte	0x8ab
 687 041b 74       		.byte	0x74
 688 041c 09       		.uleb128 0x9
 689 041d D0010000 		.4byte	.LASF75
 690 0421 08       		.byte	0x8
 691 0422 C501     		.2byte	0x1c5
 692 0424 36090000 		.4byte	0x936
 693 0428 78       		.byte	0x78
 694 0429 00       		.byte	0
 695 042a 03       		.uleb128 0x3
 696 042b 04       		.byte	0x4
 697 042c 07       		.byte	0x7
 698 042d 20040000 		.4byte	.LASF76
 699 0431 10       		.uleb128 0x10
 700 0432 AD000000 		.4byte	0xad
 701 0436 41040000 		.4byte	0x441
 702 043a 11       		.uleb128 0x11
 703 043b 2A040000 		.4byte	0x42a
 704 043f 01       		.byte	0x1
 705 0440 00       		.byte	0
 706 0441 10       		.uleb128 0x10
 707 0442 AD000000 		.4byte	0xad
 708 0446 51040000 		.4byte	0x451
 709 044a 11       		.uleb128 0x11
 710 044b 2A040000 		.4byte	0x42a
 711 044f 03       		.byte	0x3
 712 0450 00       		.byte	0
 713 0451 12       		.uleb128 0x12
 714 0452 88       		.byte	0x88
 715 0453 09       		.byte	0x9
 716 0454 6702     		.2byte	0x267
 717 0456 E0050000 		.4byte	0x5e0
 718 045a 08       		.uleb128 0x8
 719 045b 435200   		.ascii	"CR\000"
 720 045e 09       		.byte	0x9
 721 045f 6902     		.2byte	0x269
 722 0461 C8000000 		.4byte	0xc8
 723 0465 00       		.byte	0
 724 0466 09       		.uleb128 0x9
 725 0467 66010000 		.4byte	.LASF77
 726 046b 09       		.byte	0x9
 727 046c 6A02     		.2byte	0x26a
 728 046e C8000000 		.4byte	0xc8
 729 0472 04       		.byte	0x4
 730 0473 09       		.uleb128 0x9
 731 0474 68070000 		.4byte	.LASF78
 732 0478 09       		.byte	0x9
 733 0479 6B02     		.2byte	0x26b
 734 047b C8000000 		.4byte	0xc8
 735 047f 08       		.byte	0x8
 736 0480 08       		.uleb128 0x8
 737 0481 43495200 		.ascii	"CIR\000"
 738 0485 09       		.byte	0x9
 739 0486 6C02     		.2byte	0x26c
 740 0488 C8000000 		.4byte	0xc8
 741 048c 0C       		.byte	0xc
ARM GAS  C:\Users\jo\AppData\Local\Temp\ccQziWmI.s 			page 14


 742 048d 09       		.uleb128 0x9
 743 048e 09010000 		.4byte	.LASF79
 744 0492 09       		.byte	0x9
 745 0493 6D02     		.2byte	0x26d
 746 0495 C8000000 		.4byte	0xc8
 747 0499 10       		.byte	0x10
 748 049a 09       		.uleb128 0x9
 749 049b 3B060000 		.4byte	.LASF80
 750 049f 09       		.byte	0x9
 751 04a0 6E02     		.2byte	0x26e
 752 04a2 C8000000 		.4byte	0xc8
 753 04a6 14       		.byte	0x14
 754 04a7 09       		.uleb128 0x9
 755 04a8 34020000 		.4byte	.LASF81
 756 04ac 09       		.byte	0x9
 757 04ad 6F02     		.2byte	0x26f
 758 04af C8000000 		.4byte	0xc8
 759 04b3 18       		.byte	0x18
 760 04b4 09       		.uleb128 0x9
 761 04b5 AA040000 		.4byte	.LASF82
 762 04b9 09       		.byte	0x9
 763 04ba 7002     		.2byte	0x270
 764 04bc AD000000 		.4byte	0xad
 765 04c0 1C       		.byte	0x1c
 766 04c1 09       		.uleb128 0x9
 767 04c2 8E040000 		.4byte	.LASF83
 768 04c6 09       		.byte	0x9
 769 04c7 7102     		.2byte	0x271
 770 04c9 C8000000 		.4byte	0xc8
 771 04cd 20       		.byte	0x20
 772 04ce 09       		.uleb128 0x9
 773 04cf 42010000 		.4byte	.LASF84
 774 04d3 09       		.byte	0x9
 775 04d4 7202     		.2byte	0x272
 776 04d6 C8000000 		.4byte	0xc8
 777 04da 24       		.byte	0x24
 778 04db 09       		.uleb128 0x9
 779 04dc B4040000 		.4byte	.LASF85
 780 04e0 09       		.byte	0x9
 781 04e1 7302     		.2byte	0x273
 782 04e3 31040000 		.4byte	0x431
 783 04e7 28       		.byte	0x28
 784 04e8 09       		.uleb128 0x9
 785 04e9 60070000 		.4byte	.LASF86
 786 04ed 09       		.byte	0x9
 787 04ee 7402     		.2byte	0x274
 788 04f0 C8000000 		.4byte	0xc8
 789 04f4 30       		.byte	0x30
 790 04f5 09       		.uleb128 0x9
 791 04f6 C6060000 		.4byte	.LASF87
 792 04fa 09       		.byte	0x9
 793 04fb 7502     		.2byte	0x275
 794 04fd C8000000 		.4byte	0xc8
 795 0501 34       		.byte	0x34
 796 0502 09       		.uleb128 0x9
 797 0503 47040000 		.4byte	.LASF88
 798 0507 09       		.byte	0x9
ARM GAS  C:\Users\jo\AppData\Local\Temp\ccQziWmI.s 			page 15


 799 0508 7602     		.2byte	0x276
 800 050a C8000000 		.4byte	0xc8
 801 050e 38       		.byte	0x38
 802 050f 09       		.uleb128 0x9
 803 0510 BE040000 		.4byte	.LASF89
 804 0514 09       		.byte	0x9
 805 0515 7702     		.2byte	0x277
 806 0517 AD000000 		.4byte	0xad
 807 051b 3C       		.byte	0x3c
 808 051c 09       		.uleb128 0x9
 809 051d BE060000 		.4byte	.LASF90
 810 0521 09       		.byte	0x9
 811 0522 7802     		.2byte	0x278
 812 0524 C8000000 		.4byte	0xc8
 813 0528 40       		.byte	0x40
 814 0529 09       		.uleb128 0x9
 815 052a 83050000 		.4byte	.LASF91
 816 052e 09       		.byte	0x9
 817 052f 7902     		.2byte	0x279
 818 0531 C8000000 		.4byte	0xc8
 819 0535 44       		.byte	0x44
 820 0536 09       		.uleb128 0x9
 821 0537 C8040000 		.4byte	.LASF92
 822 053b 09       		.byte	0x9
 823 053c 7A02     		.2byte	0x27a
 824 053e 31040000 		.4byte	0x431
 825 0542 48       		.byte	0x48
 826 0543 09       		.uleb128 0x9
 827 0544 C9000000 		.4byte	.LASF93
 828 0548 09       		.byte	0x9
 829 0549 7B02     		.2byte	0x27b
 830 054b C8000000 		.4byte	0xc8
 831 054f 50       		.byte	0x50
 832 0550 09       		.uleb128 0x9
 833 0551 69040000 		.4byte	.LASF94
 834 0555 09       		.byte	0x9
 835 0556 7C02     		.2byte	0x27c
 836 0558 C8000000 		.4byte	0xc8
 837 055c 54       		.byte	0x54
 838 055d 09       		.uleb128 0x9
 839 055e 63050000 		.4byte	.LASF95
 840 0562 09       		.byte	0x9
 841 0563 7D02     		.2byte	0x27d
 842 0565 C8000000 		.4byte	0xc8
 843 0569 58       		.byte	0x58
 844 056a 09       		.uleb128 0x9
 845 056b D2040000 		.4byte	.LASF96
 846 056f 09       		.byte	0x9
 847 0570 7E02     		.2byte	0x27e
 848 0572 AD000000 		.4byte	0xad
 849 0576 5C       		.byte	0x5c
 850 0577 09       		.uleb128 0x9
 851 0578 4B010000 		.4byte	.LASF97
 852 057c 09       		.byte	0x9
 853 057d 7F02     		.2byte	0x27f
 854 057f C8000000 		.4byte	0xc8
 855 0583 60       		.byte	0x60
ARM GAS  C:\Users\jo\AppData\Local\Temp\ccQziWmI.s 			page 16


 856 0584 09       		.uleb128 0x9
 857 0585 91020000 		.4byte	.LASF98
 858 0589 09       		.byte	0x9
 859 058a 8002     		.2byte	0x280
 860 058c C8000000 		.4byte	0xc8
 861 0590 64       		.byte	0x64
 862 0591 09       		.uleb128 0x9
 863 0592 AC050000 		.4byte	.LASF99
 864 0596 09       		.byte	0x9
 865 0597 8102     		.2byte	0x281
 866 0599 31040000 		.4byte	0x431
 867 059d 68       		.byte	0x68
 868 059e 09       		.uleb128 0x9
 869 059f 35070000 		.4byte	.LASF100
 870 05a3 09       		.byte	0x9
 871 05a4 8202     		.2byte	0x282
 872 05a6 C8000000 		.4byte	0xc8
 873 05aa 70       		.byte	0x70
 874 05ab 08       		.uleb128 0x8
 875 05ac 43535200 		.ascii	"CSR\000"
 876 05b0 09       		.byte	0x9
 877 05b1 8302     		.2byte	0x283
 878 05b3 C8000000 		.4byte	0xc8
 879 05b7 74       		.byte	0x74
 880 05b8 09       		.uleb128 0x9
 881 05b9 E3040000 		.4byte	.LASF101
 882 05bd 09       		.byte	0x9
 883 05be 8402     		.2byte	0x284
 884 05c0 31040000 		.4byte	0x431
 885 05c4 78       		.byte	0x78
 886 05c5 09       		.uleb128 0x9
 887 05c6 0C070000 		.4byte	.LASF102
 888 05ca 09       		.byte	0x9
 889 05cb 8502     		.2byte	0x285
 890 05cd C8000000 		.4byte	0xc8
 891 05d1 80       		.byte	0x80
 892 05d2 09       		.uleb128 0x9
 893 05d3 23020000 		.4byte	.LASF103
 894 05d7 09       		.byte	0x9
 895 05d8 8602     		.2byte	0x286
 896 05da C8000000 		.4byte	0xc8
 897 05de 84       		.byte	0x84
 898 05df 00       		.byte	0
 899 05e0 13       		.uleb128 0x13
 900 05e1 08020000 		.4byte	.LASF104
 901 05e5 09       		.byte	0x9
 902 05e6 8802     		.2byte	0x288
 903 05e8 51040000 		.4byte	0x451
 904 05ec 04       		.uleb128 0x4
 905 05ed 91010000 		.4byte	.LASF105
 906 05f1 0A       		.byte	0xa
 907 05f2 85       		.byte	0x85
 908 05f3 F4020000 		.4byte	0x2f4
 909 05f7 04       		.uleb128 0x4
 910 05f8 BF020000 		.4byte	.LASF106
 911 05fc 0A       		.byte	0xa
 912 05fd 8D       		.byte	0x8d
ARM GAS  C:\Users\jo\AppData\Local\Temp\ccQziWmI.s 			page 17


 913 05fe B8000000 		.4byte	0xb8
 914 0602 06       		.uleb128 0x6
 915 0603 CE060000 		.4byte	.LASF107
 916 0607 04       		.byte	0x4
 917 0608 0A       		.byte	0xa
 918 0609 A9       		.byte	0xa9
 919 060a 1B060000 		.4byte	0x61b
 920 060e 14       		.uleb128 0x14
 921 060f 72313300 		.ascii	"r13\000"
 922 0613 0A       		.byte	0xa
 923 0614 AA       		.byte	0xaa
 924 0615 5C070000 		.4byte	0x75c
 925 0619 00       		.byte	0
 926 061a 00       		.byte	0
 927 061b 06       		.uleb128 0x6
 928 061c 2C000000 		.4byte	.LASF108
 929 0620 64       		.byte	0x64
 930 0621 0B       		.byte	0xb
 931 0622 F4       		.byte	0xf4
 932 0623 5C070000 		.4byte	0x75c
 933 0627 14       		.uleb128 0x14
 934 0628 73313600 		.ascii	"s16\000"
 935 062c 0B       		.byte	0xb
 936 062d F6       		.byte	0xf6
 937 062e EC050000 		.4byte	0x5ec
 938 0632 00       		.byte	0
 939 0633 14       		.uleb128 0x14
 940 0634 73313700 		.ascii	"s17\000"
 941 0638 0B       		.byte	0xb
 942 0639 F7       		.byte	0xf7
 943 063a EC050000 		.4byte	0x5ec
 944 063e 04       		.byte	0x4
 945 063f 14       		.uleb128 0x14
 946 0640 73313800 		.ascii	"s18\000"
 947 0644 0B       		.byte	0xb
 948 0645 F8       		.byte	0xf8
 949 0646 EC050000 		.4byte	0x5ec
 950 064a 08       		.byte	0x8
 951 064b 14       		.uleb128 0x14
 952 064c 73313900 		.ascii	"s19\000"
 953 0650 0B       		.byte	0xb
 954 0651 F9       		.byte	0xf9
 955 0652 EC050000 		.4byte	0x5ec
 956 0656 0C       		.byte	0xc
 957 0657 14       		.uleb128 0x14
 958 0658 73323000 		.ascii	"s20\000"
 959 065c 0B       		.byte	0xb
 960 065d FA       		.byte	0xfa
 961 065e EC050000 		.4byte	0x5ec
 962 0662 10       		.byte	0x10
 963 0663 14       		.uleb128 0x14
 964 0664 73323100 		.ascii	"s21\000"
 965 0668 0B       		.byte	0xb
 966 0669 FB       		.byte	0xfb
 967 066a EC050000 		.4byte	0x5ec
 968 066e 14       		.byte	0x14
 969 066f 14       		.uleb128 0x14
ARM GAS  C:\Users\jo\AppData\Local\Temp\ccQziWmI.s 			page 18


 970 0670 73323200 		.ascii	"s22\000"
 971 0674 0B       		.byte	0xb
 972 0675 FC       		.byte	0xfc
 973 0676 EC050000 		.4byte	0x5ec
 974 067a 18       		.byte	0x18
 975 067b 14       		.uleb128 0x14
 976 067c 73323300 		.ascii	"s23\000"
 977 0680 0B       		.byte	0xb
 978 0681 FD       		.byte	0xfd
 979 0682 EC050000 		.4byte	0x5ec
 980 0686 1C       		.byte	0x1c
 981 0687 14       		.uleb128 0x14
 982 0688 73323400 		.ascii	"s24\000"
 983 068c 0B       		.byte	0xb
 984 068d FE       		.byte	0xfe
 985 068e EC050000 		.4byte	0x5ec
 986 0692 20       		.byte	0x20
 987 0693 14       		.uleb128 0x14
 988 0694 73323500 		.ascii	"s25\000"
 989 0698 0B       		.byte	0xb
 990 0699 FF       		.byte	0xff
 991 069a EC050000 		.4byte	0x5ec
 992 069e 24       		.byte	0x24
 993 069f 08       		.uleb128 0x8
 994 06a0 73323600 		.ascii	"s26\000"
 995 06a4 0B       		.byte	0xb
 996 06a5 0001     		.2byte	0x100
 997 06a7 EC050000 		.4byte	0x5ec
 998 06ab 28       		.byte	0x28
 999 06ac 08       		.uleb128 0x8
 1000 06ad 73323700 		.ascii	"s27\000"
 1001 06b1 0B       		.byte	0xb
 1002 06b2 0101     		.2byte	0x101
 1003 06b4 EC050000 		.4byte	0x5ec
 1004 06b8 2C       		.byte	0x2c
 1005 06b9 08       		.uleb128 0x8
 1006 06ba 73323800 		.ascii	"s28\000"
 1007 06be 0B       		.byte	0xb
 1008 06bf 0201     		.2byte	0x102
 1009 06c1 EC050000 		.4byte	0x5ec
 1010 06c5 30       		.byte	0x30
 1011 06c6 08       		.uleb128 0x8
 1012 06c7 73323900 		.ascii	"s29\000"
 1013 06cb 0B       		.byte	0xb
 1014 06cc 0301     		.2byte	0x103
 1015 06ce EC050000 		.4byte	0x5ec
 1016 06d2 34       		.byte	0x34
 1017 06d3 08       		.uleb128 0x8
 1018 06d4 73333000 		.ascii	"s30\000"
 1019 06d8 0B       		.byte	0xb
 1020 06d9 0401     		.2byte	0x104
 1021 06db EC050000 		.4byte	0x5ec
 1022 06df 38       		.byte	0x38
 1023 06e0 08       		.uleb128 0x8
 1024 06e1 73333100 		.ascii	"s31\000"
 1025 06e5 0B       		.byte	0xb
 1026 06e6 0501     		.2byte	0x105
ARM GAS  C:\Users\jo\AppData\Local\Temp\ccQziWmI.s 			page 19


 1027 06e8 EC050000 		.4byte	0x5ec
 1028 06ec 3C       		.byte	0x3c
 1029 06ed 08       		.uleb128 0x8
 1030 06ee 723400   		.ascii	"r4\000"
 1031 06f1 0B       		.byte	0xb
 1032 06f2 0701     		.2byte	0x107
 1033 06f4 EC050000 		.4byte	0x5ec
 1034 06f8 40       		.byte	0x40
 1035 06f9 08       		.uleb128 0x8
 1036 06fa 723500   		.ascii	"r5\000"
 1037 06fd 0B       		.byte	0xb
 1038 06fe 0801     		.2byte	0x108
 1039 0700 EC050000 		.4byte	0x5ec
 1040 0704 44       		.byte	0x44
 1041 0705 08       		.uleb128 0x8
 1042 0706 723600   		.ascii	"r6\000"
 1043 0709 0B       		.byte	0xb
 1044 070a 0901     		.2byte	0x109
 1045 070c EC050000 		.4byte	0x5ec
 1046 0710 48       		.byte	0x48
 1047 0711 08       		.uleb128 0x8
 1048 0712 723700   		.ascii	"r7\000"
 1049 0715 0B       		.byte	0xb
 1050 0716 0A01     		.2byte	0x10a
 1051 0718 EC050000 		.4byte	0x5ec
 1052 071c 4C       		.byte	0x4c
 1053 071d 08       		.uleb128 0x8
 1054 071e 723800   		.ascii	"r8\000"
 1055 0721 0B       		.byte	0xb
 1056 0722 0B01     		.2byte	0x10b
 1057 0724 EC050000 		.4byte	0x5ec
 1058 0728 50       		.byte	0x50
 1059 0729 08       		.uleb128 0x8
 1060 072a 723900   		.ascii	"r9\000"
 1061 072d 0B       		.byte	0xb
 1062 072e 0C01     		.2byte	0x10c
 1063 0730 EC050000 		.4byte	0x5ec
 1064 0734 54       		.byte	0x54
 1065 0735 08       		.uleb128 0x8
 1066 0736 72313000 		.ascii	"r10\000"
 1067 073a 0B       		.byte	0xb
 1068 073b 0D01     		.2byte	0x10d
 1069 073d EC050000 		.4byte	0x5ec
 1070 0741 58       		.byte	0x58
 1071 0742 08       		.uleb128 0x8
 1072 0743 72313100 		.ascii	"r11\000"
 1073 0747 0B       		.byte	0xb
 1074 0748 0E01     		.2byte	0x10e
 1075 074a EC050000 		.4byte	0x5ec
 1076 074e 5C       		.byte	0x5c
 1077 074f 08       		.uleb128 0x8
 1078 0750 6C7200   		.ascii	"lr\000"
 1079 0753 0B       		.byte	0xb
 1080 0754 0F01     		.2byte	0x10f
 1081 0756 EC050000 		.4byte	0x5ec
 1082 075a 60       		.byte	0x60
 1083 075b 00       		.byte	0
ARM GAS  C:\Users\jo\AppData\Local\Temp\ccQziWmI.s 			page 20


 1084 075c 0B       		.uleb128 0xb
 1085 075d 04       		.byte	0x4
 1086 075e 1B060000 		.4byte	0x61b
 1087 0762 12       		.uleb128 0x12
 1088 0763 60       		.byte	0x60
 1089 0764 0C       		.byte	0xc
 1090 0765 9E01     		.2byte	0x19e
 1091 0767 6E080000 		.4byte	0x86e
 1092 076b 08       		.uleb128 0x8
 1093 076c 43523100 		.ascii	"CR1\000"
 1094 0770 0C       		.byte	0xc
 1095 0771 9F01     		.2byte	0x19f
 1096 0773 C8000000 		.4byte	0xc8
 1097 0777 00       		.byte	0
 1098 0778 08       		.uleb128 0x8
 1099 0779 43523200 		.ascii	"CR2\000"
 1100 077d 0C       		.byte	0xc
 1101 077e A001     		.2byte	0x1a0
 1102 0780 C8000000 		.4byte	0xc8
 1103 0784 04       		.byte	0x4
 1104 0785 09       		.uleb128 0x9
 1105 0786 14020000 		.4byte	.LASF109
 1106 078a 0C       		.byte	0xc
 1107 078b A101     		.2byte	0x1a1
 1108 078d C8000000 		.4byte	0xc8
 1109 0791 08       		.byte	0x8
 1110 0792 09       		.uleb128 0x9
 1111 0793 0D000000 		.4byte	.LASF110
 1112 0797 0C       		.byte	0xc
 1113 0798 A201     		.2byte	0x1a2
 1114 079a C8000000 		.4byte	0xc8
 1115 079e 0C       		.byte	0xc
 1116 079f 08       		.uleb128 0x8
 1117 07a0 535200   		.ascii	"SR\000"
 1118 07a3 0C       		.byte	0xc
 1119 07a4 A301     		.2byte	0x1a3
 1120 07a6 C8000000 		.4byte	0xc8
 1121 07aa 10       		.byte	0x10
 1122 07ab 08       		.uleb128 0x8
 1123 07ac 45475200 		.ascii	"EGR\000"
 1124 07b0 0C       		.byte	0xc
 1125 07b1 A401     		.2byte	0x1a4
 1126 07b3 C8000000 		.4byte	0xc8
 1127 07b7 14       		.byte	0x14
 1128 07b8 09       		.uleb128 0x9
 1129 07b9 EB000000 		.4byte	.LASF111
 1130 07bd 0C       		.byte	0xc
 1131 07be A501     		.2byte	0x1a5
 1132 07c0 C8000000 		.4byte	0xc8
 1133 07c4 18       		.byte	0x18
 1134 07c5 09       		.uleb128 0x9
 1135 07c6 F1000000 		.4byte	.LASF112
 1136 07ca 0C       		.byte	0xc
 1137 07cb A601     		.2byte	0x1a6
 1138 07cd C8000000 		.4byte	0xc8
 1139 07d1 1C       		.byte	0x1c
 1140 07d2 09       		.uleb128 0x9
ARM GAS  C:\Users\jo\AppData\Local\Temp\ccQziWmI.s 			page 21


 1141 07d3 62060000 		.4byte	.LASF113
 1142 07d7 0C       		.byte	0xc
 1143 07d8 A701     		.2byte	0x1a7
 1144 07da C8000000 		.4byte	0xc8
 1145 07de 20       		.byte	0x20
 1146 07df 08       		.uleb128 0x8
 1147 07e0 434E5400 		.ascii	"CNT\000"
 1148 07e4 0C       		.byte	0xc
 1149 07e5 A801     		.2byte	0x1a8
 1150 07e7 C8000000 		.4byte	0xc8
 1151 07eb 24       		.byte	0x24
 1152 07ec 08       		.uleb128 0x8
 1153 07ed 50534300 		.ascii	"PSC\000"
 1154 07f1 0C       		.byte	0xc
 1155 07f2 A901     		.2byte	0x1a9
 1156 07f4 C8000000 		.4byte	0xc8
 1157 07f8 28       		.byte	0x28
 1158 07f9 08       		.uleb128 0x8
 1159 07fa 41525200 		.ascii	"ARR\000"
 1160 07fe 0C       		.byte	0xc
 1161 07ff AA01     		.2byte	0x1aa
 1162 0801 C8000000 		.4byte	0xc8
 1163 0805 2C       		.byte	0x2c
 1164 0806 08       		.uleb128 0x8
 1165 0807 52435200 		.ascii	"RCR\000"
 1166 080b 0C       		.byte	0xc
 1167 080c AB01     		.2byte	0x1ab
 1168 080e C8000000 		.4byte	0xc8
 1169 0812 30       		.byte	0x30
 1170 0813 08       		.uleb128 0x8
 1171 0814 43435200 		.ascii	"CCR\000"
 1172 0818 0C       		.byte	0xc
 1173 0819 AC01     		.2byte	0x1ac
 1174 081b 6E080000 		.4byte	0x86e
 1175 081f 34       		.byte	0x34
 1176 0820 09       		.uleb128 0x9
 1177 0821 B3000000 		.4byte	.LASF114
 1178 0825 0C       		.byte	0xc
 1179 0826 AD01     		.2byte	0x1ad
 1180 0828 C8000000 		.4byte	0xc8
 1181 082c 44       		.byte	0x44
 1182 082d 08       		.uleb128 0x8
 1183 082e 44435200 		.ascii	"DCR\000"
 1184 0832 0C       		.byte	0xc
 1185 0833 AE01     		.2byte	0x1ae
 1186 0835 C8000000 		.4byte	0xc8
 1187 0839 48       		.byte	0x48
 1188 083a 09       		.uleb128 0x9
 1189 083b 36060000 		.4byte	.LASF115
 1190 083f 0C       		.byte	0xc
 1191 0840 AF01     		.2byte	0x1af
 1192 0842 C8000000 		.4byte	0xc8
 1193 0846 4C       		.byte	0x4c
 1194 0847 08       		.uleb128 0x8
 1195 0848 4F5200   		.ascii	"OR\000"
 1196 084b 0C       		.byte	0xc
 1197 084c B001     		.2byte	0x1b0
ARM GAS  C:\Users\jo\AppData\Local\Temp\ccQziWmI.s 			page 22


 1198 084e C8000000 		.4byte	0xc8
 1199 0852 50       		.byte	0x50
 1200 0853 09       		.uleb128 0x9
 1201 0854 F7000000 		.4byte	.LASF116
 1202 0858 0C       		.byte	0xc
 1203 0859 B101     		.2byte	0x1b1
 1204 085b C8000000 		.4byte	0xc8
 1205 085f 54       		.byte	0x54
 1206 0860 09       		.uleb128 0x9
 1207 0861 9C050000 		.4byte	.LASF117
 1208 0865 0C       		.byte	0xc
 1209 0866 B201     		.2byte	0x1b2
 1210 0868 73080000 		.4byte	0x873
 1211 086c 58       		.byte	0x58
 1212 086d 00       		.byte	0
 1213 086e 05       		.uleb128 0x5
 1214 086f 41040000 		.4byte	0x441
 1215 0873 05       		.uleb128 0x5
 1216 0874 31040000 		.4byte	0x431
 1217 0878 13       		.uleb128 0x13
 1218 0879 22070000 		.4byte	.LASF118
 1219 087d 0C       		.byte	0xc
 1220 087e B301     		.2byte	0x1b3
 1221 0880 62070000 		.4byte	0x762
 1222 0884 03       		.uleb128 0x3
 1223 0885 01       		.byte	0x1
 1224 0886 08       		.byte	0x8
 1225 0887 E9050000 		.4byte	.LASF119
 1226 088b 0B       		.uleb128 0xb
 1227 088c 04       		.byte	0x4
 1228 088d 91080000 		.4byte	0x891
 1229 0891 15       		.uleb128 0x15
 1230 0892 84080000 		.4byte	0x884
 1231 0896 16       		.uleb128 0x16
 1232 0897 04       		.byte	0x4
 1233 0898 0D       		.byte	0xd
 1234 0899 38       		.byte	0x38
 1235 089a AB080000 		.4byte	0x8ab
 1236 089e 07       		.uleb128 0x7
 1237 089f B7060000 		.4byte	.LASF120
 1238 08a3 0D       		.byte	0xd
 1239 08a4 3C       		.byte	0x3c
 1240 08a5 CD000000 		.4byte	0xcd
 1241 08a9 00       		.byte	0
 1242 08aa 00       		.byte	0
 1243 08ab 04       		.uleb128 0x4
 1244 08ac 73040000 		.4byte	.LASF121
 1245 08b0 0D       		.byte	0xd
 1246 08b1 3D       		.byte	0x3d
 1247 08b2 96080000 		.4byte	0x896
 1248 08b6 0B       		.uleb128 0xb
 1249 08b7 04       		.byte	0x4
 1250 08b8 25010000 		.4byte	0x125
 1251 08bc 17       		.uleb128 0x17
 1252 08bd 04       		.byte	0x4
 1253 08be 08       		.byte	0x8
 1254 08bf F6       		.byte	0xf6
ARM GAS  C:\Users\jo\AppData\Local\Temp\ccQziWmI.s 			page 23


 1255 08c0 F4080000 		.4byte	0x8f4
 1256 08c4 18       		.uleb128 0x18
 1257 08c5 12000000 		.4byte	.LASF122
 1258 08c9 08       		.byte	0x8
 1259 08ca FD       		.byte	0xfd
 1260 08cb 04010000 		.4byte	0x104
 1261 08cf 19       		.uleb128 0x19
 1262 08d0 68000000 		.4byte	.LASF123
 1263 08d4 08       		.byte	0x8
 1264 08d5 0401     		.2byte	0x104
 1265 08d7 04010000 		.4byte	0x104
 1266 08db 19       		.uleb128 0x19
 1267 08dc 8A020000 		.4byte	.LASF124
 1268 08e0 08       		.byte	0x8
 1269 08e1 0B01     		.2byte	0x10b
 1270 08e3 F4020000 		.4byte	0x2f4
 1271 08e7 19       		.uleb128 0x19
 1272 08e8 74050000 		.4byte	.LASF125
 1273 08ec 08       		.byte	0x8
 1274 08ed 1201     		.2byte	0x112
 1275 08ef 0F010000 		.4byte	0x10f
 1276 08f3 00       		.byte	0
 1277 08f4 06       		.uleb128 0x6
 1278 08f5 08050000 		.4byte	.LASF126
 1279 08f9 10       		.byte	0x10
 1280 08fa 0E       		.byte	0xe
 1281 08fb 39       		.byte	0x39
 1282 08fc 25090000 		.4byte	0x925
 1283 0900 07       		.uleb128 0x7
 1284 0901 12010000 		.4byte	.LASF127
 1285 0905 0E       		.byte	0xe
 1286 0906 3A       		.byte	0x3a
 1287 0907 41020000 		.4byte	0x241
 1288 090b 00       		.byte	0
 1289 090c 07       		.uleb128 0x7
 1290 090d 83070000 		.4byte	.LASF128
 1291 0911 0E       		.byte	0xe
 1292 0912 3C       		.byte	0x3c
 1293 0913 B6080000 		.4byte	0x8b6
 1294 0917 08       		.byte	0x8
 1295 0918 07       		.uleb128 0x7
 1296 0919 67060000 		.4byte	.LASF129
 1297 091d 0E       		.byte	0xe
 1298 091e 3E       		.byte	0x3e
 1299 091f 51090000 		.4byte	0x951
 1300 0923 0C       		.byte	0xc
 1301 0924 00       		.byte	0
 1302 0925 0B       		.uleb128 0xb
 1303 0926 04       		.byte	0x4
 1304 0927 F4080000 		.4byte	0x8f4
 1305 092b 0B       		.uleb128 0xb
 1306 092c 04       		.byte	0x4
 1307 092d F6020000 		.4byte	0x2f6
 1308 0931 05       		.uleb128 0x5
 1309 0932 8B080000 		.4byte	0x88b
 1310 0936 10       		.uleb128 0x10
 1311 0937 F7050000 		.4byte	0x5f7
ARM GAS  C:\Users\jo\AppData\Local\Temp\ccQziWmI.s 			page 24


 1312 093b 46090000 		.4byte	0x946
 1313 093f 11       		.uleb128 0x11
 1314 0940 2A040000 		.4byte	0x42a
 1315 0944 2B       		.byte	0x2b
 1316 0945 00       		.byte	0
 1317 0946 04       		.uleb128 0x4
 1318 0947 7B070000 		.4byte	.LASF130
 1319 094b 0E       		.byte	0xe
 1320 094c 34       		.byte	0x34
 1321 094d F4080000 		.4byte	0x8f4
 1322 0951 0B       		.uleb128 0xb
 1323 0952 04       		.byte	0x4
 1324 0953 46090000 		.4byte	0x946
 1325 0957 03       		.uleb128 0x3
 1326 0958 01       		.byte	0x1
 1327 0959 02       		.byte	0x2
 1328 095a 1E050000 		.4byte	.LASF131
 1329 095e 1A       		.uleb128 0x1a
 1330 095f 9F060000 		.4byte	.LASF149
 1331 0963 02       		.byte	0x2
 1332 0964 2002     		.2byte	0x220
 1333 0966 03       		.byte	0x3
 1334 0967 78090000 		.4byte	0x978
 1335 096b 1B       		.uleb128 0x1b
 1336 096c CA010000 		.4byte	.LASF150
 1337 0970 02       		.byte	0x2
 1338 0971 2002     		.2byte	0x220
 1339 0973 AD000000 		.4byte	0xad
 1340 0977 00       		.byte	0
 1341 0978 1C       		.uleb128 0x1c
 1342 0979 47000000 		.4byte	.LASF132
 1343 097d 0B       		.byte	0xb
 1344 097e BB01     		.2byte	0x1bb
 1345 0980 03       		.byte	0x3
 1346 0981 1C       		.uleb128 0x1c
 1347 0982 23010000 		.4byte	.LASF133
 1348 0986 0B       		.byte	0xb
 1349 0987 C901     		.2byte	0x1c9
 1350 0989 03       		.byte	0x3
 1351 098a 1C       		.uleb128 0x1c
 1352 098b F2060000 		.4byte	.LASF134
 1353 098f 0B       		.byte	0xb
 1354 0990 D801     		.2byte	0x1d8
 1355 0992 03       		.byte	0x3
 1356 0993 1C       		.uleb128 0x1c
 1357 0994 44060000 		.4byte	.LASF135
 1358 0998 0B       		.byte	0xb
 1359 0999 E301     		.2byte	0x1e3
 1360 099b 03       		.byte	0x3
 1361 099c 1C       		.uleb128 0x1c
 1362 099d 48070000 		.4byte	.LASF136
 1363 09a1 0F       		.byte	0xf
 1364 09a2 5001     		.2byte	0x150
 1365 09a4 03       		.byte	0x3
 1366 09a5 1C       		.uleb128 0x1c
 1367 09a6 F5040000 		.4byte	.LASF137
 1368 09aa 0F       		.byte	0xf
ARM GAS  C:\Users\jo\AppData\Local\Temp\ccQziWmI.s 			page 25


 1369 09ab 6401     		.2byte	0x164
 1370 09ad 03       		.byte	0x3
 1371 09ae 1C       		.uleb128 0x1c
 1372 09af A9010000 		.4byte	.LASF138
 1373 09b3 03       		.byte	0x3
 1374 09b4 BD01     		.2byte	0x1bd
 1375 09b6 03       		.byte	0x3
 1376 09b7 1C       		.uleb128 0x1c
 1377 09b8 CA020000 		.4byte	.LASF139
 1378 09bc 03       		.byte	0x3
 1379 09bd 0302     		.2byte	0x203
 1380 09bf 03       		.byte	0x3
 1381 09c0 1C       		.uleb128 0x1c
 1382 09c1 92000000 		.4byte	.LASF140
 1383 09c5 03       		.byte	0x3
 1384 09c6 C801     		.2byte	0x1c8
 1385 09c8 03       		.byte	0x3
 1386 09c9 1D       		.uleb128 0x1d
 1387 09ca 1A010000 		.4byte	.LASF141
 1388 09ce 01       		.byte	0x1
 1389 09cf 99       		.byte	0x99
 1390 09d0 00000000 		.4byte	.LFB255
 1391 09d4 20000000 		.4byte	.LFE255-.LFB255
 1392 09d8 01       		.uleb128 0x1
 1393 09d9 9C       		.byte	0x9c
 1394 09da C10A0000 		.4byte	0xac1
 1395 09de 1E       		.uleb128 0x1e
 1396 09df AE090000 		.4byte	0x9ae
 1397 09e3 0A000000 		.4byte	.LBB52
 1398 09e7 06000000 		.4byte	.LBE52-.LBB52
 1399 09eb 01       		.byte	0x1
 1400 09ec 9F       		.byte	0x9f
 1401 09ed 3C0A0000 		.4byte	0xa3c
 1402 09f1 1F       		.uleb128 0x1f
 1403 09f2 9C090000 		.4byte	0x99c
 1404 09f6 0A000000 		.4byte	.LBB53
 1405 09fa 06000000 		.4byte	.LBE53-.LBB53
 1406 09fe 03       		.byte	0x3
 1407 09ff BF01     		.2byte	0x1bf
 1408 0a01 1F       		.uleb128 0x1f
 1409 0a02 8A090000 		.4byte	0x98a
 1410 0a06 0A000000 		.4byte	.LBB54
 1411 0a0a 06000000 		.4byte	.LBE54-.LBB54
 1412 0a0e 0F       		.byte	0xf
 1413 0a0f 5201     		.2byte	0x152
 1414 0a11 1F       		.uleb128 0x1f
 1415 0a12 78090000 		.4byte	0x978
 1416 0a16 0A000000 		.4byte	.LBB55
 1417 0a1a 06000000 		.4byte	.LBE55-.LBB55
 1418 0a1e 0B       		.byte	0xb
 1419 0a1f DA01     		.2byte	0x1da
 1420 0a21 1F       		.uleb128 0x1f
 1421 0a22 5E090000 		.4byte	0x95e
 1422 0a26 0A000000 		.4byte	.LBB56
 1423 0a2a 06000000 		.4byte	.LBE56-.LBB56
 1424 0a2e 0B       		.byte	0xb
 1425 0a2f BE01     		.2byte	0x1be
ARM GAS  C:\Users\jo\AppData\Local\Temp\ccQziWmI.s 			page 26


 1426 0a31 20       		.uleb128 0x20
 1427 0a32 6B090000 		.4byte	0x96b
 1428 0a36 20       		.byte	0x20
 1429 0a37 00       		.byte	0
 1430 0a38 00       		.byte	0
 1431 0a39 00       		.byte	0
 1432 0a3a 00       		.byte	0
 1433 0a3b 00       		.byte	0
 1434 0a3c 1E       		.uleb128 0x1e
 1435 0a3d B7090000 		.4byte	0x9b7
 1436 0a41 10000000 		.4byte	.LBB58
 1437 0a45 04000000 		.4byte	.LBE58-.LBB58
 1438 0a49 01       		.byte	0x1
 1439 0a4a A0       		.byte	0xa0
 1440 0a4b 590A0000 		.4byte	0xa59
 1441 0a4f 21       		.uleb128 0x21
 1442 0a50 14000000 		.4byte	.LVL1
 1443 0a54 020B0000 		.4byte	0xb02
 1444 0a58 00       		.byte	0
 1445 0a59 1E       		.uleb128 0x1e
 1446 0a5a C0090000 		.4byte	0x9c0
 1447 0a5e 14000000 		.4byte	.LBB60
 1448 0a62 04000000 		.4byte	.LBE60-.LBB60
 1449 0a66 01       		.byte	0x1
 1450 0a67 A1       		.byte	0xa1
 1451 0a68 B70A0000 		.4byte	0xab7
 1452 0a6c 1F       		.uleb128 0x1f
 1453 0a6d A5090000 		.4byte	0x9a5
 1454 0a71 14000000 		.4byte	.LBB61
 1455 0a75 04000000 		.4byte	.LBE61-.LBB61
 1456 0a79 03       		.byte	0x3
 1457 0a7a CA01     		.2byte	0x1ca
 1458 0a7c 1F       		.uleb128 0x1f
 1459 0a7d 93090000 		.4byte	0x993
 1460 0a81 14000000 		.4byte	.LBB62
 1461 0a85 04000000 		.4byte	.LBE62-.LBB62
 1462 0a89 0F       		.byte	0xf
 1463 0a8a 6801     		.2byte	0x168
 1464 0a8c 1F       		.uleb128 0x1f
 1465 0a8d 81090000 		.4byte	0x981
 1466 0a91 14000000 		.4byte	.LBB63
 1467 0a95 04000000 		.4byte	.LBE63-.LBB63
 1468 0a99 0B       		.byte	0xb
 1469 0a9a E501     		.2byte	0x1e5
 1470 0a9c 1F       		.uleb128 0x1f
 1471 0a9d 5E090000 		.4byte	0x95e
 1472 0aa1 14000000 		.4byte	.LBB64
 1473 0aa5 04000000 		.4byte	.LBE64-.LBB64
 1474 0aa9 0B       		.byte	0xb
 1475 0aaa CC01     		.2byte	0x1cc
 1476 0aac 20       		.uleb128 0x20
 1477 0aad 6B090000 		.4byte	0x96b
 1478 0ab1 00       		.byte	0
 1479 0ab2 00       		.byte	0
 1480 0ab3 00       		.byte	0
 1481 0ab4 00       		.byte	0
 1482 0ab5 00       		.byte	0
ARM GAS  C:\Users\jo\AppData\Local\Temp\ccQziWmI.s 			page 27


 1483 0ab6 00       		.byte	0
 1484 0ab7 22       		.uleb128 0x22
 1485 0ab8 20000000 		.4byte	.LVL2
 1486 0abc 090B0000 		.4byte	0xb09
 1487 0ac0 00       		.byte	0
 1488 0ac1 1D       		.uleb128 0x1d
 1489 0ac2 A7000000 		.4byte	.LASF142
 1490 0ac6 01       		.byte	0x1
 1491 0ac7 B0       		.byte	0xb0
 1492 0ac8 00000000 		.4byte	.LFB256
 1493 0acc 3C000000 		.4byte	.LFE256-.LFB256
 1494 0ad0 01       		.uleb128 0x1
 1495 0ad1 9C       		.byte	0x9c
 1496 0ad2 EB0A0000 		.4byte	0xaeb
 1497 0ad6 23       		.uleb128 0x23
 1498 0ad7 36000000 		.4byte	.LVL3
 1499 0adb 110B0000 		.4byte	0xb11
 1500 0adf 24       		.uleb128 0x24
 1501 0ae0 01       		.uleb128 0x1
 1502 0ae1 51       		.byte	0x51
 1503 0ae2 01       		.uleb128 0x1
 1504 0ae3 38       		.byte	0x38
 1505 0ae4 24       		.uleb128 0x24
 1506 0ae5 01       		.uleb128 0x1
 1507 0ae6 50       		.byte	0x50
 1508 0ae7 01       		.uleb128 0x1
 1509 0ae8 4C       		.byte	0x4c
 1510 0ae9 00       		.byte	0
 1511 0aea 00       		.byte	0
 1512 0aeb 25       		.uleb128 0x25
 1513 0aec 3A050000 		.4byte	.LASF143
 1514 0af0 10       		.byte	0x10
 1515 0af1 A706     		.2byte	0x6a7
 1516 0af3 C3000000 		.4byte	0xc3
 1517 0af7 26       		.uleb128 0x26
 1518 0af8 636800   		.ascii	"ch\000"
 1519 0afb 08       		.byte	0x8
 1520 0afc EB01     		.2byte	0x1eb
 1521 0afe C3030000 		.4byte	0x3c3
 1522 0b02 27       		.uleb128 0x27
 1523 0b03 78060000 		.4byte	.LASF144
 1524 0b07 0F       		.byte	0xf
 1525 0b08 E7       		.byte	0xe7
 1526 0b09 28       		.uleb128 0x28
 1527 0b0a 77020000 		.4byte	.LASF145
 1528 0b0e 0B       		.byte	0xb
 1529 0b0f 6501     		.2byte	0x165
 1530 0b11 29       		.uleb128 0x29
 1531 0b12 DA000000 		.4byte	.LASF151
 1532 0b16 11       		.byte	0x11
 1533 0b17 4E       		.byte	0x4e
 1534 0b18 0D       		.uleb128 0xd
 1535 0b19 AD000000 		.4byte	0xad
 1536 0b1d 0D       		.uleb128 0xd
 1537 0b1e AD000000 		.4byte	0xad
 1538 0b22 00       		.byte	0
 1539 0b23 00       		.byte	0
ARM GAS  C:\Users\jo\AppData\Local\Temp\ccQziWmI.s 			page 28


 1540              		.section	.debug_abbrev,"",%progbits
 1541              	.Ldebug_abbrev0:
 1542 0000 01       		.uleb128 0x1
 1543 0001 11       		.uleb128 0x11
 1544 0002 01       		.byte	0x1
 1545 0003 25       		.uleb128 0x25
 1546 0004 0E       		.uleb128 0xe
 1547 0005 13       		.uleb128 0x13
 1548 0006 0B       		.uleb128 0xb
 1549 0007 03       		.uleb128 0x3
 1550 0008 0E       		.uleb128 0xe
 1551 0009 1B       		.uleb128 0x1b
 1552 000a 0E       		.uleb128 0xe
 1553 000b 55       		.uleb128 0x55
 1554 000c 17       		.uleb128 0x17
 1555 000d 11       		.uleb128 0x11
 1556 000e 01       		.uleb128 0x1
 1557 000f 10       		.uleb128 0x10
 1558 0010 17       		.uleb128 0x17
 1559 0011 00       		.byte	0
 1560 0012 00       		.byte	0
 1561 0013 02       		.uleb128 0x2
 1562 0014 24       		.uleb128 0x24
 1563 0015 00       		.byte	0
 1564 0016 0B       		.uleb128 0xb
 1565 0017 0B       		.uleb128 0xb
 1566 0018 3E       		.uleb128 0x3e
 1567 0019 0B       		.uleb128 0xb
 1568 001a 03       		.uleb128 0x3
 1569 001b 08       		.uleb128 0x8
 1570 001c 00       		.byte	0
 1571 001d 00       		.byte	0
 1572 001e 03       		.uleb128 0x3
 1573 001f 24       		.uleb128 0x24
 1574 0020 00       		.byte	0
 1575 0021 0B       		.uleb128 0xb
 1576 0022 0B       		.uleb128 0xb
 1577 0023 3E       		.uleb128 0x3e
 1578 0024 0B       		.uleb128 0xb
 1579 0025 03       		.uleb128 0x3
 1580 0026 0E       		.uleb128 0xe
 1581 0027 00       		.byte	0
 1582 0028 00       		.byte	0
 1583 0029 04       		.uleb128 0x4
 1584 002a 16       		.uleb128 0x16
 1585 002b 00       		.byte	0
 1586 002c 03       		.uleb128 0x3
 1587 002d 0E       		.uleb128 0xe
 1588 002e 3A       		.uleb128 0x3a
 1589 002f 0B       		.uleb128 0xb
 1590 0030 3B       		.uleb128 0x3b
 1591 0031 0B       		.uleb128 0xb
 1592 0032 49       		.uleb128 0x49
 1593 0033 13       		.uleb128 0x13
 1594 0034 00       		.byte	0
 1595 0035 00       		.byte	0
 1596 0036 05       		.uleb128 0x5
ARM GAS  C:\Users\jo\AppData\Local\Temp\ccQziWmI.s 			page 29


 1597 0037 35       		.uleb128 0x35
 1598 0038 00       		.byte	0
 1599 0039 49       		.uleb128 0x49
 1600 003a 13       		.uleb128 0x13
 1601 003b 00       		.byte	0
 1602 003c 00       		.byte	0
 1603 003d 06       		.uleb128 0x6
 1604 003e 13       		.uleb128 0x13
 1605 003f 01       		.byte	0x1
 1606 0040 03       		.uleb128 0x3
 1607 0041 0E       		.uleb128 0xe
 1608 0042 0B       		.uleb128 0xb
 1609 0043 0B       		.uleb128 0xb
 1610 0044 3A       		.uleb128 0x3a
 1611 0045 0B       		.uleb128 0xb
 1612 0046 3B       		.uleb128 0x3b
 1613 0047 0B       		.uleb128 0xb
 1614 0048 01       		.uleb128 0x1
 1615 0049 13       		.uleb128 0x13
 1616 004a 00       		.byte	0
 1617 004b 00       		.byte	0
 1618 004c 07       		.uleb128 0x7
 1619 004d 0D       		.uleb128 0xd
 1620 004e 00       		.byte	0
 1621 004f 03       		.uleb128 0x3
 1622 0050 0E       		.uleb128 0xe
 1623 0051 3A       		.uleb128 0x3a
 1624 0052 0B       		.uleb128 0xb
 1625 0053 3B       		.uleb128 0x3b
 1626 0054 0B       		.uleb128 0xb
 1627 0055 49       		.uleb128 0x49
 1628 0056 13       		.uleb128 0x13
 1629 0057 38       		.uleb128 0x38
 1630 0058 0B       		.uleb128 0xb
 1631 0059 00       		.byte	0
 1632 005a 00       		.byte	0
 1633 005b 08       		.uleb128 0x8
 1634 005c 0D       		.uleb128 0xd
 1635 005d 00       		.byte	0
 1636 005e 03       		.uleb128 0x3
 1637 005f 08       		.uleb128 0x8
 1638 0060 3A       		.uleb128 0x3a
 1639 0061 0B       		.uleb128 0xb
 1640 0062 3B       		.uleb128 0x3b
 1641 0063 05       		.uleb128 0x5
 1642 0064 49       		.uleb128 0x49
 1643 0065 13       		.uleb128 0x13
 1644 0066 38       		.uleb128 0x38
 1645 0067 0B       		.uleb128 0xb
 1646 0068 00       		.byte	0
 1647 0069 00       		.byte	0
 1648 006a 09       		.uleb128 0x9
 1649 006b 0D       		.uleb128 0xd
 1650 006c 00       		.byte	0
 1651 006d 03       		.uleb128 0x3
 1652 006e 0E       		.uleb128 0xe
 1653 006f 3A       		.uleb128 0x3a
ARM GAS  C:\Users\jo\AppData\Local\Temp\ccQziWmI.s 			page 30


 1654 0070 0B       		.uleb128 0xb
 1655 0071 3B       		.uleb128 0x3b
 1656 0072 05       		.uleb128 0x5
 1657 0073 49       		.uleb128 0x49
 1658 0074 13       		.uleb128 0x13
 1659 0075 38       		.uleb128 0x38
 1660 0076 0B       		.uleb128 0xb
 1661 0077 00       		.byte	0
 1662 0078 00       		.byte	0
 1663 0079 0A       		.uleb128 0xa
 1664 007a 13       		.uleb128 0x13
 1665 007b 01       		.byte	0x1
 1666 007c 03       		.uleb128 0x3
 1667 007d 0E       		.uleb128 0xe
 1668 007e 0B       		.uleb128 0xb
 1669 007f 0B       		.uleb128 0xb
 1670 0080 3A       		.uleb128 0x3a
 1671 0081 0B       		.uleb128 0xb
 1672 0082 3B       		.uleb128 0x3b
 1673 0083 05       		.uleb128 0x5
 1674 0084 01       		.uleb128 0x1
 1675 0085 13       		.uleb128 0x13
 1676 0086 00       		.byte	0
 1677 0087 00       		.byte	0
 1678 0088 0B       		.uleb128 0xb
 1679 0089 0F       		.uleb128 0xf
 1680 008a 00       		.byte	0
 1681 008b 0B       		.uleb128 0xb
 1682 008c 0B       		.uleb128 0xb
 1683 008d 49       		.uleb128 0x49
 1684 008e 13       		.uleb128 0x13
 1685 008f 00       		.byte	0
 1686 0090 00       		.byte	0
 1687 0091 0C       		.uleb128 0xc
 1688 0092 15       		.uleb128 0x15
 1689 0093 01       		.byte	0x1
 1690 0094 27       		.uleb128 0x27
 1691 0095 19       		.uleb128 0x19
 1692 0096 01       		.uleb128 0x1
 1693 0097 13       		.uleb128 0x13
 1694 0098 00       		.byte	0
 1695 0099 00       		.byte	0
 1696 009a 0D       		.uleb128 0xd
 1697 009b 05       		.uleb128 0x5
 1698 009c 00       		.byte	0
 1699 009d 49       		.uleb128 0x49
 1700 009e 13       		.uleb128 0x13
 1701 009f 00       		.byte	0
 1702 00a0 00       		.byte	0
 1703 00a1 0E       		.uleb128 0xe
 1704 00a2 0F       		.uleb128 0xf
 1705 00a3 00       		.byte	0
 1706 00a4 0B       		.uleb128 0xb
 1707 00a5 0B       		.uleb128 0xb
 1708 00a6 00       		.byte	0
 1709 00a7 00       		.byte	0
 1710 00a8 0F       		.uleb128 0xf
ARM GAS  C:\Users\jo\AppData\Local\Temp\ccQziWmI.s 			page 31


 1711 00a9 13       		.uleb128 0x13
 1712 00aa 01       		.byte	0x1
 1713 00ab 03       		.uleb128 0x3
 1714 00ac 0E       		.uleb128 0xe
 1715 00ad 0B       		.uleb128 0xb
 1716 00ae 05       		.uleb128 0x5
 1717 00af 3A       		.uleb128 0x3a
 1718 00b0 0B       		.uleb128 0xb
 1719 00b1 3B       		.uleb128 0x3b
 1720 00b2 05       		.uleb128 0x5
 1721 00b3 01       		.uleb128 0x1
 1722 00b4 13       		.uleb128 0x13
 1723 00b5 00       		.byte	0
 1724 00b6 00       		.byte	0
 1725 00b7 10       		.uleb128 0x10
 1726 00b8 01       		.uleb128 0x1
 1727 00b9 01       		.byte	0x1
 1728 00ba 49       		.uleb128 0x49
 1729 00bb 13       		.uleb128 0x13
 1730 00bc 01       		.uleb128 0x1
 1731 00bd 13       		.uleb128 0x13
 1732 00be 00       		.byte	0
 1733 00bf 00       		.byte	0
 1734 00c0 11       		.uleb128 0x11
 1735 00c1 21       		.uleb128 0x21
 1736 00c2 00       		.byte	0
 1737 00c3 49       		.uleb128 0x49
 1738 00c4 13       		.uleb128 0x13
 1739 00c5 2F       		.uleb128 0x2f
 1740 00c6 0B       		.uleb128 0xb
 1741 00c7 00       		.byte	0
 1742 00c8 00       		.byte	0
 1743 00c9 12       		.uleb128 0x12
 1744 00ca 13       		.uleb128 0x13
 1745 00cb 01       		.byte	0x1
 1746 00cc 0B       		.uleb128 0xb
 1747 00cd 0B       		.uleb128 0xb
 1748 00ce 3A       		.uleb128 0x3a
 1749 00cf 0B       		.uleb128 0xb
 1750 00d0 3B       		.uleb128 0x3b
 1751 00d1 05       		.uleb128 0x5
 1752 00d2 01       		.uleb128 0x1
 1753 00d3 13       		.uleb128 0x13
 1754 00d4 00       		.byte	0
 1755 00d5 00       		.byte	0
 1756 00d6 13       		.uleb128 0x13
 1757 00d7 16       		.uleb128 0x16
 1758 00d8 00       		.byte	0
 1759 00d9 03       		.uleb128 0x3
 1760 00da 0E       		.uleb128 0xe
 1761 00db 3A       		.uleb128 0x3a
 1762 00dc 0B       		.uleb128 0xb
 1763 00dd 3B       		.uleb128 0x3b
 1764 00de 05       		.uleb128 0x5
 1765 00df 49       		.uleb128 0x49
 1766 00e0 13       		.uleb128 0x13
 1767 00e1 00       		.byte	0
ARM GAS  C:\Users\jo\AppData\Local\Temp\ccQziWmI.s 			page 32


 1768 00e2 00       		.byte	0
 1769 00e3 14       		.uleb128 0x14
 1770 00e4 0D       		.uleb128 0xd
 1771 00e5 00       		.byte	0
 1772 00e6 03       		.uleb128 0x3
 1773 00e7 08       		.uleb128 0x8
 1774 00e8 3A       		.uleb128 0x3a
 1775 00e9 0B       		.uleb128 0xb
 1776 00ea 3B       		.uleb128 0x3b
 1777 00eb 0B       		.uleb128 0xb
 1778 00ec 49       		.uleb128 0x49
 1779 00ed 13       		.uleb128 0x13
 1780 00ee 38       		.uleb128 0x38
 1781 00ef 0B       		.uleb128 0xb
 1782 00f0 00       		.byte	0
 1783 00f1 00       		.byte	0
 1784 00f2 15       		.uleb128 0x15
 1785 00f3 26       		.uleb128 0x26
 1786 00f4 00       		.byte	0
 1787 00f5 49       		.uleb128 0x49
 1788 00f6 13       		.uleb128 0x13
 1789 00f7 00       		.byte	0
 1790 00f8 00       		.byte	0
 1791 00f9 16       		.uleb128 0x16
 1792 00fa 13       		.uleb128 0x13
 1793 00fb 01       		.byte	0x1
 1794 00fc 0B       		.uleb128 0xb
 1795 00fd 0B       		.uleb128 0xb
 1796 00fe 3A       		.uleb128 0x3a
 1797 00ff 0B       		.uleb128 0xb
 1798 0100 3B       		.uleb128 0x3b
 1799 0101 0B       		.uleb128 0xb
 1800 0102 01       		.uleb128 0x1
 1801 0103 13       		.uleb128 0x13
 1802 0104 00       		.byte	0
 1803 0105 00       		.byte	0
 1804 0106 17       		.uleb128 0x17
 1805 0107 17       		.uleb128 0x17
 1806 0108 01       		.byte	0x1
 1807 0109 0B       		.uleb128 0xb
 1808 010a 0B       		.uleb128 0xb
 1809 010b 3A       		.uleb128 0x3a
 1810 010c 0B       		.uleb128 0xb
 1811 010d 3B       		.uleb128 0x3b
 1812 010e 0B       		.uleb128 0xb
 1813 010f 01       		.uleb128 0x1
 1814 0110 13       		.uleb128 0x13
 1815 0111 00       		.byte	0
 1816 0112 00       		.byte	0
 1817 0113 18       		.uleb128 0x18
 1818 0114 0D       		.uleb128 0xd
 1819 0115 00       		.byte	0
 1820 0116 03       		.uleb128 0x3
 1821 0117 0E       		.uleb128 0xe
 1822 0118 3A       		.uleb128 0x3a
 1823 0119 0B       		.uleb128 0xb
 1824 011a 3B       		.uleb128 0x3b
ARM GAS  C:\Users\jo\AppData\Local\Temp\ccQziWmI.s 			page 33


 1825 011b 0B       		.uleb128 0xb
 1826 011c 49       		.uleb128 0x49
 1827 011d 13       		.uleb128 0x13
 1828 011e 00       		.byte	0
 1829 011f 00       		.byte	0
 1830 0120 19       		.uleb128 0x19
 1831 0121 0D       		.uleb128 0xd
 1832 0122 00       		.byte	0
 1833 0123 03       		.uleb128 0x3
 1834 0124 0E       		.uleb128 0xe
 1835 0125 3A       		.uleb128 0x3a
 1836 0126 0B       		.uleb128 0xb
 1837 0127 3B       		.uleb128 0x3b
 1838 0128 05       		.uleb128 0x5
 1839 0129 49       		.uleb128 0x49
 1840 012a 13       		.uleb128 0x13
 1841 012b 00       		.byte	0
 1842 012c 00       		.byte	0
 1843 012d 1A       		.uleb128 0x1a
 1844 012e 2E       		.uleb128 0x2e
 1845 012f 01       		.byte	0x1
 1846 0130 03       		.uleb128 0x3
 1847 0131 0E       		.uleb128 0xe
 1848 0132 3A       		.uleb128 0x3a
 1849 0133 0B       		.uleb128 0xb
 1850 0134 3B       		.uleb128 0x3b
 1851 0135 05       		.uleb128 0x5
 1852 0136 27       		.uleb128 0x27
 1853 0137 19       		.uleb128 0x19
 1854 0138 20       		.uleb128 0x20
 1855 0139 0B       		.uleb128 0xb
 1856 013a 01       		.uleb128 0x1
 1857 013b 13       		.uleb128 0x13
 1858 013c 00       		.byte	0
 1859 013d 00       		.byte	0
 1860 013e 1B       		.uleb128 0x1b
 1861 013f 05       		.uleb128 0x5
 1862 0140 00       		.byte	0
 1863 0141 03       		.uleb128 0x3
 1864 0142 0E       		.uleb128 0xe
 1865 0143 3A       		.uleb128 0x3a
 1866 0144 0B       		.uleb128 0xb
 1867 0145 3B       		.uleb128 0x3b
 1868 0146 05       		.uleb128 0x5
 1869 0147 49       		.uleb128 0x49
 1870 0148 13       		.uleb128 0x13
 1871 0149 00       		.byte	0
 1872 014a 00       		.byte	0
 1873 014b 1C       		.uleb128 0x1c
 1874 014c 2E       		.uleb128 0x2e
 1875 014d 00       		.byte	0
 1876 014e 03       		.uleb128 0x3
 1877 014f 0E       		.uleb128 0xe
 1878 0150 3A       		.uleb128 0x3a
 1879 0151 0B       		.uleb128 0xb
 1880 0152 3B       		.uleb128 0x3b
 1881 0153 05       		.uleb128 0x5
ARM GAS  C:\Users\jo\AppData\Local\Temp\ccQziWmI.s 			page 34


 1882 0154 27       		.uleb128 0x27
 1883 0155 19       		.uleb128 0x19
 1884 0156 20       		.uleb128 0x20
 1885 0157 0B       		.uleb128 0xb
 1886 0158 00       		.byte	0
 1887 0159 00       		.byte	0
 1888 015a 1D       		.uleb128 0x1d
 1889 015b 2E       		.uleb128 0x2e
 1890 015c 01       		.byte	0x1
 1891 015d 3F       		.uleb128 0x3f
 1892 015e 19       		.uleb128 0x19
 1893 015f 03       		.uleb128 0x3
 1894 0160 0E       		.uleb128 0xe
 1895 0161 3A       		.uleb128 0x3a
 1896 0162 0B       		.uleb128 0xb
 1897 0163 3B       		.uleb128 0x3b
 1898 0164 0B       		.uleb128 0xb
 1899 0165 27       		.uleb128 0x27
 1900 0166 19       		.uleb128 0x19
 1901 0167 11       		.uleb128 0x11
 1902 0168 01       		.uleb128 0x1
 1903 0169 12       		.uleb128 0x12
 1904 016a 06       		.uleb128 0x6
 1905 016b 40       		.uleb128 0x40
 1906 016c 18       		.uleb128 0x18
 1907 016d 9742     		.uleb128 0x2117
 1908 016f 19       		.uleb128 0x19
 1909 0170 01       		.uleb128 0x1
 1910 0171 13       		.uleb128 0x13
 1911 0172 00       		.byte	0
 1912 0173 00       		.byte	0
 1913 0174 1E       		.uleb128 0x1e
 1914 0175 1D       		.uleb128 0x1d
 1915 0176 01       		.byte	0x1
 1916 0177 31       		.uleb128 0x31
 1917 0178 13       		.uleb128 0x13
 1918 0179 11       		.uleb128 0x11
 1919 017a 01       		.uleb128 0x1
 1920 017b 12       		.uleb128 0x12
 1921 017c 06       		.uleb128 0x6
 1922 017d 58       		.uleb128 0x58
 1923 017e 0B       		.uleb128 0xb
 1924 017f 59       		.uleb128 0x59
 1925 0180 0B       		.uleb128 0xb
 1926 0181 01       		.uleb128 0x1
 1927 0182 13       		.uleb128 0x13
 1928 0183 00       		.byte	0
 1929 0184 00       		.byte	0
 1930 0185 1F       		.uleb128 0x1f
 1931 0186 1D       		.uleb128 0x1d
 1932 0187 01       		.byte	0x1
 1933 0188 31       		.uleb128 0x31
 1934 0189 13       		.uleb128 0x13
 1935 018a 11       		.uleb128 0x11
 1936 018b 01       		.uleb128 0x1
 1937 018c 12       		.uleb128 0x12
 1938 018d 06       		.uleb128 0x6
ARM GAS  C:\Users\jo\AppData\Local\Temp\ccQziWmI.s 			page 35


 1939 018e 58       		.uleb128 0x58
 1940 018f 0B       		.uleb128 0xb
 1941 0190 59       		.uleb128 0x59
 1942 0191 05       		.uleb128 0x5
 1943 0192 00       		.byte	0
 1944 0193 00       		.byte	0
 1945 0194 20       		.uleb128 0x20
 1946 0195 05       		.uleb128 0x5
 1947 0196 00       		.byte	0
 1948 0197 31       		.uleb128 0x31
 1949 0198 13       		.uleb128 0x13
 1950 0199 1C       		.uleb128 0x1c
 1951 019a 0B       		.uleb128 0xb
 1952 019b 00       		.byte	0
 1953 019c 00       		.byte	0
 1954 019d 21       		.uleb128 0x21
 1955 019e 898201   		.uleb128 0x4109
 1956 01a1 00       		.byte	0
 1957 01a2 11       		.uleb128 0x11
 1958 01a3 01       		.uleb128 0x1
 1959 01a4 31       		.uleb128 0x31
 1960 01a5 13       		.uleb128 0x13
 1961 01a6 00       		.byte	0
 1962 01a7 00       		.byte	0
 1963 01a8 22       		.uleb128 0x22
 1964 01a9 898201   		.uleb128 0x4109
 1965 01ac 00       		.byte	0
 1966 01ad 11       		.uleb128 0x11
 1967 01ae 01       		.uleb128 0x1
 1968 01af 9542     		.uleb128 0x2115
 1969 01b1 19       		.uleb128 0x19
 1970 01b2 31       		.uleb128 0x31
 1971 01b3 13       		.uleb128 0x13
 1972 01b4 00       		.byte	0
 1973 01b5 00       		.byte	0
 1974 01b6 23       		.uleb128 0x23
 1975 01b7 898201   		.uleb128 0x4109
 1976 01ba 01       		.byte	0x1
 1977 01bb 11       		.uleb128 0x11
 1978 01bc 01       		.uleb128 0x1
 1979 01bd 9542     		.uleb128 0x2115
 1980 01bf 19       		.uleb128 0x19
 1981 01c0 31       		.uleb128 0x31
 1982 01c1 13       		.uleb128 0x13
 1983 01c2 00       		.byte	0
 1984 01c3 00       		.byte	0
 1985 01c4 24       		.uleb128 0x24
 1986 01c5 8A8201   		.uleb128 0x410a
 1987 01c8 00       		.byte	0
 1988 01c9 02       		.uleb128 0x2
 1989 01ca 18       		.uleb128 0x18
 1990 01cb 9142     		.uleb128 0x2111
 1991 01cd 18       		.uleb128 0x18
 1992 01ce 00       		.byte	0
 1993 01cf 00       		.byte	0
 1994 01d0 25       		.uleb128 0x25
 1995 01d1 34       		.uleb128 0x34
ARM GAS  C:\Users\jo\AppData\Local\Temp\ccQziWmI.s 			page 36


 1996 01d2 00       		.byte	0
 1997 01d3 03       		.uleb128 0x3
 1998 01d4 0E       		.uleb128 0xe
 1999 01d5 3A       		.uleb128 0x3a
 2000 01d6 0B       		.uleb128 0xb
 2001 01d7 3B       		.uleb128 0x3b
 2002 01d8 05       		.uleb128 0x5
 2003 01d9 49       		.uleb128 0x49
 2004 01da 13       		.uleb128 0x13
 2005 01db 3F       		.uleb128 0x3f
 2006 01dc 19       		.uleb128 0x19
 2007 01dd 3C       		.uleb128 0x3c
 2008 01de 19       		.uleb128 0x19
 2009 01df 00       		.byte	0
 2010 01e0 00       		.byte	0
 2011 01e1 26       		.uleb128 0x26
 2012 01e2 34       		.uleb128 0x34
 2013 01e3 00       		.byte	0
 2014 01e4 03       		.uleb128 0x3
 2015 01e5 08       		.uleb128 0x8
 2016 01e6 3A       		.uleb128 0x3a
 2017 01e7 0B       		.uleb128 0xb
 2018 01e8 3B       		.uleb128 0x3b
 2019 01e9 05       		.uleb128 0x5
 2020 01ea 49       		.uleb128 0x49
 2021 01eb 13       		.uleb128 0x13
 2022 01ec 3F       		.uleb128 0x3f
 2023 01ed 19       		.uleb128 0x19
 2024 01ee 3C       		.uleb128 0x3c
 2025 01ef 19       		.uleb128 0x19
 2026 01f0 00       		.byte	0
 2027 01f1 00       		.byte	0
 2028 01f2 27       		.uleb128 0x27
 2029 01f3 2E       		.uleb128 0x2e
 2030 01f4 00       		.byte	0
 2031 01f5 3F       		.uleb128 0x3f
 2032 01f6 19       		.uleb128 0x19
 2033 01f7 03       		.uleb128 0x3
 2034 01f8 0E       		.uleb128 0xe
 2035 01f9 3A       		.uleb128 0x3a
 2036 01fa 0B       		.uleb128 0xb
 2037 01fb 3B       		.uleb128 0x3b
 2038 01fc 0B       		.uleb128 0xb
 2039 01fd 27       		.uleb128 0x27
 2040 01fe 19       		.uleb128 0x19
 2041 01ff 3C       		.uleb128 0x3c
 2042 0200 19       		.uleb128 0x19
 2043 0201 00       		.byte	0
 2044 0202 00       		.byte	0
 2045 0203 28       		.uleb128 0x28
 2046 0204 2E       		.uleb128 0x2e
 2047 0205 00       		.byte	0
 2048 0206 3F       		.uleb128 0x3f
 2049 0207 19       		.uleb128 0x19
 2050 0208 03       		.uleb128 0x3
 2051 0209 0E       		.uleb128 0xe
 2052 020a 3A       		.uleb128 0x3a
ARM GAS  C:\Users\jo\AppData\Local\Temp\ccQziWmI.s 			page 37


 2053 020b 0B       		.uleb128 0xb
 2054 020c 3B       		.uleb128 0x3b
 2055 020d 05       		.uleb128 0x5
 2056 020e 27       		.uleb128 0x27
 2057 020f 19       		.uleb128 0x19
 2058 0210 3C       		.uleb128 0x3c
 2059 0211 19       		.uleb128 0x19
 2060 0212 00       		.byte	0
 2061 0213 00       		.byte	0
 2062 0214 29       		.uleb128 0x29
 2063 0215 2E       		.uleb128 0x2e
 2064 0216 01       		.byte	0x1
 2065 0217 3F       		.uleb128 0x3f
 2066 0218 19       		.uleb128 0x19
 2067 0219 03       		.uleb128 0x3
 2068 021a 0E       		.uleb128 0xe
 2069 021b 3A       		.uleb128 0x3a
 2070 021c 0B       		.uleb128 0xb
 2071 021d 3B       		.uleb128 0x3b
 2072 021e 0B       		.uleb128 0xb
 2073 021f 27       		.uleb128 0x27
 2074 0220 19       		.uleb128 0x19
 2075 0221 3C       		.uleb128 0x3c
 2076 0222 19       		.uleb128 0x19
 2077 0223 00       		.byte	0
 2078 0224 00       		.byte	0
 2079 0225 00       		.byte	0
 2080              		.section	.debug_aranges,"",%progbits
 2081 0000 24000000 		.4byte	0x24
 2082 0004 0200     		.2byte	0x2
 2083 0006 00000000 		.4byte	.Ldebug_info0
 2084 000a 04       		.byte	0x4
 2085 000b 00       		.byte	0
 2086 000c 0000     		.2byte	0
 2087 000e 0000     		.2byte	0
 2088 0010 00000000 		.4byte	.LFB255
 2089 0014 20000000 		.4byte	.LFE255-.LFB255
 2090 0018 00000000 		.4byte	.LFB256
 2091 001c 3C000000 		.4byte	.LFE256-.LFB256
 2092 0020 00000000 		.4byte	0
 2093 0024 00000000 		.4byte	0
 2094              		.section	.debug_ranges,"",%progbits
 2095              	.Ldebug_ranges0:
 2096 0000 00000000 		.4byte	.LFB255
 2097 0004 20000000 		.4byte	.LFE255
 2098 0008 00000000 		.4byte	.LFB256
 2099 000c 3C000000 		.4byte	.LFE256
 2100 0010 00000000 		.4byte	0
 2101 0014 00000000 		.4byte	0
 2102              		.section	.debug_line,"",%progbits
 2103              	.Ldebug_line0:
 2104 0000 E9020000 		.section	.debug_str,"MS",%progbits,1
 2104      02008702 
 2104      00000201 
 2104      FB0E0D00 
 2104      01010101 
 2105              	.LASF48:
ARM GAS  C:\Users\jo\AppData\Local\Temp\ccQziWmI.s 			page 38


 2106 0000 72656164 		.ascii	"ready_list_t\000"
 2106      795F6C69 
 2106      73745F74 
 2106      00
 2107              	.LASF110:
 2108 000d 44494552 		.ascii	"DIER\000"
 2108      00
 2109              	.LASF122:
 2110 0012 7264796D 		.ascii	"rdymsg\000"
 2110      736700
 2111              	.LASF16:
 2112 0019 75696E74 		.ascii	"uint64_t\000"
 2112      36345F74 
 2112      00
 2113              	.LASF5:
 2114 0022 5F5F7569 		.ascii	"__uint8_t\000"
 2114      6E74385F 
 2114      7400
 2115              	.LASF108:
 2116 002c 706F7274 		.ascii	"port_intctx\000"
 2116      5F696E74 
 2116      63747800 
 2117              	.LASF67:
 2118 0038 73797374 		.ascii	"system_debug_t\000"
 2118      656D5F64 
 2118      65627567 
 2118      5F7400
 2119              	.LASF132:
 2120 0047 706F7274 		.ascii	"port_lock\000"
 2120      5F6C6F63 
 2120      6B00
 2121              	.LASF12:
 2122 0051 6C6F6E67 		.ascii	"long long unsigned int\000"
 2122      206C6F6E 
 2122      6720756E 
 2122      7369676E 
 2122      65642069 
 2123              	.LASF123:
 2124 0068 65786974 		.ascii	"exitcode\000"
 2124      636F6465 
 2124      00
 2125              	.LASF74:
 2126 0071 6D61696E 		.ascii	"mainthread\000"
 2126      74687265 
 2126      616400
 2127              	.LASF64:
 2128 007c 76697274 		.ascii	"virtual_timers_list_t\000"
 2128      75616C5F 
 2128      74696D65 
 2128      72735F6C 
 2128      6973745F 
 2129              	.LASF140:
 2130 0092 6F73616C 		.ascii	"osalSysUnlockFromISR\000"
 2130      53797355 
 2130      6E6C6F63 
 2130      6B46726F 
 2130      6D495352 
ARM GAS  C:\Users\jo\AppData\Local\Temp\ccQziWmI.s 			page 39


 2131              	.LASF142:
 2132 00a7 73745F6C 		.ascii	"st_lld_init\000"
 2132      6C645F69 
 2132      6E697400 
 2133              	.LASF114:
 2134 00b3 42445452 		.ascii	"BDTR\000"
 2134      00
 2135              	.LASF47:
 2136 00b8 63685F74 		.ascii	"ch_threads_queue\000"
 2136      68726561 
 2136      64735F71 
 2136      75657565 
 2136      00
 2137              	.LASF93:
 2138 00c9 41484231 		.ascii	"AHB1LPENR\000"
 2138      4C50454E 
 2138      5200
 2139              	.LASF28:
 2140 00d3 705F7072 		.ascii	"p_prio\000"
 2140      696F00
 2141              	.LASF151:
 2142 00da 6E766963 		.ascii	"nvicEnableVector\000"
 2142      456E6162 
 2142      6C655665 
 2142      63746F72 
 2142      00
 2143              	.LASF111:
 2144 00eb 43434D52 		.ascii	"CCMR1\000"
 2144      3100
 2145              	.LASF112:
 2146 00f1 43434D52 		.ascii	"CCMR2\000"
 2146      3200
 2147              	.LASF116:
 2148 00f7 43434D52 		.ascii	"CCMR3\000"
 2148      3300
 2149              	.LASF1:
 2150 00fd 7369676E 		.ascii	"signed char\000"
 2150      65642063 
 2150      68617200 
 2151              	.LASF79:
 2152 0109 41484231 		.ascii	"AHB1RSTR\000"
 2152      52535452 
 2152      00
 2153              	.LASF127:
 2154 0112 6D5F7175 		.ascii	"m_queue\000"
 2154      65756500 
 2155              	.LASF141:
 2156 011a 56656374 		.ascii	"VectorB0\000"
 2156      6F724230 
 2156      00
 2157              	.LASF133:
 2158 0123 706F7274 		.ascii	"port_unlock\000"
 2158      5F756E6C 
 2158      6F636B00 
 2159              	.LASF71:
 2160 012f 63685F73 		.ascii	"ch_system\000"
 2160      79737465 
ARM GAS  C:\Users\jo\AppData\Local\Temp\ccQziWmI.s 			page 40


 2160      6D00
 2161              	.LASF7:
 2162 0139 6C6F6E67 		.ascii	"long int\000"
 2162      20696E74 
 2162      00
 2163              	.LASF84:
 2164 0142 41504232 		.ascii	"APB2RSTR\000"
 2164      52535452 
 2164      00
 2165              	.LASF97:
 2166 014b 41504231 		.ascii	"APB1LPENR\000"
 2166      4C50454E 
 2166      5200
 2167              	.LASF19:
 2168 0155 74737461 		.ascii	"tstate_t\000"
 2168      74655F74 
 2168      00
 2169              	.LASF30:
 2170 015e 705F6E65 		.ascii	"p_newer\000"
 2170      77657200 
 2171              	.LASF77:
 2172 0166 504C4C43 		.ascii	"PLLCFGR\000"
 2172      46475200 
 2173              	.LASF4:
 2174 016e 73686F72 		.ascii	"short unsigned int\000"
 2174      7420756E 
 2174      7369676E 
 2174      65642069 
 2174      6E7400
 2175              	.LASF53:
 2176 0181 725F6E65 		.ascii	"r_newer\000"
 2176      77657200 
 2177              	.LASF42:
 2178 0189 705F6D70 		.ascii	"p_mpool\000"
 2178      6F6F6C00 
 2179              	.LASF105:
 2180 0191 72656761 		.ascii	"regarm_t\000"
 2180      726D5F74 
 2180      00
 2181              	.LASF60:
 2182 019a 76745F70 		.ascii	"vt_prev\000"
 2182      72657600 
 2183              	.LASF73:
 2184 01a2 76746C69 		.ascii	"vtlist\000"
 2184      737400
 2185              	.LASF138:
 2186 01a9 6F73616C 		.ascii	"osalSysLockFromISR\000"
 2186      5379734C 
 2186      6F636B46 
 2186      726F6D49 
 2186      535200
 2187              	.LASF10:
 2188 01bc 6C6F6E67 		.ascii	"long long int\000"
 2188      206C6F6E 
 2188      6720696E 
 2188      7400
 2189              	.LASF150:
ARM GAS  C:\Users\jo\AppData\Local\Temp\ccQziWmI.s 			page 41


 2190 01ca 76616C75 		.ascii	"value\000"
 2190      6500
 2191              	.LASF75:
 2192 01d0 69646C65 		.ascii	"idle_thread_wa\000"
 2192      5F746872 
 2192      6561645F 
 2192      776100
 2193              	.LASF0:
 2194 01df 756E7369 		.ascii	"unsigned int\000"
 2194      676E6564 
 2194      20696E74 
 2194      00
 2195              	.LASF59:
 2196 01ec 76745F6E 		.ascii	"vt_next\000"
 2196      65787400 
 2197              	.LASF61:
 2198 01f4 76745F64 		.ascii	"vt_delta\000"
 2198      656C7461 
 2198      00
 2199              	.LASF37:
 2200 01fd 705F6D73 		.ascii	"p_msgqueue\000"
 2200      67717565 
 2200      756500
 2201              	.LASF104:
 2202 0208 5243435F 		.ascii	"RCC_TypeDef\000"
 2202      54797065 
 2202      44656600 
 2203              	.LASF109:
 2204 0214 534D4352 		.ascii	"SMCR\000"
 2204      00
 2205              	.LASF44:
 2206 0219 63685F74 		.ascii	"ch_thread\000"
 2206      68726561 
 2206      6400
 2207              	.LASF103:
 2208 0223 504C4C49 		.ascii	"PLLI2SCFGR\000"
 2208      32534346 
 2208      475200
 2209              	.LASF22:
 2210 022e 6D73675F 		.ascii	"msg_t\000"
 2210      7400
 2211              	.LASF81:
 2212 0234 41484233 		.ascii	"AHB3RSTR\000"
 2212      52535452 
 2212      00
 2213              	.LASF41:
 2214 023d 705F7265 		.ascii	"p_realprio\000"
 2214      616C7072 
 2214      696F00
 2215              	.LASF147:
 2216 0248 2E2E2F2E 		.ascii	"../../../os/hal/ports/STM32/LLD/TIMv1/st_lld.c\000"
 2216      2E2F2E2E 
 2216      2F6F732F 
 2216      68616C2F 
 2216      706F7274 
 2217              	.LASF145:
 2218 0277 5F706F72 		.ascii	"_port_irq_epilogue\000"
ARM GAS  C:\Users\jo\AppData\Local\Temp\ccQziWmI.s 			page 42


 2218      745F6972 
 2218      715F6570 
 2218      696C6F67 
 2218      756500
 2219              	.LASF124:
 2220 028a 77746F62 		.ascii	"wtobjp\000"
 2220      6A7000
 2221              	.LASF98:
 2222 0291 41504232 		.ascii	"APB2LPENR\000"
 2222      4C50454E 
 2222      5200
 2223              	.LASF49:
 2224 029b 63685F72 		.ascii	"ch_ready_list\000"
 2224      65616479 
 2224      5F6C6973 
 2224      7400
 2225              	.LASF23:
 2226 02a9 6576656E 		.ascii	"eventmask_t\000"
 2226      746D6173 
 2226      6B5F7400 
 2227              	.LASF6:
 2228 02b5 5F5F696E 		.ascii	"__int32_t\000"
 2228      7433325F 
 2228      7400
 2229              	.LASF106:
 2230 02bf 73746B61 		.ascii	"stkalign_t\000"
 2230      6C69676E 
 2230      5F7400
 2231              	.LASF139:
 2232 02ca 6F73616C 		.ascii	"osalOsTimerHandlerI\000"
 2232      4F735469 
 2232      6D657248 
 2232      616E646C 
 2232      65724900 
 2233              	.LASF43:
 2234 02de 74687265 		.ascii	"threads_list_t\000"
 2234      6164735F 
 2234      6C697374 
 2234      5F7400
 2235              	.LASF146:
 2236 02ed 474E5520 		.ascii	"GNU C 4.9.3 20141119 (release) [ARM/embedded-4_9-br"
 2236      4320342E 
 2236      392E3320 
 2236      32303134 
 2236      31313139 
 2237 0320 616E6368 		.ascii	"anch revision 218278] -mcpu=cortex-m4 -mfloat-abi=h"
 2237      20726576 
 2237      6973696F 
 2237      6E203231 
 2237      38323738 
 2238 0353 61726420 		.ascii	"ard -mfpu=fpv4-sp-d16 -mno-thumb-interwork -mthumb "
 2238      2D6D6670 
 2238      753D6670 
 2238      76342D73 
 2238      702D6431 
 2239 0386 2D676764 		.ascii	"-ggdb -O2 -fomit-frame-pointer -falign-functions=16"
 2239      62202D4F 
ARM GAS  C:\Users\jo\AppData\Local\Temp\ccQziWmI.s 			page 43


 2239      32202D66 
 2239      6F6D6974 
 2239      2D667261 
 2240 03b9 202D6666 		.ascii	" -ffunction-sections -fdata-sections -fno-common -f"
 2240      756E6374 
 2240      696F6E2D 
 2240      73656374 
 2240      696F6E73 
 2241 03ec 73696E67 		.ascii	"single-precision-constant\000"
 2241      6C652D70 
 2241      72656369 
 2241      73696F6E 
 2241      2D636F6E 
 2242              	.LASF57:
 2243 0406 76697274 		.ascii	"virtual_timer_t\000"
 2243      75616C5F 
 2243      74696D65 
 2243      725F7400 
 2244              	.LASF36:
 2245 0416 705F7761 		.ascii	"p_waiting\000"
 2245      6974696E 
 2245      6700
 2246              	.LASF76:
 2247 0420 73697A65 		.ascii	"sizetype\000"
 2247      74797065 
 2247      00
 2248              	.LASF65:
 2249 0429 63685F76 		.ascii	"ch_virtual_timers_list\000"
 2249      69727475 
 2249      616C5F74 
 2249      696D6572 
 2249      735F6C69 
 2250              	.LASF26:
 2251 0440 705F6E65 		.ascii	"p_next\000"
 2251      787400
 2252              	.LASF88:
 2253 0447 41484233 		.ascii	"AHB3ENR\000"
 2253      454E5200 
 2254              	.LASF66:
 2255 044f 76745F6C 		.ascii	"vt_lasttime\000"
 2255      61737474 
 2255      696D6500 
 2256              	.LASF31:
 2257 045b 705F6F6C 		.ascii	"p_older\000"
 2257      64657200 
 2258              	.LASF52:
 2259 0463 725F6374 		.ascii	"r_ctx\000"
 2259      7800
 2260              	.LASF94:
 2261 0469 41484232 		.ascii	"AHB2LPENR\000"
 2261      4C50454E 
 2261      5200
 2262              	.LASF121:
 2263 0473 746D5F63 		.ascii	"tm_calibration_t\000"
 2263      616C6962 
 2263      72617469 
 2263      6F6E5F74 
ARM GAS  C:\Users\jo\AppData\Local\Temp\ccQziWmI.s 			page 44


 2263      00
 2264              	.LASF55:
 2265 0484 725F6375 		.ascii	"r_current\000"
 2265      7272656E 
 2265      7400
 2266              	.LASF83:
 2267 048e 41504231 		.ascii	"APB1RSTR\000"
 2267      52535452 
 2267      00
 2268              	.LASF11:
 2269 0497 5F5F7569 		.ascii	"__uint64_t\000"
 2269      6E743634 
 2269      5F7400
 2270              	.LASF20:
 2271 04a2 74726566 		.ascii	"trefs_t\000"
 2271      735F7400 
 2272              	.LASF82:
 2273 04aa 52455345 		.ascii	"RESERVED0\000"
 2273      52564544 
 2273      3000
 2274              	.LASF85:
 2275 04b4 52455345 		.ascii	"RESERVED1\000"
 2275      52564544 
 2275      3100
 2276              	.LASF89:
 2277 04be 52455345 		.ascii	"RESERVED2\000"
 2277      52564544 
 2277      3200
 2278              	.LASF92:
 2279 04c8 52455345 		.ascii	"RESERVED3\000"
 2279      52564544 
 2279      3300
 2280              	.LASF96:
 2281 04d2 52455345 		.ascii	"RESERVED4\000"
 2281      52564544 
 2281      3400
 2282              	.LASF27:
 2283 04dc 705F7072 		.ascii	"p_prev\000"
 2283      657600
 2284              	.LASF101:
 2285 04e3 52455345 		.ascii	"RESERVED6\000"
 2285      52564544 
 2285      3600
 2286              	.LASF21:
 2287 04ed 74707269 		.ascii	"tprio_t\000"
 2287      6F5F7400 
 2288              	.LASF137:
 2289 04f5 63685379 		.ascii	"chSysUnlockFromISR\000"
 2289      73556E6C 
 2289      6F636B46 
 2289      726F6D49 
 2289      535200
 2290              	.LASF126:
 2291 0508 6D757465 		.ascii	"mutex\000"
 2291      7800
 2292              	.LASF68:
 2293 050e 63685F73 		.ascii	"ch_system_debug\000"
ARM GAS  C:\Users\jo\AppData\Local\Temp\ccQziWmI.s 			page 45


 2293      79737465 
 2293      6D5F6465 
 2293      62756700 
 2294              	.LASF131:
 2295 051e 5F426F6F 		.ascii	"_Bool\000"
 2295      6C00
 2296              	.LASF14:
 2297 0524 696E7433 		.ascii	"int32_t\000"
 2297      325F7400 
 2298              	.LASF2:
 2299 052c 756E7369 		.ascii	"unsigned char\000"
 2299      676E6564 
 2299      20636861 
 2299      7200
 2300              	.LASF143:
 2301 053a 49544D5F 		.ascii	"ITM_RxBuffer\000"
 2301      52784275 
 2301      66666572 
 2301      00
 2302              	.LASF40:
 2303 0547 705F6D74 		.ascii	"p_mtxlist\000"
 2303      786C6973 
 2303      7400
 2304              	.LASF3:
 2305 0551 73686F72 		.ascii	"short int\000"
 2305      7420696E 
 2305      7400
 2306              	.LASF33:
 2307 055b 705F7374 		.ascii	"p_state\000"
 2307      61746500 
 2308              	.LASF95:
 2309 0563 41484233 		.ascii	"AHB3LPENR\000"
 2309      4C50454E 
 2309      5200
 2310              	.LASF51:
 2311 056d 725F7072 		.ascii	"r_prio\000"
 2311      696F00
 2312              	.LASF125:
 2313 0574 65776D61 		.ascii	"ewmask\000"
 2313      736B00
 2314              	.LASF34:
 2315 057b 705F666C 		.ascii	"p_flags\000"
 2315      61677300 
 2316              	.LASF91:
 2317 0583 41504232 		.ascii	"APB2ENR\000"
 2317      454E5200 
 2318              	.LASF58:
 2319 058b 63685F76 		.ascii	"ch_virtual_timer\000"
 2319      69727475 
 2319      616C5F74 
 2319      696D6572 
 2319      00
 2320              	.LASF117:
 2321 059c 43435852 		.ascii	"CCXR\000"
 2321      00
 2322              	.LASF39:
 2323 05a1 705F6570 		.ascii	"p_epending\000"
ARM GAS  C:\Users\jo\AppData\Local\Temp\ccQziWmI.s 			page 46


 2323      656E6469 
 2323      6E6700
 2324              	.LASF99:
 2325 05ac 52455345 		.ascii	"RESERVED5\000"
 2325      52564544 
 2325      3500
 2326              	.LASF15:
 2327 05b6 75696E74 		.ascii	"uint32_t\000"
 2327      33325F74 
 2327      00
 2328              	.LASF50:
 2329 05bf 725F7175 		.ascii	"r_queue\000"
 2329      65756500 
 2330              	.LASF45:
 2331 05c7 63685F74 		.ascii	"ch_threads_list\000"
 2331      68726561 
 2331      64735F6C 
 2331      69737400 
 2332              	.LASF9:
 2333 05d7 6C6F6E67 		.ascii	"long unsigned int\000"
 2333      20756E73 
 2333      69676E65 
 2333      6420696E 
 2333      7400
 2334              	.LASF119:
 2335 05e9 63686172 		.ascii	"char\000"
 2335      00
 2336              	.LASF148:
 2337 05ee 433A5C55 		.ascii	"C:\\Users\\jo\\Documents\\GitHub\\ChibiOS\\demos\\S"
 2337      73657273 
 2337      5C6A6F5C 
 2337      446F6375 
 2337      6D656E74 
 2338 061a 544D3332 		.ascii	"TM32\\RT-STM32F407-DISCOVERY\000"
 2338      5C52542D 
 2338      53544D33 
 2338      32463430 
 2338      372D4449 
 2339              	.LASF115:
 2340 0636 444D4152 		.ascii	"DMAR\000"
 2340      00
 2341              	.LASF80:
 2342 063b 41484232 		.ascii	"AHB2RSTR\000"
 2342      52535452 
 2342      00
 2343              	.LASF135:
 2344 0644 706F7274 		.ascii	"port_unlock_from_isr\000"
 2344      5F756E6C 
 2344      6F636B5F 
 2344      66726F6D 
 2344      5F697372 
 2345              	.LASF25:
 2346 0659 74687265 		.ascii	"thread_t\000"
 2346      61645F74 
 2346      00
 2347              	.LASF113:
 2348 0662 43434552 		.ascii	"CCER\000"
ARM GAS  C:\Users\jo\AppData\Local\Temp\ccQziWmI.s 			page 47


 2348      00
 2349              	.LASF129:
 2350 0667 6D5F6E65 		.ascii	"m_next\000"
 2350      787400
 2351              	.LASF24:
 2352 066e 73797374 		.ascii	"systime_t\000"
 2352      696D655F 
 2352      7400
 2353              	.LASF144:
 2354 0678 63685379 		.ascii	"chSysTimerHandlerI\000"
 2354      7354696D 
 2354      65724861 
 2354      6E646C65 
 2354      724900
 2355              	.LASF56:
 2356 068b 76746675 		.ascii	"vtfunc_t\000"
 2356      6E635F74 
 2356      00
 2357              	.LASF8:
 2358 0694 5F5F7569 		.ascii	"__uint32_t\000"
 2358      6E743332 
 2358      5F7400
 2359              	.LASF149:
 2360 069f 5F5F7365 		.ascii	"__set_BASEPRI\000"
 2360      745F4241 
 2360      53455052 
 2360      4900
 2361              	.LASF69:
 2362 06ad 70616E69 		.ascii	"panic_msg\000"
 2362      635F6D73 
 2362      6700
 2363              	.LASF120:
 2364 06b7 6F666673 		.ascii	"offset\000"
 2364      657400
 2365              	.LASF90:
 2366 06be 41504231 		.ascii	"APB1ENR\000"
 2366      454E5200 
 2367              	.LASF87:
 2368 06c6 41484232 		.ascii	"AHB2ENR\000"
 2368      454E5200 
 2369              	.LASF107:
 2370 06ce 636F6E74 		.ascii	"context\000"
 2370      65787400 
 2371              	.LASF54:
 2372 06d6 725F6F6C 		.ascii	"r_older\000"
 2372      64657200 
 2373              	.LASF70:
 2374 06de 63685F73 		.ascii	"ch_system_t\000"
 2374      79737465 
 2374      6D5F7400 
 2375              	.LASF17:
 2376 06ea 7274636E 		.ascii	"rtcnt_t\000"
 2376      745F7400 
 2377              	.LASF134:
 2378 06f2 706F7274 		.ascii	"port_lock_from_isr\000"
 2378      5F6C6F63 
 2378      6B5F6672 
ARM GAS  C:\Users\jo\AppData\Local\Temp\ccQziWmI.s 			page 48


 2378      6F6D5F69 
 2378      737200
 2379              	.LASF63:
 2380 0705 76745F70 		.ascii	"vt_par\000"
 2380      617200
 2381              	.LASF102:
 2382 070c 53534347 		.ascii	"SSCGR\000"
 2382      5200
 2383              	.LASF46:
 2384 0712 74687265 		.ascii	"threads_queue_t\000"
 2384      6164735F 
 2384      71756575 
 2384      655F7400 
 2385              	.LASF118:
 2386 0722 73746D33 		.ascii	"stm32_tim_t\000"
 2386      325F7469 
 2386      6D5F7400 
 2387              	.LASF35:
 2388 072e 705F7265 		.ascii	"p_refs\000"
 2388      667300
 2389              	.LASF100:
 2390 0735 42444352 		.ascii	"BDCR\000"
 2390      00
 2391              	.LASF72:
 2392 073a 726C6973 		.ascii	"rlist\000"
 2392      7400
 2393              	.LASF13:
 2394 0740 75696E74 		.ascii	"uint8_t\000"
 2394      385F7400 
 2395              	.LASF136:
 2396 0748 63685379 		.ascii	"chSysLockFromISR\000"
 2396      734C6F63 
 2396      6B46726F 
 2396      6D495352 
 2396      00
 2397              	.LASF32:
 2398 0759 705F6E61 		.ascii	"p_name\000"
 2398      6D6500
 2399              	.LASF86:
 2400 0760 41484231 		.ascii	"AHB1ENR\000"
 2400      454E5200 
 2401              	.LASF78:
 2402 0768 43464752 		.ascii	"CFGR\000"
 2402      00
 2403              	.LASF18:
 2404 076d 746D6F64 		.ascii	"tmode_t\000"
 2404      655F7400 
 2405              	.LASF38:
 2406 0775 705F6D73 		.ascii	"p_msg\000"
 2406      6700
 2407              	.LASF130:
 2408 077b 6D757465 		.ascii	"mutex_t\000"
 2408      785F7400 
 2409              	.LASF128:
 2410 0783 6D5F6F77 		.ascii	"m_owner\000"
 2410      6E657200 
 2411              	.LASF29:
ARM GAS  C:\Users\jo\AppData\Local\Temp\ccQziWmI.s 			page 49


 2412 078b 705F6374 		.ascii	"p_ctx\000"
 2412      7800
 2413              	.LASF62:
 2414 0791 76745F66 		.ascii	"vt_func\000"
 2414      756E6300 
 2415              		.ident	"GCC: (GNU Tools for ARM Embedded Processors) 4.9.3 20141119 (release) [ARM/embedded-4_9-br
ARM GAS  C:\Users\jo\AppData\Local\Temp\ccQziWmI.s 			page 50


DEFINED SYMBOLS
                            *ABS*:00000000 st_lld.c
C:\Users\jo\AppData\Local\Temp\ccQziWmI.s:21     .text.VectorB0:00000000 $t
C:\Users\jo\AppData\Local\Temp\ccQziWmI.s:27     .text.VectorB0:00000000 VectorB0
C:\Users\jo\AppData\Local\Temp\ccQziWmI.s:101    .text.st_lld_init:00000000 $t
C:\Users\jo\AppData\Local\Temp\ccQziWmI.s:107    .text.st_lld_init:00000000 st_lld_init
C:\Users\jo\AppData\Local\Temp\ccQziWmI.s:168    .text.st_lld_init:00000038 $d
                     .debug_frame:00000010 $d
C:\Users\jo\AppData\Local\Temp\ccQziWmI.s:172    .text.st_lld_init:0000003c $t

UNDEFINED SYMBOLS
chSysTimerHandlerI
_port_irq_epilogue
nvicEnableVector
