ARM GAS  C:\Users\jo\AppData\Local\Temp\ccYoTxPK.s 			page 1


   1              		.syntax unified
   2              		.cpu cortex-m4
   3              		.eabi_attribute 27, 3
   4              		.eabi_attribute 28, 1
   5              		.fpu fpv4-sp-d16
   6              		.eabi_attribute 20, 1
   7              		.eabi_attribute 21, 1
   8              		.eabi_attribute 23, 3
   9              		.eabi_attribute 24, 1
  10              		.eabi_attribute 25, 1
  11              		.eabi_attribute 26, 1
  12              		.eabi_attribute 30, 2
  13              		.eabi_attribute 34, 1
  14              		.eabi_attribute 18, 4
  15              		.thumb
  16              		.file	"stubs.c"
  17              		.text
  18              	.Ltext0:
  19              		.cfi_sections	.debug_frame
  20              		.section	.text._exit,"ax",%progbits
  21              		.align	2
  22              		.p2align 4,,15
  23              		.global	_exit
  24              		.thumb
  25              		.thumb_func
  26              		.type	_exit, %function
  27              	_exit:
  28              	.LFB256:
  29              		.file 1 "stubs.c"
  30              		.loc 1 21 0
  31              		.cfi_startproc
  32              		@ Volatile: function does not return.
  33              		@ args = 0, pretend = 0, frame = 0
  34              		@ frame_needed = 0, uses_anonymous_args = 0
  35              	.LVL0:
  36 0000 08B5     		push	{r3, lr}
  37              		.cfi_def_cfa_offset 8
  38              		.cfi_offset 3, -8
  39              		.cfi_offset 14, -4
  40              		.loc 1 23 0
  41 0002 0248     		ldr	r0, .L5
  42              	.LVL1:
  43 0004 FFF7FEFF 		bl	chSysHalt
  44              	.LVL2:
  45              	.L2:
  46              		.loc 1 25 0 discriminator 1
  47 0008 FEE7     		b	.L2
  48              	.L6:
  49 000a 00BF     		.align	2
  50              	.L5:
  51 000c 00000000 		.word	.LC0
  52              		.cfi_endproc
  53              	.LFE256:
  54              		.size	_exit, .-_exit
  55              		.section	.text._getpid,"ax",%progbits
  56              		.align	2
  57              		.p2align 4,,15
ARM GAS  C:\Users\jo\AppData\Local\Temp\ccYoTxPK.s 			page 2


  58              		.global	_getpid
  59              		.thumb
  60              		.thumb_func
  61              		.type	_getpid, %function
  62              	_getpid:
  63              	.LFB257:
  64              		.loc 1 28 0
  65              		.cfi_startproc
  66              		@ args = 0, pretend = 0, frame = 0
  67              		@ frame_needed = 0, uses_anonymous_args = 0
  68              		@ link register save eliminated.
  69              		.loc 1 30 0
  70 0000 0120     		movs	r0, #1
  71 0002 7047     		bx	lr
  72              		.cfi_endproc
  73              	.LFE257:
  74              		.size	_getpid, .-_getpid
  75 0004 AFF30080 		.section	.text._kill,"ax",%progbits
  75      AFF30080 
  75      AFF30080 
  76              		.align	2
  77              		.p2align 4,,15
  78              		.global	_kill
  79              		.thumb
  80              		.thumb_func
  81              		.type	_kill, %function
  82              	_kill:
  83              	.LFB258:
  84              		.loc 1 32 0
  85              		.cfi_startproc
  86              		@ args = 0, pretend = 0, frame = 0
  87              		@ frame_needed = 0, uses_anonymous_args = 0
  88              		@ link register save eliminated.
  89              	.LVL3:
  90 0000 7047     		bx	lr
  91              		.cfi_endproc
  92              	.LFE258:
  93              		.size	_kill, .-_kill
  94 0002 00BFAFF3 		.section	.text.__cxa_pure_virtual,"ax",%progbits
  94      0080AFF3 
  94      0080AFF3 
  94      0080
  95              		.align	2
  96              		.p2align 4,,15
  97              		.global	__cxa_pure_virtual
  98              		.thumb
  99              		.thumb_func
 100              		.type	__cxa_pure_virtual, %function
 101              	__cxa_pure_virtual:
 102              	.LFB259:
 103              		.loc 1 36 0
 104              		.cfi_startproc
 105              		@ args = 0, pretend = 0, frame = 0
 106              		@ frame_needed = 0, uses_anonymous_args = 0
 107              		@ link register save eliminated.
 108              		.loc 1 37 0
 109 0000 0148     		ldr	r0, .L10
ARM GAS  C:\Users\jo\AppData\Local\Temp\ccYoTxPK.s 			page 3


 110 0002 FFF7FEBF 		b	chDbgPanic
 111              	.LVL4:
 112              	.L11:
 113 0006 00BF     		.align	2
 114              	.L10:
 115 0008 08000000 		.word	.LC1
 116              		.cfi_endproc
 117              	.LFE259:
 118              		.size	__cxa_pure_virtual, .-__cxa_pure_virtual
 119 000c AFF30080 		.section	.text.__cxa_guard_acquire,"ax",%progbits
 120              		.align	2
 121              		.p2align 4,,15
 122              		.global	__cxa_guard_acquire
 123              		.thumb
 124              		.thumb_func
 125              		.type	__cxa_guard_acquire, %function
 126              	__cxa_guard_acquire:
 127              	.LFB260:
 128              		.loc 1 40 0
 129              		.cfi_startproc
 130              		@ args = 0, pretend = 0, frame = 0
 131              		@ frame_needed = 0, uses_anonymous_args = 0
 132              		@ link register save eliminated.
 133              	.LVL5:
 134              	.LBB44:
 135              	.LBB45:
 136              	.LBB46:
 137              	.LBB47:
 138              		.file 2 "../../../os/ext/CMSIS/include/core_cmFunc.h"
 139              		.loc 2 546 0
 140 0000 2023     		movs	r3, #32
 141              	@ 546 "../../../os/ext/CMSIS/include/core_cmFunc.h" 1
 142 0002 83F31188 		MSR basepri, r3
 143              	@ 0 "" 2
 144              		.thumb
 145              	.LBE47:
 146              	.LBE46:
 147              	.LBE45:
 148              	.LBE44:
 149              	.LBB48:
 150              	.LBB49:
 151              	.LBB50:
 152              	.LBB51:
 153              	.LBB52:
 154 0006 0023     		movs	r3, #0
 155              	.LBE52:
 156              	.LBE51:
 157              	.LBE50:
 158              	.LBE49:
 159              	.LBE48:
 160              		.loc 1 42 0
 161 0008 0078     		ldrb	r0, [r0]	@ zero_extendqisi2
 162              	.LVL6:
 163 000a B0FA80F0 		clz	r0, r0
 164 000e 4009     		lsrs	r0, r0, #5
 165              	.LVL7:
 166              	.LBB57:
ARM GAS  C:\Users\jo\AppData\Local\Temp\ccYoTxPK.s 			page 4


 167              	.LBB56:
 168              	.LBB55:
 169              	.LBB54:
 170              	.LBB53:
 171              		.loc 2 546 0
 172              	@ 546 "../../../os/ext/CMSIS/include/core_cmFunc.h" 1
 173 0010 83F31188 		MSR basepri, r3
 174              	@ 0 "" 2
 175              		.thumb
 176              	.LBE53:
 177              	.LBE54:
 178              	.LBE55:
 179              	.LBE56:
 180              	.LBE57:
 181              		.loc 1 46 0
 182 0014 7047     		bx	lr
 183              		.cfi_endproc
 184              	.LFE260:
 185              		.size	__cxa_guard_acquire, .-__cxa_guard_acquire
 186 0016 00BFAFF3 		.section	.text.__cxa_guard_release,"ax",%progbits
 186      0080AFF3 
 186      0080
 187              		.align	2
 188              		.p2align 4,,15
 189              		.global	__cxa_guard_release
 190              		.thumb
 191              		.thumb_func
 192              		.type	__cxa_guard_release, %function
 193              	__cxa_guard_release:
 194              	.LFB261:
 195              		.loc 1 48 0
 196              		.cfi_startproc
 197              		@ args = 0, pretend = 0, frame = 0
 198              		@ frame_needed = 0, uses_anonymous_args = 0
 199              		@ link register save eliminated.
 200              	.LVL8:
 201              	.LBB58:
 202              	.LBB59:
 203              	.LBB60:
 204              	.LBB61:
 205              		.loc 2 546 0
 206 0000 2023     		movs	r3, #32
 207              	@ 546 "../../../os/ext/CMSIS/include/core_cmFunc.h" 1
 208 0002 83F31188 		MSR basepri, r3
 209              	@ 0 "" 2
 210              		.thumb
 211              	.LBE61:
 212              	.LBE60:
 213              	.LBE59:
 214              	.LBE58:
 215              		.loc 1 50 0
 216 0006 0123     		movs	r3, #1
 217 0008 0370     		strb	r3, [r0]
 218              	.LVL9:
 219              	.LBB62:
 220              	.LBB63:
 221              	.LBB64:
ARM GAS  C:\Users\jo\AppData\Local\Temp\ccYoTxPK.s 			page 5


 222              	.LBB65:
 223              	.LBB66:
 224              		.loc 2 546 0
 225 000a 0023     		movs	r3, #0
 226              	@ 546 "../../../os/ext/CMSIS/include/core_cmFunc.h" 1
 227 000c 83F31188 		MSR basepri, r3
 228              	@ 0 "" 2
 229              		.thumb
 230 0010 7047     		bx	lr
 231              	.LBE66:
 232              	.LBE65:
 233              	.LBE64:
 234              	.LBE63:
 235              	.LBE62:
 236              		.cfi_endproc
 237              	.LFE261:
 238              		.size	__cxa_guard_release, .-__cxa_guard_release
 239 0012 00BFAFF3 		.section	.text.__cxa_guard_abort,"ax",%progbits
 239      0080AFF3 
 239      0080AFF3 
 239      0080
 240              		.align	2
 241              		.p2align 4,,15
 242              		.global	__cxa_guard_abort
 243              		.thumb
 244              		.thumb_func
 245              		.type	__cxa_guard_abort, %function
 246              	__cxa_guard_abort:
 247              	.LFB262:
 248              		.loc 1 54 0
 249              		.cfi_startproc
 250              		@ args = 0, pretend = 0, frame = 0
 251              		@ frame_needed = 0, uses_anonymous_args = 0
 252              		@ link register save eliminated.
 253              	.LVL10:
 254              	.LBB67:
 255              	.LBB68:
 256              	.LBB69:
 257              	.LBB70:
 258              		.loc 2 546 0
 259 0000 2023     		movs	r3, #32
 260              	@ 546 "../../../os/ext/CMSIS/include/core_cmFunc.h" 1
 261 0002 83F31188 		MSR basepri, r3
 262              	@ 0 "" 2
 263              		.thumb
 264              	.LBE70:
 265              	.LBE69:
 266              	.LBE68:
 267              	.LBE67:
 268              		.loc 1 56 0
 269 0006 0123     		movs	r3, #1
 270 0008 0370     		strb	r3, [r0]
 271              	.LVL11:
 272              	.LBB71:
 273              	.LBB72:
 274              	.LBB73:
 275              	.LBB74:
ARM GAS  C:\Users\jo\AppData\Local\Temp\ccYoTxPK.s 			page 6


 276              	.LBB75:
 277              		.loc 2 546 0
 278 000a 0023     		movs	r3, #0
 279              	@ 546 "../../../os/ext/CMSIS/include/core_cmFunc.h" 1
 280 000c 83F31188 		MSR basepri, r3
 281              	@ 0 "" 2
 282              		.thumb
 283 0010 7047     		bx	lr
 284              	.LBE75:
 285              	.LBE74:
 286              	.LBE73:
 287              	.LBE72:
 288              	.LBE71:
 289              		.cfi_endproc
 290              	.LFE262:
 291              		.size	__cxa_guard_abort, .-__cxa_guard_abort
 292 0012 00BFAFF3 		.section	.text.__register_exitproc,"ax",%progbits
 292      0080AFF3 
 292      0080AFF3 
 292      0080
 293              		.align	2
 294              		.p2align 4,,15
 295              		.global	__register_exitproc
 296              		.thumb
 297              		.thumb_func
 298              		.type	__register_exitproc, %function
 299              	__register_exitproc:
 300              	.LFB263:
 301              		.loc 1 77 0
 302              		.cfi_startproc
 303              		@ args = 0, pretend = 0, frame = 0
 304              		@ frame_needed = 0, uses_anonymous_args = 0
 305              		@ link register save eliminated.
 306              	.LVL12:
 307              		.loc 1 85 0
 308 0000 0020     		movs	r0, #0
 309              	.LVL13:
 310 0002 7047     		bx	lr
 311              		.cfi_endproc
 312              	.LFE263:
 313              		.size	__register_exitproc, .-__register_exitproc
 314              		.global	__dso_handle
 315 0004 AFF30080 		.section	.bss.__dso_handle,"aw",%nobits
 315      AFF30080 
 315      AFF30080 
 316              		.align	2
 317              		.type	__dso_handle, %object
 318              		.size	__dso_handle, 4
 319              	__dso_handle:
 320 0000 00000000 		.space	4
 321              		.section	.rodata.str1.4,"aMS",%progbits,1
 322              		.align	2
 323              	.LC0:
 324 0000 65786974 		.ascii	"exit\000"
 324      00
 325 0005 000000   		.space	3
 326              	.LC1:
ARM GAS  C:\Users\jo\AppData\Local\Temp\ccYoTxPK.s 			page 7


 327 0008 5F5F6378 		.ascii	"__cxa_pure_virtual() #1\000"
 327      615F7075 
 327      72655F76 
 327      69727475 
 327      616C2829 
 328              		.text
 329              	.Letext0:
 330              		.file 3 "c:\\program files\\gnu tools arm embedded\\4.9 2014q4\\arm-none-eabi\\include\\machine\\_
 331              		.file 4 "c:\\program files\\gnu tools arm embedded\\4.9 2014q4\\lib\\gcc\\arm-none-eabi\\4.9.3\\in
 332              		.file 5 "c:\\program files\\gnu tools arm embedded\\4.9 2014q4\\arm-none-eabi\\include\\sys\\types
 333              		.file 6 "c:\\program files\\gnu tools arm embedded\\4.9 2014q4\\arm-none-eabi\\include\\stdint.h"
 334              		.file 7 "../../../os/rt/ports/ARMCMx/compilers/GCC/chtypes.h"
 335              		.file 8 "../../../os/rt/include/chsystypes.h"
 336              		.file 9 "../../../os/rt/include/chschd.h"
 337              		.file 10 "../../../os/rt/ports/ARMCMx/chcore.h"
 338              		.file 11 "../../../os/rt/ports/ARMCMx/chcore_v7m.h"
 339              		.file 12 "../../../os/rt/include/chtm.h"
 340              		.file 13 "../../../os/rt/include/chmtx.h"
 341              		.file 14 "stubs.h"
 342              		.file 15 "../../../os/rt/include/chsys.h"
 343              		.file 16 "../../../os/ext/CMSIS/include/core_cm4.h"