ARM GAS  C:\Users\jo\AppData\Local\Temp\ccYoTxPK.s 			page 1


   1              		.syntax unified
   2              		.cpu cortex-m4
   3              		.eabi_attribute 27, 3
   4              		.eabi_attribute 28, 1
   5              		.fpu fpv4-sp-d16
   6              		.eabi_attribute 20, 1
   7              		.eabi_attribute 21, 1
   8              		.eabi_attribute 23, 3
   9              		.eabi_attribute 24, 1
  10              		.eabi_attribute 25, 1
  11              		.eabi_attribute 26, 1
  12              		.eabi_attribute 30, 2
  13              		.eabi_attribute 34, 1
  14              		.eabi_attribute 18, 4
  15              		.thumb
  16              		.file	"stubs.c"
  17              		.text
  18              	.Ltext0:
  19              		.cfi_sections	.debug_frame
  20              		.section	.text._exit,"ax",%progbits
  21              		.align	2
  22              		.p2align 4,,15
  23              		.global	_exit
  24              		.thumb
  25              		.thumb_func
  26              		.type	_exit, %function
  27              	_exit:
  28              	.LFB256:
  29              		.file 1 "stubs.c"
  30              		.loc 1 21 0
  31              		.cfi_startproc
  32              		@ Volatile: function does not return.
  33              		@ args = 0, pretend = 0, frame = 0
  34              		@ frame_needed = 0, uses_anonymous_args = 0
  35              	.LVL0:
  36 0000 08B5     		push	{r3, lr}
  37              		.cfi_def_cfa_offset 8
  38              		.cfi_offset 3, -8
  39              		.cfi_offset 14, -4
  40              		.loc 1 23 0
  41 0002 0248     		ldr	r0, .L5
  42              	.LVL1:
  43 0004 FFF7FEFF 		bl	chSysHalt
  44              	.LVL2:
  45              	.L2:
  46              		.loc 1 25 0 discriminator 1
  47 0008 FEE7     		b	.L2
  48              	.L6:
  49 000a 00BF     		.align	2
  50              	.L5:
  51 000c 00000000 		.word	.LC0
  52              		.cfi_endproc
  53              	.LFE256:
  54              		.size	_exit, .-_exit
  55              		.section	.text._getpid,"ax",%progbits
  56              		.align	2
  57              		.p2align 4,,15
ARM GAS  C:\Users\jo\AppData\Local\Temp\ccYoTxPK.s 			page 2


  58              		.global	_getpid
  59              		.thumb
  60              		.thumb_func
  61              		.type	_getpid, %function
  62              	_getpid:
  63              	.LFB257:
  64              		.loc 1 28 0
  65              		.cfi_startproc
  66              		@ args = 0, pretend = 0, frame = 0
  67              		@ frame_needed = 0, uses_anonymous_args = 0
  68              		@ link register save eliminated.
  69              		.loc 1 30 0
  70 0000 0120     		movs	r0, #1
  71 0002 7047     		bx	lr
  72              		.cfi_endproc
  73              	.LFE257:
  74              		.size	_getpid, .-_getpid
  75 0004 AFF30080 		.section	.text._kill,"ax",%progbits
  75      AFF30080 
  75      AFF30080 
  76              		.align	2
  77              		.p2align 4,,15
  78              		.global	_kill
  79              		.thumb
  80              		.thumb_func
  81              		.type	_kill, %function
  82              	_kill:
  83              	.LFB258:
  84              		.loc 1 32 0
  85              		.cfi_startproc
  86              		@ args = 0, pretend = 0, frame = 0
  87              		@ frame_needed = 0, uses_anonymous_args = 0
  88              		@ link register save eliminated.
  89              	.LVL3:
  90 0000 7047     		bx	lr
  91              		.cfi_endproc
  92              	.LFE258:
  93              		.size	_kill, .-_kill
  94 0002 00BFAFF3 		.section	.text.__cxa_pure_virtual,"ax",%progbits
  94      0080AFF3 
  94      0080AFF3 
  94      0080
  95              		.align	2
  96              		.p2align 4,,15
  97              		.global	__cxa_pure_virtual
  98              		.thumb
  99              		.thumb_func
 100              		.type	__cxa_pure_virtual, %function
 101              	__cxa_pure_virtual:
 102              	.LFB259:
 103              		.loc 1 36 0
 104              		.cfi_startproc
 105              		@ args = 0, pretend = 0, frame = 0
 106              		@ frame_needed = 0, uses_anonymous_args = 0
 107              		@ link register save eliminated.
 108              		.loc 1 37 0
 109 0000 0148     		ldr	r0, .L10
ARM GAS  C:\Users\jo\AppData\Local\Temp\ccYoTxPK.s 			page 3


 110 0002 FFF7FEBF 		b	chDbgPanic
 111              	.LVL4:
 112              	.L11:
 113 0006 00BF     		.align	2
 114              	.L10:
 115 0008 08000000 		.word	.LC1
 116              		.cfi_endproc
 117              	.LFE259:
 118              		.size	__cxa_pure_virtual, .-__cxa_pure_virtual
 119 000c AFF30080 		.section	.text.__cxa_guard_acquire,"ax",%progbits
 120              		.align	2
 121              		.p2align 4,,15
 122              		.global	__cxa_guard_acquire
 123              		.thumb
 124              		.thumb_func
 125              		.type	__cxa_guard_acquire, %function
 126              	__cxa_guard_acquire:
 127              	.LFB260:
 128              		.loc 1 40 0
 129              		.cfi_startproc
 130              		@ args = 0, pretend = 0, frame = 0
 131              		@ frame_needed = 0, uses_anonymous_args = 0
 132              		@ link register save eliminated.
 133              	.LVL5:
 134              	.LBB44:
 135              	.LBB45:
 136              	.LBB46:
 137              	.LBB47:
 138              		.file 2 "../../../os/ext/CMSIS/include/core_cmFunc.h"
 139              		.loc 2 546 0
 140 0000 2023     		movs	r3, #32
 141              	@ 546 "../../../os/ext/CMSIS/include/core_cmFunc.h" 1
 142 0002 83F31188 		MSR basepri, r3
 143              	@ 0 "" 2
 144              		.thumb
 145              	.LBE47:
 146              	.LBE46:
 147              	.LBE45:
 148              	.LBE44:
 149              	.LBB48:
 150              	.LBB49:
 151              	.LBB50:
 152              	.LBB51:
 153              	.LBB52:
 154 0006 0023     		movs	r3, #0
 155              	.LBE52:
 156              	.LBE51:
 157              	.LBE50:
 158              	.LBE49:
 159              	.LBE48:
 160              		.loc 1 42 0
 161 0008 0078     		ldrb	r0, [r0]	@ zero_extendqisi2
 162              	.LVL6:
 163 000a B0FA80F0 		clz	r0, r0
 164 000e 4009     		lsrs	r0, r0, #5
 165              	.LVL7:
 166              	.LBB57:
ARM GAS  C:\Users\jo\AppData\Local\Temp\ccYoTxPK.s 			page 4


 167              	.LBB56:
 168              	.LBB55:
 169              	.LBB54:
 170              	.LBB53:
 171              		.loc 2 546 0
 172              	@ 546 "../../../os/ext/CMSIS/include/core_cmFunc.h" 1
 173 0010 83F31188 		MSR basepri, r3
 174              	@ 0 "" 2
 175              		.thumb
 176              	.LBE53:
 177              	.LBE54:
 178              	.LBE55:
 179              	.LBE56:
 180              	.LBE57:
 181              		.loc 1 46 0
 182 0014 7047     		bx	lr
 183              		.cfi_endproc
 184              	.LFE260:
 185              		.size	__cxa_guard_acquire, .-__cxa_guard_acquire
 186 0016 00BFAFF3 		.section	.text.__cxa_guard_release,"ax",%progbits
 186      0080AFF3 
 186      0080
 187              		.align	2
 188              		.p2align 4,,15
 189              		.global	__cxa_guard_release
 190              		.thumb
 191              		.thumb_func
 192              		.type	__cxa_guard_release, %function
 193              	__cxa_guard_release:
 194              	.LFB261:
 195              		.loc 1 48 0
 196              		.cfi_startproc
 197              		@ args = 0, pretend = 0, frame = 0
 198              		@ frame_needed = 0, uses_anonymous_args = 0
 199              		@ link register save eliminated.
 200              	.LVL8:
 201              	.LBB58:
 202              	.LBB59:
 203              	.LBB60:
 204              	.LBB61:
 205              		.loc 2 546 0
 206 0000 2023     		movs	r3, #32
 207              	@ 546 "../../../os/ext/CMSIS/include/core_cmFunc.h" 1
 208 0002 83F31188 		MSR basepri, r3
 209              	@ 0 "" 2
 210              		.thumb
 211              	.LBE61:
 212              	.LBE60:
 213              	.LBE59:
 214              	.LBE58:
 215              		.loc 1 50 0
 216 0006 0123     		movs	r3, #1
 217 0008 0370     		strb	r3, [r0]
 218              	.LVL9:
 219              	.LBB62:
 220              	.LBB63:
 221              	.LBB64:
ARM GAS  C:\Users\jo\AppData\Local\Temp\ccYoTxPK.s 			page 5


 222              	.LBB65:
 223              	.LBB66:
 224              		.loc 2 546 0
 225 000a 0023     		movs	r3, #0
 226              	@ 546 "../../../os/ext/CMSIS/include/core_cmFunc.h" 1
 227 000c 83F31188 		MSR basepri, r3
 228              	@ 0 "" 2
 229              		.thumb
 230 0010 7047     		bx	lr
 231              	.LBE66:
 232              	.LBE65:
 233              	.LBE64:
 234              	.LBE63:
 235              	.LBE62:
 236              		.cfi_endproc
 237              	.LFE261:
 238              		.size	__cxa_guard_release, .-__cxa_guard_release
 239 0012 00BFAFF3 		.section	.text.__cxa_guard_abort,"ax",%progbits
 239      0080AFF3 
 239      0080AFF3 
 239      0080
 240              		.align	2
 241              		.p2align 4,,15
 242              		.global	__cxa_guard_abort
 243              		.thumb
 244              		.thumb_func
 245              		.type	__cxa_guard_abort, %function
 246              	__cxa_guard_abort:
 247              	.LFB262:
 248              		.loc 1 54 0
 249              		.cfi_startproc
 250              		@ args = 0, pretend = 0, frame = 0
 251              		@ frame_needed = 0, uses_anonymous_args = 0
 252              		@ link register save eliminated.
 253              	.LVL10:
 254              	.LBB67:
 255              	.LBB68:
 256              	.LBB69:
 257              	.LBB70:
 258              		.loc 2 546 0
 259 0000 2023     		movs	r3, #32
 260              	@ 546 "../../../os/ext/CMSIS/include/core_cmFunc.h" 1
 261 0002 83F31188 		MSR basepri, r3
 262              	@ 0 "" 2
 263              		.thumb
 264              	.LBE70:
 265              	.LBE69:
 266              	.LBE68:
 267              	.LBE67:
 268              		.loc 1 56 0
 269 0006 0123     		movs	r3, #1
 270 0008 0370     		strb	r3, [r0]
 271              	.LVL11:
 272              	.LBB71:
 273              	.LBB72:
 274              	.LBB73:
 275              	.LBB74:
ARM GAS  C:\Users\jo\AppData\Local\Temp\ccYoTxPK.s 			page 6


 276              	.LBB75:
 277              		.loc 2 546 0
 278 000a 0023     		movs	r3, #0
 279              	@ 546 "../../../os/ext/CMSIS/include/core_cmFunc.h" 1
 280 000c 83F31188 		MSR basepri, r3
 281              	@ 0 "" 2
 282              		.thumb
 283 0010 7047     		bx	lr
 284              	.LBE75:
 285              	.LBE74:
 286              	.LBE73:
 287              	.LBE72:
 288              	.LBE71:
 289              		.cfi_endproc
 290              	.LFE262:
 291              		.size	__cxa_guard_abort, .-__cxa_guard_abort
 292 0012 00BFAFF3 		.section	.text.__register_exitproc,"ax",%progbits
 292      0080AFF3 
 292      0080AFF3 
 292      0080
 293              		.align	2
 294              		.p2align 4,,15
 295              		.global	__register_exitproc
 296              		.thumb
 297              		.thumb_func
 298              		.type	__register_exitproc, %function
 299              	__register_exitproc:
 300              	.LFB263:
 301              		.loc 1 77 0
 302              		.cfi_startproc
 303              		@ args = 0, pretend = 0, frame = 0
 304              		@ frame_needed = 0, uses_anonymous_args = 0
 305              		@ link register save eliminated.
 306              	.LVL12:
 307              		.loc 1 85 0
 308 0000 0020     		movs	r0, #0
 309              	.LVL13:
 310 0002 7047     		bx	lr
 311              		.cfi_endproc
 312              	.LFE263:
 313              		.size	__register_exitproc, .-__register_exitproc
 314              		.global	__dso_handle
 315 0004 AFF30080 		.section	.bss.__dso_handle,"aw",%nobits
 315      AFF30080 
 315      AFF30080 
 316              		.align	2
 317              		.type	__dso_handle, %object
 318              		.size	__dso_handle, 4
 319              	__dso_handle:
 320 0000 00000000 		.space	4
 321              		.section	.rodata.str1.4,"aMS",%progbits,1
 322              		.align	2
 323              	.LC0:
 324 0000 65786974 		.ascii	"exit\000"
 324      00
 325 0005 000000   		.space	3
 326              	.LC1:
ARM GAS  C:\Users\jo\AppData\Local\Temp\ccYoTxPK.s 			page 7


 327 0008 5F5F6378 		.ascii	"__cxa_pure_virtual() #1\000"
 327      615F7075 
 327      72655F76 
 327      69727475 
 327      616C2829 
 328              		.text
 329              	.Letext0:
 330              		.file 3 "c:\\program files\\gnu tools arm embedded\\4.9 2014q4\\arm-none-eabi\\include\\machine\\_
 331              		.file 4 "c:\\program files\\gnu tools arm embedded\\4.9 2014q4\\lib\\gcc\\arm-none-eabi\\4.9.3\\in
 332              		.file 5 "c:\\program files\\gnu tools arm embedded\\4.9 2014q4\\arm-none-eabi\\include\\sys\\types
 333              		.file 6 "c:\\program files\\gnu tools arm embedded\\4.9 2014q4\\arm-none-eabi\\include\\stdint.h"
 334              		.file 7 "../../../os/rt/ports/ARMCMx/compilers/GCC/chtypes.h"
 335              		.file 8 "../../../os/rt/include/chsystypes.h"
 336              		.file 9 "../../../os/rt/include/chschd.h"
 337              		.file 10 "../../../os/rt/ports/ARMCMx/chcore.h"
 338              		.file 11 "../../../os/rt/ports/ARMCMx/chcore_v7m.h"
 339              		.file 12 "../../../os/rt/include/chtm.h"
 340              		.file 13 "../../../os/rt/include/chmtx.h"
 341              		.file 14 "stubs.h"
 342              		.file 15 "../../../os/rt/include/chsys.h"
 343              		.file 16 "../../../os/ext/CMSIS/include/core_cm4.h"
 344              		.section	.debug_info,"",%progbits
 345              	.Ldebug_info0:
 346 0000 480A0000 		.4byte	0xa48
 347 0004 0400     		.2byte	0x4
 348 0006 00000000 		.4byte	.Ldebug_abbrev0
 349 000a 04       		.byte	0x4
 350 000b 01       		.uleb128 0x1
 351 000c 59030000 		.4byte	.LASF115
 352 0010 01       		.byte	0x1
 353 0011 27030000 		.4byte	.LASF116
 354 0015 FC040000 		.4byte	.LASF117
 355 0019 18000000 		.4byte	.Ldebug_ranges0+0x18
 356 001d 00000000 		.4byte	0
 357 0021 00000000 		.4byte	.Ldebug_line0
 358 0025 02       		.uleb128 0x2
 359 0026 01       		.byte	0x1
 360 0027 06       		.byte	0x6
 361 0028 E1000000 		.4byte	.LASF0
 362 002c 03       		.uleb128 0x3
 363 002d 24000000 		.4byte	.LASF4
 364 0031 03       		.byte	0x3
 365 0032 1D       		.byte	0x1d
 366 0033 37000000 		.4byte	0x37
 367 0037 02       		.uleb128 0x2
 368 0038 01       		.byte	0x1
 369 0039 08       		.byte	0x8
 370 003a 19030000 		.4byte	.LASF1
 371 003e 02       		.uleb128 0x2
 372 003f 02       		.byte	0x2
 373 0040 05       		.byte	0x5
 374 0041 39030000 		.4byte	.LASF2
 375 0045 02       		.uleb128 0x2
 376 0046 02       		.byte	0x2
 377 0047 07       		.byte	0x7
 378 0048 4E010000 		.4byte	.LASF3
 379 004c 03       		.uleb128 0x3
ARM GAS  C:\Users\jo\AppData\Local\Temp\ccYoTxPK.s 			page 8


 380 004d 2C020000 		.4byte	.LASF5
 381 0051 03       		.byte	0x3
 382 0052 3F       		.byte	0x3f
 383 0053 57000000 		.4byte	0x57
 384 0057 02       		.uleb128 0x2
 385 0058 04       		.byte	0x4
 386 0059 05       		.byte	0x5
 387 005a 2C010000 		.4byte	.LASF6
 388 005e 03       		.uleb128 0x3
 389 005f 72050000 		.4byte	.LASF7
 390 0063 03       		.byte	0x3
 391 0064 41       		.byte	0x41
 392 0065 69000000 		.4byte	0x69
 393 0069 02       		.uleb128 0x2
 394 006a 04       		.byte	0x4
 395 006b 07       		.byte	0x7
 396 006c E5040000 		.4byte	.LASF8
 397 0070 02       		.uleb128 0x2
 398 0071 08       		.byte	0x8
 399 0072 05       		.byte	0x5
 400 0073 D3000000 		.4byte	.LASF9
 401 0077 03       		.uleb128 0x3
 402 0078 C3020000 		.4byte	.LASF10
 403 007c 03       		.byte	0x3
 404 007d 5B       		.byte	0x5b
 405 007e 82000000 		.4byte	0x82
 406 0082 02       		.uleb128 0x2
 407 0083 08       		.byte	0x8
 408 0084 07       		.byte	0x7
 409 0085 62000000 		.4byte	.LASF11
 410 0089 04       		.uleb128 0x4
 411 008a 04       		.byte	0x4
 412 008b 05       		.byte	0x5
 413 008c 696E7400 		.ascii	"int\000"
 414 0090 02       		.uleb128 0x2
 415 0091 04       		.byte	0x4
 416 0092 07       		.byte	0x7
 417 0093 97010000 		.4byte	.LASF12
 418 0097 03       		.uleb128 0x3
 419 0098 0D000000 		.4byte	.LASF13
 420 009c 04       		.byte	0x4
 421 009d D4       		.byte	0xd4
 422 009e 90000000 		.4byte	0x90
 423 00a2 05       		.uleb128 0x5
 424 00a3 04       		.byte	0x4
 425 00a4 02       		.uleb128 0x2
 426 00a5 04       		.byte	0x4
 427 00a6 07       		.byte	0x7
 428 00a7 52020000 		.4byte	.LASF14
 429 00ab 06       		.uleb128 0x6
 430 00ac 04       		.byte	0x4
 431 00ad B1000000 		.4byte	0xb1
 432 00b1 07       		.uleb128 0x7
 433 00b2 02       		.uleb128 0x2
 434 00b3 01       		.byte	0x1
 435 00b4 08       		.byte	0x8
 436 00b5 F7040000 		.4byte	.LASF15
ARM GAS  C:\Users\jo\AppData\Local\Temp\ccYoTxPK.s 			page 9


 437 00b9 06       		.uleb128 0x6
 438 00ba 04       		.byte	0x4
 439 00bb BF000000 		.4byte	0xbf
 440 00bf 08       		.uleb128 0x8
 441 00c0 B2000000 		.4byte	0xb2
 442 00c4 03       		.uleb128 0x3
 443 00c5 F3050000 		.4byte	.LASF16
 444 00c9 05       		.byte	0x5
 445 00ca C1       		.byte	0xc1
 446 00cb 89000000 		.4byte	0x89
 447 00cf 03       		.uleb128 0x3
 448 00d0 DD050000 		.4byte	.LASF17
 449 00d4 06       		.byte	0x6
 450 00d5 15       		.byte	0x15
 451 00d6 2C000000 		.4byte	0x2c
 452 00da 03       		.uleb128 0x3
 453 00db 11030000 		.4byte	.LASF18
 454 00df 06       		.byte	0x6
 455 00e0 2C       		.byte	0x2c
 456 00e1 4C000000 		.4byte	0x4c
 457 00e5 03       		.uleb128 0x3
 458 00e6 B1040000 		.4byte	.LASF19
 459 00ea 06       		.byte	0x6
 460 00eb 2D       		.byte	0x2d
 461 00ec 5E000000 		.4byte	0x5e
 462 00f0 03       		.uleb128 0x3
 463 00f1 1B000000 		.4byte	.LASF20
 464 00f5 06       		.byte	0x6
 465 00f6 39       		.byte	0x39
 466 00f7 77000000 		.4byte	0x77
 467 00fb 09       		.uleb128 0x9
 468 00fc DA000000 		.4byte	0xda
 469 0100 03       		.uleb128 0x3
 470 0101 AA050000 		.4byte	.LASF21
 471 0105 07       		.byte	0x7
 472 0106 45       		.byte	0x45
 473 0107 E5000000 		.4byte	0xe5
 474 010b 03       		.uleb128 0x3
 475 010c 0A020000 		.4byte	.LASF22
 476 0110 07       		.byte	0x7
 477 0111 48       		.byte	0x48
 478 0112 CF000000 		.4byte	0xcf
 479 0116 03       		.uleb128 0x3
 480 0117 35010000 		.4byte	.LASF23
 481 011b 07       		.byte	0x7
 482 011c 49       		.byte	0x49
 483 011d CF000000 		.4byte	0xcf
 484 0121 03       		.uleb128 0x3
 485 0122 CE020000 		.4byte	.LASF24
 486 0126 07       		.byte	0x7
 487 0127 4A       		.byte	0x4a
 488 0128 CF000000 		.4byte	0xcf
 489 012c 03       		.uleb128 0x3
 490 012d ED020000 		.4byte	.LASF25
 491 0131 07       		.byte	0x7
 492 0132 4C       		.byte	0x4c
 493 0133 E5000000 		.4byte	0xe5
ARM GAS  C:\Users\jo\AppData\Local\Temp\ccYoTxPK.s 			page 10


 494 0137 03       		.uleb128 0x3
 495 0138 F8010000 		.4byte	.LASF26
 496 013c 07       		.byte	0x7
 497 013d 4D       		.byte	0x4d
 498 013e DA000000 		.4byte	0xda
 499 0142 03       		.uleb128 0x3
 500 0143 20020000 		.4byte	.LASF27
 501 0147 07       		.byte	0x7
 502 0148 4F       		.byte	0x4f
 503 0149 E5000000 		.4byte	0xe5
 504 014d 03       		.uleb128 0x3
 505 014e 54050000 		.4byte	.LASF28
 506 0152 08       		.byte	0x8
 507 0153 33       		.byte	0x33
 508 0154 E5000000 		.4byte	0xe5
 509 0158 03       		.uleb128 0x3
 510 0159 44050000 		.4byte	.LASF29
 511 015d 08       		.byte	0x8
 512 015e 3F       		.byte	0x3f
 513 015f 63010000 		.4byte	0x163
 514 0163 0A       		.uleb128 0xa
 515 0164 EE010000 		.4byte	.LASF48
 516 0168 44       		.byte	0x44
 517 0169 09       		.byte	0x9
 518 016a BE       		.byte	0xbe
 519 016b 50020000 		.4byte	0x250
 520 016f 0B       		.uleb128 0xb
 521 0170 52030000 		.4byte	.LASF30
 522 0174 09       		.byte	0x9
 523 0175 BF       		.byte	0xbf
 524 0176 F1050000 		.4byte	0x5f1
 525 017a 00       		.byte	0
 526 017b 0B       		.uleb128 0xb
 527 017c E6020000 		.4byte	.LASF31
 528 0180 09       		.byte	0x9
 529 0181 C1       		.byte	0xc1
 530 0182 F1050000 		.4byte	0x5f1
 531 0186 04       		.byte	0x4
 532 0187 0B       		.uleb128 0xb
 533 0188 CC000000 		.4byte	.LASF32
 534 018c 09       		.byte	0x9
 535 018d C3       		.byte	0xc3
 536 018e 2C010000 		.4byte	0x12c
 537 0192 08       		.byte	0x8
 538 0193 0B       		.uleb128 0xb
 539 0194 36060000 		.4byte	.LASF33
 540 0198 09       		.byte	0x9
 541 0199 C4       		.byte	0xc4
 542 019a 71040000 		.4byte	0x471
 543 019e 0C       		.byte	0xc
 544 019f 0B       		.uleb128 0xb
 545 01a0 46010000 		.4byte	.LASF34
 546 01a4 09       		.byte	0x9
 547 01a5 C6       		.byte	0xc6
 548 01a6 F1050000 		.4byte	0x5f1
 549 01aa 10       		.byte	0x10
 550 01ab 0B       		.uleb128 0xb
ARM GAS  C:\Users\jo\AppData\Local\Temp\ccYoTxPK.s 			page 11


 551 01ac 7E020000 		.4byte	.LASF35
 552 01b0 09       		.byte	0x9
 553 01b1 C7       		.byte	0xc7
 554 01b2 F1050000 		.4byte	0x5f1
 555 01b6 14       		.byte	0x14
 556 01b7 0B       		.uleb128 0xb
 557 01b8 EC050000 		.4byte	.LASF36
 558 01bc 09       		.byte	0x9
 559 01bd CE       		.byte	0xce
 560 01be B9000000 		.4byte	0xb9
 561 01c2 18       		.byte	0x18
 562 01c3 0B       		.uleb128 0xb
 563 01c4 43030000 		.4byte	.LASF37
 564 01c8 09       		.byte	0x9
 565 01c9 D9       		.byte	0xd9
 566 01ca 16010000 		.4byte	0x116
 567 01ce 1C       		.byte	0x1c
 568 01cf 0B       		.uleb128 0xb
 569 01d0 72040000 		.4byte	.LASF38
 570 01d4 09       		.byte	0x9
 571 01d5 DD       		.byte	0xdd
 572 01d6 0B010000 		.4byte	0x10b
 573 01da 1D       		.byte	0x1d
 574 01db 0B       		.uleb128 0xb
 575 01dc C9050000 		.4byte	.LASF39
 576 01e0 09       		.byte	0x9
 577 01e1 E2       		.byte	0xe2
 578 01e2 21010000 		.4byte	0x121
 579 01e6 1E       		.byte	0x1e
 580 01e7 0C       		.uleb128 0xc
 581 01e8 705F7500 		.ascii	"p_u\000"
 582 01ec 09       		.byte	0x9
 583 01ed 1401     		.2byte	0x114
 584 01ef F7050000 		.4byte	0x5f7
 585 01f3 20       		.byte	0x20
 586 01f4 0D       		.uleb128 0xd
 587 01f5 48020000 		.4byte	.LASF40
 588 01f9 09       		.byte	0x9
 589 01fa 1901     		.2byte	0x119
 590 01fc 50020000 		.4byte	0x250
 591 0200 24       		.byte	0x24
 592 0201 0D       		.uleb128 0xd
 593 0202 C9010000 		.4byte	.LASF41
 594 0206 09       		.byte	0x9
 595 0207 1F01     		.2byte	0x11f
 596 0209 74020000 		.4byte	0x274
 597 020d 28       		.byte	0x28
 598 020e 0D       		.uleb128 0xd
 599 020f 14060000 		.4byte	.LASF42
 600 0213 09       		.byte	0x9
 601 0214 2301     		.2byte	0x123
 602 0216 37010000 		.4byte	0x137
 603 021a 30       		.byte	0x30
 604 021b 0D       		.uleb128 0xd
 605 021c A6040000 		.4byte	.LASF43
 606 0220 09       		.byte	0x9
 607 0221 2901     		.2byte	0x129
ARM GAS  C:\Users\jo\AppData\Local\Temp\ccYoTxPK.s 			page 12


 608 0223 42010000 		.4byte	0x142
 609 0227 34       		.byte	0x34
 610 0228 0D       		.uleb128 0xd
 611 0229 2F030000 		.4byte	.LASF44
 612 022d 09       		.byte	0x9
 613 022e 3001     		.2byte	0x130
 614 0230 60060000 		.4byte	0x660
 615 0234 38       		.byte	0x38
 616 0235 0D       		.uleb128 0xd
 617 0236 5E050000 		.4byte	.LASF45
 618 023a 09       		.byte	0x9
 619 023b 3401     		.2byte	0x134
 620 023d 2C010000 		.4byte	0x12c
 621 0241 3C       		.byte	0x3c
 622 0242 0D       		.uleb128 0xd
 623 0243 ED000000 		.4byte	.LASF46
 624 0247 09       		.byte	0x9
 625 0248 3A01     		.2byte	0x13a
 626 024a A2000000 		.4byte	0xa2
 627 024e 40       		.byte	0x40
 628 024f 00       		.byte	0
 629 0250 03       		.uleb128 0x3
 630 0251 F9050000 		.4byte	.LASF47
 631 0255 08       		.byte	0x8
 632 0256 44       		.byte	0x44
 633 0257 5B020000 		.4byte	0x25b
 634 025b 0A       		.uleb128 0xa
 635 025c C2040000 		.4byte	.LASF49
 636 0260 04       		.byte	0x4
 637 0261 09       		.byte	0x9
 638 0262 AC       		.byte	0xac
 639 0263 74020000 		.4byte	0x274
 640 0267 0B       		.uleb128 0xb
 641 0268 52030000 		.4byte	.LASF30
 642 026c 09       		.byte	0x9
 643 026d AD       		.byte	0xad
 644 026e F1050000 		.4byte	0x5f1
 645 0272 00       		.byte	0
 646 0273 00       		.byte	0
 647 0274 03       		.uleb128 0x3
 648 0275 B9050000 		.4byte	.LASF50
 649 0279 08       		.byte	0x8
 650 027a 4B       		.byte	0x4b
 651 027b 7F020000 		.4byte	0x27f
 652 027f 0A       		.uleb128 0xa
 653 0280 BB000000 		.4byte	.LASF51
 654 0284 08       		.byte	0x8
 655 0285 09       		.byte	0x9
 656 0286 B3       		.byte	0xb3
 657 0287 A4020000 		.4byte	0x2a4
 658 028b 0B       		.uleb128 0xb
 659 028c 52030000 		.4byte	.LASF30
 660 0290 09       		.byte	0x9
 661 0291 B4       		.byte	0xb4
 662 0292 F1050000 		.4byte	0x5f1
 663 0296 00       		.byte	0
 664 0297 0B       		.uleb128 0xb
ARM GAS  C:\Users\jo\AppData\Local\Temp\ccYoTxPK.s 			page 13


 665 0298 E6020000 		.4byte	.LASF31
 666 029c 09       		.byte	0x9
 667 029d B5       		.byte	0xb5
 668 029e F1050000 		.4byte	0x5f1
 669 02a2 04       		.byte	0x4
 670 02a3 00       		.byte	0
 671 02a4 03       		.uleb128 0x3
 672 02a5 00000000 		.4byte	.LASF52
 673 02a9 08       		.byte	0x8
 674 02aa 52       		.byte	0x52
 675 02ab AF020000 		.4byte	0x2af
 676 02af 0E       		.uleb128 0xe
 677 02b0 12020000 		.4byte	.LASF53
 678 02b4 1C       		.byte	0x1c
 679 02b5 09       		.byte	0x9
 680 02b6 7201     		.2byte	0x172
 681 02b8 0B030000 		.4byte	0x30b
 682 02bc 0D       		.uleb128 0xd
 683 02bd BA040000 		.4byte	.LASF54
 684 02c1 09       		.byte	0x9
 685 02c2 7301     		.2byte	0x173
 686 02c4 74020000 		.4byte	0x274
 687 02c8 00       		.byte	0
 688 02c9 0D       		.uleb128 0xd
 689 02ca 41020000 		.4byte	.LASF55
 690 02ce 09       		.byte	0x9
 691 02cf 7401     		.2byte	0x174
 692 02d1 2C010000 		.4byte	0x12c
 693 02d5 08       		.byte	0x8
 694 02d6 0D       		.uleb128 0xd
 695 02d7 86020000 		.4byte	.LASF56
 696 02db 09       		.byte	0x9
 697 02dc 7601     		.2byte	0x176
 698 02de 71040000 		.4byte	0x471
 699 02e2 0C       		.byte	0xc
 700 02e3 0D       		.uleb128 0xd
 701 02e4 61010000 		.4byte	.LASF57
 702 02e8 09       		.byte	0x9
 703 02e9 7901     		.2byte	0x179
 704 02eb F1050000 		.4byte	0x5f1
 705 02ef 10       		.byte	0x10
 706 02f0 0D       		.uleb128 0xd
 707 02f1 A7020000 		.4byte	.LASF58
 708 02f5 09       		.byte	0x9
 709 02f6 7A01     		.2byte	0x17a
 710 02f8 F1050000 		.4byte	0x5f1
 711 02fc 14       		.byte	0x14
 712 02fd 0D       		.uleb128 0xd
 713 02fe 9D020000 		.4byte	.LASF59
 714 0302 09       		.byte	0x9
 715 0303 7D01     		.2byte	0x17d
 716 0305 F1050000 		.4byte	0x5f1
 717 0309 18       		.byte	0x18
 718 030a 00       		.byte	0
 719 030b 03       		.uleb128 0x3
 720 030c 69050000 		.4byte	.LASF60
 721 0310 08       		.byte	0x8
ARM GAS  C:\Users\jo\AppData\Local\Temp\ccYoTxPK.s 			page 14


 722 0311 57       		.byte	0x57
 723 0312 16030000 		.4byte	0x316
 724 0316 06       		.uleb128 0x6
 725 0317 04       		.byte	0x4
 726 0318 1C030000 		.4byte	0x31c
 727 031c 0F       		.uleb128 0xf
 728 031d 27030000 		.4byte	0x327
 729 0321 10       		.uleb128 0x10
 730 0322 A2000000 		.4byte	0xa2
 731 0326 00       		.byte	0
 732 0327 03       		.uleb128 0x3
 733 0328 D6020000 		.4byte	.LASF61
 734 032c 08       		.byte	0x8
 735 032d 5C       		.byte	0x5c
 736 032e 32030000 		.4byte	0x332
 737 0332 0E       		.uleb128 0xe
 738 0333 95040000 		.4byte	.LASF62
 739 0337 14       		.byte	0x14
 740 0338 09       		.byte	0x9
 741 0339 4D01     		.2byte	0x14d
 742 033b 81030000 		.4byte	0x381
 743 033f 0D       		.uleb128 0xd
 744 0340 A4010000 		.4byte	.LASF63
 745 0344 09       		.byte	0x9
 746 0345 4E01     		.2byte	0x14e
 747 0347 66060000 		.4byte	0x666
 748 034b 00       		.byte	0
 749 034c 0D       		.uleb128 0xd
 750 034d 72010000 		.4byte	.LASF64
 751 0351 09       		.byte	0x9
 752 0352 4F01     		.2byte	0x14f
 753 0354 66060000 		.4byte	0x666
 754 0358 04       		.byte	0x4
 755 0359 0D       		.uleb128 0xd
 756 035a AC010000 		.4byte	.LASF65
 757 035e 09       		.byte	0x9
 758 035f 5001     		.2byte	0x150
 759 0361 4D010000 		.4byte	0x14d
 760 0365 08       		.byte	0x8
 761 0366 0D       		.uleb128 0xd
 762 0367 3C060000 		.4byte	.LASF66
 763 036b 09       		.byte	0x9
 764 036c 5101     		.2byte	0x151
 765 036e 0B030000 		.4byte	0x30b
 766 0372 0C       		.byte	0xc
 767 0373 0D       		.uleb128 0xd
 768 0374 B2050000 		.4byte	.LASF67
 769 0378 09       		.byte	0x9
 770 0379 5301     		.2byte	0x153
 771 037b A2000000 		.4byte	0xa2
 772 037f 10       		.byte	0x10
 773 0380 00       		.byte	0
 774 0381 03       		.uleb128 0x3
 775 0382 98000000 		.4byte	.LASF68
 776 0386 08       		.byte	0x8
 777 0387 61       		.byte	0x61
 778 0388 8C030000 		.4byte	0x38c
ARM GAS  C:\Users\jo\AppData\Local\Temp\ccYoTxPK.s 			page 15


 779 038c 0E       		.uleb128 0xe
 780 038d 5B020000 		.4byte	.LASF69
 781 0391 10       		.byte	0x10
 782 0392 09       		.byte	0x9
 783 0393 5D01     		.2byte	0x15d
 784 0395 CE030000 		.4byte	0x3ce
 785 0399 0D       		.uleb128 0xd
 786 039a A4010000 		.4byte	.LASF63
 787 039e 09       		.byte	0x9
 788 039f 5E01     		.2byte	0x15e
 789 03a1 66060000 		.4byte	0x666
 790 03a5 00       		.byte	0
 791 03a6 0D       		.uleb128 0xd
 792 03a7 72010000 		.4byte	.LASF64
 793 03ab 09       		.byte	0x9
 794 03ac 6001     		.2byte	0x160
 795 03ae 66060000 		.4byte	0x666
 796 03b2 04       		.byte	0x4
 797 03b3 0D       		.uleb128 0xd
 798 03b4 AC010000 		.4byte	.LASF65
 799 03b8 09       		.byte	0x9
 800 03b9 6201     		.2byte	0x162
 801 03bb 4D010000 		.4byte	0x14d
 802 03bf 08       		.byte	0x8
 803 03c0 0D       		.uleb128 0xd
 804 03c1 72020000 		.4byte	.LASF70
 805 03c5 09       		.byte	0x9
 806 03c6 6A01     		.2byte	0x16a
 807 03c8 4D010000 		.4byte	0x14d
 808 03cc 0C       		.byte	0xc
 809 03cd 00       		.byte	0
 810 03ce 03       		.uleb128 0x3
 811 03cf 3A000000 		.4byte	.LASF71
 812 03d3 08       		.byte	0x8
 813 03d4 66       		.byte	0x66
 814 03d5 D9030000 		.4byte	0x3d9
 815 03d9 0E       		.uleb128 0xe
 816 03da FB020000 		.4byte	.LASF72
 817 03de 04       		.byte	0x4
 818 03df 09       		.byte	0x9
 819 03e0 8401     		.2byte	0x184
 820 03e2 F4030000 		.4byte	0x3f4
 821 03e6 0D       		.uleb128 0xd
 822 03e7 8B050000 		.4byte	.LASF73
 823 03eb 09       		.byte	0x9
 824 03ec 8C01     		.2byte	0x18c
 825 03ee 6C060000 		.4byte	0x66c
 826 03f2 00       		.byte	0
 827 03f3 00       		.byte	0
 828 03f4 03       		.uleb128 0x3
 829 03f5 FE010000 		.4byte	.LASF74
 830 03f9 08       		.byte	0x8
 831 03fa 6B       		.byte	0x6b
 832 03fb FF030000 		.4byte	0x3ff
 833 03ff 11       		.uleb128 0x11
 834 0400 22010000 		.4byte	.LASF75
 835 0404 D801     		.2byte	0x1d8
ARM GAS  C:\Users\jo\AppData\Local\Temp\ccYoTxPK.s 			page 16


 836 0406 09       		.byte	0x9
 837 0407 A401     		.2byte	0x1a4
 838 0409 5B040000 		.4byte	0x45b
 839 040d 0D       		.uleb128 0xd
 840 040e D7050000 		.4byte	.LASF76
 841 0412 09       		.byte	0x9
 842 0413 A801     		.2byte	0x1a8
 843 0415 A4020000 		.4byte	0x2a4
 844 0419 00       		.byte	0
 845 041a 0D       		.uleb128 0xd
 846 041b 0F010000 		.4byte	.LASF77
 847 041f 09       		.byte	0x9
 848 0420 AC01     		.2byte	0x1ac
 849 0422 81030000 		.4byte	0x381
 850 0426 1C       		.byte	0x1c
 851 0427 0C       		.uleb128 0xc
 852 0428 64626700 		.ascii	"dbg\000"
 853 042c 09       		.byte	0x9
 854 042d B001     		.2byte	0x1b0
 855 042f CE030000 		.4byte	0x3ce
 856 0433 2C       		.byte	0x2c
 857 0434 0D       		.uleb128 0xd
 858 0435 82000000 		.4byte	.LASF78
 859 0439 09       		.byte	0x9
 860 043a B401     		.2byte	0x1b4
 861 043c 58010000 		.4byte	0x158
 862 0440 30       		.byte	0x30
 863 0441 0C       		.uleb128 0xc
 864 0442 746D00   		.ascii	"tm\000"
 865 0445 09       		.byte	0x9
 866 0446 B901     		.2byte	0x1b9
 867 0448 E6050000 		.4byte	0x5e6
 868 044c 74       		.byte	0x74
 869 044d 0D       		.uleb128 0xd
 870 044e 88010000 		.4byte	.LASF79
 871 0452 09       		.byte	0x9
 872 0453 C501     		.2byte	0x1c5
 873 0455 71060000 		.4byte	0x671
 874 0459 78       		.byte	0x78
 875 045a 00       		.byte	0
 876 045b 03       		.uleb128 0x3
 877 045c 69010000 		.4byte	.LASF80
 878 0460 0A       		.byte	0xa
 879 0461 85       		.byte	0x85
 880 0462 A2000000 		.4byte	0xa2
 881 0466 03       		.uleb128 0x3
 882 0467 36020000 		.4byte	.LASF81
 883 046b 0A       		.byte	0xa
 884 046c 8D       		.byte	0x8d
 885 046d F0000000 		.4byte	0xf0
 886 0471 0A       		.uleb128 0xa
 887 0472 A2050000 		.4byte	.LASF82
 888 0476 04       		.byte	0x4
 889 0477 0A       		.byte	0xa
 890 0478 A9       		.byte	0xa9
 891 0479 8A040000 		.4byte	0x48a
 892 047d 12       		.uleb128 0x12
ARM GAS  C:\Users\jo\AppData\Local\Temp\ccYoTxPK.s 			page 17


 893 047e 72313300 		.ascii	"r13\000"
 894 0482 0A       		.byte	0xa
 895 0483 AA       		.byte	0xaa
 896 0484 CB050000 		.4byte	0x5cb
 897 0488 00       		.byte	0
 898 0489 00       		.byte	0
 899 048a 0A       		.uleb128 0xa
 900 048b 2E000000 		.4byte	.LASF83
 901 048f 64       		.byte	0x64
 902 0490 0B       		.byte	0xb
 903 0491 F4       		.byte	0xf4
 904 0492 CB050000 		.4byte	0x5cb
 905 0496 12       		.uleb128 0x12
 906 0497 73313600 		.ascii	"s16\000"
 907 049b 0B       		.byte	0xb
 908 049c F6       		.byte	0xf6
 909 049d 5B040000 		.4byte	0x45b
 910 04a1 00       		.byte	0
 911 04a2 12       		.uleb128 0x12
 912 04a3 73313700 		.ascii	"s17\000"
 913 04a7 0B       		.byte	0xb
 914 04a8 F7       		.byte	0xf7
 915 04a9 5B040000 		.4byte	0x45b
 916 04ad 04       		.byte	0x4
 917 04ae 12       		.uleb128 0x12
 918 04af 73313800 		.ascii	"s18\000"
 919 04b3 0B       		.byte	0xb
 920 04b4 F8       		.byte	0xf8
 921 04b5 5B040000 		.4byte	0x45b
 922 04b9 08       		.byte	0x8
 923 04ba 12       		.uleb128 0x12
 924 04bb 73313900 		.ascii	"s19\000"
 925 04bf 0B       		.byte	0xb
 926 04c0 F9       		.byte	0xf9
 927 04c1 5B040000 		.4byte	0x45b
 928 04c5 0C       		.byte	0xc
 929 04c6 12       		.uleb128 0x12
 930 04c7 73323000 		.ascii	"s20\000"
 931 04cb 0B       		.byte	0xb
 932 04cc FA       		.byte	0xfa
 933 04cd 5B040000 		.4byte	0x45b
 934 04d1 10       		.byte	0x10
 935 04d2 12       		.uleb128 0x12
 936 04d3 73323100 		.ascii	"s21\000"
 937 04d7 0B       		.byte	0xb
 938 04d8 FB       		.byte	0xfb
 939 04d9 5B040000 		.4byte	0x45b
 940 04dd 14       		.byte	0x14
 941 04de 12       		.uleb128 0x12
 942 04df 73323200 		.ascii	"s22\000"
 943 04e3 0B       		.byte	0xb
 944 04e4 FC       		.byte	0xfc
 945 04e5 5B040000 		.4byte	0x45b
 946 04e9 18       		.byte	0x18
 947 04ea 12       		.uleb128 0x12
 948 04eb 73323300 		.ascii	"s23\000"
 949 04ef 0B       		.byte	0xb
ARM GAS  C:\Users\jo\AppData\Local\Temp\ccYoTxPK.s 			page 18


 950 04f0 FD       		.byte	0xfd
 951 04f1 5B040000 		.4byte	0x45b
 952 04f5 1C       		.byte	0x1c
 953 04f6 12       		.uleb128 0x12
 954 04f7 73323400 		.ascii	"s24\000"
 955 04fb 0B       		.byte	0xb
 956 04fc FE       		.byte	0xfe
 957 04fd 5B040000 		.4byte	0x45b
 958 0501 20       		.byte	0x20
 959 0502 12       		.uleb128 0x12
 960 0503 73323500 		.ascii	"s25\000"
 961 0507 0B       		.byte	0xb
 962 0508 FF       		.byte	0xff
 963 0509 5B040000 		.4byte	0x45b
 964 050d 24       		.byte	0x24
 965 050e 0C       		.uleb128 0xc
 966 050f 73323600 		.ascii	"s26\000"
 967 0513 0B       		.byte	0xb
 968 0514 0001     		.2byte	0x100
 969 0516 5B040000 		.4byte	0x45b
 970 051a 28       		.byte	0x28
 971 051b 0C       		.uleb128 0xc
 972 051c 73323700 		.ascii	"s27\000"
 973 0520 0B       		.byte	0xb
 974 0521 0101     		.2byte	0x101
 975 0523 5B040000 		.4byte	0x45b
 976 0527 2C       		.byte	0x2c
 977 0528 0C       		.uleb128 0xc
 978 0529 73323800 		.ascii	"s28\000"
 979 052d 0B       		.byte	0xb
 980 052e 0201     		.2byte	0x102
 981 0530 5B040000 		.4byte	0x45b
 982 0534 30       		.byte	0x30
 983 0535 0C       		.uleb128 0xc
 984 0536 73323900 		.ascii	"s29\000"
 985 053a 0B       		.byte	0xb
 986 053b 0301     		.2byte	0x103
 987 053d 5B040000 		.4byte	0x45b
 988 0541 34       		.byte	0x34
 989 0542 0C       		.uleb128 0xc
 990 0543 73333000 		.ascii	"s30\000"
 991 0547 0B       		.byte	0xb
 992 0548 0401     		.2byte	0x104
 993 054a 5B040000 		.4byte	0x45b
 994 054e 38       		.byte	0x38
 995 054f 0C       		.uleb128 0xc
 996 0550 73333100 		.ascii	"s31\000"
 997 0554 0B       		.byte	0xb
 998 0555 0501     		.2byte	0x105
 999 0557 5B040000 		.4byte	0x45b
 1000 055b 3C       		.byte	0x3c
 1001 055c 0C       		.uleb128 0xc
 1002 055d 723400   		.ascii	"r4\000"
 1003 0560 0B       		.byte	0xb
 1004 0561 0701     		.2byte	0x107
 1005 0563 5B040000 		.4byte	0x45b
 1006 0567 40       		.byte	0x40
ARM GAS  C:\Users\jo\AppData\Local\Temp\ccYoTxPK.s 			page 19


 1007 0568 0C       		.uleb128 0xc
 1008 0569 723500   		.ascii	"r5\000"
 1009 056c 0B       		.byte	0xb
 1010 056d 0801     		.2byte	0x108
 1011 056f 5B040000 		.4byte	0x45b
 1012 0573 44       		.byte	0x44
 1013 0574 0C       		.uleb128 0xc
 1014 0575 723600   		.ascii	"r6\000"
 1015 0578 0B       		.byte	0xb
 1016 0579 0901     		.2byte	0x109
 1017 057b 5B040000 		.4byte	0x45b
 1018 057f 48       		.byte	0x48
 1019 0580 0C       		.uleb128 0xc
 1020 0581 723700   		.ascii	"r7\000"
 1021 0584 0B       		.byte	0xb
 1022 0585 0A01     		.2byte	0x10a
 1023 0587 5B040000 		.4byte	0x45b
 1024 058b 4C       		.byte	0x4c
 1025 058c 0C       		.uleb128 0xc
 1026 058d 723800   		.ascii	"r8\000"
 1027 0590 0B       		.byte	0xb
 1028 0591 0B01     		.2byte	0x10b
 1029 0593 5B040000 		.4byte	0x45b
 1030 0597 50       		.byte	0x50
 1031 0598 0C       		.uleb128 0xc
 1032 0599 723900   		.ascii	"r9\000"
 1033 059c 0B       		.byte	0xb
 1034 059d 0C01     		.2byte	0x10c
 1035 059f 5B040000 		.4byte	0x45b
 1036 05a3 54       		.byte	0x54
 1037 05a4 0C       		.uleb128 0xc
 1038 05a5 72313000 		.ascii	"r10\000"
 1039 05a9 0B       		.byte	0xb
 1040 05aa 0D01     		.2byte	0x10d
 1041 05ac 5B040000 		.4byte	0x45b
 1042 05b0 58       		.byte	0x58
 1043 05b1 0C       		.uleb128 0xc
 1044 05b2 72313100 		.ascii	"r11\000"
 1045 05b6 0B       		.byte	0xb
 1046 05b7 0E01     		.2byte	0x10e
 1047 05b9 5B040000 		.4byte	0x45b
 1048 05bd 5C       		.byte	0x5c
 1049 05be 0C       		.uleb128 0xc
 1050 05bf 6C7200   		.ascii	"lr\000"
 1051 05c2 0B       		.byte	0xb
 1052 05c3 0F01     		.2byte	0x10f
 1053 05c5 5B040000 		.4byte	0x45b
 1054 05c9 60       		.byte	0x60
 1055 05ca 00       		.byte	0
 1056 05cb 06       		.uleb128 0x6
 1057 05cc 04       		.byte	0x4
 1058 05cd 8A040000 		.4byte	0x48a
 1059 05d1 13       		.uleb128 0x13
 1060 05d2 04       		.byte	0x4
 1061 05d3 0C       		.byte	0xc
 1062 05d4 38       		.byte	0x38
 1063 05d5 E6050000 		.4byte	0x5e6
ARM GAS  C:\Users\jo\AppData\Local\Temp\ccYoTxPK.s 			page 20


 1064 05d9 0B       		.uleb128 0xb
 1065 05da 95050000 		.4byte	.LASF84
 1066 05de 0C       		.byte	0xc
 1067 05df 3C       		.byte	0x3c
 1068 05e0 00010000 		.4byte	0x100
 1069 05e4 00       		.byte	0
 1070 05e5 00       		.byte	0
 1071 05e6 03       		.uleb128 0x3
 1072 05e7 8C020000 		.4byte	.LASF85
 1073 05eb 0C       		.byte	0xc
 1074 05ec 3D       		.byte	0x3d
 1075 05ed D1050000 		.4byte	0x5d1
 1076 05f1 06       		.uleb128 0x6
 1077 05f2 04       		.byte	0x4
 1078 05f3 58010000 		.4byte	0x158
 1079 05f7 14       		.uleb128 0x14
 1080 05f8 04       		.byte	0x4
 1081 05f9 09       		.byte	0x9
 1082 05fa F6       		.byte	0xf6
 1083 05fb 2F060000 		.4byte	0x62f
 1084 05ff 15       		.uleb128 0x15
 1085 0600 14000000 		.4byte	.LASF86
 1086 0604 09       		.byte	0x9
 1087 0605 FD       		.byte	0xfd
 1088 0606 37010000 		.4byte	0x137
 1089 060a 16       		.uleb128 0x16
 1090 060b 79000000 		.4byte	.LASF87
 1091 060f 09       		.byte	0x9
 1092 0610 0401     		.2byte	0x104
 1093 0612 37010000 		.4byte	0x137
 1094 0616 16       		.uleb128 0x16
 1095 0617 E5050000 		.4byte	.LASF88
 1096 061b 09       		.byte	0x9
 1097 061c 0B01     		.2byte	0x10b
 1098 061e A2000000 		.4byte	0xa2
 1099 0622 16       		.uleb128 0x16
 1100 0623 4B030000 		.4byte	.LASF89
 1101 0627 09       		.byte	0x9
 1102 0628 1201     		.2byte	0x112
 1103 062a 42010000 		.4byte	0x142
 1104 062e 00       		.byte	0
 1105 062f 0A       		.uleb128 0xa
 1106 0630 F5020000 		.4byte	.LASF90
 1107 0634 10       		.byte	0x10
 1108 0635 0D       		.byte	0xd
 1109 0636 39       		.byte	0x39
 1110 0637 60060000 		.4byte	0x660
 1111 063b 0B       		.uleb128 0xb
 1112 063c F5000000 		.4byte	.LASF91
 1113 0640 0D       		.byte	0xd
 1114 0641 3A       		.byte	0x3a
 1115 0642 74020000 		.4byte	0x274
 1116 0646 00       		.byte	0
 1117 0647 0B       		.uleb128 0xb
 1118 0648 27060000 		.4byte	.LASF92
 1119 064c 0D       		.byte	0xd
 1120 064d 3C       		.byte	0x3c
ARM GAS  C:\Users\jo\AppData\Local\Temp\ccYoTxPK.s 			page 21


 1121 064e F1050000 		.4byte	0x5f1
 1122 0652 08       		.byte	0x8
 1123 0653 0B       		.uleb128 0xb
 1124 0654 4D050000 		.4byte	.LASF93
 1125 0658 0D       		.byte	0xd
 1126 0659 3E       		.byte	0x3e
 1127 065a 8C060000 		.4byte	0x68c
 1128 065e 0C       		.byte	0xc
 1129 065f 00       		.byte	0
 1130 0660 06       		.uleb128 0x6
 1131 0661 04       		.byte	0x4
 1132 0662 2F060000 		.4byte	0x62f
 1133 0666 06       		.uleb128 0x6
 1134 0667 04       		.byte	0x4
 1135 0668 27030000 		.4byte	0x327
 1136 066c 09       		.uleb128 0x9
 1137 066d B9000000 		.4byte	0xb9
 1138 0671 17       		.uleb128 0x17
 1139 0672 66040000 		.4byte	0x466
 1140 0676 81060000 		.4byte	0x681
 1141 067a 18       		.uleb128 0x18
 1142 067b A4000000 		.4byte	0xa4
 1143 067f 2B       		.byte	0x2b
 1144 0680 00       		.byte	0
 1145 0681 03       		.uleb128 0x3
 1146 0682 7A010000 		.4byte	.LASF94
 1147 0686 0D       		.byte	0xd
 1148 0687 34       		.byte	0x34
 1149 0688 2F060000 		.4byte	0x62f
 1150 068c 06       		.uleb128 0x6
 1151 068d 04       		.byte	0x4
 1152 068e 81060000 		.4byte	0x681
 1153 0692 02       		.uleb128 0x2
 1154 0693 01       		.byte	0x1
 1155 0694 02       		.byte	0x2
 1156 0695 0B030000 		.4byte	.LASF95
 1157 0699 03       		.uleb128 0x3
 1158 069a 83040000 		.4byte	.LASF96
 1159 069e 0E       		.byte	0xe
 1160 069f 0F       		.byte	0xf
 1161 06a0 70000000 		.4byte	0x70
 1162 06a4 19       		.uleb128 0x19
 1163 06a5 7D050000 		.4byte	.LASF100
 1164 06a9 02       		.byte	0x2
 1165 06aa 2002     		.2byte	0x220
 1166 06ac 03       		.byte	0x3
 1167 06ad BE060000 		.4byte	0x6be
 1168 06b1 1A       		.uleb128 0x1a
 1169 06b2 82010000 		.4byte	.LASF118
 1170 06b6 02       		.byte	0x2
 1171 06b7 2002     		.2byte	0x220
 1172 06b9 E5000000 		.4byte	0xe5
 1173 06bd 00       		.byte	0
 1174 06be 1B       		.uleb128 0x1b
 1175 06bf 4E000000 		.4byte	.LASF97
 1176 06c3 0B       		.byte	0xb
 1177 06c4 BB01     		.2byte	0x1bb
ARM GAS  C:\Users\jo\AppData\Local\Temp\ccYoTxPK.s 			page 22


 1178 06c6 03       		.byte	0x3
 1179 06c7 1B       		.uleb128 0x1b
 1180 06c8 16010000 		.4byte	.LASF98
 1181 06cc 0B       		.byte	0xb
 1182 06cd C901     		.2byte	0x1c9
 1183 06cf 03       		.byte	0x3
 1184 06d0 1B       		.uleb128 0x1b
 1185 06d1 8B040000 		.4byte	.LASF99
 1186 06d5 0F       		.byte	0xf
 1187 06d6 2901     		.2byte	0x129
 1188 06d8 03       		.byte	0x3
 1189 06d9 19       		.uleb128 0x19
 1190 06da 08060000 		.4byte	.LASF101
 1191 06de 0F       		.byte	0xf
 1192 06df 3501     		.2byte	0x135
 1193 06e1 03       		.byte	0x3
 1194 06e2 F4060000 		.4byte	0x6f4
 1195 06e6 1C       		.uleb128 0x1c
 1196 06e7 7A040000 		.4byte	.LASF119
 1197 06eb 04070000 		.4byte	0x704
 1198 06ef 08060000 		.4byte	.LASF101
 1199 06f3 00       		.byte	0
 1200 06f4 17       		.uleb128 0x17
 1201 06f5 B2000000 		.4byte	0xb2
 1202 06f9 04070000 		.4byte	0x704
 1203 06fd 18       		.uleb128 0x18
 1204 06fe A4000000 		.4byte	0xa4
 1205 0702 0B       		.byte	0xb
 1206 0703 00       		.byte	0
 1207 0704 08       		.uleb128 0x8
 1208 0705 F4060000 		.4byte	0x6f4
 1209 0709 1D       		.uleb128 0x1d
 1210 070a E8010000 		.4byte	.LASF102
 1211 070e 01       		.byte	0x1
 1212 070f 15       		.byte	0x15
 1213 0710 00000000 		.4byte	.LFB256
 1214 0714 10000000 		.4byte	.LFE256-.LFB256
 1215 0718 01       		.uleb128 0x1
 1216 0719 9C       		.byte	0x9c
 1217 071a 41070000 		.4byte	0x741
 1218 071e 1E       		.uleb128 0x1e
 1219 071f D0050000 		.4byte	.LASF104
 1220 0723 01       		.byte	0x1
 1221 0724 15       		.byte	0x15
 1222 0725 89000000 		.4byte	0x89
 1223 0729 00000000 		.4byte	.LLST0
 1224 072d 1F       		.uleb128 0x1f
 1225 072e 08000000 		.4byte	.LVL2
 1226 0732 2D0A0000 		.4byte	0xa2d
 1227 0736 20       		.uleb128 0x20
 1228 0737 01       		.uleb128 0x1
 1229 0738 50       		.byte	0x50
 1230 0739 05       		.uleb128 0x5
 1231 073a 03       		.byte	0x3
 1232 073b 00000000 		.4byte	.LC0
 1233 073f 00       		.byte	0
 1234 0740 00       		.byte	0
ARM GAS  C:\Users\jo\AppData\Local\Temp\ccYoTxPK.s 			page 23


 1235 0741 21       		.uleb128 0x21
 1236 0742 3E010000 		.4byte	.LASF120
 1237 0746 01       		.byte	0x1
 1238 0747 1C       		.byte	0x1c
 1239 0748 C4000000 		.4byte	0xc4
 1240 074c 00000000 		.4byte	.LFB257
 1241 0750 04000000 		.4byte	.LFE257-.LFB257
 1242 0754 01       		.uleb128 0x1
 1243 0755 9C       		.byte	0x9c
 1244 0756 1D       		.uleb128 0x1d
 1245 0757 9C050000 		.4byte	.LASF103
 1246 075b 01       		.byte	0x1
 1247 075c 20       		.byte	0x20
 1248 075d 00000000 		.4byte	.LFB258
 1249 0761 02000000 		.4byte	.LFE258-.LFB258
 1250 0765 01       		.uleb128 0x1
 1251 0766 9C       		.byte	0x9c
 1252 0767 78070000 		.4byte	0x778
 1253 076b 22       		.uleb128 0x22
 1254 076c 696400   		.ascii	"id\000"
 1255 076f 01       		.byte	0x1
 1256 0770 20       		.byte	0x20
 1257 0771 C4000000 		.4byte	0xc4
 1258 0775 01       		.uleb128 0x1
 1259 0776 50       		.byte	0x50
 1260 0777 00       		.byte	0
 1261 0778 1D       		.uleb128 0x1d
 1262 0779 D2040000 		.4byte	.LASF105
 1263 077d 01       		.byte	0x1
 1264 077e 24       		.byte	0x24
 1265 077f 00000000 		.4byte	.LFB259
 1266 0783 0C000000 		.4byte	.LFE259-.LFB259
 1267 0787 01       		.uleb128 0x1
 1268 0788 9C       		.byte	0x9c
 1269 0789 B2070000 		.4byte	0x7b2
 1270 078d 23       		.uleb128 0x23
 1271 078e 8D000000 		.4byte	.LASF113
 1272 0792 01       		.byte	0x1
 1273 0793 25       		.byte	0x25
 1274 0794 89000000 		.4byte	0x89
 1275 0798 9E070000 		.4byte	0x79e
 1276 079c 24       		.uleb128 0x24
 1277 079d 00       		.byte	0
 1278 079e 25       		.uleb128 0x25
 1279 079f 06000000 		.4byte	.LVL4
 1280 07a3 3E0A0000 		.4byte	0xa3e
 1281 07a7 20       		.uleb128 0x20
 1282 07a8 01       		.uleb128 0x1
 1283 07a9 50       		.byte	0x50
 1284 07aa 05       		.uleb128 0x5
 1285 07ab 03       		.byte	0x3
 1286 07ac 08000000 		.4byte	.LC1
 1287 07b0 00       		.byte	0
 1288 07b1 00       		.byte	0
 1289 07b2 26       		.uleb128 0x26
 1290 07b3 AF020000 		.4byte	.LASF108
 1291 07b7 01       		.byte	0x1
ARM GAS  C:\Users\jo\AppData\Local\Temp\ccYoTxPK.s 			page 24


 1292 07b8 28       		.byte	0x28
 1293 07b9 89000000 		.4byte	0x89
 1294 07bd 00000000 		.4byte	.LFB260
 1295 07c1 16000000 		.4byte	.LFE260-.LFB260
 1296 07c5 01       		.uleb128 0x1
 1297 07c6 9C       		.byte	0x9c
 1298 07c7 65080000 		.4byte	0x865
 1299 07cb 27       		.uleb128 0x27
 1300 07cc 6700     		.ascii	"g\000"
 1301 07ce 01       		.byte	0x1
 1302 07cf 28       		.byte	0x28
 1303 07d0 65080000 		.4byte	0x865
 1304 07d4 21000000 		.4byte	.LLST1
 1305 07d8 28       		.uleb128 0x28
 1306 07d9 2F060000 		.4byte	.LASF121
 1307 07dd 01       		.byte	0x1
 1308 07de 2A       		.byte	0x2a
 1309 07df 6B080000 		.4byte	0x86b
 1310 07e3 01       		.uleb128 0x1
 1311 07e4 50       		.byte	0x50
 1312 07e5 29       		.uleb128 0x29
 1313 07e6 D0060000 		.4byte	0x6d0
 1314 07ea 00000000 		.4byte	.LBB44
 1315 07ee 06000000 		.4byte	.LBE44-.LBB44
 1316 07f2 01       		.byte	0x1
 1317 07f3 29       		.byte	0x29
 1318 07f4 21080000 		.4byte	0x821
 1319 07f8 2A       		.uleb128 0x2a
 1320 07f9 BE060000 		.4byte	0x6be
 1321 07fd 00000000 		.4byte	.LBB45
 1322 0801 06000000 		.4byte	.LBE45-.LBB45
 1323 0805 0F       		.byte	0xf
 1324 0806 2B01     		.2byte	0x12b
 1325 0808 2A       		.uleb128 0x2a
 1326 0809 A4060000 		.4byte	0x6a4
 1327 080d 00000000 		.4byte	.LBB46
 1328 0811 06000000 		.4byte	.LBE46-.LBB46
 1329 0815 0B       		.byte	0xb
 1330 0816 BE01     		.2byte	0x1be
 1331 0818 2B       		.uleb128 0x2b
 1332 0819 B1060000 		.4byte	0x6b1
 1333 081d 20       		.byte	0x20
 1334 081e 00       		.byte	0
 1335 081f 00       		.byte	0
 1336 0820 00       		.byte	0
 1337 0821 2C       		.uleb128 0x2c
 1338 0822 D9060000 		.4byte	0x6d9
 1339 0826 06000000 		.4byte	.LBB48
 1340 082a 00000000 		.4byte	.Ldebug_ranges0+0
 1341 082e 01       		.byte	0x1
 1342 082f 2B       		.byte	0x2b
 1343 0830 2D       		.uleb128 0x2d
 1344 0831 00000000 		.4byte	.Ldebug_ranges0+0
 1345 0835 2E       		.uleb128 0x2e
 1346 0836 E6060000 		.4byte	0x6e6
 1347 083a 2F       		.uleb128 0x2f
 1348 083b C7060000 		.4byte	0x6c7
ARM GAS  C:\Users\jo\AppData\Local\Temp\ccYoTxPK.s 			page 25


 1349 083f 06000000 		.4byte	.LBB50
 1350 0843 00000000 		.4byte	.Ldebug_ranges0+0
 1351 0847 0F       		.byte	0xf
 1352 0848 4101     		.2byte	0x141
 1353 084a 2F       		.uleb128 0x2f
 1354 084b A4060000 		.4byte	0x6a4
 1355 084f 06000000 		.4byte	.LBB51
 1356 0853 00000000 		.4byte	.Ldebug_ranges0+0
 1357 0857 0B       		.byte	0xb
 1358 0858 CC01     		.2byte	0x1cc
 1359 085a 2B       		.uleb128 0x2b
 1360 085b B1060000 		.4byte	0x6b1
 1361 085f 00       		.byte	0
 1362 0860 00       		.byte	0
 1363 0861 00       		.byte	0
 1364 0862 00       		.byte	0
 1365 0863 00       		.byte	0
 1366 0864 00       		.byte	0
 1367 0865 06       		.uleb128 0x6
 1368 0866 04       		.byte	0x4
 1369 0867 99060000 		.4byte	0x699
 1370 086b 08       		.uleb128 0x8
 1371 086c 89000000 		.4byte	0x89
 1372 0870 1D       		.uleb128 0x1d
 1373 0871 D4010000 		.4byte	.LASF106
 1374 0875 01       		.byte	0x1
 1375 0876 30       		.byte	0x30
 1376 0877 00000000 		.4byte	.LFB261
 1377 087b 12000000 		.4byte	.LFE261-.LFB261
 1378 087f 01       		.uleb128 0x1
 1379 0880 9C       		.byte	0x9c
 1380 0881 14090000 		.4byte	0x914
 1381 0885 22       		.uleb128 0x22
 1382 0886 6700     		.ascii	"g\000"
 1383 0888 01       		.byte	0x1
 1384 0889 30       		.byte	0x30
 1385 088a 65080000 		.4byte	0x865
 1386 088e 01       		.uleb128 0x1
 1387 088f 50       		.byte	0x50
 1388 0890 29       		.uleb128 0x29
 1389 0891 D0060000 		.4byte	0x6d0
 1390 0895 00000000 		.4byte	.LBB58
 1391 0899 06000000 		.4byte	.LBE58-.LBB58
 1392 089d 01       		.byte	0x1
 1393 089e 31       		.byte	0x31
 1394 089f CC080000 		.4byte	0x8cc
 1395 08a3 2A       		.uleb128 0x2a
 1396 08a4 BE060000 		.4byte	0x6be
 1397 08a8 00000000 		.4byte	.LBB59
 1398 08ac 06000000 		.4byte	.LBE59-.LBB59
 1399 08b0 0F       		.byte	0xf
 1400 08b1 2B01     		.2byte	0x12b
 1401 08b3 2A       		.uleb128 0x2a
 1402 08b4 A4060000 		.4byte	0x6a4
 1403 08b8 00000000 		.4byte	.LBB60
 1404 08bc 06000000 		.4byte	.LBE60-.LBB60
 1405 08c0 0B       		.byte	0xb
ARM GAS  C:\Users\jo\AppData\Local\Temp\ccYoTxPK.s 			page 26


 1406 08c1 BE01     		.2byte	0x1be
 1407 08c3 2B       		.uleb128 0x2b
 1408 08c4 B1060000 		.4byte	0x6b1
 1409 08c8 20       		.byte	0x20
 1410 08c9 00       		.byte	0
 1411 08ca 00       		.byte	0
 1412 08cb 00       		.byte	0
 1413 08cc 30       		.uleb128 0x30
 1414 08cd D9060000 		.4byte	0x6d9
 1415 08d1 0A000000 		.4byte	.LBB62
 1416 08d5 08000000 		.4byte	.LBE62-.LBB62
 1417 08d9 01       		.byte	0x1
 1418 08da 33       		.byte	0x33
 1419 08db 31       		.uleb128 0x31
 1420 08dc 0A000000 		.4byte	.LBB63
 1421 08e0 08000000 		.4byte	.LBE63-.LBB63
 1422 08e4 2E       		.uleb128 0x2e
 1423 08e5 E6060000 		.4byte	0x6e6
 1424 08e9 2A       		.uleb128 0x2a
 1425 08ea C7060000 		.4byte	0x6c7
 1426 08ee 0A000000 		.4byte	.LBB64
 1427 08f2 08000000 		.4byte	.LBE64-.LBB64
 1428 08f6 0F       		.byte	0xf
 1429 08f7 4101     		.2byte	0x141
 1430 08f9 2A       		.uleb128 0x2a
 1431 08fa A4060000 		.4byte	0x6a4
 1432 08fe 0A000000 		.4byte	.LBB65
 1433 0902 08000000 		.4byte	.LBE65-.LBB65
 1434 0906 0B       		.byte	0xb
 1435 0907 CC01     		.2byte	0x1cc
 1436 0909 2B       		.uleb128 0x2b
 1437 090a B1060000 		.4byte	0x6b1
 1438 090e 00       		.byte	0
 1439 090f 00       		.byte	0
 1440 0910 00       		.byte	0
 1441 0911 00       		.byte	0
 1442 0912 00       		.byte	0
 1443 0913 00       		.byte	0
 1444 0914 1D       		.uleb128 0x1d
 1445 0915 FD000000 		.4byte	.LASF107
 1446 0919 01       		.byte	0x1
 1447 091a 36       		.byte	0x36
 1448 091b 00000000 		.4byte	.LFB262
 1449 091f 12000000 		.4byte	.LFE262-.LFB262
 1450 0923 01       		.uleb128 0x1
 1451 0924 9C       		.byte	0x9c
 1452 0925 B8090000 		.4byte	0x9b8
 1453 0929 22       		.uleb128 0x22
 1454 092a 6700     		.ascii	"g\000"
 1455 092c 01       		.byte	0x1
 1456 092d 36       		.byte	0x36
 1457 092e 65080000 		.4byte	0x865
 1458 0932 01       		.uleb128 0x1
 1459 0933 50       		.byte	0x50
 1460 0934 29       		.uleb128 0x29
 1461 0935 D0060000 		.4byte	0x6d0
 1462 0939 00000000 		.4byte	.LBB67
ARM GAS  C:\Users\jo\AppData\Local\Temp\ccYoTxPK.s 			page 27


 1463 093d 06000000 		.4byte	.LBE67-.LBB67
 1464 0941 01       		.byte	0x1
 1465 0942 37       		.byte	0x37
 1466 0943 70090000 		.4byte	0x970
 1467 0947 2A       		.uleb128 0x2a
 1468 0948 BE060000 		.4byte	0x6be
 1469 094c 00000000 		.4byte	.LBB68
 1470 0950 06000000 		.4byte	.LBE68-.LBB68
 1471 0954 0F       		.byte	0xf
 1472 0955 2B01     		.2byte	0x12b
 1473 0957 2A       		.uleb128 0x2a
 1474 0958 A4060000 		.4byte	0x6a4
 1475 095c 00000000 		.4byte	.LBB69
 1476 0960 06000000 		.4byte	.LBE69-.LBB69
 1477 0964 0B       		.byte	0xb
 1478 0965 BE01     		.2byte	0x1be
 1479 0967 2B       		.uleb128 0x2b
 1480 0968 B1060000 		.4byte	0x6b1
 1481 096c 20       		.byte	0x20
 1482 096d 00       		.byte	0
 1483 096e 00       		.byte	0
 1484 096f 00       		.byte	0
 1485 0970 30       		.uleb128 0x30
 1486 0971 D9060000 		.4byte	0x6d9
 1487 0975 0A000000 		.4byte	.LBB71
 1488 0979 08000000 		.4byte	.LBE71-.LBB71
 1489 097d 01       		.byte	0x1
 1490 097e 39       		.byte	0x39
 1491 097f 31       		.uleb128 0x31
 1492 0980 0A000000 		.4byte	.LBB72
 1493 0984 08000000 		.4byte	.LBE72-.LBB72
 1494 0988 2E       		.uleb128 0x2e
 1495 0989 E6060000 		.4byte	0x6e6
 1496 098d 2A       		.uleb128 0x2a
 1497 098e C7060000 		.4byte	0x6c7
 1498 0992 0A000000 		.4byte	.LBB73
 1499 0996 08000000 		.4byte	.LBE73-.LBB73
 1500 099a 0F       		.byte	0xf
 1501 099b 4101     		.2byte	0x141
 1502 099d 2A       		.uleb128 0x2a
 1503 099e A4060000 		.4byte	0x6a4
 1504 09a2 0A000000 		.4byte	.LBB74
 1505 09a6 08000000 		.4byte	.LBE74-.LBB74
 1506 09aa 0B       		.byte	0xb
 1507 09ab CC01     		.2byte	0x1cc
 1508 09ad 2B       		.uleb128 0x2b
 1509 09ae B1060000 		.4byte	0x6b1
 1510 09b2 00       		.byte	0
 1511 09b3 00       		.byte	0
 1512 09b4 00       		.byte	0
 1513 09b5 00       		.byte	0
 1514 09b6 00       		.byte	0
 1515 09b7 00       		.byte	0
 1516 09b8 26       		.uleb128 0x26
 1517 09b9 B5010000 		.4byte	.LASF109
 1518 09bd 01       		.byte	0x1
 1519 09be 4D       		.byte	0x4d
ARM GAS  C:\Users\jo\AppData\Local\Temp\ccYoTxPK.s 			page 28


 1520 09bf 89000000 		.4byte	0x89
 1521 09c3 00000000 		.4byte	.LFB263
 1522 09c7 04000000 		.4byte	.LFE263-.LFB263
 1523 09cb 01       		.uleb128 0x1
 1524 09cc 9C       		.byte	0x9c
 1525 09cd 050A0000 		.4byte	0xa05
 1526 09d1 1E       		.uleb128 0x1e
 1527 09d2 49000000 		.4byte	.LASF110
 1528 09d6 01       		.byte	0x1
 1529 09d7 4D       		.byte	0x4d
 1530 09d8 89000000 		.4byte	0x89
 1531 09dc 42000000 		.4byte	.LLST2
 1532 09e0 22       		.uleb128 0x22
 1533 09e1 666E00   		.ascii	"fn\000"
 1534 09e4 01       		.byte	0x1
 1535 09e5 4D       		.byte	0x4d
 1536 09e6 AB000000 		.4byte	0xab
 1537 09ea 01       		.uleb128 0x1
 1538 09eb 51       		.byte	0x51
 1539 09ec 22       		.uleb128 0x22
 1540 09ed 61726700 		.ascii	"arg\000"
 1541 09f1 01       		.byte	0x1
 1542 09f2 4D       		.byte	0x4d
 1543 09f3 A2000000 		.4byte	0xa2
 1544 09f7 01       		.uleb128 0x1
 1545 09f8 52       		.byte	0x52
 1546 09f9 22       		.uleb128 0x22
 1547 09fa 6400     		.ascii	"d\000"
 1548 09fc 01       		.byte	0x1
 1549 09fd 4D       		.byte	0x4d
 1550 09fe A2000000 		.4byte	0xa2
 1551 0a02 01       		.uleb128 0x1
 1552 0a03 53       		.byte	0x53
 1553 0a04 00       		.byte	0
 1554 0a05 32       		.uleb128 0x32
 1555 0a06 AE000000 		.4byte	.LASF111
 1556 0a0a 10       		.byte	0x10
 1557 0a0b A706     		.2byte	0x6a7
 1558 0a0d FB000000 		.4byte	0xfb
 1559 0a11 33       		.uleb128 0x33
 1560 0a12 636800   		.ascii	"ch\000"
 1561 0a15 09       		.byte	0x9
 1562 0a16 EB01     		.2byte	0x1eb
 1563 0a18 F4030000 		.4byte	0x3f4
 1564 0a1c 34       		.uleb128 0x34
 1565 0a1d 1A060000 		.4byte	.LASF112
 1566 0a21 0E       		.byte	0xe
 1567 0a22 15       		.byte	0x15
 1568 0a23 A2000000 		.4byte	0xa2
 1569 0a27 05       		.uleb128 0x5
 1570 0a28 03       		.byte	0x3
 1571 0a29 00000000 		.4byte	__dso_handle
 1572 0a2d 35       		.uleb128 0x35
 1573 0a2e 58000000 		.4byte	.LASF114
 1574 0a32 0F       		.byte	0xf
 1575 0a33 E6       		.byte	0xe6
 1576 0a34 3E0A0000 		.4byte	0xa3e
ARM GAS  C:\Users\jo\AppData\Local\Temp\ccYoTxPK.s 			page 29


 1577 0a38 10       		.uleb128 0x10
 1578 0a39 B9000000 		.4byte	0xb9
 1579 0a3d 00       		.byte	0
 1580 0a3e 36       		.uleb128 0x36
 1581 0a3f 8D000000 		.4byte	.LASF113
 1582 0a43 01       		.byte	0x1
 1583 0a44 25       		.byte	0x25
 1584 0a45 89000000 		.4byte	0x89
 1585 0a49 24       		.uleb128 0x24
 1586 0a4a 00       		.byte	0
 1587 0a4b 00       		.byte	0
 1588              		.section	.debug_abbrev,"",%progbits
 1589              	.Ldebug_abbrev0:
 1590 0000 01       		.uleb128 0x1
 1591 0001 11       		.uleb128 0x11
 1592 0002 01       		.byte	0x1
 1593 0003 25       		.uleb128 0x25
 1594 0004 0E       		.uleb128 0xe
 1595 0005 13       		.uleb128 0x13
 1596 0006 0B       		.uleb128 0xb
 1597 0007 03       		.uleb128 0x3
 1598 0008 0E       		.uleb128 0xe
 1599 0009 1B       		.uleb128 0x1b
 1600 000a 0E       		.uleb128 0xe
 1601 000b 55       		.uleb128 0x55
 1602 000c 17       		.uleb128 0x17
 1603 000d 11       		.uleb128 0x11
 1604 000e 01       		.uleb128 0x1
 1605 000f 10       		.uleb128 0x10
 1606 0010 17       		.uleb128 0x17
 1607 0011 00       		.byte	0
 1608 0012 00       		.byte	0
 1609 0013 02       		.uleb128 0x2
 1610 0014 24       		.uleb128 0x24
 1611 0015 00       		.byte	0
 1612 0016 0B       		.uleb128 0xb
 1613 0017 0B       		.uleb128 0xb
 1614 0018 3E       		.uleb128 0x3e
 1615 0019 0B       		.uleb128 0xb
 1616 001a 03       		.uleb128 0x3
 1617 001b 0E       		.uleb128 0xe
 1618 001c 00       		.byte	0
 1619 001d 00       		.byte	0
 1620 001e 03       		.uleb128 0x3
 1621 001f 16       		.uleb128 0x16
 1622 0020 00       		.byte	0
 1623 0021 03       		.uleb128 0x3
 1624 0022 0E       		.uleb128 0xe
 1625 0023 3A       		.uleb128 0x3a
 1626 0024 0B       		.uleb128 0xb
 1627 0025 3B       		.uleb128 0x3b
 1628 0026 0B       		.uleb128 0xb
 1629 0027 49       		.uleb128 0x49
 1630 0028 13       		.uleb128 0x13
 1631 0029 00       		.byte	0
 1632 002a 00       		.byte	0
 1633 002b 04       		.uleb128 0x4
ARM GAS  C:\Users\jo\AppData\Local\Temp\ccYoTxPK.s 			page 30


 1634 002c 24       		.uleb128 0x24
 1635 002d 00       		.byte	0
 1636 002e 0B       		.uleb128 0xb
 1637 002f 0B       		.uleb128 0xb
 1638 0030 3E       		.uleb128 0x3e
 1639 0031 0B       		.uleb128 0xb
 1640 0032 03       		.uleb128 0x3
 1641 0033 08       		.uleb128 0x8
 1642 0034 00       		.byte	0
 1643 0035 00       		.byte	0
 1644 0036 05       		.uleb128 0x5
 1645 0037 0F       		.uleb128 0xf
 1646 0038 00       		.byte	0
 1647 0039 0B       		.uleb128 0xb
 1648 003a 0B       		.uleb128 0xb
 1649 003b 00       		.byte	0
 1650 003c 00       		.byte	0
 1651 003d 06       		.uleb128 0x6
 1652 003e 0F       		.uleb128 0xf
 1653 003f 00       		.byte	0
 1654 0040 0B       		.uleb128 0xb
 1655 0041 0B       		.uleb128 0xb
 1656 0042 49       		.uleb128 0x49
 1657 0043 13       		.uleb128 0x13
 1658 0044 00       		.byte	0
 1659 0045 00       		.byte	0
 1660 0046 07       		.uleb128 0x7
 1661 0047 15       		.uleb128 0x15
 1662 0048 00       		.byte	0
 1663 0049 27       		.uleb128 0x27
 1664 004a 19       		.uleb128 0x19
 1665 004b 00       		.byte	0
 1666 004c 00       		.byte	0
 1667 004d 08       		.uleb128 0x8
 1668 004e 26       		.uleb128 0x26
 1669 004f 00       		.byte	0
 1670 0050 49       		.uleb128 0x49
 1671 0051 13       		.uleb128 0x13
 1672 0052 00       		.byte	0
 1673 0053 00       		.byte	0
 1674 0054 09       		.uleb128 0x9
 1675 0055 35       		.uleb128 0x35
 1676 0056 00       		.byte	0
 1677 0057 49       		.uleb128 0x49
 1678 0058 13       		.uleb128 0x13
 1679 0059 00       		.byte	0
 1680 005a 00       		.byte	0
 1681 005b 0A       		.uleb128 0xa
 1682 005c 13       		.uleb128 0x13
 1683 005d 01       		.byte	0x1
 1684 005e 03       		.uleb128 0x3
 1685 005f 0E       		.uleb128 0xe
 1686 0060 0B       		.uleb128 0xb
 1687 0061 0B       		.uleb128 0xb
 1688 0062 3A       		.uleb128 0x3a
 1689 0063 0B       		.uleb128 0xb
 1690 0064 3B       		.uleb128 0x3b
ARM GAS  C:\Users\jo\AppData\Local\Temp\ccYoTxPK.s 			page 31


 1691 0065 0B       		.uleb128 0xb
 1692 0066 01       		.uleb128 0x1
 1693 0067 13       		.uleb128 0x13
 1694 0068 00       		.byte	0
 1695 0069 00       		.byte	0
 1696 006a 0B       		.uleb128 0xb
 1697 006b 0D       		.uleb128 0xd
 1698 006c 00       		.byte	0
 1699 006d 03       		.uleb128 0x3
 1700 006e 0E       		.uleb128 0xe
 1701 006f 3A       		.uleb128 0x3a
 1702 0070 0B       		.uleb128 0xb
 1703 0071 3B       		.uleb128 0x3b
 1704 0072 0B       		.uleb128 0xb
 1705 0073 49       		.uleb128 0x49
 1706 0074 13       		.uleb128 0x13
 1707 0075 38       		.uleb128 0x38
 1708 0076 0B       		.uleb128 0xb
 1709 0077 00       		.byte	0
 1710 0078 00       		.byte	0
 1711 0079 0C       		.uleb128 0xc
 1712 007a 0D       		.uleb128 0xd
 1713 007b 00       		.byte	0
 1714 007c 03       		.uleb128 0x3
 1715 007d 08       		.uleb128 0x8
 1716 007e 3A       		.uleb128 0x3a
 1717 007f 0B       		.uleb128 0xb
 1718 0080 3B       		.uleb128 0x3b
 1719 0081 05       		.uleb128 0x5
 1720 0082 49       		.uleb128 0x49
 1721 0083 13       		.uleb128 0x13
 1722 0084 38       		.uleb128 0x38
 1723 0085 0B       		.uleb128 0xb
 1724 0086 00       		.byte	0
 1725 0087 00       		.byte	0
 1726 0088 0D       		.uleb128 0xd
 1727 0089 0D       		.uleb128 0xd
 1728 008a 00       		.byte	0
 1729 008b 03       		.uleb128 0x3
 1730 008c 0E       		.uleb128 0xe
 1731 008d 3A       		.uleb128 0x3a
 1732 008e 0B       		.uleb128 0xb
 1733 008f 3B       		.uleb128 0x3b
 1734 0090 05       		.uleb128 0x5
 1735 0091 49       		.uleb128 0x49
 1736 0092 13       		.uleb128 0x13
 1737 0093 38       		.uleb128 0x38
 1738 0094 0B       		.uleb128 0xb
 1739 0095 00       		.byte	0
 1740 0096 00       		.byte	0
 1741 0097 0E       		.uleb128 0xe
 1742 0098 13       		.uleb128 0x13
 1743 0099 01       		.byte	0x1
 1744 009a 03       		.uleb128 0x3
 1745 009b 0E       		.uleb128 0xe
 1746 009c 0B       		.uleb128 0xb
 1747 009d 0B       		.uleb128 0xb
ARM GAS  C:\Users\jo\AppData\Local\Temp\ccYoTxPK.s 			page 32


 1748 009e 3A       		.uleb128 0x3a
 1749 009f 0B       		.uleb128 0xb
 1750 00a0 3B       		.uleb128 0x3b
 1751 00a1 05       		.uleb128 0x5
 1752 00a2 01       		.uleb128 0x1
 1753 00a3 13       		.uleb128 0x13
 1754 00a4 00       		.byte	0
 1755 00a5 00       		.byte	0
 1756 00a6 0F       		.uleb128 0xf
 1757 00a7 15       		.uleb128 0x15
 1758 00a8 01       		.byte	0x1
 1759 00a9 27       		.uleb128 0x27
 1760 00aa 19       		.uleb128 0x19
 1761 00ab 01       		.uleb128 0x1
 1762 00ac 13       		.uleb128 0x13
 1763 00ad 00       		.byte	0
 1764 00ae 00       		.byte	0
 1765 00af 10       		.uleb128 0x10
 1766 00b0 05       		.uleb128 0x5
 1767 00b1 00       		.byte	0
 1768 00b2 49       		.uleb128 0x49
 1769 00b3 13       		.uleb128 0x13
 1770 00b4 00       		.byte	0
 1771 00b5 00       		.byte	0
 1772 00b6 11       		.uleb128 0x11
 1773 00b7 13       		.uleb128 0x13
 1774 00b8 01       		.byte	0x1
 1775 00b9 03       		.uleb128 0x3
 1776 00ba 0E       		.uleb128 0xe
 1777 00bb 0B       		.uleb128 0xb
 1778 00bc 05       		.uleb128 0x5
 1779 00bd 3A       		.uleb128 0x3a
 1780 00be 0B       		.uleb128 0xb
 1781 00bf 3B       		.uleb128 0x3b
 1782 00c0 05       		.uleb128 0x5
 1783 00c1 01       		.uleb128 0x1
 1784 00c2 13       		.uleb128 0x13
 1785 00c3 00       		.byte	0
 1786 00c4 00       		.byte	0
 1787 00c5 12       		.uleb128 0x12
 1788 00c6 0D       		.uleb128 0xd
 1789 00c7 00       		.byte	0
 1790 00c8 03       		.uleb128 0x3
 1791 00c9 08       		.uleb128 0x8
 1792 00ca 3A       		.uleb128 0x3a
 1793 00cb 0B       		.uleb128 0xb
 1794 00cc 3B       		.uleb128 0x3b
 1795 00cd 0B       		.uleb128 0xb
 1796 00ce 49       		.uleb128 0x49
 1797 00cf 13       		.uleb128 0x13
 1798 00d0 38       		.uleb128 0x38
 1799 00d1 0B       		.uleb128 0xb
 1800 00d2 00       		.byte	0
 1801 00d3 00       		.byte	0
 1802 00d4 13       		.uleb128 0x13
 1803 00d5 13       		.uleb128 0x13
 1804 00d6 01       		.byte	0x1
ARM GAS  C:\Users\jo\AppData\Local\Temp\ccYoTxPK.s 			page 33


 1805 00d7 0B       		.uleb128 0xb
 1806 00d8 0B       		.uleb128 0xb
 1807 00d9 3A       		.uleb128 0x3a
 1808 00da 0B       		.uleb128 0xb
 1809 00db 3B       		.uleb128 0x3b
 1810 00dc 0B       		.uleb128 0xb
 1811 00dd 01       		.uleb128 0x1
 1812 00de 13       		.uleb128 0x13
 1813 00df 00       		.byte	0
 1814 00e0 00       		.byte	0
 1815 00e1 14       		.uleb128 0x14
 1816 00e2 17       		.uleb128 0x17
 1817 00e3 01       		.byte	0x1
 1818 00e4 0B       		.uleb128 0xb
 1819 00e5 0B       		.uleb128 0xb
 1820 00e6 3A       		.uleb128 0x3a
 1821 00e7 0B       		.uleb128 0xb
 1822 00e8 3B       		.uleb128 0x3b
 1823 00e9 0B       		.uleb128 0xb
 1824 00ea 01       		.uleb128 0x1
 1825 00eb 13       		.uleb128 0x13
 1826 00ec 00       		.byte	0
 1827 00ed 00       		.byte	0
 1828 00ee 15       		.uleb128 0x15
 1829 00ef 0D       		.uleb128 0xd
 1830 00f0 00       		.byte	0
 1831 00f1 03       		.uleb128 0x3
 1832 00f2 0E       		.uleb128 0xe
 1833 00f3 3A       		.uleb128 0x3a
 1834 00f4 0B       		.uleb128 0xb
 1835 00f5 3B       		.uleb128 0x3b
 1836 00f6 0B       		.uleb128 0xb
 1837 00f7 49       		.uleb128 0x49
 1838 00f8 13       		.uleb128 0x13
 1839 00f9 00       		.byte	0
 1840 00fa 00       		.byte	0
 1841 00fb 16       		.uleb128 0x16
 1842 00fc 0D       		.uleb128 0xd
 1843 00fd 00       		.byte	0
 1844 00fe 03       		.uleb128 0x3
 1845 00ff 0E       		.uleb128 0xe
 1846 0100 3A       		.uleb128 0x3a
 1847 0101 0B       		.uleb128 0xb
 1848 0102 3B       		.uleb128 0x3b
 1849 0103 05       		.uleb128 0x5
 1850 0104 49       		.uleb128 0x49
 1851 0105 13       		.uleb128 0x13
 1852 0106 00       		.byte	0
 1853 0107 00       		.byte	0
 1854 0108 17       		.uleb128 0x17
 1855 0109 01       		.uleb128 0x1
 1856 010a 01       		.byte	0x1
 1857 010b 49       		.uleb128 0x49
 1858 010c 13       		.uleb128 0x13
 1859 010d 01       		.uleb128 0x1
 1860 010e 13       		.uleb128 0x13
 1861 010f 00       		.byte	0
ARM GAS  C:\Users\jo\AppData\Local\Temp\ccYoTxPK.s 			page 34


 1862 0110 00       		.byte	0
 1863 0111 18       		.uleb128 0x18
 1864 0112 21       		.uleb128 0x21
 1865 0113 00       		.byte	0
 1866 0114 49       		.uleb128 0x49
 1867 0115 13       		.uleb128 0x13
 1868 0116 2F       		.uleb128 0x2f
 1869 0117 0B       		.uleb128 0xb
 1870 0118 00       		.byte	0
 1871 0119 00       		.byte	0
 1872 011a 19       		.uleb128 0x19
 1873 011b 2E       		.uleb128 0x2e
 1874 011c 01       		.byte	0x1
 1875 011d 03       		.uleb128 0x3
 1876 011e 0E       		.uleb128 0xe
 1877 011f 3A       		.uleb128 0x3a
 1878 0120 0B       		.uleb128 0xb
 1879 0121 3B       		.uleb128 0x3b
 1880 0122 05       		.uleb128 0x5
 1881 0123 27       		.uleb128 0x27
 1882 0124 19       		.uleb128 0x19
 1883 0125 20       		.uleb128 0x20
 1884 0126 0B       		.uleb128 0xb
 1885 0127 01       		.uleb128 0x1
 1886 0128 13       		.uleb128 0x13
 1887 0129 00       		.byte	0
 1888 012a 00       		.byte	0
 1889 012b 1A       		.uleb128 0x1a
 1890 012c 05       		.uleb128 0x5
 1891 012d 00       		.byte	0
 1892 012e 03       		.uleb128 0x3
 1893 012f 0E       		.uleb128 0xe
 1894 0130 3A       		.uleb128 0x3a
 1895 0131 0B       		.uleb128 0xb
 1896 0132 3B       		.uleb128 0x3b
 1897 0133 05       		.uleb128 0x5
 1898 0134 49       		.uleb128 0x49
 1899 0135 13       		.uleb128 0x13
 1900 0136 00       		.byte	0
 1901 0137 00       		.byte	0
 1902 0138 1B       		.uleb128 0x1b
 1903 0139 2E       		.uleb128 0x2e
 1904 013a 00       		.byte	0
 1905 013b 03       		.uleb128 0x3
 1906 013c 0E       		.uleb128 0xe
 1907 013d 3A       		.uleb128 0x3a
 1908 013e 0B       		.uleb128 0xb
 1909 013f 3B       		.uleb128 0x3b
 1910 0140 05       		.uleb128 0x5
 1911 0141 27       		.uleb128 0x27
 1912 0142 19       		.uleb128 0x19
 1913 0143 20       		.uleb128 0x20
 1914 0144 0B       		.uleb128 0xb
 1915 0145 00       		.byte	0
 1916 0146 00       		.byte	0
 1917 0147 1C       		.uleb128 0x1c
 1918 0148 34       		.uleb128 0x34
ARM GAS  C:\Users\jo\AppData\Local\Temp\ccYoTxPK.s 			page 35


 1919 0149 00       		.byte	0
 1920 014a 03       		.uleb128 0x3
 1921 014b 0E       		.uleb128 0xe
 1922 014c 49       		.uleb128 0x49
 1923 014d 13       		.uleb128 0x13
 1924 014e 34       		.uleb128 0x34
 1925 014f 19       		.uleb128 0x19
 1926 0150 1C       		.uleb128 0x1c
 1927 0151 0E       		.uleb128 0xe
 1928 0152 00       		.byte	0
 1929 0153 00       		.byte	0
 1930 0154 1D       		.uleb128 0x1d
 1931 0155 2E       		.uleb128 0x2e
 1932 0156 01       		.byte	0x1
 1933 0157 3F       		.uleb128 0x3f
 1934 0158 19       		.uleb128 0x19
 1935 0159 03       		.uleb128 0x3
 1936 015a 0E       		.uleb128 0xe
 1937 015b 3A       		.uleb128 0x3a
 1938 015c 0B       		.uleb128 0xb
 1939 015d 3B       		.uleb128 0x3b
 1940 015e 0B       		.uleb128 0xb
 1941 015f 27       		.uleb128 0x27
 1942 0160 19       		.uleb128 0x19
 1943 0161 11       		.uleb128 0x11
 1944 0162 01       		.uleb128 0x1
 1945 0163 12       		.uleb128 0x12
 1946 0164 06       		.uleb128 0x6
 1947 0165 40       		.uleb128 0x40
 1948 0166 18       		.uleb128 0x18
 1949 0167 9742     		.uleb128 0x2117
 1950 0169 19       		.uleb128 0x19
 1951 016a 01       		.uleb128 0x1
 1952 016b 13       		.uleb128 0x13
 1953 016c 00       		.byte	0
 1954 016d 00       		.byte	0
 1955 016e 1E       		.uleb128 0x1e
 1956 016f 05       		.uleb128 0x5
 1957 0170 00       		.byte	0
 1958 0171 03       		.uleb128 0x3
 1959 0172 0E       		.uleb128 0xe
 1960 0173 3A       		.uleb128 0x3a
 1961 0174 0B       		.uleb128 0xb
 1962 0175 3B       		.uleb128 0x3b
 1963 0176 0B       		.uleb128 0xb
 1964 0177 49       		.uleb128 0x49
 1965 0178 13       		.uleb128 0x13
 1966 0179 02       		.uleb128 0x2
 1967 017a 17       		.uleb128 0x17
 1968 017b 00       		.byte	0
 1969 017c 00       		.byte	0
 1970 017d 1F       		.uleb128 0x1f
 1971 017e 898201   		.uleb128 0x4109
 1972 0181 01       		.byte	0x1
 1973 0182 11       		.uleb128 0x11
 1974 0183 01       		.uleb128 0x1
 1975 0184 31       		.uleb128 0x31
ARM GAS  C:\Users\jo\AppData\Local\Temp\ccYoTxPK.s 			page 36


 1976 0185 13       		.uleb128 0x13
 1977 0186 00       		.byte	0
 1978 0187 00       		.byte	0
 1979 0188 20       		.uleb128 0x20
 1980 0189 8A8201   		.uleb128 0x410a
 1981 018c 00       		.byte	0
 1982 018d 02       		.uleb128 0x2
 1983 018e 18       		.uleb128 0x18
 1984 018f 9142     		.uleb128 0x2111
 1985 0191 18       		.uleb128 0x18
 1986 0192 00       		.byte	0
 1987 0193 00       		.byte	0
 1988 0194 21       		.uleb128 0x21
 1989 0195 2E       		.uleb128 0x2e
 1990 0196 00       		.byte	0
 1991 0197 3F       		.uleb128 0x3f
 1992 0198 19       		.uleb128 0x19
 1993 0199 03       		.uleb128 0x3
 1994 019a 0E       		.uleb128 0xe
 1995 019b 3A       		.uleb128 0x3a
 1996 019c 0B       		.uleb128 0xb
 1997 019d 3B       		.uleb128 0x3b
 1998 019e 0B       		.uleb128 0xb
 1999 019f 27       		.uleb128 0x27
 2000 01a0 19       		.uleb128 0x19
 2001 01a1 49       		.uleb128 0x49
 2002 01a2 13       		.uleb128 0x13
 2003 01a3 11       		.uleb128 0x11
 2004 01a4 01       		.uleb128 0x1
 2005 01a5 12       		.uleb128 0x12
 2006 01a6 06       		.uleb128 0x6
 2007 01a7 40       		.uleb128 0x40
 2008 01a8 18       		.uleb128 0x18
 2009 01a9 9742     		.uleb128 0x2117
 2010 01ab 19       		.uleb128 0x19
 2011 01ac 00       		.byte	0
 2012 01ad 00       		.byte	0
 2013 01ae 22       		.uleb128 0x22
 2014 01af 05       		.uleb128 0x5
 2015 01b0 00       		.byte	0
 2016 01b1 03       		.uleb128 0x3
 2017 01b2 08       		.uleb128 0x8
 2018 01b3 3A       		.uleb128 0x3a
 2019 01b4 0B       		.uleb128 0xb
 2020 01b5 3B       		.uleb128 0x3b
 2021 01b6 0B       		.uleb128 0xb
 2022 01b7 49       		.uleb128 0x49
 2023 01b8 13       		.uleb128 0x13
 2024 01b9 02       		.uleb128 0x2
 2025 01ba 18       		.uleb128 0x18
 2026 01bb 00       		.byte	0
 2027 01bc 00       		.byte	0
 2028 01bd 23       		.uleb128 0x23
 2029 01be 2E       		.uleb128 0x2e
 2030 01bf 01       		.byte	0x1
 2031 01c0 3F       		.uleb128 0x3f
 2032 01c1 19       		.uleb128 0x19
ARM GAS  C:\Users\jo\AppData\Local\Temp\ccYoTxPK.s 			page 37


 2033 01c2 03       		.uleb128 0x3
 2034 01c3 0E       		.uleb128 0xe
 2035 01c4 3A       		.uleb128 0x3a
 2036 01c5 0B       		.uleb128 0xb
 2037 01c6 3B       		.uleb128 0x3b
 2038 01c7 0B       		.uleb128 0xb
 2039 01c8 49       		.uleb128 0x49
 2040 01c9 13       		.uleb128 0x13
 2041 01ca 3C       		.uleb128 0x3c
 2042 01cb 19       		.uleb128 0x19
 2043 01cc 01       		.uleb128 0x1
 2044 01cd 13       		.uleb128 0x13
 2045 01ce 00       		.byte	0
 2046 01cf 00       		.byte	0
 2047 01d0 24       		.uleb128 0x24
 2048 01d1 18       		.uleb128 0x18
 2049 01d2 00       		.byte	0
 2050 01d3 00       		.byte	0
 2051 01d4 00       		.byte	0
 2052 01d5 25       		.uleb128 0x25
 2053 01d6 898201   		.uleb128 0x4109
 2054 01d9 01       		.byte	0x1
 2055 01da 11       		.uleb128 0x11
 2056 01db 01       		.uleb128 0x1
 2057 01dc 9542     		.uleb128 0x2115
 2058 01de 19       		.uleb128 0x19
 2059 01df 31       		.uleb128 0x31
 2060 01e0 13       		.uleb128 0x13
 2061 01e1 00       		.byte	0
 2062 01e2 00       		.byte	0
 2063 01e3 26       		.uleb128 0x26
 2064 01e4 2E       		.uleb128 0x2e
 2065 01e5 01       		.byte	0x1
 2066 01e6 3F       		.uleb128 0x3f
 2067 01e7 19       		.uleb128 0x19
 2068 01e8 03       		.uleb128 0x3
 2069 01e9 0E       		.uleb128 0xe
 2070 01ea 3A       		.uleb128 0x3a
 2071 01eb 0B       		.uleb128 0xb
 2072 01ec 3B       		.uleb128 0x3b
 2073 01ed 0B       		.uleb128 0xb
 2074 01ee 27       		.uleb128 0x27
 2075 01ef 19       		.uleb128 0x19
 2076 01f0 49       		.uleb128 0x49
 2077 01f1 13       		.uleb128 0x13
 2078 01f2 11       		.uleb128 0x11
 2079 01f3 01       		.uleb128 0x1
 2080 01f4 12       		.uleb128 0x12
 2081 01f5 06       		.uleb128 0x6
 2082 01f6 40       		.uleb128 0x40
 2083 01f7 18       		.uleb128 0x18
 2084 01f8 9742     		.uleb128 0x2117
 2085 01fa 19       		.uleb128 0x19
 2086 01fb 01       		.uleb128 0x1
 2087 01fc 13       		.uleb128 0x13
 2088 01fd 00       		.byte	0
 2089 01fe 00       		.byte	0
ARM GAS  C:\Users\jo\AppData\Local\Temp\ccYoTxPK.s 			page 38


 2090 01ff 27       		.uleb128 0x27
 2091 0200 05       		.uleb128 0x5
 2092 0201 00       		.byte	0
 2093 0202 03       		.uleb128 0x3
 2094 0203 08       		.uleb128 0x8
 2095 0204 3A       		.uleb128 0x3a
 2096 0205 0B       		.uleb128 0xb
 2097 0206 3B       		.uleb128 0x3b
 2098 0207 0B       		.uleb128 0xb
 2099 0208 49       		.uleb128 0x49
 2100 0209 13       		.uleb128 0x13
 2101 020a 02       		.uleb128 0x2
 2102 020b 17       		.uleb128 0x17
 2103 020c 00       		.byte	0
 2104 020d 00       		.byte	0
 2105 020e 28       		.uleb128 0x28
 2106 020f 34       		.uleb128 0x34
 2107 0210 00       		.byte	0
 2108 0211 03       		.uleb128 0x3
 2109 0212 0E       		.uleb128 0xe
 2110 0213 3A       		.uleb128 0x3a
 2111 0214 0B       		.uleb128 0xb
 2112 0215 3B       		.uleb128 0x3b
 2113 0216 0B       		.uleb128 0xb
 2114 0217 49       		.uleb128 0x49
 2115 0218 13       		.uleb128 0x13
 2116 0219 02       		.uleb128 0x2
 2117 021a 18       		.uleb128 0x18
 2118 021b 00       		.byte	0
 2119 021c 00       		.byte	0
 2120 021d 29       		.uleb128 0x29
 2121 021e 1D       		.uleb128 0x1d
 2122 021f 01       		.byte	0x1
 2123 0220 31       		.uleb128 0x31
 2124 0221 13       		.uleb128 0x13
 2125 0222 11       		.uleb128 0x11
 2126 0223 01       		.uleb128 0x1
 2127 0224 12       		.uleb128 0x12
 2128 0225 06       		.uleb128 0x6
 2129 0226 58       		.uleb128 0x58
 2130 0227 0B       		.uleb128 0xb
 2131 0228 59       		.uleb128 0x59
 2132 0229 0B       		.uleb128 0xb
 2133 022a 01       		.uleb128 0x1
 2134 022b 13       		.uleb128 0x13
 2135 022c 00       		.byte	0
 2136 022d 00       		.byte	0
 2137 022e 2A       		.uleb128 0x2a
 2138 022f 1D       		.uleb128 0x1d
 2139 0230 01       		.byte	0x1
 2140 0231 31       		.uleb128 0x31
 2141 0232 13       		.uleb128 0x13
 2142 0233 11       		.uleb128 0x11
 2143 0234 01       		.uleb128 0x1
 2144 0235 12       		.uleb128 0x12
 2145 0236 06       		.uleb128 0x6
 2146 0237 58       		.uleb128 0x58
ARM GAS  C:\Users\jo\AppData\Local\Temp\ccYoTxPK.s 			page 39


 2147 0238 0B       		.uleb128 0xb
 2148 0239 59       		.uleb128 0x59
 2149 023a 05       		.uleb128 0x5
 2150 023b 00       		.byte	0
 2151 023c 00       		.byte	0
 2152 023d 2B       		.uleb128 0x2b
 2153 023e 05       		.uleb128 0x5
 2154 023f 00       		.byte	0
 2155 0240 31       		.uleb128 0x31
 2156 0241 13       		.uleb128 0x13
 2157 0242 1C       		.uleb128 0x1c
 2158 0243 0B       		.uleb128 0xb
 2159 0244 00       		.byte	0
 2160 0245 00       		.byte	0
 2161 0246 2C       		.uleb128 0x2c
 2162 0247 1D       		.uleb128 0x1d
 2163 0248 01       		.byte	0x1
 2164 0249 31       		.uleb128 0x31
 2165 024a 13       		.uleb128 0x13
 2166 024b 52       		.uleb128 0x52
 2167 024c 01       		.uleb128 0x1
 2168 024d 55       		.uleb128 0x55
 2169 024e 17       		.uleb128 0x17
 2170 024f 58       		.uleb128 0x58
 2171 0250 0B       		.uleb128 0xb
 2172 0251 59       		.uleb128 0x59
 2173 0252 0B       		.uleb128 0xb
 2174 0253 00       		.byte	0
 2175 0254 00       		.byte	0
 2176 0255 2D       		.uleb128 0x2d
 2177 0256 0B       		.uleb128 0xb
 2178 0257 01       		.byte	0x1
 2179 0258 55       		.uleb128 0x55
 2180 0259 17       		.uleb128 0x17
 2181 025a 00       		.byte	0
 2182 025b 00       		.byte	0
 2183 025c 2E       		.uleb128 0x2e
 2184 025d 34       		.uleb128 0x34
 2185 025e 00       		.byte	0
 2186 025f 31       		.uleb128 0x31
 2187 0260 13       		.uleb128 0x13
 2188 0261 00       		.byte	0
 2189 0262 00       		.byte	0
 2190 0263 2F       		.uleb128 0x2f
 2191 0264 1D       		.uleb128 0x1d
 2192 0265 01       		.byte	0x1
 2193 0266 31       		.uleb128 0x31
 2194 0267 13       		.uleb128 0x13
 2195 0268 52       		.uleb128 0x52
 2196 0269 01       		.uleb128 0x1
 2197 026a 55       		.uleb128 0x55
 2198 026b 17       		.uleb128 0x17
 2199 026c 58       		.uleb128 0x58
 2200 026d 0B       		.uleb128 0xb
 2201 026e 59       		.uleb128 0x59
 2202 026f 05       		.uleb128 0x5
 2203 0270 00       		.byte	0
ARM GAS  C:\Users\jo\AppData\Local\Temp\ccYoTxPK.s 			page 40


 2204 0271 00       		.byte	0
 2205 0272 30       		.uleb128 0x30
 2206 0273 1D       		.uleb128 0x1d
 2207 0274 01       		.byte	0x1
 2208 0275 31       		.uleb128 0x31
 2209 0276 13       		.uleb128 0x13
 2210 0277 11       		.uleb128 0x11
 2211 0278 01       		.uleb128 0x1
 2212 0279 12       		.uleb128 0x12
 2213 027a 06       		.uleb128 0x6
 2214 027b 58       		.uleb128 0x58
 2215 027c 0B       		.uleb128 0xb
 2216 027d 59       		.uleb128 0x59
 2217 027e 0B       		.uleb128 0xb
 2218 027f 00       		.byte	0
 2219 0280 00       		.byte	0
 2220 0281 31       		.uleb128 0x31
 2221 0282 0B       		.uleb128 0xb
 2222 0283 01       		.byte	0x1
 2223 0284 11       		.uleb128 0x11
 2224 0285 01       		.uleb128 0x1
 2225 0286 12       		.uleb128 0x12
 2226 0287 06       		.uleb128 0x6
 2227 0288 00       		.byte	0
 2228 0289 00       		.byte	0
 2229 028a 32       		.uleb128 0x32
 2230 028b 34       		.uleb128 0x34
 2231 028c 00       		.byte	0
 2232 028d 03       		.uleb128 0x3
 2233 028e 0E       		.uleb128 0xe
 2234 028f 3A       		.uleb128 0x3a
 2235 0290 0B       		.uleb128 0xb
 2236 0291 3B       		.uleb128 0x3b
 2237 0292 05       		.uleb128 0x5
 2238 0293 49       		.uleb128 0x49
 2239 0294 13       		.uleb128 0x13
 2240 0295 3F       		.uleb128 0x3f
 2241 0296 19       		.uleb128 0x19
 2242 0297 3C       		.uleb128 0x3c
 2243 0298 19       		.uleb128 0x19
 2244 0299 00       		.byte	0
 2245 029a 00       		.byte	0
 2246 029b 33       		.uleb128 0x33
 2247 029c 34       		.uleb128 0x34
 2248 029d 00       		.byte	0
 2249 029e 03       		.uleb128 0x3
 2250 029f 08       		.uleb128 0x8
 2251 02a0 3A       		.uleb128 0x3a
 2252 02a1 0B       		.uleb128 0xb
 2253 02a2 3B       		.uleb128 0x3b
 2254 02a3 05       		.uleb128 0x5
 2255 02a4 49       		.uleb128 0x49
 2256 02a5 13       		.uleb128 0x13
 2257 02a6 3F       		.uleb128 0x3f
 2258 02a7 19       		.uleb128 0x19
 2259 02a8 3C       		.uleb128 0x3c
 2260 02a9 19       		.uleb128 0x19
ARM GAS  C:\Users\jo\AppData\Local\Temp\ccYoTxPK.s 			page 41


 2261 02aa 00       		.byte	0
 2262 02ab 00       		.byte	0
 2263 02ac 34       		.uleb128 0x34
 2264 02ad 34       		.uleb128 0x34
 2265 02ae 00       		.byte	0
 2266 02af 03       		.uleb128 0x3
 2267 02b0 0E       		.uleb128 0xe
 2268 02b1 3A       		.uleb128 0x3a
 2269 02b2 0B       		.uleb128 0xb
 2270 02b3 3B       		.uleb128 0x3b
 2271 02b4 0B       		.uleb128 0xb
 2272 02b5 49       		.uleb128 0x49
 2273 02b6 13       		.uleb128 0x13
 2274 02b7 3F       		.uleb128 0x3f
 2275 02b8 19       		.uleb128 0x19
 2276 02b9 02       		.uleb128 0x2
 2277 02ba 18       		.uleb128 0x18
 2278 02bb 00       		.byte	0
 2279 02bc 00       		.byte	0
 2280 02bd 35       		.uleb128 0x35
 2281 02be 2E       		.uleb128 0x2e
 2282 02bf 01       		.byte	0x1
 2283 02c0 3F       		.uleb128 0x3f
 2284 02c1 19       		.uleb128 0x19
 2285 02c2 03       		.uleb128 0x3
 2286 02c3 0E       		.uleb128 0xe
 2287 02c4 3A       		.uleb128 0x3a
 2288 02c5 0B       		.uleb128 0xb
 2289 02c6 3B       		.uleb128 0x3b
 2290 02c7 0B       		.uleb128 0xb
 2291 02c8 27       		.uleb128 0x27
 2292 02c9 19       		.uleb128 0x19
 2293 02ca 3C       		.uleb128 0x3c
 2294 02cb 19       		.uleb128 0x19
 2295 02cc 01       		.uleb128 0x1
 2296 02cd 13       		.uleb128 0x13
 2297 02ce 00       		.byte	0
 2298 02cf 00       		.byte	0
 2299 02d0 36       		.uleb128 0x36
 2300 02d1 2E       		.uleb128 0x2e
 2301 02d2 01       		.byte	0x1
 2302 02d3 3F       		.uleb128 0x3f
 2303 02d4 19       		.uleb128 0x19
 2304 02d5 03       		.uleb128 0x3
 2305 02d6 0E       		.uleb128 0xe
 2306 02d7 3A       		.uleb128 0x3a
 2307 02d8 0B       		.uleb128 0xb
 2308 02d9 3B       		.uleb128 0x3b
 2309 02da 0B       		.uleb128 0xb
 2310 02db 49       		.uleb128 0x49
 2311 02dc 13       		.uleb128 0x13
 2312 02dd 3C       		.uleb128 0x3c
 2313 02de 19       		.uleb128 0x19
 2314 02df 00       		.byte	0
 2315 02e0 00       		.byte	0
 2316 02e1 00       		.byte	0
 2317              		.section	.debug_loc,"",%progbits
ARM GAS  C:\Users\jo\AppData\Local\Temp\ccYoTxPK.s 			page 42


 2318              	.Ldebug_loc0:
 2319              	.LLST0:
 2320 0000 00000000 		.4byte	.LVL0
 2321 0004 04000000 		.4byte	.LVL1
 2322 0008 0100     		.2byte	0x1
 2323 000a 50       		.byte	0x50
 2324 000b 04000000 		.4byte	.LVL1
 2325 000f 10000000 		.4byte	.LFE256
 2326 0013 0400     		.2byte	0x4
 2327 0015 F3       		.byte	0xf3
 2328 0016 01       		.uleb128 0x1
 2329 0017 50       		.byte	0x50
 2330 0018 9F       		.byte	0x9f
 2331 0019 00000000 		.4byte	0
 2332 001d 00000000 		.4byte	0
 2333              	.LLST1:
 2334 0021 00000000 		.4byte	.LVL5
 2335 0025 0A000000 		.4byte	.LVL6
 2336 0029 0100     		.2byte	0x1
 2337 002b 50       		.byte	0x50
 2338 002c 0A000000 		.4byte	.LVL6
 2339 0030 16000000 		.4byte	.LFE260
 2340 0034 0400     		.2byte	0x4
 2341 0036 F3       		.byte	0xf3
 2342 0037 01       		.uleb128 0x1
 2343 0038 50       		.byte	0x50
 2344 0039 9F       		.byte	0x9f
 2345 003a 00000000 		.4byte	0
 2346 003e 00000000 		.4byte	0
 2347              	.LLST2:
 2348 0042 00000000 		.4byte	.LVL12
 2349 0046 02000000 		.4byte	.LVL13
 2350 004a 0100     		.2byte	0x1
 2351 004c 50       		.byte	0x50
 2352 004d 02000000 		.4byte	.LVL13
 2353 0051 04000000 		.4byte	.LFE263
 2354 0055 0400     		.2byte	0x4
 2355 0057 F3       		.byte	0xf3
 2356 0058 01       		.uleb128 0x1
 2357 0059 50       		.byte	0x50
 2358 005a 9F       		.byte	0x9f
 2359 005b 00000000 		.4byte	0
 2360 005f 00000000 		.4byte	0
 2361              		.section	.debug_aranges,"",%progbits
 2362 0000 54000000 		.4byte	0x54
 2363 0004 0200     		.2byte	0x2
 2364 0006 00000000 		.4byte	.Ldebug_info0
 2365 000a 04       		.byte	0x4
 2366 000b 00       		.byte	0
 2367 000c 0000     		.2byte	0
 2368 000e 0000     		.2byte	0
 2369 0010 00000000 		.4byte	.LFB256
 2370 0014 10000000 		.4byte	.LFE256-.LFB256
 2371 0018 00000000 		.4byte	.LFB257
 2372 001c 04000000 		.4byte	.LFE257-.LFB257
 2373 0020 00000000 		.4byte	.LFB258
 2374 0024 02000000 		.4byte	.LFE258-.LFB258
ARM GAS  C:\Users\jo\AppData\Local\Temp\ccYoTxPK.s 			page 43


 2375 0028 00000000 		.4byte	.LFB259
 2376 002c 0C000000 		.4byte	.LFE259-.LFB259
 2377 0030 00000000 		.4byte	.LFB260
 2378 0034 16000000 		.4byte	.LFE260-.LFB260
 2379 0038 00000000 		.4byte	.LFB261
 2380 003c 12000000 		.4byte	.LFE261-.LFB261
 2381 0040 00000000 		.4byte	.LFB262
 2382 0044 12000000 		.4byte	.LFE262-.LFB262
 2383 0048 00000000 		.4byte	.LFB263
 2384 004c 04000000 		.4byte	.LFE263-.LFB263
 2385 0050 00000000 		.4byte	0
 2386 0054 00000000 		.4byte	0
 2387              		.section	.debug_ranges,"",%progbits
 2388              	.Ldebug_ranges0:
 2389 0000 06000000 		.4byte	.LBB48
 2390 0004 08000000 		.4byte	.LBE48
 2391 0008 10000000 		.4byte	.LBB57
 2392 000c 14000000 		.4byte	.LBE57
 2393 0010 00000000 		.4byte	0
 2394 0014 00000000 		.4byte	0
 2395 0018 00000000 		.4byte	.LFB256
 2396 001c 10000000 		.4byte	.LFE256
 2397 0020 00000000 		.4byte	.LFB257
 2398 0024 04000000 		.4byte	.LFE257
 2399 0028 00000000 		.4byte	.LFB258
 2400 002c 02000000 		.4byte	.LFE258
 2401 0030 00000000 		.4byte	.LFB259
 2402 0034 0C000000 		.4byte	.LFE259
 2403 0038 00000000 		.4byte	.LFB260
 2404 003c 16000000 		.4byte	.LFE260
 2405 0040 00000000 		.4byte	.LFB261
 2406 0044 12000000 		.4byte	.LFE261
 2407 0048 00000000 		.4byte	.LFB262
 2408 004c 12000000 		.4byte	.LFE262
 2409 0050 00000000 		.4byte	.LFB263
 2410 0054 04000000 		.4byte	.LFE263
 2411 0058 00000000 		.4byte	0
 2412 005c 00000000 		.4byte	0
 2413              		.section	.debug_line,"",%progbits
 2414              	.Ldebug_line0:
 2415 0000 61030000 		.section	.debug_str,"MS",%progbits,1
 2415      02009D02 
 2415      00000201 
 2415      FB0E0D00 
 2415      01010101 
 2416              	.LASF52:
 2417 0000 72656164 		.ascii	"ready_list_t\000"
 2417      795F6C69 
 2417      73745F74 
 2417      00
 2418              	.LASF13:
 2419 000d 73697A65 		.ascii	"size_t\000"
 2419      5F7400
 2420              	.LASF86:
 2421 0014 7264796D 		.ascii	"rdymsg\000"
 2421      736700
 2422              	.LASF20:
ARM GAS  C:\Users\jo\AppData\Local\Temp\ccYoTxPK.s 			page 44


 2423 001b 75696E74 		.ascii	"uint64_t\000"
 2423      36345F74 
 2423      00
 2424              	.LASF4:
 2425 0024 5F5F7569 		.ascii	"__uint8_t\000"
 2425      6E74385F 
 2425      7400
 2426              	.LASF83:
 2427 002e 706F7274 		.ascii	"port_intctx\000"
 2427      5F696E74 
 2427      63747800 
 2428              	.LASF71:
 2429 003a 73797374 		.ascii	"system_debug_t\000"
 2429      656D5F64 
 2429      65627567 
 2429      5F7400
 2430              	.LASF110:
 2431 0049 74797065 		.ascii	"type\000"
 2431      00
 2432              	.LASF97:
 2433 004e 706F7274 		.ascii	"port_lock\000"
 2433      5F6C6F63 
 2433      6B00
 2434              	.LASF114:
 2435 0058 63685379 		.ascii	"chSysHalt\000"
 2435      7348616C 
 2435      7400
 2436              	.LASF11:
 2437 0062 6C6F6E67 		.ascii	"long long unsigned int\000"
 2437      206C6F6E 
 2437      6720756E 
 2437      7369676E 
 2437      65642069 
 2438              	.LASF87:
 2439 0079 65786974 		.ascii	"exitcode\000"
 2439      636F6465 
 2439      00
 2440              	.LASF78:
 2441 0082 6D61696E 		.ascii	"mainthread\000"
 2441      74687265 
 2441      616400
 2442              	.LASF113:
 2443 008d 63684462 		.ascii	"chDbgPanic\000"
 2443      6750616E 
 2443      696300
 2444              	.LASF68:
 2445 0098 76697274 		.ascii	"virtual_timers_list_t\000"
 2445      75616C5F 
 2445      74696D65 
 2445      72735F6C 
 2445      6973745F 
 2446              	.LASF111:
 2447 00ae 49544D5F 		.ascii	"ITM_RxBuffer\000"
 2447      52784275 
 2447      66666572 
 2447      00
 2448              	.LASF51:
ARM GAS  C:\Users\jo\AppData\Local\Temp\ccYoTxPK.s 			page 45


 2449 00bb 63685F74 		.ascii	"ch_threads_queue\000"
 2449      68726561 
 2449      64735F71 
 2449      75657565 
 2449      00
 2450              	.LASF32:
 2451 00cc 705F7072 		.ascii	"p_prio\000"
 2451      696F00
 2452              	.LASF9:
 2453 00d3 6C6F6E67 		.ascii	"long long int\000"
 2453      206C6F6E 
 2453      6720696E 
 2453      7400
 2454              	.LASF0:
 2455 00e1 7369676E 		.ascii	"signed char\000"
 2455      65642063 
 2455      68617200 
 2456              	.LASF46:
 2457 00ed 705F6D70 		.ascii	"p_mpool\000"
 2457      6F6F6C00 
 2458              	.LASF91:
 2459 00f5 6D5F7175 		.ascii	"m_queue\000"
 2459      65756500 
 2460              	.LASF107:
 2461 00fd 5F5F6378 		.ascii	"__cxa_guard_abort\000"
 2461      615F6775 
 2461      6172645F 
 2461      61626F72 
 2461      7400
 2462              	.LASF77:
 2463 010f 76746C69 		.ascii	"vtlist\000"
 2463      737400
 2464              	.LASF98:
 2465 0116 706F7274 		.ascii	"port_unlock\000"
 2465      5F756E6C 
 2465      6F636B00 
 2466              	.LASF75:
 2467 0122 63685F73 		.ascii	"ch_system\000"
 2467      79737465 
 2467      6D00
 2468              	.LASF6:
 2469 012c 6C6F6E67 		.ascii	"long int\000"
 2469      20696E74 
 2469      00
 2470              	.LASF23:
 2471 0135 74737461 		.ascii	"tstate_t\000"
 2471      74655F74 
 2471      00
 2472              	.LASF120:
 2473 013e 5F676574 		.ascii	"_getpid\000"
 2473      70696400 
 2474              	.LASF34:
 2475 0146 705F6E65 		.ascii	"p_newer\000"
 2475      77657200 
 2476              	.LASF3:
 2477 014e 73686F72 		.ascii	"short unsigned int\000"
 2477      7420756E 
ARM GAS  C:\Users\jo\AppData\Local\Temp\ccYoTxPK.s 			page 46


 2477      7369676E 
 2477      65642069 
 2477      6E7400
 2478              	.LASF57:
 2479 0161 725F6E65 		.ascii	"r_newer\000"
 2479      77657200 
 2480              	.LASF80:
 2481 0169 72656761 		.ascii	"regarm_t\000"
 2481      726D5F74 
 2481      00
 2482              	.LASF64:
 2483 0172 76745F70 		.ascii	"vt_prev\000"
 2483      72657600 
 2484              	.LASF94:
 2485 017a 6D757465 		.ascii	"mutex_t\000"
 2485      785F7400 
 2486              	.LASF118:
 2487 0182 76616C75 		.ascii	"value\000"
 2487      6500
 2488              	.LASF79:
 2489 0188 69646C65 		.ascii	"idle_thread_wa\000"
 2489      5F746872 
 2489      6561645F 
 2489      776100
 2490              	.LASF12:
 2491 0197 756E7369 		.ascii	"unsigned int\000"
 2491      676E6564 
 2491      20696E74 
 2491      00
 2492              	.LASF63:
 2493 01a4 76745F6E 		.ascii	"vt_next\000"
 2493      65787400 
 2494              	.LASF65:
 2495 01ac 76745F64 		.ascii	"vt_delta\000"
 2495      656C7461 
 2495      00
 2496              	.LASF109:
 2497 01b5 5F5F7265 		.ascii	"__register_exitproc\000"
 2497      67697374 
 2497      65725F65 
 2497      78697470 
 2497      726F6300 
 2498              	.LASF41:
 2499 01c9 705F6D73 		.ascii	"p_msgqueue\000"
 2499      67717565 
 2499      756500
 2500              	.LASF106:
 2501 01d4 5F5F6378 		.ascii	"__cxa_guard_release\000"
 2501      615F6775 
 2501      6172645F 
 2501      72656C65 
 2501      61736500 
 2502              	.LASF102:
 2503 01e8 5F657869 		.ascii	"_exit\000"
 2503      7400
 2504              	.LASF48:
 2505 01ee 63685F74 		.ascii	"ch_thread\000"
ARM GAS  C:\Users\jo\AppData\Local\Temp\ccYoTxPK.s 			page 47


 2505      68726561 
 2505      6400
 2506              	.LASF26:
 2507 01f8 6D73675F 		.ascii	"msg_t\000"
 2507      7400
 2508              	.LASF74:
 2509 01fe 63685F73 		.ascii	"ch_system_t\000"
 2509      79737465 
 2509      6D5F7400 
 2510              	.LASF22:
 2511 020a 746D6F64 		.ascii	"tmode_t\000"
 2511      655F7400 
 2512              	.LASF53:
 2513 0212 63685F72 		.ascii	"ch_ready_list\000"
 2513      65616479 
 2513      5F6C6973 
 2513      7400
 2514              	.LASF27:
 2515 0220 6576656E 		.ascii	"eventmask_t\000"
 2515      746D6173 
 2515      6B5F7400 
 2516              	.LASF5:
 2517 022c 5F5F696E 		.ascii	"__int32_t\000"
 2517      7433325F 
 2517      7400
 2518              	.LASF81:
 2519 0236 73746B61 		.ascii	"stkalign_t\000"
 2519      6C69676E 
 2519      5F7400
 2520              	.LASF55:
 2521 0241 725F7072 		.ascii	"r_prio\000"
 2521      696F00
 2522              	.LASF40:
 2523 0248 705F7761 		.ascii	"p_waiting\000"
 2523      6974696E 
 2523      6700
 2524              	.LASF14:
 2525 0252 73697A65 		.ascii	"sizetype\000"
 2525      74797065 
 2525      00
 2526              	.LASF69:
 2527 025b 63685F76 		.ascii	"ch_virtual_timers_list\000"
 2527      69727475 
 2527      616C5F74 
 2527      696D6572 
 2527      735F6C69 
 2528              	.LASF70:
 2529 0272 76745F6C 		.ascii	"vt_lasttime\000"
 2529      61737474 
 2529      696D6500 
 2530              	.LASF35:
 2531 027e 705F6F6C 		.ascii	"p_older\000"
 2531      64657200 
 2532              	.LASF56:
 2533 0286 725F6374 		.ascii	"r_ctx\000"
 2533      7800
 2534              	.LASF85:
ARM GAS  C:\Users\jo\AppData\Local\Temp\ccYoTxPK.s 			page 48


 2535 028c 746D5F63 		.ascii	"tm_calibration_t\000"
 2535      616C6962 
 2535      72617469 
 2535      6F6E5F74 
 2535      00
 2536              	.LASF59:
 2537 029d 725F6375 		.ascii	"r_current\000"
 2537      7272656E 
 2537      7400
 2538              	.LASF58:
 2539 02a7 725F6F6C 		.ascii	"r_older\000"
 2539      64657200 
 2540              	.LASF108:
 2541 02af 5F5F6378 		.ascii	"__cxa_guard_acquire\000"
 2541      615F6775 
 2541      6172645F 
 2541      61637175 
 2541      69726500 
 2542              	.LASF10:
 2543 02c3 5F5F7569 		.ascii	"__uint64_t\000"
 2543      6E743634 
 2543      5F7400
 2544              	.LASF24:
 2545 02ce 74726566 		.ascii	"trefs_t\000"
 2545      735F7400 
 2546              	.LASF61:
 2547 02d6 76697274 		.ascii	"virtual_timer_t\000"
 2547      75616C5F 
 2547      74696D65 
 2547      725F7400 
 2548              	.LASF31:
 2549 02e6 705F7072 		.ascii	"p_prev\000"
 2549      657600
 2550              	.LASF25:
 2551 02ed 74707269 		.ascii	"tprio_t\000"
 2551      6F5F7400 
 2552              	.LASF90:
 2553 02f5 6D757465 		.ascii	"mutex\000"
 2553      7800
 2554              	.LASF72:
 2555 02fb 63685F73 		.ascii	"ch_system_debug\000"
 2555      79737465 
 2555      6D5F6465 
 2555      62756700 
 2556              	.LASF95:
 2557 030b 5F426F6F 		.ascii	"_Bool\000"
 2557      6C00
 2558              	.LASF18:
 2559 0311 696E7433 		.ascii	"int32_t\000"
 2559      325F7400 
 2560              	.LASF1:
 2561 0319 756E7369 		.ascii	"unsigned char\000"
 2561      676E6564 
 2561      20636861 
 2561      7200
 2562              	.LASF116:
 2563 0327 73747562 		.ascii	"stubs.c\000"
ARM GAS  C:\Users\jo\AppData\Local\Temp\ccYoTxPK.s 			page 49


 2563      732E6300 
 2564              	.LASF44:
 2565 032f 705F6D74 		.ascii	"p_mtxlist\000"
 2565      786C6973 
 2565      7400
 2566              	.LASF2:
 2567 0339 73686F72 		.ascii	"short int\000"
 2567      7420696E 
 2567      7400
 2568              	.LASF37:
 2569 0343 705F7374 		.ascii	"p_state\000"
 2569      61746500 
 2570              	.LASF89:
 2571 034b 65776D61 		.ascii	"ewmask\000"
 2571      736B00
 2572              	.LASF30:
 2573 0352 705F6E65 		.ascii	"p_next\000"
 2573      787400
 2574              	.LASF115:
 2575 0359 474E5520 		.ascii	"GNU C 4.9.3 20141119 (release) [ARM/embedded-4_9-br"
 2575      4320342E 
 2575      392E3320 
 2575      32303134 
 2575      31313139 
 2576 038c 616E6368 		.ascii	"anch revision 218278] -mcpu=cortex-m4 -mfloat-abi=h"
 2576      20726576 
 2576      6973696F 
 2576      6E203231 
 2576      38323738 
 2577 03bf 61726420 		.ascii	"ard -mfpu=fpv4-sp-d16 -mno-thumb-interwork -mthumb "
 2577      2D6D6670 
 2577      753D6670 
 2577      76342D73 
 2577      702D6431 
 2578 03f2 2D676764 		.ascii	"-ggdb -O2 -fomit-frame-pointer -falign-functions=16"
 2578      62202D4F 
 2578      32202D66 
 2578      6F6D6974 
 2578      2D667261 
 2579 0425 202D6666 		.ascii	" -ffunction-sections -fdata-sections -fno-common -f"
 2579      756E6374 
 2579      696F6E2D 
 2579      73656374 
 2579      696F6E73 
 2580 0458 73696E67 		.ascii	"single-precision-constant\000"
 2580      6C652D70 
 2580      72656369 
 2580      73696F6E 
 2580      2D636F6E 
 2581              	.LASF38:
 2582 0472 705F666C 		.ascii	"p_flags\000"
 2582      61677300 
 2583              	.LASF119:
 2584 047a 5F5F6675 		.ascii	"__func__\000"
 2584      6E635F5F 
 2584      00
 2585              	.LASF96:
ARM GAS  C:\Users\jo\AppData\Local\Temp\ccYoTxPK.s 			page 50


 2586 0483 5F5F6775 		.ascii	"__guard\000"
 2586      61726400 
 2587              	.LASF99:
 2588 048b 63685379 		.ascii	"chSysLock\000"
 2588      734C6F63 
 2588      6B00
 2589              	.LASF62:
 2590 0495 63685F76 		.ascii	"ch_virtual_timer\000"
 2590      69727475 
 2590      616C5F74 
 2590      696D6572 
 2590      00
 2591              	.LASF43:
 2592 04a6 705F6570 		.ascii	"p_epending\000"
 2592      656E6469 
 2592      6E6700
 2593              	.LASF19:
 2594 04b1 75696E74 		.ascii	"uint32_t\000"
 2594      33325F74 
 2594      00
 2595              	.LASF54:
 2596 04ba 725F7175 		.ascii	"r_queue\000"
 2596      65756500 
 2597              	.LASF49:
 2598 04c2 63685F74 		.ascii	"ch_threads_list\000"
 2598      68726561 
 2598      64735F6C 
 2598      69737400 
 2599              	.LASF105:
 2600 04d2 5F5F6378 		.ascii	"__cxa_pure_virtual\000"
 2600      615F7075 
 2600      72655F76 
 2600      69727475 
 2600      616C00
 2601              	.LASF8:
 2602 04e5 6C6F6E67 		.ascii	"long unsigned int\000"
 2602      20756E73 
 2602      69676E65 
 2602      6420696E 
 2602      7400
 2603              	.LASF15:
 2604 04f7 63686172 		.ascii	"char\000"
 2604      00
 2605              	.LASF117:
 2606 04fc 433A5C55 		.ascii	"C:\\Users\\jo\\Documents\\GitHub\\ChibiOS\\demos\\S"
 2606      73657273 
 2606      5C6A6F5C 
 2606      446F6375 
 2606      6D656E74 
 2607 0528 544D3332 		.ascii	"TM32\\RT-STM32F407-DISCOVERY\000"
 2607      5C52542D 
 2607      53544D33 
 2607      32463430 
 2607      372D4449 
 2608              	.LASF29:
 2609 0544 74687265 		.ascii	"thread_t\000"
 2609      61645F74 
ARM GAS  C:\Users\jo\AppData\Local\Temp\ccYoTxPK.s 			page 51


 2609      00
 2610              	.LASF93:
 2611 054d 6D5F6E65 		.ascii	"m_next\000"
 2611      787400
 2612              	.LASF28:
 2613 0554 73797374 		.ascii	"systime_t\000"
 2613      696D655F 
 2613      7400
 2614              	.LASF45:
 2615 055e 705F7265 		.ascii	"p_realprio\000"
 2615      616C7072 
 2615      696F00
 2616              	.LASF60:
 2617 0569 76746675 		.ascii	"vtfunc_t\000"
 2617      6E635F74 
 2617      00
 2618              	.LASF7:
 2619 0572 5F5F7569 		.ascii	"__uint32_t\000"
 2619      6E743332 
 2619      5F7400
 2620              	.LASF100:
 2621 057d 5F5F7365 		.ascii	"__set_BASEPRI\000"
 2621      745F4241 
 2621      53455052 
 2621      4900
 2622              	.LASF73:
 2623 058b 70616E69 		.ascii	"panic_msg\000"
 2623      635F6D73 
 2623      6700
 2624              	.LASF84:
 2625 0595 6F666673 		.ascii	"offset\000"
 2625      657400
 2626              	.LASF103:
 2627 059c 5F6B696C 		.ascii	"_kill\000"
 2627      6C00
 2628              	.LASF82:
 2629 05a2 636F6E74 		.ascii	"context\000"
 2629      65787400 
 2630              	.LASF21:
 2631 05aa 7274636E 		.ascii	"rtcnt_t\000"
 2631      745F7400 
 2632              	.LASF67:
 2633 05b2 76745F70 		.ascii	"vt_par\000"
 2633      617200
 2634              	.LASF50:
 2635 05b9 74687265 		.ascii	"threads_queue_t\000"
 2635      6164735F 
 2635      71756575 
 2635      655F7400 
 2636              	.LASF39:
 2637 05c9 705F7265 		.ascii	"p_refs\000"
 2637      667300
 2638              	.LASF104:
 2639 05d0 73746174 		.ascii	"status\000"
 2639      757300
 2640              	.LASF76:
 2641 05d7 726C6973 		.ascii	"rlist\000"
ARM GAS  C:\Users\jo\AppData\Local\Temp\ccYoTxPK.s 			page 52


 2641      7400
 2642              	.LASF17:
 2643 05dd 75696E74 		.ascii	"uint8_t\000"
 2643      385F7400 
 2644              	.LASF88:
 2645 05e5 77746F62 		.ascii	"wtobjp\000"
 2645      6A7000
 2646              	.LASF36:
 2647 05ec 705F6E61 		.ascii	"p_name\000"
 2647      6D6500
 2648              	.LASF16:
 2649 05f3 7069645F 		.ascii	"pid_t\000"
 2649      7400
 2650              	.LASF47:
 2651 05f9 74687265 		.ascii	"threads_list_t\000"
 2651      6164735F 
 2651      6C697374 
 2651      5F7400
 2652              	.LASF101:
 2653 0608 63685379 		.ascii	"chSysUnlock\000"
 2653      73556E6C 
 2653      6F636B00 
 2654              	.LASF42:
 2655 0614 705F6D73 		.ascii	"p_msg\000"
 2655      6700
 2656              	.LASF112:
 2657 061a 5F5F6473 		.ascii	"__dso_handle\000"
 2657      6F5F6861 
 2657      6E646C65 
 2657      00
 2658              	.LASF92:
 2659 0627 6D5F6F77 		.ascii	"m_owner\000"
 2659      6E657200 
 2660              	.LASF121:
 2661 062f 72657375 		.ascii	"result\000"
 2661      6C7400
 2662              	.LASF33:
 2663 0636 705F6374 		.ascii	"p_ctx\000"
 2663      7800
 2664              	.LASF66:
 2665 063c 76745F66 		.ascii	"vt_func\000"
 2665      756E6300 
 2666              		.ident	"GCC: (GNU Tools for ARM Embedded Processors) 4.9.3 20141119 (release) [ARM/embedded-4_9-br
ARM GAS  C:\Users\jo\AppData\Local\Temp\ccYoTxPK.s 			page 53


DEFINED SYMBOLS
                            *ABS*:00000000 stubs.c
C:\Users\jo\AppData\Local\Temp\ccYoTxPK.s:21     .text._exit:00000000 $t
C:\Users\jo\AppData\Local\Temp\ccYoTxPK.s:27     .text._exit:00000000 _exit
C:\Users\jo\AppData\Local\Temp\ccYoTxPK.s:51     .text._exit:0000000c $d
C:\Users\jo\AppData\Local\Temp\ccYoTxPK.s:56     .text._getpid:00000000 $t
C:\Users\jo\AppData\Local\Temp\ccYoTxPK.s:62     .text._getpid:00000000 _getpid
C:\Users\jo\AppData\Local\Temp\ccYoTxPK.s:76     .text._kill:00000000 $t
C:\Users\jo\AppData\Local\Temp\ccYoTxPK.s:82     .text._kill:00000000 _kill
C:\Users\jo\AppData\Local\Temp\ccYoTxPK.s:95     .text.__cxa_pure_virtual:00000000 $t
C:\Users\jo\AppData\Local\Temp\ccYoTxPK.s:101    .text.__cxa_pure_virtual:00000000 __cxa_pure_virtual
C:\Users\jo\AppData\Local\Temp\ccYoTxPK.s:115    .text.__cxa_pure_virtual:00000008 $d
C:\Users\jo\AppData\Local\Temp\ccYoTxPK.s:120    .text.__cxa_guard_acquire:00000000 $t
C:\Users\jo\AppData\Local\Temp\ccYoTxPK.s:126    .text.__cxa_guard_acquire:00000000 __cxa_guard_acquire
C:\Users\jo\AppData\Local\Temp\ccYoTxPK.s:187    .text.__cxa_guard_release:00000000 $t
C:\Users\jo\AppData\Local\Temp\ccYoTxPK.s:193    .text.__cxa_guard_release:00000000 __cxa_guard_release
C:\Users\jo\AppData\Local\Temp\ccYoTxPK.s:240    .text.__cxa_guard_abort:00000000 $t
C:\Users\jo\AppData\Local\Temp\ccYoTxPK.s:246    .text.__cxa_guard_abort:00000000 __cxa_guard_abort
C:\Users\jo\AppData\Local\Temp\ccYoTxPK.s:293    .text.__register_exitproc:00000000 $t
C:\Users\jo\AppData\Local\Temp\ccYoTxPK.s:299    .text.__register_exitproc:00000000 __register_exitproc
C:\Users\jo\AppData\Local\Temp\ccYoTxPK.s:319    .bss.__dso_handle:00000000 __dso_handle
C:\Users\jo\AppData\Local\Temp\ccYoTxPK.s:316    .bss.__dso_handle:00000000 $d
C:\Users\jo\AppData\Local\Temp\ccYoTxPK.s:322    .rodata.str1.4:00000000 $d
                     .debug_frame:00000010 $d
C:\Users\jo\AppData\Local\Temp\ccYoTxPK.s:119    .text.__cxa_pure_virtual:0000000c $t

UNDEFINED SYMBOLS
chSysHalt
chDbgPanic
