ARM GAS  C:\Users\jo\AppData\Local\Temp\ccbDChig.s 			page 1


   1              		.syntax unified
   2              		.cpu cortex-m4
   3              		.eabi_attribute 27, 3
   4              		.eabi_attribute 28, 1
   5              		.fpu fpv4-sp-d16
   6              		.eabi_attribute 20, 1
   7              		.eabi_attribute 21, 1
   8              		.eabi_attribute 23, 3
   9              		.eabi_attribute 24, 1
  10              		.eabi_attribute 25, 1
  11              		.eabi_attribute 26, 1
  12              		.eabi_attribute 30, 2
  13              		.eabi_attribute 34, 1
  14              		.eabi_attribute 18, 4
  15              		.thumb
  16              		.file	"sys.c"
  17              		.text
  18              	.Ltext0:
  19              		.cfi_sections	.debug_frame
  20              		.section	.text.sys_msleep,"ax",%progbits
  21              		.align	2
  22              		.p2align 4,,15
  23              		.global	sys_msleep
  24              		.thumb
  25              		.thumb_func
  26              		.type	sys_msleep, %function
  27              	sys_msleep:
  28              	.LFB256:
  29              		.file 1 "../../../os/ext/lwip-1.4.1/src/core/sys.c"
  30              		.loc 1 56 0
  31              		.cfi_startproc
  32              		@ args = 0, pretend = 0, frame = 8
  33              		@ frame_needed = 0, uses_anonymous_args = 0
  34              	.LVL0:
  35              		.loc 1 57 0
  36 0000 00B9     		cbnz	r0, .L10
  37 0002 7047     		bx	lr
  38              	.L10:
  39              		.loc 1 56 0
  40 0004 10B5     		push	{r4, lr}
  41              		.cfi_def_cfa_offset 8
  42              		.cfi_offset 4, -8
  43              		.cfi_offset 14, -4
  44 0006 82B0     		sub	sp, sp, #8
  45              		.cfi_def_cfa_offset 16
  46 0008 0446     		mov	r4, r0
  47              	.LBB2:
  48              		.loc 1 59 0
  49 000a 0021     		movs	r1, #0
  50 000c 01A8     		add	r0, sp, #4
  51              	.LVL1:
  52 000e FFF7FEFF 		bl	sys_sem_new
  53              	.LVL2:
  54              		.loc 1 60 0
  55 0012 08B1     		cbz	r0, .L11
  56              	.LBE2:
  57              		.loc 1 65 0
ARM GAS  C:\Users\jo\AppData\Local\Temp\ccbDChig.s 			page 2


  58 0014 02B0     		add	sp, sp, #8
  59              		.cfi_remember_state
  60              		.cfi_def_cfa_offset 8
  61              		@ sp needed
  62 0016 10BD     		pop	{r4, pc}
  63              	.LVL3:
  64              	.L11:
  65              		.cfi_restore_state
  66              	.LBB3:
  67              		.loc 1 61 0
  68 0018 2146     		mov	r1, r4
  69 001a 01A8     		add	r0, sp, #4
  70              	.LVL4:
  71 001c FFF7FEFF 		bl	sys_arch_sem_wait
  72              	.LVL5:
  73              		.loc 1 62 0
  74 0020 01A8     		add	r0, sp, #4
  75 0022 FFF7FEFF 		bl	sys_sem_free
  76              	.LVL6:
  77              	.LBE3:
  78              		.loc 1 65 0
  79 0026 02B0     		add	sp, sp, #8
  80              		.cfi_def_cfa_offset 8
  81              		@ sp needed
  82 0028 10BD     		pop	{r4, pc}
  83              		.cfi_endproc
  84              	.LFE256:
  85              		.size	sys_msleep, .-sys_msleep
  86 002a 00BFAFF3 		.text
  86      0080
  87              	.Letext0:
  88              		.file 2 "c:\\program files\\gnu tools arm embedded\\4.9 2014q4\\arm-none-eabi\\include\\machine\\_
  89              		.file 3 "c:\\program files\\gnu tools arm embedded\\4.9 2014q4\\arm-none-eabi\\include\\stdint.h"
  90              		.file 4 "../../../os/rt/ports/ARMCMx/compilers/GCC/chtypes.h"
  91              		.file 5 "../../../os/rt/include/chsystypes.h"
  92              		.file 6 "../../../os/rt/include/chschd.h"
  93              		.file 7 "../../../os/rt/ports/ARMCMx/chcore.h"
  94              		.file 8 "../../../os/rt/ports/ARMCMx/chcore_v7m.h"
  95              		.file 9 "../../../os/rt/include/chtm.h"
  96              		.file 10 "../../../os/rt/include/chmtx.h"
  97              		.file 11 "../../../os/rt/include/chsem.h"
  98              		.file 12 "../../../os/various/lwip_bindings/arch/cc.h"
  99              		.file 13 "../../../os/ext/lwip-1.4.1/src/include/lwip/err.h"
 100              		.file 14 "../../../os/various/lwip_bindings/arch/sys_arch.h"
 101              		.file 15 "../../../os/ext/lwip-1.4.1/src/include/lwip/sys.h"
 102              		.file 16 "../../../os/ext/CMSIS/include/core_cm4.h"