ARM GAS  C:\Users\jo\AppData\Local\Temp\ccSJCOaC.s 			page 1


   1              		.syntax unified
   2              		.cpu cortex-m4
   3              		.eabi_attribute 27, 3
   4              		.eabi_attribute 28, 1
   5              		.fpu fpv4-sp-d16
   6              		.eabi_attribute 20, 1
   7              		.eabi_attribute 21, 1
   8              		.eabi_attribute 23, 3
   9              		.eabi_attribute 24, 1
  10              		.eabi_attribute 25, 1
  11              		.eabi_attribute 26, 1
  12              		.eabi_attribute 30, 2
  13              		.eabi_attribute 34, 1
  14              		.eabi_attribute 18, 4
  15              		.thumb
  16              		.file	"sys_arch.c"
  17              		.text
  18              	.Ltext0:
  19              		.cfi_sections	.debug_frame
  20              		.section	.text.sys_init,"ax",%progbits
  21              		.align	2
  22              		.p2align 4,,15
  23              		.global	sys_init
  24              		.thumb
  25              		.thumb_func
  26              		.type	sys_init, %function
  27              	sys_init:
  28              	.LFB256:
  29              		.file 1 "../../../os/various/lwip_bindings/arch/sys_arch.c"
  30              		.loc 1 63 0
  31              		.cfi_startproc
  32              		@ args = 0, pretend = 0, frame = 0
  33              		@ frame_needed = 0, uses_anonymous_args = 0
  34              		@ link register save eliminated.
  35 0000 7047     		bx	lr
  36              		.cfi_endproc
  37              	.LFE256:
  38              		.size	sys_init, .-sys_init
  39 0002 00BFAFF3 		.section	.text.sys_sem_new,"ax",%progbits
  39      0080AFF3 
  39      0080AFF3 
  39      0080
  40              		.align	2
  41              		.p2align 4,,15
  42              		.global	sys_sem_new
  43              		.thumb
  44              		.thumb_func
  45              		.type	sys_sem_new, %function
  46              	sys_sem_new:
  47              	.LFB257:
  48              		.loc 1 67 0
  49              		.cfi_startproc
  50              		@ args = 0, pretend = 0, frame = 0
  51              		@ frame_needed = 0, uses_anonymous_args = 0
  52              	.LVL0:
  53              		.loc 1 67 0
  54 0000 38B5     		push	{r3, r4, r5, lr}
ARM GAS  C:\Users\jo\AppData\Local\Temp\ccSJCOaC.s 			page 2


  55              		.cfi_def_cfa_offset 16
  56              		.cfi_offset 3, -16
  57              		.cfi_offset 4, -12
  58              		.cfi_offset 5, -8
  59              		.cfi_offset 14, -4
  60              		.loc 1 67 0
  61 0002 0446     		mov	r4, r0
  62 0004 0D46     		mov	r5, r1
  63              		.loc 1 69 0
  64 0006 0020     		movs	r0, #0
  65              	.LVL1:
  66 0008 0C21     		movs	r1, #12
  67              	.LVL2:
  68 000a FFF7FEFF 		bl	chHeapAlloc
  69              	.LVL3:
  70 000e 2060     		str	r0, [r4]
  71              		.loc 1 70 0
  72 0010 90B1     		cbz	r0, .L8
  73              		.loc 1 75 0
  74 0012 2946     		mov	r1, r5
  75 0014 FFF7FEFF 		bl	chSemObjectInit
  76              	.LVL4:
  77              		.loc 1 76 0
  78 0018 0B4A     		ldr	r2, .L9
  79 001a B2F83E31 		ldrh	r3, [r2, #318]
  80 001e B2F84011 		ldrh	r1, [r2, #320]
  81 0022 0133     		adds	r3, r3, #1
  82 0024 9BB2     		uxth	r3, r3
  83 0026 9942     		cmp	r1, r3
  84 0028 A2F83E31 		strh	r3, [r2, #318]	@ movhi
  85 002c 38BF     		it	cc
  86 002e A2F84031 		strhcc	r3, [r2, #320]	@ movhi
  87              		.loc 1 77 0
  88 0032 0020     		movs	r0, #0
  89              	.L4:
  90              		.loc 1 79 0
  91 0034 40B2     		sxtb	r0, r0
  92 0036 38BD     		pop	{r3, r4, r5, pc}
  93              	.LVL5:
  94              	.L8:
  95              		.loc 1 71 0
  96 0038 034A     		ldr	r2, .L9
  97 003a B2F84231 		ldrh	r3, [r2, #322]
  98 003e 0133     		adds	r3, r3, #1
  99 0040 A2F84231 		strh	r3, [r2, #322]	@ movhi
 100              		.loc 1 72 0
 101 0044 FF20     		movs	r0, #255
 102 0046 F5E7     		b	.L4
 103              	.L10:
 104              		.align	2
 105              	.L9:
 106 0048 00000000 		.word	lwip_stats
 107              		.cfi_endproc
 108              	.LFE257:
 109              		.size	sys_sem_new, .-sys_sem_new
 110 004c AFF30080 		.section	.text.sys_sem_free,"ax",%progbits
 111              		.align	2
ARM GAS  C:\Users\jo\AppData\Local\Temp\ccSJCOaC.s 			page 3


 112              		.p2align 4,,15
 113              		.global	sys_sem_free
 114              		.thumb
 115              		.thumb_func
 116              		.type	sys_sem_free, %function
 117              	sys_sem_free:
 118              	.LFB258:
 119              		.loc 1 81 0
 120              		.cfi_startproc
 121              		@ args = 0, pretend = 0, frame = 0
 122              		@ frame_needed = 0, uses_anonymous_args = 0
 123              	.LVL6:
 124 0000 10B5     		push	{r4, lr}
 125              		.cfi_def_cfa_offset 8
 126              		.cfi_offset 4, -8
 127              		.cfi_offset 14, -4
 128              		.loc 1 81 0
 129 0002 0446     		mov	r4, r0
 130              		.loc 1 83 0
 131 0004 0068     		ldr	r0, [r0]
 132              	.LVL7:
 133 0006 FFF7FEFF 		bl	chHeapFree
 134              	.LVL8:
 135              		.loc 1 85 0
 136 000a 044A     		ldr	r2, .L13
 137 000c B2F83E31 		ldrh	r3, [r2, #318]
 138              		.loc 1 84 0
 139 0010 0021     		movs	r1, #0
 140              		.loc 1 85 0
 141 0012 013B     		subs	r3, r3, #1
 142              		.loc 1 84 0
 143 0014 2160     		str	r1, [r4]
 144              		.loc 1 85 0
 145 0016 A2F83E31 		strh	r3, [r2, #318]	@ movhi
 146 001a 10BD     		pop	{r4, pc}
 147              	.LVL9:
 148              	.L14:
 149              		.align	2
 150              	.L13:
 151 001c 00000000 		.word	lwip_stats
 152              		.cfi_endproc
 153              	.LFE258:
 154              		.size	sys_sem_free, .-sys_sem_free
 155              		.section	.text.sys_sem_signal,"ax",%progbits
 156              		.align	2
 157              		.p2align 4,,15
 158              		.global	sys_sem_signal
 159              		.thumb
 160              		.thumb_func
 161              		.type	sys_sem_signal, %function
 162              	sys_sem_signal:
 163              	.LFB259:
 164              		.loc 1 88 0
 165              		.cfi_startproc
 166              		@ args = 0, pretend = 0, frame = 0
 167              		@ frame_needed = 0, uses_anonymous_args = 0
 168              		@ link register save eliminated.
ARM GAS  C:\Users\jo\AppData\Local\Temp\ccSJCOaC.s 			page 4


 169              	.LVL10:
 170              		.loc 1 90 0
 171 0000 0068     		ldr	r0, [r0]
 172              	.LVL11:
 173 0002 FFF7FEBF 		b	chSemSignal
 174              	.LVL12:
 175              		.cfi_endproc
 176              	.LFE259:
 177              		.size	sys_sem_signal, .-sys_sem_signal
 178 0006 00BFAFF3 		.section	.text.sys_sem_signal_S,"ax",%progbits
 178      0080AFF3 
 178      0080
 179              		.align	2
 180              		.p2align 4,,15
 181              		.global	sys_sem_signal_S
 182              		.thumb
 183              		.thumb_func
 184              		.type	sys_sem_signal_S, %function
 185              	sys_sem_signal_S:
 186              	.LFB260:
 187              		.loc 1 95 0
 188              		.cfi_startproc
 189              		@ args = 0, pretend = 0, frame = 0
 190              		@ frame_needed = 0, uses_anonymous_args = 0
 191              	.LVL13:
 192 0000 08B5     		push	{r3, lr}
 193              		.cfi_def_cfa_offset 8
 194              		.cfi_offset 3, -8
 195              		.cfi_offset 14, -4
 196              		.loc 1 97 0
 197 0002 0068     		ldr	r0, [r0]
 198              	.LVL14:
 199 0004 FFF7FEFF 		bl	chSemSignalI
 200              	.LVL15:
 201              		.loc 1 99 0
 202 0008 BDE80840 		pop	{r3, lr}
 203              		.cfi_restore 14
 204              		.cfi_restore 3
 205              		.cfi_def_cfa_offset 0
 206              		.loc 1 98 0
 207 000c FFF7FEBF 		b	chSchRescheduleS
 208              	.LVL16:
 209              		.cfi_endproc
 210              	.LFE260:
 211              		.size	sys_sem_signal_S, .-sys_sem_signal_S
 212              		.section	.text.sys_arch_sem_wait,"ax",%progbits
 213              		.align	2
 214              		.p2align 4,,15
 215              		.global	sys_arch_sem_wait
 216              		.thumb
 217              		.thumb_func
 218              		.type	sys_arch_sem_wait, %function
 219              	sys_arch_sem_wait:
 220              	.LFB261:
 221              		.loc 1 101 0
 222              		.cfi_startproc
 223              		@ args = 0, pretend = 0, frame = 0
ARM GAS  C:\Users\jo\AppData\Local\Temp\ccSJCOaC.s 			page 5


 224              		@ frame_needed = 0, uses_anonymous_args = 0
 225              	.LVL17:
 226 0000 38B5     		push	{r3, r4, r5, lr}
 227              		.cfi_def_cfa_offset 16
 228              		.cfi_offset 3, -16
 229              		.cfi_offset 4, -12
 230              		.cfi_offset 5, -8
 231              		.cfi_offset 14, -4
 232              	.LBB121:
 233              	.LBB122:
 234              	.LBB123:
 235              	.LBB124:
 236              	.LBB125:
 237              		.file 2 "../../../os/ext/CMSIS/include/core_cmFunc.h"
 238              		.loc 2 546 0
 239 0002 2023     		movs	r3, #32
 240              	@ 546 "../../../os/ext/CMSIS/include/core_cmFunc.h" 1
 241 0004 83F31188 		MSR basepri, r3
 242              	@ 0 "" 2
 243              		.thumb
 244              	.LBE125:
 245              	.LBE124:
 246              	.LBE123:
 247              	.LBE122:
 248              	.LBE121:
 249              	.LBB126:
 250              	.LBB127:
 251              	.LBB128:
 252              	.LBB129:
 253              	.LBB130:
 254              		.file 3 "../../../os/hal/ports/STM32/LLD/TIMv1/st_lld.h"
 255              		.loc 3 128 0
 256 0008 4FF08044 		mov	r4, #1073741824
 257              	.LBE130:
 258              	.LBE129:
 259              	.LBE128:
 260              	.LBE127:
 261              	.LBE126:
 262              		.loc 1 105 0
 263 000c 0029     		cmp	r1, #0
 264              	.LVL18:
 265              		.loc 1 107 0
 266 000e 08BF     		it	eq
 267 0010 4FF0FF31 		moveq	r1, #-1
 268              	.LVL19:
 269 0014 0068     		ldr	r0, [r0]
 270              	.LVL20:
 271              	.LBB135:
 272              	.LBB134:
 273              	.LBB133:
 274              	.LBB132:
 275              	.LBB131:
 276              		.loc 3 128 0
 277 0016 656A     		ldr	r5, [r4, #36]
 278              	.LBE131:
 279              	.LBE132:
 280              	.LBE133:
ARM GAS  C:\Users\jo\AppData\Local\Temp\ccSJCOaC.s 			page 6


 281              	.LBE134:
 282              	.LBE135:
 283              		.loc 1 107 0
 284 0018 FFF7FEFF 		bl	chSemWaitTimeoutS
 285              	.LVL21:
 286 001c 28B1     		cbz	r0, .L24
 287              		.loc 1 108 0
 288 001e 4FF0FF30 		mov	r0, #-1
 289              	.LVL22:
 290              	.LBB136:
 291              	.LBB137:
 292              	.LBB138:
 293              	.LBB139:
 294              	.LBB140:
 295              	.LBB141:
 296              		.loc 2 546 0
 297 0022 0023     		movs	r3, #0
 298              	@ 546 "../../../os/ext/CMSIS/include/core_cmFunc.h" 1
 299 0024 83F31188 		MSR basepri, r3
 300              	@ 0 "" 2
 301              		.thumb
 302              	.LBE141:
 303              	.LBE140:
 304              	.LBE139:
 305              	.LBE138:
 306              	.LBE137:
 307              	.LBE136:
 308              		.loc 1 113 0
 309 0028 38BD     		pop	{r3, r4, r5, pc}
 310              	.LVL23:
 311              	.L24:
 312              	.LBB152:
 313              	.LBB153:
 314              	.LBB154:
 315              	.LBB155:
 316              	.LBB156:
 317              		.loc 3 128 0
 318 002a 606A     		ldr	r0, [r4, #36]
 319              	.LBE156:
 320              	.LBE155:
 321              	.LBE154:
 322              	.LBE153:
 323              	.LBE152:
 324              	.LBB157:
 325              	.LBB150:
 326              	.LBB148:
 327              	.LBB146:
 328              	.LBB144:
 329              	.LBB142:
 330              		.loc 2 546 0
 331 002c 0023     		movs	r3, #0
 332              	.LBE142:
 333              	.LBE144:
 334              	.LBE146:
 335              	.LBE148:
 336              	.LBE150:
 337              	.LBE157:
ARM GAS  C:\Users\jo\AppData\Local\Temp\ccSJCOaC.s 			page 7


 338              		.loc 1 110 0
 339 002e 401B     		subs	r0, r0, r5
 340              	.LVL24:
 341              	.LBB158:
 342              	.LBB151:
 343              	.LBB149:
 344              	.LBB147:
 345              	.LBB145:
 346              	.LBB143:
 347              		.loc 2 546 0
 348              	@ 546 "../../../os/ext/CMSIS/include/core_cmFunc.h" 1
 349 0030 83F31188 		MSR basepri, r3
 350              	@ 0 "" 2
 351              		.thumb
 352              	.LBE143:
 353              	.LBE145:
 354              	.LBE147:
 355              	.LBE149:
 356              	.LBE151:
 357              	.LBE158:
 358              		.loc 1 113 0
 359 0034 38BD     		pop	{r3, r4, r5, pc}
 360              		.cfi_endproc
 361              	.LFE261:
 362              		.size	sys_arch_sem_wait, .-sys_arch_sem_wait
 363 0036 00BFAFF3 		.section	.text.sys_sem_valid,"ax",%progbits
 363      0080AFF3 
 363      0080
 364              		.align	2
 365              		.p2align 4,,15
 366              		.global	sys_sem_valid
 367              		.thumb
 368              		.thumb_func
 369              		.type	sys_sem_valid, %function
 370              	sys_sem_valid:
 371              	.LFB262:
 372              		.loc 1 115 0
 373              		.cfi_startproc
 374              		@ args = 0, pretend = 0, frame = 0
 375              		@ frame_needed = 0, uses_anonymous_args = 0
 376              		@ link register save eliminated.
 377              	.LVL25:
 378              		.loc 1 116 0
 379 0000 0068     		ldr	r0, [r0]
 380              	.LVL26:
 381              		.loc 1 117 0
 382 0002 0030     		adds	r0, r0, #0
 383 0004 18BF     		it	ne
 384 0006 0120     		movne	r0, #1
 385 0008 7047     		bx	lr
 386              		.cfi_endproc
 387              	.LFE262:
 388              		.size	sys_sem_valid, .-sys_sem_valid
 389 000a 00BFAFF3 		.section	.text.sys_sem_set_invalid,"ax",%progbits
 389      0080
 390              		.align	2
 391              		.p2align 4,,15
ARM GAS  C:\Users\jo\AppData\Local\Temp\ccSJCOaC.s 			page 8


 392              		.global	sys_sem_set_invalid
 393              		.thumb
 394              		.thumb_func
 395              		.type	sys_sem_set_invalid, %function
 396              	sys_sem_set_invalid:
 397              	.LFB263:
 398              		.loc 1 121 0
 399              		.cfi_startproc
 400              		@ args = 0, pretend = 0, frame = 0
 401              		@ frame_needed = 0, uses_anonymous_args = 0
 402              		@ link register save eliminated.
 403              	.LVL27:
 404              		.loc 1 122 0
 405 0000 0023     		movs	r3, #0
 406 0002 0360     		str	r3, [r0]
 407 0004 7047     		bx	lr
 408              		.cfi_endproc
 409              	.LFE263:
 410              		.size	sys_sem_set_invalid, .-sys_sem_set_invalid
 411 0006 00BFAFF3 		.section	.text.sys_mbox_new,"ax",%progbits
 411      0080AFF3 
 411      0080
 412              		.align	2
 413              		.p2align 4,,15
 414              		.global	sys_mbox_new
 415              		.thumb
 416              		.thumb_func
 417              		.type	sys_mbox_new, %function
 418              	sys_mbox_new:
 419              	.LFB264:
 420              		.loc 1 125 0
 421              		.cfi_startproc
 422              		@ args = 0, pretend = 0, frame = 0
 423              		@ frame_needed = 0, uses_anonymous_args = 0
 424              	.LVL28:
 425 0000 38B5     		push	{r3, r4, r5, lr}
 426              		.cfi_def_cfa_offset 16
 427              		.cfi_offset 3, -16
 428              		.cfi_offset 4, -12
 429              		.cfi_offset 5, -8
 430              		.cfi_offset 14, -4
 431              		.loc 1 125 0
 432 0002 0C46     		mov	r4, r1
 433              		.loc 1 127 0
 434 0004 0A31     		adds	r1, r1, #10
 435              	.LVL29:
 436              		.loc 1 125 0
 437 0006 0546     		mov	r5, r0
 438              		.loc 1 127 0
 439 0008 8900     		lsls	r1, r1, #2
 440 000a 0020     		movs	r0, #0
 441              	.LVL30:
 442 000c FFF7FEFF 		bl	chHeapAlloc
 443              	.LVL31:
 444 0010 0146     		mov	r1, r0
 445 0012 2860     		str	r0, [r5]
 446              		.loc 1 128 0
ARM GAS  C:\Users\jo\AppData\Local\Temp\ccSJCOaC.s 			page 9


 447 0014 60B1     		cbz	r0, .L31
 448              		.loc 1 133 0
 449 0016 2246     		mov	r2, r4
 450 0018 2831     		adds	r1, r1, #40
 451 001a FFF7FEFF 		bl	chMBObjectInit
 452              	.LVL32:
 453              		.loc 1 134 0
 454 001e 084A     		ldr	r2, .L32
 455 0020 B2F84A31 		ldrh	r3, [r2, #330]
 456 0024 0133     		adds	r3, r3, #1
 457 0026 A2F84A31 		strh	r3, [r2, #330]	@ movhi
 458              		.loc 1 135 0
 459 002a 0020     		movs	r0, #0
 460              	.L29:
 461              		.loc 1 137 0
 462 002c 40B2     		sxtb	r0, r0
 463 002e 38BD     		pop	{r3, r4, r5, pc}
 464              	.LVL33:
 465              	.L31:
 466              		.loc 1 129 0
 467 0030 034A     		ldr	r2, .L32
 468 0032 B2F84E31 		ldrh	r3, [r2, #334]
 469 0036 0133     		adds	r3, r3, #1
 470 0038 A2F84E31 		strh	r3, [r2, #334]	@ movhi
 471              		.loc 1 130 0
 472 003c FF20     		movs	r0, #255
 473 003e F5E7     		b	.L29
 474              	.L33:
 475              		.align	2
 476              	.L32:
 477 0040 00000000 		.word	lwip_stats
 478              		.cfi_endproc
 479              	.LFE264:
 480              		.size	sys_mbox_new, .-sys_mbox_new
 481 0044 AFF30080 		.section	.text.sys_mbox_free,"ax",%progbits
 481      AFF30080 
 481      AFF30080 
 482              		.align	2
 483              		.p2align 4,,15
 484              		.global	sys_mbox_free
 485              		.thumb
 486              		.thumb_func
 487              		.type	sys_mbox_free, %function
 488              	sys_mbox_free:
 489              	.LFB265:
 490              		.loc 1 139 0
 491              		.cfi_startproc
 492              		@ args = 0, pretend = 0, frame = 0
 493              		@ frame_needed = 0, uses_anonymous_args = 0
 494              	.LVL34:
 495 0000 38B5     		push	{r3, r4, r5, lr}
 496              		.cfi_def_cfa_offset 16
 497              		.cfi_offset 3, -16
 498              		.cfi_offset 4, -12
 499              		.cfi_offset 5, -8
 500              		.cfi_offset 14, -4
 501              		.loc 1 139 0
ARM GAS  C:\Users\jo\AppData\Local\Temp\ccSJCOaC.s 			page 10


 502 0002 0446     		mov	r4, r0
 503              	.LBB159:
 504              	.LBB160:
 505              	.LBB161:
 506              	.LBB162:
 507              	.LBB163:
 508              		.loc 2 546 0
 509 0004 2023     		movs	r3, #32
 510              	@ 546 "../../../os/ext/CMSIS/include/core_cmFunc.h" 1
 511 0006 83F31188 		MSR basepri, r3
 512              	@ 0 "" 2
 513              	.LVL35:
 514              		.thumb
 515 000a 0368     		ldr	r3, [r0]
 516              	.LBE163:
 517              	.LBE162:
 518              	.LBE161:
 519              	.LBE160:
 520              	.LBE159:
 521              	.LBB164:
 522              	.LBB165:
 523              	.LBB166:
 524              	.LBB167:
 525              	.LBB168:
 526              	.LBB169:
 527 000c 0022     		movs	r2, #0
 528 000e 9B69     		ldr	r3, [r3, #24]
 529              	.LVL36:
 530              	@ 546 "../../../os/ext/CMSIS/include/core_cmFunc.h" 1
 531 0010 82F31188 		MSR basepri, r2
 532              	@ 0 "" 2
 533              		.thumb
 534              	.LBE169:
 535              	.LBE168:
 536              	.LBE167:
 537              	.LBE166:
 538              	.LBE165:
 539              	.LBE164:
 540              		.loc 1 150 0
 541 0014 0A4D     		ldr	r5, .L40
 542              		.loc 1 146 0
 543 0016 3BB1     		cbz	r3, .L35
 544              		.loc 1 150 0
 545 0018 B5F84E31 		ldrh	r3, [r5, #334]
 546              		.loc 1 151 0
 547 001c 0068     		ldr	r0, [r0]
 548              	.LVL37:
 549              		.loc 1 150 0
 550 001e 0133     		adds	r3, r3, #1
 551 0020 A5F84E31 		strh	r3, [r5, #334]	@ movhi
 552              	.LVL38:
 553              		.loc 1 151 0
 554 0024 FFF7FEFF 		bl	chMBReset
 555              	.LVL39:
 556              	.L35:
 557              		.loc 1 153 0
 558 0028 2068     		ldr	r0, [r4]
ARM GAS  C:\Users\jo\AppData\Local\Temp\ccSJCOaC.s 			page 11


 559 002a FFF7FEFF 		bl	chHeapFree
 560              	.LVL40:
 561              		.loc 1 155 0
 562 002e B5F84A31 		ldrh	r3, [r5, #330]
 563              		.loc 1 154 0
 564 0032 0022     		movs	r2, #0
 565              		.loc 1 155 0
 566 0034 013B     		subs	r3, r3, #1
 567              		.loc 1 154 0
 568 0036 2260     		str	r2, [r4]
 569              		.loc 1 155 0
 570 0038 A5F84A31 		strh	r3, [r5, #330]	@ movhi
 571 003c 38BD     		pop	{r3, r4, r5, pc}
 572              	.LVL41:
 573              	.L41:
 574 003e 00BF     		.align	2
 575              	.L40:
 576 0040 00000000 		.word	lwip_stats
 577              		.cfi_endproc
 578              	.LFE265:
 579              		.size	sys_mbox_free, .-sys_mbox_free
 580 0044 AFF30080 		.section	.text.sys_mbox_post,"ax",%progbits
 580      AFF30080 
 580      AFF30080 
 581              		.align	2
 582              		.p2align 4,,15
 583              		.global	sys_mbox_post
 584              		.thumb
 585              		.thumb_func
 586              		.type	sys_mbox_post, %function
 587              	sys_mbox_post:
 588              	.LFB266:
 589              		.loc 1 158 0
 590              		.cfi_startproc
 591              		@ args = 0, pretend = 0, frame = 0
 592              		@ frame_needed = 0, uses_anonymous_args = 0
 593              		@ link register save eliminated.
 594              	.LVL42:
 595              		.loc 1 160 0
 596 0000 0068     		ldr	r0, [r0]
 597              	.LVL43:
 598 0002 4FF0FF32 		mov	r2, #-1
 599 0006 FFF7FEBF 		b	chMBPost
 600              	.LVL44:
 601              		.cfi_endproc
 602              	.LFE266:
 603              		.size	sys_mbox_post, .-sys_mbox_post
 604              		.section	.text.sys_mbox_trypost,"ax",%progbits
 605              		.align	2
 606              		.p2align 4,,15
 607              		.global	sys_mbox_trypost
 608              		.thumb
 609              		.thumb_func
 610              		.type	sys_mbox_trypost, %function
 611              	sys_mbox_trypost:
 612              	.LFB267:
 613              		.loc 1 163 0
ARM GAS  C:\Users\jo\AppData\Local\Temp\ccSJCOaC.s 			page 12


 614              		.cfi_startproc
 615              		@ args = 0, pretend = 0, frame = 0
 616              		@ frame_needed = 0, uses_anonymous_args = 0
 617              	.LVL45:
 618 0000 08B5     		push	{r3, lr}
 619              		.cfi_def_cfa_offset 8
 620              		.cfi_offset 3, -8
 621              		.cfi_offset 14, -4
 622              		.loc 1 165 0
 623 0002 0068     		ldr	r0, [r0]
 624              	.LVL46:
 625 0004 0022     		movs	r2, #0
 626 0006 FFF7FEFF 		bl	chMBPost
 627              	.LVL47:
 628 000a 0130     		adds	r0, r0, #1
 629              		.loc 1 169 0
 630 000c 18BF     		it	ne
 631 000e 0020     		movne	r0, #0
 632              		.loc 1 165 0
 633 0010 01D0     		beq	.L47
 634              	.L44:
 635              		.loc 1 170 0
 636 0012 40B2     		sxtb	r0, r0
 637 0014 08BD     		pop	{r3, pc}
 638              	.L47:
 639              		.loc 1 166 0
 640 0016 044A     		ldr	r2, .L48
 641 0018 B2F84E31 		ldrh	r3, [r2, #334]
 642 001c 0133     		adds	r3, r3, #1
 643 001e A2F84E31 		strh	r3, [r2, #334]	@ movhi
 644              		.loc 1 167 0
 645 0022 FF20     		movs	r0, #255
 646 0024 F5E7     		b	.L44
 647              	.L49:
 648 0026 00BF     		.align	2
 649              	.L48:
 650 0028 00000000 		.word	lwip_stats
 651              		.cfi_endproc
 652              	.LFE267:
 653              		.size	sys_mbox_trypost, .-sys_mbox_trypost
 654 002c AFF30080 		.section	.text.sys_arch_mbox_fetch,"ax",%progbits
 655              		.align	2
 656              		.p2align 4,,15
 657              		.global	sys_arch_mbox_fetch
 658              		.thumb
 659              		.thumb_func
 660              		.type	sys_arch_mbox_fetch, %function
 661              	sys_arch_mbox_fetch:
 662              	.LFB268:
 663              		.loc 1 172 0
 664              		.cfi_startproc
 665              		@ args = 0, pretend = 0, frame = 0
 666              		@ frame_needed = 0, uses_anonymous_args = 0
 667              	.LVL48:
 668 0000 38B5     		push	{r3, r4, r5, lr}
 669              		.cfi_def_cfa_offset 16
 670              		.cfi_offset 3, -16
ARM GAS  C:\Users\jo\AppData\Local\Temp\ccSJCOaC.s 			page 13


 671              		.cfi_offset 4, -12
 672              		.cfi_offset 5, -8
 673              		.cfi_offset 14, -4
 674              	.LBB170:
 675              	.LBB171:
 676              	.LBB172:
 677              	.LBB173:
 678              	.LBB174:
 679              		.loc 2 546 0
 680 0002 2023     		movs	r3, #32
 681              	@ 546 "../../../os/ext/CMSIS/include/core_cmFunc.h" 1
 682 0004 83F31188 		MSR basepri, r3
 683              	@ 0 "" 2
 684              		.thumb
 685              	.LBE174:
 686              	.LBE173:
 687              	.LBE172:
 688              	.LBE171:
 689              	.LBE170:
 690              	.LBB175:
 691              	.LBB176:
 692              	.LBB177:
 693              	.LBB178:
 694              	.LBB179:
 695              		.loc 3 128 0
 696 0008 4FF08044 		mov	r4, #1073741824
 697              	.LBE179:
 698              	.LBE178:
 699              	.LBE177:
 700              	.LBE176:
 701              	.LBE175:
 702              		.loc 1 176 0
 703 000c 002A     		cmp	r2, #0
 704              	.LVL49:
 705              		.loc 1 178 0
 706 000e 08BF     		it	eq
 707 0010 4FF0FF32 		moveq	r2, #-1
 708              	.LVL50:
 709 0014 0068     		ldr	r0, [r0]
 710              	.LVL51:
 711              	.LBB184:
 712              	.LBB183:
 713              	.LBB182:
 714              	.LBB181:
 715              	.LBB180:
 716              		.loc 3 128 0
 717 0016 656A     		ldr	r5, [r4, #36]
 718              	.LBE180:
 719              	.LBE181:
 720              	.LBE182:
 721              	.LBE183:
 722              	.LBE184:
 723              		.loc 1 178 0
 724 0018 FFF7FEFF 		bl	chMBFetchS
 725              	.LVL52:
 726 001c 28B1     		cbz	r0, .L56
 727              		.loc 1 179 0
ARM GAS  C:\Users\jo\AppData\Local\Temp\ccSJCOaC.s 			page 14


 728 001e 4FF0FF30 		mov	r0, #-1
 729              	.LVL53:
 730              	.LBB185:
 731              	.LBB186:
 732              	.LBB187:
 733              	.LBB188:
 734              	.LBB189:
 735              	.LBB190:
 736              		.loc 2 546 0
 737 0022 0023     		movs	r3, #0
 738              	@ 546 "../../../os/ext/CMSIS/include/core_cmFunc.h" 1
 739 0024 83F31188 		MSR basepri, r3
 740              	@ 0 "" 2
 741              		.thumb
 742              	.LBE190:
 743              	.LBE189:
 744              	.LBE188:
 745              	.LBE187:
 746              	.LBE186:
 747              	.LBE185:
 748              		.loc 1 184 0
 749 0028 38BD     		pop	{r3, r4, r5, pc}
 750              	.LVL54:
 751              	.L56:
 752              	.LBB201:
 753              	.LBB202:
 754              	.LBB203:
 755              	.LBB204:
 756              	.LBB205:
 757              		.loc 3 128 0
 758 002a 606A     		ldr	r0, [r4, #36]
 759              	.LBE205:
 760              	.LBE204:
 761              	.LBE203:
 762              	.LBE202:
 763              	.LBE201:
 764              	.LBB206:
 765              	.LBB199:
 766              	.LBB197:
 767              	.LBB195:
 768              	.LBB193:
 769              	.LBB191:
 770              		.loc 2 546 0
 771 002c 0023     		movs	r3, #0
 772              	.LBE191:
 773              	.LBE193:
 774              	.LBE195:
 775              	.LBE197:
 776              	.LBE199:
 777              	.LBE206:
 778              		.loc 1 181 0
 779 002e 401B     		subs	r0, r0, r5
 780              	.LVL55:
 781              	.LBB207:
 782              	.LBB200:
 783              	.LBB198:
 784              	.LBB196:
ARM GAS  C:\Users\jo\AppData\Local\Temp\ccSJCOaC.s 			page 15


 785              	.LBB194:
 786              	.LBB192:
 787              		.loc 2 546 0
 788              	@ 546 "../../../os/ext/CMSIS/include/core_cmFunc.h" 1
 789 0030 83F31188 		MSR basepri, r3
 790              	@ 0 "" 2
 791              		.thumb
 792              	.LBE192:
 793              	.LBE194:
 794              	.LBE196:
 795              	.LBE198:
 796              	.LBE200:
 797              	.LBE207:
 798              		.loc 1 184 0
 799 0034 38BD     		pop	{r3, r4, r5, pc}
 800              		.cfi_endproc
 801              	.LFE268:
 802              		.size	sys_arch_mbox_fetch, .-sys_arch_mbox_fetch
 803 0036 00BFAFF3 		.section	.text.sys_arch_mbox_tryfetch,"ax",%progbits
 803      0080AFF3 
 803      0080
 804              		.align	2
 805              		.p2align 4,,15
 806              		.global	sys_arch_mbox_tryfetch
 807              		.thumb
 808              		.thumb_func
 809              		.type	sys_arch_mbox_tryfetch, %function
 810              	sys_arch_mbox_tryfetch:
 811              	.LFB269:
 812              		.loc 1 186 0
 813              		.cfi_startproc
 814              		@ args = 0, pretend = 0, frame = 0
 815              		@ frame_needed = 0, uses_anonymous_args = 0
 816              	.LVL56:
 817 0000 08B5     		push	{r3, lr}
 818              		.cfi_def_cfa_offset 8
 819              		.cfi_offset 3, -8
 820              		.cfi_offset 14, -4
 821              		.loc 1 188 0
 822 0002 0022     		movs	r2, #0
 823 0004 0068     		ldr	r0, [r0]
 824              	.LVL57:
 825 0006 FFF7FEFF 		bl	chMBFetch
 826              	.LVL58:
 827              		.loc 1 191 0
 828 000a 0130     		adds	r0, r0, #1
 829 000c 4FF0FF30 		mov	r0, #-1
 830 0010 18BF     		it	ne
 831 0012 0020     		movne	r0, #0
 832 0014 08BD     		pop	{r3, pc}
 833              		.cfi_endproc
 834              	.LFE269:
 835              		.size	sys_arch_mbox_tryfetch, .-sys_arch_mbox_tryfetch
 836 0016 00BFAFF3 		.section	.text.sys_mbox_valid,"ax",%progbits
 836      0080AFF3 
 836      0080
 837              		.align	2
ARM GAS  C:\Users\jo\AppData\Local\Temp\ccSJCOaC.s 			page 16


 838              		.p2align 4,,15
 839              		.global	sys_mbox_valid
 840              		.thumb
 841              		.thumb_func
 842              		.type	sys_mbox_valid, %function
 843              	sys_mbox_valid:
 844              	.LFB270:
 845              		.loc 1 193 0
 846              		.cfi_startproc
 847              		@ args = 0, pretend = 0, frame = 0
 848              		@ frame_needed = 0, uses_anonymous_args = 0
 849              		@ link register save eliminated.
 850              	.LVL59:
 851              		.loc 1 194 0
 852 0000 0068     		ldr	r0, [r0]
 853              	.LVL60:
 854              		.loc 1 195 0
 855 0002 0030     		adds	r0, r0, #0
 856 0004 18BF     		it	ne
 857 0006 0120     		movne	r0, #1
 858 0008 7047     		bx	lr
 859              		.cfi_endproc
 860              	.LFE270:
 861              		.size	sys_mbox_valid, .-sys_mbox_valid
 862 000a 00BFAFF3 		.section	.text.sys_mbox_set_invalid,"ax",%progbits
 862      0080
 863              		.align	2
 864              		.p2align 4,,15
 865              		.global	sys_mbox_set_invalid
 866              		.thumb
 867              		.thumb_func
 868              		.type	sys_mbox_set_invalid, %function
 869              	sys_mbox_set_invalid:
 870              	.LFB271:
 871              		.loc 1 199 0
 872              		.cfi_startproc
 873              		@ args = 0, pretend = 0, frame = 0
 874              		@ frame_needed = 0, uses_anonymous_args = 0
 875              		@ link register save eliminated.
 876              	.LVL61:
 877              		.loc 1 200 0
 878 0000 0023     		movs	r3, #0
 879 0002 0360     		str	r3, [r0]
 880 0004 7047     		bx	lr
 881              		.cfi_endproc
 882              	.LFE271:
 883              		.size	sys_mbox_set_invalid, .-sys_mbox_set_invalid
 884 0006 00BFAFF3 		.section	.text.sys_thread_new,"ax",%progbits
 884      0080AFF3 
 884      0080
 885              		.align	2
 886              		.p2align 4,,15
 887              		.global	sys_thread_new
 888              		.thumb
 889              		.thumb_func
 890              		.type	sys_thread_new, %function
 891              	sys_thread_new:
ARM GAS  C:\Users\jo\AppData\Local\Temp\ccSJCOaC.s 			page 17


 892              	.LFB272:
 893              		.loc 1 204 0
 894              		.cfi_startproc
 895              		@ args = 4, pretend = 0, frame = 0
 896              		@ frame_needed = 0, uses_anonymous_args = 0
 897              	.LVL62:
 898              		.loc 1 210 0
 899 0000 03F24F13 		addw	r3, r3, #335
 900              	.LVL63:
 901              		.loc 1 204 0
 902 0004 2DE9F041 		push	{r4, r5, r6, r7, r8, lr}
 903              		.cfi_def_cfa_offset 24
 904              		.cfi_offset 4, -24
 905              		.cfi_offset 5, -20
 906              		.cfi_offset 6, -16
 907              		.cfi_offset 7, -12
 908              		.cfi_offset 8, -8
 909              		.cfi_offset 14, -4
 910              		.loc 1 210 0
 911 0008 43F00704 		orr	r4, r3, #7
 912 000c 0134     		adds	r4, r4, #1
 913              	.LVL64:
 914              		.loc 1 211 0
 915 000e 2046     		mov	r0, r4
 916              	.LVL65:
 917              		.loc 1 204 0
 918 0010 0D46     		mov	r5, r1
 919 0012 1746     		mov	r7, r2
 920 0014 069E     		ldr	r6, [sp, #24]
 921              		.loc 1 211 0
 922 0016 FFF7FEFF 		bl	chCoreAlloc
 923              	.LVL66:
 924              		.loc 1 212 0
 925 001a 38B1     		cbz	r0, .L62
 926              		.loc 1 214 0
 927 001c 0697     		str	r7, [sp, #24]
 928 001e 2146     		mov	r1, r4
 929 0020 3246     		mov	r2, r6
 930 0022 2B46     		mov	r3, r5
 931              		.loc 1 215 0
 932 0024 BDE8F041 		pop	{r4, r5, r6, r7, r8, lr}
 933              		.cfi_remember_state
 934              		.cfi_restore 14
 935              		.cfi_restore 8
 936              		.cfi_restore 7
 937              		.cfi_restore 6
 938              		.cfi_restore 5
 939              		.cfi_restore 4
 940              		.cfi_def_cfa_offset 0
 941              	.LVL67:
 942              		.loc 1 214 0
 943 0028 FFF7FEBF 		b	chThdCreateStatic
 944              	.LVL68:
 945              	.L62:
 946              		.cfi_restore_state
 947              		.loc 1 215 0
 948 002c BDE8F081 		pop	{r4, r5, r6, r7, r8, pc}
ARM GAS  C:\Users\jo\AppData\Local\Temp\ccSJCOaC.s 			page 18


 949              		.cfi_endproc
 950              	.LFE272:
 951              		.size	sys_thread_new, .-sys_thread_new
 952              		.section	.text.sys_arch_protect,"ax",%progbits
 953              		.align	2
 954              		.p2align 4,,15
 955              		.global	sys_arch_protect
 956              		.thumb
 957              		.thumb_func
 958              		.type	sys_arch_protect, %function
 959              	sys_arch_protect:
 960              	.LFB273:
 961              		.loc 1 217 0
 962              		.cfi_startproc
 963              		@ args = 0, pretend = 0, frame = 0
 964              		@ frame_needed = 0, uses_anonymous_args = 0
 965              		@ link register save eliminated.
 966              	.LVL69:
 967              	.LBB208:
 968              	.LBB209:
 969              	.LBB210:
 970              	.LBB211:
 971              	.LBB212:
 972              		.loc 2 546 0
 973 0000 2023     		movs	r3, #32
 974              	@ 546 "../../../os/ext/CMSIS/include/core_cmFunc.h" 1
 975 0002 83F31188 		MSR basepri, r3
 976              	@ 0 "" 2
 977              		.thumb
 978              	.LBE212:
 979              	.LBE211:
 980              	.LBE210:
 981              	.LBE209:
 982              	.LBE208:
 983              		.loc 1 221 0
 984 0006 0020     		movs	r0, #0
 985 0008 7047     		bx	lr
 986              		.cfi_endproc
 987              	.LFE273:
 988              		.size	sys_arch_protect, .-sys_arch_protect
 989 000a 00BFAFF3 		.section	.text.sys_arch_unprotect,"ax",%progbits
 989      0080
 990              		.align	2
 991              		.p2align 4,,15
 992              		.global	sys_arch_unprotect
 993              		.thumb
 994              		.thumb_func
 995              		.type	sys_arch_unprotect, %function
 996              	sys_arch_unprotect:
 997              	.LFB274:
 998              		.loc 1 223 0
 999              		.cfi_startproc
 1000              		@ args = 0, pretend = 0, frame = 0
 1001              		@ frame_needed = 0, uses_anonymous_args = 0
 1002              		@ link register save eliminated.
 1003              	.LVL70:
 1004              	.LBB213:
ARM GAS  C:\Users\jo\AppData\Local\Temp\ccSJCOaC.s 			page 19


 1005              	.LBB214:
 1006              	.LBB215:
 1007              	.LBB216:
 1008              	.LBB217:
 1009              	.LBB218:
 1010              		.loc 2 546 0
 1011 0000 0023     		movs	r3, #0
 1012              	@ 546 "../../../os/ext/CMSIS/include/core_cmFunc.h" 1
 1013 0002 83F31188 		MSR basepri, r3
 1014              	@ 0 "" 2
 1015              		.thumb
 1016 0006 7047     		bx	lr
 1017              	.LBE218:
 1018              	.LBE217:
 1019              	.LBE216:
 1020              	.LBE215:
 1021              	.LBE214:
 1022              	.LBE213:
 1023              		.cfi_endproc
 1024              	.LFE274:
 1025              		.size	sys_arch_unprotect, .-sys_arch_unprotect
 1026 0008 AFF30080 		.section	.text.sys_now,"ax",%progbits
 1026      AFF30080 
 1027              		.align	2
 1028              		.p2align 4,,15
 1029              		.global	sys_now
 1030              		.thumb
 1031              		.thumb_func
 1032              		.type	sys_now, %function
 1033              	sys_now:
 1034              	.LFB275:
 1035              		.loc 1 229 0
 1036              		.cfi_startproc
 1037              		@ args = 0, pretend = 0, frame = 0
 1038              		@ frame_needed = 0, uses_anonymous_args = 0
 1039              		@ link register save eliminated.
 1040              	.LBB219:
 1041              	.LBB220:
 1042              	.LBB221:
 1043              	.LBB222:
 1044              	.LBB223:
 1045              		.loc 3 128 0
 1046 0000 4FF08042 		mov	r2, #1073741824
 1047              	.LBE223:
 1048              	.LBE222:
 1049              	.LBE221:
 1050              	.LBE220:
 1051              	.LBE219:
 1052              		.loc 1 234 0
 1053 0004 034B     		ldr	r3, .L67
 1054              	.LBB228:
 1055              	.LBB227:
 1056              	.LBB226:
 1057              	.LBB225:
 1058              	.LBB224:
 1059              		.loc 3 128 0
 1060 0006 506A     		ldr	r0, [r2, #36]
ARM GAS  C:\Users\jo\AppData\Local\Temp\ccSJCOaC.s 			page 20


 1061              	.LBE224:
 1062              	.LBE225:
 1063              	.LBE226:
 1064              	.LBE227:
 1065              	.LBE228:
 1066              		.loc 1 234 0
 1067 0008 0138     		subs	r0, r0, #1
 1068 000a A3FB0030 		umull	r3, r0, r3, r0
 1069 000e C008     		lsrs	r0, r0, #3
 1070              		.loc 1 240 0
 1071 0010 0130     		adds	r0, r0, #1
 1072 0012 7047     		bx	lr
 1073              	.L68:
 1074              		.align	2
 1075              	.L67:
 1076 0014 CDCCCCCC 		.word	-858993459
 1077              		.cfi_endproc
 1078              	.LFE275:
 1079              		.size	sys_now, .-sys_now
 1080 0018 AFF30080 		.text
 1080      AFF30080 
 1081              	.Letext0:
 1082              		.file 4 "c:\\program files\\gnu tools arm embedded\\4.9 2014q4\\lib\\gcc\\arm-none-eabi\\4.9.3\\in
 1083              		.file 5 "c:\\program files\\gnu tools arm embedded\\4.9 2014q4\\arm-none-eabi\\include\\machine\\_
 1084              		.file 6 "c:\\program files\\gnu tools arm embedded\\4.9 2014q4\\arm-none-eabi\\include\\stdint.h"
 1085              		.file 7 "../../../os/rt/ports/ARMCMx/compilers/GCC/chtypes.h"
 1086              		.file 8 "../../../os/rt/include/chsystypes.h"
 1087              		.file 9 "../../../os/rt/include/chschd.h"
 1088              		.file 10 "../../../os/rt/ports/ARMCMx/chcore.h"
 1089              		.file 11 "../../../os/rt/ports/ARMCMx/chcore_v7m.h"
 1090              		.file 12 "../../../os/hal/ports/STM32/LLD/TIMv1/stm32_tim.h"
 1091              		.file 13 "../../../os/rt/include/chtm.h"
 1092              		.file 14 "../../../os/rt/include/chmtx.h"
 1093              		.file 15 "../../../os/rt/include/chthreads.h"
 1094              		.file 16 "../../../os/rt/include/chsem.h"
 1095              		.file 17 "../../../os/rt/include/chmboxes.h"
 1096              		.file 18 "../../../os/rt/include/chmemcore.h"
 1097              		.file 19 "../../../os/rt/include/chheap.h"
 1098              		.file 20 "../../../os/various/lwip_bindings/arch/cc.h"
 1099              		.file 21 "../../../os/ext/lwip-1.4.1/src/include/lwip/mem.h"
 1100              		.file 22 "../../../os/ext/lwip-1.4.1/src/include/lwip/err.h"
 1101              		.file 23 "../../../os/various/lwip_bindings/arch/sys_arch.h"
 1102              		.file 24 "../../../os/ext/lwip-1.4.1/src/include/lwip/sys.h"
 1103              		.file 25 "../../../os/ext/lwip-1.4.1/src/include/lwip/stats.h"
 1104              		.file 26 "../../../os/rt/ports/ARMCMx/chcore_timer.h"
 1105              		.file 27 "../../../os/rt/include/chsys.h"
 1106              		.file 28 "../../../os/rt/include/chvt.h"
 1107              		.file 29 "../../../os/hal/osal/rt/osal.h"
 1108              		.file 30 "../../../os/ext/CMSIS/include/core_cm4.h"