ARM GAS  C:\Users\jo\AppData\Local\Temp\ccfPCWHi.s 			page 1


   1              		.syntax unified
   2              		.cpu cortex-m4
   3              		.eabi_attribute 27, 3
   4              		.eabi_attribute 28, 1
   5              		.fpu fpv4-sp-d16
   6              		.eabi_attribute 20, 1
   7              		.eabi_attribute 21, 1
   8              		.eabi_attribute 23, 3
   9              		.eabi_attribute 24, 1
  10              		.eabi_attribute 25, 1
  11              		.eabi_attribute 26, 1
  12              		.eabi_attribute 30, 2
  13              		.eabi_attribute 34, 1
  14              		.eabi_attribute 18, 4
  15              		.thumb
  16              		.file	"syscalls.c"
  17              		.text
  18              	.Ltext0:
  19              		.cfi_sections	.debug_frame
  20              		.section	.text.chprintf.constprop.0,"ax",%progbits
  21              		.align	2
  22              		.p2align 4,,15
  23              		.thumb
  24              		.thumb_func
  25              		.type	chprintf.constprop.0, %function
  26              	chprintf.constprop.0:
  27              	.LFB265:
  28              		.file 1 "../../../os/hal/lib/streams/chprintf.h"
  29              		.loc 1 69 0
  30              		.cfi_startproc
  31              		@ args = 4, pretend = 12, frame = 8
  32              		@ frame_needed = 0, uses_anonymous_args = 1
  33              	.LVL0:
  34 0000 0EB4     		push	{r1, r2, r3}
  35              		.cfi_def_cfa_offset 12
  36              		.cfi_offset 1, -12
  37              		.cfi_offset 2, -8
  38              		.cfi_offset 3, -4
  39 0002 00B5     		push	{lr}
  40              		.cfi_def_cfa_offset 16
  41              		.cfi_offset 14, -16
  42 0004 82B0     		sub	sp, sp, #8
  43              		.cfi_def_cfa_offset 24
  44              		.loc 1 69 0
  45 0006 03AA     		add	r2, sp, #12
  46              		.loc 1 74 0
  47 0008 0548     		ldr	r0, .L3
  48              	.LVL1:
  49              		.loc 1 69 0
  50 000a 52F8041B 		ldr	r1, [r2], #4
  51              		.loc 1 73 0
  52 000e 0192     		str	r2, [sp, #4]
  53              		.loc 1 74 0
  54 0010 FFF7FEFF 		bl	chvprintf
  55              	.LVL2:
  56              		.loc 1 78 0
  57 0014 02B0     		add	sp, sp, #8
ARM GAS  C:\Users\jo\AppData\Local\Temp\ccfPCWHi.s 			page 2


  58              		.cfi_def_cfa_offset 16
  59              		@ sp needed
  60 0016 5DF804EB 		ldr	lr, [sp], #4
  61              		.cfi_restore 14
  62              		.cfi_def_cfa_offset 12
  63 001a 03B0     		add	sp, sp, #12
  64              		.cfi_restore 3
  65              		.cfi_restore 2
  66              		.cfi_restore 1
  67              		.cfi_def_cfa_offset 0
  68 001c 7047     		bx	lr
  69              	.L4:
  70 001e 00BF     		.align	2
  71              	.L3:
  72 0020 00000000 		.word	itm_port
  73              		.cfi_endproc
  74              	.LFE265:
  75              		.size	chprintf.constprop.0, .-chprintf.constprop.0
  76 0024 AFF30080 		.section	.text._open_r,"ax",%progbits
  76      AFF30080 
  76      AFF30080 
  77              		.align	2
  78              		.p2align 4,,15
  79              		.global	_open_r
  80              		.thumb
  81              		.thumb_func
  82              		.type	_open_r, %function
  83              	_open_r:
  84              	.LFB256:
  85              		.file 2 "../../../os/various/syscalls.c"
  86              		.loc 2 84 0
  87              		.cfi_startproc
  88              		@ args = 0, pretend = 0, frame = 0
  89              		@ frame_needed = 0, uses_anonymous_args = 0
  90              	.LVL3:
  91 0000 10B5     		push	{r4, lr}
  92              		.cfi_def_cfa_offset 8
  93              		.cfi_offset 4, -8
  94              		.cfi_offset 14, -4
  95              		.loc 2 92 0
  96 0002 0748     		ldr	r0, .L13
  97              	.LVL4:
  98              		.loc 2 84 0
  99 0004 0C46     		mov	r4, r1
 100              		.loc 2 92 0
 101 0006 FFF7FEFF 		bl	strcmp
 102              	.LVL5:
 103 000a 30B1     		cbz	r0, .L7
 104              	.LVL6:
 105 000c 2146     		mov	r1, r4
 106 000e 0548     		ldr	r0, .L13+4
 107 0010 FFF7FEFF 		bl	strcmp
 108              	.LVL7:
 109 0014 10B1     		cbz	r0, .L12
 110              		.loc 2 96 0
 111 0016 4FF0FF30 		mov	r0, #-1
 112              	.LVL8:
ARM GAS  C:\Users\jo\AppData\Local\Temp\ccfPCWHi.s 			page 3


 113              	.L7:
 114              		.loc 2 97 0
 115 001a 10BD     		pop	{r4, pc}
 116              	.LVL9:
 117              	.L12:
 118              		.loc 2 92 0
 119 001c 0120     		movs	r0, #1
 120 001e 10BD     		pop	{r4, pc}
 121              	.LVL10:
 122              	.L14:
 123              		.align	2
 124              	.L13:
 125 0020 00000000 		.word	.LC0
 126 0024 0C000000 		.word	.LC1
 127              		.cfi_endproc
 128              	.LFE256:
 129              		.size	_open_r, .-_open_r
 130 0028 AFF30080 		.section	.text._read_r,"ax",%progbits
 130      AFF30080 
 131              		.align	2
 132              		.p2align 4,,15
 133              		.global	_read_r
 134              		.thumb
 135              		.thumb_func
 136              		.type	_read_r, %function
 137              	_read_r:
 138              	.LFB257:
 139              		.loc 2 102 0
 140              		.cfi_startproc
 141              		@ args = 0, pretend = 0, frame = 0
 142              		@ frame_needed = 0, uses_anonymous_args = 0
 143              		@ link register save eliminated.
 144              	.LVL11:
 145              		.loc 2 118 0
 146 0000 EBB1     		cbz	r3, .L16
 147              		.loc 2 118 0 is_stmt 0 discriminator 1
 148 0002 B1F1FF3F 		cmp	r1, #-1
 149 0006 1AD0     		beq	.L16
 150 0008 0F48     		ldr	r0, .L30
 151              	.LVL12:
 152              		.loc 2 102 0 is_stmt 1
 153 000a 70B4     		push	{r4, r5, r6}
 154              		.cfi_def_cfa_offset 12
 155              		.cfi_offset 4, -12
 156              		.cfi_offset 5, -8
 157              		.cfi_offset 6, -4
 158 000c 00EBC101 		add	r1, r0, r1, lsl #3
 159              	.LVL13:
 160              		.loc 2 118 0
 161 0010 1D46     		mov	r5, r3
 162 0012 4E68     		ldr	r6, [r1, #4]
 163 0014 3178     		ldrb	r1, [r6]	@ zero_extendqisi2
 164 0016 0024     		movs	r4, #0
 165              	.LVL14:
 166              	.L21:
 167              		.loc 2 124 0
 168 0018 0134     		adds	r4, r4, #1
ARM GAS  C:\Users\jo\AppData\Local\Temp\ccfPCWHi.s 			page 4


 169              	.LVL15:
 170 001a E4B2     		uxtb	r4, r4
 171              		.loc 2 131 0
 172 001c 013D     		subs	r5, r5, #1
 173              	.LVL16:
 174              		.loc 2 123 0
 175 001e 19B9     		cbnz	r1, .L29
 176              	.LVL17:
 177              	.L20:
 178              		.loc 2 134 0
 179 0020 DBB2     		uxtb	r3, r3
 180 0022 581B     		subs	r0, r3, r5
 181              		.loc 2 140 0
 182 0024 70BC     		pop	{r4, r5, r6}
 183              		.cfi_remember_state
 184              		.cfi_restore 6
 185              		.cfi_restore 5
 186              		.cfi_restore 4
 187              		.cfi_def_cfa_offset 0
 188 0026 7047     		bx	lr
 189              	.LVL18:
 190              	.L29:
 191              		.cfi_restore_state
 192              		.loc 2 132 0
 193 0028 002D     		cmp	r5, #0
 194              		.loc 2 124 0
 195 002a 02F8011B 		strb	r1, [r2], #1
 196              	.LVL19:
 197              		.loc 2 132 0
 198 002e F7DD     		ble	.L20
 199              		.loc 2 132 0 is_stmt 0 discriminator 1
 200 0030 315D     		ldrb	r1, [r6, r4]	@ zero_extendqisi2
 201 0032 0029     		cmp	r1, #0
 202 0034 F0D1     		bne	.L21
 203              		.loc 2 134 0 is_stmt 1
 204 0036 DBB2     		uxtb	r3, r3
 205 0038 581B     		subs	r0, r3, r5
 206              		.loc 2 140 0
 207 003a 70BC     		pop	{r4, r5, r6}
 208              		.cfi_restore 4
 209              		.cfi_restore 5
 210              		.cfi_restore 6
 211              		.cfi_def_cfa_offset 0
 212              	.LVL20:
 213 003c 7047     		bx	lr
 214              	.LVL21:
 215              	.L16:
 216              		.loc 2 119 0
 217 003e 0923     		movs	r3, #9
 218              	.LVL22:
 219 0040 0360     		str	r3, [r0]
 220              		.loc 2 120 0
 221 0042 4FF0FF30 		mov	r0, #-1
 222              	.LVL23:
 223              		.loc 2 140 0
 224 0046 7047     		bx	lr
 225              	.L31:
ARM GAS  C:\Users\jo\AppData\Local\Temp\ccfPCWHi.s 			page 5


 226              		.align	2
 227              	.L30:
 228 0048 00000000 		.word	.LANCHOR0
 229              		.cfi_endproc
 230              	.LFE257:
 231              		.size	_read_r, .-_read_r
 232 004c AFF30080 		.section	.text._lseek_r,"ax",%progbits
 233              		.align	2
 234              		.p2align 4,,15
 235              		.global	_lseek_r
 236              		.thumb
 237              		.thumb_func
 238              		.type	_lseek_r, %function
 239              	_lseek_r:
 240              	.LFB258:
 241              		.loc 2 145 0
 242              		.cfi_startproc
 243              		@ args = 0, pretend = 0, frame = 0
 244              		@ frame_needed = 0, uses_anonymous_args = 0
 245              		@ link register save eliminated.
 246              	.LVL24:
 247              		.loc 2 152 0
 248 0000 0020     		movs	r0, #0
 249              	.LVL25:
 250 0002 7047     		bx	lr
 251              		.cfi_endproc
 252              	.LFE258:
 253              		.size	_lseek_r, .-_lseek_r
 254 0004 AFF30080 		.section	.text._write_r,"ax",%progbits
 254      AFF30080 
 254      AFF30080 
 255              		.align	2
 256              		.p2align 4,,15
 257              		.global	_write_r
 258              		.thumb
 259              		.thumb_func
 260              		.type	_write_r, %function
 261              	_write_r:
 262              	.LFB259:
 263              		.loc 2 157 0
 264              		.cfi_startproc
 265              		@ args = 0, pretend = 0, frame = 0
 266              		@ frame_needed = 0, uses_anonymous_args = 0
 267              	.LVL26:
 268              		.loc 2 169 0
 269 0000 0139     		subs	r1, r1, #1
 270              	.LVL27:
 271 0002 0129     		cmp	r1, #1
 272              		.loc 2 157 0
 273 0004 70B5     		push	{r4, r5, r6, lr}
 274              		.cfi_def_cfa_offset 16
 275              		.cfi_offset 4, -16
 276              		.cfi_offset 5, -12
 277              		.cfi_offset 6, -8
 278              		.cfi_offset 14, -4
 279              		.loc 2 169 0
 280 0006 0ED8     		bhi	.L34
ARM GAS  C:\Users\jo\AppData\Local\Temp\ccfPCWHi.s 			page 6


 281              		.loc 2 172 0
 282 0008 002B     		cmp	r3, #0
 283 000a 1D46     		mov	r5, r3
 284              	.LVL28:
 285 000c 09DD     		ble	.L38
 286 000e 1646     		mov	r6, r2
 287 0010 0024     		movs	r4, #0
 288              	.LVL29:
 289              	.L36:
 290              		.loc 2 172 0 is_stmt 0 discriminator 3
 291 0012 0134     		adds	r4, r4, #1
 292              	.LVL30:
 293              		.loc 2 173 0 is_stmt 1 discriminator 3
 294 0014 0748     		ldr	r0, .L42
 295 0016 0849     		ldr	r1, .L42+4
 296 0018 3246     		mov	r2, r6
 297 001a FFF7FEFF 		bl	chprintf.constprop.0
 298              	.LVL31:
 299              		.loc 2 172 0 discriminator 3
 300 001e AC42     		cmp	r4, r5
 301 0020 F7D1     		bne	.L36
 302              	.LVL32:
 303              	.L38:
 304              		.loc 2 178 0
 305 0022 2846     		mov	r0, r5
 306 0024 70BD     		pop	{r4, r5, r6, pc}
 307              	.LVL33:
 308              	.L34:
 309              		.loc 2 177 0
 310 0026 FFF7FEFF 		bl	__errno
 311              	.LVL34:
 312 002a 0923     		movs	r3, #9
 313 002c 0360     		str	r3, [r0]
 314              		.loc 2 178 0
 315 002e 4FF0FF30 		mov	r0, #-1
 316              		.loc 2 181 0
 317 0032 70BD     		pop	{r4, r5, r6, pc}
 318              	.L43:
 319              		.align	2
 320              	.L42:
 321 0034 00000000 		.word	itm_port
 322 0038 18000000 		.word	.LC2
 323              		.cfi_endproc
 324              	.LFE259:
 325              		.size	_write_r, .-_write_r
 326 003c AFF30080 		.section	.text._close_r,"ax",%progbits
 327              		.align	2
 328              		.p2align 4,,15
 329              		.global	_close_r
 330              		.thumb
 331              		.thumb_func
 332              		.type	_close_r, %function
 333              	_close_r:
 334              	.LFB260:
 335              		.loc 2 186 0
 336              		.cfi_startproc
 337              		@ args = 0, pretend = 0, frame = 0
ARM GAS  C:\Users\jo\AppData\Local\Temp\ccfPCWHi.s 			page 7


 338              		@ frame_needed = 0, uses_anonymous_args = 0
 339              		@ link register save eliminated.
 340              	.LVL35:
 341              		.loc 2 191 0
 342 0000 0020     		movs	r0, #0
 343              	.LVL36:
 344 0002 7047     		bx	lr
 345              		.cfi_endproc
 346              	.LFE260:
 347              		.size	_close_r, .-_close_r
 348 0004 AFF30080 		.section	.text._sbrk_r,"ax",%progbits
 348      AFF30080 
 348      AFF30080 
 349              		.align	2
 350              		.p2align 4,,15
 351              		.global	_sbrk_r
 352              		.thumb
 353              		.thumb_func
 354              		.type	_sbrk_r, %function
 355              	_sbrk_r:
 356              	.LFB261:
 357              		.loc 2 196 0
 358              		.cfi_startproc
 359              		@ args = 0, pretend = 0, frame = 0
 360              		@ frame_needed = 0, uses_anonymous_args = 0
 361              	.LVL37:
 362 0000 10B5     		push	{r4, lr}
 363              		.cfi_def_cfa_offset 8
 364              		.cfi_offset 4, -8
 365              		.cfi_offset 14, -4
 366              		.loc 2 196 0
 367 0002 0446     		mov	r4, r0
 368              		.loc 2 202 0
 369 0004 0846     		mov	r0, r1
 370              	.LVL38:
 371 0006 FFF7FEFF 		bl	chCoreAlloc
 372              	.LVL39:
 373              		.loc 2 203 0
 374 000a 00B1     		cbz	r0, .L49
 375              		.loc 2 213 0
 376 000c 10BD     		pop	{r4, pc}
 377              	.LVL40:
 378              	.L49:
 379              		.loc 2 204 0
 380 000e 0C23     		movs	r3, #12
 381 0010 2360     		str	r3, [r4]
 382              		.loc 2 205 0
 383 0012 4FF0FF30 		mov	r0, #-1
 384              	.LVL41:
 385              		.loc 2 213 0
 386 0016 10BD     		pop	{r4, pc}
 387              		.cfi_endproc
 388              	.LFE261:
 389              		.size	_sbrk_r, .-_sbrk_r
 390 0018 AFF30080 		.section	.text._fstat_r,"ax",%progbits
 390      AFF30080 
 391              		.align	2
ARM GAS  C:\Users\jo\AppData\Local\Temp\ccfPCWHi.s 			page 8


 392              		.p2align 4,,15
 393              		.global	_fstat_r
 394              		.thumb
 395              		.thumb_func
 396              		.type	_fstat_r, %function
 397              	_fstat_r:
 398              	.LFB262:
 399              		.loc 2 218 0
 400              		.cfi_startproc
 401              		@ args = 0, pretend = 0, frame = 0
 402              		@ frame_needed = 0, uses_anonymous_args = 0
 403              	.LVL42:
 404 0000 10B5     		push	{r4, lr}
 405              		.cfi_def_cfa_offset 8
 406              		.cfi_offset 4, -8
 407              		.cfi_offset 14, -4
 408              		.loc 2 222 0
 409 0002 1046     		mov	r0, r2
 410              	.LVL43:
 411              		.loc 2 218 0
 412 0004 1446     		mov	r4, r2
 413              		.loc 2 222 0
 414 0006 0021     		movs	r1, #0
 415              	.LVL44:
 416 0008 3C22     		movs	r2, #60
 417              	.LVL45:
 418 000a FFF7FEFF 		bl	memset
 419              	.LVL46:
 420              		.loc 2 223 0
 421 000e 4FF40053 		mov	r3, #8192
 422 0012 6360     		str	r3, [r4, #4]
 423              		.loc 2 225 0
 424 0014 0020     		movs	r0, #0
 425 0016 10BD     		pop	{r4, pc}
 426              		.cfi_endproc
 427              	.LFE262:
 428              		.size	_fstat_r, .-_fstat_r
 429 0018 AFF30080 		.section	.text._isatty_r,"ax",%progbits
 429      AFF30080 
 430              		.align	2
 431              		.p2align 4,,15
 432              		.global	_isatty_r
 433              		.thumb
 434              		.thumb_func
 435              		.type	_isatty_r, %function
 436              	_isatty_r:
 437              	.LFB263:
 438              		.loc 2 230 0
 439              		.cfi_startproc
 440              		@ args = 0, pretend = 0, frame = 0
 441              		@ frame_needed = 0, uses_anonymous_args = 0
 442              		@ link register save eliminated.
 443              	.LVL47:
 444              		.loc 2 235 0
 445 0000 0120     		movs	r0, #1
 446              	.LVL48:
 447 0002 7047     		bx	lr
ARM GAS  C:\Users\jo\AppData\Local\Temp\ccfPCWHi.s 			page 9


 448              		.cfi_endproc
 449              	.LFE263:
 450              		.size	_isatty_r, .-_isatty_r
 451              		.global	__aeabi_uldivmod
 452 0004 AFF30080 		.section	.text._gettimeofday,"ax",%progbits
 452      AFF30080 
 452      AFF30080 
 453              		.align	2
 454              		.p2align 4,,15
 455              		.global	_gettimeofday
 456              		.thumb
 457              		.thumb_func
 458              		.type	_gettimeofday, %function
 459              	_gettimeofday:
 460              	.LFB264:
 461              		.loc 2 240 0
 462              		.cfi_startproc
 463              		@ args = 0, pretend = 0, frame = 8
 464              		@ frame_needed = 0, uses_anonymous_args = 0
 465              	.LVL49:
 466 0000 F0B5     		push	{r4, r5, r6, r7, lr}
 467              		.cfi_def_cfa_offset 20
 468              		.cfi_offset 4, -20
 469              		.cfi_offset 5, -16
 470              		.cfi_offset 6, -12
 471              		.cfi_offset 7, -8
 472              		.cfi_offset 14, -4
 473 0002 85B0     		sub	sp, sp, #20
 474              		.cfi_def_cfa_offset 40
 475              		.loc 2 240 0
 476 0004 0746     		mov	r7, r0
 477              		.loc 2 243 0
 478 0006 02A9     		add	r1, sp, #8
 479 0008 1748     		ldr	r0, .L55+8
 480              	.LVL50:
 481              		.loc 2 244 0
 482 000a 184C     		ldr	r4, .L55+12
 483              		.loc 2 243 0
 484 000c FFF7FEFF 		bl	rtcGetTime
 485              	.LVL51:
 486              		.loc 2 244 0
 487 0010 039B     		ldr	r3, [sp, #12]
 488 0012 C3F31A03 		ubfx	r3, r3, #0, #27
 489 0016 A3FB0445 		umull	r4, r5, r3, r4
 490              	.LVL52:
 491              		.loc 2 245 0
 492 001a 2046     		mov	r0, r4
 493 001c 2946     		mov	r1, r5
 494 001e 10A3     		adr	r3, .L55
 495 0020 D3E90023 		ldrd	r2, [r3]
 496 0024 FFF7FEFF 		bl	__aeabi_uldivmod
 497              	.LVL53:
 498              		.loc 2 246 0
 499 0028 2946     		mov	r1, r5
 500              		.loc 2 245 0
 501 002a 0646     		mov	r6, r0
 502 002c 3860     		str	r0, [r7]
ARM GAS  C:\Users\jo\AppData\Local\Temp\ccfPCWHi.s 			page 10


 503              		.loc 2 246 0
 504 002e 0CA3     		adr	r3, .L55
 505 0030 D3E90023 		ldrd	r2, [r3]
 506 0034 2046     		mov	r0, r4
 507 0036 FFF7FEFF 		bl	__aeabi_uldivmod
 508              	.LVL54:
 509 003a 1046     		mov	r0, r2
 510 003c 1946     		mov	r1, r3
 511 003e 4FF47A72 		mov	r2, #1000
 512 0042 0023     		movs	r3, #0
 513 0044 FFF7FEFF 		bl	__aeabi_uldivmod
 514              	.LVL55:
 515              		.loc 2 247 0
 516 0048 2246     		mov	r2, r4
 517              		.loc 2 246 0
 518 004a 7860     		str	r0, [r7, #4]
 519              		.loc 2 247 0
 520 004c 2B46     		mov	r3, r5
 521 004e 8DE84100 		stmia	sp, {r0, r6}
 522 0052 0749     		ldr	r1, .L55+16
 523 0054 0748     		ldr	r0, .L55+20
 524 0056 FFF7FEFF 		bl	chprintf.constprop.0
 525              	.LVL56:
 526              		.loc 2 249 0
 527 005a 0020     		movs	r0, #0
 528 005c 05B0     		add	sp, sp, #20
 529              		.cfi_def_cfa_offset 20
 530              		@ sp needed
 531 005e F0BD     		pop	{r4, r5, r6, r7, pc}
 532              	.LVL57:
 533              	.L56:
 534              		.align	3
 535              	.L55:
 536 0060 00CA9A3B 		.word	1000000000
 537 0064 00000000 		.word	0
 538 0068 00000000 		.word	RTCD1
 539 006c 40420F00 		.word	1000000
 540 0070 1C000000 		.word	.LC3
 541 0074 00000000 		.word	itm_port
 542              		.cfi_endproc
 543              	.LFE264:
 544              		.size	_gettimeofday, .-_gettimeofday
 545              		.global	lcfg_table
 546              		.global	modbus_cfg
 547              		.global	main_cfg
 548 0078 AFF30080 		.section	.rodata.main_cfg,"a",%progbits
 548      AFF30080 
 549              		.align	2
 550              		.type	main_cfg, %object
 551              		.size	main_cfg, 16
 552              	main_cfg:
 553 0000 76       		.byte	118
 554 0001 65       		.byte	101
 555 0002 72       		.byte	114
 556 0003 73       		.byte	115
 557 0004 69       		.byte	105
 558 0005 6F       		.byte	111
ARM GAS  C:\Users\jo\AppData\Local\Temp\ccfPCWHi.s 			page 11


 559 0006 6E       		.byte	110
 560 0007 20       		.byte	32
 561 0008 3D       		.byte	61
 562 0009 20       		.byte	32
 563 000a 22       		.byte	34
 564 000b 31       		.byte	49
 565 000c 30       		.byte	48
 566 000d 31       		.byte	49
 567 000e 22       		.byte	34
 568 000f 00       		.byte	0
 569              		.section	.rodata.modbus_cfg,"a",%progbits
 570              		.align	2
 571              		.type	modbus_cfg, %object
 572              		.size	modbus_cfg, 51
 573              	modbus_cfg:
 574 0000 41       		.byte	65
 575 0001 44       		.byte	68
 576 0002 44       		.byte	68
 577 0003 52       		.byte	82
 578 0004 45       		.byte	69
 579 0005 53       		.byte	83
 580 0006 53       		.byte	83
 581 0007 3D       		.byte	61
 582 0008 22       		.byte	34
 583 0009 31       		.byte	49
 584 000a 30       		.byte	48
 585 000b 22       		.byte	34
 586 000c 0A       		.byte	10
 587 000d 4E       		.byte	78
 588 000e 41       		.byte	65
 589 000f 4D       		.byte	77
 590 0010 45       		.byte	69
 591 0011 3D       		.byte	61
 592 0012 22       		.byte	34
 593 0013 52       		.byte	82
 594 0014 54       		.byte	84
 595 0015 43       		.byte	67
 596 0016 22       		.byte	34
 597 0017 0A       		.byte	10
 598 0018 56       		.byte	86
 599 0019 41       		.byte	65
 600 001a 4C       		.byte	76
 601 001b 56       		.byte	86
 602 001c 45       		.byte	69
 603 001d 53       		.byte	83
 604 001e 3D       		.byte	61
 605 001f 5B       		.byte	91
 606 0020 22       		.byte	34
 607 0021 56       		.byte	86
 608 0022 41       		.byte	65
 609 0023 4C       		.byte	76
 610 0024 56       		.byte	86
 611 0025 45       		.byte	69
 612 0026 31       		.byte	49
 613 0027 22       		.byte	34
 614 0028 2C       		.byte	44
 615 0029 22       		.byte	34
ARM GAS  C:\Users\jo\AppData\Local\Temp\ccfPCWHi.s 			page 12


 616 002a 56       		.byte	86
 617 002b 41       		.byte	65
 618 002c 4C       		.byte	76
 619 002d 56       		.byte	86
 620 002e 45       		.byte	69
 621 002f 32       		.byte	50
 622 0030 22       		.byte	34
 623 0031 5D       		.byte	93
 624 0032 00       		.byte	0
 625 0033 00       		.section	.rodata.str1.4,"aMS",%progbits,1
 626              		.align	2
 627              	.LC0:
 628 0000 6D61696E 		.ascii	"main.cfg\000"
 628      2E636667 
 628      00
 629 0009 000000   		.space	3
 630              	.LC1:
 631 000c 6D6F6462 		.ascii	"modbus.cfg\000"
 631      75732E63 
 631      666700
 632 0017 00       		.space	1
 633              	.LC2:
 634 0018 25730A00 		.ascii	"%s\012\000"
 635              	.LC3:
 636 001c 74696D65 		.ascii	"timespec: time %d usec. %d sec. %d\012\000"
 636      73706563 
 636      3A207469 
 636      6D652025 
 636      64207573 
 637              		.section	.rodata.lcfg_table,"a",%progbits
 638              		.align	2
 639              		.set	.LANCHOR0,. + 0
 640              		.type	lcfg_table, %object
 641              		.size	lcfg_table, 16
 642              	lcfg_table:
 643 0000 00000000 		.word	.LC0
 644 0004 00000000 		.word	main_cfg
 645 0008 0C000000 		.word	.LC1
 646 000c 00000000 		.word	modbus_cfg
 647              		.text
 648              	.Letext0:
 649              		.file 3 "c:\\program files\\gnu tools arm embedded\\4.9 2014q4\\lib\\gcc\\arm-none-eabi\\4.9.3\\in
 650              		.file 4 "c:\\program files\\gnu tools arm embedded\\4.9 2014q4\\arm-none-eabi\\include\\machine\\_
 651              		.file 5 "c:\\program files\\gnu tools arm embedded\\4.9 2014q4\\arm-none-eabi\\include\\sys\\lock.
 652              		.file 6 "c:\\program files\\gnu tools arm embedded\\4.9 2014q4\\arm-none-eabi\\include\\sys\\_type
 653              		.file 7 "c:\\program files\\gnu tools arm embedded\\4.9 2014q4\\arm-none-eabi\\include\\sys\\reent
 654              		.file 8 "c:\\program files\\gnu tools arm embedded\\4.9 2014q4\\arm-none-eabi\\include\\sys\\types
 655              		.file 9 "c:\\program files\\gnu tools arm embedded\\4.9 2014q4\\arm-none-eabi\\include\\sys\\stat.
 656              		.file 10 "c:\\program files\\gnu tools arm embedded\\4.9 2014q4\\arm-none-eabi\\include\\sys\\time
 657              		.file 11 "c:\\program files\\gnu tools arm embedded\\4.9 2014q4\\arm-none-eabi\\include\\stdint.h"
 658              		.file 12 "../../../os/rt/ports/ARMCMx/compilers/GCC/chtypes.h"
 659              		.file 13 "../../../os/rt/include/chsystypes.h"
 660              		.file 14 "../../../os/rt/include/chschd.h"
 661              		.file 15 "../../../os/ext/CMSIS/ST/stm32f407xx.h"
 662              		.file 16 "../../../os/rt/ports/ARMCMx/chcore.h"
 663              		.file 17 "../../../os/rt/ports/ARMCMx/chcore_v7m.h"
 664              		.file 18 "c:\\program files\\gnu tools arm embedded\\4.9 2014q4\\lib\\gcc\\arm-none-eabi\\4.9.3\\i
ARM GAS  C:\Users\jo\AppData\Local\Temp\ccfPCWHi.s 			page 13


 665              		.file 19 "<built-in>"
 666              		.file 20 "../../../os/rt/include/chtm.h"
 667              		.file 21 "../../../os/rt/include/chmtx.h"
 668              		.file 22 "../../../os/rt/include/chstreams.h"
 669              		.file 23 "../../../os/hal/include/rtc.h"
 670              		.file 24 "../../../os/hal/ports/STM32/LLD/RTCv2/rtc_lld.h"
 671              		.file 25 "./Verventa-master.h"
 672              		.file 26 "./ITM_trace.h"
 673              		.file 27 "../../../os/ext/CMSIS/include/core_cm4.h"
 674              		.file 28 "c:\\program files\\gnu tools arm embedded\\4.9 2014q4\\arm-none-eabi\\include\\string.h"
 675              		.file 29 "../../../os/rt/include/chmemcore.h"
 676              		.file 30 "c:\\program files\\gnu tools arm embedded\\4.9 2014q4\\arm-none-eabi\\include\\sys\\errn