ARM GAS  C:\Users\jo\AppData\Local\Temp\ccpE7U9z.s 			page 1


   1              		.syntax unified
   2              		.cpu cortex-m4
   3              		.eabi_attribute 27, 3
   4              		.eabi_attribute 28, 1
   5              		.fpu fpv4-sp-d16
   6              		.eabi_attribute 20, 1
   7              		.eabi_attribute 21, 1
   8              		.eabi_attribute 23, 3
   9              		.eabi_attribute 24, 1
  10              		.eabi_attribute 25, 1
  11              		.eabi_attribute 26, 1
  12              		.eabi_attribute 30, 2
  13              		.eabi_attribute 34, 1
  14              		.eabi_attribute 18, 4
  15              		.thumb
  16              		.file	"tcp.c"
  17              		.text
  18              	.Ltext0:
  19              		.cfi_sections	.debug_frame
  20              		.section	.text.tcp_accept_null,"ax",%progbits
  21              		.align	2
  22              		.p2align 4,,15
  23              		.thumb
  24              		.thumb_func
  25              		.type	tcp_accept_null, %function
  26              	tcp_accept_null:
  27              	.LFB264:
  28              		.file 1 "../../../os/ext/lwip-1.4.1/src/core/tcp.c"
  29              		.loc 1 495 0
  30              		.cfi_startproc
  31              		@ args = 0, pretend = 0, frame = 0
  32              		@ frame_needed = 0, uses_anonymous_args = 0
  33              		@ link register save eliminated.
  34              	.LVL0:
  35              		.loc 1 501 0
  36 0000 6FF00900 		mvn	r0, #9
  37              	.LVL1:
  38 0004 7047     		bx	lr
  39              		.cfi_endproc
  40              	.LFE264:
  41              		.size	tcp_accept_null, .-tcp_accept_null
  42 0006 00BFAFF3 		.section	.text.tcp_new_port,"ax",%progbits
  42      0080AFF3 
  42      0080
  43              		.align	2
  44              		.p2align 4,,15
  45              		.thumb
  46              		.thumb_func
  47              		.type	tcp_new_port, %function
  48              	tcp_new_port:
  49              	.LFB268:
  50              		.loc 1 648 0
  51              		.cfi_startproc
  52              		@ args = 0, pretend = 0, frame = 0
  53              		@ frame_needed = 0, uses_anonymous_args = 0
  54              		@ link register save eliminated.
  55              	.LVL2:
ARM GAS  C:\Users\jo\AppData\Local\Temp\ccpE7U9z.s 			page 2


  56 0000 F0B4     		push	{r4, r5, r6, r7}
  57              		.cfi_def_cfa_offset 16
  58              		.cfi_offset 4, -16
  59              		.cfi_offset 5, -12
  60              		.cfi_offset 6, -8
  61              		.cfi_offset 7, -4
  62 0002 124E     		ldr	r6, .L22
  63 0004 124F     		ldr	r7, .L22+4
  64 0006 3088     		ldrh	r0, [r6]
  65              		.loc 1 648 0
  66 0008 4FF48044 		mov	r4, #16384
  67              		.loc 1 654 0
  68 000c 4FF6FF75 		movw	r5, #65535
  69              	.LVL3:
  70              	.L3:
  71 0010 A842     		cmp	r0, r5
  72 0012 18BF     		it	ne
  73 0014 0130     		addne	r0, r0, #1
  74 0016 0F49     		ldr	r1, .L22+8
  75 0018 14BF     		ite	ne
  76 001a 80B2     		uxthne	r0, r0
  77 001c 4FF44040 		moveq	r0, #49152
  78              	.LVL4:
  79              	.L12:
  80              		.loc 1 659 0
  81 0020 51F8043B 		ldr	r3, [r1], #4
  82 0024 1B68     		ldr	r3, [r3]
  83              	.LVL5:
  84 0026 13B9     		cbnz	r3, .L20
  85 0028 0BE0     		b	.L5
  86              	.L9:
  87              		.loc 1 659 0 is_stmt 0 discriminator 2
  88 002a DB68     		ldr	r3, [r3, #12]
  89              	.LVL6:
  90 002c 4BB1     		cbz	r3, .L5
  91              	.L20:
  92              		.loc 1 660 0 is_stmt 1
  93 002e 5A8B     		ldrh	r2, [r3, #26]
  94 0030 8242     		cmp	r2, r0
  95 0032 FAD1     		bne	.L9
  96              	.LVL7:
  97 0034 013C     		subs	r4, r4, #1
  98              	.LVL8:
  99 0036 A4B2     		uxth	r4, r4
 100              		.loc 1 661 0
 101 0038 002C     		cmp	r4, #0
 102 003a E9D1     		bne	.L3
 103 003c 3080     		strh	r0, [r6]	@ movhi
 104              		.loc 1 662 0
 105 003e 2046     		mov	r0, r4
 106 0040 02E0     		b	.L10
 107              	.LVL9:
 108              	.L5:
 109              		.loc 1 658 0 discriminator 2
 110 0042 B942     		cmp	r1, r7
 111 0044 ECD1     		bne	.L12
 112 0046 3080     		strh	r0, [r6]	@ movhi
ARM GAS  C:\Users\jo\AppData\Local\Temp\ccpE7U9z.s 			page 3


 113              	.LVL10:
 114              	.L10:
 115              		.loc 1 669 0
 116 0048 F0BC     		pop	{r4, r5, r6, r7}
 117              		.cfi_restore 7
 118              		.cfi_restore 6
 119              		.cfi_restore 5
 120              		.cfi_restore 4
 121              		.cfi_def_cfa_offset 0
 122 004a 7047     		bx	lr
 123              	.L23:
 124              		.align	2
 125              	.L22:
 126 004c 00000000 		.word	.LANCHOR0
 127 0050 10000000 		.word	.LANCHOR1+16
 128 0054 00000000 		.word	.LANCHOR1
 129              		.cfi_endproc
 130              	.LFE268:
 131              		.size	tcp_new_port, .-tcp_new_port
 132 0058 AFF30080 		.section	.text.chprintf.constprop.4,"ax",%progbits
 132      AFF30080 
 133              		.align	2
 134              		.p2align 4,,15
 135              		.thumb
 136              		.thumb_func
 137              		.type	chprintf.constprop.4, %function
 138              	chprintf.constprop.4:
 139              	.LFB297:
 140              		.file 2 "../../../os/hal/lib/streams/chprintf.h"
 141              		.loc 2 69 0
 142              		.cfi_startproc
 143              		@ args = 4, pretend = 12, frame = 8
 144              		@ frame_needed = 0, uses_anonymous_args = 1
 145              	.LVL11:
 146 0000 0EB4     		push	{r1, r2, r3}
 147              		.cfi_def_cfa_offset 12
 148              		.cfi_offset 1, -12
 149              		.cfi_offset 2, -8
 150              		.cfi_offset 3, -4
 151 0002 00B5     		push	{lr}
 152              		.cfi_def_cfa_offset 16
 153              		.cfi_offset 14, -16
 154 0004 82B0     		sub	sp, sp, #8
 155              		.cfi_def_cfa_offset 24
 156              		.loc 2 73 0
 157 0006 04AB     		add	r3, sp, #16
 158              		.loc 2 74 0
 159 0008 1A46     		mov	r2, r3
 160 000a 0549     		ldr	r1, .L26
 161 000c 0548     		ldr	r0, .L26+4
 162              	.LVL12:
 163              		.loc 2 73 0
 164 000e 0193     		str	r3, [sp, #4]
 165              		.loc 2 74 0
 166 0010 FFF7FEFF 		bl	chvprintf
 167              	.LVL13:
 168              		.loc 2 78 0
ARM GAS  C:\Users\jo\AppData\Local\Temp\ccpE7U9z.s 			page 4


 169 0014 02B0     		add	sp, sp, #8
 170              		.cfi_def_cfa_offset 16
 171              		@ sp needed
 172 0016 5DF804EB 		ldr	lr, [sp], #4
 173              		.cfi_restore 14
 174              		.cfi_def_cfa_offset 12
 175 001a 03B0     		add	sp, sp, #12
 176              		.cfi_restore 3
 177              		.cfi_restore 2
 178              		.cfi_restore 1
 179              		.cfi_def_cfa_offset 0
 180 001c 7047     		bx	lr
 181              	.L27:
 182 001e 00BF     		.align	2
 183              	.L26:
 184 0020 00000000 		.word	.LC0
 185 0024 00000000 		.word	itm_port
 186              		.cfi_endproc
 187              	.LFE297:
 188              		.size	chprintf.constprop.4, .-chprintf.constprop.4
 189 0028 AFF30080 		.section	.text.tcp_init,"ax",%progbits
 189      AFF30080 
 190              		.align	2
 191              		.p2align 4,,15
 192              		.global	tcp_init
 193              		.thumb
 194              		.thumb_func
 195              		.type	tcp_init, %function
 196              	tcp_init:
 197              	.LFB256:
 198              		.loc 1 131 0
 199              		.cfi_startproc
 200              		@ args = 0, pretend = 0, frame = 0
 201              		@ frame_needed = 0, uses_anonymous_args = 0
 202              		@ link register save eliminated.
 203 0000 7047     		bx	lr
 204              		.cfi_endproc
 205              	.LFE256:
 206              		.size	tcp_init, .-tcp_init
 207 0002 00BFAFF3 		.section	.text.tcp_bind,"ax",%progbits
 207      0080AFF3 
 207      0080AFF3 
 207      0080
 208              		.align	2
 209              		.p2align 4,,15
 210              		.global	tcp_bind
 211              		.thumb
 212              		.thumb_func
 213              		.type	tcp_bind, %function
 214              	tcp_bind:
 215              	.LFB263:
 216              		.loc 1 434 0
 217              		.cfi_startproc
 218              		@ args = 0, pretend = 0, frame = 0
 219              		@ frame_needed = 0, uses_anonymous_args = 0
 220              	.LVL14:
 221              		.loc 1 434 0
ARM GAS  C:\Users\jo\AppData\Local\Temp\ccpE7U9z.s 			page 5


 222 0000 F0B5     		push	{r4, r5, r6, r7, lr}
 223              		.cfi_def_cfa_offset 20
 224              		.cfi_offset 4, -20
 225              		.cfi_offset 5, -16
 226              		.cfi_offset 6, -12
 227              		.cfi_offset 7, -8
 228              		.cfi_offset 14, -4
 229              		.loc 1 439 0
 230 0002 037E     		ldrb	r3, [r0, #24]	@ zero_extendqisi2
 231              		.loc 1 434 0
 232 0004 83B0     		sub	sp, sp, #12
 233              		.cfi_def_cfa_offset 32
 234              		.loc 1 434 0
 235 0006 0646     		mov	r6, r0
 236              		.loc 1 439 0
 237 0008 002B     		cmp	r3, #0
 238 000a 31D1     		bne	.L55
 239 000c 0D46     		mov	r5, r1
 240              		.loc 1 452 0
 241 000e 42B3     		cbz	r2, .L56
 242              	.LVL15:
 243              	.L32:
 244 0010 1E49     		ldr	r1, .L57
 245 0012 01F11007 		add	r7, r1, #16
 246              	.LVL16:
 247              	.L36:
 248              		.loc 1 461 0
 249 0016 51F8043B 		ldr	r3, [r1], #4
 250 001a 1B68     		ldr	r3, [r3]
 251              	.LVL17:
 252 001c 13B9     		cbnz	r3, .L35
 253 001e 0FE0     		b	.L33
 254              	.L34:
 255              		.loc 1 461 0 is_stmt 0 discriminator 2
 256 0020 DB68     		ldr	r3, [r3, #12]
 257              	.LVL18:
 258 0022 6BB1     		cbz	r3, .L33
 259              	.L35:
 260              		.loc 1 462 0 is_stmt 1
 261 0024 5C8B     		ldrh	r4, [r3, #26]
 262 0026 9442     		cmp	r4, r2
 263 0028 FAD1     		bne	.L34
 264              		.loc 1 471 0
 265 002a 1868     		ldr	r0, [r3]
 266 002c 20B1     		cbz	r0, .L42
 267              		.loc 1 471 0 is_stmt 0 discriminator 2
 268 002e 1DB1     		cbz	r5, .L42
 269              		.loc 1 472 0 is_stmt 1
 270 0030 2C68     		ldr	r4, [r5]
 271 0032 0CB1     		cbz	r4, .L42
 272              		.loc 1 472 0 is_stmt 0 discriminator 1
 273 0034 A042     		cmp	r0, r4
 274 0036 F3D1     		bne	.L34
 275              	.L42:
 276              		.loc 1 474 0 is_stmt 1
 277 0038 F820     		movs	r0, #248
 278              	.LVL19:
ARM GAS  C:\Users\jo\AppData\Local\Temp\ccpE7U9z.s 			page 6


 279              	.L31:
 280              		.loc 1 488 0
 281 003a 40B2     		sxtb	r0, r0
 282 003c 03B0     		add	sp, sp, #12
 283              		.cfi_remember_state
 284              		.cfi_def_cfa_offset 20
 285              		@ sp needed
 286 003e F0BD     		pop	{r4, r5, r6, r7, pc}
 287              	.LVL20:
 288              	.L33:
 289              		.cfi_restore_state
 290              		.loc 1 460 0 discriminator 2
 291 0040 B942     		cmp	r1, r7
 292 0042 E8D1     		bne	.L36
 293              		.loc 1 481 0
 294 0044 15B1     		cbz	r5, .L37
 295              		.loc 1 481 0 is_stmt 0 discriminator 1
 296 0046 2B68     		ldr	r3, [r5]
 297              	.LVL21:
 298 0048 03B1     		cbz	r3, .L37
 299              		.loc 1 482 0 is_stmt 1
 300 004a 3360     		str	r3, [r6]
 301              	.L37:
 302              		.loc 1 485 0
 303 004c 104B     		ldr	r3, .L57+4
 304              		.loc 1 484 0
 305 004e 7283     		strh	r2, [r6, #26]	@ movhi
 306              		.loc 1 485 0
 307 0050 1A68     		ldr	r2, [r3]
 308              	.LVL22:
 309 0052 F260     		str	r2, [r6, #12]
 310 0054 1E60     		str	r6, [r3]
 311 0056 FFF7FEFF 		bl	tcp_timer_needed
 312              	.LVL23:
 313              		.loc 1 487 0
 314 005a 0020     		movs	r0, #0
 315              		.loc 1 488 0
 316 005c 40B2     		sxtb	r0, r0
 317 005e 03B0     		add	sp, sp, #12
 318              		.cfi_remember_state
 319              		.cfi_def_cfa_offset 20
 320              		@ sp needed
 321 0060 F0BD     		pop	{r4, r5, r6, r7, pc}
 322              	.LVL24:
 323              	.L56:
 324              		.cfi_restore_state
 325              		.loc 1 453 0
 326 0062 FFF7FEFF 		bl	tcp_new_port
 327              	.LVL25:
 328              		.loc 1 454 0
 329 0066 0246     		mov	r2, r0
 330 0068 0028     		cmp	r0, #0
 331 006a D1D1     		bne	.L32
 332              		.loc 1 455 0
 333 006c FE20     		movs	r0, #254
 334              	.LVL26:
 335 006e E4E7     		b	.L31
ARM GAS  C:\Users\jo\AppData\Local\Temp\ccpE7U9z.s 			page 7


 336              	.LVL27:
 337              	.L55:
 338              		.loc 1 439 0 discriminator 1
 339 0070 084B     		ldr	r3, .L57+8
 340 0072 0093     		str	r3, [sp]
 341 0074 0849     		ldr	r1, .L57+12
 342              	.LVL28:
 343 0076 094A     		ldr	r2, .L57+16
 344              	.LVL29:
 345 0078 0948     		ldr	r0, .L57+20
 346              	.LVL30:
 347 007a 40F2B713 		movw	r3, #439
 348 007e FFF7FEFF 		bl	chprintf.constprop.4
 349              	.LVL31:
 350              	.LBB94:
 351              	.LBB95:
 352              		.file 3 "../../../os/hal/osal/rt/osal.h"
 353              		.loc 3 414 0 discriminator 1
 354 0082 0648     		ldr	r0, .L57+16
 355 0084 FFF7FEFF 		bl	chSysHalt
 356              	.LVL32:
 357              	.LBE95:
 358              	.LBE94:
 359              		.loc 1 439 0 discriminator 1
 360 0088 FA20     		movs	r0, #250
 361 008a D6E7     		b	.L31
 362              	.L58:
 363              		.align	2
 364              	.L57:
 365 008c 00000000 		.word	.LANCHOR1
 366 0090 00000000 		.word	.LANCHOR2
 367 0094 50000000 		.word	.LC2
 368 0098 00000000 		.word	.LC0
 369 009c 28000000 		.word	.LC1
 370 00a0 00000000 		.word	itm_port
 371              		.cfi_endproc
 372              	.LFE263:
 373              		.size	tcp_bind, .-tcp_bind
 374 00a4 AFF30080 		.section	.text.tcp_listen_with_backlog,"ax",%progbits
 374      AFF30080 
 374      AFF30080 
 375              		.align	2
 376              		.p2align 4,,15
 377              		.global	tcp_listen_with_backlog
 378              		.thumb
 379              		.thumb_func
 380              		.type	tcp_listen_with_backlog, %function
 381              	tcp_listen_with_backlog:
 382              	.LFB265:
 383              		.loc 1 520 0
 384              		.cfi_startproc
 385              		@ args = 0, pretend = 0, frame = 0
 386              		@ frame_needed = 0, uses_anonymous_args = 0
 387              	.LVL33:
 388 0000 30B5     		push	{r4, r5, lr}
 389              		.cfi_def_cfa_offset 12
 390              		.cfi_offset 4, -12
ARM GAS  C:\Users\jo\AppData\Local\Temp\ccpE7U9z.s 			page 8


 391              		.cfi_offset 5, -8
 392              		.cfi_offset 14, -4
 393              		.loc 1 524 0
 394 0002 037E     		ldrb	r3, [r0, #24]	@ zero_extendqisi2
 395              		.loc 1 520 0
 396 0004 83B0     		sub	sp, sp, #12
 397              		.cfi_def_cfa_offset 24
 398              		.loc 1 520 0
 399 0006 0446     		mov	r4, r0
 400              		.loc 1 524 0
 401 0008 002B     		cmp	r3, #0
 402 000a 47D1     		bne	.L79
 403              		.loc 1 545 0
 404 000c 0320     		movs	r0, #3
 405              	.LVL34:
 406 000e FFF7FEFF 		bl	memp_malloc
 407              	.LVL35:
 408              		.loc 1 546 0
 409 0012 0546     		mov	r5, r0
 410 0014 0028     		cmp	r0, #0
 411 0016 34D0     		beq	.L61
 412              		.loc 1 549 0
 413 0018 2369     		ldr	r3, [r4, #16]
 414              		.loc 1 550 0
 415 001a 628B     		ldrh	r2, [r4, #26]
 416              		.loc 1 549 0
 417 001c 0361     		str	r3, [r0, #16]
 418              		.loc 1 551 0
 419 001e 0123     		movs	r3, #1
 420              		.loc 1 550 0
 421 0020 4283     		strh	r2, [r0, #26]	@ movhi
 422              		.loc 1 551 0
 423 0022 0376     		strb	r3, [r0, #24]
 424              		.loc 1 552 0
 425 0024 637E     		ldrb	r3, [r4, #25]	@ zero_extendqisi2
 426 0026 4376     		strb	r3, [r0, #25]
 427              		.loc 1 554 0
 428 0028 237A     		ldrb	r3, [r4, #8]	@ zero_extendqisi2
 429 002a 43F00203 		orr	r3, r3, #2
 430 002e 0372     		strb	r3, [r0, #8]
 431              		.loc 1 555 0
 432 0030 A37A     		ldrb	r3, [r4, #10]	@ zero_extendqisi2
 433 0032 8372     		strb	r3, [r0, #10]
 434              		.loc 1 556 0
 435 0034 637A     		ldrb	r3, [r4, #9]	@ zero_extendqisi2
 436 0036 4372     		strb	r3, [r0, #9]
 437              		.loc 1 558 0
 438 0038 638B     		ldrh	r3, [r4, #26]
 439              		.loc 1 557 0
 440 003a 2268     		ldr	r2, [r4]
 441 003c 0260     		str	r2, [r0]
 442              		.loc 1 558 0
 443 003e 9BB1     		cbz	r3, .L62
 444              		.loc 1 559 0
 445 0040 1D4B     		ldr	r3, .L84
 446 0042 1A68     		ldr	r2, [r3]
 447 0044 A242     		cmp	r2, r4
ARM GAS  C:\Users\jo\AppData\Local\Temp\ccpE7U9z.s 			page 9


 448 0046 26D0     		beq	.L80
 449              		.loc 1 559 0 is_stmt 0 discriminator 2
 450 0048 1C49     		ldr	r1, .L84+4
 451 004a 0A60     		str	r2, [r1]
 452 004c 52B1     		cbz	r2, .L64
 453              		.loc 1 559 0
 454 004e D368     		ldr	r3, [r2, #12]
 455 0050 A342     		cmp	r3, r4
 456 0052 1ED0     		beq	.L81
 457              		.loc 1 559 0 discriminator 6
 458 0054 2BB1     		cbz	r3, .L82
 459              	.L69:
 460              		.loc 1 559 0 discriminator 9
 461 0056 DA68     		ldr	r2, [r3, #12]
 462 0058 A242     		cmp	r2, r4
 463 005a 14D0     		beq	.L83
 464 005c 1346     		mov	r3, r2
 465              		.loc 1 559 0
 466 005e 002B     		cmp	r3, #0
 467 0060 F9D1     		bne	.L69
 468              	.L82:
 469 0062 0B60     		str	r3, [r1]
 470              	.L64:
 471              		.loc 1 559 0 discriminator 10
 472 0064 0023     		movs	r3, #0
 473 0066 E360     		str	r3, [r4, #12]
 474              	.L62:
 475              		.loc 1 561 0 is_stmt 1
 476 0068 0220     		movs	r0, #2
 477              	.LVL36:
 478 006a 2146     		mov	r1, r4
 479 006c FFF7FEFF 		bl	memp_free
 480              	.LVL37:
 481              		.loc 1 569 0
 482 0070 134B     		ldr	r3, .L84+8
 483              		.loc 1 563 0
 484 0072 144A     		ldr	r2, .L84+12
 485              		.loc 1 569 0
 486 0074 1968     		ldr	r1, [r3]
 487 0076 E960     		str	r1, [r5, #12]
 488              		.loc 1 563 0
 489 0078 6A61     		str	r2, [r5, #20]
 490              		.loc 1 569 0
 491 007a 1D60     		str	r5, [r3]
 492 007c FFF7FEFF 		bl	tcp_timer_needed
 493              	.LVL38:
 494              		.loc 1 570 0
 495 0080 2846     		mov	r0, r5
 496              	.LVL39:
 497              	.L61:
 498              		.loc 1 571 0
 499 0082 03B0     		add	sp, sp, #12
 500              		.cfi_remember_state
 501              		.cfi_def_cfa_offset 12
 502              		@ sp needed
 503 0084 30BD     		pop	{r4, r5, pc}
 504              	.LVL40:
ARM GAS  C:\Users\jo\AppData\Local\Temp\ccpE7U9z.s 			page 10


 505              	.L83:
 506              		.cfi_restore_state
 507 0086 0B60     		str	r3, [r1]
 508              	.L66:
 509              		.loc 1 559 0 discriminator 5
 510 0088 E268     		ldr	r2, [r4, #12]
 511 008a DA60     		str	r2, [r3, #12]
 512 008c 0023     		movs	r3, #0
 513 008e E360     		str	r3, [r4, #12]
 514 0090 EAE7     		b	.L62
 515              	.L81:
 516              		.loc 1 559 0 is_stmt 0
 517 0092 1346     		mov	r3, r2
 518 0094 F8E7     		b	.L66
 519              	.L80:
 520              		.loc 1 559 0 discriminator 1
 521 0096 E268     		ldr	r2, [r4, #12]
 522 0098 1A60     		str	r2, [r3]
 523 009a E3E7     		b	.L64
 524              	.LVL41:
 525              	.L79:
 526              		.loc 1 524 0 is_stmt 1 discriminator 1
 527 009c 0A4B     		ldr	r3, .L84+16
 528 009e 0093     		str	r3, [sp]
 529 00a0 0A49     		ldr	r1, .L84+20
 530              	.LVL42:
 531 00a2 0B4A     		ldr	r2, .L84+24
 532 00a4 0B48     		ldr	r0, .L84+28
 533              	.LVL43:
 534 00a6 4FF40373 		mov	r3, #524
 535 00aa FFF7FEFF 		bl	chprintf.constprop.4
 536              	.LVL44:
 537              	.LBB96:
 538              	.LBB97:
 539              		.loc 3 414 0 discriminator 1
 540 00ae 0848     		ldr	r0, .L84+24
 541 00b0 FFF7FEFF 		bl	chSysHalt
 542              	.LVL45:
 543              	.LBE97:
 544              	.LBE96:
 545              		.loc 1 524 0 discriminator 1
 546 00b4 0020     		movs	r0, #0
 547 00b6 E4E7     		b	.L61
 548              	.L85:
 549              		.align	2
 550              	.L84:
 551 00b8 00000000 		.word	.LANCHOR2
 552 00bc 00000000 		.word	.LANCHOR3
 553 00c0 00000000 		.word	.LANCHOR4
 554 00c4 00000000 		.word	tcp_accept_null
 555 00c8 50000000 		.word	.LC2
 556 00cc 00000000 		.word	.LC0
 557 00d0 7C000000 		.word	.LC3
 558 00d4 00000000 		.word	itm_port
 559              		.cfi_endproc
 560              	.LFE265:
 561              		.size	tcp_listen_with_backlog, .-tcp_listen_with_backlog
ARM GAS  C:\Users\jo\AppData\Local\Temp\ccpE7U9z.s 			page 11


 562 00d8 AFF30080 		.section	.text.tcp_update_rcv_ann_wnd,"ax",%progbits
 562      AFF30080 
 563              		.align	2
 564              		.p2align 4,,15
 565              		.global	tcp_update_rcv_ann_wnd
 566              		.thumb
 567              		.thumb_func
 568              		.type	tcp_update_rcv_ann_wnd, %function
 569              	tcp_update_rcv_ann_wnd:
 570              	.LFB266:
 571              		.loc 1 580 0
 572              		.cfi_startproc
 573              		@ args = 0, pretend = 0, frame = 0
 574              		@ frame_needed = 0, uses_anonymous_args = 0
 575              	.LVL46:
 576 0000 70B5     		push	{r4, r5, r6, lr}
 577              		.cfi_def_cfa_offset 16
 578              		.cfi_offset 4, -16
 579              		.cfi_offset 5, -12
 580              		.cfi_offset 6, -8
 581              		.cfi_offset 14, -4
 582              		.loc 1 583 0
 583 0002 016B     		ldr	r1, [r0, #48]
 584              		.loc 1 581 0
 585 0004 848D     		ldrh	r4, [r0, #44]
 586              		.loc 1 583 0
 587 0006 C28E     		ldrh	r2, [r0, #54]
 588              		.loc 1 581 0
 589 0008 856A     		ldr	r5, [r0, #40]
 590              	.LVL47:
 591              		.loc 1 583 0
 592 000a 40F66836 		movw	r6, #2920
 593              		.loc 1 580 0
 594 000e 0346     		mov	r3, r0
 595 0010 601A     		subs	r0, r4, r1
 596              	.LVL48:
 597              		.loc 1 583 0
 598 0012 B242     		cmp	r2, r6
 599 0014 2844     		add	r0, r0, r5
 600 0016 94BF     		ite	ls
 601 0018 821A     		subls	r2, r0, r2
 602 001a 821B     		subhi	r2, r0, r6
 603 001c 002A     		cmp	r2, #0
 604              		.loc 1 580 0
 605 001e 82B0     		sub	sp, sp, #8
 606              		.cfi_def_cfa_offset 24
 607              		.loc 1 583 0
 608 0020 02DB     		blt	.L88
 609              		.loc 1 585 0
 610 0022 DC85     		strh	r4, [r3, #46]	@ movhi
 611              		.loc 1 600 0
 612 0024 02B0     		add	sp, sp, #8
 613              		.cfi_remember_state
 614              		.cfi_def_cfa_offset 16
 615              		@ sp needed
 616 0026 70BD     		pop	{r4, r5, r6, pc}
 617              	.LVL49:
ARM GAS  C:\Users\jo\AppData\Local\Temp\ccpE7U9z.s 			page 12


 618              	.L88:
 619              		.cfi_restore_state
 620              		.loc 1 588 0
 621 0028 6A1A     		subs	r2, r5, r1
 622 002a 002A     		cmp	r2, #0
 623 002c 03DD     		ble	.L90
 624              		.loc 1 591 0
 625 002e 0020     		movs	r0, #0
 626 0030 D885     		strh	r0, [r3, #46]	@ movhi
 627              		.loc 1 600 0
 628 0032 02B0     		add	sp, sp, #8
 629              		.cfi_remember_state
 630              		.cfi_def_cfa_offset 16
 631              		@ sp needed
 632 0034 70BD     		pop	{r4, r5, r6, pc}
 633              	.LVL50:
 634              	.L90:
 635              		.cfi_restore_state
 636              	.LBB98:
 637              		.loc 1 594 0
 638 0036 4D1B     		subs	r5, r1, r5
 639              	.LVL51:
 640              		.loc 1 595 0
 641 0038 B5F5803F 		cmp	r5, #65536
 642 003c 1C46     		mov	r4, r3
 643              	.LVL52:
 644 003e 03D2     		bcs	.L94
 645              	.LVL53:
 646              	.L91:
 647              	.LBE98:
 648              		.loc 1 598 0
 649 0040 0020     		movs	r0, #0
 650              	.LBB101:
 651              		.loc 1 596 0
 652 0042 E585     		strh	r5, [r4, #46]	@ movhi
 653              	.LBE101:
 654              		.loc 1 600 0
 655 0044 02B0     		add	sp, sp, #8
 656              		.cfi_remember_state
 657              		.cfi_def_cfa_offset 16
 658              		@ sp needed
 659 0046 70BD     		pop	{r4, r5, r6, pc}
 660              	.LVL54:
 661              	.L94:
 662              		.cfi_restore_state
 663              	.LBB102:
 664              		.loc 1 595 0 discriminator 1
 665 0048 064B     		ldr	r3, .L95
 666              	.LVL55:
 667 004a 0093     		str	r3, [sp]
 668              	.LVL56:
 669 004c 0649     		ldr	r1, .L95+4
 670 004e 074A     		ldr	r2, .L95+8
 671 0050 0748     		ldr	r0, .L95+12
 672 0052 40F25323 		movw	r3, #595
 673 0056 FFF7FEFF 		bl	chprintf.constprop.4
 674              	.LVL57:
ARM GAS  C:\Users\jo\AppData\Local\Temp\ccpE7U9z.s 			page 13


 675              	.LBB99:
 676              	.LBB100:
 677              		.loc 3 414 0 discriminator 1
 678 005a 0448     		ldr	r0, .L95+8
 679 005c FFF7FEFF 		bl	chSysHalt
 680              	.LVL58:
 681 0060 EEE7     		b	.L91
 682              	.L96:
 683 0062 00BF     		.align	2
 684              	.L95:
 685 0064 50000000 		.word	.LC2
 686 0068 00000000 		.word	.LC0
 687 006c A0000000 		.word	.LC4
 688 0070 00000000 		.word	itm_port
 689              	.LBE100:
 690              	.LBE99:
 691              	.LBE102:
 692              		.cfi_endproc
 693              	.LFE266:
 694              		.size	tcp_update_rcv_ann_wnd, .-tcp_update_rcv_ann_wnd
 695 0074 AFF30080 		.section	.text.tcp_recved,"ax",%progbits
 695      AFF30080 
 695      AFF30080 
 696              		.align	2
 697              		.p2align 4,,15
 698              		.global	tcp_recved
 699              		.thumb
 700              		.thumb_func
 701              		.type	tcp_recved, %function
 702              	tcp_recved:
 703              	.LFB267:
 704              		.loc 1 612 0
 705              		.cfi_startproc
 706              		@ args = 0, pretend = 0, frame = 0
 707              		@ frame_needed = 0, uses_anonymous_args = 0
 708              	.LVL59:
 709 0000 30B5     		push	{r4, r5, lr}
 710              		.cfi_def_cfa_offset 12
 711              		.cfi_offset 4, -12
 712              		.cfi_offset 5, -8
 713              		.cfi_offset 14, -4
 714              		.loc 1 616 0
 715 0002 037E     		ldrb	r3, [r0, #24]	@ zero_extendqisi2
 716 0004 012B     		cmp	r3, #1
 717              		.loc 1 612 0
 718 0006 83B0     		sub	sp, sp, #12
 719              		.cfi_def_cfa_offset 24
 720              		.loc 1 612 0
 721 0008 0546     		mov	r5, r0
 722 000a 0C46     		mov	r4, r1
 723              		.loc 1 616 0
 724 000c 2ED0     		beq	.L104
 725              	.LVL60:
 726              	.L98:
 727              		.loc 1 618 0
 728 000e AA8D     		ldrh	r2, [r5, #44]
 729 0010 C2F57F43 		rsb	r3, r2, #65280
ARM GAS  C:\Users\jo\AppData\Local\Temp\ccpE7U9z.s 			page 14


 730 0014 FF33     		adds	r3, r3, #255
 731 0016 9C42     		cmp	r4, r3
 732 0018 1ADC     		bgt	.L105
 733              	.L99:
 734              		.loc 1 621 0
 735 001a 1444     		add	r4, r4, r2
 736              		.loc 1 622 0
 737 001c 41F2D063 		movw	r3, #5840
 738              		.loc 1 621 0
 739 0020 A4B2     		uxth	r4, r4
 740              		.loc 1 622 0
 741 0022 9C42     		cmp	r4, r3
 742              		.loc 1 623 0
 743 0024 8CBF     		ite	hi
 744 0026 AB85     		strhhi	r3, [r5, #44]	@ movhi
 745              		.loc 1 621 0
 746 0028 AC85     		strhls	r4, [r5, #44]	@ movhi
 747              		.loc 1 626 0
 748 002a 2846     		mov	r0, r5
 749 002c FFF7FEFF 		bl	tcp_update_rcv_ann_wnd
 750              	.LVL61:
 751              		.loc 1 632 0
 752 0030 40F2B353 		movw	r3, #1459
 753 0034 9842     		cmp	r0, r3
 754 0036 01DC     		bgt	.L106
 755              		.loc 1 639 0
 756 0038 03B0     		add	sp, sp, #12
 757              		.cfi_remember_state
 758              		.cfi_def_cfa_offset 12
 759              		@ sp needed
 760 003a 30BD     		pop	{r4, r5, pc}
 761              	.LVL62:
 762              	.L106:
 763              		.cfi_restore_state
 764              	.LBB113:
 765              	.LBB114:
 766              		.loc 1 633 0
 767 003c AB7F     		ldrb	r3, [r5, #30]	@ zero_extendqisi2
 768              		.loc 1 634 0
 769 003e 2846     		mov	r0, r5
 770              	.LVL63:
 771              		.loc 1 633 0
 772 0040 43F00203 		orr	r3, r3, #2
 773 0044 AB77     		strb	r3, [r5, #30]
 774              	.LBE114:
 775              	.LBE113:
 776              		.loc 1 639 0
 777 0046 03B0     		add	sp, sp, #12
 778              		.cfi_remember_state
 779              		.cfi_def_cfa_offset 12
 780              		@ sp needed
 781 0048 BDE83040 		pop	{r4, r5, lr}
 782              		.cfi_restore 14
 783              		.cfi_restore 5
 784              		.cfi_restore 4
 785              		.cfi_def_cfa_offset 0
 786              	.LVL64:
ARM GAS  C:\Users\jo\AppData\Local\Temp\ccpE7U9z.s 			page 15


 787              	.LBB116:
 788              	.LBB115:
 789              		.loc 1 634 0
 790 004c FFF7FEBF 		b	tcp_output
 791              	.LVL65:
 792              	.L105:
 793              		.cfi_restore_state
 794              	.LBE115:
 795              	.LBE116:
 796              		.loc 1 618 0 discriminator 1
 797 0050 0D4B     		ldr	r3, .L107
 798 0052 0E4A     		ldr	r2, .L107+4
 799 0054 0093     		str	r3, [sp]
 800 0056 0E49     		ldr	r1, .L107+8
 801 0058 0E48     		ldr	r0, .L107+12
 802 005a 40F26B23 		movw	r3, #619
 803 005e FFF7FEFF 		bl	chprintf.constprop.4
 804              	.LVL66:
 805              	.LBB117:
 806              	.LBB118:
 807              		.loc 3 414 0 discriminator 1
 808 0062 0A48     		ldr	r0, .L107+4
 809 0064 FFF7FEFF 		bl	chSysHalt
 810              	.LVL67:
 811 0068 AA8D     		ldrh	r2, [r5, #44]
 812 006a D6E7     		b	.L99
 813              	.LVL68:
 814              	.L104:
 815              	.LBE118:
 816              	.LBE117:
 817              		.loc 1 616 0 discriminator 1
 818 006c 064B     		ldr	r3, .L107
 819 006e 0093     		str	r3, [sp]
 820 0070 0749     		ldr	r1, .L107+8
 821              	.LVL69:
 822 0072 094A     		ldr	r2, .L107+16
 823 0074 0748     		ldr	r0, .L107+12
 824              	.LVL70:
 825 0076 40F26923 		movw	r3, #617
 826 007a FFF7FEFF 		bl	chprintf.constprop.4
 827              	.LVL71:
 828              	.LBB119:
 829              	.LBB120:
 830              		.loc 3 414 0 discriminator 1
 831 007e 0648     		ldr	r0, .L107+16
 832 0080 FFF7FEFF 		bl	chSysHalt
 833              	.LVL72:
 834 0084 C3E7     		b	.L98
 835              	.L108:
 836 0086 00BF     		.align	2
 837              	.L107:
 838 0088 50000000 		.word	.LC2
 839 008c E4000000 		.word	.LC6
 840 0090 00000000 		.word	.LC0
 841 0094 00000000 		.word	itm_port
 842 0098 BC000000 		.word	.LC5
 843              	.LBE120:
ARM GAS  C:\Users\jo\AppData\Local\Temp\ccpE7U9z.s 			page 16


 844              	.LBE119:
 845              		.cfi_endproc
 846              	.LFE267:
 847              		.size	tcp_recved, .-tcp_recved
 848 009c AFF30080 		.section	.text.tcp_seg_free,"ax",%progbits
 849              		.align	2
 850              		.p2align 4,,15
 851              		.global	tcp_seg_free
 852              		.thumb
 853              		.thumb_func
 854              		.type	tcp_seg_free, %function
 855              	tcp_seg_free:
 856              	.LFB274:
 857              		.loc 1 1144 0
 858              		.cfi_startproc
 859              		@ args = 0, pretend = 0, frame = 0
 860              		@ frame_needed = 0, uses_anonymous_args = 0
 861              	.LVL73:
 862              		.loc 1 1145 0
 863 0000 58B1     		cbz	r0, .L116
 864              		.loc 1 1144 0
 865 0002 10B5     		push	{r4, lr}
 866              		.cfi_def_cfa_offset 8
 867              		.cfi_offset 4, -8
 868              		.cfi_offset 14, -4
 869 0004 0446     		mov	r4, r0
 870              		.loc 1 1146 0
 871 0006 4068     		ldr	r0, [r0, #4]
 872              	.LVL74:
 873 0008 08B1     		cbz	r0, .L111
 874              		.loc 1 1147 0
 875 000a FFF7FEFF 		bl	pbuf_free
 876              	.LVL75:
 877              	.L111:
 878              		.loc 1 1152 0
 879 000e 2146     		mov	r1, r4
 880 0010 0420     		movs	r0, #4
 881              		.loc 1 1154 0
 882 0012 BDE81040 		pop	{r4, lr}
 883              		.cfi_restore 14
 884              		.cfi_restore 4
 885              		.cfi_def_cfa_offset 0
 886              	.LVL76:
 887              		.loc 1 1152 0
 888 0016 FFF7FEBF 		b	memp_free
 889              	.LVL77:
 890              	.L116:
 891 001a 7047     		bx	lr
 892              		.cfi_endproc
 893              	.LFE274:
 894              		.size	tcp_seg_free, .-tcp_seg_free
 895              		.section	.text.tcp_segs_free,"ax",%progbits
 896              		.align	2
 897              		.p2align 4,,15
 898              		.global	tcp_segs_free
 899              		.thumb
 900              		.thumb_func
ARM GAS  C:\Users\jo\AppData\Local\Temp\ccpE7U9z.s 			page 17


 901              		.type	tcp_segs_free, %function
 902              	tcp_segs_free:
 903              	.LFB273:
 904              		.loc 1 1129 0
 905              		.cfi_startproc
 906              		@ args = 0, pretend = 0, frame = 0
 907              		@ frame_needed = 0, uses_anonymous_args = 0
 908              	.LVL78:
 909              		.loc 1 1130 0
 910 0000 38B1     		cbz	r0, .L123
 911              		.loc 1 1129 0
 912 0002 10B5     		push	{r4, lr}
 913              		.cfi_def_cfa_offset 8
 914              		.cfi_offset 4, -8
 915              		.cfi_offset 14, -4
 916              	.L119:
 917              	.LBB121:
 918              		.loc 1 1131 0
 919 0004 0468     		ldr	r4, [r0]
 920              	.LVL79:
 921              		.loc 1 1132 0
 922 0006 FFF7FEFF 		bl	tcp_seg_free
 923              	.LVL80:
 924              	.LBE121:
 925              		.loc 1 1130 0
 926 000a 2046     		mov	r0, r4
 927 000c 002C     		cmp	r4, #0
 928 000e F9D1     		bne	.L119
 929 0010 10BD     		pop	{r4, pc}
 930              	.LVL81:
 931              	.L123:
 932              		.cfi_def_cfa_offset 0
 933              		.cfi_restore 4
 934              		.cfi_restore 14
 935 0012 7047     		bx	lr
 936              		.cfi_endproc
 937              	.LFE273:
 938              		.size	tcp_segs_free, .-tcp_segs_free
 939 0014 AFF30080 		.section	.text.tcp_setprio,"ax",%progbits
 939      AFF30080 
 939      AFF30080 
 940              		.align	2
 941              		.p2align 4,,15
 942              		.global	tcp_setprio
 943              		.thumb
 944              		.thumb_func
 945              		.type	tcp_setprio, %function
 946              	tcp_setprio:
 947              	.LFB275:
 948              		.loc 1 1164 0
 949              		.cfi_startproc
 950              		@ args = 0, pretend = 0, frame = 0
 951              		@ frame_needed = 0, uses_anonymous_args = 0
 952              		@ link register save eliminated.
 953              	.LVL82:
 954              		.loc 1 1165 0
 955 0000 4176     		strb	r1, [r0, #25]
ARM GAS  C:\Users\jo\AppData\Local\Temp\ccpE7U9z.s 			page 18


 956 0002 7047     		bx	lr
 957              		.cfi_endproc
 958              	.LFE275:
 959              		.size	tcp_setprio, .-tcp_setprio
 960 0004 AFF30080 		.section	.text.tcp_seg_copy,"ax",%progbits
 960      AFF30080 
 960      AFF30080 
 961              		.align	2
 962              		.p2align 4,,15
 963              		.global	tcp_seg_copy
 964              		.thumb
 965              		.thumb_func
 966              		.type	tcp_seg_copy, %function
 967              	tcp_seg_copy:
 968              	.LFB276:
 969              		.loc 1 1178 0
 970              		.cfi_startproc
 971              		@ args = 0, pretend = 0, frame = 0
 972              		@ frame_needed = 0, uses_anonymous_args = 0
 973              	.LVL83:
 974 0000 38B5     		push	{r3, r4, r5, lr}
 975              		.cfi_def_cfa_offset 16
 976              		.cfi_offset 3, -16
 977              		.cfi_offset 4, -12
 978              		.cfi_offset 5, -8
 979              		.cfi_offset 14, -4
 980              		.loc 1 1178 0
 981 0002 0546     		mov	r5, r0
 982              		.loc 1 1181 0
 983 0004 0420     		movs	r0, #4
 984              	.LVL84:
 985 0006 FFF7FEFF 		bl	memp_malloc
 986              	.LVL85:
 987              		.loc 1 1182 0
 988 000a 0446     		mov	r4, r0
 989 000c 50B1     		cbz	r0, .L126
 990              		.loc 1 1185 0
 991 000e 6868     		ldr	r0, [r5, #4]	@ unaligned
 992              	.LVL86:
 993 0010 2968     		ldr	r1, [r5]	@ unaligned
 994 0012 AA68     		ldr	r2, [r5, #8]	@ unaligned
 995 0014 EB68     		ldr	r3, [r5, #12]	@ unaligned
 996 0016 6060     		str	r0, [r4, #4]	@ unaligned
 997 0018 2160     		str	r1, [r4]	@ unaligned
 998 001a A260     		str	r2, [r4, #8]	@ unaligned
 999 001c E360     		str	r3, [r4, #12]	@ unaligned
 1000              		.loc 1 1186 0
 1001 001e 6068     		ldr	r0, [r4, #4]
 1002 0020 FFF7FEFF 		bl	pbuf_ref
 1003              	.LVL87:
 1004              	.L126:
 1005              		.loc 1 1188 0
 1006 0024 2046     		mov	r0, r4
 1007 0026 38BD     		pop	{r3, r4, r5, pc}
 1008              		.cfi_endproc
 1009              	.LFE276:
 1010              		.size	tcp_seg_copy, .-tcp_seg_copy
ARM GAS  C:\Users\jo\AppData\Local\Temp\ccpE7U9z.s 			page 19


 1011 0028 AFF30080 		.section	.text.tcp_arg,"ax",%progbits
 1011      AFF30080 
 1012              		.align	2
 1013              		.p2align 4,,15
 1014              		.global	tcp_arg
 1015              		.thumb
 1016              		.thumb_func
 1017              		.type	tcp_arg, %function
 1018              	tcp_arg:
 1019              	.LFB282:
 1020              		.loc 1 1377 0
 1021              		.cfi_startproc
 1022              		@ args = 0, pretend = 0, frame = 0
 1023              		@ frame_needed = 0, uses_anonymous_args = 0
 1024              		@ link register save eliminated.
 1025              	.LVL88:
 1026              		.loc 1 1380 0
 1027 0000 0161     		str	r1, [r0, #16]
 1028 0002 7047     		bx	lr
 1029              		.cfi_endproc
 1030              	.LFE282:
 1031              		.size	tcp_arg, .-tcp_arg
 1032 0004 AFF30080 		.section	.text.tcp_recv,"ax",%progbits
 1032      AFF30080 
 1032      AFF30080 
 1033              		.align	2
 1034              		.p2align 4,,15
 1035              		.global	tcp_recv
 1036              		.thumb
 1037              		.thumb_func
 1038              		.type	tcp_recv, %function
 1039              	tcp_recv:
 1040              	.LFB283:
 1041              		.loc 1 1393 0
 1042              		.cfi_startproc
 1043              		@ args = 0, pretend = 0, frame = 0
 1044              		@ frame_needed = 0, uses_anonymous_args = 0
 1045              	.LVL89:
 1046 0000 30B5     		push	{r4, r5, lr}
 1047              		.cfi_def_cfa_offset 12
 1048              		.cfi_offset 4, -12
 1049              		.cfi_offset 5, -8
 1050              		.cfi_offset 14, -4
 1051              		.loc 1 1394 0
 1052 0002 037E     		ldrb	r3, [r0, #24]	@ zero_extendqisi2
 1053 0004 012B     		cmp	r3, #1
 1054              		.loc 1 1393 0
 1055 0006 83B0     		sub	sp, sp, #12
 1056              		.cfi_def_cfa_offset 24
 1057              		.loc 1 1393 0
 1058 0008 0446     		mov	r4, r0
 1059 000a 0D46     		mov	r5, r1
 1060              		.loc 1 1394 0
 1061 000c 03D0     		beq	.L135
 1062              		.loc 1 1395 0
 1063 000e C4F88050 		str	r5, [r4, #128]
 1064              		.loc 1 1396 0
ARM GAS  C:\Users\jo\AppData\Local\Temp\ccpE7U9z.s 			page 20


 1065 0012 03B0     		add	sp, sp, #12
 1066              		.cfi_remember_state
 1067              		.cfi_def_cfa_offset 12
 1068              		@ sp needed
 1069 0014 30BD     		pop	{r4, r5, pc}
 1070              	.L135:
 1071              		.cfi_restore_state
 1072              		.loc 1 1394 0 discriminator 1
 1073 0016 084B     		ldr	r3, .L136
 1074 0018 0093     		str	r3, [sp]
 1075 001a 0849     		ldr	r1, .L136+4
 1076              	.LVL90:
 1077 001c 084A     		ldr	r2, .L136+8
 1078 001e 0948     		ldr	r0, .L136+12
 1079              	.LVL91:
 1080 0020 40F27253 		movw	r3, #1394
 1081 0024 FFF7FEFF 		bl	chprintf.constprop.4
 1082              	.LVL92:
 1083              	.LBB122:
 1084              	.LBB123:
 1085              		.loc 3 414 0 discriminator 1
 1086 0028 0548     		ldr	r0, .L136+8
 1087 002a FFF7FEFF 		bl	chSysHalt
 1088              	.LVL93:
 1089              	.LBE123:
 1090              	.LBE122:
 1091              		.loc 1 1395 0 discriminator 1
 1092 002e C4F88050 		str	r5, [r4, #128]
 1093              		.loc 1 1396 0 discriminator 1
 1094 0032 03B0     		add	sp, sp, #12
 1095              		.cfi_def_cfa_offset 12
 1096              		@ sp needed
 1097 0034 30BD     		pop	{r4, r5, pc}
 1098              	.LVL94:
 1099              	.L137:
 1100 0036 00BF     		.align	2
 1101              	.L136:
 1102 0038 50000000 		.word	.LC2
 1103 003c 00000000 		.word	.LC0
 1104 0040 08010000 		.word	.LC7
 1105 0044 00000000 		.word	itm_port
 1106              		.cfi_endproc
 1107              	.LFE283:
 1108              		.size	tcp_recv, .-tcp_recv
 1109 0048 AFF30080 		.section	.text.tcp_sent,"ax",%progbits
 1109      AFF30080 
 1110              		.align	2
 1111              		.p2align 4,,15
 1112              		.global	tcp_sent
 1113              		.thumb
 1114              		.thumb_func
 1115              		.type	tcp_sent, %function
 1116              	tcp_sent:
 1117              	.LFB284:
 1118              		.loc 1 1407 0
 1119              		.cfi_startproc
 1120              		@ args = 0, pretend = 0, frame = 0
ARM GAS  C:\Users\jo\AppData\Local\Temp\ccpE7U9z.s 			page 21


 1121              		@ frame_needed = 0, uses_anonymous_args = 0
 1122              	.LVL95:
 1123 0000 30B5     		push	{r4, r5, lr}
 1124              		.cfi_def_cfa_offset 12
 1125              		.cfi_offset 4, -12
 1126              		.cfi_offset 5, -8
 1127              		.cfi_offset 14, -4
 1128              		.loc 1 1408 0
 1129 0002 037E     		ldrb	r3, [r0, #24]	@ zero_extendqisi2
 1130 0004 012B     		cmp	r3, #1
 1131              		.loc 1 1407 0
 1132 0006 83B0     		sub	sp, sp, #12
 1133              		.cfi_def_cfa_offset 24
 1134              		.loc 1 1407 0
 1135 0008 0446     		mov	r4, r0
 1136 000a 0D46     		mov	r5, r1
 1137              		.loc 1 1408 0
 1138 000c 02D0     		beq	.L141
 1139              		.loc 1 1409 0
 1140 000e E567     		str	r5, [r4, #124]
 1141              		.loc 1 1410 0
 1142 0010 03B0     		add	sp, sp, #12
 1143              		.cfi_remember_state
 1144              		.cfi_def_cfa_offset 12
 1145              		@ sp needed
 1146 0012 30BD     		pop	{r4, r5, pc}
 1147              	.L141:
 1148              		.cfi_restore_state
 1149              		.loc 1 1408 0 discriminator 1
 1150 0014 074B     		ldr	r3, .L142
 1151 0016 0093     		str	r3, [sp]
 1152 0018 0749     		ldr	r1, .L142+4
 1153              	.LVL96:
 1154 001a 084A     		ldr	r2, .L142+8
 1155 001c 0848     		ldr	r0, .L142+12
 1156              	.LVL97:
 1157 001e 4FF4B063 		mov	r3, #1408
 1158 0022 FFF7FEFF 		bl	chprintf.constprop.4
 1159              	.LVL98:
 1160              	.LBB124:
 1161              	.LBB125:
 1162              		.loc 3 414 0 discriminator 1
 1163 0026 0548     		ldr	r0, .L142+8
 1164 0028 FFF7FEFF 		bl	chSysHalt
 1165              	.LVL99:
 1166              	.LBE125:
 1167              	.LBE124:
 1168              		.loc 1 1409 0 discriminator 1
 1169 002c E567     		str	r5, [r4, #124]
 1170              		.loc 1 1410 0 discriminator 1
 1171 002e 03B0     		add	sp, sp, #12
 1172              		.cfi_def_cfa_offset 12
 1173              		@ sp needed
 1174 0030 30BD     		pop	{r4, r5, pc}
 1175              	.LVL100:
 1176              	.L143:
 1177 0032 00BF     		.align	2
ARM GAS  C:\Users\jo\AppData\Local\Temp\ccpE7U9z.s 			page 22


 1178              	.L142:
 1179 0034 50000000 		.word	.LC2
 1180 0038 00000000 		.word	.LC0
 1181 003c 30010000 		.word	.LC8
 1182 0040 00000000 		.word	itm_port
 1183              		.cfi_endproc
 1184              	.LFE284:
 1185              		.size	tcp_sent, .-tcp_sent
 1186 0044 AFF30080 		.section	.text.tcp_err,"ax",%progbits
 1186      AFF30080 
 1186      AFF30080 
 1187              		.align	2
 1188              		.p2align 4,,15
 1189              		.global	tcp_err
 1190              		.thumb
 1191              		.thumb_func
 1192              		.type	tcp_err, %function
 1193              	tcp_err:
 1194              	.LFB285:
 1195              		.loc 1 1422 0
 1196              		.cfi_startproc
 1197              		@ args = 0, pretend = 0, frame = 0
 1198              		@ frame_needed = 0, uses_anonymous_args = 0
 1199              	.LVL101:
 1200 0000 30B5     		push	{r4, r5, lr}
 1201              		.cfi_def_cfa_offset 12
 1202              		.cfi_offset 4, -12
 1203              		.cfi_offset 5, -8
 1204              		.cfi_offset 14, -4
 1205              		.loc 1 1423 0
 1206 0002 037E     		ldrb	r3, [r0, #24]	@ zero_extendqisi2
 1207 0004 012B     		cmp	r3, #1
 1208              		.loc 1 1422 0
 1209 0006 83B0     		sub	sp, sp, #12
 1210              		.cfi_def_cfa_offset 24
 1211              		.loc 1 1422 0
 1212 0008 0446     		mov	r4, r0
 1213 000a 0D46     		mov	r5, r1
 1214              		.loc 1 1423 0
 1215 000c 03D0     		beq	.L147
 1216              		.loc 1 1424 0
 1217 000e C4F88C50 		str	r5, [r4, #140]
 1218              		.loc 1 1425 0
 1219 0012 03B0     		add	sp, sp, #12
 1220              		.cfi_remember_state
 1221              		.cfi_def_cfa_offset 12
 1222              		@ sp needed
 1223 0014 30BD     		pop	{r4, r5, pc}
 1224              	.L147:
 1225              		.cfi_restore_state
 1226              		.loc 1 1423 0 discriminator 1
 1227 0016 084B     		ldr	r3, .L148
 1228 0018 0093     		str	r3, [sp]
 1229 001a 0849     		ldr	r1, .L148+4
 1230              	.LVL102:
 1231 001c 084A     		ldr	r2, .L148+8
 1232 001e 0948     		ldr	r0, .L148+12
ARM GAS  C:\Users\jo\AppData\Local\Temp\ccpE7U9z.s 			page 23


 1233              	.LVL103:
 1234 0020 40F28F53 		movw	r3, #1423
 1235 0024 FFF7FEFF 		bl	chprintf.constprop.4
 1236              	.LVL104:
 1237              	.LBB126:
 1238              	.LBB127:
 1239              		.loc 3 414 0 discriminator 1
 1240 0028 0548     		ldr	r0, .L148+8
 1241 002a FFF7FEFF 		bl	chSysHalt
 1242              	.LVL105:
 1243              	.LBE127:
 1244              	.LBE126:
 1245              		.loc 1 1424 0 discriminator 1
 1246 002e C4F88C50 		str	r5, [r4, #140]
 1247              		.loc 1 1425 0 discriminator 1
 1248 0032 03B0     		add	sp, sp, #12
 1249              		.cfi_def_cfa_offset 12
 1250              		@ sp needed
 1251 0034 30BD     		pop	{r4, r5, pc}
 1252              	.LVL106:
 1253              	.L149:
 1254 0036 00BF     		.align	2
 1255              	.L148:
 1256 0038 50000000 		.word	.LC2
 1257 003c 00000000 		.word	.LC0
 1258 0040 58010000 		.word	.LC9
 1259 0044 00000000 		.word	itm_port
 1260              		.cfi_endproc
 1261              	.LFE285:
 1262              		.size	tcp_err, .-tcp_err
 1263 0048 AFF30080 		.section	.text.tcp_accept,"ax",%progbits
 1263      AFF30080 
 1264              		.align	2
 1265              		.p2align 4,,15
 1266              		.global	tcp_accept
 1267              		.thumb
 1268              		.thumb_func
 1269              		.type	tcp_accept, %function
 1270              	tcp_accept:
 1271              	.LFB286:
 1272              		.loc 1 1437 0
 1273              		.cfi_startproc
 1274              		@ args = 0, pretend = 0, frame = 0
 1275              		@ frame_needed = 0, uses_anonymous_args = 0
 1276              		@ link register save eliminated.
 1277              	.LVL107:
 1278              		.loc 1 1440 0
 1279 0000 4161     		str	r1, [r0, #20]
 1280 0002 7047     		bx	lr
 1281              		.cfi_endproc
 1282              	.LFE286:
 1283              		.size	tcp_accept, .-tcp_accept
 1284 0004 AFF30080 		.section	.text.tcp_poll,"ax",%progbits
 1284      AFF30080 
 1284      AFF30080 
 1285              		.align	2
 1286              		.p2align 4,,15
ARM GAS  C:\Users\jo\AppData\Local\Temp\ccpE7U9z.s 			page 24


 1287              		.global	tcp_poll
 1288              		.thumb
 1289              		.thumb_func
 1290              		.type	tcp_poll, %function
 1291              	tcp_poll:
 1292              	.LFB287:
 1293              		.loc 1 1453 0
 1294              		.cfi_startproc
 1295              		@ args = 0, pretend = 0, frame = 0
 1296              		@ frame_needed = 0, uses_anonymous_args = 0
 1297              	.LVL108:
 1298 0000 70B5     		push	{r4, r5, r6, lr}
 1299              		.cfi_def_cfa_offset 16
 1300              		.cfi_offset 4, -16
 1301              		.cfi_offset 5, -12
 1302              		.cfi_offset 6, -8
 1303              		.cfi_offset 14, -4
 1304              		.loc 1 1454 0
 1305 0002 037E     		ldrb	r3, [r0, #24]	@ zero_extendqisi2
 1306 0004 012B     		cmp	r3, #1
 1307              		.loc 1 1453 0
 1308 0006 82B0     		sub	sp, sp, #8
 1309              		.cfi_def_cfa_offset 24
 1310              		.loc 1 1453 0
 1311 0008 0446     		mov	r4, r0
 1312 000a 0E46     		mov	r6, r1
 1313 000c 1546     		mov	r5, r2
 1314              		.loc 1 1454 0
 1315 000e 05D0     		beq	.L154
 1316              		.loc 1 1456 0
 1317 0010 C4F88860 		str	r6, [r4, #136]
 1318              		.loc 1 1460 0
 1319 0014 84F82050 		strb	r5, [r4, #32]
 1320              		.loc 1 1461 0
 1321 0018 02B0     		add	sp, sp, #8
 1322              		.cfi_remember_state
 1323              		.cfi_def_cfa_offset 16
 1324              		@ sp needed
 1325 001a 70BD     		pop	{r4, r5, r6, pc}
 1326              	.L154:
 1327              		.cfi_restore_state
 1328              		.loc 1 1454 0 discriminator 1
 1329 001c 084B     		ldr	r3, .L155
 1330 001e 0093     		str	r3, [sp]
 1331 0020 0849     		ldr	r1, .L155+4
 1332              	.LVL109:
 1333 0022 094A     		ldr	r2, .L155+8
 1334              	.LVL110:
 1335 0024 0948     		ldr	r0, .L155+12
 1336              	.LVL111:
 1337 0026 40F2AE53 		movw	r3, #1454
 1338 002a FFF7FEFF 		bl	chprintf.constprop.4
 1339              	.LVL112:
 1340              	.LBB128:
 1341              	.LBB129:
 1342              		.loc 3 414 0 discriminator 1
 1343 002e 0648     		ldr	r0, .L155+8
ARM GAS  C:\Users\jo\AppData\Local\Temp\ccpE7U9z.s 			page 25


 1344 0030 FFF7FEFF 		bl	chSysHalt
 1345              	.LVL113:
 1346              	.LBE129:
 1347              	.LBE128:
 1348              		.loc 1 1456 0 discriminator 1
 1349 0034 C4F88860 		str	r6, [r4, #136]
 1350              		.loc 1 1460 0 discriminator 1
 1351 0038 84F82050 		strb	r5, [r4, #32]
 1352              		.loc 1 1461 0 discriminator 1
 1353 003c 02B0     		add	sp, sp, #8
 1354              		.cfi_def_cfa_offset 16
 1355              		@ sp needed
 1356 003e 70BD     		pop	{r4, r5, r6, pc}
 1357              	.LVL114:
 1358              	.L156:
 1359              		.align	2
 1360              	.L155:
 1361 0040 50000000 		.word	.LC2
 1362 0044 00000000 		.word	.LC0
 1363 0048 80010000 		.word	.LC10
 1364 004c 00000000 		.word	itm_port
 1365              		.cfi_endproc
 1366              	.LFE287:
 1367              		.size	tcp_poll, .-tcp_poll
 1368              		.section	.text.tcp_pcb_purge,"ax",%progbits
 1369              		.align	2
 1370              		.p2align 4,,15
 1371              		.global	tcp_pcb_purge
 1372              		.thumb
 1373              		.thumb_func
 1374              		.type	tcp_pcb_purge, %function
 1375              	tcp_pcb_purge:
 1376              	.LFB288:
 1377              		.loc 1 1471 0
 1378              		.cfi_startproc
 1379              		@ args = 0, pretend = 0, frame = 0
 1380              		@ frame_needed = 0, uses_anonymous_args = 0
 1381              	.LVL115:
 1382 0000 38B5     		push	{r3, r4, r5, lr}
 1383              		.cfi_def_cfa_offset 16
 1384              		.cfi_offset 3, -16
 1385              		.cfi_offset 4, -12
 1386              		.cfi_offset 5, -8
 1387              		.cfi_offset 14, -4
 1388              		.loc 1 1472 0
 1389 0002 037E     		ldrb	r3, [r0, #24]	@ zero_extendqisi2
 1390 0004 012B     		cmp	r3, #1
 1391 0006 2BD9     		bls	.L157
 1392              		.loc 1 1472 0 is_stmt 0 discriminator 1
 1393 0008 0A2B     		cmp	r3, #10
 1394 000a 29D0     		beq	.L157
 1395              	.LVL116:
 1396 000c 0546     		mov	r5, r0
 1397              	.LBB141:
 1398              	.LBB142:
 1399              		.loc 1 1499 0 is_stmt 1
 1400 000e 806F     		ldr	r0, [r0, #120]
ARM GAS  C:\Users\jo\AppData\Local\Temp\ccpE7U9z.s 			page 26


 1401              	.LVL117:
 1402 0010 18B1     		cbz	r0, .L159
 1403              		.loc 1 1501 0
 1404 0012 FFF7FEFF 		bl	pbuf_free
 1405              	.LVL118:
 1406              		.loc 1 1502 0
 1407 0016 0023     		movs	r3, #0
 1408 0018 AB67     		str	r3, [r5, #120]
 1409              	.L159:
 1410              		.loc 1 1514 0
 1411 001a 686F     		ldr	r0, [r5, #116]
 1412              	.LVL119:
 1413              	.LBB143:
 1414              	.LBB144:
 1415              		.loc 1 1130 0
 1416 001c 28B1     		cbz	r0, .L164
 1417              	.L163:
 1418              	.LBB145:
 1419              		.loc 1 1131 0
 1420 001e 0468     		ldr	r4, [r0]
 1421              	.LVL120:
 1422              		.loc 1 1132 0
 1423 0020 FFF7FEFF 		bl	tcp_seg_free
 1424              	.LVL121:
 1425              	.LBE145:
 1426              		.loc 1 1130 0
 1427 0024 2046     		mov	r0, r4
 1428 0026 002C     		cmp	r4, #0
 1429 0028 F9D1     		bne	.L163
 1430              	.LVL122:
 1431              	.L164:
 1432              	.LBE144:
 1433              	.LBE143:
 1434              		.loc 1 1522 0
 1435 002a E86E     		ldr	r0, [r5, #108]
 1436              	.LVL123:
 1437              		.loc 1 1515 0
 1438 002c 0022     		movs	r2, #0
 1439              		.loc 1 1520 0
 1440 002e 4FF6FF73 		movw	r3, #65535
 1441              		.loc 1 1515 0
 1442 0032 6A67     		str	r2, [r5, #116]
 1443              		.loc 1 1520 0
 1444 0034 AB86     		strh	r3, [r5, #52]	@ movhi
 1445              	.LBB146:
 1446              	.LBB147:
 1447              		.loc 1 1130 0
 1448 0036 28B1     		cbz	r0, .L162
 1449              	.L167:
 1450              	.LBB148:
 1451              		.loc 1 1131 0
 1452 0038 0468     		ldr	r4, [r0]
 1453              	.LVL124:
 1454              		.loc 1 1132 0
 1455 003a FFF7FEFF 		bl	tcp_seg_free
 1456              	.LVL125:
 1457              	.LBE148:
ARM GAS  C:\Users\jo\AppData\Local\Temp\ccpE7U9z.s 			page 27


 1458              		.loc 1 1130 0
 1459 003e 2046     		mov	r0, r4
 1460 0040 002C     		cmp	r4, #0
 1461 0042 F9D1     		bne	.L167
 1462              	.LVL126:
 1463              	.L162:
 1464              	.LBE147:
 1465              	.LBE146:
 1466              		.loc 1 1523 0
 1467 0044 286F     		ldr	r0, [r5, #112]
 1468              	.LVL127:
 1469              	.LBB149:
 1470              	.LBB150:
 1471              		.loc 1 1130 0
 1472 0046 28B1     		cbz	r0, .L166
 1473              	.L168:
 1474              	.LBB151:
 1475              		.loc 1 1131 0
 1476 0048 0468     		ldr	r4, [r0]
 1477              	.LVL128:
 1478              		.loc 1 1132 0
 1479 004a FFF7FEFF 		bl	tcp_seg_free
 1480              	.LVL129:
 1481              	.LBE151:
 1482              		.loc 1 1130 0
 1483 004e 2046     		mov	r0, r4
 1484 0050 002C     		cmp	r4, #0
 1485 0052 F9D1     		bne	.L168
 1486              	.LVL130:
 1487              	.L166:
 1488              	.LBE150:
 1489              	.LBE149:
 1490              		.loc 1 1524 0
 1491 0054 0023     		movs	r3, #0
 1492 0056 EB66     		str	r3, [r5, #108]
 1493 0058 2B67     		str	r3, [r5, #112]
 1494              		.loc 1 1526 0
 1495 005a A5F86A30 		strh	r3, [r5, #106]	@ movhi
 1496 005e 38BD     		pop	{r3, r4, r5, pc}
 1497              	.LVL131:
 1498              	.L157:
 1499 0060 38BD     		pop	{r3, r4, r5, pc}
 1500              	.LBE142:
 1501              	.LBE141:
 1502              		.cfi_endproc
 1503              	.LFE288:
 1504              		.size	tcp_pcb_purge, .-tcp_pcb_purge
 1505 0062 00BFAFF3 		.section	.text.tcp_slowtmr,"ax",%progbits
 1505      0080AFF3 
 1505      0080AFF3 
 1505      0080
 1506              		.align	2
 1507              		.p2align 4,,15
 1508              		.global	tcp_slowtmr
 1509              		.thumb
 1510              		.thumb_func
 1511              		.type	tcp_slowtmr, %function
ARM GAS  C:\Users\jo\AppData\Local\Temp\ccpE7U9z.s 			page 28


 1512              	tcp_slowtmr:
 1513              	.LFB270:
 1514              		.loc 1 789 0
 1515              		.cfi_startproc
 1516              		@ args = 0, pretend = 0, frame = 8
 1517              		@ frame_needed = 0, uses_anonymous_args = 0
 1518              	.LVL132:
 1519 0000 2DE9F04F 		push	{r4, r5, r6, r7, r8, r9, r10, fp, lr}
 1520              		.cfi_def_cfa_offset 36
 1521              		.cfi_offset 4, -36
 1522              		.cfi_offset 5, -32
 1523              		.cfi_offset 6, -28
 1524              		.cfi_offset 7, -24
 1525              		.cfi_offset 8, -20
 1526              		.cfi_offset 9, -16
 1527              		.cfi_offset 10, -12
 1528              		.cfi_offset 11, -8
 1529              		.cfi_offset 14, -4
 1530              		.loc 1 798 0
 1531 0004 B34C     		ldr	r4, .L286
 1532              		.loc 1 799 0
 1533 0006 B44D     		ldr	r5, .L286+4
 1534              		.loc 1 798 0
 1535 0008 2268     		ldr	r2, [r4]
 1536              		.loc 1 799 0
 1537 000a 2B78     		ldrb	r3, [r5]	@ zero_extendqisi2
 1538 000c DFF8F0B2 		ldr	fp, .L286+44
 1539              		.loc 1 798 0
 1540 0010 0132     		adds	r2, r2, #1
 1541              		.loc 1 799 0
 1542 0012 0133     		adds	r3, r3, #1
 1543              		.loc 1 789 0
 1544 0014 85B0     		sub	sp, sp, #20
 1545              		.cfi_def_cfa_offset 56
 1546              		.loc 1 798 0
 1547 0016 2260     		str	r2, [r4]
 1548              		.loc 1 799 0
 1549 0018 2B70     		strb	r3, [r5]
 1550              	.LVL133:
 1551              	.L180:
 1552              		.loc 1 804 0
 1553 001a DBF80070 		ldr	r7, [fp]
 1554              	.LVL134:
 1555              		.loc 1 808 0
 1556 001e 002F     		cmp	r7, #0
 1557 0020 00F08680 		beq	.L218
 1558 0024 0026     		movs	r6, #0
 1559              	.LVL135:
 1560              	.L217:
 1561              		.loc 1 810 0
 1562 0026 3B7E     		ldrb	r3, [r7, #24]	@ zero_extendqisi2
 1563 0028 002B     		cmp	r3, #0
 1564 002a 00F00781 		beq	.L273
 1565              		.loc 1 811 0
 1566 002e 012B     		cmp	r3, #1
 1567 0030 00F01481 		beq	.L274
 1568              	.L185:
ARM GAS  C:\Users\jo\AppData\Local\Temp\ccpE7U9z.s 			page 29


 1569              		.loc 1 812 0
 1570 0034 0A2B     		cmp	r3, #10
 1571 0036 00F02181 		beq	.L275
 1572              	.L186:
 1573              		.loc 1 813 0
 1574 003a 2B78     		ldrb	r3, [r5]	@ zero_extendqisi2
 1575 003c 97F82120 		ldrb	r2, [r7, #33]	@ zero_extendqisi2
 1576 0040 9A42     		cmp	r2, r3
 1577 0042 00F02D81 		beq	.L276
 1578              	.L187:
 1579              		.loc 1 823 0
 1580 0046 3A7E     		ldrb	r2, [r7, #24]	@ zero_extendqisi2
 1581              		.loc 1 818 0
 1582 0048 87F82130 		strb	r3, [r7, #33]
 1583              	.LVL136:
 1584              		.loc 1 823 0
 1585 004c 022A     		cmp	r2, #2
 1586 004e 97F84630 		ldrb	r3, [r7, #70]	@ zero_extendqisi2
 1587 0052 00F08F81 		beq	.L277
 1588              		.loc 1 827 0
 1589 0056 0C2B     		cmp	r3, #12
 1590 0058 00F09681 		beq	.L231
 1591              	.L229:
 1592              		.loc 1 831 0
 1593 005c 97F89510 		ldrb	r1, [r7, #149]	@ zero_extendqisi2
 1594 0060 0029     		cmp	r1, #0
 1595 0062 00F05181 		beq	.L193
 1596              		.loc 1 835 0
 1597 0066 9D48     		ldr	r0, .L286+8
 1598              		.loc 1 834 0
 1599 0068 97F89430 		ldrb	r3, [r7, #148]	@ zero_extendqisi2
 1600              		.loc 1 835 0
 1601 006c 0844     		add	r0, r0, r1
 1602              		.loc 1 834 0
 1603 006e 0133     		adds	r3, r3, #1
 1604              		.loc 1 835 0
 1605 0070 10F8010C 		ldrb	r0, [r0, #-1]	@ zero_extendqisi2
 1606              		.loc 1 834 0
 1607 0074 DBB2     		uxtb	r3, r3
 1608              		.loc 1 835 0
 1609 0076 9842     		cmp	r0, r3
 1610              		.loc 1 834 0
 1611 0078 87F89430 		strb	r3, [r7, #148]
 1612              		.loc 1 835 0
 1613 007c 00F21581 		bhi	.L234
 1614              		.loc 1 837 0
 1615 0080 0629     		cmp	r1, #6
 1616              		.loc 1 836 0
 1617 0082 4FF00003 		mov	r3, #0
 1618              		.loc 1 838 0
 1619 0086 98BF     		it	ls
 1620 0088 0131     		addls	r1, r1, #1
 1621              		.loc 1 836 0
 1622 008a 87F89430 		strb	r3, [r7, #148]
 1623              		.loc 1 838 0
 1624 008e 98BF     		it	ls
 1625 0090 87F89510 		strbls	r1, [r7, #149]
ARM GAS  C:\Users\jo\AppData\Local\Temp\ccpE7U9z.s 			page 30


 1626              		.loc 1 840 0
 1627 0094 3846     		mov	r0, r7
 1628 0096 FFF7FEFF 		bl	tcp_zero_window_probe
 1629              	.LVL137:
 1630 009a 3A7E     		ldrb	r2, [r7, #24]	@ zero_extendqisi2
 1631              		.loc 1 820 0
 1632 009c 4FF00008 		mov	r8, #0
 1633              	.L192:
 1634              	.LVL138:
 1635              		.loc 1 881 0
 1636 00a0 062A     		cmp	r2, #6
 1637 00a2 00F00781 		beq	.L278
 1638              	.L198:
 1639              		.loc 1 895 0
 1640 00a6 3B7A     		ldrb	r3, [r7, #8]	@ zero_extendqisi2
 1641 00a8 03F00803 		and	r3, r3, #8
 1642 00ac 03F0FF09 		and	r9, r3, #255
 1643 00b0 3BB1     		cbz	r3, .L190
 1644              		.loc 1 895 0 is_stmt 0 discriminator 1
 1645 00b2 042A     		cmp	r2, #4
 1646 00b4 00F06B81 		beq	.L200
 1647              		.loc 1 896 0 is_stmt 1
 1648 00b8 072A     		cmp	r2, #7
 1649 00ba 00F06881 		beq	.L200
 1650              	.L199:
 1651              		.loc 1 821 0
 1652 00be 4FF00009 		mov	r9, #0
 1653              	.LVL139:
 1654              	.L190:
 1655              		.loc 1 921 0
 1656 00c2 786F     		ldr	r0, [r7, #116]
 1657 00c4 48B1     		cbz	r0, .L202
 1658              		.loc 1 922 0 discriminator 1
 1659 00c6 2268     		ldr	r2, [r4]
 1660 00c8 796A     		ldr	r1, [r7, #36]
 1661 00ca B7F94430 		ldrsh	r3, [r7, #68]
 1662 00ce 521A     		subs	r2, r2, r1
 1663 00d0 03EB4303 		add	r3, r3, r3, lsl #1
 1664              		.loc 1 921 0 discriminator 1
 1665 00d4 B2EB430F 		cmp	r2, r3, lsl #1
 1666 00d8 5ED2     		bcs	.L203
 1667              	.L202:
 1668              		.loc 1 930 0
 1669 00da 3B7E     		ldrb	r3, [r7, #24]	@ zero_extendqisi2
 1670 00dc 032B     		cmp	r3, #3
 1671 00de 67D0     		beq	.L279
 1672              	.L204:
 1673              		.loc 1 939 0
 1674 00e0 092B     		cmp	r3, #9
 1675 00e2 6FD0     		beq	.L280
 1676              	.L206:
 1677              		.loc 1 947 0
 1678 00e4 B8F1000F 		cmp	r8, #0
 1679 00e8 71D1     		bne	.L207
 1680              	.LVL140:
 1681              		.loc 1 984 0
 1682 00ea FB7F     		ldrb	r3, [r7, #31]	@ zero_extendqisi2
ARM GAS  C:\Users\jo\AppData\Local\Temp\ccpE7U9z.s 			page 31


 1683              		.loc 1 985 0
 1684 00ec 97F82020 		ldrb	r2, [r7, #32]	@ zero_extendqisi2
 1685              		.loc 1 981 0
 1686 00f0 D7F80C90 		ldr	r9, [r7, #12]
 1687              	.LVL141:
 1688              		.loc 1 984 0
 1689 00f4 0133     		adds	r3, r3, #1
 1690 00f6 DBB2     		uxtb	r3, r3
 1691              		.loc 1 985 0
 1692 00f8 9A42     		cmp	r2, r3
 1693              		.loc 1 984 0
 1694 00fa FB77     		strb	r3, [r7, #31]
 1695              		.loc 1 985 0
 1696 00fc 13D8     		bhi	.L239
 1697              		.loc 1 988 0
 1698 00fe 784E     		ldr	r6, .L286+12
 1699              		.loc 1 989 0
 1700 0100 D7F88830 		ldr	r3, [r7, #136]
 1701              		.loc 1 986 0
 1702 0104 87F81F80 		strb	r8, [r7, #31]
 1703              		.loc 1 988 0
 1704 0108 86F80080 		strb	r8, [r6]
 1705              		.loc 1 989 0
 1706 010c 002B     		cmp	r3, #0
 1707 010e 00F08C80 		beq	.L216
 1708              		.loc 1 989 0 is_stmt 0 discriminator 1
 1709 0112 3869     		ldr	r0, [r7, #16]
 1710 0114 3946     		mov	r1, r7
 1711 0116 9847     		blx	r3
 1712              	.LVL142:
 1713              		.loc 1 990 0 is_stmt 1 discriminator 1
 1714 0118 3378     		ldrb	r3, [r6]	@ zero_extendqisi2
 1715 011a 002B     		cmp	r3, #0
 1716 011c 7FF47DAF 		bne	.L180
 1717              		.loc 1 994 0
 1718 0120 0028     		cmp	r0, #0
 1719 0122 00F08280 		beq	.L216
 1720              	.LVL143:
 1721              	.L239:
 1722 0126 3E46     		mov	r6, r7
 1723              	.LVL144:
 1724              	.L269:
 1725              		.loc 1 981 0
 1726 0128 4F46     		mov	r7, r9
 1727              	.LVL145:
 1728              	.L188:
 1729              		.loc 1 808 0
 1730 012a 002F     		cmp	r7, #0
 1731 012c 7FF47BAF 		bne	.L217
 1732              	.LVL146:
 1733              	.L218:
 1734              		.loc 1 1004 0
 1735 0130 DFF8D081 		ldr	r8, .L286+48
 1736 0134 D8F80050 		ldr	r5, [r8]
 1737              	.LVL147:
 1738              		.loc 1 1005 0
 1739 0138 5DB3     		cbz	r5, .L179
ARM GAS  C:\Users\jo\AppData\Local\Temp\ccpE7U9z.s 			page 32


 1740              		.loc 1 1006 0
 1741 013a 6A4F     		ldr	r7, .L286+16
 1742              		.loc 1 1005 0
 1743 013c 0026     		movs	r6, #0
 1744              	.LVL148:
 1745              	.L225:
 1746              		.loc 1 1006 0
 1747 013e 2B7E     		ldrb	r3, [r5, #24]	@ zero_extendqisi2
 1748 0140 0A2B     		cmp	r3, #10
 1749 0142 0AD0     		beq	.L219
 1750              		.loc 1 1006 0 is_stmt 0 discriminator 1
 1751 0144 0097     		str	r7, [sp]
 1752 0146 6848     		ldr	r0, .L286+20
 1753 0148 6849     		ldr	r1, .L286+24
 1754 014a 694A     		ldr	r2, .L286+28
 1755 014c 40F2EE33 		movw	r3, #1006
 1756 0150 FFF7FEFF 		bl	chprintf.constprop.4
 1757              	.LVL149:
 1758              	.LBB152:
 1759              	.LBB153:
 1760              		.loc 3 414 0 is_stmt 1 discriminator 1
 1761 0154 6648     		ldr	r0, .L286+28
 1762 0156 FFF7FEFF 		bl	chSysHalt
 1763              	.LVL150:
 1764              	.L219:
 1765              	.LBE153:
 1766              	.LBE152:
 1767              		.loc 1 1010 0
 1768 015a 2368     		ldr	r3, [r4]
 1769 015c 6A6A     		ldr	r2, [r5, #36]
 1770 015e 9B1A     		subs	r3, r3, r2
 1771 0160 F02B     		cmp	r3, #240
 1772 0162 40F22C81 		bls	.L281
 1773              	.LVL151:
 1774              	.LBB154:
 1775              		.loc 1 1019 0
 1776 0166 2846     		mov	r0, r5
 1777 0168 FFF7FEFF 		bl	tcp_pcb_purge
 1778              	.LVL152:
 1779              		.loc 1 1021 0
 1780 016c 002E     		cmp	r6, #0
 1781 016e 00F06081 		beq	.L282
 1782              		.loc 1 1022 0
 1783 0172 D8F80030 		ldr	r3, [r8]
 1784 0176 9D42     		cmp	r5, r3
 1785 0178 00F07C81 		beq	.L283
 1786              	.L222:
 1787              		.loc 1 1023 0
 1788 017c EB68     		ldr	r3, [r5, #12]
 1789 017e F360     		str	r3, [r6, #12]
 1790 0180 D5F80C90 		ldr	r9, [r5, #12]
 1791              	.L223:
 1792              	.LVL153:
 1793              		.loc 1 1031 0
 1794 0184 2946     		mov	r1, r5
 1795 0186 0220     		movs	r0, #2
 1796              		.loc 1 1030 0
ARM GAS  C:\Users\jo\AppData\Local\Temp\ccpE7U9z.s 			page 33


 1797 0188 4D46     		mov	r5, r9
 1798              	.LVL154:
 1799              		.loc 1 1031 0
 1800 018a FFF7FEFF 		bl	memp_free
 1801              	.LVL155:
 1802              	.LBE154:
 1803              		.loc 1 1005 0
 1804 018e 002D     		cmp	r5, #0
 1805 0190 D5D1     		bne	.L225
 1806              	.LVL156:
 1807              	.L179:
 1808              		.loc 1 1037 0
 1809 0192 05B0     		add	sp, sp, #20
 1810              		.cfi_remember_state
 1811              		.cfi_def_cfa_offset 36
 1812              		@ sp needed
 1813 0194 BDE8F08F 		pop	{r4, r5, r6, r7, r8, r9, r10, fp, pc}
 1814              	.LVL157:
 1815              	.L203:
 1816              		.cfi_restore_state
 1817              	.LBB159:
 1818              	.LBB160:
 1819              	.LBB161:
 1820              		.loc 1 1131 0
 1821 0198 D0F800A0 		ldr	r10, [r0]
 1822              	.LVL158:
 1823              		.loc 1 1132 0
 1824 019c FFF7FEFF 		bl	tcp_seg_free
 1825              	.LVL159:
 1826              	.LBE161:
 1827              		.loc 1 1130 0
 1828 01a0 5046     		mov	r0, r10
 1829 01a2 0028     		cmp	r0, #0
 1830 01a4 F8D1     		bne	.L203
 1831              	.LBE160:
 1832              	.LBE159:
 1833              		.loc 1 930 0
 1834 01a6 3B7E     		ldrb	r3, [r7, #24]	@ zero_extendqisi2
 1835              		.loc 1 924 0
 1836 01a8 C7F874A0 		str	r10, [r7, #116]
 1837              		.loc 1 930 0
 1838 01ac 032B     		cmp	r3, #3
 1839 01ae 97D1     		bne	.L204
 1840              	.LVL160:
 1841              	.L279:
 1842              		.loc 1 931 0
 1843 01b0 2368     		ldr	r3, [r4]
 1844 01b2 7A6A     		ldr	r2, [r7, #36]
 1845 01b4 9B1A     		subs	r3, r3, r2
 1846 01b6 282B     		cmp	r3, #40
 1847 01b8 94D9     		bls	.L206
 1848              		.loc 1 933 0
 1849 01ba 08F10108 		add	r8, r8, #1
 1850              	.LVL161:
 1851 01be 5FFA88F8 		uxtb	r8, r8
 1852              	.LVL162:
 1853 01c2 8FE7     		b	.L206
ARM GAS  C:\Users\jo\AppData\Local\Temp\ccpE7U9z.s 			page 34


 1854              	.L280:
 1855              		.loc 1 940 0
 1856 01c4 2368     		ldr	r3, [r4]
 1857 01c6 7A6A     		ldr	r2, [r7, #36]
 1858 01c8 9B1A     		subs	r3, r3, r2
 1859 01ca F02B     		cmp	r3, #240
 1860 01cc 8AD9     		bls	.L206
 1861              	.L207:
 1862              	.LVL163:
 1863              	.LBB162:
 1864              		.loc 1 951 0
 1865 01ce 3846     		mov	r0, r7
 1866 01d0 FFF7FEFF 		bl	tcp_pcb_purge
 1867              	.LVL164:
 1868              		.loc 1 954 0
 1869 01d4 DBF80030 		ldr	r3, [fp]
 1870              		.loc 1 953 0
 1871 01d8 002E     		cmp	r6, #0
 1872 01da 00F01881 		beq	.L209
 1873              		.loc 1 954 0
 1874 01de 9F42     		cmp	r7, r3
 1875 01e0 00F03B81 		beq	.L284
 1876              	.L210:
 1877              		.loc 1 955 0
 1878 01e4 FB68     		ldr	r3, [r7, #12]
 1879 01e6 F360     		str	r3, [r6, #12]
 1880              	.L211:
 1881              		.loc 1 962 0
 1882 01e8 B9F1000F 		cmp	r9, #0
 1883 01ec 40F00481 		bne	.L285
 1884              	.L213:
 1885              		.loc 1 968 0
 1886 01f0 3B69     		ldr	r3, [r7, #16]
 1887              		.loc 1 967 0
 1888 01f2 D7F88CA0 		ldr	r10, [r7, #140]
 1889              	.LVL165:
 1890              		.loc 1 973 0
 1891 01f6 DFF8E880 		ldr	r8, .L286+12
 1892              		.loc 1 968 0
 1893 01fa 0393     		str	r3, [sp, #12]
 1894              	.LVL166:
 1895              		.loc 1 971 0
 1896 01fc 0220     		movs	r0, #2
 1897 01fe 3946     		mov	r1, r7
 1898              		.loc 1 970 0
 1899 0200 D7F80C90 		ldr	r9, [r7, #12]
 1900              	.LVL167:
 1901              		.loc 1 971 0
 1902 0204 FFF7FEFF 		bl	memp_free
 1903              	.LVL168:
 1904              		.loc 1 973 0
 1905 0208 0022     		movs	r2, #0
 1906 020a 88F80020 		strb	r2, [r8]
 1907              		.loc 1 974 0
 1908 020e BAF1000F 		cmp	r10, #0
 1909 0212 89D0     		beq	.L269
 1910              		.loc 1 974 0 is_stmt 0 discriminator 1
ARM GAS  C:\Users\jo\AppData\Local\Temp\ccpE7U9z.s 			page 35


 1911 0214 0398     		ldr	r0, [sp, #12]
 1912 0216 6FF00901 		mvn	r1, #9
 1913 021a D047     		blx	r10
 1914              	.LVL169:
 1915              		.loc 1 975 0 is_stmt 1 discriminator 1
 1916 021c 98F80030 		ldrb	r3, [r8]	@ zero_extendqisi2
 1917 0220 002B     		cmp	r3, #0
 1918 0222 7FF4FAAE 		bne	.L180
 1919              	.LBE162:
 1920              		.loc 1 981 0
 1921 0226 4F46     		mov	r7, r9
 1922              	.LVL170:
 1923 0228 7FE7     		b	.L188
 1924              	.LVL171:
 1925              	.L216:
 1926              		.loc 1 995 0
 1927 022a 3846     		mov	r0, r7
 1928 022c 3E46     		mov	r6, r7
 1929              		.loc 1 981 0
 1930 022e 4F46     		mov	r7, r9
 1931              	.LVL172:
 1932              		.loc 1 995 0
 1933 0230 FFF7FEFF 		bl	tcp_output
 1934              	.LVL173:
 1935              		.loc 1 808 0
 1936 0234 002F     		cmp	r7, #0
 1937 0236 7FF4F6AE 		bne	.L217
 1938 023a 79E7     		b	.L218
 1939              	.LVL174:
 1940              	.L273:
 1941              		.loc 1 810 0 discriminator 1
 1942 023c 294B     		ldr	r3, .L286+16
 1943 023e 0093     		str	r3, [sp]
 1944 0240 2A49     		ldr	r1, .L286+24
 1945 0242 2C4A     		ldr	r2, .L286+32
 1946 0244 2848     		ldr	r0, .L286+20
 1947 0246 40F22A33 		movw	r3, #810
 1948 024a FFF7FEFF 		bl	chprintf.constprop.4
 1949              	.LVL175:
 1950              	.LBB167:
 1951              	.LBB168:
 1952              		.loc 3 414 0 discriminator 1
 1953 024e 2948     		ldr	r0, .L286+32
 1954 0250 FFF7FEFF 		bl	chSysHalt
 1955              	.LVL176:
 1956 0254 3B7E     		ldrb	r3, [r7, #24]	@ zero_extendqisi2
 1957              	.LBE168:
 1958              	.LBE167:
 1959              		.loc 1 811 0 discriminator 1
 1960 0256 012B     		cmp	r3, #1
 1961 0258 7FF4ECAE 		bne	.L185
 1962              	.LVL177:
 1963              	.L274:
 1964 025c 214B     		ldr	r3, .L286+16
 1965 025e 0093     		str	r3, [sp]
 1966 0260 2249     		ldr	r1, .L286+24
 1967 0262 254A     		ldr	r2, .L286+36
ARM GAS  C:\Users\jo\AppData\Local\Temp\ccpE7U9z.s 			page 36


 1968 0264 2048     		ldr	r0, .L286+20
 1969 0266 40F22B33 		movw	r3, #811
 1970 026a FFF7FEFF 		bl	chprintf.constprop.4
 1971              	.LVL178:
 1972              	.LBB169:
 1973              	.LBB170:
 1974              		.loc 3 414 0 discriminator 1
 1975 026e 2248     		ldr	r0, .L286+36
 1976 0270 FFF7FEFF 		bl	chSysHalt
 1977              	.LVL179:
 1978 0274 3B7E     		ldrb	r3, [r7, #24]	@ zero_extendqisi2
 1979              	.LBE170:
 1980              	.LBE169:
 1981              		.loc 1 812 0 discriminator 1
 1982 0276 0A2B     		cmp	r3, #10
 1983 0278 7FF4DFAE 		bne	.L186
 1984              	.LVL180:
 1985              	.L275:
 1986 027c 194B     		ldr	r3, .L286+16
 1987 027e 1F4A     		ldr	r2, .L286+40
 1988 0280 0093     		str	r3, [sp]
 1989 0282 1A49     		ldr	r1, .L286+24
 1990 0284 1848     		ldr	r0, .L286+20
 1991 0286 4FF44B73 		mov	r3, #812
 1992 028a FFF7FEFF 		bl	chprintf.constprop.4
 1993              	.LVL181:
 1994              	.LBB171:
 1995              	.LBB172:
 1996              		.loc 3 414 0 discriminator 1
 1997 028e 1B48     		ldr	r0, .L286+40
 1998 0290 FFF7FEFF 		bl	chSysHalt
 1999              	.LVL182:
 2000              	.LBE172:
 2001              	.LBE171:
 2002              		.loc 1 813 0 discriminator 1
 2003 0294 2B78     		ldrb	r3, [r5]	@ zero_extendqisi2
 2004 0296 97F82120 		ldrb	r2, [r7, #33]	@ zero_extendqisi2
 2005 029a 9A42     		cmp	r2, r3
 2006 029c 7FF4D3AE 		bne	.L187
 2007              	.LVL183:
 2008              	.L276:
 2009              		.loc 1 815 0
 2010 02a0 FF68     		ldr	r7, [r7, #12]
 2011              	.LVL184:
 2012              		.loc 1 808 0
 2013 02a2 002F     		cmp	r7, #0
 2014 02a4 7FF4BFAE 		bne	.L217
 2015 02a8 42E7     		b	.L218
 2016              	.LVL185:
 2017              	.L234:
 2018              		.loc 1 881 0
 2019 02aa 062A     		cmp	r2, #6
 2020              		.loc 1 820 0
 2021 02ac 4FF00008 		mov	r8, #0
 2022              	.LVL186:
 2023              		.loc 1 881 0
 2024 02b0 7FF4F9AE 		bne	.L198
ARM GAS  C:\Users\jo\AppData\Local\Temp\ccpE7U9z.s 			page 37


 2025              	.L278:
 2026              		.loc 1 883 0
 2027 02b4 BB7F     		ldrb	r3, [r7, #30]	@ zero_extendqisi2
 2028 02b6 DB06     		lsls	r3, r3, #27
 2029 02b8 7FF501AF 		bpl	.L199
 2030              		.loc 1 886 0
 2031 02bc 2368     		ldr	r3, [r4]
 2032 02be 7A6A     		ldr	r2, [r7, #36]
 2033 02c0 9B1A     		subs	r3, r3, r2
 2034 02c2 282B     		cmp	r3, #40
 2035 02c4 7FF6FBAE 		bls	.L199
 2036              		.loc 1 888 0
 2037 02c8 08F10108 		add	r8, r8, #1
 2038              	.LVL187:
 2039 02cc 5FFA88F8 		uxtb	r8, r8
 2040              	.LVL188:
 2041 02d0 F5E6     		b	.L199
 2042              	.L287:
 2043 02d2 00BF     		.align	2
 2044              	.L286:
 2045 02d4 00000000 		.word	.LANCHOR5
 2046 02d8 00000000 		.word	.LANCHOR6
 2047 02dc 00000000 		.word	.LANCHOR9
 2048 02e0 00000000 		.word	.LANCHOR11
 2049 02e4 50000000 		.word	.LC2
 2050 02e8 00000000 		.word	itm_port
 2051 02ec 00000000 		.word	.LC0
 2052 02f0 80020000 		.word	.LC16
 2053 02f4 A0010000 		.word	.LC11
 2054 02f8 CC010000 		.word	.LC12
 2055 02fc F8010000 		.word	.LC13
 2056 0300 00000000 		.word	.LANCHOR7
 2057 0304 00000000 		.word	.LANCHOR8
 2058              	.LVL189:
 2059              	.L193:
 2060              		.loc 1 844 0
 2061 0308 B98E     		ldrh	r1, [r7, #52]
 2062 030a 0804     		lsls	r0, r1, #16
 2063              		.loc 1 845 0
 2064 030c 5CBF     		itt	pl
 2065 030e 0131     		addpl	r1, r1, #1
 2066 0310 B986     		strhpl	r1, [r7, #52]	@ movhi
 2067              		.loc 1 848 0
 2068 0312 396F     		ldr	r1, [r7, #112]
 2069 0314 0029     		cmp	r1, #0
 2070 0316 C8D0     		beq	.L234
 2071              		.loc 1 848 0 is_stmt 0 discriminator 1
 2072 0318 B7F93400 		ldrsh	r0, [r7, #52]
 2073 031c B7F94410 		ldrsh	r1, [r7, #68]
 2074 0320 8842     		cmp	r0, r1
 2075 0322 C2DB     		blt	.L234
 2076              		.loc 1 856 0 is_stmt 1
 2077 0324 022A     		cmp	r2, #2
 2078 0326 0AD0     		beq	.L196
 2079              		.loc 1 857 0
 2080 0328 5849     		ldr	r1, .L288
 2081 032a B7F94000 		ldrsh	r0, [r7, #64]
ARM GAS  C:\Users\jo\AppData\Local\Temp\ccpE7U9z.s 			page 38


 2082 032e B7F94220 		ldrsh	r2, [r7, #66]
 2083 0332 C95C     		ldrb	r1, [r1, r3]	@ zero_extendqisi2
 2084 0334 02EBE003 		add	r3, r2, r0, asr #3
 2085 0338 8B40     		lsls	r3, r3, r1
 2086 033a A7F84430 		strh	r3, [r7, #68]	@ movhi
 2087              	.L196:
 2088              		.loc 1 864 0
 2089 033e B7F84C10 		ldrh	r1, [r7, #76]
 2090 0342 B7F86030 		ldrh	r3, [r7, #96]
 2091              		.loc 1 866 0
 2092 0346 FA8E     		ldrh	r2, [r7, #54]
 2093              		.loc 1 869 0
 2094 0348 A7F84C20 		strh	r2, [r7, #76]	@ movhi
 2095              		.loc 1 865 0
 2096 034c 8B42     		cmp	r3, r1
 2097 034e 28BF     		it	cs
 2098 0350 0B46     		movcs	r3, r1
 2099 0352 5B08     		lsrs	r3, r3, #1
 2100              		.loc 1 866 0
 2101 0354 5100     		lsls	r1, r2, #1
 2102              		.loc 1 861 0
 2103 0356 0020     		movs	r0, #0
 2104              		.loc 1 866 0
 2105 0358 8B42     		cmp	r3, r1
 2106              		.loc 1 865 0
 2107 035a A7F84E30 		strh	r3, [r7, #78]	@ movhi
 2108              		.loc 1 861 0
 2109 035e B886     		strh	r0, [r7, #52]	@ movhi
 2110              		.loc 1 867 0
 2111 0360 B8BF     		it	lt
 2112 0362 A7F84E10 		strhlt	r1, [r7, #78]	@ movhi
 2113              		.loc 1 876 0
 2114 0366 3846     		mov	r0, r7
 2115 0368 FFF7FEFF 		bl	tcp_rexmit_rto
 2116              	.LVL190:
 2117              		.loc 1 820 0
 2118 036c 4FF00008 		mov	r8, #0
 2119 0370 3A7E     		ldrb	r2, [r7, #24]	@ zero_extendqisi2
 2120 0372 95E6     		b	.L192
 2121              	.L277:
 2122              		.loc 1 823 0 discriminator 1
 2123 0374 062B     		cmp	r3, #6
 2124 0376 02D0     		beq	.L240
 2125              		.loc 1 827 0
 2126 0378 0C2B     		cmp	r3, #12
 2127 037a 7FF46FAE 		bne	.L229
 2128              	.L240:
 2129              		.loc 1 821 0
 2130 037e 4FF00009 		mov	r9, #0
 2131              		.loc 1 827 0
 2132 0382 4FF00108 		mov	r8, #1
 2133 0386 9CE6     		b	.L190
 2134              	.L231:
 2135              		.loc 1 828 0
 2136 0388 4FF00108 		mov	r8, #1
 2137 038c 88E6     		b	.L192
 2138              	.LVL191:
ARM GAS  C:\Users\jo\AppData\Local\Temp\ccpE7U9z.s 			page 39


 2139              	.L200:
 2140              		.loc 1 899 0
 2141 038e D7F89000 		ldr	r0, [r7, #144]
 2142              		.loc 1 898 0
 2143 0392 7A6A     		ldr	r2, [r7, #36]
 2144 0394 0392     		str	r2, [sp, #12]
 2145              		.loc 1 899 0
 2146 0396 00F52423 		add	r3, r0, #671744
 2147 039a 3D4A     		ldr	r2, .L288+4
 2148              		.loc 1 898 0
 2149 039c 2168     		ldr	r1, [r4]
 2150              		.loc 1 899 0
 2151 039e 03F6B843 		addw	r3, r3, #3256
 2152 03a2 A2FB0323 		umull	r2, r3, r2, r3
 2153              		.loc 1 898 0
 2154 03a6 039A     		ldr	r2, [sp, #12]
 2155 03a8 8A1A     		subs	r2, r1, r2
 2156 03aa B2EB531F 		cmp	r2, r3, lsr #5
 2157 03ae 0CD9     		bls	.L201
 2158              		.loc 1 905 0
 2159 03b0 08F10108 		add	r8, r8, #1
 2160              	.LVL192:
 2161 03b4 5FFA88F8 		uxtb	r8, r8
 2162              	.LVL193:
 2163              		.loc 1 906 0
 2164 03b8 4FF00109 		mov	r9, #1
 2165 03bc 81E6     		b	.L190
 2166              	.LVL194:
 2167              	.L281:
 2168              		.loc 1 1034 0
 2169 03be 2E46     		mov	r6, r5
 2170 03c0 ED68     		ldr	r5, [r5, #12]
 2171              	.LVL195:
 2172              		.loc 1 1005 0
 2173 03c2 002D     		cmp	r5, #0
 2174 03c4 7FF4BBAE 		bne	.L225
 2175 03c8 E3E6     		b	.L179
 2176              	.LVL196:
 2177              	.L201:
 2178              		.loc 1 909 0
 2179 03ca 97F89610 		ldrb	r1, [r7, #150]	@ zero_extendqisi2
 2180 03ce 314B     		ldr	r3, .L288+8
 2181 03d0 03FB0103 		mla	r3, r3, r1, r0
 2182              		.loc 1 910 0
 2183 03d4 2E49     		ldr	r1, .L288+4
 2184 03d6 A1FB0313 		umull	r1, r3, r1, r3
 2185              		.loc 1 908 0
 2186 03da B2EB531F 		cmp	r2, r3, lsr #5
 2187 03de 7FF66EAE 		bls	.L199
 2188              		.loc 1 912 0
 2189 03e2 3846     		mov	r0, r7
 2190 03e4 FFF7FEFF 		bl	tcp_keepalive
 2191              	.LVL197:
 2192              		.loc 1 913 0
 2193 03e8 97F89630 		ldrb	r3, [r7, #150]	@ zero_extendqisi2
 2194 03ec 0133     		adds	r3, r3, #1
 2195 03ee 87F89630 		strb	r3, [r7, #150]
ARM GAS  C:\Users\jo\AppData\Local\Temp\ccpE7U9z.s 			page 40


 2196              		.loc 1 821 0
 2197 03f2 4FF00009 		mov	r9, #0
 2198 03f6 64E6     		b	.L190
 2199              	.LVL198:
 2200              	.L285:
 2201              	.LBB173:
 2202              		.loc 1 963 0
 2203 03f8 7B8B     		ldrh	r3, [r7, #26]
 2204 03fa 386D     		ldr	r0, [r7, #80]
 2205 03fc B96A     		ldr	r1, [r7, #40]
 2206 03fe 0093     		str	r3, [sp]
 2207 0400 BB8B     		ldrh	r3, [r7, #28]
 2208 0402 0193     		str	r3, [sp, #4]
 2209 0404 3A46     		mov	r2, r7
 2210 0406 3B1D     		adds	r3, r7, #4
 2211 0408 FFF7FEFF 		bl	tcp_rst
 2212              	.LVL199:
 2213 040c F0E6     		b	.L213
 2214              	.L209:
 2215              		.loc 1 958 0
 2216 040e BB42     		cmp	r3, r7
 2217 0410 0BD0     		beq	.L212
 2218              		.loc 1 958 0 is_stmt 0 discriminator 1
 2219 0412 214B     		ldr	r3, .L288+12
 2220 0414 0093     		str	r3, [sp]
 2221 0416 2148     		ldr	r0, .L288+16
 2222 0418 2149     		ldr	r1, .L288+20
 2223 041a 224A     		ldr	r2, .L288+24
 2224 041c 40F2BE33 		movw	r3, #958
 2225 0420 FFF7FEFF 		bl	chprintf.constprop.4
 2226              	.LVL200:
 2227              	.LBB163:
 2228              	.LBB164:
 2229              		.loc 3 414 0 is_stmt 1 discriminator 1
 2230 0424 1F48     		ldr	r0, .L288+24
 2231 0426 FFF7FEFF 		bl	chSysHalt
 2232              	.LVL201:
 2233              	.L212:
 2234              	.LBE164:
 2235              	.LBE163:
 2236              		.loc 1 959 0
 2237 042a FB68     		ldr	r3, [r7, #12]
 2238 042c CBF80030 		str	r3, [fp]
 2239 0430 DAE6     		b	.L211
 2240              	.LVL202:
 2241              	.L282:
 2242              	.LBE173:
 2243              	.LBB174:
 2244              		.loc 1 1026 0
 2245 0432 D8F80030 		ldr	r3, [r8]
 2246 0436 AB42     		cmp	r3, r5
 2247 0438 0AD0     		beq	.L224
 2248              		.loc 1 1026 0 is_stmt 0 discriminator 1
 2249 043a 0097     		str	r7, [sp]
 2250 043c 1748     		ldr	r0, .L288+16
 2251 043e 1849     		ldr	r1, .L288+20
 2252 0440 194A     		ldr	r2, .L288+28
ARM GAS  C:\Users\jo\AppData\Local\Temp\ccpE7U9z.s 			page 41


 2253 0442 40F20243 		movw	r3, #1026
 2254 0446 FFF7FEFF 		bl	chprintf.constprop.4
 2255              	.LVL203:
 2256              	.LBB155:
 2257              	.LBB156:
 2258              		.loc 3 414 0 is_stmt 1 discriminator 1
 2259 044a 1748     		ldr	r0, .L288+28
 2260 044c FFF7FEFF 		bl	chSysHalt
 2261              	.LVL204:
 2262              	.L224:
 2263              	.LBE156:
 2264              	.LBE155:
 2265              		.loc 1 1027 0
 2266 0450 EB68     		ldr	r3, [r5, #12]
 2267 0452 C8F80030 		str	r3, [r8]
 2268 0456 9946     		mov	r9, r3
 2269 0458 94E6     		b	.L223
 2270              	.LVL205:
 2271              	.L284:
 2272              	.LBE174:
 2273              	.LBB175:
 2274              		.loc 1 954 0 discriminator 1
 2275 045a 0F4B     		ldr	r3, .L288+12
 2276 045c 0093     		str	r3, [sp]
 2277 045e 1049     		ldr	r1, .L288+20
 2278 0460 124A     		ldr	r2, .L288+32
 2279 0462 0E48     		ldr	r0, .L288+16
 2280 0464 40F2BA33 		movw	r3, #954
 2281 0468 FFF7FEFF 		bl	chprintf.constprop.4
 2282              	.LVL206:
 2283              	.LBB165:
 2284              	.LBB166:
 2285              		.loc 3 414 0 discriminator 1
 2286 046c 0F48     		ldr	r0, .L288+32
 2287 046e FFF7FEFF 		bl	chSysHalt
 2288              	.LVL207:
 2289 0472 B7E6     		b	.L210
 2290              	.LVL208:
 2291              	.L283:
 2292              	.LBE166:
 2293              	.LBE165:
 2294              	.LBE175:
 2295              	.LBB176:
 2296              		.loc 1 1022 0 discriminator 1
 2297 0474 0097     		str	r7, [sp]
 2298 0476 0A49     		ldr	r1, .L288+20
 2299 0478 0D4A     		ldr	r2, .L288+36
 2300 047a 0848     		ldr	r0, .L288+16
 2301 047c 40F2FE33 		movw	r3, #1022
 2302 0480 FFF7FEFF 		bl	chprintf.constprop.4
 2303              	.LVL209:
 2304              	.LBB157:
 2305              	.LBB158:
 2306              		.loc 3 414 0 discriminator 1
 2307 0484 0A48     		ldr	r0, .L288+36
 2308 0486 FFF7FEFF 		bl	chSysHalt
 2309              	.LVL210:
ARM GAS  C:\Users\jo\AppData\Local\Temp\ccpE7U9z.s 			page 42


 2310 048a 77E6     		b	.L222
 2311              	.L289:
 2312              		.align	2
 2313              	.L288:
 2314 048c 00000000 		.word	.LANCHOR10
 2315 0490 D34D6210 		.word	274877907
 2316 0494 F8240100 		.word	75000
 2317 0498 50000000 		.word	.LC2
 2318 049c 00000000 		.word	itm_port
 2319 04a0 00000000 		.word	.LC0
 2320 04a4 54020000 		.word	.LC15
 2321 04a8 D8020000 		.word	.LC18
 2322 04ac 28020000 		.word	.LC14
 2323 04b0 B0020000 		.word	.LC17
 2324              	.LBE158:
 2325              	.LBE157:
 2326              	.LBE176:
 2327              		.cfi_endproc
 2328              	.LFE270:
 2329              		.size	tcp_slowtmr, .-tcp_slowtmr
 2330 04b4 AFF30080 		.section	.text.tcp_pcb_remove,"ax",%progbits
 2330      AFF30080 
 2330      AFF30080 
 2331              		.align	2
 2332              		.p2align 4,,15
 2333              		.global	tcp_pcb_remove
 2334              		.thumb
 2335              		.thumb_func
 2336              		.type	tcp_pcb_remove, %function
 2337              	tcp_pcb_remove:
 2338              	.LFB289:
 2339              		.loc 1 1539 0
 2340              		.cfi_startproc
 2341              		@ args = 0, pretend = 0, frame = 0
 2342              		@ frame_needed = 0, uses_anonymous_args = 0
 2343              	.LVL211:
 2344 0000 10B5     		push	{r4, lr}
 2345              		.cfi_def_cfa_offset 8
 2346              		.cfi_offset 4, -8
 2347              		.cfi_offset 14, -4
 2348              		.loc 1 1540 0
 2349 0002 0268     		ldr	r2, [r0]
 2350 0004 8A42     		cmp	r2, r1
 2351              		.loc 1 1539 0
 2352 0006 82B0     		sub	sp, sp, #8
 2353              		.cfi_def_cfa_offset 16
 2354              		.loc 1 1539 0
 2355 0008 0C46     		mov	r4, r1
 2356              		.loc 1 1540 0
 2357 000a 56D0     		beq	.L320
 2358              		.loc 1 1540 0 is_stmt 0 discriminator 2
 2359 000c 2D49     		ldr	r1, .L325
 2360              	.LVL212:
 2361 000e 0A60     		str	r2, [r1]
 2362 0010 52B1     		cbz	r2, .L292
 2363              		.loc 1 1540 0
 2364 0012 D368     		ldr	r3, [r2, #12]
ARM GAS  C:\Users\jo\AppData\Local\Temp\ccpE7U9z.s 			page 43


 2365 0014 A342     		cmp	r3, r4
 2366 0016 53D0     		beq	.L321
 2367              		.loc 1 1540 0 discriminator 6
 2368 0018 2BB1     		cbz	r3, .L322
 2369              	.L297:
 2370              		.loc 1 1540 0 discriminator 9
 2371 001a DA68     		ldr	r2, [r3, #12]
 2372 001c A242     		cmp	r2, r4
 2373 001e 3ED0     		beq	.L323
 2374 0020 1346     		mov	r3, r2
 2375              		.loc 1 1540 0
 2376 0022 002B     		cmp	r3, #0
 2377 0024 F9D1     		bne	.L297
 2378              	.L322:
 2379 0026 0B60     		str	r3, [r1]
 2380              	.L292:
 2381              		.loc 1 1540 0 discriminator 10
 2382 0028 0023     		movs	r3, #0
 2383 002a E360     		str	r3, [r4, #12]
 2384              		.loc 1 1542 0 is_stmt 1 discriminator 10
 2385 002c 2046     		mov	r0, r4
 2386              	.LVL213:
 2387 002e FFF7FEFF 		bl	tcp_pcb_purge
 2388              	.LVL214:
 2389              		.loc 1 1545 0 discriminator 10
 2390 0032 237E     		ldrb	r3, [r4, #24]	@ zero_extendqisi2
 2391 0034 0A2B     		cmp	r3, #10
 2392 0036 04D0     		beq	.L304
 2393              		.loc 1 1545 0 is_stmt 0 discriminator 1
 2394 0038 012B     		cmp	r3, #1
 2395 003a 2CD0     		beq	.L303
 2396              		.loc 1 1547 0 is_stmt 1
 2397 003c A37F     		ldrb	r3, [r4, #30]	@ zero_extendqisi2
 2398              		.loc 1 1546 0
 2399 003e DA07     		lsls	r2, r3, #31
 2400 0040 31D4     		bmi	.L324
 2401              	.L304:
 2402              		.loc 1 1553 0
 2403 0042 E36E     		ldr	r3, [r4, #108]
 2404 0044 5BB1     		cbz	r3, .L301
 2405              		.loc 1 1553 0 is_stmt 0 discriminator 1
 2406 0046 204B     		ldr	r3, .L325+4
 2407 0048 0093     		str	r3, [sp]
 2408 004a 2048     		ldr	r0, .L325+8
 2409 004c 2049     		ldr	r1, .L325+12
 2410 004e 214A     		ldr	r2, .L325+16
 2411 0050 40F21163 		movw	r3, #1553
 2412 0054 FFF7FEFF 		bl	chprintf.constprop.4
 2413              	.LVL215:
 2414              	.LBB177:
 2415              	.LBB178:
 2416              		.loc 3 414 0 is_stmt 1 discriminator 1
 2417 0058 1E48     		ldr	r0, .L325+16
 2418 005a FFF7FEFF 		bl	chSysHalt
 2419              	.LVL216:
 2420              	.L301:
 2421              	.LBE178:
ARM GAS  C:\Users\jo\AppData\Local\Temp\ccpE7U9z.s 			page 44


 2422              	.LBE177:
 2423              		.loc 1 1554 0
 2424 005e 236F     		ldr	r3, [r4, #112]
 2425 0060 5BB1     		cbz	r3, .L306
 2426              		.loc 1 1554 0 is_stmt 0 discriminator 1
 2427 0062 194B     		ldr	r3, .L325+4
 2428 0064 0093     		str	r3, [sp]
 2429 0066 1948     		ldr	r0, .L325+8
 2430 0068 1949     		ldr	r1, .L325+12
 2431 006a 1B4A     		ldr	r2, .L325+20
 2432 006c 40F21263 		movw	r3, #1554
 2433 0070 FFF7FEFF 		bl	chprintf.constprop.4
 2434              	.LVL217:
 2435              	.LBB179:
 2436              	.LBB180:
 2437              		.loc 3 414 0 is_stmt 1 discriminator 1
 2438 0074 1848     		ldr	r0, .L325+20
 2439 0076 FFF7FEFF 		bl	chSysHalt
 2440              	.LVL218:
 2441              	.L306:
 2442              	.LBE180:
 2443              	.LBE179:
 2444              		.loc 1 1556 0
 2445 007a 636F     		ldr	r3, [r4, #116]
 2446 007c 5BB1     		cbz	r3, .L303
 2447              		.loc 1 1556 0 is_stmt 0 discriminator 1
 2448 007e 124B     		ldr	r3, .L325+4
 2449 0080 0093     		str	r3, [sp]
 2450 0082 1248     		ldr	r0, .L325+8
 2451 0084 1249     		ldr	r1, .L325+12
 2452 0086 154A     		ldr	r2, .L325+24
 2453 0088 40F21463 		movw	r3, #1556
 2454 008c FFF7FEFF 		bl	chprintf.constprop.4
 2455              	.LVL219:
 2456              	.LBB181:
 2457              	.LBB182:
 2458              		.loc 3 414 0 is_stmt 1 discriminator 1
 2459 0090 1248     		ldr	r0, .L325+24
 2460 0092 FFF7FEFF 		bl	chSysHalt
 2461              	.LVL220:
 2462              	.L303:
 2463              	.LBE182:
 2464              	.LBE181:
 2465              		.loc 1 1560 0
 2466 0096 0023     		movs	r3, #0
 2467 0098 2376     		strb	r3, [r4, #24]
 2468              		.loc 1 1563 0
 2469 009a 02B0     		add	sp, sp, #8
 2470              		.cfi_remember_state
 2471              		.cfi_def_cfa_offset 8
 2472              		@ sp needed
 2473 009c 10BD     		pop	{r4, pc}
 2474              	.LVL221:
 2475              	.L323:
 2476              		.cfi_restore_state
 2477 009e 0B60     		str	r3, [r1]
 2478              	.L294:
ARM GAS  C:\Users\jo\AppData\Local\Temp\ccpE7U9z.s 			page 45


 2479              		.loc 1 1540 0 discriminator 5
 2480 00a0 E268     		ldr	r2, [r4, #12]
 2481 00a2 DA60     		str	r2, [r3, #12]
 2482 00a4 C0E7     		b	.L292
 2483              	.LVL222:
 2484              	.L324:
 2485              		.loc 1 1548 0
 2486 00a6 43F00203 		orr	r3, r3, #2
 2487 00aa A377     		strb	r3, [r4, #30]
 2488              		.loc 1 1549 0
 2489 00ac 2046     		mov	r0, r4
 2490 00ae FFF7FEFF 		bl	tcp_output
 2491              	.LVL223:
 2492              		.loc 1 1552 0
 2493 00b2 237E     		ldrb	r3, [r4, #24]	@ zero_extendqisi2
 2494 00b4 012B     		cmp	r3, #1
 2495 00b6 C4D1     		bne	.L304
 2496 00b8 EDE7     		b	.L303
 2497              	.LVL224:
 2498              	.L320:
 2499              		.loc 1 1540 0 discriminator 1
 2500 00ba CB68     		ldr	r3, [r1, #12]
 2501 00bc 0360     		str	r3, [r0]
 2502 00be B3E7     		b	.L292
 2503              	.LVL225:
 2504              	.L321:
 2505              		.loc 1 1540 0 is_stmt 0
 2506 00c0 1346     		mov	r3, r2
 2507 00c2 EDE7     		b	.L294
 2508              	.L326:
 2509              		.align	2
 2510              	.L325:
 2511 00c4 00000000 		.word	.LANCHOR3
 2512 00c8 50000000 		.word	.LC2
 2513 00cc 00000000 		.word	itm_port
 2514 00d0 00000000 		.word	.LC0
 2515 00d4 00030000 		.word	.LC19
 2516 00d8 18030000 		.word	.LC20
 2517 00dc 34030000 		.word	.LC21
 2518              		.cfi_endproc
 2519              	.LFE289:
 2520              		.size	tcp_pcb_remove, .-tcp_pcb_remove
 2521              		.section	.text.tcp_close_shutdown,"ax",%progbits
 2522              		.align	2
 2523              		.p2align 4,,15
 2524              		.thumb
 2525              		.thumb_func
 2526              		.type	tcp_close_shutdown, %function
 2527              	tcp_close_shutdown:
 2528              	.LFB258:
 2529              		.loc 1 171 0 is_stmt 1
 2530              		.cfi_startproc
 2531              		@ args = 0, pretend = 0, frame = 0
 2532              		@ frame_needed = 0, uses_anonymous_args = 0
 2533              	.LVL226:
 2534 0000 30B5     		push	{r4, r5, lr}
 2535              		.cfi_def_cfa_offset 12
ARM GAS  C:\Users\jo\AppData\Local\Temp\ccpE7U9z.s 			page 46


 2536              		.cfi_offset 4, -12
 2537              		.cfi_offset 5, -8
 2538              		.cfi_offset 14, -4
 2539              		.loc 1 174 0
 2540 0002 037E     		ldrb	r3, [r0, #24]	@ zero_extendqisi2
 2541              		.loc 1 171 0
 2542 0004 83B0     		sub	sp, sp, #12
 2543              		.cfi_def_cfa_offset 24
 2544              		.loc 1 171 0
 2545 0006 0446     		mov	r4, r0
 2546              		.loc 1 174 0
 2547 0008 19B1     		cbz	r1, .L330
 2548              		.loc 1 174 0 is_stmt 0 discriminator 1
 2549 000a 042B     		cmp	r3, #4
 2550 000c 1ED0     		beq	.L329
 2551              		.loc 1 174 0 discriminator 2
 2552 000e 072B     		cmp	r3, #7
 2553 0010 1CD0     		beq	.L329
 2554              	.LVL227:
 2555              	.L330:
 2556              		.loc 1 199 0 is_stmt 1
 2557 0012 072B     		cmp	r3, #7
 2558 0014 0ED8     		bhi	.L377
 2559 0016 DFE803F0 		tbb	[pc, r3]
 2560              	.L345:
 2561 001a 3F       		.byte	(.L344-.L345)/2
 2562 001b 54       		.byte	(.L346-.L345)/2
 2563 001c 5D       		.byte	(.L347-.L345)/2
 2564 001d 11       		.byte	(.L348-.L345)/2
 2565 001e 11       		.byte	(.L348-.L345)/2
 2566 001f 0D       		.byte	(.L377-.L345)/2
 2567 0020 0D       		.byte	(.L377-.L345)/2
 2568 0021 04       		.byte	(.L350-.L345)/2
 2569              		.p2align 1
 2570              	.L350:
 2571              		.loc 1 243 0
 2572 0022 2046     		mov	r0, r4
 2573              	.LVL228:
 2574 0024 FFF7FEFF 		bl	tcp_send_fin
 2575              	.LVL229:
 2576              		.loc 1 244 0
 2577 0028 28B9     		cbnz	r0, .L342
 2578              		.loc 1 246 0
 2579 002a 0923     		movs	r3, #9
 2580 002c 2376     		strb	r3, [r4, #24]
 2581              	.L361:
 2582              	.LVL230:
 2583              		.loc 1 265 0
 2584 002e 2046     		mov	r0, r4
 2585 0030 FFF7FEFF 		bl	tcp_output
 2586              	.LVL231:
 2587              	.L377:
 2588 0034 0020     		movs	r0, #0
 2589              	.L342:
 2590 0036 40B2     		sxtb	r0, r0
 2591              		.loc 1 268 0
 2592 0038 03B0     		add	sp, sp, #12
ARM GAS  C:\Users\jo\AppData\Local\Temp\ccpE7U9z.s 			page 47


 2593              		.cfi_remember_state
 2594              		.cfi_def_cfa_offset 12
 2595              		@ sp needed
 2596 003a 30BD     		pop	{r4, r5, pc}
 2597              	.LVL232:
 2598              	.L348:
 2599              		.cfi_restore_state
 2600              		.loc 1 229 0
 2601 003c 2046     		mov	r0, r4
 2602              	.LVL233:
 2603 003e FFF7FEFF 		bl	tcp_send_fin
 2604              	.LVL234:
 2605              		.loc 1 230 0
 2606 0042 0028     		cmp	r0, #0
 2607 0044 F7D1     		bne	.L342
 2608              		.loc 1 232 0
 2609 0046 0523     		movs	r3, #5
 2610 0048 2376     		strb	r3, [r4, #24]
 2611 004a F0E7     		b	.L361
 2612              	.LVL235:
 2613              	.L329:
 2614              		.loc 1 175 0
 2615 004c A26F     		ldr	r2, [r4, #120]
 2616 004e 002A     		cmp	r2, #0
 2617 0050 00F08A80 		beq	.L379
 2618              	.LVL236:
 2619              	.L331:
 2620              		.loc 1 178 0
 2621 0054 A37F     		ldrb	r3, [r4, #30]	@ zero_extendqisi2
 2622 0056 DB06     		lsls	r3, r3, #27
 2623 0058 48D5     		bpl	.L380
 2624              	.LVL237:
 2625              	.L332:
 2626              		.loc 1 182 0
 2627 005a 628B     		ldrh	r2, [r4, #26]
 2628 005c A38B     		ldrh	r3, [r4, #28]
 2629 005e 206D     		ldr	r0, [r4, #80]
 2630 0060 A16A     		ldr	r1, [r4, #40]
 2631 0062 8DE80C00 		stmia	sp, {r2, r3}
 2632 0066 2246     		mov	r2, r4
 2633 0068 231D     		adds	r3, r4, #4
 2634 006a FFF7FEFF 		bl	tcp_rst
 2635              	.LVL238:
 2636              		.loc 1 185 0
 2637 006e 2046     		mov	r0, r4
 2638 0070 FFF7FEFF 		bl	tcp_pcb_purge
 2639              	.LVL239:
 2640              		.loc 1 186 0
 2641 0074 414B     		ldr	r3, .L389
 2642 0076 1A68     		ldr	r2, [r3]
 2643 0078 A242     		cmp	r2, r4
 2644 007a 6BD0     		beq	.L381
 2645              		.loc 1 186 0 is_stmt 0 discriminator 2
 2646 007c 4049     		ldr	r1, .L389+4
 2647 007e 0A60     		str	r2, [r1]
 2648 0080 002A     		cmp	r2, #0
 2649 0082 42D0     		beq	.L334
ARM GAS  C:\Users\jo\AppData\Local\Temp\ccpE7U9z.s 			page 48


 2650              		.loc 1 186 0
 2651 0084 D368     		ldr	r3, [r2, #12]
 2652 0086 A342     		cmp	r3, r4
 2653 0088 67D0     		beq	.L382
 2654              	.L338:
 2655              		.loc 1 186 0 discriminator 6
 2656 008a 002B     		cmp	r3, #0
 2657 008c 56D0     		beq	.L383
 2658              		.loc 1 186 0 discriminator 9
 2659 008e DA68     		ldr	r2, [r3, #12]
 2660 0090 A242     		cmp	r2, r4
 2661 0092 37D0     		beq	.L384
 2662 0094 1346     		mov	r3, r2
 2663 0096 F8E7     		b	.L338
 2664              	.LVL240:
 2665              	.L344:
 2666              		.loc 1 209 0 is_stmt 1
 2667 0098 638B     		ldrh	r3, [r4, #26]
 2668 009a 002B     		cmp	r3, #0
 2669 009c 49D0     		beq	.L351
 2670              		.loc 1 210 0
 2671 009e 394B     		ldr	r3, .L389+8
 2672 00a0 1A68     		ldr	r2, [r3]
 2673 00a2 A242     		cmp	r2, r4
 2674 00a4 41D0     		beq	.L385
 2675              		.loc 1 210 0 is_stmt 0 discriminator 2
 2676 00a6 3649     		ldr	r1, .L389+4
 2677 00a8 0A60     		str	r2, [r1]
 2678 00aa 002A     		cmp	r2, #0
 2679 00ac 3FD0     		beq	.L353
 2680              		.loc 1 210 0
 2681 00ae D368     		ldr	r3, [r2, #12]
 2682 00b0 A342     		cmp	r3, r4
 2683 00b2 56D0     		beq	.L355
 2684              	.L357:
 2685              		.loc 1 210 0 discriminator 6
 2686 00b4 002B     		cmp	r3, #0
 2687 00b6 5ED0     		beq	.L386
 2688              		.loc 1 210 0 discriminator 9
 2689 00b8 DA68     		ldr	r2, [r3, #12]
 2690 00ba A242     		cmp	r2, r4
 2691 00bc 4FD0     		beq	.L387
 2692 00be 1346     		mov	r3, r2
 2693 00c0 F8E7     		b	.L357
 2694              	.LVL241:
 2695              	.L346:
 2696              		.loc 1 217 0 is_stmt 1
 2697 00c2 2146     		mov	r1, r4
 2698 00c4 3048     		ldr	r0, .L389+12
 2699              	.LVL242:
 2700 00c6 FFF7FEFF 		bl	tcp_pcb_remove
 2701              	.LVL243:
 2702              		.loc 1 218 0
 2703 00ca 2146     		mov	r1, r4
 2704 00cc 0320     		movs	r0, #3
 2705 00ce FFF7FEFF 		bl	memp_free
 2706              	.LVL244:
ARM GAS  C:\Users\jo\AppData\Local\Temp\ccpE7U9z.s 			page 49


 2707              		.loc 1 220 0
 2708 00d2 AFE7     		b	.L377
 2709              	.LVL245:
 2710              	.L347:
 2711              		.loc 1 223 0
 2712 00d4 2146     		mov	r1, r4
 2713 00d6 2948     		ldr	r0, .L389
 2714              	.LVL246:
 2715 00d8 FFF7FEFF 		bl	tcp_pcb_remove
 2716              	.LVL247:
 2717 00dc 2B4B     		ldr	r3, .L389+16
 2718 00de 0122     		movs	r2, #1
 2719              		.loc 1 224 0
 2720 00e0 2146     		mov	r1, r4
 2721 00e2 0220     		movs	r0, #2
 2722              		.loc 1 223 0
 2723 00e4 1A70     		strb	r2, [r3]
 2724              		.loc 1 224 0
 2725 00e6 FFF7FEFF 		bl	memp_free
 2726              	.LVL248:
 2727              		.loc 1 227 0
 2728 00ea A3E7     		b	.L377
 2729              	.LVL249:
 2730              	.L380:
 2731              		.loc 1 178 0 discriminator 1
 2732 00ec 284B     		ldr	r3, .L389+20
 2733 00ee 0093     		str	r3, [sp]
 2734 00f0 2849     		ldr	r1, .L389+24
 2735 00f2 294A     		ldr	r2, .L389+28
 2736 00f4 2948     		ldr	r0, .L389+32
 2737              	.LVL250:
 2738 00f6 B223     		movs	r3, #178
 2739 00f8 FFF7FEFF 		bl	chprintf.constprop.4
 2740              	.LVL251:
 2741              	.LBB183:
 2742              	.LBB184:
 2743              		.loc 3 414 0 discriminator 1
 2744 00fc 2648     		ldr	r0, .L389+28
 2745 00fe FFF7FEFF 		bl	chSysHalt
 2746              	.LVL252:
 2747 0102 AAE7     		b	.L332
 2748              	.LVL253:
 2749              	.L384:
 2750 0104 0B60     		str	r3, [r1]
 2751              	.L336:
 2752              	.LBE184:
 2753              	.LBE183:
 2754              		.loc 1 186 0 discriminator 5
 2755 0106 E268     		ldr	r2, [r4, #12]
 2756 0108 DA60     		str	r2, [r3, #12]
 2757              	.L334:
 2758              		.loc 1 187 0 discriminator 10
 2759 010a 237E     		ldrb	r3, [r4, #24]	@ zero_extendqisi2
 2760              		.loc 1 186 0 discriminator 10
 2761 010c 1F4A     		ldr	r2, .L389+16
 2762 010e 0121     		movs	r1, #1
 2763 0110 0025     		movs	r5, #0
ARM GAS  C:\Users\jo\AppData\Local\Temp\ccpE7U9z.s 			page 50


 2764              		.loc 1 187 0 discriminator 10
 2765 0112 042B     		cmp	r3, #4
 2766              		.loc 1 186 0 discriminator 10
 2767 0114 1170     		strb	r1, [r2]
 2768 0116 E560     		str	r5, [r4, #12]
 2769              		.loc 1 187 0 discriminator 10
 2770 0118 12D0     		beq	.L388
 2771              		.loc 1 193 0
 2772 011a 2146     		mov	r1, r4
 2773 011c 0220     		movs	r0, #2
 2774 011e FFF7FEFF 		bl	memp_free
 2775              	.LVL254:
 2776              		.loc 1 195 0
 2777 0122 2846     		mov	r0, r5
 2778 0124 40B2     		sxtb	r0, r0
 2779              		.loc 1 268 0
 2780 0126 03B0     		add	sp, sp, #12
 2781              		.cfi_remember_state
 2782              		.cfi_def_cfa_offset 12
 2783              		@ sp needed
 2784 0128 30BD     		pop	{r4, r5, pc}
 2785              	.LVL255:
 2786              	.L385:
 2787              		.cfi_restore_state
 2788              		.loc 1 210 0 discriminator 1
 2789 012a E268     		ldr	r2, [r4, #12]
 2790 012c 1A60     		str	r2, [r3]
 2791              	.L353:
 2792              		.loc 1 210 0 is_stmt 0 discriminator 10
 2793 012e 0023     		movs	r3, #0
 2794 0130 E360     		str	r3, [r4, #12]
 2795              	.L351:
 2796              		.loc 1 212 0 is_stmt 1
 2797 0132 2146     		mov	r1, r4
 2798 0134 0220     		movs	r0, #2
 2799              	.LVL256:
 2800 0136 FFF7FEFF 		bl	memp_free
 2801              	.LVL257:
 2802              		.loc 1 214 0
 2803 013a 7BE7     		b	.L377
 2804              	.LVL258:
 2805              	.L383:
 2806 013c 0B60     		str	r3, [r1]
 2807 013e E4E7     		b	.L334
 2808              	.L388:
 2809              		.loc 1 190 0
 2810 0140 174B     		ldr	r3, .L389+36
 2811              		.loc 1 189 0
 2812 0142 0A22     		movs	r2, #10
 2813              		.loc 1 190 0
 2814 0144 1968     		ldr	r1, [r3]
 2815 0146 E160     		str	r1, [r4, #12]
 2816              		.loc 1 189 0
 2817 0148 2276     		strb	r2, [r4, #24]
 2818              		.loc 1 190 0
 2819 014a 1C60     		str	r4, [r3]
 2820 014c FFF7FEFF 		bl	tcp_timer_needed
ARM GAS  C:\Users\jo\AppData\Local\Temp\ccpE7U9z.s 			page 51


 2821              	.LVL259:
 2822              		.loc 1 195 0
 2823 0150 2846     		mov	r0, r5
 2824 0152 70E7     		b	.L342
 2825              	.L381:
 2826              		.loc 1 186 0 discriminator 1
 2827 0154 E268     		ldr	r2, [r4, #12]
 2828 0156 1A60     		str	r2, [r3]
 2829 0158 D7E7     		b	.L334
 2830              	.L382:
 2831              		.loc 1 186 0 is_stmt 0
 2832 015a 1346     		mov	r3, r2
 2833 015c D3E7     		b	.L336
 2834              	.LVL260:
 2835              	.L387:
 2836 015e 1A46     		mov	r2, r3
 2837 0160 0B60     		str	r3, [r1]
 2838              	.L355:
 2839              		.loc 1 210 0 is_stmt 1 discriminator 5
 2840 0162 E368     		ldr	r3, [r4, #12]
 2841 0164 D360     		str	r3, [r2, #12]
 2842 0166 E2E7     		b	.L353
 2843              	.LVL261:
 2844              	.L379:
 2845              		.loc 1 175 0 discriminator 1
 2846 0168 A18D     		ldrh	r1, [r4, #44]
 2847              	.LVL262:
 2848 016a 41F2D062 		movw	r2, #5840
 2849 016e 9142     		cmp	r1, r2
 2850 0170 7FF470AF 		bne	.L331
 2851 0174 4DE7     		b	.L330
 2852              	.LVL263:
 2853              	.L386:
 2854 0176 0B60     		str	r3, [r1]
 2855 0178 D9E7     		b	.L353
 2856              	.L390:
 2857 017a 00BF     		.align	2
 2858              	.L389:
 2859 017c 00000000 		.word	.LANCHOR7
 2860 0180 00000000 		.word	.LANCHOR3
 2861 0184 00000000 		.word	.LANCHOR2
 2862 0188 00000000 		.word	.LANCHOR4
 2863 018c 00000000 		.word	.LANCHOR11
 2864 0190 50000000 		.word	.LC2
 2865 0194 00000000 		.word	.LC0
 2866 0198 4C030000 		.word	.LC22
 2867 019c 00000000 		.word	itm_port
 2868 01a0 00000000 		.word	.LANCHOR8
 2869              		.cfi_endproc
 2870              	.LFE258:
 2871              		.size	tcp_close_shutdown, .-tcp_close_shutdown
 2872 01a4 AFF30080 		.section	.text.tcp_close,"ax",%progbits
 2872      AFF30080 
 2872      AFF30080 
 2873              		.align	2
 2874              		.p2align 4,,15
 2875              		.global	tcp_close
ARM GAS  C:\Users\jo\AppData\Local\Temp\ccpE7U9z.s 			page 52


 2876              		.thumb
 2877              		.thumb_func
 2878              		.type	tcp_close, %function
 2879              	tcp_close:
 2880              	.LFB259:
 2881              		.loc 1 286 0
 2882              		.cfi_startproc
 2883              		@ args = 0, pretend = 0, frame = 0
 2884              		@ frame_needed = 0, uses_anonymous_args = 0
 2885              		@ link register save eliminated.
 2886              	.LVL264:
 2887              		.loc 1 292 0
 2888 0000 037E     		ldrb	r3, [r0, #24]	@ zero_extendqisi2
 2889 0002 012B     		cmp	r3, #1
 2890 0004 03D0     		beq	.L392
 2891              		.loc 1 294 0
 2892 0006 837F     		ldrb	r3, [r0, #30]	@ zero_extendqisi2
 2893 0008 43F01003 		orr	r3, r3, #16
 2894 000c 8377     		strb	r3, [r0, #30]
 2895              	.L392:
 2896              		.loc 1 297 0
 2897 000e 0121     		movs	r1, #1
 2898 0010 FFF7FEBF 		b	tcp_close_shutdown
 2899              	.LVL265:
 2900              		.cfi_endproc
 2901              	.LFE259:
 2902              		.size	tcp_close, .-tcp_close
 2903 0014 AFF30080 		.section	.text.tcp_recv_null,"ax",%progbits
 2903      AFF30080 
 2903      AFF30080 
 2904              		.align	2
 2905              		.p2align 4,,15
 2906              		.global	tcp_recv_null
 2907              		.thumb
 2908              		.thumb_func
 2909              		.type	tcp_recv_null, %function
 2910              	tcp_recv_null:
 2911              	.LFB277:
 2912              		.loc 1 1198 0
 2913              		.cfi_startproc
 2914              		@ args = 0, pretend = 0, frame = 0
 2915              		@ frame_needed = 0, uses_anonymous_args = 0
 2916              	.LVL266:
 2917              		.loc 1 1200 0
 2918 0000 52B1     		cbz	r2, .L397
 2919              		.loc 1 1198 0
 2920 0002 10B5     		push	{r4, lr}
 2921              		.cfi_def_cfa_offset 8
 2922              		.cfi_offset 4, -8
 2923              		.cfi_offset 14, -4
 2924 0004 0846     		mov	r0, r1
 2925              	.LVL267:
 2926 0006 1446     		mov	r4, r2
 2927              		.loc 1 1201 0
 2928 0008 1189     		ldrh	r1, [r2, #8]
 2929              	.LVL268:
 2930 000a FFF7FEFF 		bl	tcp_recved
ARM GAS  C:\Users\jo\AppData\Local\Temp\ccpE7U9z.s 			page 53


 2931              	.LVL269:
 2932              		.loc 1 1202 0
 2933 000e 2046     		mov	r0, r4
 2934 0010 FFF7FEFF 		bl	pbuf_free
 2935              	.LVL270:
 2936              		.loc 1 1207 0
 2937 0014 0020     		movs	r0, #0
 2938 0016 10BD     		pop	{r4, pc}
 2939              	.LVL271:
 2940              	.L397:
 2941              		.cfi_def_cfa_offset 0
 2942              		.cfi_restore 4
 2943              		.cfi_restore 14
 2944              	.LBB187:
 2945              	.LBB188:
 2946              		.loc 1 1203 0
 2947 0018 0BB1     		cbz	r3, .L402
 2948              	.LBE188:
 2949              	.LBE187:
 2950              		.loc 1 1207 0
 2951 001a 0020     		movs	r0, #0
 2952              	.LVL272:
 2953 001c 7047     		bx	lr
 2954              	.LVL273:
 2955              	.L402:
 2956              	.LBB190:
 2957              	.LBB189:
 2958              		.loc 1 1204 0
 2959 001e 0846     		mov	r0, r1
 2960              	.LVL274:
 2961 0020 FFF7FEBF 		b	tcp_close
 2962              	.LVL275:
 2963              	.LBE189:
 2964              	.LBE190:
 2965              		.cfi_endproc
 2966              	.LFE277:
 2967              		.size	tcp_recv_null, .-tcp_recv_null
 2968 0024 AFF30080 		.section	.text.tcp_process_refused_data,"ax",%progbits
 2968      AFF30080 
 2968      AFF30080 
 2969              		.align	2
 2970              		.p2align 4,,15
 2971              		.global	tcp_process_refused_data
 2972              		.thumb
 2973              		.thumb_func
 2974              		.type	tcp_process_refused_data, %function
 2975              	tcp_process_refused_data:
 2976              	.LFB272:
 2977              		.loc 1 1086 0
 2978              		.cfi_startproc
 2979              		@ args = 0, pretend = 0, frame = 0
 2980              		@ frame_needed = 0, uses_anonymous_args = 0
 2981              	.LVL276:
 2982 0000 F8B5     		push	{r3, r4, r5, r6, r7, lr}
 2983              		.cfi_def_cfa_offset 24
 2984              		.cfi_offset 3, -24
 2985              		.cfi_offset 4, -20
ARM GAS  C:\Users\jo\AppData\Local\Temp\ccpE7U9z.s 			page 54


 2986              		.cfi_offset 5, -16
 2987              		.cfi_offset 6, -12
 2988              		.cfi_offset 7, -8
 2989              		.cfi_offset 14, -4
 2990              		.loc 1 1088 0
 2991 0002 856F     		ldr	r5, [r0, #120]
 2992              		.loc 1 1095 0
 2993 0004 D0F88060 		ldr	r6, [r0, #128]
 2994              		.loc 1 1088 0
 2995 0008 6F7B     		ldrb	r7, [r5, #13]	@ zero_extendqisi2
 2996              	.LVL277:
 2997              		.loc 1 1092 0
 2998 000a 0023     		movs	r3, #0
 2999              		.loc 1 1086 0
 3000 000c 0446     		mov	r4, r0
 3001              		.loc 1 1092 0
 3002 000e 8367     		str	r3, [r0, #120]
 3003              		.loc 1 1095 0
 3004 0010 0EB3     		cbz	r6, .L404
 3005              		.loc 1 1095 0 is_stmt 0 discriminator 1
 3006 0012 0069     		ldr	r0, [r0, #16]
 3007              	.LVL278:
 3008 0014 2146     		mov	r1, r4
 3009 0016 2A46     		mov	r2, r5
 3010 0018 B047     		blx	r6
 3011              	.LVL279:
 3012              	.L405:
 3013              		.loc 1 1096 0 is_stmt 1
 3014 001a A8B9     		cbnz	r0, .L406
 3015              		.loc 1 1098 0
 3016 001c BB06     		lsls	r3, r7, #26
 3017 001e 10D5     		bpl	.L412
 3018              	.LVL280:
 3019              	.LBB193:
 3020              	.LBB194:
 3021              		.loc 1 1101 0
 3022 0020 A38D     		ldrh	r3, [r4, #44]
 3023              		.loc 1 1104 0
 3024 0022 D4F88050 		ldr	r5, [r4, #128]
 3025              	.LVL281:
 3026              		.loc 1 1101 0
 3027 0026 41F2D062 		movw	r2, #5840
 3028 002a 9342     		cmp	r3, r2
 3029              		.loc 1 1102 0
 3030 002c 1CBF     		itt	ne
 3031 002e 0133     		addne	r3, r3, #1
 3032 0030 A385     		strhne	r3, [r4, #44]	@ movhi
 3033              		.loc 1 1104 0
 3034 0032 35B1     		cbz	r5, .L412
 3035 0034 0022     		movs	r2, #0
 3036 0036 1346     		mov	r3, r2
 3037 0038 2069     		ldr	r0, [r4, #16]
 3038              	.LVL282:
 3039 003a 2146     		mov	r1, r4
 3040 003c A847     		blx	r5
 3041              	.LVL283:
 3042              		.loc 1 1105 0
ARM GAS  C:\Users\jo\AppData\Local\Temp\ccpE7U9z.s 			page 55


 3043 003e 0A30     		adds	r0, r0, #10
 3044              	.LVL284:
 3045 0040 10D0     		beq	.L411
 3046              	.LVL285:
 3047              	.L412:
 3048              		.loc 1 1119 0
 3049 0042 0020     		movs	r0, #0
 3050              	.LBE194:
 3051              	.LBE193:
 3052              		.loc 1 1120 0
 3053 0044 40B2     		sxtb	r0, r0
 3054 0046 F8BD     		pop	{r3, r4, r5, r6, r7, pc}
 3055              	.LVL286:
 3056              	.L406:
 3057              		.loc 1 1109 0
 3058 0048 40B2     		sxtb	r0, r0
 3059 004a 0A30     		adds	r0, r0, #10
 3060              	.LVL287:
 3061 004c 0AD0     		beq	.L411
 3062              		.loc 1 1117 0
 3063 004e A567     		str	r5, [r4, #120]
 3064              		.loc 1 1119 0
 3065 0050 0020     		movs	r0, #0
 3066              	.LVL288:
 3067              	.L408:
 3068              		.loc 1 1120 0
 3069 0052 40B2     		sxtb	r0, r0
 3070 0054 F8BD     		pop	{r3, r4, r5, r6, r7, pc}
 3071              	.LVL289:
 3072              	.L404:
 3073              		.loc 1 1095 0 discriminator 2
 3074 0056 3046     		mov	r0, r6
 3075              	.LVL290:
 3076 0058 3346     		mov	r3, r6
 3077 005a 2146     		mov	r1, r4
 3078 005c 2A46     		mov	r2, r5
 3079 005e FFF7FEFF 		bl	tcp_recv_null
 3080              	.LVL291:
 3081 0062 DAE7     		b	.L405
 3082              	.LVL292:
 3083              	.L411:
 3084              	.LBB196:
 3085              	.LBB195:
 3086              		.loc 1 1106 0
 3087 0064 F620     		movs	r0, #246
 3088 0066 F4E7     		b	.L408
 3089              	.LBE195:
 3090              	.LBE196:
 3091              		.cfi_endproc
 3092              	.LFE272:
 3093              		.size	tcp_process_refused_data, .-tcp_process_refused_data
 3094 0068 AFF30080 		.section	.text.tcp_fasttmr,"ax",%progbits
 3094      AFF30080 
 3095              		.align	2
 3096              		.p2align 4,,15
 3097              		.global	tcp_fasttmr
 3098              		.thumb
ARM GAS  C:\Users\jo\AppData\Local\Temp\ccpE7U9z.s 			page 56


 3099              		.thumb_func
 3100              		.type	tcp_fasttmr, %function
 3101              	tcp_fasttmr:
 3102              	.LFB271:
 3103              		.loc 1 1047 0
 3104              		.cfi_startproc
 3105              		@ args = 0, pretend = 0, frame = 0
 3106              		@ frame_needed = 0, uses_anonymous_args = 0
 3107 0000 2DE9F041 		push	{r4, r5, r6, r7, r8, lr}
 3108              		.cfi_def_cfa_offset 24
 3109              		.cfi_offset 4, -24
 3110              		.cfi_offset 5, -20
 3111              		.cfi_offset 6, -16
 3112              		.cfi_offset 7, -12
 3113              		.cfi_offset 8, -8
 3114              		.cfi_offset 14, -4
 3115              		.loc 1 1050 0
 3116 0004 174D     		ldr	r5, .L435
 3117 0006 184F     		ldr	r7, .L435+4
 3118 0008 2B78     		ldrb	r3, [r5]	@ zero_extendqisi2
 3119              	.LBB197:
 3120              		.loc 1 1071 0
 3121 000a DFF86080 		ldr	r8, .L435+8
 3122              	.LBE197:
 3123              		.loc 1 1050 0
 3124 000e 0133     		adds	r3, r3, #1
 3125 0010 2B70     		strb	r3, [r5]
 3126              	.LBB198:
 3127              		.loc 1 1071 0
 3128 0012 0026     		movs	r6, #0
 3129              	.L421:
 3130              	.LBE198:
 3131              		.loc 1 1053 0
 3132 0014 3C68     		ldr	r4, [r7]
 3133              	.LVL293:
 3134              	.L422:
 3135              		.loc 1 1055 0
 3136 0016 2CB1     		cbz	r4, .L420
 3137              		.loc 1 1056 0
 3138 0018 2B78     		ldrb	r3, [r5]	@ zero_extendqisi2
 3139 001a 94F82120 		ldrb	r2, [r4, #33]	@ zero_extendqisi2
 3140 001e 9A42     		cmp	r2, r3
 3141 0020 02D1     		bne	.L428
 3142              	.L423:
 3143 0022 FEE7     		b	.L423
 3144              	.L420:
 3145 0024 BDE8F081 		pop	{r4, r5, r6, r7, r8, pc}
 3146              	.L428:
 3147              	.LBB199:
 3148              		.loc 1 1060 0
 3149 0028 A27F     		ldrb	r2, [r4, #30]	@ zero_extendqisi2
 3150              		.loc 1 1058 0
 3151 002a 84F82130 		strb	r3, [r4, #33]
 3152              		.loc 1 1060 0
 3153 002e D307     		lsls	r3, r2, #31
 3154 0030 0DD4     		bmi	.L434
 3155              	.L424:
ARM GAS  C:\Users\jo\AppData\Local\Temp\ccpE7U9z.s 			page 57


 3156              		.loc 1 1070 0
 3157 0032 A36F     		ldr	r3, [r4, #120]
 3158              		.loc 1 1072 0
 3159 0034 2046     		mov	r0, r4
 3160              		.loc 1 1067 0
 3161 0036 E468     		ldr	r4, [r4, #12]
 3162              	.LVL294:
 3163              		.loc 1 1070 0
 3164 0038 002B     		cmp	r3, #0
 3165 003a ECD0     		beq	.L422
 3166              		.loc 1 1071 0
 3167 003c 88F80060 		strb	r6, [r8]
 3168              		.loc 1 1072 0
 3169 0040 FFF7FEFF 		bl	tcp_process_refused_data
 3170              	.LVL295:
 3171              		.loc 1 1073 0
 3172 0044 98F80030 		ldrb	r3, [r8]	@ zero_extendqisi2
 3173 0048 002B     		cmp	r3, #0
 3174 004a E4D0     		beq	.L422
 3175 004c E2E7     		b	.L421
 3176              	.LVL296:
 3177              	.L434:
 3178              		.loc 1 1062 0
 3179 004e 42F00202 		orr	r2, r2, #2
 3180 0052 A277     		strb	r2, [r4, #30]
 3181              		.loc 1 1063 0
 3182 0054 2046     		mov	r0, r4
 3183 0056 FFF7FEFF 		bl	tcp_output
 3184              	.LVL297:
 3185              		.loc 1 1064 0
 3186 005a A37F     		ldrb	r3, [r4, #30]	@ zero_extendqisi2
 3187 005c 23F00303 		bic	r3, r3, #3
 3188 0060 A377     		strb	r3, [r4, #30]
 3189 0062 E6E7     		b	.L424
 3190              	.L436:
 3191              		.align	2
 3192              	.L435:
 3193 0064 00000000 		.word	.LANCHOR6
 3194 0068 00000000 		.word	.LANCHOR7
 3195 006c 00000000 		.word	.LANCHOR11
 3196              	.LBE199:
 3197              		.cfi_endproc
 3198              	.LFE271:
 3199              		.size	tcp_fasttmr, .-tcp_fasttmr
 3200              		.section	.text.tcp_tmr,"ax",%progbits
 3201              		.align	2
 3202              		.p2align 4,,15
 3203              		.global	tcp_tmr
 3204              		.thumb
 3205              		.thumb_func
 3206              		.type	tcp_tmr, %function
 3207              	tcp_tmr:
 3208              	.LFB257:
 3209              		.loc 1 142 0
 3210              		.cfi_startproc
 3211              		@ args = 0, pretend = 0, frame = 0
 3212              		@ frame_needed = 0, uses_anonymous_args = 0
ARM GAS  C:\Users\jo\AppData\Local\Temp\ccpE7U9z.s 			page 58


 3213 0000 08B5     		push	{r3, lr}
 3214              		.cfi_def_cfa_offset 8
 3215              		.cfi_offset 3, -8
 3216              		.cfi_offset 14, -4
 3217              		.loc 1 144 0
 3218 0002 FFF7FEFF 		bl	tcp_fasttmr
 3219              	.LVL298:
 3220              		.loc 1 146 0
 3221 0006 064A     		ldr	r2, .L441
 3222 0008 1378     		ldrb	r3, [r2]	@ zero_extendqisi2
 3223 000a 0133     		adds	r3, r3, #1
 3224 000c DBB2     		uxtb	r3, r3
 3225 000e 1370     		strb	r3, [r2]
 3226 0010 DB07     		lsls	r3, r3, #31
 3227 0012 00D4     		bmi	.L440
 3228 0014 08BD     		pop	{r3, pc}
 3229              	.L440:
 3230              		.loc 1 151 0
 3231 0016 BDE80840 		pop	{r3, lr}
 3232              		.cfi_restore 14
 3233              		.cfi_restore 3
 3234              		.cfi_def_cfa_offset 0
 3235              		.loc 1 149 0
 3236 001a FFF7FEBF 		b	tcp_slowtmr
 3237              	.LVL299:
 3238              	.L442:
 3239 001e 00BF     		.align	2
 3240              	.L441:
 3241 0020 00000000 		.word	.LANCHOR12
 3242              		.cfi_endproc
 3243              	.LFE257:
 3244              		.size	tcp_tmr, .-tcp_tmr
 3245 0024 AFF30080 		.section	.text.tcp_shutdown,"ax",%progbits
 3245      AFF30080 
 3245      AFF30080 
 3246              		.align	2
 3247              		.p2align 4,,15
 3248              		.global	tcp_shutdown
 3249              		.thumb
 3250              		.thumb_func
 3251              		.type	tcp_shutdown, %function
 3252              	tcp_shutdown:
 3253              	.LFB260:
 3254              		.loc 1 314 0
 3255              		.cfi_startproc
 3256              		@ args = 0, pretend = 0, frame = 0
 3257              		@ frame_needed = 0, uses_anonymous_args = 0
 3258              	.LVL300:
 3259 0000 38B5     		push	{r3, r4, r5, lr}
 3260              		.cfi_def_cfa_offset 16
 3261              		.cfi_offset 3, -16
 3262              		.cfi_offset 4, -12
 3263              		.cfi_offset 5, -8
 3264              		.cfi_offset 14, -4
 3265              		.loc 1 315 0
 3266 0002 037E     		ldrb	r3, [r0, #24]	@ zero_extendqisi2
 3267 0004 012B     		cmp	r3, #1
ARM GAS  C:\Users\jo\AppData\Local\Temp\ccpE7U9z.s 			page 59


 3268              		.loc 1 314 0
 3269 0006 0546     		mov	r5, r0
 3270              		.loc 1 315 0
 3271 0008 23D0     		beq	.L451
 3272              		.loc 1 318 0
 3273 000a 69B1     		cbz	r1, .L445
 3274              		.loc 1 320 0
 3275 000c 837F     		ldrb	r3, [r0, #30]	@ zero_extendqisi2
 3276 000e 43F01003 		orr	r3, r3, #16
 3277 0012 8377     		strb	r3, [r0, #30]
 3278              		.loc 1 321 0
 3279 0014 C2B9     		cbnz	r2, .L457
 3280              		.loc 1 326 0
 3281 0016 806F     		ldr	r0, [r0, #120]
 3282              	.LVL301:
 3283 0018 18B1     		cbz	r0, .L447
 3284 001a 1446     		mov	r4, r2
 3285              		.loc 1 327 0
 3286 001c FFF7FEFF 		bl	pbuf_free
 3287              	.LVL302:
 3288              		.loc 1 328 0
 3289 0020 AC67     		str	r4, [r5, #120]
 3290              	.LVL303:
 3291              	.L447:
 3292              		.loc 1 345 0
 3293 0022 0020     		movs	r0, #0
 3294              	.L444:
 3295 0024 40B2     		sxtb	r0, r0
 3296              		.loc 1 346 0
 3297 0026 38BD     		pop	{r3, r4, r5, pc}
 3298              	.LVL304:
 3299              	.L445:
 3300              		.loc 1 331 0
 3301 0028 002A     		cmp	r2, #0
 3302 002a FAD0     		beq	.L447
 3303 002c 033B     		subs	r3, r3, #3
 3304 002e DBB2     		uxtb	r3, r3
 3305 0030 042B     		cmp	r3, #4
 3306 0032 0ED8     		bhi	.L451
 3307 0034 0122     		movs	r2, #1
 3308              	.LVL305:
 3309 0036 02FA03F3 		lsl	r3, r2, r3
 3310 003a 13F0130F 		tst	r3, #19
 3311 003e 08D0     		beq	.L451
 3312              		.loc 1 346 0
 3313 0040 BDE83840 		pop	{r3, r4, r5, lr}
 3314              		.cfi_remember_state
 3315              		.cfi_restore 14
 3316              		.cfi_restore 5
 3317              		.cfi_restore 4
 3318              		.cfi_restore 3
 3319              		.cfi_def_cfa_offset 0
 3320              		.loc 1 338 0
 3321 0044 FFF7FEBF 		b	tcp_close_shutdown
 3322              	.LVL306:
 3323              	.L457:
 3324              		.cfi_restore_state
ARM GAS  C:\Users\jo\AppData\Local\Temp\ccpE7U9z.s 			page 60


 3325              		.loc 1 323 0
 3326 0048 0121     		movs	r1, #1
 3327              	.LVL307:
 3328              		.loc 1 346 0
 3329 004a BDE83840 		pop	{r3, r4, r5, lr}
 3330              		.cfi_remember_state
 3331              		.cfi_restore 14
 3332              		.cfi_restore 5
 3333              		.cfi_restore 4
 3334              		.cfi_restore 3
 3335              		.cfi_def_cfa_offset 0
 3336              		.loc 1 323 0
 3337 004e FFF7FEBF 		b	tcp_close_shutdown
 3338              	.LVL308:
 3339              	.L451:
 3340              		.cfi_restore_state
 3341              		.loc 1 316 0
 3342 0052 F320     		movs	r0, #243
 3343              	.LVL309:
 3344 0054 E6E7     		b	.L444
 3345              		.cfi_endproc
 3346              	.LFE260:
 3347              		.size	tcp_shutdown, .-tcp_shutdown
 3348 0056 00BFAFF3 		.section	.text.tcp_abandon,"ax",%progbits
 3348      0080AFF3 
 3348      0080
 3349              		.align	2
 3350              		.p2align 4,,15
 3351              		.global	tcp_abandon
 3352              		.thumb
 3353              		.thumb_func
 3354              		.type	tcp_abandon, %function
 3355              	tcp_abandon:
 3356              	.LFB261:
 3357              		.loc 1 358 0
 3358              		.cfi_startproc
 3359              		@ args = 0, pretend = 0, frame = 0
 3360              		@ frame_needed = 0, uses_anonymous_args = 0
 3361              	.LVL310:
 3362 0000 2DE9F047 		push	{r4, r5, r6, r7, r8, r9, r10, lr}
 3363              		.cfi_def_cfa_offset 32
 3364              		.cfi_offset 4, -32
 3365              		.cfi_offset 5, -28
 3366              		.cfi_offset 6, -24
 3367              		.cfi_offset 7, -20
 3368              		.cfi_offset 8, -16
 3369              		.cfi_offset 9, -12
 3370              		.cfi_offset 10, -8
 3371              		.cfi_offset 14, -4
 3372              		.loc 1 366 0
 3373 0004 037E     		ldrb	r3, [r0, #24]	@ zero_extendqisi2
 3374 0006 012B     		cmp	r3, #1
 3375              		.loc 1 358 0
 3376 0008 82B0     		sub	sp, sp, #8
 3377              		.cfi_def_cfa_offset 40
 3378              		.loc 1 358 0
 3379 000a 0446     		mov	r4, r0
ARM GAS  C:\Users\jo\AppData\Local\Temp\ccpE7U9z.s 			page 61


 3380 000c 0E46     		mov	r6, r1
 3381              		.loc 1 366 0
 3382 000e 56D0     		beq	.L478
 3383              	.LVL311:
 3384              	.L459:
 3385              		.loc 1 371 0
 3386 0010 0A2B     		cmp	r3, #10
 3387 0012 49D0     		beq	.L479
 3388              		.loc 1 381 0
 3389 0014 3148     		ldr	r0, .L482
 3390              		.loc 1 375 0
 3391 0016 D4F85090 		ldr	r9, [r4, #80]
 3392              	.LVL312:
 3393              		.loc 1 376 0
 3394 001a D4F82880 		ldr	r8, [r4, #40]
 3395              	.LVL313:
 3396              		.loc 1 378 0
 3397 001e D4F88C50 		ldr	r5, [r4, #140]
 3398              	.LVL314:
 3399              		.loc 1 380 0
 3400 0022 2769     		ldr	r7, [r4, #16]
 3401              	.LVL315:
 3402              		.loc 1 381 0
 3403 0024 2146     		mov	r1, r4
 3404 0026 FFF7FEFF 		bl	tcp_pcb_remove
 3405              	.LVL316:
 3406 002a 2D4B     		ldr	r3, .L482+4
 3407              		.loc 1 382 0
 3408 002c 206F     		ldr	r0, [r4, #112]
 3409              		.loc 1 381 0
 3410 002e 0122     		movs	r2, #1
 3411 0030 1A70     		strb	r2, [r3]
 3412              		.loc 1 382 0
 3413 0032 30B1     		cbz	r0, .L465
 3414              	.L464:
 3415              	.LVL317:
 3416              	.LBB200:
 3417              	.LBB201:
 3418              	.LBB202:
 3419              		.loc 1 1131 0
 3420 0034 D0F800A0 		ldr	r10, [r0]
 3421              	.LVL318:
 3422              		.loc 1 1132 0
 3423 0038 FFF7FEFF 		bl	tcp_seg_free
 3424              	.LVL319:
 3425              	.LBE202:
 3426              		.loc 1 1130 0
 3427 003c 5046     		mov	r0, r10
 3428 003e 0028     		cmp	r0, #0
 3429 0040 F8D1     		bne	.L464
 3430              	.LVL320:
 3431              	.L465:
 3432              	.LBE201:
 3433              	.LBE200:
 3434              		.loc 1 385 0
 3435 0042 E06E     		ldr	r0, [r4, #108]
 3436 0044 30B1     		cbz	r0, .L463
ARM GAS  C:\Users\jo\AppData\Local\Temp\ccpE7U9z.s 			page 62


 3437              	.L468:
 3438              	.LVL321:
 3439              	.LBB203:
 3440              	.LBB204:
 3441              	.LBB205:
 3442              		.loc 1 1131 0
 3443 0046 D0F800A0 		ldr	r10, [r0]
 3444              	.LVL322:
 3445              		.loc 1 1132 0
 3446 004a FFF7FEFF 		bl	tcp_seg_free
 3447              	.LVL323:
 3448              	.LBE205:
 3449              		.loc 1 1130 0
 3450 004e 5046     		mov	r0, r10
 3451 0050 0028     		cmp	r0, #0
 3452 0052 F8D1     		bne	.L468
 3453              	.LVL324:
 3454              	.L463:
 3455              	.LBE204:
 3456              	.LBE203:
 3457              		.loc 1 389 0
 3458 0054 606F     		ldr	r0, [r4, #116]
 3459 0056 30B1     		cbz	r0, .L467
 3460              	.L471:
 3461              	.LVL325:
 3462              	.LBB206:
 3463              	.LBB207:
 3464              	.LBB208:
 3465              		.loc 1 1131 0
 3466 0058 D0F800A0 		ldr	r10, [r0]
 3467              	.LVL326:
 3468              		.loc 1 1132 0
 3469 005c FFF7FEFF 		bl	tcp_seg_free
 3470              	.LVL327:
 3471              	.LBE208:
 3472              		.loc 1 1130 0
 3473 0060 5046     		mov	r0, r10
 3474 0062 0028     		cmp	r0, #0
 3475 0064 F8D1     		bne	.L471
 3476              	.LVL328:
 3477              	.L467:
 3478              	.LBE207:
 3479              	.LBE206:
 3480              		.loc 1 393 0
 3481 0066 66B9     		cbnz	r6, .L480
 3482              		.loc 1 397 0
 3483 0068 2146     		mov	r1, r4
 3484 006a 0220     		movs	r0, #2
 3485 006c FFF7FEFF 		bl	memp_free
 3486              	.LVL329:
 3487              		.loc 1 398 0
 3488 0070 BDB1     		cbz	r5, .L458
 3489              	.L481:
 3490              		.loc 1 398 0 is_stmt 0 discriminator 1
 3491 0072 3846     		mov	r0, r7
 3492 0074 6FF00901 		mvn	r1, #9
 3493 0078 2B46     		mov	r3, r5
ARM GAS  C:\Users\jo\AppData\Local\Temp\ccpE7U9z.s 			page 63


 3494              		.loc 1 400 0 is_stmt 1 discriminator 1
 3495 007a 02B0     		add	sp, sp, #8
 3496              		.cfi_remember_state
 3497              		.cfi_def_cfa_offset 32
 3498              		@ sp needed
 3499 007c BDE8F047 		pop	{r4, r5, r6, r7, r8, r9, r10, lr}
 3500              		.cfi_restore 14
 3501              		.cfi_restore 10
 3502              		.cfi_restore 9
 3503              		.cfi_restore 8
 3504              		.cfi_restore 7
 3505              		.cfi_restore 6
 3506              		.cfi_restore 5
 3507              		.cfi_restore 4
 3508              		.cfi_def_cfa_offset 0
 3509              	.LVL330:
 3510              		.loc 1 398 0 discriminator 1
 3511 0080 1847     		bx	r3	@ indirect register sibling call
 3512              	.LVL331:
 3513              	.L480:
 3514              		.cfi_restore_state
 3515              		.loc 1 395 0
 3516 0082 628B     		ldrh	r2, [r4, #26]
 3517 0084 A38B     		ldrh	r3, [r4, #28]
 3518 0086 0193     		str	r3, [sp, #4]
 3519 0088 0092     		str	r2, [sp]
 3520 008a 4846     		mov	r0, r9
 3521 008c 4146     		mov	r1, r8
 3522 008e 2246     		mov	r2, r4
 3523 0090 231D     		adds	r3, r4, #4
 3524 0092 FFF7FEFF 		bl	tcp_rst
 3525              	.LVL332:
 3526              		.loc 1 397 0
 3527 0096 2146     		mov	r1, r4
 3528 0098 0220     		movs	r0, #2
 3529 009a FFF7FEFF 		bl	memp_free
 3530              	.LVL333:
 3531              		.loc 1 398 0
 3532 009e 002D     		cmp	r5, #0
 3533 00a0 E7D1     		bne	.L481
 3534              	.L458:
 3535              		.loc 1 400 0
 3536 00a2 02B0     		add	sp, sp, #8
 3537              		.cfi_remember_state
 3538              		.cfi_def_cfa_offset 32
 3539              		@ sp needed
 3540 00a4 BDE8F087 		pop	{r4, r5, r6, r7, r8, r9, r10, pc}
 3541              	.LVL334:
 3542              	.L479:
 3543              		.cfi_restore_state
 3544              		.loc 1 372 0
 3545 00a8 2146     		mov	r1, r4
 3546 00aa 0E48     		ldr	r0, .L482+8
 3547 00ac FFF7FEFF 		bl	tcp_pcb_remove
 3548              	.LVL335:
 3549              		.loc 1 373 0
 3550 00b0 2146     		mov	r1, r4
ARM GAS  C:\Users\jo\AppData\Local\Temp\ccpE7U9z.s 			page 64


 3551 00b2 0220     		movs	r0, #2
 3552              		.loc 1 400 0
 3553 00b4 02B0     		add	sp, sp, #8
 3554              		.cfi_remember_state
 3555              		.cfi_def_cfa_offset 32
 3556              		@ sp needed
 3557 00b6 BDE8F047 		pop	{r4, r5, r6, r7, r8, r9, r10, lr}
 3558              		.cfi_restore 14
 3559              		.cfi_restore 10
 3560              		.cfi_restore 9
 3561              		.cfi_restore 8
 3562              		.cfi_restore 7
 3563              		.cfi_restore 6
 3564              		.cfi_restore 5
 3565              		.cfi_restore 4
 3566              		.cfi_def_cfa_offset 0
 3567              	.LVL336:
 3568              		.loc 1 373 0
 3569 00ba FFF7FEBF 		b	memp_free
 3570              	.LVL337:
 3571              	.L478:
 3572              		.cfi_restore_state
 3573              		.loc 1 366 0 discriminator 1
 3574 00be 0A4B     		ldr	r3, .L482+12
 3575 00c0 0093     		str	r3, [sp]
 3576 00c2 0A49     		ldr	r1, .L482+16
 3577              	.LVL338:
 3578 00c4 0A4A     		ldr	r2, .L482+20
 3579 00c6 0B48     		ldr	r0, .L482+24
 3580              	.LVL339:
 3581 00c8 40F26F13 		movw	r3, #367
 3582 00cc FFF7FEFF 		bl	chprintf.constprop.4
 3583              	.LVL340:
 3584              	.LBB209:
 3585              	.LBB210:
 3586              		.loc 3 414 0 discriminator 1
 3587 00d0 0748     		ldr	r0, .L482+20
 3588 00d2 FFF7FEFF 		bl	chSysHalt
 3589              	.LVL341:
 3590 00d6 237E     		ldrb	r3, [r4, #24]	@ zero_extendqisi2
 3591 00d8 9AE7     		b	.L459
 3592              	.L483:
 3593 00da 00BF     		.align	2
 3594              	.L482:
 3595 00dc 00000000 		.word	.LANCHOR7
 3596 00e0 00000000 		.word	.LANCHOR11
 3597 00e4 00000000 		.word	.LANCHOR8
 3598 00e8 50000000 		.word	.LC2
 3599 00ec 00000000 		.word	.LC0
 3600 00f0 68030000 		.word	.LC23
 3601 00f4 00000000 		.word	itm_port
 3602              	.LBE210:
 3603              	.LBE209:
 3604              		.cfi_endproc
 3605              	.LFE261:
 3606              		.size	tcp_abandon, .-tcp_abandon
 3607 00f8 AFF30080 		.section	.text.tcp_abort,"ax",%progbits
ARM GAS  C:\Users\jo\AppData\Local\Temp\ccpE7U9z.s 			page 65


 3607      AFF30080 
 3608              		.align	2
 3609              		.p2align 4,,15
 3610              		.global	tcp_abort
 3611              		.thumb
 3612              		.thumb_func
 3613              		.type	tcp_abort, %function
 3614              	tcp_abort:
 3615              	.LFB262:
 3616              		.loc 1 414 0
 3617              		.cfi_startproc
 3618              		@ args = 0, pretend = 0, frame = 0
 3619              		@ frame_needed = 0, uses_anonymous_args = 0
 3620              		@ link register save eliminated.
 3621              	.LVL342:
 3622              		.loc 1 415 0
 3623 0000 0121     		movs	r1, #1
 3624 0002 FFF7FEBF 		b	tcp_abandon
 3625              	.LVL343:
 3626              		.cfi_endproc
 3627              	.LFE262:
 3628              		.size	tcp_abort, .-tcp_abort
 3629 0006 00BFAFF3 		.section	.text.tcp_alloc,"ax",%progbits
 3629      0080AFF3 
 3629      0080
 3630              		.align	2
 3631              		.p2align 4,,15
 3632              		.global	tcp_alloc
 3633              		.thumb
 3634              		.thumb_func
 3635              		.type	tcp_alloc, %function
 3636              	tcp_alloc:
 3637              	.LFB280:
 3638              		.loc 1 1279 0
 3639              		.cfi_startproc
 3640              		@ args = 0, pretend = 0, frame = 0
 3641              		@ frame_needed = 0, uses_anonymous_args = 0
 3642              	.LVL344:
 3643 0000 2DE9F84F 		push	{r3, r4, r5, r6, r7, r8, r9, r10, fp, lr}
 3644              		.cfi_def_cfa_offset 40
 3645              		.cfi_offset 3, -40
 3646              		.cfi_offset 4, -36
 3647              		.cfi_offset 5, -32
 3648              		.cfi_offset 6, -28
 3649              		.cfi_offset 7, -24
 3650              		.cfi_offset 8, -20
 3651              		.cfi_offset 9, -16
 3652              		.cfi_offset 10, -12
 3653              		.cfi_offset 11, -8
 3654              		.cfi_offset 14, -4
 3655              		.loc 1 1279 0
 3656 0004 0746     		mov	r7, r0
 3657              		.loc 1 1283 0
 3658 0006 0220     		movs	r0, #2
 3659              	.LVL345:
 3660 0008 FFF7FEFF 		bl	memp_malloc
 3661              	.LVL346:
ARM GAS  C:\Users\jo\AppData\Local\Temp\ccpE7U9z.s 			page 66


 3662              		.loc 1 1284 0
 3663 000c 0446     		mov	r4, r0
 3664 000e 0028     		cmp	r0, #0
 3665 0010 44D0     		beq	.L510
 3666              	.L486:
 3667              		.loc 1 1307 0
 3668 0012 0021     		movs	r1, #0
 3669 0014 9822     		movs	r2, #152
 3670 0016 2046     		mov	r0, r4
 3671 0018 FFF7FEFF 		bl	memset
 3672              	.LVL347:
 3673              	.LBB221:
 3674              	.LBB222:
 3675              		.loc 1 1575 0
 3676 001c 424D     		ldr	r5, .L512
 3677 001e 434B     		ldr	r3, .L512+4
 3678              	.LBE222:
 3679              	.LBE221:
 3680              		.loc 1 1329 0
 3681 0020 434A     		ldr	r2, .L512+8
 3682              	.LBB226:
 3683              	.LBB223:
 3684              		.loc 1 1575 0
 3685 0022 1E68     		ldr	r6, [r3]
 3686 0024 2B68     		ldr	r3, [r5]
 3687              	.LBE223:
 3688              	.LBE226:
 3689              		.loc 1 1329 0
 3690 0026 92F800A0 		ldrb	r10, [r2]	@ zero_extendqisi2
 3691              		.loc 1 1334 0
 3692 002a DFF814C1 		ldr	ip, .L512+24
 3693              		.loc 1 1338 0
 3694 002e DFF814E1 		ldr	lr, .L512+28
 3695              		.loc 1 1308 0
 3696 0032 6776     		strb	r7, [r4, #25]
 3697              	.LBB227:
 3698              	.LBB224:
 3699              		.loc 1 1575 0
 3700 0034 3344     		add	r3, r3, r6
 3701              	.LBE224:
 3702              	.LBE227:
 3703              		.loc 1 1310 0
 3704 0036 0022     		movs	r2, #0
 3705              		.loc 1 1311 0
 3706 0038 41F2D060 		movw	r0, #5840
 3707              		.loc 1 1318 0
 3708 003c 0621     		movs	r1, #6
 3709              		.loc 1 1309 0
 3710 003e 40F6683B 		movw	fp, #2920
 3711              		.loc 1 1314 0
 3712 0042 4FF0FF09 		mov	r9, #255
 3713              		.loc 1 1317 0
 3714 0046 4FF40678 		mov	r8, #536
 3715              		.loc 1 1321 0
 3716 004a 4FF6FF77 		movw	r7, #65535
 3717              		.loc 1 1328 0
 3718 004e 6662     		str	r6, [r4, #36]
ARM GAS  C:\Users\jo\AppData\Local\Temp\ccpE7U9z.s 			page 67


 3719              		.loc 1 1322 0
 3720 0050 0126     		movs	r6, #1
 3721              	.LBB228:
 3722              	.LBB225:
 3723              		.loc 1 1575 0
 3724 0052 2B60     		str	r3, [r5]
 3725              	.LBE225:
 3726              	.LBE228:
 3727              		.loc 1 1324 0
 3728 0054 A365     		str	r3, [r4, #88]
 3729              		.loc 1 1325 0
 3730 0056 2365     		str	r3, [r4, #80]
 3731              		.loc 1 1326 0
 3732 0058 A364     		str	r3, [r4, #72]
 3733              		.loc 1 1327 0
 3734 005a E365     		str	r3, [r4, #92]
 3735              		.loc 1 1329 0
 3736 005c 84F821A0 		strb	r10, [r4, #33]
 3737              		.loc 1 1309 0
 3738 0060 A4F866B0 		strh	fp, [r4, #102]	@ movhi
 3739              		.loc 1 1310 0
 3740 0064 A4F86820 		strh	r2, [r4, #104]	@ movhi
 3741              		.loc 1 1313 0
 3742 0068 6272     		strb	r2, [r4, #9]
 3743              		.loc 1 1319 0
 3744 006a A4F84020 		strh	r2, [r4, #64]	@ movhi
 3745              		.loc 1 1331 0
 3746 006e E277     		strb	r2, [r4, #31]
 3747              		.loc 1 1345 0
 3748 0070 84F89620 		strb	r2, [r4, #150]
 3749              		.loc 1 1311 0
 3750 0074 A085     		strh	r0, [r4, #44]	@ movhi
 3751              		.loc 1 1312 0
 3752 0076 E085     		strh	r0, [r4, #46]	@ movhi
 3753              		.loc 1 1314 0
 3754 0078 84F80A90 		strb	r9, [r4, #10]
 3755              		.loc 1 1317 0
 3756 007c A4F83680 		strh	r8, [r4, #54]	@ movhi
 3757              		.loc 1 1318 0
 3758 0080 A4F84410 		strh	r1, [r4, #68]	@ movhi
 3759              		.loc 1 1320 0
 3760 0084 A4F84210 		strh	r1, [r4, #66]	@ movhi
 3761              		.loc 1 1321 0
 3762 0088 A786     		strh	r7, [r4, #52]	@ movhi
 3763              		.loc 1 1322 0
 3764 008a A4F84C60 		strh	r6, [r4, #76]	@ movhi
 3765              		.loc 1 1334 0
 3766 008e C4F880C0 		str	ip, [r4, #128]
 3767              		.loc 1 1338 0
 3768 0092 C4F890E0 		str	lr, [r4, #144]
 3769              	.L501:
 3770              		.loc 1 1348 0
 3771 0096 2046     		mov	r0, r4
 3772 0098 BDE8F88F 		pop	{r3, r4, r5, r6, r7, r8, r9, r10, fp, pc}
 3773              	.LVL348:
 3774              	.L510:
 3775              	.LBB229:
ARM GAS  C:\Users\jo\AppData\Local\Temp\ccpE7U9z.s 			page 68


 3776              	.LBB230:
 3777              		.loc 1 1258 0
 3778 009c 254B     		ldr	r3, .L512+12
 3779 009e 1868     		ldr	r0, [r3]
 3780              	.LVL349:
 3781 00a0 88B1     		cbz	r0, .L488
 3782              		.loc 1 1259 0
 3783 00a2 224B     		ldr	r3, .L512+4
 3784 00a4 416A     		ldr	r1, [r0, #36]
 3785 00a6 1C68     		ldr	r4, [r3]
 3786              	.LVL350:
 3787 00a8 0346     		mov	r3, r0
 3788 00aa 611A     		subs	r1, r4, r1
 3789 00ac 05E0     		b	.L497
 3790              	.LVL351:
 3791              	.L490:
 3792 00ae 5A6A     		ldr	r2, [r3, #36]
 3793 00b0 A21A     		subs	r2, r4, r2
 3794 00b2 8A42     		cmp	r2, r1
 3795 00b4 24BF     		itt	cs
 3796 00b6 1146     		movcs	r1, r2
 3797              	.LVL352:
 3798 00b8 1846     		movcs	r0, r3
 3799              	.L497:
 3800              	.LVL353:
 3801              		.loc 1 1258 0
 3802 00ba DB68     		ldr	r3, [r3, #12]
 3803              	.LVL354:
 3804 00bc 002B     		cmp	r3, #0
 3805 00be F6D1     		bne	.L490
 3806              	.LVL355:
 3807              	.LBB231:
 3808              	.LBB232:
 3809              		.loc 1 415 0
 3810 00c0 0121     		movs	r1, #1
 3811              	.LVL356:
 3812 00c2 FFF7FEFF 		bl	tcp_abandon
 3813              	.LVL357:
 3814              	.L488:
 3815              	.LBE232:
 3816              	.LBE231:
 3817              	.LBE230:
 3818              	.LBE229:
 3819              		.loc 1 1289 0
 3820 00c6 0220     		movs	r0, #2
 3821 00c8 FFF7FEFF 		bl	memp_malloc
 3822              	.LVL358:
 3823              		.loc 1 1290 0
 3824 00cc 0446     		mov	r4, r0
 3825 00ce 30B1     		cbz	r0, .L511
 3826 00d0 194A     		ldr	r2, .L512+16
 3827 00d2 B2F8CC30 		ldrh	r3, [r2, #204]
 3828              	.L496:
 3829              		.loc 1 1303 0
 3830 00d6 013B     		subs	r3, r3, #1
 3831 00d8 A2F8CC30 		strh	r3, [r2, #204]	@ movhi
 3832 00dc 99E7     		b	.L486
ARM GAS  C:\Users\jo\AppData\Local\Temp\ccpE7U9z.s 			page 69


 3833              	.L511:
 3834              	.LVL359:
 3835              	.LBB233:
 3836              	.LBB234:
 3837              		.loc 1 1229 0
 3838 00de 174B     		ldr	r3, .L512+20
 3839 00e0 1B68     		ldr	r3, [r3]
 3840              	.LVL360:
 3841 00e2 ABB1     		cbz	r3, .L492
 3842              		.loc 1 1232 0
 3843 00e4 114A     		ldr	r2, .L512+4
 3844 00e6 1668     		ldr	r6, [r2]
 3845 00e8 7F25     		movs	r5, #127
 3846              	.LVL361:
 3847              	.L494:
 3848              		.loc 1 1230 0
 3849 00ea 5A7E     		ldrb	r2, [r3, #25]	@ zero_extendqisi2
 3850 00ec 9742     		cmp	r7, r2
 3851 00ee 08D3     		bcc	.L493
 3852 00f0 AA42     		cmp	r2, r5
 3853 00f2 06D8     		bhi	.L493
 3854              		.loc 1 1232 0
 3855 00f4 596A     		ldr	r1, [r3, #36]
 3856 00f6 711A     		subs	r1, r6, r1
 3857              		.loc 1 1231 0
 3858 00f8 A142     		cmp	r1, r4
 3859 00fa 02D3     		bcc	.L493
 3860 00fc 1546     		mov	r5, r2
 3861              	.LVL362:
 3862 00fe 0C46     		mov	r4, r1
 3863              	.LVL363:
 3864 0100 1846     		mov	r0, r3
 3865              	.L493:
 3866              	.LVL364:
 3867              		.loc 1 1229 0
 3868 0102 DB68     		ldr	r3, [r3, #12]
 3869              	.LVL365:
 3870 0104 002B     		cmp	r3, #0
 3871 0106 F0D1     		bne	.L494
 3872              		.loc 1 1238 0
 3873 0108 10B1     		cbz	r0, .L492
 3874              	.LVL366:
 3875              	.LBB235:
 3876              	.LBB236:
 3877              		.loc 1 415 0
 3878 010a 0121     		movs	r1, #1
 3879 010c FFF7FEFF 		bl	tcp_abandon
 3880              	.LVL367:
 3881              	.L492:
 3882              	.LBE236:
 3883              	.LBE235:
 3884              	.LBE234:
 3885              	.LBE233:
 3886              		.loc 1 1295 0
 3887 0110 0220     		movs	r0, #2
 3888 0112 FFF7FEFF 		bl	memp_malloc
 3889              	.LVL368:
ARM GAS  C:\Users\jo\AppData\Local\Temp\ccpE7U9z.s 			page 70


 3890              		.loc 1 1296 0
 3891 0116 0446     		mov	r4, r0
 3892 0118 0028     		cmp	r0, #0
 3893 011a BCD0     		beq	.L501
 3894              		.loc 1 1298 0
 3895 011c 064A     		ldr	r2, .L512+16
 3896 011e B2F8CC30 		ldrh	r3, [r2, #204]
 3897 0122 013B     		subs	r3, r3, #1
 3898 0124 9BB2     		uxth	r3, r3
 3899 0126 D6E7     		b	.L496
 3900              	.L513:
 3901              		.align	2
 3902              	.L512:
 3903 0128 00000000 		.word	.LANCHOR13
 3904 012c 00000000 		.word	.LANCHOR5
 3905 0130 00000000 		.word	.LANCHOR6
 3906 0134 00000000 		.word	.LANCHOR8
 3907 0138 00000000 		.word	lwip_stats
 3908 013c 00000000 		.word	.LANCHOR7
 3909 0140 00000000 		.word	tcp_recv_null
 3910 0144 00DD6D00 		.word	7200000
 3911              		.cfi_endproc
 3912              	.LFE280:
 3913              		.size	tcp_alloc, .-tcp_alloc
 3914 0148 AFF30080 		.section	.text.tcp_new,"ax",%progbits
 3914      AFF30080 
 3915              		.align	2
 3916              		.p2align 4,,15
 3917              		.global	tcp_new
 3918              		.thumb
 3919              		.thumb_func
 3920              		.type	tcp_new, %function
 3921              	tcp_new:
 3922              	.LFB281:
 3923              		.loc 1 1364 0
 3924              		.cfi_startproc
 3925              		@ args = 0, pretend = 0, frame = 0
 3926              		@ frame_needed = 0, uses_anonymous_args = 0
 3927              		@ link register save eliminated.
 3928              		.loc 1 1365 0
 3929 0000 4020     		movs	r0, #64
 3930 0002 FFF7FEBF 		b	tcp_alloc
 3931              	.LVL369:
 3932              		.cfi_endproc
 3933              	.LFE281:
 3934              		.size	tcp_new, .-tcp_new
 3935 0006 00BFAFF3 		.section	.text.tcp_next_iss,"ax",%progbits
 3935      0080AFF3 
 3935      0080
 3936              		.align	2
 3937              		.p2align 4,,15
 3938              		.global	tcp_next_iss
 3939              		.thumb
 3940              		.thumb_func
 3941              		.type	tcp_next_iss, %function
 3942              	tcp_next_iss:
 3943              	.LFB290:
ARM GAS  C:\Users\jo\AppData\Local\Temp\ccpE7U9z.s 			page 71


 3944              		.loc 1 1572 0
 3945              		.cfi_startproc
 3946              		@ args = 0, pretend = 0, frame = 0
 3947              		@ frame_needed = 0, uses_anonymous_args = 0
 3948              		@ link register save eliminated.
 3949              		.loc 1 1575 0
 3950 0000 034A     		ldr	r2, .L516
 3951 0002 044B     		ldr	r3, .L516+4
 3952 0004 1868     		ldr	r0, [r3]
 3953 0006 1368     		ldr	r3, [r2]
 3954 0008 1844     		add	r0, r0, r3
 3955 000a 1060     		str	r0, [r2]
 3956              		.loc 1 1577 0
 3957 000c 7047     		bx	lr
 3958              	.L517:
 3959 000e 00BF     		.align	2
 3960              	.L516:
 3961 0010 00000000 		.word	.LANCHOR13
 3962 0014 00000000 		.word	.LANCHOR5
 3963              		.cfi_endproc
 3964              	.LFE290:
 3965              		.size	tcp_next_iss, .-tcp_next_iss
 3966 0018 AFF30080 		.section	.text.tcp_eff_send_mss,"ax",%progbits
 3966      AFF30080 
 3967              		.align	2
 3968              		.p2align 4,,15
 3969              		.global	tcp_eff_send_mss
 3970              		.thumb
 3971              		.thumb_func
 3972              		.type	tcp_eff_send_mss, %function
 3973              	tcp_eff_send_mss:
 3974              	.LFB291:
 3975              		.loc 1 1587 0
 3976              		.cfi_startproc
 3977              		@ args = 0, pretend = 0, frame = 0
 3978              		@ frame_needed = 0, uses_anonymous_args = 0
 3979              	.LVL370:
 3980 0000 10B5     		push	{r4, lr}
 3981              		.cfi_def_cfa_offset 8
 3982              		.cfi_offset 4, -8
 3983              		.cfi_offset 14, -4
 3984              		.loc 1 1587 0
 3985 0002 0446     		mov	r4, r0
 3986              		.loc 1 1591 0
 3987 0004 0846     		mov	r0, r1
 3988              	.LVL371:
 3989 0006 FFF7FEFF 		bl	ip_route
 3990              	.LVL372:
 3991              		.loc 1 1592 0
 3992 000a 30B1     		cbz	r0, .L519
 3993              		.loc 1 1592 0 is_stmt 0 discriminator 1
 3994 000c 038C     		ldrh	r3, [r0, #32]
 3995 000e 23B1     		cbz	r3, .L519
 3996              	.LVL373:
 3997              		.loc 1 1593 0 is_stmt 1
 3998 0010 283B     		subs	r3, r3, #40
 3999              	.LVL374:
ARM GAS  C:\Users\jo\AppData\Local\Temp\ccpE7U9z.s 			page 72


 4000              		.loc 1 1598 0
 4001 0012 9BB2     		uxth	r3, r3
 4002              	.LVL375:
 4003 0014 9C42     		cmp	r4, r3
 4004 0016 28BF     		it	cs
 4005 0018 1C46     		movcs	r4, r3
 4006              	.LVL376:
 4007              	.L519:
 4008              		.loc 1 1601 0
 4009 001a 2046     		mov	r0, r4
 4010              	.LVL377:
 4011 001c 10BD     		pop	{r4, pc}
 4012              		.cfi_endproc
 4013              	.LFE291:
 4014              		.size	tcp_eff_send_mss, .-tcp_eff_send_mss
 4015 001e 00BF     		.section	.text.tcp_connect,"ax",%progbits
 4016              		.align	2
 4017              		.p2align 4,,15
 4018              		.global	tcp_connect
 4019              		.thumb
 4020              		.thumb_func
 4021              		.type	tcp_connect, %function
 4022              	tcp_connect:
 4023              	.LFB269:
 4024              		.loc 1 686 0
 4025              		.cfi_startproc
 4026              		@ args = 0, pretend = 0, frame = 0
 4027              		@ frame_needed = 0, uses_anonymous_args = 0
 4028              	.LVL378:
 4029 0000 2DE9F041 		push	{r4, r5, r6, r7, r8, lr}
 4030              		.cfi_def_cfa_offset 24
 4031              		.cfi_offset 4, -24
 4032              		.cfi_offset 5, -20
 4033              		.cfi_offset 6, -16
 4034              		.cfi_offset 7, -12
 4035              		.cfi_offset 8, -8
 4036              		.cfi_offset 14, -4
 4037 0004 0D46     		mov	r5, r1
 4038              		.loc 1 691 0
 4039 0006 017E     		ldrb	r1, [r0, #24]	@ zero_extendqisi2
 4040              	.LVL379:
 4041              		.loc 1 686 0
 4042 0008 82B0     		sub	sp, sp, #8
 4043              		.cfi_def_cfa_offset 32
 4044              		.loc 1 686 0
 4045 000a 0446     		mov	r4, r0
 4046              		.loc 1 691 0
 4047 000c 0029     		cmp	r1, #0
 4048 000e 77D1     		bne	.L552
 4049              		.loc 1 694 0
 4050 0010 002D     		cmp	r5, #0
 4051 0012 00F08380 		beq	.L543
 4052 0016 1F46     		mov	r7, r3
 4053              		.loc 1 702 0
 4054 0018 0368     		ldr	r3, [r0]
 4055              	.LVL380:
 4056              		.loc 1 695 0
ARM GAS  C:\Users\jo\AppData\Local\Temp\ccpE7U9z.s 			page 73


 4057 001a 2968     		ldr	r1, [r5]
 4058 001c 4160     		str	r1, [r0, #4]
 4059              		.loc 1 699 0
 4060 001e 8283     		strh	r2, [r0, #28]	@ movhi
 4061              		.loc 1 702 0
 4062 0020 33B9     		cbnz	r3, .L530
 4063              	.LBB237:
 4064              		.loc 1 704 0
 4065 0022 0430     		adds	r0, r0, #4
 4066              	.LVL381:
 4067 0024 FFF7FEFF 		bl	ip_route
 4068              	.LVL382:
 4069              		.loc 1 705 0
 4070 0028 0028     		cmp	r0, #0
 4071 002a 79D0     		beq	.L544
 4072              		.loc 1 711 0
 4073 002c 4368     		ldr	r3, [r0, #4]
 4074 002e 2360     		str	r3, [r4]
 4075              	.LVL383:
 4076              	.L530:
 4077              	.LBE237:
 4078              		.loc 1 714 0
 4079 0030 668B     		ldrh	r6, [r4, #26]
 4080              	.LVL384:
 4081              		.loc 1 715 0
 4082 0032 26B9     		cbnz	r6, .L533
 4083              		.loc 1 716 0
 4084 0034 FFF7FEFF 		bl	tcp_new_port
 4085              	.LVL385:
 4086 0038 6083     		strh	r0, [r4, #26]	@ movhi
 4087              		.loc 1 717 0
 4088 003a 0028     		cmp	r0, #0
 4089 003c 5BD0     		beq	.L553
 4090              	.L533:
 4091              	.LBB238:
 4092              	.LBB239:
 4093              		.loc 1 1575 0
 4094 003e DFF808E1 		ldr	lr, .L557+36
 4095 0042 384B     		ldr	r3, .L557
 4096 0044 1A68     		ldr	r2, [r3]
 4097 0046 DEF80030 		ldr	r3, [lr]
 4098 004a 1344     		add	r3, r3, r2
 4099              	.LBE239:
 4100              	.LBE238:
 4101              		.loc 1 744 0
 4102 004c 03F1FF38 		add	r8, r3, #-1
 4103              		.loc 1 746 0
 4104 0050 41F2D062 		movw	r2, #5840
 4105              		.loc 1 742 0
 4106 0054 4FF0000C 		mov	ip, #0
 4107              		.loc 1 752 0
 4108 0058 4FF40670 		mov	r0, #536
 4109              		.loc 1 754 0
 4110 005c 2946     		mov	r1, r5
 4111              		.loc 1 743 0
 4112 005e 2365     		str	r3, [r4, #80]
 4113              		.loc 1 746 0
ARM GAS  C:\Users\jo\AppData\Local\Temp\ccpE7U9z.s 			page 74


 4114 0060 A285     		strh	r2, [r4, #44]	@ movhi
 4115              		.loc 1 747 0
 4116 0062 E285     		strh	r2, [r4, #46]	@ movhi
 4117              		.loc 1 749 0
 4118 0064 A4F86020 		strh	r2, [r4, #96]	@ movhi
 4119              		.loc 1 744 0
 4120 0068 C4F84880 		str	r8, [r4, #72]
 4121              		.loc 1 745 0
 4122 006c C4F85C80 		str	r8, [r4, #92]
 4123              		.loc 1 742 0
 4124 0070 C4F828C0 		str	ip, [r4, #40]
 4125              		.loc 1 748 0
 4126 0074 C4F830C0 		str	ip, [r4, #48]
 4127              		.loc 1 752 0
 4128 0078 E086     		strh	r0, [r4, #54]	@ movhi
 4129              	.LBB241:
 4130              	.LBB240:
 4131              		.loc 1 1575 0
 4132 007a CEF80030 		str	r3, [lr]
 4133              	.LBE240:
 4134              	.LBE241:
 4135              		.loc 1 754 0
 4136 007e FFF7FEFF 		bl	tcp_eff_send_mss
 4137              	.LVL386:
 4138              		.loc 1 757 0
 4139 0082 00EB8003 		add	r3, r0, r0, lsl #2
 4140 0086 5B00     		lsls	r3, r3, #1
 4141              		.loc 1 756 0
 4142 0088 0122     		movs	r2, #1
 4143              		.loc 1 754 0
 4144 008a E086     		strh	r0, [r4, #54]	@ movhi
 4145              		.loc 1 757 0
 4146 008c A4F84E30 		strh	r3, [r4, #78]	@ movhi
 4147              		.loc 1 759 0
 4148 0090 C4F88470 		str	r7, [r4, #132]
 4149              		.loc 1 756 0
 4150 0094 A4F84C20 		strh	r2, [r4, #76]	@ movhi
 4151              		.loc 1 765 0
 4152 0098 2046     		mov	r0, r4
 4153 009a 0221     		movs	r1, #2
 4154 009c FFF7FEFF 		bl	tcp_enqueue_flags
 4155              	.LVL387:
 4156              		.loc 1 766 0
 4157 00a0 00BB     		cbnz	r0, .L529
 4158              		.loc 1 768 0
 4159 00a2 0223     		movs	r3, #2
 4160 00a4 2376     		strb	r3, [r4, #24]
 4161              		.loc 1 769 0
 4162 00a6 86B1     		cbz	r6, .L534
 4163              		.loc 1 770 0
 4164 00a8 1F4B     		ldr	r3, .L557+4
 4165 00aa 1A68     		ldr	r2, [r3]
 4166 00ac A242     		cmp	r2, r4
 4167 00ae 24D0     		beq	.L554
 4168              		.loc 1 770 0 is_stmt 0 discriminator 2
 4169 00b0 1E49     		ldr	r1, .L557+8
 4170 00b2 0A60     		str	r2, [r1]
ARM GAS  C:\Users\jo\AppData\Local\Temp\ccpE7U9z.s 			page 75


 4171 00b4 4AB1     		cbz	r2, .L534
 4172              		.loc 1 770 0
 4173 00b6 D368     		ldr	r3, [r2, #12]
 4174 00b8 A342     		cmp	r3, r4
 4175 00ba 19D0     		beq	.L538
 4176              	.L540:
 4177              		.loc 1 770 0 discriminator 6
 4178 00bc 23B1     		cbz	r3, .L555
 4179              		.loc 1 770 0 discriminator 9
 4180 00be DA68     		ldr	r2, [r3, #12]
 4181 00c0 A242     		cmp	r2, r4
 4182 00c2 13D0     		beq	.L556
 4183 00c4 1346     		mov	r3, r2
 4184 00c6 F9E7     		b	.L540
 4185              	.L555:
 4186 00c8 0B60     		str	r3, [r1]
 4187              	.L534:
 4188              		.loc 1 772 0 is_stmt 1
 4189 00ca 194B     		ldr	r3, .L557+12
 4190 00cc 1A68     		ldr	r2, [r3]
 4191 00ce E260     		str	r2, [r4, #12]
 4192 00d0 1C60     		str	r4, [r3]
 4193 00d2 FFF7FEFF 		bl	tcp_timer_needed
 4194              	.LVL388:
 4195 00d6 174B     		ldr	r3, .L557+16
 4196 00d8 0122     		movs	r2, #1
 4197              		.loc 1 775 0
 4198 00da 2046     		mov	r0, r4
 4199              		.loc 1 772 0
 4200 00dc 1A70     		strb	r2, [r3]
 4201              		.loc 1 775 0
 4202 00de FFF7FEFF 		bl	tcp_output
 4203              	.LVL389:
 4204 00e2 0020     		movs	r0, #0
 4205              	.LVL390:
 4206              	.L529:
 4207              		.loc 1 778 0
 4208 00e4 40B2     		sxtb	r0, r0
 4209 00e6 02B0     		add	sp, sp, #8
 4210              		.cfi_remember_state
 4211              		.cfi_def_cfa_offset 24
 4212              		@ sp needed
 4213 00e8 BDE8F081 		pop	{r4, r5, r6, r7, r8, pc}
 4214              	.LVL391:
 4215              	.L556:
 4216              		.cfi_restore_state
 4217 00ec 1A46     		mov	r2, r3
 4218 00ee 0B60     		str	r3, [r1]
 4219              	.L538:
 4220              		.loc 1 770 0 discriminator 5
 4221 00f0 E368     		ldr	r3, [r4, #12]
 4222 00f2 D360     		str	r3, [r2, #12]
 4223 00f4 E9E7     		b	.L534
 4224              	.LVL392:
 4225              	.L553:
 4226              		.loc 1 718 0
 4227 00f6 FE20     		movs	r0, #254
ARM GAS  C:\Users\jo\AppData\Local\Temp\ccpE7U9z.s 			page 76


 4228 00f8 F4E7     		b	.L529
 4229              	.LVL393:
 4230              	.L554:
 4231              		.loc 1 770 0 discriminator 1
 4232 00fa E268     		ldr	r2, [r4, #12]
 4233 00fc 1A60     		str	r2, [r3]
 4234 00fe E4E7     		b	.L534
 4235              	.LVL394:
 4236              	.L552:
 4237              		.loc 1 691 0 discriminator 1
 4238 0100 0D4B     		ldr	r3, .L557+20
 4239              	.LVL395:
 4240 0102 0093     		str	r3, [sp]
 4241 0104 0D49     		ldr	r1, .L557+24
 4242 0106 0E4A     		ldr	r2, .L557+28
 4243              	.LVL396:
 4244 0108 0E48     		ldr	r0, .L557+32
 4245              	.LVL397:
 4246 010a 40F2B323 		movw	r3, #691
 4247 010e FFF7FEFF 		bl	chprintf.constprop.4
 4248              	.LVL398:
 4249              	.LBB242:
 4250              	.LBB243:
 4251              		.loc 3 414 0 discriminator 1
 4252 0112 0B48     		ldr	r0, .L557+28
 4253 0114 FFF7FEFF 		bl	chSysHalt
 4254              	.LVL399:
 4255              	.LBE243:
 4256              	.LBE242:
 4257              		.loc 1 691 0 discriminator 1
 4258 0118 F720     		movs	r0, #247
 4259 011a E3E7     		b	.L529
 4260              	.LVL400:
 4261              	.L543:
 4262              		.loc 1 697 0
 4263 011c FA20     		movs	r0, #250
 4264              	.LVL401:
 4265 011e E1E7     		b	.L529
 4266              	.LVL402:
 4267              	.L544:
 4268              	.LBB244:
 4269              		.loc 1 708 0
 4270 0120 FC20     		movs	r0, #252
 4271              	.LVL403:
 4272 0122 DFE7     		b	.L529
 4273              	.L558:
 4274              		.align	2
 4275              	.L557:
 4276 0124 00000000 		.word	.LANCHOR5
 4277 0128 00000000 		.word	.LANCHOR2
 4278 012c 00000000 		.word	.LANCHOR3
 4279 0130 00000000 		.word	.LANCHOR7
 4280 0134 00000000 		.word	.LANCHOR11
 4281 0138 50000000 		.word	.LC2
 4282 013c 00000000 		.word	.LC0
 4283 0140 9C030000 		.word	.LC24
 4284 0144 00000000 		.word	itm_port
ARM GAS  C:\Users\jo\AppData\Local\Temp\ccpE7U9z.s 			page 77


 4285 0148 00000000 		.word	.LANCHOR13
 4286              	.LBE244:
 4287              		.cfi_endproc
 4288              	.LFE269:
 4289              		.size	tcp_connect, .-tcp_connect
 4290 014c AFF30080 		.section	.text.tcp_debug_state_str,"ax",%progbits
 4291              		.align	2
 4292              		.p2align 4,,15
 4293              		.global	tcp_debug_state_str
 4294              		.thumb
 4295              		.thumb_func
 4296              		.type	tcp_debug_state_str, %function
 4297              	tcp_debug_state_str:
 4298              	.LFB292:
 4299              		.loc 1 1606 0
 4300              		.cfi_startproc
 4301              		@ args = 0, pretend = 0, frame = 0
 4302              		@ frame_needed = 0, uses_anonymous_args = 0
 4303              		@ link register save eliminated.
 4304              	.LVL404:
 4305              		.loc 1 1607 0
 4306 0000 014B     		ldr	r3, .L560
 4307              		.loc 1 1608 0
 4308 0002 53F82000 		ldr	r0, [r3, r0, lsl #2]
 4309              	.LVL405:
 4310 0006 7047     		bx	lr
 4311              	.L561:
 4312              		.align	2
 4313              	.L560:
 4314 0008 00000000 		.word	.LANCHOR14
 4315              		.cfi_endproc
 4316              	.LFE292:
 4317              		.size	tcp_debug_state_str, .-tcp_debug_state_str
 4318              		.global	tcp_active_pcbs_changed
 4319              		.global	tcp_tmp_pcb
 4320              		.global	tcp_pcb_lists
 4321              		.global	tcp_tw_pcbs
 4322              		.global	tcp_active_pcbs
 4323              		.global	tcp_listen_pcbs
 4324              		.global	tcp_bound_pcbs
 4325              		.global	tcp_persist_backoff
 4326              		.global	tcp_backoff
 4327              		.global	tcp_ticks
 4328              		.global	tcp_state_str
 4329 000c AFF30080 		.section	.bss.tcp_active_pcbs_changed,"aw",%nobits
 4330              		.set	.LANCHOR11,. + 0
 4331              		.type	tcp_active_pcbs_changed, %object
 4332              		.size	tcp_active_pcbs_changed, 1
 4333              	tcp_active_pcbs_changed:
 4334 0000 00       		.space	1
 4335              		.section	.bss.tcp_tw_pcbs,"aw",%nobits
 4336              		.align	2
 4337              		.set	.LANCHOR8,. + 0
 4338              		.type	tcp_tw_pcbs, %object
 4339              		.size	tcp_tw_pcbs, 4
 4340              	tcp_tw_pcbs:
 4341 0000 00000000 		.space	4
ARM GAS  C:\Users\jo\AppData\Local\Temp\ccpE7U9z.s 			page 78


 4342              		.section	.rodata.tcp_state_str,"a",%progbits
 4343              		.align	2
 4344              		.set	.LANCHOR14,. + 0
 4345              		.type	tcp_state_str, %object
 4346              		.size	tcp_state_str, 44
 4347              	tcp_state_str:
 4348 0000 CC030000 		.word	.LC25
 4349 0004 D4030000 		.word	.LC26
 4350 0008 DC030000 		.word	.LC27
 4351 000c E8030000 		.word	.LC28
 4352 0010 F4030000 		.word	.LC29
 4353 0014 00040000 		.word	.LC30
 4354 0018 0C040000 		.word	.LC31
 4355 001c 18040000 		.word	.LC32
 4356 0020 24040000 		.word	.LC33
 4357 0024 2C040000 		.word	.LC34
 4358 0028 38040000 		.word	.LC35
 4359              		.section	.rodata.tcp_pcb_lists,"a",%progbits
 4360              		.align	2
 4361              		.set	.LANCHOR1,. + 0
 4362              		.type	tcp_pcb_lists, %object
 4363              		.size	tcp_pcb_lists, 16
 4364              	tcp_pcb_lists:
 4365 0000 00000000 		.word	tcp_listen_pcbs
 4366 0004 00000000 		.word	tcp_bound_pcbs
 4367 0008 00000000 		.word	tcp_active_pcbs
 4368 000c 00000000 		.word	tcp_tw_pcbs
 4369              		.section	.bss.tcp_ticks,"aw",%nobits
 4370              		.align	2
 4371              		.set	.LANCHOR5,. + 0
 4372              		.type	tcp_ticks, %object
 4373              		.size	tcp_ticks, 4
 4374              	tcp_ticks:
 4375 0000 00000000 		.space	4
 4376              		.section	.bss.tcp_timer,"aw",%nobits
 4377              		.set	.LANCHOR12,. + 0
 4378              		.type	tcp_timer, %object
 4379              		.size	tcp_timer, 1
 4380              	tcp_timer:
 4381 0000 00       		.space	1
 4382              		.section	.rodata.tcp_backoff,"a",%progbits
 4383              		.align	2
 4384              		.set	.LANCHOR10,. + 0
 4385              		.type	tcp_backoff, %object
 4386              		.size	tcp_backoff, 13
 4387              	tcp_backoff:
 4388 0000 01       		.byte	1
 4389 0001 02       		.byte	2
 4390 0002 03       		.byte	3
 4391 0003 04       		.byte	4
 4392 0004 05       		.byte	5
 4393 0005 06       		.byte	6
 4394 0006 07       		.byte	7
 4395 0007 07       		.byte	7
 4396 0008 07       		.byte	7
 4397 0009 07       		.byte	7
 4398 000a 07       		.byte	7
ARM GAS  C:\Users\jo\AppData\Local\Temp\ccpE7U9z.s 			page 79


 4399 000b 07       		.byte	7
 4400 000c 07       		.byte	7
 4401 000d 000000   		.section	.bss.tcp_listen_pcbs,"aw",%nobits
 4402              		.align	2
 4403              		.set	.LANCHOR4,. + 0
 4404              		.type	tcp_listen_pcbs, %object
 4405              		.size	tcp_listen_pcbs, 4
 4406              	tcp_listen_pcbs:
 4407 0000 00000000 		.space	4
 4408              		.section	.data.tcp_port,"aw",%progbits
 4409              		.align	1
 4410              		.set	.LANCHOR0,. + 0
 4411              		.type	tcp_port, %object
 4412              		.size	tcp_port, 2
 4413              	tcp_port:
 4414 0000 00C0     		.short	-16384
 4415              		.section	.bss.tcp_active_pcbs,"aw",%nobits
 4416              		.align	2
 4417              		.set	.LANCHOR7,. + 0
 4418              		.type	tcp_active_pcbs, %object
 4419              		.size	tcp_active_pcbs, 4
 4420              	tcp_active_pcbs:
 4421 0000 00000000 		.space	4
 4422              		.section	.bss.tcp_timer_ctr,"aw",%nobits
 4423              		.set	.LANCHOR6,. + 0
 4424              		.type	tcp_timer_ctr, %object
 4425              		.size	tcp_timer_ctr, 1
 4426              	tcp_timer_ctr:
 4427 0000 00       		.space	1
 4428              		.section	.rodata.str1.4,"aMS",%progbits,1
 4429              		.align	2
 4430              	.LC0:
 4431 0000 41737365 		.ascii	"Assertion \"%s\" failed at line %d in %s\012\000"
 4431      7274696F 
 4431      6E202225 
 4431      73222066 
 4431      61696C65 
 4432              	.LC1:
 4433 0028 7463705F 		.ascii	"tcp_bind: can only bind in state CLOSED\000"
 4433      62696E64 
 4433      3A206361 
 4433      6E206F6E 
 4433      6C792062 
 4434              	.LC2:
 4435 0050 2E2E2F2E 		.ascii	"../../../os/ext/lwip-1.4.1/src/core/tcp.c\000"
 4435      2E2F2E2E 
 4435      2F6F732F 
 4435      6578742F 
 4435      6C776970 
 4436 007a 0000     		.space	2
 4437              	.LC3:
 4438 007c 7463705F 		.ascii	"tcp_listen: pcb already connected\000"
 4438      6C697374 
 4438      656E3A20 
 4438      70636220 
 4438      616C7265 
 4439 009e 0000     		.space	2
ARM GAS  C:\Users\jo\AppData\Local\Temp\ccpE7U9z.s 			page 80


 4440              	.LC4:
 4441 00a0 6E65775F 		.ascii	"new_rcv_ann_wnd <= 0xffff\000"
 4441      7263765F 
 4441      616E6E5F 
 4441      776E6420 
 4441      3C3D2030 
 4442 00ba 0000     		.space	2
 4443              	.LC5:
 4444 00bc 646F6E27 		.ascii	"don't call tcp_recved for listen-pcbs\000"
 4444      74206361 
 4444      6C6C2074 
 4444      63705F72 
 4444      65637665 
 4445 00e2 0000     		.space	2
 4446              	.LC6:
 4447 00e4 7463705F 		.ascii	"tcp_recved: len would wrap rcv_wnd\012\000"
 4447      72656376 
 4447      65643A20 
 4447      6C656E20 
 4447      776F756C 
 4448              	.LC7:
 4449 0108 696E7661 		.ascii	"invalid socket state for recv callback\000"
 4449      6C696420 
 4449      736F636B 
 4449      65742073 
 4449      74617465 
 4450 012f 00       		.space	1
 4451              	.LC8:
 4452 0130 696E7661 		.ascii	"invalid socket state for sent callback\000"
 4452      6C696420 
 4452      736F636B 
 4452      65742073 
 4452      74617465 
 4453 0157 00       		.space	1
 4454              	.LC9:
 4455 0158 696E7661 		.ascii	"invalid socket state for err callback\000"
 4455      6C696420 
 4455      736F636B 
 4455      65742073 
 4455      74617465 
 4456 017e 0000     		.space	2
 4457              	.LC10:
 4458 0180 696E7661 		.ascii	"invalid socket state for poll\000"
 4458      6C696420 
 4458      736F636B 
 4458      65742073 
 4458      74617465 
 4459 019e 0000     		.space	2
 4460              	.LC11:
 4461 01a0 7463705F 		.ascii	"tcp_slowtmr: active pcb->state != CLOSED\012\000"
 4461      736C6F77 
 4461      746D723A 
 4461      20616374 
 4461      69766520 
 4462 01ca 0000     		.space	2
 4463              	.LC12:
 4464 01cc 7463705F 		.ascii	"tcp_slowtmr: active pcb->state != LISTEN\012\000"
ARM GAS  C:\Users\jo\AppData\Local\Temp\ccpE7U9z.s 			page 81


 4464      736C6F77 
 4464      746D723A 
 4464      20616374 
 4464      69766520 
 4465 01f6 0000     		.space	2
 4466              	.LC13:
 4467 01f8 7463705F 		.ascii	"tcp_slowtmr: active pcb->state != TIME-WAIT\012\000"
 4467      736C6F77 
 4467      746D723A 
 4467      20616374 
 4467      69766520 
 4468 0225 000000   		.space	3
 4469              	.LC14:
 4470 0228 7463705F 		.ascii	"tcp_slowtmr: middle tcp != tcp_active_pcbs\000"
 4470      736C6F77 
 4470      746D723A 
 4470      206D6964 
 4470      646C6520 
 4471 0253 00       		.space	1
 4472              	.LC15:
 4473 0254 7463705F 		.ascii	"tcp_slowtmr: first pcb == tcp_active_pcbs\000"
 4473      736C6F77 
 4473      746D723A 
 4473      20666972 
 4473      73742070 
 4474 027e 0000     		.space	2
 4475              	.LC16:
 4476 0280 7463705F 		.ascii	"tcp_slowtmr: TIME-WAIT pcb->state == TIME-WAIT\000"
 4476      736C6F77 
 4476      746D723A 
 4476      2054494D 
 4476      452D5741 
 4477 02af 00       		.space	1
 4478              	.LC17:
 4479 02b0 7463705F 		.ascii	"tcp_slowtmr: middle tcp != tcp_tw_pcbs\000"
 4479      736C6F77 
 4479      746D723A 
 4479      206D6964 
 4479      646C6520 
 4480 02d7 00       		.space	1
 4481              	.LC18:
 4482 02d8 7463705F 		.ascii	"tcp_slowtmr: first pcb == tcp_tw_pcbs\000"
 4482      736C6F77 
 4482      746D723A 
 4482      20666972 
 4482      73742070 
 4483 02fe 0000     		.space	2
 4484              	.LC19:
 4485 0300 756E7365 		.ascii	"unsent segments leaking\000"
 4485      6E742073 
 4485      65676D65 
 4485      6E747320 
 4485      6C65616B 
 4486              	.LC20:
 4487 0318 756E6163 		.ascii	"unacked segments leaking\000"
 4487      6B656420 
 4487      7365676D 
ARM GAS  C:\Users\jo\AppData\Local\Temp\ccpE7U9z.s 			page 82


 4487      656E7473 
 4487      206C6561 
 4488 0331 000000   		.space	3
 4489              	.LC21:
 4490 0334 6F6F7365 		.ascii	"ooseq segments leaking\000"
 4490      71207365 
 4490      676D656E 
 4490      7473206C 
 4490      65616B69 
 4491 034b 00       		.space	1
 4492              	.LC22:
 4493 034c 7063622D 		.ascii	"pcb->flags & TF_RXCLOSED\000"
 4493      3E666C61 
 4493      67732026 
 4493      2054465F 
 4493      5258434C 
 4494 0365 000000   		.space	3
 4495              	.LC23:
 4496 0368 646F6E27 		.ascii	"don't call tcp_abort/tcp_abandon for listen-pcbs\000"
 4496      74206361 
 4496      6C6C2074 
 4496      63705F61 
 4496      626F7274 
 4497 0399 000000   		.space	3
 4498              	.LC24:
 4499 039c 7463705F 		.ascii	"tcp_connect: can only connect from state CLOSED\000"
 4499      636F6E6E 
 4499      6563743A 
 4499      2063616E 
 4499      206F6E6C 
 4500              	.LC25:
 4501 03cc 434C4F53 		.ascii	"CLOSED\000"
 4501      454400
 4502 03d3 00       		.space	1
 4503              	.LC26:
 4504 03d4 4C495354 		.ascii	"LISTEN\000"
 4504      454E00
 4505 03db 00       		.space	1
 4506              	.LC27:
 4507 03dc 53594E5F 		.ascii	"SYN_SENT\000"
 4507      53454E54 
 4507      00
 4508 03e5 000000   		.space	3
 4509              	.LC28:
 4510 03e8 53594E5F 		.ascii	"SYN_RCVD\000"
 4510      52435644 
 4510      00
 4511 03f1 000000   		.space	3
 4512              	.LC29:
 4513 03f4 45535441 		.ascii	"ESTABLISHED\000"
 4513      424C4953 
 4513      48454400 
 4514              	.LC30:
 4515 0400 46494E5F 		.ascii	"FIN_WAIT_1\000"
 4515      57414954 
 4515      5F3100
 4516 040b 00       		.space	1
ARM GAS  C:\Users\jo\AppData\Local\Temp\ccpE7U9z.s 			page 83


 4517              	.LC31:
 4518 040c 46494E5F 		.ascii	"FIN_WAIT_2\000"
 4518      57414954 
 4518      5F3200
 4519 0417 00       		.space	1
 4520              	.LC32:
 4521 0418 434C4F53 		.ascii	"CLOSE_WAIT\000"
 4521      455F5741 
 4521      495400
 4522 0423 00       		.space	1
 4523              	.LC33:
 4524 0424 434C4F53 		.ascii	"CLOSING\000"
 4524      494E4700 
 4525              	.LC34:
 4526 042c 4C415354 		.ascii	"LAST_ACK\000"
 4526      5F41434B 
 4526      00
 4527 0435 000000   		.space	3
 4528              	.LC35:
 4529 0438 54494D45 		.ascii	"TIME_WAIT\000"
 4529      5F574149 
 4529      5400
 4530 0442 0000     		.section	.bss.tcp_tmp_pcb,"aw",%nobits
 4531              		.align	2
 4532              		.set	.LANCHOR3,. + 0
 4533              		.type	tcp_tmp_pcb, %object
 4534              		.size	tcp_tmp_pcb, 4
 4535              	tcp_tmp_pcb:
 4536 0000 00000000 		.space	4
 4537              		.section	.data.iss.9250,"aw",%progbits
 4538              		.align	2
 4539              		.set	.LANCHOR13,. + 0
 4540              		.type	iss.9250, %object
 4541              		.size	iss.9250, 4
 4542              	iss.9250:
 4543 0000 6E190000 		.word	6510
 4544              		.section	.rodata.tcp_persist_backoff,"a",%progbits
 4545              		.align	2
 4546              		.set	.LANCHOR9,. + 0
 4547              		.type	tcp_persist_backoff, %object
 4548              		.size	tcp_persist_backoff, 7
 4549              	tcp_persist_backoff:
 4550 0000 03       		.byte	3
 4551 0001 06       		.byte	6
 4552 0002 0C       		.byte	12
 4553 0003 18       		.byte	24
 4554 0004 30       		.byte	48
 4555 0005 60       		.byte	96
 4556 0006 78       		.byte	120
 4557 0007 00       		.section	.bss.tcp_bound_pcbs,"aw",%nobits
 4558              		.align	2
 4559              		.set	.LANCHOR2,. + 0
 4560              		.type	tcp_bound_pcbs, %object
 4561              		.size	tcp_bound_pcbs, 4
 4562              	tcp_bound_pcbs:
 4563 0000 00000000 		.space	4
 4564              		.text
ARM GAS  C:\Users\jo\AppData\Local\Temp\ccpE7U9z.s 			page 84


 4565              	.Letext0:
 4566              		.file 4 "c:\\program files\\gnu tools arm embedded\\4.9 2014q4\\lib\\gcc\\arm-none-eabi\\4.9.3\\in
 4567              		.file 5 "c:\\program files\\gnu tools arm embedded\\4.9 2014q4\\arm-none-eabi\\include\\machine\\_
 4568              		.file 6 "c:\\program files\\gnu tools arm embedded\\4.9 2014q4\\arm-none-eabi\\include\\stdint.h"
 4569              		.file 7 "../../../os/rt/ports/ARMCMx/compilers/GCC/chtypes.h"
 4570              		.file 8 "../../../os/rt/include/chsystypes.h"
 4571              		.file 9 "../../../os/rt/include/chschd.h"
 4572              		.file 10 "../../../os/rt/ports/ARMCMx/chcore.h"
 4573              		.file 11 "../../../os/rt/ports/ARMCMx/chcore_v7m.h"
 4574              		.file 12 "c:\\program files\\gnu tools arm embedded\\4.9 2014q4\\lib\\gcc\\arm-none-eabi\\4.9.3\\i
 4575              		.file 13 "<built-in>"
 4576              		.file 14 "../../../os/rt/include/chtm.h"
 4577              		.file 15 "../../../os/rt/include/chmtx.h"
 4578              		.file 16 "../../../os/rt/include/chstreams.h"
 4579              		.file 17 "./ITM_trace.h"
 4580              		.file 18 "../../../os/various/lwip_bindings/arch/cc.h"
 4581              		.file 19 "../../../os/ext/lwip-1.4.1/src/include/lwip/mem.h"
 4582              		.file 20 "../../../os/ext/lwip-1.4.1/src/include/lwip/memp.h"
 4583              		.file 21 "../../../os/ext/lwip-1.4.1/src/include/ipv4/lwip/ip_addr.h"
 4584              		.file 22 "../../../os/ext/lwip-1.4.1/src/include/lwip/err.h"
 4585              		.file 23 "../../../os/ext/lwip-1.4.1/src/include/lwip/pbuf.h"
 4586              		.file 24 "../../../os/ext/lwip-1.4.1/src/include/lwip/netif.h"
 4587              		.file 25 "../../../os/ext/lwip-1.4.1/src/include/lwip/tcp.h"
 4588              		.file 26 "../../../os/ext/lwip-1.4.1/src/include/lwip/tcp_impl.h"
 4589              		.file 27 "../../../os/ext/lwip-1.4.1/src/include/lwip/stats.h"
 4590              		.file 28 "../../../os/ext/CMSIS/include/core_cm4.h"
 4591              		.file 29 "../../../os/rt/include/chsys.h"
 4592              		.file 30 "../../../os/ext/lwip-1.4.1/src/include/ipv4/lwip/ip.h"
 4593              		.section	.debug_info,"",%progbits
 4594              	.Ldebug_info0:
 4595 0000 A7310000 		.4byte	0x31a7
 4596 0004 0400     		.2byte	0x4
 4597 0006 00000000 		.4byte	.Ldebug_abbrev0
 4598 000a 04       		.byte	0x4
 4599 000b 01       		.uleb128 0x1
 4600 000c 140E0000 		.4byte	.LASF360
 4601 0010 01       		.byte	0x1
 4602 0011 36000000 		.4byte	.LASF361
 4603 0015 39020000 		.4byte	.LASF362
 4604 0019 20010000 		.4byte	.Ldebug_ranges0+0x120
 4605 001d 00000000 		.4byte	0
 4606 0021 00000000 		.4byte	.Ldebug_line0
 4607 0025 02       		.uleb128 0x2
 4608 0026 04       		.byte	0x4
 4609 0027 05       		.byte	0x5
 4610 0028 696E7400 		.ascii	"int\000"
 4611 002c 03       		.uleb128 0x3
 4612 002d DC090000 		.4byte	.LASF1
 4613 0031 04       		.byte	0x4
 4614 0032 D4       		.byte	0xd4
 4615 0033 37000000 		.4byte	0x37
 4616 0037 04       		.uleb128 0x4
 4617 0038 04       		.byte	0x4
 4618 0039 07       		.byte	0x7
 4619 003a 2D010000 		.4byte	.LASF0
 4620 003e 03       		.uleb128 0x3
 4621 003f 650F0000 		.4byte	.LASF2
ARM GAS  C:\Users\jo\AppData\Local\Temp\ccpE7U9z.s 			page 85


 4622 0043 05       		.byte	0x5
 4623 0044 1B       		.byte	0x1b
 4624 0045 49000000 		.4byte	0x49
 4625 0049 04       		.uleb128 0x4
 4626 004a 01       		.byte	0x1
 4627 004b 06       		.byte	0x6
 4628 004c 2D0F0000 		.4byte	.LASF3
 4629 0050 03       		.uleb128 0x3
 4630 0051 660B0000 		.4byte	.LASF4
 4631 0055 05       		.byte	0x5
 4632 0056 1D       		.byte	0x1d
 4633 0057 5B000000 		.4byte	0x5b
 4634 005b 04       		.uleb128 0x4
 4635 005c 01       		.byte	0x1
 4636 005d 08       		.byte	0x8
 4637 005e B90C0000 		.4byte	.LASF5
 4638 0062 03       		.uleb128 0x3
 4639 0063 0F080000 		.4byte	.LASF6
 4640 0067 05       		.byte	0x5
 4641 0068 29       		.byte	0x29
 4642 0069 6D000000 		.4byte	0x6d
 4643 006d 04       		.uleb128 0x4
 4644 006e 02       		.byte	0x2
 4645 006f 05       		.byte	0x5
 4646 0070 690A0000 		.4byte	.LASF7
 4647 0074 03       		.uleb128 0x3
 4648 0075 59040000 		.4byte	.LASF8
 4649 0079 05       		.byte	0x5
 4650 007a 2B       		.byte	0x2b
 4651 007b 7F000000 		.4byte	0x7f
 4652 007f 04       		.uleb128 0x4
 4653 0080 02       		.byte	0x2
 4654 0081 07       		.byte	0x7
 4655 0082 410F0000 		.4byte	.LASF9
 4656 0086 03       		.uleb128 0x3
 4657 0087 BC010000 		.4byte	.LASF10
 4658 008b 05       		.byte	0x5
 4659 008c 3F       		.byte	0x3f
 4660 008d 91000000 		.4byte	0x91
 4661 0091 04       		.uleb128 0x4
 4662 0092 04       		.byte	0x4
 4663 0093 05       		.byte	0x5
 4664 0094 950A0000 		.4byte	.LASF11
 4665 0098 03       		.uleb128 0x3
 4666 0099 A3060000 		.4byte	.LASF12
 4667 009d 05       		.byte	0x5
 4668 009e 41       		.byte	0x41
 4669 009f A3000000 		.4byte	0xa3
 4670 00a3 04       		.uleb128 0x4
 4671 00a4 04       		.byte	0x4
 4672 00a5 07       		.byte	0x7
 4673 00a6 150C0000 		.4byte	.LASF13
 4674 00aa 04       		.uleb128 0x4
 4675 00ab 08       		.byte	0x8
 4676 00ac 05       		.byte	0x5
 4677 00ad 8D060000 		.4byte	.LASF14
 4678 00b1 03       		.uleb128 0x3
ARM GAS  C:\Users\jo\AppData\Local\Temp\ccpE7U9z.s 			page 86


 4679 00b2 8D050000 		.4byte	.LASF15
 4680 00b6 05       		.byte	0x5
 4681 00b7 5B       		.byte	0x5b
 4682 00b8 BC000000 		.4byte	0xbc
 4683 00bc 04       		.uleb128 0x4
 4684 00bd 08       		.byte	0x8
 4685 00be 07       		.byte	0x7
 4686 00bf 1B040000 		.4byte	.LASF16
 4687 00c3 03       		.uleb128 0x3
 4688 00c4 DC050000 		.4byte	.LASF17
 4689 00c8 06       		.byte	0x6
 4690 00c9 14       		.byte	0x14
 4691 00ca 3E000000 		.4byte	0x3e
 4692 00ce 03       		.uleb128 0x3
 4693 00cf B3060000 		.4byte	.LASF18
 4694 00d3 06       		.byte	0x6
 4695 00d4 15       		.byte	0x15
 4696 00d5 50000000 		.4byte	0x50
 4697 00d9 03       		.uleb128 0x3
 4698 00da FD030000 		.4byte	.LASF19
 4699 00de 06       		.byte	0x6
 4700 00df 20       		.byte	0x20
 4701 00e0 62000000 		.4byte	0x62
 4702 00e4 03       		.uleb128 0x3
 4703 00e5 B5090000 		.4byte	.LASF20
 4704 00e9 06       		.byte	0x6
 4705 00ea 21       		.byte	0x21
 4706 00eb 74000000 		.4byte	0x74
 4707 00ef 03       		.uleb128 0x3
 4708 00f0 520C0000 		.4byte	.LASF21
 4709 00f4 06       		.byte	0x6
 4710 00f5 2C       		.byte	0x2c
 4711 00f6 86000000 		.4byte	0x86
 4712 00fa 03       		.uleb128 0x3
 4713 00fb 43030000 		.4byte	.LASF22
 4714 00ff 06       		.byte	0x6
 4715 0100 2D       		.byte	0x2d
 4716 0101 98000000 		.4byte	0x98
 4717 0105 03       		.uleb128 0x3
 4718 0106 9B0D0000 		.4byte	.LASF23
 4719 010a 06       		.byte	0x6
 4720 010b 39       		.byte	0x39
 4721 010c B1000000 		.4byte	0xb1
 4722 0110 05       		.uleb128 0x5
 4723 0111 EF000000 		.4byte	0xef
 4724 0115 03       		.uleb128 0x3
 4725 0116 F8090000 		.4byte	.LASF24
 4726 011a 07       		.byte	0x7
 4727 011b 45       		.byte	0x45
 4728 011c FA000000 		.4byte	0xfa
 4729 0120 03       		.uleb128 0x3
 4730 0121 5E090000 		.4byte	.LASF25
 4731 0125 07       		.byte	0x7
 4732 0126 48       		.byte	0x48
 4733 0127 CE000000 		.4byte	0xce
 4734 012b 03       		.uleb128 0x3
 4735 012c 8A0C0000 		.4byte	.LASF26
ARM GAS  C:\Users\jo\AppData\Local\Temp\ccpE7U9z.s 			page 87


 4736 0130 07       		.byte	0x7
 4737 0131 49       		.byte	0x49
 4738 0132 CE000000 		.4byte	0xce
 4739 0136 03       		.uleb128 0x3
 4740 0137 0D0C0000 		.4byte	.LASF27
 4741 013b 07       		.byte	0x7
 4742 013c 4A       		.byte	0x4a
 4743 013d CE000000 		.4byte	0xce
 4744 0141 03       		.uleb128 0x3
 4745 0142 E4030000 		.4byte	.LASF28
 4746 0146 07       		.byte	0x7
 4747 0147 4C       		.byte	0x4c
 4748 0148 FA000000 		.4byte	0xfa
 4749 014c 03       		.uleb128 0x3
 4750 014d CD070000 		.4byte	.LASF29
 4751 0151 07       		.byte	0x7
 4752 0152 4D       		.byte	0x4d
 4753 0153 EF000000 		.4byte	0xef
 4754 0157 03       		.uleb128 0x3
 4755 0158 82030000 		.4byte	.LASF30
 4756 015c 07       		.byte	0x7
 4757 015d 4F       		.byte	0x4f
 4758 015e FA000000 		.4byte	0xfa
 4759 0162 03       		.uleb128 0x3
 4760 0163 F3000000 		.4byte	.LASF31
 4761 0167 08       		.byte	0x8
 4762 0168 33       		.byte	0x33
 4763 0169 FA000000 		.4byte	0xfa
 4764 016d 03       		.uleb128 0x3
 4765 016e E8040000 		.4byte	.LASF32
 4766 0172 08       		.byte	0x8
 4767 0173 3F       		.byte	0x3f
 4768 0174 78010000 		.4byte	0x178
 4769 0178 06       		.uleb128 0x6
 4770 0179 FD060000 		.4byte	.LASF51
 4771 017d 44       		.byte	0x44
 4772 017e 09       		.byte	0x9
 4773 017f BE       		.byte	0xbe
 4774 0180 65020000 		.4byte	0x265
 4775 0184 07       		.uleb128 0x7
 4776 0185 F1040000 		.4byte	.LASF33
 4777 0189 09       		.byte	0x9
 4778 018a BF       		.byte	0xbf
 4779 018b 43060000 		.4byte	0x643
 4780 018f 00       		.byte	0
 4781 0190 07       		.uleb128 0x7
 4782 0191 FD0B0000 		.4byte	.LASF34
 4783 0195 09       		.byte	0x9
 4784 0196 C1       		.byte	0xc1
 4785 0197 43060000 		.4byte	0x643
 4786 019b 04       		.byte	0x4
 4787 019c 07       		.uleb128 0x7
 4788 019d A8000000 		.4byte	.LASF35
 4789 01a1 09       		.byte	0x9
 4790 01a2 C3       		.byte	0xc3
 4791 01a3 41010000 		.4byte	0x141
 4792 01a7 08       		.byte	0x8
ARM GAS  C:\Users\jo\AppData\Local\Temp\ccpE7U9z.s 			page 88


 4793 01a8 07       		.uleb128 0x7
 4794 01a9 2E0B0000 		.4byte	.LASF36
 4795 01ad 09       		.byte	0x9
 4796 01ae C4       		.byte	0xc4
 4797 01af 8F040000 		.4byte	0x48f
 4798 01b3 0C       		.byte	0xc
 4799 01b4 07       		.uleb128 0x7
 4800 01b5 8A040000 		.4byte	.LASF37
 4801 01b9 09       		.byte	0x9
 4802 01ba C6       		.byte	0xc6
 4803 01bb 43060000 		.4byte	0x643
 4804 01bf 10       		.byte	0x10
 4805 01c0 07       		.uleb128 0x7
 4806 01c1 9B060000 		.4byte	.LASF38
 4807 01c5 09       		.byte	0x9
 4808 01c6 C7       		.byte	0xc7
 4809 01c7 43060000 		.4byte	0x643
 4810 01cb 14       		.byte	0x14
 4811 01cc 07       		.uleb128 0x7
 4812 01cd E3050000 		.4byte	.LASF39
 4813 01d1 09       		.byte	0x9
 4814 01d2 CE       		.byte	0xce
 4815 01d3 18060000 		.4byte	0x618
 4816 01d7 18       		.byte	0x18
 4817 01d8 07       		.uleb128 0x7
 4818 01d9 F5060000 		.4byte	.LASF40
 4819 01dd 09       		.byte	0x9
 4820 01de D9       		.byte	0xd9
 4821 01df 2B010000 		.4byte	0x12b
 4822 01e3 1C       		.byte	0x1c
 4823 01e4 07       		.uleb128 0x7
 4824 01e5 07080000 		.4byte	.LASF41
 4825 01e9 09       		.byte	0x9
 4826 01ea DD       		.byte	0xdd
 4827 01eb 20010000 		.4byte	0x120
 4828 01ef 1D       		.byte	0x1d
 4829 01f0 07       		.uleb128 0x7
 4830 01f1 660D0000 		.4byte	.LASF42
 4831 01f5 09       		.byte	0x9
 4832 01f6 E2       		.byte	0xe2
 4833 01f7 36010000 		.4byte	0x136
 4834 01fb 1E       		.byte	0x1e
 4835 01fc 08       		.uleb128 0x8
 4836 01fd 705F7500 		.ascii	"p_u\000"
 4837 0201 09       		.byte	0x9
 4838 0202 1401     		.2byte	0x114
 4839 0204 49060000 		.4byte	0x649
 4840 0208 20       		.byte	0x20
 4841 0209 09       		.uleb128 0x9
 4842 020a B2010000 		.4byte	.LASF43
 4843 020e 09       		.byte	0x9
 4844 020f 1901     		.2byte	0x119
 4845 0211 65020000 		.4byte	0x265
 4846 0215 24       		.byte	0x24
 4847 0216 09       		.uleb128 0x9
 4848 0217 270C0000 		.4byte	.LASF44
 4849 021b 09       		.byte	0x9
ARM GAS  C:\Users\jo\AppData\Local\Temp\ccpE7U9z.s 			page 89


 4850 021c 1F01     		.2byte	0x11f
 4851 021e 89020000 		.4byte	0x289
 4852 0222 28       		.byte	0x28
 4853 0223 09       		.uleb128 0x9
 4854 0224 3A090000 		.4byte	.LASF45
 4855 0228 09       		.byte	0x9
 4856 0229 2301     		.2byte	0x123
 4857 022b 4C010000 		.4byte	0x14c
 4858 022f 30       		.byte	0x30
 4859 0230 09       		.uleb128 0x9
 4860 0231 820A0000 		.4byte	.LASF46
 4861 0235 09       		.byte	0x9
 4862 0236 2901     		.2byte	0x129
 4863 0238 57010000 		.4byte	0x157
 4864 023c 34       		.byte	0x34
 4865 023d 09       		.uleb128 0x9
 4866 023e E0060000 		.4byte	.LASF47
 4867 0242 09       		.byte	0x9
 4868 0243 3001     		.2byte	0x130
 4869 0245 B2060000 		.4byte	0x6b2
 4870 0249 38       		.byte	0x38
 4871 024a 09       		.uleb128 0x9
 4872 024b 480A0000 		.4byte	.LASF48
 4873 024f 09       		.byte	0x9
 4874 0250 3401     		.2byte	0x134
 4875 0252 41010000 		.4byte	0x141
 4876 0256 3C       		.byte	0x3c
 4877 0257 09       		.uleb128 0x9
 4878 0258 C60D0000 		.4byte	.LASF49
 4879 025c 09       		.byte	0x9
 4880 025d 3A01     		.2byte	0x13a
 4881 025f 3C030000 		.4byte	0x33c
 4882 0263 40       		.byte	0x40
 4883 0264 00       		.byte	0
 4884 0265 03       		.uleb128 0x3
 4885 0266 89010000 		.4byte	.LASF50
 4886 026a 08       		.byte	0x8
 4887 026b 44       		.byte	0x44
 4888 026c 70020000 		.4byte	0x270
 4889 0270 06       		.uleb128 0x6
 4890 0271 6C0C0000 		.4byte	.LASF52
 4891 0275 04       		.byte	0x4
 4892 0276 09       		.byte	0x9
 4893 0277 AC       		.byte	0xac
 4894 0278 89020000 		.4byte	0x289
 4895 027c 07       		.uleb128 0x7
 4896 027d F1040000 		.4byte	.LASF33
 4897 0281 09       		.byte	0x9
 4898 0282 AD       		.byte	0xad
 4899 0283 43060000 		.4byte	0x643
 4900 0287 00       		.byte	0
 4901 0288 00       		.byte	0
 4902 0289 03       		.uleb128 0x3
 4903 028a 00000000 		.4byte	.LASF53
 4904 028e 08       		.byte	0x8
 4905 028f 4B       		.byte	0x4b
 4906 0290 94020000 		.4byte	0x294
ARM GAS  C:\Users\jo\AppData\Local\Temp\ccpE7U9z.s 			page 90


 4907 0294 06       		.uleb128 0x6
 4908 0295 75070000 		.4byte	.LASF54
 4909 0299 08       		.byte	0x8
 4910 029a 09       		.byte	0x9
 4911 029b B3       		.byte	0xb3
 4912 029c B9020000 		.4byte	0x2b9
 4913 02a0 07       		.uleb128 0x7
 4914 02a1 F1040000 		.4byte	.LASF33
 4915 02a5 09       		.byte	0x9
 4916 02a6 B4       		.byte	0xb4
 4917 02a7 43060000 		.4byte	0x643
 4918 02ab 00       		.byte	0
 4919 02ac 07       		.uleb128 0x7
 4920 02ad FD0B0000 		.4byte	.LASF34
 4921 02b1 09       		.byte	0x9
 4922 02b2 B5       		.byte	0xb5
 4923 02b3 43060000 		.4byte	0x643
 4924 02b7 04       		.byte	0x4
 4925 02b8 00       		.byte	0
 4926 02b9 03       		.uleb128 0x3
 4927 02ba 320C0000 		.4byte	.LASF55
 4928 02be 08       		.byte	0x8
 4929 02bf 52       		.byte	0x52
 4930 02c0 C4020000 		.4byte	0x2c4
 4931 02c4 0A       		.uleb128 0xa
 4932 02c5 12020000 		.4byte	.LASF56
 4933 02c9 1C       		.byte	0x1c
 4934 02ca 09       		.byte	0x9
 4935 02cb 7201     		.2byte	0x172
 4936 02cd 20030000 		.4byte	0x320
 4937 02d1 09       		.uleb128 0x9
 4938 02d2 A1070000 		.4byte	.LASF57
 4939 02d6 09       		.byte	0x9
 4940 02d7 7301     		.2byte	0x173
 4941 02d9 89020000 		.4byte	0x289
 4942 02dd 00       		.byte	0
 4943 02de 09       		.uleb128 0x9
 4944 02df 8E030000 		.4byte	.LASF58
 4945 02e3 09       		.byte	0x9
 4946 02e4 7401     		.2byte	0x174
 4947 02e6 41010000 		.4byte	0x141
 4948 02ea 08       		.byte	0x8
 4949 02eb 09       		.uleb128 0x9
 4950 02ec 540F0000 		.4byte	.LASF59
 4951 02f0 09       		.byte	0x9
 4952 02f1 7601     		.2byte	0x176
 4953 02f3 8F040000 		.4byte	0x48f
 4954 02f7 0C       		.byte	0xc
 4955 02f8 09       		.uleb128 0x9
 4956 02f9 4B060000 		.4byte	.LASF60
 4957 02fd 09       		.byte	0x9
 4958 02fe 7901     		.2byte	0x179
 4959 0300 43060000 		.4byte	0x643
 4960 0304 10       		.byte	0x10
 4961 0305 09       		.uleb128 0x9
 4962 0306 FC080000 		.4byte	.LASF61
 4963 030a 09       		.byte	0x9
ARM GAS  C:\Users\jo\AppData\Local\Temp\ccpE7U9z.s 			page 91


 4964 030b 7A01     		.2byte	0x17a
 4965 030d 43060000 		.4byte	0x643
 4966 0311 14       		.byte	0x14
 4967 0312 09       		.uleb128 0x9
 4968 0313 780A0000 		.4byte	.LASF62
 4969 0317 09       		.byte	0x9
 4970 0318 7D01     		.2byte	0x17d
 4971 031a 43060000 		.4byte	0x643
 4972 031e 18       		.byte	0x18
 4973 031f 00       		.byte	0
 4974 0320 03       		.uleb128 0x3
 4975 0321 D9020000 		.4byte	.LASF63
 4976 0325 08       		.byte	0x8
 4977 0326 57       		.byte	0x57
 4978 0327 2B030000 		.4byte	0x32b
 4979 032b 0B       		.uleb128 0xb
 4980 032c 04       		.byte	0x4
 4981 032d 31030000 		.4byte	0x331
 4982 0331 0C       		.uleb128 0xc
 4983 0332 3C030000 		.4byte	0x33c
 4984 0336 0D       		.uleb128 0xd
 4985 0337 3C030000 		.4byte	0x33c
 4986 033b 00       		.byte	0
 4987 033c 0E       		.uleb128 0xe
 4988 033d 04       		.byte	0x4
 4989 033e 03       		.uleb128 0x3
 4990 033f 2A080000 		.4byte	.LASF64
 4991 0343 08       		.byte	0x8
 4992 0344 5C       		.byte	0x5c
 4993 0345 49030000 		.4byte	0x349
 4994 0349 0A       		.uleb128 0xa
 4995 034a EC030000 		.4byte	.LASF65
 4996 034e 14       		.byte	0x14
 4997 034f 09       		.byte	0x9
 4998 0350 4D01     		.2byte	0x14d
 4999 0352 98030000 		.4byte	0x398
 5000 0356 09       		.uleb128 0x9
 5001 0357 930D0000 		.4byte	.LASF66
 5002 035b 09       		.byte	0x9
 5003 035c 4E01     		.2byte	0x14e
 5004 035e B8060000 		.4byte	0x6b8
 5005 0362 00       		.byte	0
 5006 0363 09       		.uleb128 0x9
 5007 0364 B10F0000 		.4byte	.LASF67
 5008 0368 09       		.byte	0x9
 5009 0369 4F01     		.2byte	0x14f
 5010 036b B8060000 		.4byte	0x6b8
 5011 036f 04       		.byte	0x4
 5012 0370 09       		.uleb128 0x9
 5013 0371 A9040000 		.4byte	.LASF68
 5014 0375 09       		.byte	0x9
 5015 0376 5001     		.2byte	0x150
 5016 0378 62010000 		.4byte	0x162
 5017 037c 08       		.byte	0x8
 5018 037d 09       		.uleb128 0x9
 5019 037e 910F0000 		.4byte	.LASF69
 5020 0382 09       		.byte	0x9
ARM GAS  C:\Users\jo\AppData\Local\Temp\ccpE7U9z.s 			page 92


 5021 0383 5101     		.2byte	0x151
 5022 0385 20030000 		.4byte	0x320
 5023 0389 0C       		.byte	0xc
 5024 038a 09       		.uleb128 0x9
 5025 038b A30C0000 		.4byte	.LASF70
 5026 038f 09       		.byte	0x9
 5027 0390 5301     		.2byte	0x153
 5028 0392 3C030000 		.4byte	0x33c
 5029 0396 10       		.byte	0x10
 5030 0397 00       		.byte	0
 5031 0398 03       		.uleb128 0x3
 5032 0399 E60C0000 		.4byte	.LASF71
 5033 039d 08       		.byte	0x8
 5034 039e 61       		.byte	0x61
 5035 039f A3030000 		.4byte	0x3a3
 5036 03a3 0A       		.uleb128 0xa
 5037 03a4 92040000 		.4byte	.LASF72
 5038 03a8 10       		.byte	0x10
 5039 03a9 09       		.byte	0x9
 5040 03aa 5D01     		.2byte	0x15d
 5041 03ac E5030000 		.4byte	0x3e5
 5042 03b0 09       		.uleb128 0x9
 5043 03b1 930D0000 		.4byte	.LASF66
 5044 03b5 09       		.byte	0x9
 5045 03b6 5E01     		.2byte	0x15e
 5046 03b8 B8060000 		.4byte	0x6b8
 5047 03bc 00       		.byte	0
 5048 03bd 09       		.uleb128 0x9
 5049 03be B10F0000 		.4byte	.LASF67
 5050 03c2 09       		.byte	0x9
 5051 03c3 6001     		.2byte	0x160
 5052 03c5 B8060000 		.4byte	0x6b8
 5053 03c9 04       		.byte	0x4
 5054 03ca 09       		.uleb128 0x9
 5055 03cb A9040000 		.4byte	.LASF68
 5056 03cf 09       		.byte	0x9
 5057 03d0 6201     		.2byte	0x162
 5058 03d2 62010000 		.4byte	0x162
 5059 03d6 08       		.byte	0x8
 5060 03d7 09       		.uleb128 0x9
 5061 03d8 53060000 		.4byte	.LASF73
 5062 03dc 09       		.byte	0x9
 5063 03dd 6A01     		.2byte	0x16a
 5064 03df 62010000 		.4byte	0x162
 5065 03e3 0C       		.byte	0xc
 5066 03e4 00       		.byte	0
 5067 03e5 03       		.uleb128 0x3
 5068 03e6 34070000 		.4byte	.LASF74
 5069 03ea 08       		.byte	0x8
 5070 03eb 66       		.byte	0x66
 5071 03ec F0030000 		.4byte	0x3f0
 5072 03f0 0A       		.uleb128 0xa
 5073 03f1 F8020000 		.4byte	.LASF75
 5074 03f5 04       		.byte	0x4
 5075 03f6 09       		.byte	0x9
 5076 03f7 8401     		.2byte	0x184
 5077 03f9 0B040000 		.4byte	0x40b
ARM GAS  C:\Users\jo\AppData\Local\Temp\ccpE7U9z.s 			page 93


 5078 03fd 09       		.uleb128 0x9
 5079 03fe 100D0000 		.4byte	.LASF76
 5080 0402 09       		.byte	0x9
 5081 0403 8C01     		.2byte	0x18c
 5082 0405 BE060000 		.4byte	0x6be
 5083 0409 00       		.byte	0
 5084 040a 00       		.byte	0
 5085 040b 03       		.uleb128 0x3
 5086 040c DB0D0000 		.4byte	.LASF77
 5087 0410 08       		.byte	0x8
 5088 0411 6B       		.byte	0x6b
 5089 0412 16040000 		.4byte	0x416
 5090 0416 0F       		.uleb128 0xf
 5091 0417 F20A0000 		.4byte	.LASF78
 5092 041b D801     		.2byte	0x1d8
 5093 041d 09       		.byte	0x9
 5094 041e A401     		.2byte	0x1a4
 5095 0420 72040000 		.4byte	0x472
 5096 0424 09       		.uleb128 0x9
 5097 0425 390B0000 		.4byte	.LASF79
 5098 0429 09       		.byte	0x9
 5099 042a A801     		.2byte	0x1a8
 5100 042c B9020000 		.4byte	0x2b9
 5101 0430 00       		.byte	0
 5102 0431 09       		.uleb128 0x9
 5103 0432 F1010000 		.4byte	.LASF80
 5104 0436 09       		.byte	0x9
 5105 0437 AC01     		.2byte	0x1ac
 5106 0439 98030000 		.4byte	0x398
 5107 043d 1C       		.byte	0x1c
 5108 043e 08       		.uleb128 0x8
 5109 043f 64626700 		.ascii	"dbg\000"
 5110 0443 09       		.byte	0x9
 5111 0444 B001     		.2byte	0x1b0
 5112 0446 E5030000 		.4byte	0x3e5
 5113 044a 2C       		.byte	0x2c
 5114 044b 09       		.uleb128 0x9
 5115 044c 7D090000 		.4byte	.LASF81
 5116 0450 09       		.byte	0x9
 5117 0451 B401     		.2byte	0x1b4
 5118 0453 6D010000 		.4byte	0x16d
 5119 0457 30       		.byte	0x30
 5120 0458 08       		.uleb128 0x8
 5121 0459 746D00   		.ascii	"tm\000"
 5122 045c 09       		.byte	0x9
 5123 045d B901     		.2byte	0x1b9
 5124 045f 38060000 		.4byte	0x638
 5125 0463 74       		.byte	0x74
 5126 0464 09       		.uleb128 0x9
 5127 0465 20020000 		.4byte	.LASF82
 5128 0469 09       		.byte	0x9
 5129 046a C501     		.2byte	0x1c5
 5130 046c C3060000 		.4byte	0x6c3
 5131 0470 78       		.byte	0x78
 5132 0471 00       		.byte	0
 5133 0472 04       		.uleb128 0x4
 5134 0473 04       		.byte	0x4
ARM GAS  C:\Users\jo\AppData\Local\Temp\ccpE7U9z.s 			page 94


 5135 0474 07       		.byte	0x7
 5136 0475 040C0000 		.4byte	.LASF83
 5137 0479 03       		.uleb128 0x3
 5138 047a C70C0000 		.4byte	.LASF84
 5139 047e 0A       		.byte	0xa
 5140 047f 85       		.byte	0x85
 5141 0480 3C030000 		.4byte	0x33c
 5142 0484 03       		.uleb128 0x3
 5143 0485 5A0F0000 		.4byte	.LASF85
 5144 0489 0A       		.byte	0xa
 5145 048a 8D       		.byte	0x8d
 5146 048b 05010000 		.4byte	0x105
 5147 048f 06       		.uleb128 0x6
 5148 0490 AA0A0000 		.4byte	.LASF86
 5149 0494 04       		.byte	0x4
 5150 0495 0A       		.byte	0xa
 5151 0496 A9       		.byte	0xa9
 5152 0497 A8040000 		.4byte	0x4a8
 5153 049b 10       		.uleb128 0x10
 5154 049c 72313300 		.ascii	"r13\000"
 5155 04a0 0A       		.byte	0xa
 5156 04a1 AA       		.byte	0xaa
 5157 04a2 E9050000 		.4byte	0x5e9
 5158 04a6 00       		.byte	0
 5159 04a7 00       		.byte	0
 5160 04a8 06       		.uleb128 0x6
 5161 04a9 9E0A0000 		.4byte	.LASF87
 5162 04ad 64       		.byte	0x64
 5163 04ae 0B       		.byte	0xb
 5164 04af F4       		.byte	0xf4
 5165 04b0 E9050000 		.4byte	0x5e9
 5166 04b4 10       		.uleb128 0x10
 5167 04b5 73313600 		.ascii	"s16\000"
 5168 04b9 0B       		.byte	0xb
 5169 04ba F6       		.byte	0xf6
 5170 04bb 79040000 		.4byte	0x479
 5171 04bf 00       		.byte	0
 5172 04c0 10       		.uleb128 0x10
 5173 04c1 73313700 		.ascii	"s17\000"
 5174 04c5 0B       		.byte	0xb
 5175 04c6 F7       		.byte	0xf7
 5176 04c7 79040000 		.4byte	0x479
 5177 04cb 04       		.byte	0x4
 5178 04cc 10       		.uleb128 0x10
 5179 04cd 73313800 		.ascii	"s18\000"
 5180 04d1 0B       		.byte	0xb
 5181 04d2 F8       		.byte	0xf8
 5182 04d3 79040000 		.4byte	0x479
 5183 04d7 08       		.byte	0x8
 5184 04d8 10       		.uleb128 0x10
 5185 04d9 73313900 		.ascii	"s19\000"
 5186 04dd 0B       		.byte	0xb
 5187 04de F9       		.byte	0xf9
 5188 04df 79040000 		.4byte	0x479
 5189 04e3 0C       		.byte	0xc
 5190 04e4 10       		.uleb128 0x10
 5191 04e5 73323000 		.ascii	"s20\000"
ARM GAS  C:\Users\jo\AppData\Local\Temp\ccpE7U9z.s 			page 95


 5192 04e9 0B       		.byte	0xb
 5193 04ea FA       		.byte	0xfa
 5194 04eb 79040000 		.4byte	0x479
 5195 04ef 10       		.byte	0x10
 5196 04f0 10       		.uleb128 0x10
 5197 04f1 73323100 		.ascii	"s21\000"
 5198 04f5 0B       		.byte	0xb
 5199 04f6 FB       		.byte	0xfb
 5200 04f7 79040000 		.4byte	0x479
 5201 04fb 14       		.byte	0x14
 5202 04fc 10       		.uleb128 0x10
 5203 04fd 73323200 		.ascii	"s22\000"
 5204 0501 0B       		.byte	0xb
 5205 0502 FC       		.byte	0xfc
 5206 0503 79040000 		.4byte	0x479
 5207 0507 18       		.byte	0x18
 5208 0508 10       		.uleb128 0x10
 5209 0509 73323300 		.ascii	"s23\000"
 5210 050d 0B       		.byte	0xb
 5211 050e FD       		.byte	0xfd
 5212 050f 79040000 		.4byte	0x479
 5213 0513 1C       		.byte	0x1c
 5214 0514 10       		.uleb128 0x10
 5215 0515 73323400 		.ascii	"s24\000"
 5216 0519 0B       		.byte	0xb
 5217 051a FE       		.byte	0xfe
 5218 051b 79040000 		.4byte	0x479
 5219 051f 20       		.byte	0x20
 5220 0520 10       		.uleb128 0x10
 5221 0521 73323500 		.ascii	"s25\000"
 5222 0525 0B       		.byte	0xb
 5223 0526 FF       		.byte	0xff
 5224 0527 79040000 		.4byte	0x479
 5225 052b 24       		.byte	0x24
 5226 052c 08       		.uleb128 0x8
 5227 052d 73323600 		.ascii	"s26\000"
 5228 0531 0B       		.byte	0xb
 5229 0532 0001     		.2byte	0x100
 5230 0534 79040000 		.4byte	0x479
 5231 0538 28       		.byte	0x28
 5232 0539 08       		.uleb128 0x8
 5233 053a 73323700 		.ascii	"s27\000"
 5234 053e 0B       		.byte	0xb
 5235 053f 0101     		.2byte	0x101
 5236 0541 79040000 		.4byte	0x479
 5237 0545 2C       		.byte	0x2c
 5238 0546 08       		.uleb128 0x8
 5239 0547 73323800 		.ascii	"s28\000"
 5240 054b 0B       		.byte	0xb
 5241 054c 0201     		.2byte	0x102
 5242 054e 79040000 		.4byte	0x479
 5243 0552 30       		.byte	0x30
 5244 0553 08       		.uleb128 0x8
 5245 0554 73323900 		.ascii	"s29\000"
 5246 0558 0B       		.byte	0xb
 5247 0559 0301     		.2byte	0x103
 5248 055b 79040000 		.4byte	0x479
ARM GAS  C:\Users\jo\AppData\Local\Temp\ccpE7U9z.s 			page 96


 5249 055f 34       		.byte	0x34
 5250 0560 08       		.uleb128 0x8
 5251 0561 73333000 		.ascii	"s30\000"
 5252 0565 0B       		.byte	0xb
 5253 0566 0401     		.2byte	0x104
 5254 0568 79040000 		.4byte	0x479
 5255 056c 38       		.byte	0x38
 5256 056d 08       		.uleb128 0x8
 5257 056e 73333100 		.ascii	"s31\000"
 5258 0572 0B       		.byte	0xb
 5259 0573 0501     		.2byte	0x105
 5260 0575 79040000 		.4byte	0x479
 5261 0579 3C       		.byte	0x3c
 5262 057a 08       		.uleb128 0x8
 5263 057b 723400   		.ascii	"r4\000"
 5264 057e 0B       		.byte	0xb
 5265 057f 0701     		.2byte	0x107
 5266 0581 79040000 		.4byte	0x479
 5267 0585 40       		.byte	0x40
 5268 0586 08       		.uleb128 0x8
 5269 0587 723500   		.ascii	"r5\000"
 5270 058a 0B       		.byte	0xb
 5271 058b 0801     		.2byte	0x108
 5272 058d 79040000 		.4byte	0x479
 5273 0591 44       		.byte	0x44
 5274 0592 08       		.uleb128 0x8
 5275 0593 723600   		.ascii	"r6\000"
 5276 0596 0B       		.byte	0xb
 5277 0597 0901     		.2byte	0x109
 5278 0599 79040000 		.4byte	0x479
 5279 059d 48       		.byte	0x48
 5280 059e 08       		.uleb128 0x8
 5281 059f 723700   		.ascii	"r7\000"
 5282 05a2 0B       		.byte	0xb
 5283 05a3 0A01     		.2byte	0x10a
 5284 05a5 79040000 		.4byte	0x479
 5285 05a9 4C       		.byte	0x4c
 5286 05aa 08       		.uleb128 0x8
 5287 05ab 723800   		.ascii	"r8\000"
 5288 05ae 0B       		.byte	0xb
 5289 05af 0B01     		.2byte	0x10b
 5290 05b1 79040000 		.4byte	0x479
 5291 05b5 50       		.byte	0x50
 5292 05b6 08       		.uleb128 0x8
 5293 05b7 723900   		.ascii	"r9\000"
 5294 05ba 0B       		.byte	0xb
 5295 05bb 0C01     		.2byte	0x10c
 5296 05bd 79040000 		.4byte	0x479
 5297 05c1 54       		.byte	0x54
 5298 05c2 08       		.uleb128 0x8
 5299 05c3 72313000 		.ascii	"r10\000"
 5300 05c7 0B       		.byte	0xb
 5301 05c8 0D01     		.2byte	0x10d
 5302 05ca 79040000 		.4byte	0x479
 5303 05ce 58       		.byte	0x58
 5304 05cf 08       		.uleb128 0x8
 5305 05d0 72313100 		.ascii	"r11\000"
ARM GAS  C:\Users\jo\AppData\Local\Temp\ccpE7U9z.s 			page 97


 5306 05d4 0B       		.byte	0xb
 5307 05d5 0E01     		.2byte	0x10e
 5308 05d7 79040000 		.4byte	0x479
 5309 05db 5C       		.byte	0x5c
 5310 05dc 08       		.uleb128 0x8
 5311 05dd 6C7200   		.ascii	"lr\000"
 5312 05e0 0B       		.byte	0xb
 5313 05e1 0F01     		.2byte	0x10f
 5314 05e3 79040000 		.4byte	0x479
 5315 05e7 60       		.byte	0x60
 5316 05e8 00       		.byte	0
 5317 05e9 0B       		.uleb128 0xb
 5318 05ea 04       		.byte	0x4
 5319 05eb A8040000 		.4byte	0x4a8
 5320 05ef 03       		.uleb128 0x3
 5321 05f0 F8040000 		.4byte	.LASF88
 5322 05f4 0C       		.byte	0xc
 5323 05f5 28       		.byte	0x28
 5324 05f6 FA050000 		.4byte	0x5fa
 5325 05fa 06       		.uleb128 0x6
 5326 05fb FE0D0000 		.4byte	.LASF89
 5327 05ff 04       		.byte	0x4
 5328 0600 0D       		.byte	0xd
 5329 0601 00       		.byte	0
 5330 0602 11060000 		.4byte	0x611
 5331 0606 11       		.uleb128 0x11
 5332 0607 25080000 		.4byte	.LASF93
 5333 060b 3C030000 		.4byte	0x33c
 5334 060f 00       		.byte	0
 5335 0610 00       		.byte	0
 5336 0611 04       		.uleb128 0x4
 5337 0612 01       		.byte	0x1
 5338 0613 08       		.byte	0x8
 5339 0614 92000000 		.4byte	.LASF90
 5340 0618 0B       		.uleb128 0xb
 5341 0619 04       		.byte	0x4
 5342 061a 1E060000 		.4byte	0x61e
 5343 061e 12       		.uleb128 0x12
 5344 061f 11060000 		.4byte	0x611
 5345 0623 13       		.uleb128 0x13
 5346 0624 04       		.byte	0x4
 5347 0625 0E       		.byte	0xe
 5348 0626 38       		.byte	0x38
 5349 0627 38060000 		.4byte	0x638
 5350 062b 07       		.uleb128 0x7
 5351 062c 2D050000 		.4byte	.LASF91
 5352 0630 0E       		.byte	0xe
 5353 0631 3C       		.byte	0x3c
 5354 0632 15010000 		.4byte	0x115
 5355 0636 00       		.byte	0
 5356 0637 00       		.byte	0
 5357 0638 03       		.uleb128 0x3
 5358 0639 47090000 		.4byte	.LASF92
 5359 063d 0E       		.byte	0xe
 5360 063e 3D       		.byte	0x3d
 5361 063f 23060000 		.4byte	0x623
 5362 0643 0B       		.uleb128 0xb
ARM GAS  C:\Users\jo\AppData\Local\Temp\ccpE7U9z.s 			page 98


 5363 0644 04       		.byte	0x4
 5364 0645 6D010000 		.4byte	0x16d
 5365 0649 14       		.uleb128 0x14
 5366 064a 04       		.byte	0x4
 5367 064b 09       		.byte	0x9
 5368 064c F6       		.byte	0xf6
 5369 064d 81060000 		.4byte	0x681
 5370 0651 15       		.uleb128 0x15
 5371 0652 1E050000 		.4byte	.LASF94
 5372 0656 09       		.byte	0x9
 5373 0657 FD       		.byte	0xfd
 5374 0658 4C010000 		.4byte	0x14c
 5375 065c 16       		.uleb128 0x16
 5376 065d 4E100000 		.4byte	.LASF95
 5377 0661 09       		.byte	0x9
 5378 0662 0401     		.2byte	0x104
 5379 0664 4C010000 		.4byte	0x14c
 5380 0668 16       		.uleb128 0x16
 5381 0669 E2020000 		.4byte	.LASF96
 5382 066d 09       		.byte	0x9
 5383 066e 0B01     		.2byte	0x10b
 5384 0670 3C030000 		.4byte	0x33c
 5385 0674 16       		.uleb128 0x16
 5386 0675 40090000 		.4byte	.LASF97
 5387 0679 09       		.byte	0x9
 5388 067a 1201     		.2byte	0x112
 5389 067c 57010000 		.4byte	0x157
 5390 0680 00       		.byte	0
 5391 0681 06       		.uleb128 0x6
 5392 0682 CE030000 		.4byte	.LASF98
 5393 0686 10       		.byte	0x10
 5394 0687 0F       		.byte	0xf
 5395 0688 39       		.byte	0x39
 5396 0689 B2060000 		.4byte	0x6b2
 5397 068d 07       		.uleb128 0x7
 5398 068e 8D0A0000 		.4byte	.LASF99
 5399 0692 0F       		.byte	0xf
 5400 0693 3A       		.byte	0x3a
 5401 0694 89020000 		.4byte	0x289
 5402 0698 00       		.byte	0
 5403 0699 07       		.uleb128 0x7
 5404 069a 06010000 		.4byte	.LASF100
 5405 069e 0F       		.byte	0xf
 5406 069f 3C       		.byte	0x3c
 5407 06a0 43060000 		.4byte	0x643
 5408 06a4 08       		.byte	0x8
 5409 06a5 07       		.uleb128 0x7
 5410 06a6 0D0E0000 		.4byte	.LASF101
 5411 06aa 0F       		.byte	0xf
 5412 06ab 3E       		.byte	0x3e
 5413 06ac F3060000 		.4byte	0x6f3
 5414 06b0 0C       		.byte	0xc
 5415 06b1 00       		.byte	0
 5416 06b2 0B       		.uleb128 0xb
 5417 06b3 04       		.byte	0x4
 5418 06b4 81060000 		.4byte	0x681
 5419 06b8 0B       		.uleb128 0xb
ARM GAS  C:\Users\jo\AppData\Local\Temp\ccpE7U9z.s 			page 99


 5420 06b9 04       		.byte	0x4
 5421 06ba 3E030000 		.4byte	0x33e
 5422 06be 05       		.uleb128 0x5
 5423 06bf 18060000 		.4byte	0x618
 5424 06c3 17       		.uleb128 0x17
 5425 06c4 84040000 		.4byte	0x484
 5426 06c8 D3060000 		.4byte	0x6d3
 5427 06cc 18       		.uleb128 0x18
 5428 06cd 72040000 		.4byte	0x472
 5429 06d1 2B       		.byte	0x2b
 5430 06d2 00       		.byte	0
 5431 06d3 0B       		.uleb128 0xb
 5432 06d4 04       		.byte	0x4
 5433 06d5 D9060000 		.4byte	0x6d9
 5434 06d9 19       		.uleb128 0x19
 5435 06da 4C010000 		.4byte	0x14c
 5436 06de E8060000 		.4byte	0x6e8
 5437 06e2 0D       		.uleb128 0xd
 5438 06e3 3C030000 		.4byte	0x33c
 5439 06e7 00       		.byte	0
 5440 06e8 03       		.uleb128 0x3
 5441 06e9 930C0000 		.4byte	.LASF102
 5442 06ed 0F       		.byte	0xf
 5443 06ee 34       		.byte	0x34
 5444 06ef 81060000 		.4byte	0x681
 5445 06f3 0B       		.uleb128 0xb
 5446 06f4 04       		.byte	0x4
 5447 06f5 E8060000 		.4byte	0x6e8
 5448 06f9 0B       		.uleb128 0xb
 5449 06fa 04       		.byte	0x4
 5450 06fb CE000000 		.4byte	0xce
 5451 06ff 06       		.uleb128 0x6
 5452 0700 C6010000 		.4byte	.LASF103
 5453 0704 10       		.byte	0x10
 5454 0705 10       		.byte	0x10
 5455 0706 40       		.byte	0x40
 5456 0707 3C070000 		.4byte	0x73c
 5457 070b 07       		.uleb128 0x7
 5458 070c 95070000 		.4byte	.LASF104
 5459 0710 10       		.byte	0x10
 5460 0711 41       		.byte	0x41
 5461 0712 60070000 		.4byte	0x760
 5462 0716 00       		.byte	0
 5463 0717 07       		.uleb128 0x7
 5464 0718 960B0000 		.4byte	.LASF105
 5465 071c 10       		.byte	0x10
 5466 071d 41       		.byte	0x41
 5467 071e 7F070000 		.4byte	0x77f
 5468 0722 04       		.byte	0x4
 5469 0723 10       		.uleb128 0x10
 5470 0724 70757400 		.ascii	"put\000"
 5471 0728 10       		.byte	0x10
 5472 0729 41       		.byte	0x41
 5473 072a 99070000 		.4byte	0x799
 5474 072e 08       		.byte	0x8
 5475 072f 10       		.uleb128 0x10
 5476 0730 67657400 		.ascii	"get\000"
ARM GAS  C:\Users\jo\AppData\Local\Temp\ccpE7U9z.s 			page 100


 5477 0734 10       		.byte	0x10
 5478 0735 41       		.byte	0x41
 5479 0736 D3060000 		.4byte	0x6d3
 5480 073a 0C       		.byte	0xc
 5481 073b 00       		.byte	0
 5482 073c 19       		.uleb128 0x19
 5483 073d 2C000000 		.4byte	0x2c
 5484 0741 55070000 		.4byte	0x755
 5485 0745 0D       		.uleb128 0xd
 5486 0746 3C030000 		.4byte	0x33c
 5487 074a 0D       		.uleb128 0xd
 5488 074b 55070000 		.4byte	0x755
 5489 074f 0D       		.uleb128 0xd
 5490 0750 2C000000 		.4byte	0x2c
 5491 0754 00       		.byte	0
 5492 0755 0B       		.uleb128 0xb
 5493 0756 04       		.byte	0x4
 5494 0757 5B070000 		.4byte	0x75b
 5495 075b 12       		.uleb128 0x12
 5496 075c CE000000 		.4byte	0xce
 5497 0760 0B       		.uleb128 0xb
 5498 0761 04       		.byte	0x4
 5499 0762 3C070000 		.4byte	0x73c
 5500 0766 19       		.uleb128 0x19
 5501 0767 2C000000 		.4byte	0x2c
 5502 076b 7F070000 		.4byte	0x77f
 5503 076f 0D       		.uleb128 0xd
 5504 0770 3C030000 		.4byte	0x33c
 5505 0774 0D       		.uleb128 0xd
 5506 0775 F9060000 		.4byte	0x6f9
 5507 0779 0D       		.uleb128 0xd
 5508 077a 2C000000 		.4byte	0x2c
 5509 077e 00       		.byte	0
 5510 077f 0B       		.uleb128 0xb
 5511 0780 04       		.byte	0x4
 5512 0781 66070000 		.4byte	0x766
 5513 0785 19       		.uleb128 0x19
 5514 0786 4C010000 		.4byte	0x14c
 5515 078a 99070000 		.4byte	0x799
 5516 078e 0D       		.uleb128 0xd
 5517 078f 3C030000 		.4byte	0x33c
 5518 0793 0D       		.uleb128 0xd
 5519 0794 CE000000 		.4byte	0xce
 5520 0798 00       		.byte	0
 5521 0799 0B       		.uleb128 0xb
 5522 079a 04       		.byte	0x4
 5523 079b 85070000 		.4byte	0x785
 5524 079f 13       		.uleb128 0x13
 5525 07a0 04       		.byte	0x4
 5526 07a1 10       		.byte	0x10
 5527 07a2 49       		.byte	0x49
 5528 07a3 B4070000 		.4byte	0x7b4
 5529 07a7 10       		.uleb128 0x10
 5530 07a8 766D7400 		.ascii	"vmt\000"
 5531 07ac 10       		.byte	0x10
 5532 07ad 4B       		.byte	0x4b
 5533 07ae B4070000 		.4byte	0x7b4
ARM GAS  C:\Users\jo\AppData\Local\Temp\ccpE7U9z.s 			page 101


 5534 07b2 00       		.byte	0
 5535 07b3 00       		.byte	0
 5536 07b4 0B       		.uleb128 0xb
 5537 07b5 04       		.byte	0x4
 5538 07b6 BA070000 		.4byte	0x7ba
 5539 07ba 12       		.uleb128 0x12
 5540 07bb FF060000 		.4byte	0x6ff
 5541 07bf 03       		.uleb128 0x3
 5542 07c0 EA050000 		.4byte	.LASF106
 5543 07c4 10       		.byte	0x10
 5544 07c5 4D       		.byte	0x4d
 5545 07c6 9F070000 		.4byte	0x79f
 5546 07ca 04       		.uleb128 0x4
 5547 07cb 01       		.byte	0x1
 5548 07cc 02       		.byte	0x2
 5549 07cd 51050000 		.4byte	.LASF107
 5550 07d1 06       		.uleb128 0x6
 5551 07d2 53080000 		.4byte	.LASF108
 5552 07d6 10       		.byte	0x10
 5553 07d7 11       		.byte	0x11
 5554 07d8 2E       		.byte	0x2e
 5555 07d9 0E080000 		.4byte	0x80e
 5556 07dd 07       		.uleb128 0x7
 5557 07de 95070000 		.4byte	.LASF104
 5558 07e2 11       		.byte	0x11
 5559 07e3 2F       		.byte	0x2f
 5560 07e4 60070000 		.4byte	0x760
 5561 07e8 00       		.byte	0
 5562 07e9 07       		.uleb128 0x7
 5563 07ea 960B0000 		.4byte	.LASF105
 5564 07ee 11       		.byte	0x11
 5565 07ef 2F       		.byte	0x2f
 5566 07f0 7F070000 		.4byte	0x77f
 5567 07f4 04       		.byte	0x4
 5568 07f5 10       		.uleb128 0x10
 5569 07f6 70757400 		.ascii	"put\000"
 5570 07fa 11       		.byte	0x11
 5571 07fb 2F       		.byte	0x2f
 5572 07fc 99070000 		.4byte	0x799
 5573 0800 08       		.byte	0x8
 5574 0801 10       		.uleb128 0x10
 5575 0802 67657400 		.ascii	"get\000"
 5576 0806 11       		.byte	0x11
 5577 0807 2F       		.byte	0x2f
 5578 0808 D3060000 		.4byte	0x6d3
 5579 080c 0C       		.byte	0xc
 5580 080d 00       		.byte	0
 5581 080e 13       		.uleb128 0x13
 5582 080f 04       		.byte	0x4
 5583 0810 11       		.byte	0x11
 5584 0811 39       		.byte	0x39
 5585 0812 23080000 		.4byte	0x823
 5586 0816 10       		.uleb128 0x10
 5587 0817 766D7400 		.ascii	"vmt\000"
 5588 081b 11       		.byte	0x11
 5589 081c 3B       		.byte	0x3b
 5590 081d 23080000 		.4byte	0x823
ARM GAS  C:\Users\jo\AppData\Local\Temp\ccpE7U9z.s 			page 102


 5591 0821 00       		.byte	0
 5592 0822 00       		.byte	0
 5593 0823 0B       		.uleb128 0xb
 5594 0824 04       		.byte	0x4
 5595 0825 29080000 		.4byte	0x829
 5596 0829 12       		.uleb128 0x12
 5597 082a D1070000 		.4byte	0x7d1
 5598 082e 03       		.uleb128 0x3
 5599 082f 1F090000 		.4byte	.LASF109
 5600 0833 11       		.byte	0x11
 5601 0834 3D       		.byte	0x3d
 5602 0835 0E080000 		.4byte	0x80e
 5603 0839 03       		.uleb128 0x3
 5604 083a 2C070000 		.4byte	.LASF110
 5605 083e 0C       		.byte	0xc
 5606 083f 62       		.byte	0x62
 5607 0840 EF050000 		.4byte	0x5ef
 5608 0844 03       		.uleb128 0x3
 5609 0845 F2070000 		.4byte	.LASF111
 5610 0849 12       		.byte	0x12
 5611 084a 3D       		.byte	0x3d
 5612 084b CE000000 		.4byte	0xce
 5613 084f 03       		.uleb128 0x3
 5614 0850 AB050000 		.4byte	.LASF112
 5615 0854 12       		.byte	0x12
 5616 0855 3E       		.byte	0x3e
 5617 0856 C3000000 		.4byte	0xc3
 5618 085a 03       		.uleb128 0x3
 5619 085b EB010000 		.4byte	.LASF113
 5620 085f 12       		.byte	0x12
 5621 0860 3F       		.byte	0x3f
 5622 0861 E4000000 		.4byte	0xe4
 5623 0865 03       		.uleb128 0x3
 5624 0866 4C0C0000 		.4byte	.LASF114
 5625 086a 12       		.byte	0x12
 5626 086b 40       		.byte	0x40
 5627 086c D9000000 		.4byte	0xd9
 5628 0870 03       		.uleb128 0x3
 5629 0871 630A0000 		.4byte	.LASF115
 5630 0875 12       		.byte	0x12
 5631 0876 41       		.byte	0x41
 5632 0877 FA000000 		.4byte	0xfa
 5633 087b 03       		.uleb128 0x3
 5634 087c B0050000 		.4byte	.LASF116
 5635 0880 12       		.byte	0x12
 5636 0881 42       		.byte	0x42
 5637 0882 EF000000 		.4byte	0xef
 5638 0886 03       		.uleb128 0x3
 5639 0887 40060000 		.4byte	.LASF117
 5640 088b 13       		.byte	0x13
 5641 088c 4C       		.byte	0x4c
 5642 088d 5A080000 		.4byte	0x85a
 5643 0891 1A       		.uleb128 0x1a
 5644 0892 01       		.byte	0x1
 5645 0893 14       		.byte	0x14
 5646 0894 2B       		.byte	0x2b
 5647 0895 F4080000 		.4byte	0x8f4
ARM GAS  C:\Users\jo\AppData\Local\Temp\ccpE7U9z.s 			page 103


 5648 0899 1B       		.uleb128 0x1b
 5649 089a 60080000 		.4byte	.LASF118
 5650 089e 00       		.sleb128 0
 5651 089f 1B       		.uleb128 0x1b
 5652 08a0 180B0000 		.4byte	.LASF119
 5653 08a4 01       		.sleb128 1
 5654 08a5 1B       		.uleb128 0x1b
 5655 08a6 E5070000 		.4byte	.LASF120
 5656 08aa 02       		.sleb128 2
 5657 08ab 1B       		.uleb128 0x1b
 5658 08ac 60000000 		.4byte	.LASF121
 5659 08b0 03       		.sleb128 3
 5660 08b1 1B       		.uleb128 0x1b
 5661 08b2 030D0000 		.4byte	.LASF122
 5662 08b6 04       		.sleb128 4
 5663 08b7 1B       		.uleb128 0x1b
 5664 08b8 04090000 		.4byte	.LASF123
 5665 08bc 05       		.sleb128 5
 5666 08bd 1B       		.uleb128 0x1b
 5667 08be AF0B0000 		.4byte	.LASF124
 5668 08c2 06       		.sleb128 6
 5669 08c3 1B       		.uleb128 0x1b
 5670 08c4 0E010000 		.4byte	.LASF125
 5671 08c8 07       		.sleb128 7
 5672 08c9 1B       		.uleb128 0x1b
 5673 08ca 4C030000 		.4byte	.LASF126
 5674 08ce 08       		.sleb128 8
 5675 08cf 1B       		.uleb128 0x1b
 5676 08d0 9C030000 		.4byte	.LASF127
 5677 08d4 09       		.sleb128 9
 5678 08d5 1B       		.uleb128 0x1b
 5679 08d6 BA040000 		.4byte	.LASF128
 5680 08da 0A       		.sleb128 10
 5681 08db 1B       		.uleb128 0x1b
 5682 08dc FC0A0000 		.4byte	.LASF129
 5683 08e0 0B       		.sleb128 11
 5684 08e1 1B       		.uleb128 0x1b
 5685 08e2 19060000 		.4byte	.LASF130
 5686 08e6 0C       		.sleb128 12
 5687 08e7 1B       		.uleb128 0x1b
 5688 08e8 9F020000 		.4byte	.LASF131
 5689 08ec 0D       		.sleb128 13
 5690 08ed 1B       		.uleb128 0x1b
 5691 08ee 98050000 		.4byte	.LASF132
 5692 08f2 0E       		.sleb128 14
 5693 08f3 00       		.byte	0
 5694 08f4 03       		.uleb128 0x3
 5695 08f5 F20F0000 		.4byte	.LASF133
 5696 08f9 14       		.byte	0x14
 5697 08fa 2F       		.byte	0x2f
 5698 08fb 91080000 		.4byte	0x891
 5699 08ff 06       		.uleb128 0x6
 5700 0900 41100000 		.4byte	.LASF134
 5701 0904 04       		.byte	0x4
 5702 0905 15       		.byte	0x15
 5703 0906 2C       		.byte	0x2c
 5704 0907 18090000 		.4byte	0x918
ARM GAS  C:\Users\jo\AppData\Local\Temp\ccpE7U9z.s 			page 104


 5705 090b 07       		.uleb128 0x7
 5706 090c 610D0000 		.4byte	.LASF135
 5707 0910 15       		.byte	0x15
 5708 0911 2D       		.byte	0x2d
 5709 0912 70080000 		.4byte	0x870
 5710 0916 00       		.byte	0
 5711 0917 00       		.byte	0
 5712 0918 03       		.uleb128 0x3
 5713 0919 C90F0000 		.4byte	.LASF136
 5714 091d 15       		.byte	0x15
 5715 091e 40       		.byte	0x40
 5716 091f FF080000 		.4byte	0x8ff
 5717 0923 03       		.uleb128 0x3
 5718 0924 98010000 		.4byte	.LASF137
 5719 0928 16       		.byte	0x16
 5720 0929 2F       		.byte	0x2f
 5721 092a 4F080000 		.4byte	0x84f
 5722 092e 06       		.uleb128 0x6
 5723 092f 1A0D0000 		.4byte	.LASF138
 5724 0933 10       		.byte	0x10
 5725 0934 17       		.byte	0x17
 5726 0935 4F       		.byte	0x4f
 5727 0936 8F090000 		.4byte	0x98f
 5728 093a 07       		.uleb128 0x7
 5729 093b 4B010000 		.4byte	.LASF139
 5730 093f 17       		.byte	0x17
 5731 0940 51       		.byte	0x51
 5732 0941 8F090000 		.4byte	0x98f
 5733 0945 00       		.byte	0
 5734 0946 07       		.uleb128 0x7
 5735 0947 25050000 		.4byte	.LASF140
 5736 094b 17       		.byte	0x17
 5737 094c 54       		.byte	0x54
 5738 094d 3C030000 		.4byte	0x33c
 5739 0951 04       		.byte	0x4
 5740 0952 07       		.uleb128 0x7
 5741 0953 780D0000 		.4byte	.LASF141
 5742 0957 17       		.byte	0x17
 5743 0958 5D       		.byte	0x5d
 5744 0959 5A080000 		.4byte	0x85a
 5745 095d 08       		.byte	0x8
 5746 095e 10       		.uleb128 0x10
 5747 095f 6C656E00 		.ascii	"len\000"
 5748 0963 17       		.byte	0x17
 5749 0964 60       		.byte	0x60
 5750 0965 5A080000 		.4byte	0x85a
 5751 0969 0A       		.byte	0xa
 5752 096a 07       		.uleb128 0x7
 5753 096b AA0C0000 		.4byte	.LASF142
 5754 096f 17       		.byte	0x17
 5755 0970 63       		.byte	0x63
 5756 0971 44080000 		.4byte	0x844
 5757 0975 0C       		.byte	0xc
 5758 0976 07       		.uleb128 0x7
 5759 0977 420A0000 		.4byte	.LASF143
 5760 097b 17       		.byte	0x17
 5761 097c 66       		.byte	0x66
ARM GAS  C:\Users\jo\AppData\Local\Temp\ccpE7U9z.s 			page 105


 5762 097d 44080000 		.4byte	0x844
 5763 0981 0D       		.byte	0xd
 5764 0982 10       		.uleb128 0x10
 5765 0983 72656600 		.ascii	"ref\000"
 5766 0987 17       		.byte	0x17
 5767 0988 6D       		.byte	0x6d
 5768 0989 5A080000 		.4byte	0x85a
 5769 098d 0E       		.byte	0xe
 5770 098e 00       		.byte	0
 5771 098f 0B       		.uleb128 0xb
 5772 0990 04       		.byte	0x4
 5773 0991 2E090000 		.4byte	0x92e
 5774 0995 0B       		.uleb128 0xb
 5775 0996 04       		.byte	0x4
 5776 0997 9B090000 		.4byte	0x99b
 5777 099b 06       		.uleb128 0x6
 5778 099c A40D0000 		.4byte	.LASF144
 5779 09a0 30       		.byte	0x30
 5780 09a1 18       		.byte	0x18
 5781 09a2 88       		.byte	0x88
 5782 09a3 4F0A0000 		.4byte	0xa4f
 5783 09a7 07       		.uleb128 0x7
 5784 09a8 4B010000 		.4byte	.LASF139
 5785 09ac 18       		.byte	0x18
 5786 09ad 8A       		.byte	0x8a
 5787 09ae 95090000 		.4byte	0x995
 5788 09b2 00       		.byte	0
 5789 09b3 07       		.uleb128 0x7
 5790 09b4 41100000 		.4byte	.LASF134
 5791 09b8 18       		.byte	0x18
 5792 09b9 8D       		.byte	0x8d
 5793 09ba 18090000 		.4byte	0x918
 5794 09be 04       		.byte	0x4
 5795 09bf 07       		.uleb128 0x7
 5796 09c0 6D070000 		.4byte	.LASF145
 5797 09c4 18       		.byte	0x18
 5798 09c5 8E       		.byte	0x8e
 5799 09c6 18090000 		.4byte	0x918
 5800 09ca 08       		.byte	0x8
 5801 09cb 10       		.uleb128 0x10
 5802 09cc 677700   		.ascii	"gw\000"
 5803 09cf 18       		.byte	0x18
 5804 09d0 8F       		.byte	0x8f
 5805 09d1 18090000 		.4byte	0x918
 5806 09d5 0C       		.byte	0xc
 5807 09d6 07       		.uleb128 0x7
 5808 09d7 840C0000 		.4byte	.LASF146
 5809 09db 18       		.byte	0x18
 5810 09dc 93       		.byte	0x93
 5811 09dd 4F0A0000 		.4byte	0xa4f
 5812 09e1 10       		.byte	0x10
 5813 09e2 07       		.uleb128 0x7
 5814 09e3 A1000000 		.4byte	.LASF147
 5815 09e7 18       		.byte	0x18
 5816 09e8 97       		.byte	0x97
 5817 09e9 740A0000 		.4byte	0xa74
 5818 09ed 14       		.byte	0x14
ARM GAS  C:\Users\jo\AppData\Local\Temp\ccpE7U9z.s 			page 106


 5819 09ee 07       		.uleb128 0x7
 5820 09ef 20100000 		.4byte	.LASF148
 5821 09f3 18       		.byte	0x18
 5822 09f4 9B       		.byte	0x9b
 5823 09f5 A40A0000 		.4byte	0xaa4
 5824 09f9 18       		.byte	0x18
 5825 09fa 07       		.uleb128 0x7
 5826 09fb 720D0000 		.4byte	.LASF149
 5827 09ff 18       		.byte	0x18
 5828 0a00 AC       		.byte	0xac
 5829 0a01 3C030000 		.4byte	0x33c
 5830 0a05 1C       		.byte	0x1c
 5831 0a06 10       		.uleb128 0x10
 5832 0a07 6D747500 		.ascii	"mtu\000"
 5833 0a0b 18       		.byte	0x18
 5834 0a0c BA       		.byte	0xba
 5835 0a0d 5A080000 		.4byte	0x85a
 5836 0a11 20       		.byte	0x20
 5837 0a12 07       		.uleb128 0x7
 5838 0a13 AA090000 		.4byte	.LASF150
 5839 0a17 18       		.byte	0x18
 5840 0a18 BC       		.byte	0xbc
 5841 0a19 44080000 		.4byte	0x844
 5842 0a1d 22       		.byte	0x22
 5843 0a1e 07       		.uleb128 0x7
 5844 0a1f 05040000 		.4byte	.LASF151
 5845 0a23 18       		.byte	0x18
 5846 0a24 BE       		.byte	0xbe
 5847 0a25 C90A0000 		.4byte	0xac9
 5848 0a29 23       		.byte	0x23
 5849 0a2a 07       		.uleb128 0x7
 5850 0a2b 420A0000 		.4byte	.LASF143
 5851 0a2f 18       		.byte	0x18
 5852 0a30 C0       		.byte	0xc0
 5853 0a31 44080000 		.4byte	0x844
 5854 0a35 29       		.byte	0x29
 5855 0a36 07       		.uleb128 0x7
 5856 0a37 31000000 		.4byte	.LASF152
 5857 0a3b 18       		.byte	0x18
 5858 0a3c C2       		.byte	0xc2
 5859 0a3d D90A0000 		.4byte	0xad9
 5860 0a41 2A       		.byte	0x2a
 5861 0a42 10       		.uleb128 0x10
 5862 0a43 6E756D00 		.ascii	"num\000"
 5863 0a47 18       		.byte	0x18
 5864 0a48 C4       		.byte	0xc4
 5865 0a49 44080000 		.4byte	0x844
 5866 0a4d 2C       		.byte	0x2c
 5867 0a4e 00       		.byte	0
 5868 0a4f 03       		.uleb128 0x3
 5869 0a50 2A030000 		.4byte	.LASF153
 5870 0a54 18       		.byte	0x18
 5871 0a55 6D       		.byte	0x6d
 5872 0a56 5A0A0000 		.4byte	0xa5a
 5873 0a5a 0B       		.uleb128 0xb
 5874 0a5b 04       		.byte	0x4
 5875 0a5c 600A0000 		.4byte	0xa60
ARM GAS  C:\Users\jo\AppData\Local\Temp\ccpE7U9z.s 			page 107


 5876 0a60 19       		.uleb128 0x19
 5877 0a61 23090000 		.4byte	0x923
 5878 0a65 740A0000 		.4byte	0xa74
 5879 0a69 0D       		.uleb128 0xd
 5880 0a6a 8F090000 		.4byte	0x98f
 5881 0a6e 0D       		.uleb128 0xd
 5882 0a6f 95090000 		.4byte	0x995
 5883 0a73 00       		.byte	0
 5884 0a74 03       		.uleb128 0x3
 5885 0a75 81020000 		.4byte	.LASF154
 5886 0a79 18       		.byte	0x18
 5887 0a7a 76       		.byte	0x76
 5888 0a7b 7F0A0000 		.4byte	0xa7f
 5889 0a7f 0B       		.uleb128 0xb
 5890 0a80 04       		.byte	0x4
 5891 0a81 850A0000 		.4byte	0xa85
 5892 0a85 19       		.uleb128 0x19
 5893 0a86 23090000 		.4byte	0x923
 5894 0a8a 9E0A0000 		.4byte	0xa9e
 5895 0a8e 0D       		.uleb128 0xd
 5896 0a8f 95090000 		.4byte	0x995
 5897 0a93 0D       		.uleb128 0xd
 5898 0a94 8F090000 		.4byte	0x98f
 5899 0a98 0D       		.uleb128 0xd
 5900 0a99 9E0A0000 		.4byte	0xa9e
 5901 0a9d 00       		.byte	0
 5902 0a9e 0B       		.uleb128 0xb
 5903 0a9f 04       		.byte	0x4
 5904 0aa0 18090000 		.4byte	0x918
 5905 0aa4 03       		.uleb128 0x3
 5906 0aa5 9B0B0000 		.4byte	.LASF155
 5907 0aa9 18       		.byte	0x18
 5908 0aaa 7E       		.byte	0x7e
 5909 0aab AF0A0000 		.4byte	0xaaf
 5910 0aaf 0B       		.uleb128 0xb
 5911 0ab0 04       		.byte	0x4
 5912 0ab1 B50A0000 		.4byte	0xab5
 5913 0ab5 19       		.uleb128 0x19
 5914 0ab6 23090000 		.4byte	0x923
 5915 0aba C90A0000 		.4byte	0xac9
 5916 0abe 0D       		.uleb128 0xd
 5917 0abf 95090000 		.4byte	0x995
 5918 0ac3 0D       		.uleb128 0xd
 5919 0ac4 8F090000 		.4byte	0x98f
 5920 0ac8 00       		.byte	0
 5921 0ac9 17       		.uleb128 0x17
 5922 0aca 44080000 		.4byte	0x844
 5923 0ace D90A0000 		.4byte	0xad9
 5924 0ad2 18       		.uleb128 0x18
 5925 0ad3 72040000 		.4byte	0x472
 5926 0ad7 05       		.byte	0x5
 5927 0ad8 00       		.byte	0
 5928 0ad9 17       		.uleb128 0x17
 5929 0ada 11060000 		.4byte	0x611
 5930 0ade E90A0000 		.4byte	0xae9
 5931 0ae2 18       		.uleb128 0x18
 5932 0ae3 72040000 		.4byte	0x472
ARM GAS  C:\Users\jo\AppData\Local\Temp\ccpE7U9z.s 			page 108


 5933 0ae7 01       		.byte	0x1
 5934 0ae8 00       		.byte	0
 5935 0ae9 03       		.uleb128 0x3
 5936 0aea DB000000 		.4byte	.LASF156
 5937 0aee 19       		.byte	0x19
 5938 0aef 3C       		.byte	0x3c
 5939 0af0 F40A0000 		.4byte	0xaf4
 5940 0af4 0B       		.uleb128 0xb
 5941 0af5 04       		.byte	0x4
 5942 0af6 FA0A0000 		.4byte	0xafa
 5943 0afa 19       		.uleb128 0x19
 5944 0afb 23090000 		.4byte	0x923
 5945 0aff 130B0000 		.4byte	0xb13
 5946 0b03 0D       		.uleb128 0xd
 5947 0b04 3C030000 		.4byte	0x33c
 5948 0b08 0D       		.uleb128 0xd
 5949 0b09 130B0000 		.4byte	0xb13
 5950 0b0d 0D       		.uleb128 0xd
 5951 0b0e 23090000 		.4byte	0x923
 5952 0b12 00       		.byte	0
 5953 0b13 0B       		.uleb128 0xb
 5954 0b14 04       		.byte	0x4
 5955 0b15 190B0000 		.4byte	0xb19
 5956 0b19 06       		.uleb128 0x6
 5957 0b1a 390F0000 		.4byte	.LASF157
 5958 0b1e 98       		.byte	0x98
 5959 0b1f 19       		.byte	0x19
 5960 0b20 A8       		.byte	0xa8
 5961 0b21 CB0D0000 		.4byte	0xdcb
 5962 0b25 07       		.uleb128 0x7
 5963 0b26 250B0000 		.4byte	.LASF158
 5964 0b2a 19       		.byte	0x19
 5965 0b2b AA       		.byte	0xaa
 5966 0b2c 18090000 		.4byte	0x918
 5967 0b30 00       		.byte	0
 5968 0b31 07       		.uleb128 0x7
 5969 0b32 870F0000 		.4byte	.LASF159
 5970 0b36 19       		.byte	0x19
 5971 0b37 AA       		.byte	0xaa
 5972 0b38 18090000 		.4byte	0x918
 5973 0b3c 04       		.byte	0x4
 5974 0b3d 07       		.uleb128 0x7
 5975 0b3e 87000000 		.4byte	.LASF160
 5976 0b42 19       		.byte	0x19
 5977 0b43 AA       		.byte	0xaa
 5978 0b44 44080000 		.4byte	0x844
 5979 0b48 08       		.byte	0x8
 5980 0b49 10       		.uleb128 0x10
 5981 0b4a 746F7300 		.ascii	"tos\000"
 5982 0b4e 19       		.byte	0x19
 5983 0b4f AA       		.byte	0xaa
 5984 0b50 44080000 		.4byte	0x844
 5985 0b54 09       		.byte	0x9
 5986 0b55 10       		.uleb128 0x10
 5987 0b56 74746C00 		.ascii	"ttl\000"
 5988 0b5a 19       		.byte	0x19
 5989 0b5b AA       		.byte	0xaa
ARM GAS  C:\Users\jo\AppData\Local\Temp\ccpE7U9z.s 			page 109


 5990 0b5c 44080000 		.4byte	0x844
 5991 0b60 0A       		.byte	0xa
 5992 0b61 07       		.uleb128 0x7
 5993 0b62 4B010000 		.4byte	.LASF139
 5994 0b66 19       		.byte	0x19
 5995 0b67 AC       		.byte	0xac
 5996 0b68 130B0000 		.4byte	0xb13
 5997 0b6c 0C       		.byte	0xc
 5998 0b6d 07       		.uleb128 0x7
 5999 0b6e 450D0000 		.4byte	.LASF161
 6000 0b72 19       		.byte	0x19
 6001 0b73 AC       		.byte	0xac
 6002 0b74 3C030000 		.4byte	0x33c
 6003 0b78 10       		.byte	0x10
 6004 0b79 07       		.uleb128 0x7
 6005 0b7a 95030000 		.4byte	.LASF162
 6006 0b7e 19       		.byte	0x19
 6007 0b7f AC       		.byte	0xac
 6008 0b80 E90A0000 		.4byte	0xae9
 6009 0b84 14       		.byte	0x14
 6010 0b85 07       		.uleb128 0x7
 6011 0b86 720D0000 		.4byte	.LASF149
 6012 0b8a 19       		.byte	0x19
 6013 0b8b AC       		.byte	0xac
 6014 0b8c 750E0000 		.4byte	0xe75
 6015 0b90 18       		.byte	0x18
 6016 0b91 07       		.uleb128 0x7
 6017 0b92 07060000 		.4byte	.LASF163
 6018 0b96 19       		.byte	0x19
 6019 0b97 AC       		.byte	0xac
 6020 0b98 44080000 		.4byte	0x844
 6021 0b9c 19       		.byte	0x19
 6022 0b9d 07       		.uleb128 0x7
 6023 0b9e C3030000 		.4byte	.LASF164
 6024 0ba2 19       		.byte	0x19
 6025 0ba3 AC       		.byte	0xac
 6026 0ba4 5A080000 		.4byte	0x85a
 6027 0ba8 1A       		.byte	0x1a
 6028 0ba9 07       		.uleb128 0x7
 6029 0baa 8D080000 		.4byte	.LASF165
 6030 0bae 19       		.byte	0x19
 6031 0baf AF       		.byte	0xaf
 6032 0bb0 5A080000 		.4byte	0x85a
 6033 0bb4 1C       		.byte	0x1c
 6034 0bb5 07       		.uleb128 0x7
 6035 0bb6 420A0000 		.4byte	.LASF143
 6036 0bba 19       		.byte	0x19
 6037 0bbb B1       		.byte	0xb1
 6038 0bbc 44080000 		.4byte	0x844
 6039 0bc0 1E       		.byte	0x1e
 6040 0bc1 07       		.uleb128 0x7
 6041 0bc2 D3000000 		.4byte	.LASF166
 6042 0bc6 19       		.byte	0x19
 6043 0bc7 BF       		.byte	0xbf
 6044 0bc8 44080000 		.4byte	0x844
 6045 0bcc 1F       		.byte	0x1f
 6046 0bcd 07       		.uleb128 0x7
ARM GAS  C:\Users\jo\AppData\Local\Temp\ccpE7U9z.s 			page 110


 6047 0bce 0C060000 		.4byte	.LASF167
 6048 0bd2 19       		.byte	0x19
 6049 0bd3 BF       		.byte	0xbf
 6050 0bd4 44080000 		.4byte	0x844
 6051 0bd8 20       		.byte	0x20
 6052 0bd9 07       		.uleb128 0x7
 6053 0bda 0D0B0000 		.4byte	.LASF168
 6054 0bde 19       		.byte	0x19
 6055 0bdf C0       		.byte	0xc0
 6056 0be0 44080000 		.4byte	0x844
 6057 0be4 21       		.byte	0x21
 6058 0be5 10       		.uleb128 0x10
 6059 0be6 746D7200 		.ascii	"tmr\000"
 6060 0bea 19       		.byte	0x19
 6061 0beb C1       		.byte	0xc1
 6062 0bec 70080000 		.4byte	0x870
 6063 0bf0 24       		.byte	0x24
 6064 0bf1 07       		.uleb128 0x7
 6065 0bf2 B2040000 		.4byte	.LASF169
 6066 0bf6 19       		.byte	0x19
 6067 0bf7 C4       		.byte	0xc4
 6068 0bf8 70080000 		.4byte	0x870
 6069 0bfc 28       		.byte	0x28
 6070 0bfd 07       		.uleb128 0x7
 6071 0bfe D20A0000 		.4byte	.LASF170
 6072 0c02 19       		.byte	0x19
 6073 0c03 C5       		.byte	0xc5
 6074 0c04 5A080000 		.4byte	0x85a
 6075 0c08 2C       		.byte	0x2c
 6076 0c09 07       		.uleb128 0x7
 6077 0c0a 76030000 		.4byte	.LASF171
 6078 0c0e 19       		.byte	0x19
 6079 0c0f C6       		.byte	0xc6
 6080 0c10 5A080000 		.4byte	0x85a
 6081 0c14 2E       		.byte	0x2e
 6082 0c15 07       		.uleb128 0x7
 6083 0c16 F8010000 		.4byte	.LASF172
 6084 0c1a 19       		.byte	0x19
 6085 0c1b C7       		.byte	0xc7
 6086 0c1c 70080000 		.4byte	0x870
 6087 0c20 30       		.byte	0x30
 6088 0c21 07       		.uleb128 0x7
 6089 0c22 58090000 		.4byte	.LASF173
 6090 0c26 19       		.byte	0x19
 6091 0c27 CA       		.byte	0xca
 6092 0c28 65080000 		.4byte	0x865
 6093 0c2c 34       		.byte	0x34
 6094 0c2d 10       		.uleb128 0x10
 6095 0c2e 6D737300 		.ascii	"mss\000"
 6096 0c32 19       		.byte	0x19
 6097 0c33 CC       		.byte	0xcc
 6098 0c34 5A080000 		.4byte	0x85a
 6099 0c38 36       		.byte	0x36
 6100 0c39 07       		.uleb128 0x7
 6101 0c3a DA0A0000 		.4byte	.LASF174
 6102 0c3e 19       		.byte	0x19
 6103 0c3f CF       		.byte	0xcf
ARM GAS  C:\Users\jo\AppData\Local\Temp\ccpE7U9z.s 			page 111


 6104 0c40 70080000 		.4byte	0x870
 6105 0c44 38       		.byte	0x38
 6106 0c45 07       		.uleb128 0x7
 6107 0c46 53040000 		.4byte	.LASF175
 6108 0c4a 19       		.byte	0x19
 6109 0c4b D0       		.byte	0xd0
 6110 0c4c 70080000 		.4byte	0x870
 6111 0c50 3C       		.byte	0x3c
 6112 0c51 10       		.uleb128 0x10
 6113 0c52 736100   		.ascii	"sa\000"
 6114 0c55 19       		.byte	0x19
 6115 0c56 D1       		.byte	0xd1
 6116 0c57 65080000 		.4byte	0x865
 6117 0c5b 40       		.byte	0x40
 6118 0c5c 10       		.uleb128 0x10
 6119 0c5d 737600   		.ascii	"sv\000"
 6120 0c60 19       		.byte	0x19
 6121 0c61 D1       		.byte	0xd1
 6122 0c62 65080000 		.4byte	0x865
 6123 0c66 42       		.byte	0x42
 6124 0c67 10       		.uleb128 0x10
 6125 0c68 72746F00 		.ascii	"rto\000"
 6126 0c6c 19       		.byte	0x19
 6127 0c6d D3       		.byte	0xd3
 6128 0c6e 65080000 		.4byte	0x865
 6129 0c72 44       		.byte	0x44
 6130 0c73 07       		.uleb128 0x7
 6131 0c74 1B100000 		.4byte	.LASF176
 6132 0c78 19       		.byte	0x19
 6133 0c79 D4       		.byte	0xd4
 6134 0c7a 44080000 		.4byte	0x844
 6135 0c7e 46       		.byte	0x46
 6136 0c7f 07       		.uleb128 0x7
 6137 0c80 FF050000 		.4byte	.LASF177
 6138 0c84 19       		.byte	0x19
 6139 0c85 D7       		.byte	0xd7
 6140 0c86 44080000 		.4byte	0x844
 6141 0c8a 47       		.byte	0x47
 6142 0c8b 07       		.uleb128 0x7
 6143 0c8c D4080000 		.4byte	.LASF178
 6144 0c90 19       		.byte	0x19
 6145 0c91 D8       		.byte	0xd8
 6146 0c92 70080000 		.4byte	0x870
 6147 0c96 48       		.byte	0x48
 6148 0c97 07       		.uleb128 0x7
 6149 0c98 59030000 		.4byte	.LASF179
 6150 0c9c 19       		.byte	0x19
 6151 0c9d DB       		.byte	0xdb
 6152 0c9e 5A080000 		.4byte	0x85a
 6153 0ca2 4C       		.byte	0x4c
 6154 0ca3 07       		.uleb128 0x7
 6155 0ca4 C40B0000 		.4byte	.LASF180
 6156 0ca8 19       		.byte	0x19
 6157 0ca9 DC       		.byte	0xdc
 6158 0caa 5A080000 		.4byte	0x85a
 6159 0cae 4E       		.byte	0x4e
 6160 0caf 07       		.uleb128 0x7
ARM GAS  C:\Users\jo\AppData\Local\Temp\ccpE7U9z.s 			page 112


 6161 0cb0 5E0B0000 		.4byte	.LASF181
 6162 0cb4 19       		.byte	0x19
 6163 0cb5 DF       		.byte	0xdf
 6164 0cb6 70080000 		.4byte	0x870
 6165 0cba 50       		.byte	0x50
 6166 0cbb 07       		.uleb128 0x7
 6167 0cbc BB060000 		.4byte	.LASF182
 6168 0cc0 19       		.byte	0x19
 6169 0cc1 E0       		.byte	0xe0
 6170 0cc2 70080000 		.4byte	0x870
 6171 0cc6 54       		.byte	0x54
 6172 0cc7 07       		.uleb128 0x7
 6173 0cc8 C3060000 		.4byte	.LASF183
 6174 0ccc 19       		.byte	0x19
 6175 0ccd E0       		.byte	0xe0
 6176 0cce 70080000 		.4byte	0x870
 6177 0cd2 58       		.byte	0x58
 6178 0cd3 07       		.uleb128 0x7
 6179 0cd4 CF050000 		.4byte	.LASF184
 6180 0cd8 19       		.byte	0x19
 6181 0cd9 E2       		.byte	0xe2
 6182 0cda 70080000 		.4byte	0x870
 6183 0cde 5C       		.byte	0x5c
 6184 0cdf 07       		.uleb128 0x7
 6185 0ce0 730F0000 		.4byte	.LASF185
 6186 0ce4 19       		.byte	0x19
 6187 0ce5 E3       		.byte	0xe3
 6188 0ce6 5A080000 		.4byte	0x85a
 6189 0cea 60       		.byte	0x60
 6190 0ceb 07       		.uleb128 0x7
 6191 0cec 8A0B0000 		.4byte	.LASF186
 6192 0cf0 19       		.byte	0x19
 6193 0cf1 E4       		.byte	0xe4
 6194 0cf2 5A080000 		.4byte	0x85a
 6195 0cf6 62       		.byte	0x62
 6196 0cf7 07       		.uleb128 0x7
 6197 0cf8 5F060000 		.4byte	.LASF187
 6198 0cfc 19       		.byte	0x19
 6199 0cfd E6       		.byte	0xe6
 6200 0cfe 5A080000 		.4byte	0x85a
 6201 0d02 64       		.byte	0x64
 6202 0d03 07       		.uleb128 0x7
 6203 0d04 D60B0000 		.4byte	.LASF188
 6204 0d08 19       		.byte	0x19
 6205 0d09 E8       		.byte	0xe8
 6206 0d0a 5A080000 		.4byte	0x85a
 6207 0d0e 66       		.byte	0x66
 6208 0d0f 07       		.uleb128 0x7
 6209 0d10 CE0D0000 		.4byte	.LASF189
 6210 0d14 19       		.byte	0x19
 6211 0d15 EA       		.byte	0xea
 6212 0d16 5A080000 		.4byte	0x85a
 6213 0d1a 68       		.byte	0x68
 6214 0d1b 07       		.uleb128 0x7
 6215 0d1c 3F0B0000 		.4byte	.LASF190
 6216 0d20 19       		.byte	0x19
 6217 0d21 EE       		.byte	0xee
ARM GAS  C:\Users\jo\AppData\Local\Temp\ccpE7U9z.s 			page 113


 6218 0d22 5A080000 		.4byte	0x85a
 6219 0d26 6A       		.byte	0x6a
 6220 0d27 07       		.uleb128 0x7
 6221 0d28 CB0A0000 		.4byte	.LASF191
 6222 0d2c 19       		.byte	0x19
 6223 0d2d F2       		.byte	0xf2
 6224 0d2e 110F0000 		.4byte	0xf11
 6225 0d32 6C       		.byte	0x6c
 6226 0d33 07       		.uleb128 0x7
 6227 0d34 D9040000 		.4byte	.LASF192
 6228 0d38 19       		.byte	0x19
 6229 0d39 F3       		.byte	0xf3
 6230 0d3a 110F0000 		.4byte	0xf11
 6231 0d3e 70       		.byte	0x70
 6232 0d3f 07       		.uleb128 0x7
 6233 0d40 5E010000 		.4byte	.LASF193
 6234 0d44 19       		.byte	0x19
 6235 0d45 F5       		.byte	0xf5
 6236 0d46 110F0000 		.4byte	0xf11
 6237 0d4a 74       		.byte	0x74
 6238 0d4b 07       		.uleb128 0x7
 6239 0d4c 5F0C0000 		.4byte	.LASF194
 6240 0d50 19       		.byte	0x19
 6241 0d51 F8       		.byte	0xf8
 6242 0d52 8F090000 		.4byte	0x98f
 6243 0d56 78       		.byte	0x78
 6244 0d57 07       		.uleb128 0x7
 6245 0d58 AE060000 		.4byte	.LASF195
 6246 0d5c 19       		.byte	0x19
 6247 0d5d FC       		.byte	0xfc
 6248 0d5e FA0D0000 		.4byte	0xdfa
 6249 0d62 7C       		.byte	0x7c
 6250 0d63 07       		.uleb128 0x7
 6251 0d64 080E0000 		.4byte	.LASF196
 6252 0d68 19       		.byte	0x19
 6253 0d69 FE       		.byte	0xfe
 6254 0d6a CB0D0000 		.4byte	0xdcb
 6255 0d6e 80       		.byte	0x80
 6256 0d6f 09       		.uleb128 0x9
 6257 0d70 47050000 		.4byte	.LASF197
 6258 0d74 19       		.byte	0x19
 6259 0d75 0001     		.2byte	0x100
 6260 0d77 6A0E0000 		.4byte	0xe6a
 6261 0d7b 84       		.byte	0x84
 6262 0d7c 09       		.uleb128 0x9
 6263 0d7d 35090000 		.4byte	.LASF198
 6264 0d81 19       		.byte	0x19
 6265 0d82 0201     		.2byte	0x102
 6266 0d84 240E0000 		.4byte	0xe24
 6267 0d88 88       		.byte	0x88
 6268 0d89 09       		.uleb128 0x9
 6269 0d8a CB090000 		.4byte	.LASF199
 6270 0d8e 19       		.byte	0x19
 6271 0d8f 0401     		.2byte	0x104
 6272 0d91 490E0000 		.4byte	0xe49
 6273 0d95 8C       		.byte	0x8c
 6274 0d96 09       		.uleb128 0x9
ARM GAS  C:\Users\jo\AppData\Local\Temp\ccpE7U9z.s 			page 114


 6275 0d97 2E0D0000 		.4byte	.LASF200
 6276 0d9b 19       		.byte	0x19
 6277 0d9c 0D01     		.2byte	0x10d
 6278 0d9e 70080000 		.4byte	0x870
 6279 0da2 90       		.byte	0x90
 6280 0da3 09       		.uleb128 0x9
 6281 0da4 7B0F0000 		.4byte	.LASF201
 6282 0da8 19       		.byte	0x19
 6283 0da9 1401     		.2byte	0x114
 6284 0dab 44080000 		.4byte	0x844
 6285 0daf 94       		.byte	0x94
 6286 0db0 09       		.uleb128 0x9
 6287 0db1 BD070000 		.4byte	.LASF202
 6288 0db5 19       		.byte	0x19
 6289 0db6 1601     		.2byte	0x116
 6290 0db8 44080000 		.4byte	0x844
 6291 0dbc 95       		.byte	0x95
 6292 0dbd 09       		.uleb128 0x9
 6293 0dbe 91020000 		.4byte	.LASF203
 6294 0dc2 19       		.byte	0x19
 6295 0dc3 1901     		.2byte	0x119
 6296 0dc5 44080000 		.4byte	0x844
 6297 0dc9 96       		.byte	0x96
 6298 0dca 00       		.byte	0
 6299 0dcb 03       		.uleb128 0x3
 6300 0dcc 13090000 		.4byte	.LASF204
 6301 0dd0 19       		.byte	0x19
 6302 0dd1 48       		.byte	0x48
 6303 0dd2 D60D0000 		.4byte	0xdd6
 6304 0dd6 0B       		.uleb128 0xb
 6305 0dd7 04       		.byte	0x4
 6306 0dd8 DC0D0000 		.4byte	0xddc
 6307 0ddc 19       		.uleb128 0x19
 6308 0ddd 23090000 		.4byte	0x923
 6309 0de1 FA0D0000 		.4byte	0xdfa
 6310 0de5 0D       		.uleb128 0xd
 6311 0de6 3C030000 		.4byte	0x33c
 6312 0dea 0D       		.uleb128 0xd
 6313 0deb 130B0000 		.4byte	0xb13
 6314 0def 0D       		.uleb128 0xd
 6315 0df0 8F090000 		.4byte	0x98f
 6316 0df4 0D       		.uleb128 0xd
 6317 0df5 23090000 		.4byte	0x923
 6318 0df9 00       		.byte	0
 6319 0dfa 03       		.uleb128 0x3
 6320 0dfb B9020000 		.4byte	.LASF205
 6321 0dff 19       		.byte	0x19
 6322 0e00 56       		.byte	0x56
 6323 0e01 050E0000 		.4byte	0xe05
 6324 0e05 0B       		.uleb128 0xb
 6325 0e06 04       		.byte	0x4
 6326 0e07 0B0E0000 		.4byte	0xe0b
 6327 0e0b 19       		.uleb128 0x19
 6328 0e0c 23090000 		.4byte	0x923
 6329 0e10 240E0000 		.4byte	0xe24
 6330 0e14 0D       		.uleb128 0xd
 6331 0e15 3C030000 		.4byte	0x33c
ARM GAS  C:\Users\jo\AppData\Local\Temp\ccpE7U9z.s 			page 115


 6332 0e19 0D       		.uleb128 0xd
 6333 0e1a 130B0000 		.4byte	0xb13
 6334 0e1e 0D       		.uleb128 0xd
 6335 0e1f 5A080000 		.4byte	0x85a
 6336 0e23 00       		.byte	0
 6337 0e24 03       		.uleb128 0x3
 6338 0e25 D0090000 		.4byte	.LASF206
 6339 0e29 19       		.byte	0x19
 6340 0e2a 62       		.byte	0x62
 6341 0e2b 2F0E0000 		.4byte	0xe2f
 6342 0e2f 0B       		.uleb128 0xb
 6343 0e30 04       		.byte	0x4
 6344 0e31 350E0000 		.4byte	0xe35
 6345 0e35 19       		.uleb128 0x19
 6346 0e36 23090000 		.4byte	0x923
 6347 0e3a 490E0000 		.4byte	0xe49
 6348 0e3e 0D       		.uleb128 0xd
 6349 0e3f 3C030000 		.4byte	0x33c
 6350 0e43 0D       		.uleb128 0xd
 6351 0e44 130B0000 		.4byte	0xb13
 6352 0e48 00       		.byte	0
 6353 0e49 03       		.uleb128 0x3
 6354 0e4a EA060000 		.4byte	.LASF207
 6355 0e4e 19       		.byte	0x19
 6356 0e4f 6E       		.byte	0x6e
 6357 0e50 540E0000 		.4byte	0xe54
 6358 0e54 0B       		.uleb128 0xb
 6359 0e55 04       		.byte	0x4
 6360 0e56 5A0E0000 		.4byte	0xe5a
 6361 0e5a 0C       		.uleb128 0xc
 6362 0e5b 6A0E0000 		.4byte	0xe6a
 6363 0e5f 0D       		.uleb128 0xd
 6364 0e60 3C030000 		.4byte	0x33c
 6365 0e64 0D       		.uleb128 0xd
 6366 0e65 23090000 		.4byte	0x923
 6367 0e69 00       		.byte	0
 6368 0e6a 03       		.uleb128 0x3
 6369 0e6b 3A010000 		.4byte	.LASF208
 6370 0e6f 19       		.byte	0x19
 6371 0e70 7C       		.byte	0x7c
 6372 0e71 F40A0000 		.4byte	0xaf4
 6373 0e75 1C       		.uleb128 0x1c
 6374 0e76 EE090000 		.4byte	.LASF363
 6375 0e7a 01       		.byte	0x1
 6376 0e7b 19       		.byte	0x19
 6377 0e7c 7E       		.byte	0x7e
 6378 0e7d C40E0000 		.4byte	0xec4
 6379 0e81 1B       		.uleb128 0x1b
 6380 0e82 530A0000 		.4byte	.LASF209
 6381 0e86 00       		.sleb128 0
 6382 0e87 1B       		.uleb128 0x1b
 6383 0e88 520D0000 		.4byte	.LASF210
 6384 0e8c 01       		.sleb128 1
 6385 0e8d 1B       		.uleb128 0x1b
 6386 0e8e 4F0B0000 		.4byte	.LASF211
 6387 0e92 02       		.sleb128 2
 6388 0e93 1B       		.uleb128 0x1b
ARM GAS  C:\Users\jo\AppData\Local\Temp\ccpE7U9z.s 			page 116


 6389 0e94 38100000 		.4byte	.LASF212
 6390 0e98 03       		.sleb128 3
 6391 0e99 1B       		.uleb128 0x1b
 6392 0e9a 700B0000 		.4byte	.LASF213
 6393 0e9e 04       		.sleb128 4
 6394 0e9f 1B       		.uleb128 0x1b
 6395 0ea0 D00C0000 		.4byte	.LASF214
 6396 0ea4 05       		.sleb128 5
 6397 0ea5 1B       		.uleb128 0x1b
 6398 0ea6 DB0C0000 		.4byte	.LASF215
 6399 0eaa 06       		.sleb128 6
 6400 0eab 1B       		.uleb128 0x1b
 6401 0eac 65060000 		.4byte	.LASF216
 6402 0eb0 07       		.sleb128 7
 6403 0eb1 1B       		.uleb128 0x1b
 6404 0eb2 7D050000 		.4byte	.LASF217
 6405 0eb6 08       		.sleb128 8
 6406 0eb7 1B       		.uleb128 0x1b
 6407 0eb8 07050000 		.4byte	.LASF218
 6408 0ebc 09       		.sleb128 9
 6409 0ebd 1B       		.uleb128 0x1b
 6410 0ebe 1A010000 		.4byte	.LASF219
 6411 0ec2 0A       		.sleb128 10
 6412 0ec3 00       		.byte	0
 6413 0ec4 0A       		.uleb128 0xa
 6414 0ec5 13040000 		.4byte	.LASF220
 6415 0ec9 10       		.byte	0x10
 6416 0eca 1A       		.byte	0x1a
 6417 0ecb 1501     		.2byte	0x115
 6418 0ecd 110F0000 		.4byte	0xf11
 6419 0ed1 09       		.uleb128 0x9
 6420 0ed2 4B010000 		.4byte	.LASF139
 6421 0ed6 1A       		.byte	0x1a
 6422 0ed7 1601     		.2byte	0x116
 6423 0ed9 110F0000 		.4byte	0xf11
 6424 0edd 00       		.byte	0
 6425 0ede 08       		.uleb128 0x8
 6426 0edf 7000     		.ascii	"p\000"
 6427 0ee1 1A       		.byte	0x1a
 6428 0ee2 1701     		.2byte	0x117
 6429 0ee4 8F090000 		.4byte	0x98f
 6430 0ee8 04       		.byte	0x4
 6431 0ee9 08       		.uleb128 0x8
 6432 0eea 6C656E00 		.ascii	"len\000"
 6433 0eee 1A       		.byte	0x1a
 6434 0eef 1801     		.2byte	0x118
 6435 0ef1 5A080000 		.4byte	0x85a
 6436 0ef5 08       		.byte	0x8
 6437 0ef6 09       		.uleb128 0x9
 6438 0ef7 420A0000 		.4byte	.LASF143
 6439 0efb 1A       		.byte	0x1a
 6440 0efc 2201     		.2byte	0x122
 6441 0efe 44080000 		.4byte	0x844
 6442 0f02 0A       		.byte	0xa
 6443 0f03 09       		.uleb128 0x9
 6444 0f04 450C0000 		.4byte	.LASF221
 6445 0f08 1A       		.byte	0x1a
ARM GAS  C:\Users\jo\AppData\Local\Temp\ccpE7U9z.s 			page 117


 6446 0f09 2701     		.2byte	0x127
 6447 0f0b 27100000 		.4byte	0x1027
 6448 0f0f 0C       		.byte	0xc
 6449 0f10 00       		.byte	0
 6450 0f11 0B       		.uleb128 0xb
 6451 0f12 04       		.byte	0x4
 6452 0f13 C40E0000 		.4byte	0xec4
 6453 0f17 0A       		.uleb128 0xa
 6454 0f18 86070000 		.4byte	.LASF222
 6455 0f1c 1C       		.byte	0x1c
 6456 0f1d 19       		.byte	0x19
 6457 0f1e 1C01     		.2byte	0x11c
 6458 0f20 B40F0000 		.4byte	0xfb4
 6459 0f24 09       		.uleb128 0x9
 6460 0f25 250B0000 		.4byte	.LASF158
 6461 0f29 19       		.byte	0x19
 6462 0f2a 1E01     		.2byte	0x11e
 6463 0f2c 18090000 		.4byte	0x918
 6464 0f30 00       		.byte	0
 6465 0f31 09       		.uleb128 0x9
 6466 0f32 870F0000 		.4byte	.LASF159
 6467 0f36 19       		.byte	0x19
 6468 0f37 1E01     		.2byte	0x11e
 6469 0f39 18090000 		.4byte	0x918
 6470 0f3d 04       		.byte	0x4
 6471 0f3e 09       		.uleb128 0x9
 6472 0f3f 87000000 		.4byte	.LASF160
 6473 0f43 19       		.byte	0x19
 6474 0f44 1E01     		.2byte	0x11e
 6475 0f46 44080000 		.4byte	0x844
 6476 0f4a 08       		.byte	0x8
 6477 0f4b 08       		.uleb128 0x8
 6478 0f4c 746F7300 		.ascii	"tos\000"
 6479 0f50 19       		.byte	0x19
 6480 0f51 1E01     		.2byte	0x11e
 6481 0f53 44080000 		.4byte	0x844
 6482 0f57 09       		.byte	0x9
 6483 0f58 08       		.uleb128 0x8
 6484 0f59 74746C00 		.ascii	"ttl\000"
 6485 0f5d 19       		.byte	0x19
 6486 0f5e 1E01     		.2byte	0x11e
 6487 0f60 44080000 		.4byte	0x844
 6488 0f64 0A       		.byte	0xa
 6489 0f65 09       		.uleb128 0x9
 6490 0f66 4B010000 		.4byte	.LASF139
 6491 0f6a 19       		.byte	0x19
 6492 0f6b 2001     		.2byte	0x120
 6493 0f6d B40F0000 		.4byte	0xfb4
 6494 0f71 0C       		.byte	0xc
 6495 0f72 09       		.uleb128 0x9
 6496 0f73 450D0000 		.4byte	.LASF161
 6497 0f77 19       		.byte	0x19
 6498 0f78 2001     		.2byte	0x120
 6499 0f7a 3C030000 		.4byte	0x33c
 6500 0f7e 10       		.byte	0x10
 6501 0f7f 09       		.uleb128 0x9
 6502 0f80 95030000 		.4byte	.LASF162
ARM GAS  C:\Users\jo\AppData\Local\Temp\ccpE7U9z.s 			page 118


 6503 0f84 19       		.byte	0x19
 6504 0f85 2001     		.2byte	0x120
 6505 0f87 E90A0000 		.4byte	0xae9
 6506 0f8b 14       		.byte	0x14
 6507 0f8c 09       		.uleb128 0x9
 6508 0f8d 720D0000 		.4byte	.LASF149
 6509 0f91 19       		.byte	0x19
 6510 0f92 2001     		.2byte	0x120
 6511 0f94 750E0000 		.4byte	0xe75
 6512 0f98 18       		.byte	0x18
 6513 0f99 09       		.uleb128 0x9
 6514 0f9a 07060000 		.4byte	.LASF163
 6515 0f9e 19       		.byte	0x19
 6516 0f9f 2001     		.2byte	0x120
 6517 0fa1 44080000 		.4byte	0x844
 6518 0fa5 19       		.byte	0x19
 6519 0fa6 09       		.uleb128 0x9
 6520 0fa7 C3030000 		.4byte	.LASF164
 6521 0fab 19       		.byte	0x19
 6522 0fac 2001     		.2byte	0x120
 6523 0fae 5A080000 		.4byte	0x85a
 6524 0fb2 1A       		.byte	0x1a
 6525 0fb3 00       		.byte	0
 6526 0fb4 0B       		.uleb128 0xb
 6527 0fb5 04       		.byte	0x4
 6528 0fb6 170F0000 		.4byte	0xf17
 6529 0fba 06       		.uleb128 0x6
 6530 0fbb 9B0C0000 		.4byte	.LASF223
 6531 0fbf 14       		.byte	0x14
 6532 0fc0 1A       		.byte	0x1a
 6533 0fc1 9F       		.byte	0x9f
 6534 0fc2 27100000 		.4byte	0x1027
 6535 0fc6 10       		.uleb128 0x10
 6536 0fc7 73726300 		.ascii	"src\000"
 6537 0fcb 1A       		.byte	0x1a
 6538 0fcc A0       		.byte	0xa0
 6539 0fcd 5A080000 		.4byte	0x85a
 6540 0fd1 00       		.byte	0
 6541 0fd2 07       		.uleb128 0x7
 6542 0fd3 2B100000 		.4byte	.LASF224
 6543 0fd7 1A       		.byte	0x1a
 6544 0fd8 A1       		.byte	0xa1
 6545 0fd9 5A080000 		.4byte	0x85a
 6546 0fdd 02       		.byte	0x2
 6547 0fde 07       		.uleb128 0x7
 6548 0fdf 16030000 		.4byte	.LASF225
 6549 0fe3 1A       		.byte	0x1a
 6550 0fe4 A2       		.byte	0xa2
 6551 0fe5 70080000 		.4byte	0x870
 6552 0fe9 04       		.byte	0x4
 6553 0fea 07       		.uleb128 0x7
 6554 0feb 9B070000 		.4byte	.LASF226
 6555 0fef 1A       		.byte	0x1a
 6556 0ff0 A3       		.byte	0xa3
 6557 0ff1 70080000 		.4byte	0x870
 6558 0ff5 08       		.byte	0x8
 6559 0ff6 07       		.uleb128 0x7
ARM GAS  C:\Users\jo\AppData\Local\Temp\ccpE7U9z.s 			page 119


 6560 0ff7 E30B0000 		.4byte	.LASF227
 6561 0ffb 1A       		.byte	0x1a
 6562 0ffc A4       		.byte	0xa4
 6563 0ffd 5A080000 		.4byte	0x85a
 6564 1001 0C       		.byte	0xc
 6565 1002 10       		.uleb128 0x10
 6566 1003 776E6400 		.ascii	"wnd\000"
 6567 1007 1A       		.byte	0x1a
 6568 1008 A5       		.byte	0xa5
 6569 1009 5A080000 		.4byte	0x85a
 6570 100d 0E       		.byte	0xe
 6571 100e 07       		.uleb128 0x7
 6572 100f 10050000 		.4byte	.LASF228
 6573 1013 1A       		.byte	0x1a
 6574 1014 A6       		.byte	0xa6
 6575 1015 5A080000 		.4byte	0x85a
 6576 1019 10       		.byte	0x10
 6577 101a 07       		.uleb128 0x7
 6578 101b B5000000 		.4byte	.LASF229
 6579 101f 1A       		.byte	0x1a
 6580 1020 A7       		.byte	0xa7
 6581 1021 5A080000 		.4byte	0x85a
 6582 1025 12       		.byte	0x12
 6583 1026 00       		.byte	0
 6584 1027 0B       		.uleb128 0xb
 6585 1028 04       		.byte	0x4
 6586 1029 BA0F0000 		.4byte	0xfba
 6587 102d 1D       		.uleb128 0x1d
 6588 102e 07070000 		.4byte	.LASF364
 6589 1032 04       		.byte	0x4
 6590 1033 1A       		.byte	0x1a
 6591 1034 3701     		.2byte	0x137
 6592 1036 53100000 		.4byte	0x1053
 6593 103a 16       		.uleb128 0x16
 6594 103b 10000000 		.4byte	.LASF230
 6595 103f 1A       		.byte	0x1a
 6596 1040 3801     		.2byte	0x138
 6597 1042 B40F0000 		.4byte	0xfb4
 6598 1046 16       		.uleb128 0x16
 6599 1047 49100000 		.4byte	.LASF231
 6600 104b 1A       		.byte	0x1a
 6601 104c 3901     		.2byte	0x139
 6602 104e 130B0000 		.4byte	0xb13
 6603 1052 00       		.byte	0
 6604 1053 06       		.uleb128 0x6
 6605 1054 25000000 		.4byte	.LASF232
 6606 1058 18       		.byte	0x18
 6607 1059 1B       		.byte	0x1b
 6608 105a 3A       		.byte	0x3a
 6609 105b EF100000 		.4byte	0x10ef
 6610 105f 07       		.uleb128 0x7
 6611 1060 7C0B0000 		.4byte	.LASF233
 6612 1064 1B       		.byte	0x1b
 6613 1065 3B       		.byte	0x3b
 6614 1066 5A080000 		.4byte	0x85a
 6615 106a 00       		.byte	0
 6616 106b 07       		.uleb128 0x7
ARM GAS  C:\Users\jo\AppData\Local\Temp\ccpE7U9z.s 			page 120


 6617 106c 080E0000 		.4byte	.LASF196
 6618 1070 1B       		.byte	0x1b
 6619 1071 3C       		.byte	0x3c
 6620 1072 5A080000 		.4byte	0x85a
 6621 1076 02       		.byte	0x2
 6622 1077 10       		.uleb128 0x10
 6623 1078 667700   		.ascii	"fw\000"
 6624 107b 1B       		.byte	0x1b
 6625 107c 3D       		.byte	0x3d
 6626 107d 5A080000 		.4byte	0x85a
 6627 1081 04       		.byte	0x4
 6628 1082 07       		.uleb128 0x7
 6629 1083 6D0D0000 		.4byte	.LASF234
 6630 1087 1B       		.byte	0x1b
 6631 1088 3E       		.byte	0x3e
 6632 1089 5A080000 		.4byte	0x85a
 6633 108d 06       		.byte	0x6
 6634 108e 07       		.uleb128 0x7
 6635 108f F5080000 		.4byte	.LASF235
 6636 1093 1B       		.byte	0x1b
 6637 1094 3F       		.byte	0x3f
 6638 1095 5A080000 		.4byte	0x85a
 6639 1099 08       		.byte	0x8
 6640 109a 07       		.uleb128 0x7
 6641 109b F60B0000 		.4byte	.LASF236
 6642 109f 1B       		.byte	0x1b
 6643 10a0 40       		.byte	0x40
 6644 10a1 5A080000 		.4byte	0x85a
 6645 10a5 0A       		.byte	0xa
 6646 10a6 07       		.uleb128 0x7
 6647 10a7 FC0C0000 		.4byte	.LASF237
 6648 10ab 1B       		.byte	0x1b
 6649 10ac 41       		.byte	0x41
 6650 10ad 5A080000 		.4byte	0x85a
 6651 10b1 0C       		.byte	0xc
 6652 10b2 07       		.uleb128 0x7
 6653 10b3 B20A0000 		.4byte	.LASF238
 6654 10b7 1B       		.byte	0x1b
 6655 10b8 42       		.byte	0x42
 6656 10b9 5A080000 		.4byte	0x85a
 6657 10bd 0E       		.byte	0xe
 6658 10be 07       		.uleb128 0x7
 6659 10bf 7C0C0000 		.4byte	.LASF239
 6660 10c3 1B       		.byte	0x1b
 6661 10c4 43       		.byte	0x43
 6662 10c5 5A080000 		.4byte	0x85a
 6663 10c9 10       		.byte	0x10
 6664 10ca 07       		.uleb128 0x7
 6665 10cb BC030000 		.4byte	.LASF240
 6666 10cf 1B       		.byte	0x1b
 6667 10d0 44       		.byte	0x44
 6668 10d1 5A080000 		.4byte	0x85a
 6669 10d5 12       		.byte	0x12
 6670 10d6 10       		.uleb128 0x10
 6671 10d7 65727200 		.ascii	"err\000"
 6672 10db 1B       		.byte	0x1b
 6673 10dc 45       		.byte	0x45
ARM GAS  C:\Users\jo\AppData\Local\Temp\ccpE7U9z.s 			page 121


 6674 10dd 5A080000 		.4byte	0x85a
 6675 10e1 14       		.byte	0x14
 6676 10e2 07       		.uleb128 0x7
 6677 10e3 810B0000 		.4byte	.LASF241
 6678 10e7 1B       		.byte	0x1b
 6679 10e8 46       		.byte	0x46
 6680 10e9 5A080000 		.4byte	0x85a
 6681 10ed 16       		.byte	0x16
 6682 10ee 00       		.byte	0
 6683 10ef 06       		.uleb128 0x6
 6684 10f0 2F020000 		.4byte	.LASF242
 6685 10f4 0A       		.byte	0xa
 6686 10f5 1B       		.byte	0x1b
 6687 10f6 5A       		.byte	0x5a
 6688 10f7 38110000 		.4byte	0x1138
 6689 10fb 07       		.uleb128 0x7
 6690 10fc C50A0000 		.4byte	.LASF243
 6691 1100 1B       		.byte	0x1b
 6692 1101 5E       		.byte	0x5e
 6693 1102 86080000 		.4byte	0x886
 6694 1106 00       		.byte	0
 6695 1107 07       		.uleb128 0x7
 6696 1108 A3080000 		.4byte	.LASF244
 6697 110c 1B       		.byte	0x1b
 6698 110d 5F       		.byte	0x5f
 6699 110e 86080000 		.4byte	0x886
 6700 1112 02       		.byte	0x2
 6701 1113 10       		.uleb128 0x10
 6702 1114 6D617800 		.ascii	"max\000"
 6703 1118 1B       		.byte	0x1b
 6704 1119 60       		.byte	0x60
 6705 111a 86080000 		.4byte	0x886
 6706 111e 04       		.byte	0x4
 6707 111f 10       		.uleb128 0x10
 6708 1120 65727200 		.ascii	"err\000"
 6709 1124 1B       		.byte	0x1b
 6710 1125 61       		.byte	0x61
 6711 1126 5A080000 		.4byte	0x85a
 6712 112a 06       		.byte	0x6
 6713 112b 07       		.uleb128 0x7
 6714 112c 38060000 		.4byte	.LASF245
 6715 1130 1B       		.byte	0x1b
 6716 1131 62       		.byte	0x62
 6717 1132 5A080000 		.4byte	0x85a
 6718 1136 08       		.byte	0x8
 6719 1137 00       		.byte	0
 6720 1138 06       		.uleb128 0x6
 6721 1139 08030000 		.4byte	.LASF246
 6722 113d 06       		.byte	0x6
 6723 113e 1B       		.byte	0x1b
 6724 113f 65       		.byte	0x65
 6725 1140 69110000 		.4byte	0x1169
 6726 1144 07       		.uleb128 0x7
 6727 1145 A3080000 		.4byte	.LASF244
 6728 1149 1B       		.byte	0x1b
 6729 114a 66       		.byte	0x66
 6730 114b 5A080000 		.4byte	0x85a
ARM GAS  C:\Users\jo\AppData\Local\Temp\ccpE7U9z.s 			page 122


 6731 114f 00       		.byte	0
 6732 1150 10       		.uleb128 0x10
 6733 1151 6D617800 		.ascii	"max\000"
 6734 1155 1B       		.byte	0x1b
 6735 1156 67       		.byte	0x67
 6736 1157 5A080000 		.4byte	0x85a
 6737 115b 02       		.byte	0x2
 6738 115c 10       		.uleb128 0x10
 6739 115d 65727200 		.ascii	"err\000"
 6740 1161 1B       		.byte	0x1b
 6741 1162 68       		.byte	0x68
 6742 1163 5A080000 		.4byte	0x85a
 6743 1167 04       		.byte	0x4
 6744 1168 00       		.byte	0
 6745 1169 06       		.uleb128 0x6
 6746 116a AF0C0000 		.4byte	.LASF247
 6747 116e 12       		.byte	0x12
 6748 116f 1B       		.byte	0x1b
 6749 1170 6B       		.byte	0x6b
 6750 1171 9A110000 		.4byte	0x119a
 6751 1175 10       		.uleb128 0x10
 6752 1176 73656D00 		.ascii	"sem\000"
 6753 117a 1B       		.byte	0x1b
 6754 117b 6C       		.byte	0x6c
 6755 117c 38110000 		.4byte	0x1138
 6756 1180 00       		.byte	0
 6757 1181 07       		.uleb128 0x7
 6758 1182 CE030000 		.4byte	.LASF98
 6759 1186 1B       		.byte	0x1b
 6760 1187 6D       		.byte	0x6d
 6761 1188 38110000 		.4byte	0x1138
 6762 118c 06       		.byte	0x6
 6763 118d 07       		.uleb128 0x7
 6764 118e 340B0000 		.4byte	.LASF248
 6765 1192 1B       		.byte	0x1b
 6766 1193 6E       		.byte	0x6e
 6767 1194 38110000 		.4byte	0x1138
 6768 1198 0C       		.byte	0xc
 6769 1199 00       		.byte	0
 6770 119a 1E       		.uleb128 0x1e
 6771 119b E1040000 		.4byte	.LASF249
 6772 119f 5001     		.2byte	0x150
 6773 11a1 1B       		.byte	0x1b
 6774 11a2 71       		.byte	0x71
 6775 11a3 20120000 		.4byte	0x1220
 6776 11a7 07       		.uleb128 0x7
 6777 11a8 D7050000 		.4byte	.LASF250
 6778 11ac 1B       		.byte	0x1b
 6779 11ad 73       		.byte	0x73
 6780 11ae 53100000 		.4byte	0x1053
 6781 11b2 00       		.byte	0
 6782 11b3 07       		.uleb128 0x7
 6783 11b4 0C040000 		.4byte	.LASF251
 6784 11b8 1B       		.byte	0x1b
 6785 11b9 76       		.byte	0x76
 6786 11ba 53100000 		.4byte	0x1053
 6787 11be 18       		.byte	0x18
ARM GAS  C:\Users\jo\AppData\Local\Temp\ccpE7U9z.s 			page 123


 6788 11bf 07       		.uleb128 0x7
 6789 11c0 D4030000 		.4byte	.LASF252
 6790 11c4 1B       		.byte	0x1b
 6791 11c5 79       		.byte	0x79
 6792 11c6 53100000 		.4byte	0x1053
 6793 11ca 30       		.byte	0x30
 6794 11cb 10       		.uleb128 0x10
 6795 11cc 697000   		.ascii	"ip\000"
 6796 11cf 1B       		.byte	0x1b
 6797 11d0 7C       		.byte	0x7c
 6798 11d1 53100000 		.4byte	0x1053
 6799 11d5 48       		.byte	0x48
 6800 11d6 07       		.uleb128 0x7
 6801 11d7 730A0000 		.4byte	.LASF253
 6802 11db 1B       		.byte	0x1b
 6803 11dc 7F       		.byte	0x7f
 6804 11dd 53100000 		.4byte	0x1053
 6805 11e1 60       		.byte	0x60
 6806 11e2 10       		.uleb128 0x10
 6807 11e3 75647000 		.ascii	"udp\000"
 6808 11e7 1B       		.byte	0x1b
 6809 11e8 85       		.byte	0x85
 6810 11e9 53100000 		.4byte	0x1053
 6811 11ed 78       		.byte	0x78
 6812 11ee 10       		.uleb128 0x10
 6813 11ef 74637000 		.ascii	"tcp\000"
 6814 11f3 1B       		.byte	0x1b
 6815 11f4 88       		.byte	0x88
 6816 11f5 53100000 		.4byte	0x1053
 6817 11f9 90       		.byte	0x90
 6818 11fa 10       		.uleb128 0x10
 6819 11fb 6D656D00 		.ascii	"mem\000"
 6820 11ff 1B       		.byte	0x1b
 6821 1200 8B       		.byte	0x8b
 6822 1201 EF100000 		.4byte	0x10ef
 6823 1205 A8       		.byte	0xa8
 6824 1206 07       		.uleb128 0x7
 6825 1207 DE0B0000 		.4byte	.LASF254
 6826 120b 1B       		.byte	0x1b
 6827 120c 8E       		.byte	0x8e
 6828 120d 20120000 		.4byte	0x1220
 6829 1211 B2       		.byte	0xb2
 6830 1212 1F       		.uleb128 0x1f
 6831 1213 73797300 		.ascii	"sys\000"
 6832 1217 1B       		.byte	0x1b
 6833 1218 91       		.byte	0x91
 6834 1219 69110000 		.4byte	0x1169
 6835 121d 3E01     		.2byte	0x13e
 6836 121f 00       		.byte	0
 6837 1220 17       		.uleb128 0x17
 6838 1221 EF100000 		.4byte	0x10ef
 6839 1225 30120000 		.4byte	0x1230
 6840 1229 18       		.uleb128 0x18
 6841 122a 72040000 		.4byte	0x472
 6842 122e 0D       		.byte	0xd
 6843 122f 00       		.byte	0
 6844 1230 20       		.uleb128 0x20
ARM GAS  C:\Users\jo\AppData\Local\Temp\ccpE7U9z.s 			page 124


 6845 1231 E10A0000 		.4byte	.LASF313
 6846 1235 03       		.byte	0x3
 6847 1236 9C01     		.2byte	0x19c
 6848 1238 03       		.byte	0x3
 6849 1239 4A120000 		.4byte	0x124a
 6850 123d 21       		.uleb128 0x21
 6851 123e 32040000 		.4byte	.LASF255
 6852 1242 03       		.byte	0x3
 6853 1243 9C01     		.2byte	0x19c
 6854 1245 18060000 		.4byte	0x618
 6855 1249 00       		.byte	0
 6856 124a 22       		.uleb128 0x22
 6857 124b 7F040000 		.4byte	.LASF256
 6858 124f 01       		.byte	0x1
 6859 1250 6302     		.2byte	0x263
 6860 1252 01       		.byte	0x1
 6861 1253 7C120000 		.4byte	0x127c
 6862 1257 23       		.uleb128 0x23
 6863 1258 70636200 		.ascii	"pcb\000"
 6864 125c 01       		.byte	0x1
 6865 125d 6302     		.2byte	0x263
 6866 125f 130B0000 		.4byte	0xb13
 6867 1263 23       		.uleb128 0x23
 6868 1264 6C656E00 		.ascii	"len\000"
 6869 1268 01       		.byte	0x1
 6870 1269 6302     		.2byte	0x263
 6871 126b 5A080000 		.4byte	0x85a
 6872 126f 24       		.uleb128 0x24
 6873 1270 7F060000 		.4byte	.LASF258
 6874 1274 01       		.byte	0x1
 6875 1275 6502     		.2byte	0x265
 6876 1277 25000000 		.4byte	0x25
 6877 127b 00       		.byte	0
 6878 127c 22       		.uleb128 0x22
 6879 127d E40F0000 		.4byte	.LASF257
 6880 1281 01       		.byte	0x1
 6881 1282 6804     		.2byte	0x468
 6882 1284 01       		.byte	0x1
 6883 1285 A4120000 		.4byte	0x12a4
 6884 1289 23       		.uleb128 0x23
 6885 128a 73656700 		.ascii	"seg\000"
 6886 128e 01       		.byte	0x1
 6887 128f 6804     		.2byte	0x468
 6888 1291 110F0000 		.4byte	0xf11
 6889 1295 25       		.uleb128 0x25
 6890 1296 24       		.uleb128 0x24
 6891 1297 4B010000 		.4byte	.LASF139
 6892 129b 01       		.byte	0x1
 6893 129c 6B04     		.2byte	0x46b
 6894 129e 110F0000 		.4byte	0xf11
 6895 12a2 00       		.byte	0
 6896 12a3 00       		.byte	0
 6897 12a4 22       		.uleb128 0x22
 6898 12a5 6F050000 		.4byte	.LASF259
 6899 12a9 01       		.byte	0x1
 6900 12aa BE05     		.2byte	0x5be
 6901 12ac 01       		.byte	0x1
ARM GAS  C:\Users\jo\AppData\Local\Temp\ccpE7U9z.s 			page 125


 6902 12ad BE120000 		.4byte	0x12be
 6903 12b1 23       		.uleb128 0x23
 6904 12b2 70636200 		.ascii	"pcb\000"
 6905 12b6 01       		.byte	0x1
 6906 12b7 BE05     		.2byte	0x5be
 6907 12b9 130B0000 		.4byte	0xb13
 6908 12bd 00       		.byte	0
 6909 12be 26       		.uleb128 0x26
 6910 12bf B6050000 		.4byte	.LASF260
 6911 12c3 01       		.byte	0x1
 6912 12c4 AD04     		.2byte	0x4ad
 6913 12c6 23090000 		.4byte	0x923
 6914 12ca 01       		.byte	0x1
 6915 12cb FE120000 		.4byte	0x12fe
 6916 12cf 23       		.uleb128 0x23
 6917 12d0 61726700 		.ascii	"arg\000"
 6918 12d4 01       		.byte	0x1
 6919 12d5 AD04     		.2byte	0x4ad
 6920 12d7 3C030000 		.4byte	0x33c
 6921 12db 23       		.uleb128 0x23
 6922 12dc 70636200 		.ascii	"pcb\000"
 6923 12e0 01       		.byte	0x1
 6924 12e1 AD04     		.2byte	0x4ad
 6925 12e3 130B0000 		.4byte	0xb13
 6926 12e7 23       		.uleb128 0x23
 6927 12e8 7000     		.ascii	"p\000"
 6928 12ea 01       		.byte	0x1
 6929 12eb AD04     		.2byte	0x4ad
 6930 12ed 8F090000 		.4byte	0x98f
 6931 12f1 23       		.uleb128 0x23
 6932 12f2 65727200 		.ascii	"err\000"
 6933 12f6 01       		.byte	0x1
 6934 12f7 AD04     		.2byte	0x4ad
 6935 12f9 23090000 		.4byte	0x923
 6936 12fd 00       		.byte	0
 6937 12fe 26       		.uleb128 0x26
 6938 12ff BA000000 		.4byte	.LASF261
 6939 1303 01       		.byte	0x1
 6940 1304 3D04     		.2byte	0x43d
 6941 1306 23090000 		.4byte	0x923
 6942 130a 01       		.byte	0x1
 6943 130b 40130000 		.4byte	0x1340
 6944 130f 23       		.uleb128 0x23
 6945 1310 70636200 		.ascii	"pcb\000"
 6946 1314 01       		.byte	0x1
 6947 1315 3D04     		.2byte	0x43d
 6948 1317 130B0000 		.4byte	0xb13
 6949 131b 27       		.uleb128 0x27
 6950 131c 65727200 		.ascii	"err\000"
 6951 1320 01       		.byte	0x1
 6952 1321 3F04     		.2byte	0x43f
 6953 1323 23090000 		.4byte	0x923
 6954 1327 24       		.uleb128 0x24
 6955 1328 1C030000 		.4byte	.LASF262
 6956 132c 01       		.byte	0x1
 6957 132d 4004     		.2byte	0x440
 6958 132f 44080000 		.4byte	0x844
ARM GAS  C:\Users\jo\AppData\Local\Temp\ccpE7U9z.s 			page 126


 6959 1333 24       		.uleb128 0x24
 6960 1334 5F0C0000 		.4byte	.LASF194
 6961 1338 01       		.byte	0x1
 6962 1339 4304     		.2byte	0x443
 6963 133b 8F090000 		.4byte	0x98f
 6964 133f 00       		.byte	0
 6965 1340 22       		.uleb128 0x22
 6966 1341 E9000000 		.4byte	.LASF263
 6967 1345 01       		.byte	0x1
 6968 1346 9D01     		.2byte	0x19d
 6969 1348 01       		.byte	0x1
 6970 1349 5A130000 		.4byte	0x135a
 6971 134d 23       		.uleb128 0x23
 6972 134e 70636200 		.ascii	"pcb\000"
 6973 1352 01       		.byte	0x1
 6974 1353 9D01     		.2byte	0x19d
 6975 1355 130B0000 		.4byte	0xb13
 6976 1359 00       		.byte	0
 6977 135a 26       		.uleb128 0x26
 6978 135b 0D0A0000 		.4byte	.LASF264
 6979 135f 01       		.byte	0x1
 6980 1360 2306     		.2byte	0x623
 6981 1362 70080000 		.4byte	0x870
 6982 1366 01       		.byte	0x1
 6983 1367 78130000 		.4byte	0x1378
 6984 136b 27       		.uleb128 0x27
 6985 136c 69737300 		.ascii	"iss\000"
 6986 1370 01       		.byte	0x1
 6987 1371 2506     		.2byte	0x625
 6988 1373 70080000 		.4byte	0x870
 6989 1377 00       		.byte	0
 6990 1378 28       		.uleb128 0x28
 6991 1379 2F060000 		.4byte	.LASF365
 6992 137d 02       		.byte	0x2
 6993 137e 45       		.byte	0x45
 6994 137f 25000000 		.4byte	0x25
 6995 1383 03       		.byte	0x3
 6996 1384 B5130000 		.4byte	0x13b5
 6997 1388 29       		.uleb128 0x29
 6998 1389 63687000 		.ascii	"chp\000"
 6999 138d 02       		.byte	0x2
 7000 138e 45       		.byte	0x45
 7001 138f B5130000 		.4byte	0x13b5
 7002 1393 29       		.uleb128 0x29
 7003 1394 666D7400 		.ascii	"fmt\000"
 7004 1398 02       		.byte	0x2
 7005 1399 45       		.byte	0x45
 7006 139a 18060000 		.4byte	0x618
 7007 139e 2A       		.uleb128 0x2a
 7008 139f 2B       		.uleb128 0x2b
 7009 13a0 617000   		.ascii	"ap\000"
 7010 13a3 02       		.byte	0x2
 7011 13a4 46       		.byte	0x46
 7012 13a5 39080000 		.4byte	0x839
 7013 13a9 2C       		.uleb128 0x2c
 7014 13aa B90F0000 		.4byte	.LASF265
 7015 13ae 02       		.byte	0x2
ARM GAS  C:\Users\jo\AppData\Local\Temp\ccpE7U9z.s 			page 127


 7016 13af 47       		.byte	0x47
 7017 13b0 25000000 		.4byte	0x25
 7018 13b4 00       		.byte	0
 7019 13b5 0B       		.uleb128 0xb
 7020 13b6 04       		.byte	0x4
 7021 13b7 BF070000 		.4byte	0x7bf
 7022 13bb 2D       		.uleb128 0x2d
 7023 13bc F7070000 		.4byte	.LASF266
 7024 13c0 01       		.byte	0x1
 7025 13c1 EE01     		.2byte	0x1ee
 7026 13c3 23090000 		.4byte	0x923
 7027 13c7 00000000 		.4byte	.LFB264
 7028 13cb 06000000 		.4byte	.LFE264-.LFB264
 7029 13cf 01       		.uleb128 0x1
 7030 13d0 9C       		.byte	0x9c
 7031 13d1 02140000 		.4byte	0x1402
 7032 13d5 2E       		.uleb128 0x2e
 7033 13d6 61726700 		.ascii	"arg\000"
 7034 13da 01       		.byte	0x1
 7035 13db EE01     		.2byte	0x1ee
 7036 13dd 3C030000 		.4byte	0x33c
 7037 13e1 00000000 		.4byte	.LLST0
 7038 13e5 2F       		.uleb128 0x2f
 7039 13e6 70636200 		.ascii	"pcb\000"
 7040 13ea 01       		.byte	0x1
 7041 13eb EE01     		.2byte	0x1ee
 7042 13ed 130B0000 		.4byte	0xb13
 7043 13f1 01       		.uleb128 0x1
 7044 13f2 51       		.byte	0x51
 7045 13f3 2F       		.uleb128 0x2f
 7046 13f4 65727200 		.ascii	"err\000"
 7047 13f8 01       		.byte	0x1
 7048 13f9 EE01     		.2byte	0x1ee
 7049 13fb 23090000 		.4byte	0x923
 7050 13ff 01       		.uleb128 0x1
 7051 1400 52       		.byte	0x52
 7052 1401 00       		.byte	0
 7053 1402 2D       		.uleb128 0x2d
 7054 1403 380D0000 		.4byte	.LASF267
 7055 1407 01       		.byte	0x1
 7056 1408 8702     		.2byte	0x287
 7057 140a 5A080000 		.4byte	0x85a
 7058 140e 00000000 		.4byte	.LFB268
 7059 1412 58000000 		.4byte	.LFE268-.LFB268
 7060 1416 01       		.uleb128 0x1
 7061 1417 9C       		.byte	0x9c
 7062 1418 4F140000 		.4byte	0x144f
 7063 141c 27       		.uleb128 0x27
 7064 141d 6900     		.ascii	"i\000"
 7065 141f 01       		.byte	0x1
 7066 1420 8902     		.2byte	0x289
 7067 1422 44080000 		.4byte	0x844
 7068 1426 30       		.uleb128 0x30
 7069 1427 6E00     		.ascii	"n\000"
 7070 1429 01       		.byte	0x1
 7071 142a 8A02     		.2byte	0x28a
 7072 142c 5A080000 		.4byte	0x85a
ARM GAS  C:\Users\jo\AppData\Local\Temp\ccpE7U9z.s 			page 128


 7073 1430 21000000 		.4byte	.LLST1
 7074 1434 31       		.uleb128 0x31
 7075 1435 70636200 		.ascii	"pcb\000"
 7076 1439 01       		.byte	0x1
 7077 143a 8B02     		.2byte	0x28b
 7078 143c 130B0000 		.4byte	0xb13
 7079 1440 01       		.uleb128 0x1
 7080 1441 53       		.byte	0x53
 7081 1442 32       		.uleb128 0x32
 7082 1443 AF000000 		.4byte	.LASF304
 7083 1447 01       		.byte	0x1
 7084 1448 8D02     		.2byte	0x28d
 7085 144a 10000000 		.4byte	.L3
 7086 144e 00       		.byte	0
 7087 144f 33       		.uleb128 0x33
 7088 1450 78130000 		.4byte	0x1378
 7089 1454 00000000 		.4byte	.LFB297
 7090 1458 28000000 		.4byte	.LFE297-.LFB297
 7091 145c 01       		.uleb128 0x1
 7092 145d 9C       		.byte	0x9c
 7093 145e AE140000 		.4byte	0x14ae
 7094 1462 34       		.uleb128 0x34
 7095 1463 88130000 		.4byte	0x1388
 7096 1467 68000000 		.4byte	.LLST2
 7097 146b 35       		.uleb128 0x35
 7098 146c 93130000 		.4byte	0x1393
 7099 1470 02       		.uleb128 0x2
 7100 1471 91       		.byte	0x91
 7101 1472 74       		.sleb128 -12
 7102 1473 2A       		.uleb128 0x2a
 7103 1474 36       		.uleb128 0x36
 7104 1475 9F130000 		.4byte	0x139f
 7105 1479 02       		.uleb128 0x2
 7106 147a 91       		.byte	0x91
 7107 147b 6C       		.sleb128 -20
 7108 147c 36       		.uleb128 0x36
 7109 147d A9130000 		.4byte	0x13a9
 7110 1481 01       		.uleb128 0x1
 7111 1482 50       		.byte	0x50
 7112 1483 35       		.uleb128 0x35
 7113 1484 93130000 		.4byte	0x1393
 7114 1488 06       		.uleb128 0x6
 7115 1489 03       		.byte	0x3
 7116 148a 00000000 		.4byte	.LC0
 7117 148e 9F       		.byte	0x9f
 7118 148f 37       		.uleb128 0x37
 7119 1490 88130000 		.4byte	0x1388
 7120 1494 38       		.uleb128 0x38
 7121 1495 14000000 		.4byte	.LVL13
 7122 1499 4C300000 		.4byte	0x304c
 7123 149d 39       		.uleb128 0x39
 7124 149e 01       		.uleb128 0x1
 7125 149f 52       		.byte	0x52
 7126 14a0 02       		.uleb128 0x2
 7127 14a1 91       		.byte	0x91
 7128 14a2 60       		.sleb128 -32
 7129 14a3 39       		.uleb128 0x39
ARM GAS  C:\Users\jo\AppData\Local\Temp\ccpE7U9z.s 			page 129


 7130 14a4 01       		.uleb128 0x1
 7131 14a5 51       		.byte	0x51
 7132 14a6 05       		.uleb128 0x5
 7133 14a7 03       		.byte	0x3
 7134 14a8 00000000 		.4byte	.LC0
 7135 14ac 00       		.byte	0
 7136 14ad 00       		.byte	0
 7137 14ae 3A       		.uleb128 0x3a
 7138 14af EC080000 		.4byte	.LASF366
 7139 14b3 01       		.byte	0x1
 7140 14b4 82       		.byte	0x82
 7141 14b5 00000000 		.4byte	.LFB256
 7142 14b9 02000000 		.4byte	.LFE256-.LFB256
 7143 14bd 01       		.uleb128 0x1
 7144 14be 9C       		.byte	0x9c
 7145 14bf 3B       		.uleb128 0x3b
 7146 14c0 FD000000 		.4byte	.LASF272
 7147 14c4 01       		.byte	0x1
 7148 14c5 B101     		.2byte	0x1b1
 7149 14c7 23090000 		.4byte	0x923
 7150 14cb 00000000 		.4byte	.LFB263
 7151 14cf A4000000 		.4byte	.LFE263-.LFB263
 7152 14d3 01       		.uleb128 0x1
 7153 14d4 9C       		.byte	0x9c
 7154 14d5 A8150000 		.4byte	0x15a8
 7155 14d9 2E       		.uleb128 0x2e
 7156 14da 70636200 		.ascii	"pcb\000"
 7157 14de 01       		.byte	0x1
 7158 14df B101     		.2byte	0x1b1
 7159 14e1 130B0000 		.4byte	0xb13
 7160 14e5 89000000 		.4byte	.LLST3
 7161 14e9 3C       		.uleb128 0x3c
 7162 14ea 17050000 		.4byte	.LASF268
 7163 14ee 01       		.byte	0x1
 7164 14ef B101     		.2byte	0x1b1
 7165 14f1 9E0A0000 		.4byte	0xa9e
 7166 14f5 D3000000 		.4byte	.LLST4
 7167 14f9 3C       		.uleb128 0x3c
 7168 14fa 5A0C0000 		.4byte	.LASF269
 7169 14fe 01       		.byte	0x1
 7170 14ff B101     		.2byte	0x1b1
 7171 1501 5A080000 		.4byte	0x85a
 7172 1505 39010000 		.4byte	.LLST5
 7173 1509 30       		.uleb128 0x30
 7174 150a 6900     		.ascii	"i\000"
 7175 150c 01       		.byte	0x1
 7176 150d B301     		.2byte	0x1b3
 7177 150f 25000000 		.4byte	0x25
 7178 1513 AB010000 		.4byte	.LLST6
 7179 1517 3D       		.uleb128 0x3d
 7180 1518 AF030000 		.4byte	.LASF270
 7181 151c 01       		.byte	0x1
 7182 151d B401     		.2byte	0x1b4
 7183 151f 25000000 		.4byte	0x25
 7184 1523 04       		.byte	0x4
 7185 1524 3E       		.uleb128 0x3e
 7186 1525 ED0A0000 		.4byte	.LASF271
ARM GAS  C:\Users\jo\AppData\Local\Temp\ccpE7U9z.s 			page 130


 7187 1529 01       		.byte	0x1
 7188 152a B501     		.2byte	0x1b5
 7189 152c 130B0000 		.4byte	0xb13
 7190 1530 BF010000 		.4byte	.LLST7
 7191 1534 3F       		.uleb128 0x3f
 7192 1535 30120000 		.4byte	0x1230
 7193 1539 82000000 		.4byte	.LBB94
 7194 153d 06000000 		.4byte	.LBE94-.LBB94
 7195 1541 01       		.byte	0x1
 7196 1542 B701     		.2byte	0x1b7
 7197 1544 68150000 		.4byte	0x1568
 7198 1548 35       		.uleb128 0x35
 7199 1549 3D120000 		.4byte	0x123d
 7200 154d 06       		.uleb128 0x6
 7201 154e 03       		.byte	0x3
 7202 154f 28000000 		.4byte	.LC1
 7203 1553 9F       		.byte	0x9f
 7204 1554 38       		.uleb128 0x38
 7205 1555 88000000 		.4byte	.LVL32
 7206 1559 6B300000 		.4byte	0x306b
 7207 155d 39       		.uleb128 0x39
 7208 155e 01       		.uleb128 0x1
 7209 155f 50       		.byte	0x50
 7210 1560 05       		.uleb128 0x5
 7211 1561 03       		.byte	0x3
 7212 1562 28000000 		.4byte	.LC1
 7213 1566 00       		.byte	0
 7214 1567 00       		.byte	0
 7215 1568 40       		.uleb128 0x40
 7216 1569 5A000000 		.4byte	.LVL23
 7217 156d 7C300000 		.4byte	0x307c
 7218 1571 40       		.uleb128 0x40
 7219 1572 66000000 		.4byte	.LVL25
 7220 1576 02140000 		.4byte	0x1402
 7221 157a 38       		.uleb128 0x38
 7222 157b 82000000 		.4byte	.LVL31
 7223 157f 4F140000 		.4byte	0x144f
 7224 1583 39       		.uleb128 0x39
 7225 1584 01       		.uleb128 0x1
 7226 1585 53       		.byte	0x53
 7227 1586 03       		.uleb128 0x3
 7228 1587 0A       		.byte	0xa
 7229 1588 B701     		.2byte	0x1b7
 7230 158a 39       		.uleb128 0x39
 7231 158b 01       		.uleb128 0x1
 7232 158c 52       		.byte	0x52
 7233 158d 05       		.uleb128 0x5
 7234 158e 03       		.byte	0x3
 7235 158f 28000000 		.4byte	.LC1
 7236 1593 39       		.uleb128 0x39
 7237 1594 01       		.uleb128 0x1
 7238 1595 51       		.byte	0x51
 7239 1596 05       		.uleb128 0x5
 7240 1597 03       		.byte	0x3
 7241 1598 00000000 		.4byte	.LC0
 7242 159c 39       		.uleb128 0x39
 7243 159d 02       		.uleb128 0x2
ARM GAS  C:\Users\jo\AppData\Local\Temp\ccpE7U9z.s 			page 131


 7244 159e 7D       		.byte	0x7d
 7245 159f 00       		.sleb128 0
 7246 15a0 05       		.uleb128 0x5
 7247 15a1 03       		.byte	0x3
 7248 15a2 50000000 		.4byte	.LC2
 7249 15a6 00       		.byte	0
 7250 15a7 00       		.byte	0
 7251 15a8 3B       		.uleb128 0x3b
 7252 15a9 6D080000 		.4byte	.LASF273
 7253 15ad 01       		.byte	0x1
 7254 15ae 0702     		.2byte	0x207
 7255 15b0 130B0000 		.4byte	0xb13
 7256 15b4 00000000 		.4byte	.LFB265
 7257 15b8 D8000000 		.4byte	.LFE265-.LFB265
 7258 15bc 01       		.uleb128 0x1
 7259 15bd 9C       		.byte	0x9c
 7260 15be 89160000 		.4byte	0x1689
 7261 15c2 2E       		.uleb128 0x2e
 7262 15c3 70636200 		.ascii	"pcb\000"
 7263 15c7 01       		.byte	0x1
 7264 15c8 0702     		.2byte	0x207
 7265 15ca 130B0000 		.4byte	0xb13
 7266 15ce DD010000 		.4byte	.LLST8
 7267 15d2 3C       		.uleb128 0x3c
 7268 15d3 85050000 		.4byte	.LASF274
 7269 15d7 01       		.byte	0x1
 7270 15d8 0702     		.2byte	0x207
 7271 15da 44080000 		.4byte	0x844
 7272 15de 11020000 		.4byte	.LLST9
 7273 15e2 3E       		.uleb128 0x3e
 7274 15e3 E70D0000 		.4byte	.LASF275
 7275 15e7 01       		.byte	0x1
 7276 15e8 0902     		.2byte	0x209
 7277 15ea B40F0000 		.4byte	0xfb4
 7278 15ee 4B020000 		.4byte	.LLST10
 7279 15f2 3F       		.uleb128 0x3f
 7280 15f3 30120000 		.4byte	0x1230
 7281 15f7 AE000000 		.4byte	.LBB96
 7282 15fb 06000000 		.4byte	.LBE96-.LBB96
 7283 15ff 01       		.byte	0x1
 7284 1600 0C02     		.2byte	0x20c
 7285 1602 26160000 		.4byte	0x1626
 7286 1606 35       		.uleb128 0x35
 7287 1607 3D120000 		.4byte	0x123d
 7288 160b 06       		.uleb128 0x6
 7289 160c 03       		.byte	0x3
 7290 160d 7C000000 		.4byte	.LC3
 7291 1611 9F       		.byte	0x9f
 7292 1612 38       		.uleb128 0x38
 7293 1613 B4000000 		.4byte	.LVL45
 7294 1617 6B300000 		.4byte	0x306b
 7295 161b 39       		.uleb128 0x39
 7296 161c 01       		.uleb128 0x1
 7297 161d 50       		.byte	0x50
 7298 161e 05       		.uleb128 0x5
 7299 161f 03       		.byte	0x3
 7300 1620 7C000000 		.4byte	.LC3
ARM GAS  C:\Users\jo\AppData\Local\Temp\ccpE7U9z.s 			page 132


 7301 1624 00       		.byte	0
 7302 1625 00       		.byte	0
 7303 1626 41       		.uleb128 0x41
 7304 1627 12000000 		.4byte	.LVL35
 7305 162b 84300000 		.4byte	0x3084
 7306 162f 39160000 		.4byte	0x1639
 7307 1633 39       		.uleb128 0x39
 7308 1634 01       		.uleb128 0x1
 7309 1635 50       		.byte	0x50
 7310 1636 01       		.uleb128 0x1
 7311 1637 33       		.byte	0x33
 7312 1638 00       		.byte	0
 7313 1639 41       		.uleb128 0x41
 7314 163a 70000000 		.4byte	.LVL37
 7315 163e 99300000 		.4byte	0x3099
 7316 1642 52160000 		.4byte	0x1652
 7317 1646 39       		.uleb128 0x39
 7318 1647 01       		.uleb128 0x1
 7319 1648 51       		.byte	0x51
 7320 1649 02       		.uleb128 0x2
 7321 164a 74       		.byte	0x74
 7322 164b 00       		.sleb128 0
 7323 164c 39       		.uleb128 0x39
 7324 164d 01       		.uleb128 0x1
 7325 164e 50       		.byte	0x50
 7326 164f 01       		.uleb128 0x1
 7327 1650 32       		.byte	0x32
 7328 1651 00       		.byte	0
 7329 1652 40       		.uleb128 0x40
 7330 1653 80000000 		.4byte	.LVL38
 7331 1657 7C300000 		.4byte	0x307c
 7332 165b 38       		.uleb128 0x38
 7333 165c AE000000 		.4byte	.LVL44
 7334 1660 4F140000 		.4byte	0x144f
 7335 1664 39       		.uleb128 0x39
 7336 1665 01       		.uleb128 0x1
 7337 1666 53       		.byte	0x53
 7338 1667 03       		.uleb128 0x3
 7339 1668 0A       		.byte	0xa
 7340 1669 0C02     		.2byte	0x20c
 7341 166b 39       		.uleb128 0x39
 7342 166c 01       		.uleb128 0x1
 7343 166d 52       		.byte	0x52
 7344 166e 05       		.uleb128 0x5
 7345 166f 03       		.byte	0x3
 7346 1670 7C000000 		.4byte	.LC3
 7347 1674 39       		.uleb128 0x39
 7348 1675 01       		.uleb128 0x1
 7349 1676 51       		.byte	0x51
 7350 1677 05       		.uleb128 0x5
 7351 1678 03       		.byte	0x3
 7352 1679 00000000 		.4byte	.LC0
 7353 167d 39       		.uleb128 0x39
 7354 167e 02       		.uleb128 0x2
 7355 167f 7D       		.byte	0x7d
 7356 1680 00       		.sleb128 0
 7357 1681 05       		.uleb128 0x5
ARM GAS  C:\Users\jo\AppData\Local\Temp\ccpE7U9z.s 			page 133


 7358 1682 03       		.byte	0x3
 7359 1683 50000000 		.4byte	.LC2
 7360 1687 00       		.byte	0
 7361 1688 00       		.byte	0
 7362 1689 3B       		.uleb128 0x3b
 7363 168a 66090000 		.4byte	.LASF276
 7364 168e 01       		.byte	0x1
 7365 168f 4302     		.2byte	0x243
 7366 1691 70080000 		.4byte	0x870
 7367 1695 00000000 		.4byte	.LFB266
 7368 1699 74000000 		.4byte	.LFE266-.LFB266
 7369 169d 01       		.uleb128 0x1
 7370 169e 9C       		.byte	0x9c
 7371 169f 39170000 		.4byte	0x1739
 7372 16a3 2E       		.uleb128 0x2e
 7373 16a4 70636200 		.ascii	"pcb\000"
 7374 16a8 01       		.byte	0x1
 7375 16a9 4302     		.2byte	0x243
 7376 16ab 130B0000 		.4byte	0xb13
 7377 16af 74020000 		.4byte	.LLST11
 7378 16b3 3E       		.uleb128 0x3e
 7379 16b4 7A010000 		.4byte	.LASF277
 7380 16b8 01       		.byte	0x1
 7381 16b9 4502     		.2byte	0x245
 7382 16bb 70080000 		.4byte	0x870
 7383 16bf B3020000 		.4byte	.LLST12
 7384 16c3 42       		.uleb128 0x42
 7385 16c4 00000000 		.4byte	.Ldebug_ranges0+0
 7386 16c8 43       		.uleb128 0x43
 7387 16c9 DC080000 		.4byte	.LASF278
 7388 16cd 01       		.byte	0x1
 7389 16ce 5202     		.2byte	0x252
 7390 16d0 70080000 		.4byte	0x870
 7391 16d4 01       		.uleb128 0x1
 7392 16d5 55       		.byte	0x55
 7393 16d6 3F       		.uleb128 0x3f
 7394 16d7 30120000 		.4byte	0x1230
 7395 16db 5A000000 		.4byte	.LBB99
 7396 16df 1A000000 		.4byte	.LBE99-.LBB99
 7397 16e3 01       		.byte	0x1
 7398 16e4 5302     		.2byte	0x253
 7399 16e6 0A170000 		.4byte	0x170a
 7400 16ea 35       		.uleb128 0x35
 7401 16eb 3D120000 		.4byte	0x123d
 7402 16ef 06       		.uleb128 0x6
 7403 16f0 03       		.byte	0x3
 7404 16f1 A0000000 		.4byte	.LC4
 7405 16f5 9F       		.byte	0x9f
 7406 16f6 38       		.uleb128 0x38
 7407 16f7 60000000 		.4byte	.LVL58
 7408 16fb 6B300000 		.4byte	0x306b
 7409 16ff 39       		.uleb128 0x39
 7410 1700 01       		.uleb128 0x1
 7411 1701 50       		.byte	0x50
 7412 1702 05       		.uleb128 0x5
 7413 1703 03       		.byte	0x3
 7414 1704 A0000000 		.4byte	.LC4
ARM GAS  C:\Users\jo\AppData\Local\Temp\ccpE7U9z.s 			page 134


 7415 1708 00       		.byte	0
 7416 1709 00       		.byte	0
 7417 170a 38       		.uleb128 0x38
 7418 170b 5A000000 		.4byte	.LVL57
 7419 170f 4F140000 		.4byte	0x144f
 7420 1713 39       		.uleb128 0x39
 7421 1714 01       		.uleb128 0x1
 7422 1715 53       		.byte	0x53
 7423 1716 03       		.uleb128 0x3
 7424 1717 0A       		.byte	0xa
 7425 1718 5302     		.2byte	0x253
 7426 171a 39       		.uleb128 0x39
 7427 171b 01       		.uleb128 0x1
 7428 171c 52       		.byte	0x52
 7429 171d 05       		.uleb128 0x5
 7430 171e 03       		.byte	0x3
 7431 171f A0000000 		.4byte	.LC4
 7432 1723 39       		.uleb128 0x39
 7433 1724 01       		.uleb128 0x1
 7434 1725 51       		.byte	0x51
 7435 1726 05       		.uleb128 0x5
 7436 1727 03       		.byte	0x3
 7437 1728 00000000 		.4byte	.LC0
 7438 172c 39       		.uleb128 0x39
 7439 172d 02       		.uleb128 0x2
 7440 172e 7D       		.byte	0x7d
 7441 172f 00       		.sleb128 0
 7442 1730 05       		.uleb128 0x5
 7443 1731 03       		.byte	0x3
 7444 1732 50000000 		.4byte	.LC2
 7445 1736 00       		.byte	0
 7446 1737 00       		.byte	0
 7447 1738 00       		.byte	0
 7448 1739 33       		.uleb128 0x33
 7449 173a 4A120000 		.4byte	0x124a
 7450 173e 00000000 		.4byte	.LFB267
 7451 1742 9C000000 		.4byte	.LFE267-.LFB267
 7452 1746 01       		.uleb128 0x1
 7453 1747 9C       		.byte	0x9c
 7454 1748 73180000 		.4byte	0x1873
 7455 174c 34       		.uleb128 0x34
 7456 174d 57120000 		.4byte	0x1257
 7457 1751 21030000 		.4byte	.LLST13
 7458 1755 34       		.uleb128 0x34
 7459 1756 63120000 		.4byte	0x1263
 7460 175a 79030000 		.4byte	.LLST14
 7461 175e 44       		.uleb128 0x44
 7462 175f 6F120000 		.4byte	0x126f
 7463 1763 B3030000 		.4byte	.LLST15
 7464 1767 45       		.uleb128 0x45
 7465 1768 20000000 		.4byte	.Ldebug_ranges0+0x20
 7466 176c 9B170000 		.4byte	0x179b
 7467 1770 37       		.uleb128 0x37
 7468 1771 63120000 		.4byte	0x1263
 7469 1775 34       		.uleb128 0x34
 7470 1776 57120000 		.4byte	0x1257
 7471 177a C6030000 		.4byte	.LLST16
ARM GAS  C:\Users\jo\AppData\Local\Temp\ccpE7U9z.s 			page 135


 7472 177e 42       		.uleb128 0x42
 7473 177f 20000000 		.4byte	.Ldebug_ranges0+0x20
 7474 1783 46       		.uleb128 0x46
 7475 1784 6F120000 		.4byte	0x126f
 7476 1788 47       		.uleb128 0x47
 7477 1789 50000000 		.4byte	.LVL65
 7478 178d AF300000 		.4byte	0x30af
 7479 1791 39       		.uleb128 0x39
 7480 1792 01       		.uleb128 0x1
 7481 1793 50       		.byte	0x50
 7482 1794 03       		.uleb128 0x3
 7483 1795 F3       		.byte	0xf3
 7484 1796 01       		.uleb128 0x1
 7485 1797 50       		.byte	0x50
 7486 1798 00       		.byte	0
 7487 1799 00       		.byte	0
 7488 179a 00       		.byte	0
 7489 179b 3F       		.uleb128 0x3f
 7490 179c 30120000 		.4byte	0x1230
 7491 17a0 62000000 		.4byte	.LBB117
 7492 17a4 0A000000 		.4byte	.LBE117-.LBB117
 7493 17a8 01       		.byte	0x1
 7494 17a9 6A02     		.2byte	0x26a
 7495 17ab CC170000 		.4byte	0x17cc
 7496 17af 34       		.uleb128 0x34
 7497 17b0 3D120000 		.4byte	0x123d
 7498 17b4 F2030000 		.4byte	.LLST17
 7499 17b8 38       		.uleb128 0x38
 7500 17b9 68000000 		.4byte	.LVL67
 7501 17bd 6B300000 		.4byte	0x306b
 7502 17c1 39       		.uleb128 0x39
 7503 17c2 01       		.uleb128 0x1
 7504 17c3 50       		.byte	0x50
 7505 17c4 05       		.uleb128 0x5
 7506 17c5 03       		.byte	0x3
 7507 17c6 E4000000 		.4byte	.LC6
 7508 17ca 00       		.byte	0
 7509 17cb 00       		.byte	0
 7510 17cc 3F       		.uleb128 0x3f
 7511 17cd 30120000 		.4byte	0x1230
 7512 17d1 7E000000 		.4byte	.LBB119
 7513 17d5 1E000000 		.4byte	.LBE119-.LBB119
 7514 17d9 01       		.byte	0x1
 7515 17da 6802     		.2byte	0x268
 7516 17dc 00180000 		.4byte	0x1800
 7517 17e0 35       		.uleb128 0x35
 7518 17e1 3D120000 		.4byte	0x123d
 7519 17e5 06       		.uleb128 0x6
 7520 17e6 03       		.byte	0x3
 7521 17e7 BC000000 		.4byte	.LC5
 7522 17eb 9F       		.byte	0x9f
 7523 17ec 38       		.uleb128 0x38
 7524 17ed 84000000 		.4byte	.LVL72
 7525 17f1 6B300000 		.4byte	0x306b
 7526 17f5 39       		.uleb128 0x39
 7527 17f6 01       		.uleb128 0x1
 7528 17f7 50       		.byte	0x50
ARM GAS  C:\Users\jo\AppData\Local\Temp\ccpE7U9z.s 			page 136


 7529 17f8 05       		.uleb128 0x5
 7530 17f9 03       		.byte	0x3
 7531 17fa BC000000 		.4byte	.LC5
 7532 17fe 00       		.byte	0
 7533 17ff 00       		.byte	0
 7534 1800 41       		.uleb128 0x41
 7535 1801 30000000 		.4byte	.LVL61
 7536 1805 89160000 		.4byte	0x1689
 7537 1809 14180000 		.4byte	0x1814
 7538 180d 39       		.uleb128 0x39
 7539 180e 01       		.uleb128 0x1
 7540 180f 50       		.byte	0x50
 7541 1810 02       		.uleb128 0x2
 7542 1811 75       		.byte	0x75
 7543 1812 00       		.sleb128 0
 7544 1813 00       		.byte	0
 7545 1814 41       		.uleb128 0x41
 7546 1815 62000000 		.4byte	.LVL66
 7547 1819 4F140000 		.4byte	0x144f
 7548 181d 45180000 		.4byte	0x1845
 7549 1821 39       		.uleb128 0x39
 7550 1822 01       		.uleb128 0x1
 7551 1823 53       		.byte	0x53
 7552 1824 03       		.uleb128 0x3
 7553 1825 0A       		.byte	0xa
 7554 1826 6B02     		.2byte	0x26b
 7555 1828 39       		.uleb128 0x39
 7556 1829 01       		.uleb128 0x1
 7557 182a 52       		.byte	0x52
 7558 182b 05       		.uleb128 0x5
 7559 182c 03       		.byte	0x3
 7560 182d E4000000 		.4byte	.LC6
 7561 1831 39       		.uleb128 0x39
 7562 1832 01       		.uleb128 0x1
 7563 1833 51       		.byte	0x51
 7564 1834 05       		.uleb128 0x5
 7565 1835 03       		.byte	0x3
 7566 1836 00000000 		.4byte	.LC0
 7567 183a 39       		.uleb128 0x39
 7568 183b 02       		.uleb128 0x2
 7569 183c 7D       		.byte	0x7d
 7570 183d 00       		.sleb128 0
 7571 183e 05       		.uleb128 0x5
 7572 183f 03       		.byte	0x3
 7573 1840 50000000 		.4byte	.LC2
 7574 1844 00       		.byte	0
 7575 1845 38       		.uleb128 0x38
 7576 1846 7E000000 		.4byte	.LVL71
 7577 184a 4F140000 		.4byte	0x144f
 7578 184e 39       		.uleb128 0x39
 7579 184f 01       		.uleb128 0x1
 7580 1850 53       		.byte	0x53
 7581 1851 03       		.uleb128 0x3
 7582 1852 0A       		.byte	0xa
 7583 1853 6902     		.2byte	0x269
 7584 1855 39       		.uleb128 0x39
 7585 1856 01       		.uleb128 0x1
ARM GAS  C:\Users\jo\AppData\Local\Temp\ccpE7U9z.s 			page 137


 7586 1857 52       		.byte	0x52
 7587 1858 05       		.uleb128 0x5
 7588 1859 03       		.byte	0x3
 7589 185a BC000000 		.4byte	.LC5
 7590 185e 39       		.uleb128 0x39
 7591 185f 01       		.uleb128 0x1
 7592 1860 51       		.byte	0x51
 7593 1861 05       		.uleb128 0x5
 7594 1862 03       		.byte	0x3
 7595 1863 00000000 		.4byte	.LC0
 7596 1867 39       		.uleb128 0x39
 7597 1868 02       		.uleb128 0x2
 7598 1869 7D       		.byte	0x7d
 7599 186a 00       		.sleb128 0
 7600 186b 05       		.uleb128 0x5
 7601 186c 03       		.byte	0x3
 7602 186d 50000000 		.4byte	.LC2
 7603 1871 00       		.byte	0
 7604 1872 00       		.byte	0
 7605 1873 48       		.uleb128 0x48
 7606 1874 000A0000 		.4byte	.LASF279
 7607 1878 01       		.byte	0x1
 7608 1879 7704     		.2byte	0x477
 7609 187b 00000000 		.4byte	.LFB274
 7610 187f 1C000000 		.4byte	.LFE274-.LFB274
 7611 1883 01       		.uleb128 0x1
 7612 1884 9C       		.byte	0x9c
 7613 1885 B9180000 		.4byte	0x18b9
 7614 1889 2E       		.uleb128 0x2e
 7615 188a 73656700 		.ascii	"seg\000"
 7616 188e 01       		.byte	0x1
 7617 188f 7704     		.2byte	0x477
 7618 1891 110F0000 		.4byte	0xf11
 7619 1895 0A040000 		.4byte	.LLST18
 7620 1899 40       		.uleb128 0x40
 7621 189a 0E000000 		.4byte	.LVL75
 7622 189e C5300000 		.4byte	0x30c5
 7623 18a2 47       		.uleb128 0x47
 7624 18a3 1A000000 		.4byte	.LVL77
 7625 18a7 99300000 		.4byte	0x3099
 7626 18ab 39       		.uleb128 0x39
 7627 18ac 01       		.uleb128 0x1
 7628 18ad 51       		.byte	0x51
 7629 18ae 03       		.uleb128 0x3
 7630 18af F3       		.byte	0xf3
 7631 18b0 01       		.uleb128 0x1
 7632 18b1 50       		.byte	0x50
 7633 18b2 39       		.uleb128 0x39
 7634 18b3 01       		.uleb128 0x1
 7635 18b4 50       		.byte	0x50
 7636 18b5 01       		.uleb128 0x1
 7637 18b6 34       		.byte	0x34
 7638 18b7 00       		.byte	0
 7639 18b8 00       		.byte	0
 7640 18b9 33       		.uleb128 0x33
 7641 18ba 7C120000 		.4byte	0x127c
 7642 18be 00000000 		.4byte	.LFB273
ARM GAS  C:\Users\jo\AppData\Local\Temp\ccpE7U9z.s 			page 138


 7643 18c2 14000000 		.4byte	.LFE273-.LFB273
 7644 18c6 01       		.uleb128 0x1
 7645 18c7 9C       		.byte	0x9c
 7646 18c8 F2180000 		.4byte	0x18f2
 7647 18cc 34       		.uleb128 0x34
 7648 18cd 89120000 		.4byte	0x1289
 7649 18d1 4C040000 		.4byte	.LLST19
 7650 18d5 49       		.uleb128 0x49
 7651 18d6 04000000 		.4byte	.LBB121
 7652 18da 06000000 		.4byte	.LBE121-.LBB121
 7653 18de 44       		.uleb128 0x44
 7654 18df 96120000 		.4byte	0x1296
 7655 18e3 75040000 		.4byte	.LLST20
 7656 18e7 40       		.uleb128 0x40
 7657 18e8 0A000000 		.4byte	.LVL80
 7658 18ec 73180000 		.4byte	0x1873
 7659 18f0 00       		.byte	0
 7660 18f1 00       		.byte	0
 7661 18f2 48       		.uleb128 0x48
 7662 18f3 61070000 		.4byte	.LASF280
 7663 18f7 01       		.byte	0x1
 7664 18f8 8B04     		.2byte	0x48b
 7665 18fa 00000000 		.4byte	.LFB275
 7666 18fe 04000000 		.4byte	.LFE275-.LFB275
 7667 1902 01       		.uleb128 0x1
 7668 1903 9C       		.byte	0x9c
 7669 1904 25190000 		.4byte	0x1925
 7670 1908 2F       		.uleb128 0x2f
 7671 1909 70636200 		.ascii	"pcb\000"
 7672 190d 01       		.byte	0x1
 7673 190e 8B04     		.2byte	0x48b
 7674 1910 130B0000 		.4byte	0xb13
 7675 1914 01       		.uleb128 0x1
 7676 1915 50       		.byte	0x50
 7677 1916 4A       		.uleb128 0x4a
 7678 1917 07060000 		.4byte	.LASF163
 7679 191b 01       		.byte	0x1
 7680 191c 8B04     		.2byte	0x48b
 7681 191e 44080000 		.4byte	0x844
 7682 1922 01       		.uleb128 0x1
 7683 1923 51       		.byte	0x51
 7684 1924 00       		.byte	0
 7685 1925 3B       		.uleb128 0x3b
 7686 1926 D3060000 		.4byte	.LASF281
 7687 192a 01       		.byte	0x1
 7688 192b 9904     		.2byte	0x499
 7689 192d 110F0000 		.4byte	0xf11
 7690 1931 00000000 		.4byte	.LFB276
 7691 1935 28000000 		.4byte	.LFE276-.LFB276
 7692 1939 01       		.uleb128 0x1
 7693 193a 9C       		.byte	0x9c
 7694 193b 7C190000 		.4byte	0x197c
 7695 193f 2E       		.uleb128 0x2e
 7696 1940 73656700 		.ascii	"seg\000"
 7697 1944 01       		.byte	0x1
 7698 1945 9904     		.2byte	0x499
 7699 1947 110F0000 		.4byte	0xf11
ARM GAS  C:\Users\jo\AppData\Local\Temp\ccpE7U9z.s 			page 139


 7700 194b 88040000 		.4byte	.LLST21
 7701 194f 3E       		.uleb128 0x3e
 7702 1950 74000000 		.4byte	.LASF282
 7703 1954 01       		.byte	0x1
 7704 1955 9B04     		.2byte	0x49b
 7705 1957 110F0000 		.4byte	0xf11
 7706 195b A6040000 		.4byte	.LLST22
 7707 195f 41       		.uleb128 0x41
 7708 1960 0A000000 		.4byte	.LVL85
 7709 1964 84300000 		.4byte	0x3084
 7710 1968 72190000 		.4byte	0x1972
 7711 196c 39       		.uleb128 0x39
 7712 196d 01       		.uleb128 0x1
 7713 196e 50       		.byte	0x50
 7714 196f 01       		.uleb128 0x1
 7715 1970 34       		.byte	0x34
 7716 1971 00       		.byte	0
 7717 1972 40       		.uleb128 0x40
 7718 1973 24000000 		.4byte	.LVL87
 7719 1977 DA300000 		.4byte	0x30da
 7720 197b 00       		.byte	0
 7721 197c 48       		.uleb128 0x48
 7722 197d 590D0000 		.4byte	.LASF283
 7723 1981 01       		.byte	0x1
 7724 1982 6005     		.2byte	0x560
 7725 1984 00000000 		.4byte	.LFB282
 7726 1988 04000000 		.4byte	.LFE282-.LFB282
 7727 198c 01       		.uleb128 0x1
 7728 198d 9C       		.byte	0x9c
 7729 198e AF190000 		.4byte	0x19af
 7730 1992 2F       		.uleb128 0x2f
 7731 1993 70636200 		.ascii	"pcb\000"
 7732 1997 01       		.byte	0x1
 7733 1998 6005     		.2byte	0x560
 7734 199a 130B0000 		.4byte	0xb13
 7735 199e 01       		.uleb128 0x1
 7736 199f 50       		.byte	0x50
 7737 19a0 2F       		.uleb128 0x2f
 7738 19a1 61726700 		.ascii	"arg\000"
 7739 19a5 01       		.byte	0x1
 7740 19a6 6005     		.2byte	0x560
 7741 19a8 3C030000 		.4byte	0x33c
 7742 19ac 01       		.uleb128 0x1
 7743 19ad 51       		.byte	0x51
 7744 19ae 00       		.byte	0
 7745 19af 48       		.uleb128 0x48
 7746 19b0 800D0000 		.4byte	.LASF284
 7747 19b4 01       		.byte	0x1
 7748 19b5 7005     		.2byte	0x570
 7749 19b7 00000000 		.4byte	.LFB283
 7750 19bb 48000000 		.4byte	.LFE283-.LFB283
 7751 19bf 01       		.uleb128 0x1
 7752 19c0 9C       		.byte	0x9c
 7753 19c1 471A0000 		.4byte	0x1a47
 7754 19c5 2E       		.uleb128 0x2e
 7755 19c6 70636200 		.ascii	"pcb\000"
 7756 19ca 01       		.byte	0x1
ARM GAS  C:\Users\jo\AppData\Local\Temp\ccpE7U9z.s 			page 140


 7757 19cb 7005     		.2byte	0x570
 7758 19cd 130B0000 		.4byte	0xb13
 7759 19d1 C4040000 		.4byte	.LLST23
 7760 19d5 3C       		.uleb128 0x3c
 7761 19d6 080E0000 		.4byte	.LASF196
 7762 19da 01       		.byte	0x1
 7763 19db 7005     		.2byte	0x570
 7764 19dd CB0D0000 		.4byte	0xdcb
 7765 19e1 F0040000 		.4byte	.LLST24
 7766 19e5 3F       		.uleb128 0x3f
 7767 19e6 30120000 		.4byte	0x1230
 7768 19ea 28000000 		.4byte	.LBB122
 7769 19ee 06000000 		.4byte	.LBE122-.LBB122
 7770 19f2 01       		.byte	0x1
 7771 19f3 7205     		.2byte	0x572
 7772 19f5 191A0000 		.4byte	0x1a19
 7773 19f9 35       		.uleb128 0x35
 7774 19fa 3D120000 		.4byte	0x123d
 7775 19fe 06       		.uleb128 0x6
 7776 19ff 03       		.byte	0x3
 7777 1a00 08010000 		.4byte	.LC7
 7778 1a04 9F       		.byte	0x9f
 7779 1a05 38       		.uleb128 0x38
 7780 1a06 2E000000 		.4byte	.LVL93
 7781 1a0a 6B300000 		.4byte	0x306b
 7782 1a0e 39       		.uleb128 0x39
 7783 1a0f 01       		.uleb128 0x1
 7784 1a10 50       		.byte	0x50
 7785 1a11 05       		.uleb128 0x5
 7786 1a12 03       		.byte	0x3
 7787 1a13 08010000 		.4byte	.LC7
 7788 1a17 00       		.byte	0
 7789 1a18 00       		.byte	0
 7790 1a19 38       		.uleb128 0x38
 7791 1a1a 28000000 		.4byte	.LVL92
 7792 1a1e 4F140000 		.4byte	0x144f
 7793 1a22 39       		.uleb128 0x39
 7794 1a23 01       		.uleb128 0x1
 7795 1a24 53       		.byte	0x53
 7796 1a25 03       		.uleb128 0x3
 7797 1a26 0A       		.byte	0xa
 7798 1a27 7205     		.2byte	0x572
 7799 1a29 39       		.uleb128 0x39
 7800 1a2a 01       		.uleb128 0x1
 7801 1a2b 52       		.byte	0x52
 7802 1a2c 05       		.uleb128 0x5
 7803 1a2d 03       		.byte	0x3
 7804 1a2e 08010000 		.4byte	.LC7
 7805 1a32 39       		.uleb128 0x39
 7806 1a33 01       		.uleb128 0x1
 7807 1a34 51       		.byte	0x51
 7808 1a35 05       		.uleb128 0x5
 7809 1a36 03       		.byte	0x3
 7810 1a37 00000000 		.4byte	.LC0
 7811 1a3b 39       		.uleb128 0x39
 7812 1a3c 02       		.uleb128 0x2
 7813 1a3d 7D       		.byte	0x7d
ARM GAS  C:\Users\jo\AppData\Local\Temp\ccpE7U9z.s 			page 141


 7814 1a3e 00       		.sleb128 0
 7815 1a3f 05       		.uleb128 0x5
 7816 1a40 03       		.byte	0x3
 7817 1a41 50000000 		.4byte	.LC2
 7818 1a45 00       		.byte	0
 7819 1a46 00       		.byte	0
 7820 1a47 48       		.uleb128 0x48
 7821 1a48 43070000 		.4byte	.LASF285
 7822 1a4c 01       		.byte	0x1
 7823 1a4d 7E05     		.2byte	0x57e
 7824 1a4f 00000000 		.4byte	.LFB284
 7825 1a53 44000000 		.4byte	.LFE284-.LFB284
 7826 1a57 01       		.uleb128 0x1
 7827 1a58 9C       		.byte	0x9c
 7828 1a59 DF1A0000 		.4byte	0x1adf
 7829 1a5d 2E       		.uleb128 0x2e
 7830 1a5e 70636200 		.ascii	"pcb\000"
 7831 1a62 01       		.byte	0x1
 7832 1a63 7E05     		.2byte	0x57e
 7833 1a65 130B0000 		.4byte	0xb13
 7834 1a69 1E050000 		.4byte	.LLST25
 7835 1a6d 3C       		.uleb128 0x3c
 7836 1a6e AE060000 		.4byte	.LASF195
 7837 1a72 01       		.byte	0x1
 7838 1a73 7E05     		.2byte	0x57e
 7839 1a75 FA0D0000 		.4byte	0xdfa
 7840 1a79 4A050000 		.4byte	.LLST26
 7841 1a7d 3F       		.uleb128 0x3f
 7842 1a7e 30120000 		.4byte	0x1230
 7843 1a82 26000000 		.4byte	.LBB124
 7844 1a86 06000000 		.4byte	.LBE124-.LBB124
 7845 1a8a 01       		.byte	0x1
 7846 1a8b 8005     		.2byte	0x580
 7847 1a8d B11A0000 		.4byte	0x1ab1
 7848 1a91 35       		.uleb128 0x35
 7849 1a92 3D120000 		.4byte	0x123d
 7850 1a96 06       		.uleb128 0x6
 7851 1a97 03       		.byte	0x3
 7852 1a98 30010000 		.4byte	.LC8
 7853 1a9c 9F       		.byte	0x9f
 7854 1a9d 38       		.uleb128 0x38
 7855 1a9e 2C000000 		.4byte	.LVL99
 7856 1aa2 6B300000 		.4byte	0x306b
 7857 1aa6 39       		.uleb128 0x39
 7858 1aa7 01       		.uleb128 0x1
 7859 1aa8 50       		.byte	0x50
 7860 1aa9 05       		.uleb128 0x5
 7861 1aaa 03       		.byte	0x3
 7862 1aab 30010000 		.4byte	.LC8
 7863 1aaf 00       		.byte	0
 7864 1ab0 00       		.byte	0
 7865 1ab1 38       		.uleb128 0x38
 7866 1ab2 26000000 		.4byte	.LVL98
 7867 1ab6 4F140000 		.4byte	0x144f
 7868 1aba 39       		.uleb128 0x39
 7869 1abb 01       		.uleb128 0x1
 7870 1abc 53       		.byte	0x53
ARM GAS  C:\Users\jo\AppData\Local\Temp\ccpE7U9z.s 			page 142


 7871 1abd 03       		.uleb128 0x3
 7872 1abe 0A       		.byte	0xa
 7873 1abf 8005     		.2byte	0x580
 7874 1ac1 39       		.uleb128 0x39
 7875 1ac2 01       		.uleb128 0x1
 7876 1ac3 52       		.byte	0x52
 7877 1ac4 05       		.uleb128 0x5
 7878 1ac5 03       		.byte	0x3
 7879 1ac6 30010000 		.4byte	.LC8
 7880 1aca 39       		.uleb128 0x39
 7881 1acb 01       		.uleb128 0x1
 7882 1acc 51       		.byte	0x51
 7883 1acd 05       		.uleb128 0x5
 7884 1ace 03       		.byte	0x3
 7885 1acf 00000000 		.4byte	.LC0
 7886 1ad3 39       		.uleb128 0x39
 7887 1ad4 02       		.uleb128 0x2
 7888 1ad5 7D       		.byte	0x7d
 7889 1ad6 00       		.sleb128 0
 7890 1ad7 05       		.uleb128 0x5
 7891 1ad8 03       		.byte	0x3
 7892 1ad9 50000000 		.4byte	.LC2
 7893 1add 00       		.byte	0
 7894 1ade 00       		.byte	0
 7895 1adf 48       		.uleb128 0x48
 7896 1ae0 85080000 		.4byte	.LASF286
 7897 1ae4 01       		.byte	0x1
 7898 1ae5 8D05     		.2byte	0x58d
 7899 1ae7 00000000 		.4byte	.LFB285
 7900 1aeb 48000000 		.4byte	.LFE285-.LFB285
 7901 1aef 01       		.uleb128 0x1
 7902 1af0 9C       		.byte	0x9c
 7903 1af1 771B0000 		.4byte	0x1b77
 7904 1af5 2E       		.uleb128 0x2e
 7905 1af6 70636200 		.ascii	"pcb\000"
 7906 1afa 01       		.byte	0x1
 7907 1afb 8D05     		.2byte	0x58d
 7908 1afd 130B0000 		.4byte	0xb13
 7909 1b01 77050000 		.4byte	.LLST27
 7910 1b05 2E       		.uleb128 0x2e
 7911 1b06 65727200 		.ascii	"err\000"
 7912 1b0a 01       		.byte	0x1
 7913 1b0b 8D05     		.2byte	0x58d
 7914 1b0d 490E0000 		.4byte	0xe49
 7915 1b11 A3050000 		.4byte	.LLST28
 7916 1b15 3F       		.uleb128 0x3f
 7917 1b16 30120000 		.4byte	0x1230
 7918 1b1a 28000000 		.4byte	.LBB126
 7919 1b1e 06000000 		.4byte	.LBE126-.LBB126
 7920 1b22 01       		.byte	0x1
 7921 1b23 8F05     		.2byte	0x58f
 7922 1b25 491B0000 		.4byte	0x1b49
 7923 1b29 35       		.uleb128 0x35
 7924 1b2a 3D120000 		.4byte	0x123d
 7925 1b2e 06       		.uleb128 0x6
 7926 1b2f 03       		.byte	0x3
 7927 1b30 58010000 		.4byte	.LC9
ARM GAS  C:\Users\jo\AppData\Local\Temp\ccpE7U9z.s 			page 143


 7928 1b34 9F       		.byte	0x9f
 7929 1b35 38       		.uleb128 0x38
 7930 1b36 2E000000 		.4byte	.LVL105
 7931 1b3a 6B300000 		.4byte	0x306b
 7932 1b3e 39       		.uleb128 0x39
 7933 1b3f 01       		.uleb128 0x1
 7934 1b40 50       		.byte	0x50
 7935 1b41 05       		.uleb128 0x5
 7936 1b42 03       		.byte	0x3
 7937 1b43 58010000 		.4byte	.LC9
 7938 1b47 00       		.byte	0
 7939 1b48 00       		.byte	0
 7940 1b49 38       		.uleb128 0x38
 7941 1b4a 28000000 		.4byte	.LVL104
 7942 1b4e 4F140000 		.4byte	0x144f
 7943 1b52 39       		.uleb128 0x39
 7944 1b53 01       		.uleb128 0x1
 7945 1b54 53       		.byte	0x53
 7946 1b55 03       		.uleb128 0x3
 7947 1b56 0A       		.byte	0xa
 7948 1b57 8F05     		.2byte	0x58f
 7949 1b59 39       		.uleb128 0x39
 7950 1b5a 01       		.uleb128 0x1
 7951 1b5b 52       		.byte	0x52
 7952 1b5c 05       		.uleb128 0x5
 7953 1b5d 03       		.byte	0x3
 7954 1b5e 58010000 		.4byte	.LC9
 7955 1b62 39       		.uleb128 0x39
 7956 1b63 01       		.uleb128 0x1
 7957 1b64 51       		.byte	0x51
 7958 1b65 05       		.uleb128 0x5
 7959 1b66 03       		.byte	0x3
 7960 1b67 00000000 		.4byte	.LC0
 7961 1b6b 39       		.uleb128 0x39
 7962 1b6c 02       		.uleb128 0x2
 7963 1b6d 7D       		.byte	0x7d
 7964 1b6e 00       		.sleb128 0
 7965 1b6f 05       		.uleb128 0x5
 7966 1b70 03       		.byte	0x3
 7967 1b71 50000000 		.4byte	.LC2
 7968 1b75 00       		.byte	0
 7969 1b76 00       		.byte	0
 7970 1b77 48       		.uleb128 0x48
 7971 1b78 E3090000 		.4byte	.LASF287
 7972 1b7c 01       		.byte	0x1
 7973 1b7d 9C05     		.2byte	0x59c
 7974 1b7f 00000000 		.4byte	.LFB286
 7975 1b83 04000000 		.4byte	.LFE286-.LFB286
 7976 1b87 01       		.uleb128 0x1
 7977 1b88 9C       		.byte	0x9c
 7978 1b89 AA1B0000 		.4byte	0x1baa
 7979 1b8d 2F       		.uleb128 0x2f
 7980 1b8e 70636200 		.ascii	"pcb\000"
 7981 1b92 01       		.byte	0x1
 7982 1b93 9C05     		.2byte	0x59c
 7983 1b95 130B0000 		.4byte	0xb13
 7984 1b99 01       		.uleb128 0x1
ARM GAS  C:\Users\jo\AppData\Local\Temp\ccpE7U9z.s 			page 144


 7985 1b9a 50       		.byte	0x50
 7986 1b9b 4A       		.uleb128 0x4a
 7987 1b9c 95030000 		.4byte	.LASF162
 7988 1ba0 01       		.byte	0x1
 7989 1ba1 9C05     		.2byte	0x59c
 7990 1ba3 E90A0000 		.4byte	0xae9
 7991 1ba7 01       		.uleb128 0x1
 7992 1ba8 51       		.byte	0x51
 7993 1ba9 00       		.byte	0
 7994 1baa 48       		.uleb128 0x48
 7995 1bab 19070000 		.4byte	.LASF288
 7996 1baf 01       		.byte	0x1
 7997 1bb0 AC05     		.2byte	0x5ac
 7998 1bb2 00000000 		.4byte	.LFB287
 7999 1bb6 50000000 		.4byte	.LFE287-.LFB287
 8000 1bba 01       		.uleb128 0x1
 8001 1bbb 9C       		.byte	0x9c
 8002 1bbc 521C0000 		.4byte	0x1c52
 8003 1bc0 2E       		.uleb128 0x2e
 8004 1bc1 70636200 		.ascii	"pcb\000"
 8005 1bc5 01       		.byte	0x1
 8006 1bc6 AC05     		.2byte	0x5ac
 8007 1bc8 130B0000 		.4byte	0xb13
 8008 1bcc D1050000 		.4byte	.LLST29
 8009 1bd0 3C       		.uleb128 0x3c
 8010 1bd1 35090000 		.4byte	.LASF198
 8011 1bd5 01       		.byte	0x1
 8012 1bd6 AC05     		.2byte	0x5ac
 8013 1bd8 240E0000 		.4byte	0xe24
 8014 1bdc FD050000 		.4byte	.LLST30
 8015 1be0 3C       		.uleb128 0x3c
 8016 1be1 1C000000 		.4byte	.LASF289
 8017 1be5 01       		.byte	0x1
 8018 1be6 AC05     		.2byte	0x5ac
 8019 1be8 44080000 		.4byte	0x844
 8020 1bec 2B060000 		.4byte	.LLST31
 8021 1bf0 3F       		.uleb128 0x3f
 8022 1bf1 30120000 		.4byte	0x1230
 8023 1bf5 2E000000 		.4byte	.LBB128
 8024 1bf9 06000000 		.4byte	.LBE128-.LBB128
 8025 1bfd 01       		.byte	0x1
 8026 1bfe AE05     		.2byte	0x5ae
 8027 1c00 241C0000 		.4byte	0x1c24
 8028 1c04 35       		.uleb128 0x35
 8029 1c05 3D120000 		.4byte	0x123d
 8030 1c09 06       		.uleb128 0x6
 8031 1c0a 03       		.byte	0x3
 8032 1c0b 80010000 		.4byte	.LC10
 8033 1c0f 9F       		.byte	0x9f
 8034 1c10 38       		.uleb128 0x38
 8035 1c11 34000000 		.4byte	.LVL113
 8036 1c15 6B300000 		.4byte	0x306b
 8037 1c19 39       		.uleb128 0x39
 8038 1c1a 01       		.uleb128 0x1
 8039 1c1b 50       		.byte	0x50
 8040 1c1c 05       		.uleb128 0x5
 8041 1c1d 03       		.byte	0x3
ARM GAS  C:\Users\jo\AppData\Local\Temp\ccpE7U9z.s 			page 145


 8042 1c1e 80010000 		.4byte	.LC10
 8043 1c22 00       		.byte	0
 8044 1c23 00       		.byte	0
 8045 1c24 38       		.uleb128 0x38
 8046 1c25 2E000000 		.4byte	.LVL112
 8047 1c29 4F140000 		.4byte	0x144f
 8048 1c2d 39       		.uleb128 0x39
 8049 1c2e 01       		.uleb128 0x1
 8050 1c2f 53       		.byte	0x53
 8051 1c30 03       		.uleb128 0x3
 8052 1c31 0A       		.byte	0xa
 8053 1c32 AE05     		.2byte	0x5ae
 8054 1c34 39       		.uleb128 0x39
 8055 1c35 01       		.uleb128 0x1
 8056 1c36 52       		.byte	0x52
 8057 1c37 05       		.uleb128 0x5
 8058 1c38 03       		.byte	0x3
 8059 1c39 80010000 		.4byte	.LC10
 8060 1c3d 39       		.uleb128 0x39
 8061 1c3e 01       		.uleb128 0x1
 8062 1c3f 51       		.byte	0x51
 8063 1c40 05       		.uleb128 0x5
 8064 1c41 03       		.byte	0x3
 8065 1c42 00000000 		.4byte	.LC0
 8066 1c46 39       		.uleb128 0x39
 8067 1c47 02       		.uleb128 0x2
 8068 1c48 7D       		.byte	0x7d
 8069 1c49 00       		.sleb128 0
 8070 1c4a 05       		.uleb128 0x5
 8071 1c4b 03       		.byte	0x3
 8072 1c4c 50000000 		.4byte	.LC2
 8073 1c50 00       		.byte	0
 8074 1c51 00       		.byte	0
 8075 1c52 33       		.uleb128 0x33
 8076 1c53 A4120000 		.4byte	0x12a4
 8077 1c57 00000000 		.4byte	.LFB288
 8078 1c5b 62000000 		.4byte	.LFE288-.LFB288
 8079 1c5f 01       		.uleb128 0x1
 8080 1c60 9C       		.byte	0x9c
 8081 1c61 391D0000 		.4byte	0x1d39
 8082 1c65 34       		.uleb128 0x34
 8083 1c66 B1120000 		.4byte	0x12b1
 8084 1c6a 4C060000 		.4byte	.LLST32
 8085 1c6e 49       		.uleb128 0x49
 8086 1c6f 0E000000 		.4byte	.LBB141
 8087 1c73 54000000 		.4byte	.LBE141-.LBB141
 8088 1c77 34       		.uleb128 0x34
 8089 1c78 B1120000 		.4byte	0x12b1
 8090 1c7c 75060000 		.4byte	.LLST33
 8091 1c80 3F       		.uleb128 0x3f
 8092 1c81 7C120000 		.4byte	0x127c
 8093 1c85 1C000000 		.4byte	.LBB143
 8094 1c89 0E000000 		.4byte	.LBE143-.LBB143
 8095 1c8d 01       		.byte	0x1
 8096 1c8e EA05     		.2byte	0x5ea
 8097 1c90 BA1C0000 		.4byte	0x1cba
 8098 1c94 34       		.uleb128 0x34
ARM GAS  C:\Users\jo\AppData\Local\Temp\ccpE7U9z.s 			page 146


 8099 1c95 89120000 		.4byte	0x1289
 8100 1c99 93060000 		.4byte	.LLST34
 8101 1c9d 49       		.uleb128 0x49
 8102 1c9e 1E000000 		.4byte	.LBB145
 8103 1ca2 06000000 		.4byte	.LBE145-.LBB145
 8104 1ca6 44       		.uleb128 0x44
 8105 1ca7 96120000 		.4byte	0x1296
 8106 1cab BC060000 		.4byte	.LLST35
 8107 1caf 40       		.uleb128 0x40
 8108 1cb0 24000000 		.4byte	.LVL121
 8109 1cb4 73180000 		.4byte	0x1873
 8110 1cb8 00       		.byte	0
 8111 1cb9 00       		.byte	0
 8112 1cba 3F       		.uleb128 0x3f
 8113 1cbb 7C120000 		.4byte	0x127c
 8114 1cbf 36000000 		.4byte	.LBB146
 8115 1cc3 0E000000 		.4byte	.LBE146-.LBB146
 8116 1cc7 01       		.byte	0x1
 8117 1cc8 F205     		.2byte	0x5f2
 8118 1cca F41C0000 		.4byte	0x1cf4
 8119 1cce 34       		.uleb128 0x34
 8120 1ccf 89120000 		.4byte	0x1289
 8121 1cd3 CF060000 		.4byte	.LLST36
 8122 1cd7 49       		.uleb128 0x49
 8123 1cd8 38000000 		.4byte	.LBB148
 8124 1cdc 06000000 		.4byte	.LBE148-.LBB148
 8125 1ce0 44       		.uleb128 0x44
 8126 1ce1 96120000 		.4byte	0x1296
 8127 1ce5 F8060000 		.4byte	.LLST37
 8128 1ce9 40       		.uleb128 0x40
 8129 1cea 3E000000 		.4byte	.LVL125
 8130 1cee 73180000 		.4byte	0x1873
 8131 1cf2 00       		.byte	0
 8132 1cf3 00       		.byte	0
 8133 1cf4 3F       		.uleb128 0x3f
 8134 1cf5 7C120000 		.4byte	0x127c
 8135 1cf9 46000000 		.4byte	.LBB149
 8136 1cfd 0E000000 		.4byte	.LBE149-.LBB149
 8137 1d01 01       		.byte	0x1
 8138 1d02 F305     		.2byte	0x5f3
 8139 1d04 2E1D0000 		.4byte	0x1d2e
 8140 1d08 34       		.uleb128 0x34
 8141 1d09 89120000 		.4byte	0x1289
 8142 1d0d 0B070000 		.4byte	.LLST38
 8143 1d11 49       		.uleb128 0x49
 8144 1d12 48000000 		.4byte	.LBB151
 8145 1d16 06000000 		.4byte	.LBE151-.LBB151
 8146 1d1a 44       		.uleb128 0x44
 8147 1d1b 96120000 		.4byte	0x1296
 8148 1d1f 34070000 		.4byte	.LLST39
 8149 1d23 40       		.uleb128 0x40
 8150 1d24 4E000000 		.4byte	.LVL129
 8151 1d28 73180000 		.4byte	0x1873
 8152 1d2c 00       		.byte	0
 8153 1d2d 00       		.byte	0
 8154 1d2e 40       		.uleb128 0x40
 8155 1d2f 16000000 		.4byte	.LVL118
ARM GAS  C:\Users\jo\AppData\Local\Temp\ccpE7U9z.s 			page 147


 8156 1d33 C5300000 		.4byte	0x30c5
 8157 1d37 00       		.byte	0
 8158 1d38 00       		.byte	0
 8159 1d39 48       		.uleb128 0x48
 8160 1d3a 29090000 		.4byte	.LASF290
 8161 1d3e 01       		.byte	0x1
 8162 1d3f 1403     		.2byte	0x314
 8163 1d41 00000000 		.4byte	.LFB270
 8164 1d45 B4040000 		.4byte	.LFE270-.LFB270
 8165 1d49 01       		.uleb128 0x1
 8166 1d4a 9C       		.byte	0x9c
 8167 1d4b 28220000 		.4byte	0x2228
 8168 1d4f 30       		.uleb128 0x30
 8169 1d50 70636200 		.ascii	"pcb\000"
 8170 1d54 01       		.byte	0x1
 8171 1d55 1603     		.2byte	0x316
 8172 1d57 130B0000 		.4byte	0xb13
 8173 1d5b 47070000 		.4byte	.LLST40
 8174 1d5f 3E       		.uleb128 0x3e
 8175 1d60 E6010000 		.4byte	.LASF291
 8176 1d64 01       		.byte	0x1
 8177 1d65 1603     		.2byte	0x316
 8178 1d67 130B0000 		.4byte	0xb13
 8179 1d6b F5070000 		.4byte	.LLST41
 8180 1d6f 24       		.uleb128 0x24
 8181 1d70 DC030000 		.4byte	.LASF292
 8182 1d74 01       		.byte	0x1
 8183 1d75 1703     		.2byte	0x317
 8184 1d77 5A080000 		.4byte	0x85a
 8185 1d7b 3E       		.uleb128 0x3e
 8186 1d7c 34050000 		.4byte	.LASF293
 8187 1d80 01       		.byte	0x1
 8188 1d81 1803     		.2byte	0x318
 8189 1d83 44080000 		.4byte	0x844
 8190 1d87 83080000 		.4byte	.LLST42
 8191 1d8b 3E       		.uleb128 0x3e
 8192 1d8c 39030000 		.4byte	.LASF294
 8193 1d90 01       		.byte	0x1
 8194 1d91 1903     		.2byte	0x319
 8195 1d93 44080000 		.4byte	0x844
 8196 1d97 4E090000 		.4byte	.LLST43
 8197 1d9b 30       		.uleb128 0x30
 8198 1d9c 65727200 		.ascii	"err\000"
 8199 1da0 01       		.byte	0x1
 8200 1da1 1A03     		.2byte	0x31a
 8201 1da3 23090000 		.4byte	0x923
 8202 1da7 B2090000 		.4byte	.LLST44
 8203 1dab 4B       		.uleb128 0x4b
 8204 1dac 41080000 		.4byte	.LASF367
 8205 1db0 01       		.byte	0x1
 8206 1db1 2103     		.2byte	0x321
 8207 1db3 3F       		.uleb128 0x3f
 8208 1db4 30120000 		.4byte	0x1230
 8209 1db8 54010000 		.4byte	.LBB152
 8210 1dbc 06000000 		.4byte	.LBE152-.LBB152
 8211 1dc0 01       		.byte	0x1
 8212 1dc1 EE03     		.2byte	0x3ee
ARM GAS  C:\Users\jo\AppData\Local\Temp\ccpE7U9z.s 			page 148


 8213 1dc3 E41D0000 		.4byte	0x1de4
 8214 1dc7 34       		.uleb128 0x34
 8215 1dc8 3D120000 		.4byte	0x123d
 8216 1dcc D1090000 		.4byte	.LLST45
 8217 1dd0 38       		.uleb128 0x38
 8218 1dd1 5A010000 		.4byte	.LVL150
 8219 1dd5 6B300000 		.4byte	0x306b
 8220 1dd9 39       		.uleb128 0x39
 8221 1dda 01       		.uleb128 0x1
 8222 1ddb 50       		.byte	0x50
 8223 1ddc 05       		.uleb128 0x5
 8224 1ddd 03       		.byte	0x3
 8225 1dde 80020000 		.4byte	.LC16
 8226 1de2 00       		.byte	0
 8227 1de3 00       		.byte	0
 8228 1de4 45       		.uleb128 0x45
 8229 1de5 38000000 		.4byte	.Ldebug_ranges0+0x38
 8230 1de9 E21E0000 		.4byte	0x1ee2
 8231 1ded 3E       		.uleb128 0x3e
 8232 1dee 6E0F0000 		.4byte	.LASF295
 8233 1df2 01       		.byte	0x1
 8234 1df3 FA03     		.2byte	0x3fa
 8235 1df5 130B0000 		.4byte	0xb13
 8236 1df9 E9090000 		.4byte	.LLST46
 8237 1dfd 3F       		.uleb128 0x3f
 8238 1dfe 30120000 		.4byte	0x1230
 8239 1e02 4A040000 		.4byte	.LBB155
 8240 1e06 06000000 		.4byte	.LBE155-.LBB155
 8241 1e0a 01       		.byte	0x1
 8242 1e0b 0204     		.2byte	0x402
 8243 1e0d 2E1E0000 		.4byte	0x1e2e
 8244 1e11 34       		.uleb128 0x34
 8245 1e12 3D120000 		.4byte	0x123d
 8246 1e16 070A0000 		.4byte	.LLST47
 8247 1e1a 38       		.uleb128 0x38
 8248 1e1b 50040000 		.4byte	.LVL204
 8249 1e1f 6B300000 		.4byte	0x306b
 8250 1e23 39       		.uleb128 0x39
 8251 1e24 01       		.uleb128 0x1
 8252 1e25 50       		.byte	0x50
 8253 1e26 05       		.uleb128 0x5
 8254 1e27 03       		.byte	0x3
 8255 1e28 D8020000 		.4byte	.LC18
 8256 1e2c 00       		.byte	0
 8257 1e2d 00       		.byte	0
 8258 1e2e 3F       		.uleb128 0x3f
 8259 1e2f 30120000 		.4byte	0x1230
 8260 1e33 84040000 		.4byte	.LBB157
 8261 1e37 30000000 		.4byte	.LBE157-.LBB157
 8262 1e3b 01       		.byte	0x1
 8263 1e3c FE03     		.2byte	0x3fe
 8264 1e3e 621E0000 		.4byte	0x1e62
 8265 1e42 35       		.uleb128 0x35
 8266 1e43 3D120000 		.4byte	0x123d
 8267 1e47 06       		.uleb128 0x6
 8268 1e48 03       		.byte	0x3
 8269 1e49 B0020000 		.4byte	.LC17
ARM GAS  C:\Users\jo\AppData\Local\Temp\ccpE7U9z.s 			page 149


 8270 1e4d 9F       		.byte	0x9f
 8271 1e4e 38       		.uleb128 0x38
 8272 1e4f 8A040000 		.4byte	.LVL210
 8273 1e53 6B300000 		.4byte	0x306b
 8274 1e57 39       		.uleb128 0x39
 8275 1e58 01       		.uleb128 0x1
 8276 1e59 50       		.byte	0x50
 8277 1e5a 05       		.uleb128 0x5
 8278 1e5b 03       		.byte	0x3
 8279 1e5c B0020000 		.4byte	.LC17
 8280 1e60 00       		.byte	0
 8281 1e61 00       		.byte	0
 8282 1e62 41       		.uleb128 0x41
 8283 1e63 6C010000 		.4byte	.LVL152
 8284 1e67 A4120000 		.4byte	0x12a4
 8285 1e6b 761E0000 		.4byte	0x1e76
 8286 1e6f 39       		.uleb128 0x39
 8287 1e70 01       		.uleb128 0x1
 8288 1e71 50       		.byte	0x50
 8289 1e72 02       		.uleb128 0x2
 8290 1e73 75       		.byte	0x75
 8291 1e74 00       		.sleb128 0
 8292 1e75 00       		.byte	0
 8293 1e76 41       		.uleb128 0x41
 8294 1e77 8E010000 		.4byte	.LVL155
 8295 1e7b 99300000 		.4byte	0x3099
 8296 1e7f 891E0000 		.4byte	0x1e89
 8297 1e83 39       		.uleb128 0x39
 8298 1e84 01       		.uleb128 0x1
 8299 1e85 50       		.byte	0x50
 8300 1e86 01       		.uleb128 0x1
 8301 1e87 32       		.byte	0x32
 8302 1e88 00       		.byte	0
 8303 1e89 41       		.uleb128 0x41
 8304 1e8a 4A040000 		.4byte	.LVL203
 8305 1e8e 4F140000 		.4byte	0x144f
 8306 1e92 B71E0000 		.4byte	0x1eb7
 8307 1e96 39       		.uleb128 0x39
 8308 1e97 01       		.uleb128 0x1
 8309 1e98 53       		.byte	0x53
 8310 1e99 03       		.uleb128 0x3
 8311 1e9a 0A       		.byte	0xa
 8312 1e9b 0204     		.2byte	0x402
 8313 1e9d 39       		.uleb128 0x39
 8314 1e9e 01       		.uleb128 0x1
 8315 1e9f 52       		.byte	0x52
 8316 1ea0 05       		.uleb128 0x5
 8317 1ea1 03       		.byte	0x3
 8318 1ea2 D8020000 		.4byte	.LC18
 8319 1ea6 39       		.uleb128 0x39
 8320 1ea7 01       		.uleb128 0x1
 8321 1ea8 51       		.byte	0x51
 8322 1ea9 05       		.uleb128 0x5
 8323 1eaa 03       		.byte	0x3
 8324 1eab 00000000 		.4byte	.LC0
 8325 1eaf 39       		.uleb128 0x39
 8326 1eb0 02       		.uleb128 0x2
ARM GAS  C:\Users\jo\AppData\Local\Temp\ccpE7U9z.s 			page 150


 8327 1eb1 7D       		.byte	0x7d
 8328 1eb2 00       		.sleb128 0
 8329 1eb3 02       		.uleb128 0x2
 8330 1eb4 77       		.byte	0x77
 8331 1eb5 00       		.sleb128 0
 8332 1eb6 00       		.byte	0
 8333 1eb7 38       		.uleb128 0x38
 8334 1eb8 84040000 		.4byte	.LVL209
 8335 1ebc 4F140000 		.4byte	0x144f
 8336 1ec0 39       		.uleb128 0x39
 8337 1ec1 01       		.uleb128 0x1
 8338 1ec2 53       		.byte	0x53
 8339 1ec3 03       		.uleb128 0x3
 8340 1ec4 0A       		.byte	0xa
 8341 1ec5 FE03     		.2byte	0x3fe
 8342 1ec7 39       		.uleb128 0x39
 8343 1ec8 01       		.uleb128 0x1
 8344 1ec9 52       		.byte	0x52
 8345 1eca 05       		.uleb128 0x5
 8346 1ecb 03       		.byte	0x3
 8347 1ecc B0020000 		.4byte	.LC17
 8348 1ed0 39       		.uleb128 0x39
 8349 1ed1 01       		.uleb128 0x1
 8350 1ed2 51       		.byte	0x51
 8351 1ed3 05       		.uleb128 0x5
 8352 1ed4 03       		.byte	0x3
 8353 1ed5 00000000 		.4byte	.LC0
 8354 1ed9 39       		.uleb128 0x39
 8355 1eda 02       		.uleb128 0x2
 8356 1edb 7D       		.byte	0x7d
 8357 1edc 00       		.sleb128 0
 8358 1edd 02       		.uleb128 0x2
 8359 1ede 77       		.byte	0x77
 8360 1edf 00       		.sleb128 0
 8361 1ee0 00       		.byte	0
 8362 1ee1 00       		.byte	0
 8363 1ee2 3F       		.uleb128 0x3f
 8364 1ee3 7C120000 		.4byte	0x127c
 8365 1ee7 98010000 		.4byte	.LBB159
 8366 1eeb 0E000000 		.4byte	.LBE159-.LBB159
 8367 1eef 01       		.byte	0x1
 8368 1ef0 9B03     		.2byte	0x39b
 8369 1ef2 1C1F0000 		.4byte	0x1f1c
 8370 1ef6 34       		.uleb128 0x34
 8371 1ef7 89120000 		.4byte	0x1289
 8372 1efb 1F0A0000 		.4byte	.LLST48
 8373 1eff 49       		.uleb128 0x49
 8374 1f00 98010000 		.4byte	.LBB161
 8375 1f04 08000000 		.4byte	.LBE161-.LBB161
 8376 1f08 44       		.uleb128 0x44
 8377 1f09 96120000 		.4byte	0x1296
 8378 1f0d 3D0A0000 		.4byte	.LLST49
 8379 1f11 40       		.uleb128 0x40
 8380 1f12 A0010000 		.4byte	.LVL159
 8381 1f16 73180000 		.4byte	0x1873
 8382 1f1a 00       		.byte	0
 8383 1f1b 00       		.byte	0
ARM GAS  C:\Users\jo\AppData\Local\Temp\ccpE7U9z.s 			page 151


 8384 1f1c 45       		.uleb128 0x45
 8385 1f1d 58000000 		.4byte	.Ldebug_ranges0+0x58
 8386 1f21 77200000 		.4byte	0x2077
 8387 1f25 3E       		.uleb128 0x3e
 8388 1f26 6E0F0000 		.4byte	.LASF295
 8389 1f2a 01       		.byte	0x1
 8390 1f2b B403     		.2byte	0x3b4
 8391 1f2d 130B0000 		.4byte	0xb13
 8392 1f31 500A0000 		.4byte	.LLST50
 8393 1f35 3E       		.uleb128 0x3e
 8394 1f36 0B020000 		.4byte	.LASF296
 8395 1f3a 01       		.byte	0x1
 8396 1f3b B503     		.2byte	0x3b5
 8397 1f3d 490E0000 		.4byte	0xe49
 8398 1f41 630A0000 		.4byte	.LLST51
 8399 1f45 3E       		.uleb128 0x3e
 8400 1f46 DC0F0000 		.4byte	.LASF297
 8401 1f4a 01       		.byte	0x1
 8402 1f4b B603     		.2byte	0x3b6
 8403 1f4d 3C030000 		.4byte	0x33c
 8404 1f51 760A0000 		.4byte	.LLST52
 8405 1f55 3F       		.uleb128 0x3f
 8406 1f56 30120000 		.4byte	0x1230
 8407 1f5a 24040000 		.4byte	.LBB163
 8408 1f5e 06000000 		.4byte	.LBE163-.LBB163
 8409 1f62 01       		.byte	0x1
 8410 1f63 BE03     		.2byte	0x3be
 8411 1f65 861F0000 		.4byte	0x1f86
 8412 1f69 34       		.uleb128 0x34
 8413 1f6a 3D120000 		.4byte	0x123d
 8414 1f6e 8A0A0000 		.4byte	.LLST53
 8415 1f72 38       		.uleb128 0x38
 8416 1f73 2A040000 		.4byte	.LVL201
 8417 1f77 6B300000 		.4byte	0x306b
 8418 1f7b 39       		.uleb128 0x39
 8419 1f7c 01       		.uleb128 0x1
 8420 1f7d 50       		.byte	0x50
 8421 1f7e 05       		.uleb128 0x5
 8422 1f7f 03       		.byte	0x3
 8423 1f80 54020000 		.4byte	.LC15
 8424 1f84 00       		.byte	0
 8425 1f85 00       		.byte	0
 8426 1f86 3F       		.uleb128 0x3f
 8427 1f87 30120000 		.4byte	0x1230
 8428 1f8b 6C040000 		.4byte	.LBB165
 8429 1f8f 08000000 		.4byte	.LBE165-.LBB165
 8430 1f93 01       		.byte	0x1
 8431 1f94 BA03     		.2byte	0x3ba
 8432 1f96 B71F0000 		.4byte	0x1fb7
 8433 1f9a 34       		.uleb128 0x34
 8434 1f9b 3D120000 		.4byte	0x123d
 8435 1f9f A20A0000 		.4byte	.LLST54
 8436 1fa3 38       		.uleb128 0x38
 8437 1fa4 72040000 		.4byte	.LVL207
 8438 1fa8 6B300000 		.4byte	0x306b
 8439 1fac 39       		.uleb128 0x39
 8440 1fad 01       		.uleb128 0x1
ARM GAS  C:\Users\jo\AppData\Local\Temp\ccpE7U9z.s 			page 152


 8441 1fae 50       		.byte	0x50
 8442 1faf 05       		.uleb128 0x5
 8443 1fb0 03       		.byte	0x3
 8444 1fb1 28020000 		.4byte	.LC14
 8445 1fb5 00       		.byte	0
 8446 1fb6 00       		.byte	0
 8447 1fb7 41       		.uleb128 0x41
 8448 1fb8 D4010000 		.4byte	.LVL164
 8449 1fbc A4120000 		.4byte	0x12a4
 8450 1fc0 CB1F0000 		.4byte	0x1fcb
 8451 1fc4 39       		.uleb128 0x39
 8452 1fc5 01       		.uleb128 0x1
 8453 1fc6 50       		.byte	0x50
 8454 1fc7 02       		.uleb128 0x2
 8455 1fc8 77       		.byte	0x77
 8456 1fc9 00       		.sleb128 0
 8457 1fca 00       		.byte	0
 8458 1fcb 41       		.uleb128 0x41
 8459 1fcc 08020000 		.4byte	.LVL168
 8460 1fd0 99300000 		.4byte	0x3099
 8461 1fd4 E41F0000 		.4byte	0x1fe4
 8462 1fd8 39       		.uleb128 0x39
 8463 1fd9 01       		.uleb128 0x1
 8464 1fda 51       		.byte	0x51
 8465 1fdb 02       		.uleb128 0x2
 8466 1fdc 77       		.byte	0x77
 8467 1fdd 00       		.sleb128 0
 8468 1fde 39       		.uleb128 0x39
 8469 1fdf 01       		.uleb128 0x1
 8470 1fe0 50       		.byte	0x50
 8471 1fe1 01       		.uleb128 0x1
 8472 1fe2 32       		.byte	0x32
 8473 1fe3 00       		.byte	0
 8474 1fe4 4C       		.uleb128 0x4c
 8475 1fe5 1C020000 		.4byte	.LVL169
 8476 1fe9 02       		.uleb128 0x2
 8477 1fea 7A       		.byte	0x7a
 8478 1feb 00       		.sleb128 0
 8479 1fec FE1F0000 		.4byte	0x1ffe
 8480 1ff0 39       		.uleb128 0x39
 8481 1ff1 01       		.uleb128 0x1
 8482 1ff2 51       		.byte	0x51
 8483 1ff3 02       		.uleb128 0x2
 8484 1ff4 09       		.byte	0x9
 8485 1ff5 F6       		.byte	0xf6
 8486 1ff6 39       		.uleb128 0x39
 8487 1ff7 01       		.uleb128 0x1
 8488 1ff8 50       		.byte	0x50
 8489 1ff9 03       		.uleb128 0x3
 8490 1ffa 91       		.byte	0x91
 8491 1ffb 54       		.sleb128 -44
 8492 1ffc 06       		.byte	0x6
 8493 1ffd 00       		.byte	0
 8494 1ffe 41       		.uleb128 0x41
 8495 1fff 0C040000 		.4byte	.LVL199
 8496 2003 EB300000 		.4byte	0x30eb
 8497 2007 18200000 		.4byte	0x2018
ARM GAS  C:\Users\jo\AppData\Local\Temp\ccpE7U9z.s 			page 153


 8498 200b 39       		.uleb128 0x39
 8499 200c 01       		.uleb128 0x1
 8500 200d 53       		.byte	0x53
 8501 200e 02       		.uleb128 0x2
 8502 200f 77       		.byte	0x77
 8503 2010 04       		.sleb128 4
 8504 2011 39       		.uleb128 0x39
 8505 2012 01       		.uleb128 0x1
 8506 2013 52       		.byte	0x52
 8507 2014 02       		.uleb128 0x2
 8508 2015 77       		.byte	0x77
 8509 2016 00       		.sleb128 0
 8510 2017 00       		.byte	0
 8511 2018 41       		.uleb128 0x41
 8512 2019 24040000 		.4byte	.LVL200
 8513 201d 4F140000 		.4byte	0x144f
 8514 2021 49200000 		.4byte	0x2049
 8515 2025 39       		.uleb128 0x39
 8516 2026 01       		.uleb128 0x1
 8517 2027 53       		.byte	0x53
 8518 2028 03       		.uleb128 0x3
 8519 2029 0A       		.byte	0xa
 8520 202a BE03     		.2byte	0x3be
 8521 202c 39       		.uleb128 0x39
 8522 202d 01       		.uleb128 0x1
 8523 202e 52       		.byte	0x52
 8524 202f 05       		.uleb128 0x5
 8525 2030 03       		.byte	0x3
 8526 2031 54020000 		.4byte	.LC15
 8527 2035 39       		.uleb128 0x39
 8528 2036 01       		.uleb128 0x1
 8529 2037 51       		.byte	0x51
 8530 2038 05       		.uleb128 0x5
 8531 2039 03       		.byte	0x3
 8532 203a 00000000 		.4byte	.LC0
 8533 203e 39       		.uleb128 0x39
 8534 203f 02       		.uleb128 0x2
 8535 2040 7D       		.byte	0x7d
 8536 2041 00       		.sleb128 0
 8537 2042 05       		.uleb128 0x5
 8538 2043 03       		.byte	0x3
 8539 2044 50000000 		.4byte	.LC2
 8540 2048 00       		.byte	0
 8541 2049 38       		.uleb128 0x38
 8542 204a 6C040000 		.4byte	.LVL206
 8543 204e 4F140000 		.4byte	0x144f
 8544 2052 39       		.uleb128 0x39
 8545 2053 01       		.uleb128 0x1
 8546 2054 53       		.byte	0x53
 8547 2055 03       		.uleb128 0x3
 8548 2056 0A       		.byte	0xa
 8549 2057 BA03     		.2byte	0x3ba
 8550 2059 39       		.uleb128 0x39
 8551 205a 01       		.uleb128 0x1
 8552 205b 52       		.byte	0x52
 8553 205c 05       		.uleb128 0x5
 8554 205d 03       		.byte	0x3
ARM GAS  C:\Users\jo\AppData\Local\Temp\ccpE7U9z.s 			page 154


 8555 205e 28020000 		.4byte	.LC14
 8556 2062 39       		.uleb128 0x39
 8557 2063 01       		.uleb128 0x1
 8558 2064 51       		.byte	0x51
 8559 2065 05       		.uleb128 0x5
 8560 2066 03       		.byte	0x3
 8561 2067 00000000 		.4byte	.LC0
 8562 206b 39       		.uleb128 0x39
 8563 206c 02       		.uleb128 0x2
 8564 206d 7D       		.byte	0x7d
 8565 206e 00       		.sleb128 0
 8566 206f 05       		.uleb128 0x5
 8567 2070 03       		.byte	0x3
 8568 2071 50000000 		.4byte	.LC2
 8569 2075 00       		.byte	0
 8570 2076 00       		.byte	0
 8571 2077 3F       		.uleb128 0x3f
 8572 2078 30120000 		.4byte	0x1230
 8573 207c 4E020000 		.4byte	.LBB167
 8574 2080 08000000 		.4byte	.LBE167-.LBB167
 8575 2084 01       		.byte	0x1
 8576 2085 2A03     		.2byte	0x32a
 8577 2087 A8200000 		.4byte	0x20a8
 8578 208b 34       		.uleb128 0x34
 8579 208c 3D120000 		.4byte	0x123d
 8580 2090 BA0A0000 		.4byte	.LLST55
 8581 2094 38       		.uleb128 0x38
 8582 2095 54020000 		.4byte	.LVL176
 8583 2099 6B300000 		.4byte	0x306b
 8584 209d 39       		.uleb128 0x39
 8585 209e 01       		.uleb128 0x1
 8586 209f 50       		.byte	0x50
 8587 20a0 05       		.uleb128 0x5
 8588 20a1 03       		.byte	0x3
 8589 20a2 A0010000 		.4byte	.LC11
 8590 20a6 00       		.byte	0
 8591 20a7 00       		.byte	0
 8592 20a8 3F       		.uleb128 0x3f
 8593 20a9 30120000 		.4byte	0x1230
 8594 20ad 6E020000 		.4byte	.LBB169
 8595 20b1 08000000 		.4byte	.LBE169-.LBB169
 8596 20b5 01       		.byte	0x1
 8597 20b6 2B03     		.2byte	0x32b
 8598 20b8 D9200000 		.4byte	0x20d9
 8599 20bc 34       		.uleb128 0x34
 8600 20bd 3D120000 		.4byte	0x123d
 8601 20c1 D20A0000 		.4byte	.LLST56
 8602 20c5 38       		.uleb128 0x38
 8603 20c6 74020000 		.4byte	.LVL179
 8604 20ca 6B300000 		.4byte	0x306b
 8605 20ce 39       		.uleb128 0x39
 8606 20cf 01       		.uleb128 0x1
 8607 20d0 50       		.byte	0x50
 8608 20d1 05       		.uleb128 0x5
 8609 20d2 03       		.byte	0x3
 8610 20d3 CC010000 		.4byte	.LC12
 8611 20d7 00       		.byte	0
ARM GAS  C:\Users\jo\AppData\Local\Temp\ccpE7U9z.s 			page 155


 8612 20d8 00       		.byte	0
 8613 20d9 3F       		.uleb128 0x3f
 8614 20da 30120000 		.4byte	0x1230
 8615 20de 8E020000 		.4byte	.LBB171
 8616 20e2 06000000 		.4byte	.LBE171-.LBB171
 8617 20e6 01       		.byte	0x1
 8618 20e7 2C03     		.2byte	0x32c
 8619 20e9 0A210000 		.4byte	0x210a
 8620 20ed 34       		.uleb128 0x34
 8621 20ee 3D120000 		.4byte	0x123d
 8622 20f2 EA0A0000 		.4byte	.LLST57
 8623 20f6 38       		.uleb128 0x38
 8624 20f7 94020000 		.4byte	.LVL182
 8625 20fb 6B300000 		.4byte	0x306b
 8626 20ff 39       		.uleb128 0x39
 8627 2100 01       		.uleb128 0x1
 8628 2101 50       		.byte	0x50
 8629 2102 05       		.uleb128 0x5
 8630 2103 03       		.byte	0x3
 8631 2104 F8010000 		.4byte	.LC13
 8632 2108 00       		.byte	0
 8633 2109 00       		.byte	0
 8634 210a 41       		.uleb128 0x41
 8635 210b 9A000000 		.4byte	.LVL137
 8636 210f 16310000 		.4byte	0x3116
 8637 2113 1E210000 		.4byte	0x211e
 8638 2117 39       		.uleb128 0x39
 8639 2118 01       		.uleb128 0x1
 8640 2119 50       		.byte	0x50
 8641 211a 02       		.uleb128 0x2
 8642 211b 77       		.byte	0x77
 8643 211c 00       		.sleb128 0
 8644 211d 00       		.byte	0
 8645 211e 4D       		.uleb128 0x4d
 8646 211f 18010000 		.4byte	.LVL142
 8647 2123 2E210000 		.4byte	0x212e
 8648 2127 39       		.uleb128 0x39
 8649 2128 01       		.uleb128 0x1
 8650 2129 51       		.byte	0x51
 8651 212a 02       		.uleb128 0x2
 8652 212b 77       		.byte	0x77
 8653 212c 00       		.sleb128 0
 8654 212d 00       		.byte	0
 8655 212e 41       		.uleb128 0x41
 8656 212f 54010000 		.4byte	.LVL149
 8657 2133 4F140000 		.4byte	0x144f
 8658 2137 5C210000 		.4byte	0x215c
 8659 213b 39       		.uleb128 0x39
 8660 213c 01       		.uleb128 0x1
 8661 213d 53       		.byte	0x53
 8662 213e 03       		.uleb128 0x3
 8663 213f 0A       		.byte	0xa
 8664 2140 EE03     		.2byte	0x3ee
 8665 2142 39       		.uleb128 0x39
 8666 2143 01       		.uleb128 0x1
 8667 2144 52       		.byte	0x52
 8668 2145 05       		.uleb128 0x5
ARM GAS  C:\Users\jo\AppData\Local\Temp\ccpE7U9z.s 			page 156


 8669 2146 03       		.byte	0x3
 8670 2147 80020000 		.4byte	.LC16
 8671 214b 39       		.uleb128 0x39
 8672 214c 01       		.uleb128 0x1
 8673 214d 51       		.byte	0x51
 8674 214e 05       		.uleb128 0x5
 8675 214f 03       		.byte	0x3
 8676 2150 00000000 		.4byte	.LC0
 8677 2154 39       		.uleb128 0x39
 8678 2155 02       		.uleb128 0x2
 8679 2156 7D       		.byte	0x7d
 8680 2157 00       		.sleb128 0
 8681 2158 02       		.uleb128 0x2
 8682 2159 77       		.byte	0x77
 8683 215a 00       		.sleb128 0
 8684 215b 00       		.byte	0
 8685 215c 41       		.uleb128 0x41
 8686 215d 34020000 		.4byte	.LVL173
 8687 2161 AF300000 		.4byte	0x30af
 8688 2165 70210000 		.4byte	0x2170
 8689 2169 39       		.uleb128 0x39
 8690 216a 01       		.uleb128 0x1
 8691 216b 50       		.byte	0x50
 8692 216c 02       		.uleb128 0x2
 8693 216d 76       		.byte	0x76
 8694 216e 00       		.sleb128 0
 8695 216f 00       		.byte	0
 8696 2170 41       		.uleb128 0x41
 8697 2171 4E020000 		.4byte	.LVL175
 8698 2175 4F140000 		.4byte	0x144f
 8699 2179 A1210000 		.4byte	0x21a1
 8700 217d 39       		.uleb128 0x39
 8701 217e 01       		.uleb128 0x1
 8702 217f 53       		.byte	0x53
 8703 2180 03       		.uleb128 0x3
 8704 2181 0A       		.byte	0xa
 8705 2182 2A03     		.2byte	0x32a
 8706 2184 39       		.uleb128 0x39
 8707 2185 01       		.uleb128 0x1
 8708 2186 52       		.byte	0x52
 8709 2187 05       		.uleb128 0x5
 8710 2188 03       		.byte	0x3
 8711 2189 A0010000 		.4byte	.LC11
 8712 218d 39       		.uleb128 0x39
 8713 218e 01       		.uleb128 0x1
 8714 218f 51       		.byte	0x51
 8715 2190 05       		.uleb128 0x5
 8716 2191 03       		.byte	0x3
 8717 2192 00000000 		.4byte	.LC0
 8718 2196 39       		.uleb128 0x39
 8719 2197 02       		.uleb128 0x2
 8720 2198 7D       		.byte	0x7d
 8721 2199 00       		.sleb128 0
 8722 219a 05       		.uleb128 0x5
 8723 219b 03       		.byte	0x3
 8724 219c 50000000 		.4byte	.LC2
 8725 21a0 00       		.byte	0
ARM GAS  C:\Users\jo\AppData\Local\Temp\ccpE7U9z.s 			page 157


 8726 21a1 41       		.uleb128 0x41
 8727 21a2 6E020000 		.4byte	.LVL178
 8728 21a6 4F140000 		.4byte	0x144f
 8729 21aa D2210000 		.4byte	0x21d2
 8730 21ae 39       		.uleb128 0x39
 8731 21af 01       		.uleb128 0x1
 8732 21b0 53       		.byte	0x53
 8733 21b1 03       		.uleb128 0x3
 8734 21b2 0A       		.byte	0xa
 8735 21b3 2B03     		.2byte	0x32b
 8736 21b5 39       		.uleb128 0x39
 8737 21b6 01       		.uleb128 0x1
 8738 21b7 52       		.byte	0x52
 8739 21b8 05       		.uleb128 0x5
 8740 21b9 03       		.byte	0x3
 8741 21ba CC010000 		.4byte	.LC12
 8742 21be 39       		.uleb128 0x39
 8743 21bf 01       		.uleb128 0x1
 8744 21c0 51       		.byte	0x51
 8745 21c1 05       		.uleb128 0x5
 8746 21c2 03       		.byte	0x3
 8747 21c3 00000000 		.4byte	.LC0
 8748 21c7 39       		.uleb128 0x39
 8749 21c8 02       		.uleb128 0x2
 8750 21c9 7D       		.byte	0x7d
 8751 21ca 00       		.sleb128 0
 8752 21cb 05       		.uleb128 0x5
 8753 21cc 03       		.byte	0x3
 8754 21cd 50000000 		.4byte	.LC2
 8755 21d1 00       		.byte	0
 8756 21d2 41       		.uleb128 0x41
 8757 21d3 8E020000 		.4byte	.LVL181
 8758 21d7 4F140000 		.4byte	0x144f
 8759 21db 03220000 		.4byte	0x2203
 8760 21df 39       		.uleb128 0x39
 8761 21e0 01       		.uleb128 0x1
 8762 21e1 53       		.byte	0x53
 8763 21e2 03       		.uleb128 0x3
 8764 21e3 0A       		.byte	0xa
 8765 21e4 2C03     		.2byte	0x32c
 8766 21e6 39       		.uleb128 0x39
 8767 21e7 01       		.uleb128 0x1
 8768 21e8 52       		.byte	0x52
 8769 21e9 05       		.uleb128 0x5
 8770 21ea 03       		.byte	0x3
 8771 21eb F8010000 		.4byte	.LC13
 8772 21ef 39       		.uleb128 0x39
 8773 21f0 01       		.uleb128 0x1
 8774 21f1 51       		.byte	0x51
 8775 21f2 05       		.uleb128 0x5
 8776 21f3 03       		.byte	0x3
 8777 21f4 00000000 		.4byte	.LC0
 8778 21f8 39       		.uleb128 0x39
 8779 21f9 02       		.uleb128 0x2
 8780 21fa 7D       		.byte	0x7d
 8781 21fb 00       		.sleb128 0
 8782 21fc 05       		.uleb128 0x5
ARM GAS  C:\Users\jo\AppData\Local\Temp\ccpE7U9z.s 			page 158


 8783 21fd 03       		.byte	0x3
 8784 21fe 50000000 		.4byte	.LC2
 8785 2202 00       		.byte	0
 8786 2203 41       		.uleb128 0x41
 8787 2204 6C030000 		.4byte	.LVL190
 8788 2208 28310000 		.4byte	0x3128
 8789 220c 17220000 		.4byte	0x2217
 8790 2210 39       		.uleb128 0x39
 8791 2211 01       		.uleb128 0x1
 8792 2212 50       		.byte	0x50
 8793 2213 02       		.uleb128 0x2
 8794 2214 77       		.byte	0x77
 8795 2215 00       		.sleb128 0
 8796 2216 00       		.byte	0
 8797 2217 38       		.uleb128 0x38
 8798 2218 E8030000 		.4byte	.LVL197
 8799 221c 39310000 		.4byte	0x3139
 8800 2220 39       		.uleb128 0x39
 8801 2221 01       		.uleb128 0x1
 8802 2222 50       		.byte	0x50
 8803 2223 02       		.uleb128 0x2
 8804 2224 77       		.byte	0x77
 8805 2225 00       		.sleb128 0
 8806 2226 00       		.byte	0
 8807 2227 00       		.byte	0
 8808 2228 48       		.uleb128 0x48
 8809 2229 E9020000 		.4byte	.LASF298
 8810 222d 01       		.byte	0x1
 8811 222e 0206     		.2byte	0x602
 8812 2230 00000000 		.4byte	.LFB289
 8813 2234 E0000000 		.4byte	.LFE289-.LFB289
 8814 2238 01       		.uleb128 0x1
 8815 2239 9C       		.byte	0x9c
 8816 223a A9230000 		.4byte	0x23a9
 8817 223e 3C       		.uleb128 0x3c
 8818 223f 3F050000 		.4byte	.LASF299
 8819 2243 01       		.byte	0x1
 8820 2244 0206     		.2byte	0x602
 8821 2246 A9230000 		.4byte	0x23a9
 8822 224a 020B0000 		.4byte	.LLST58
 8823 224e 2E       		.uleb128 0x2e
 8824 224f 70636200 		.ascii	"pcb\000"
 8825 2253 01       		.byte	0x1
 8826 2254 0206     		.2byte	0x602
 8827 2256 130B0000 		.4byte	0xb13
 8828 225a 470B0000 		.4byte	.LLST59
 8829 225e 3F       		.uleb128 0x3f
 8830 225f 30120000 		.4byte	0x1230
 8831 2263 58000000 		.4byte	.LBB177
 8832 2267 06000000 		.4byte	.LBE177-.LBB177
 8833 226b 01       		.byte	0x1
 8834 226c 1106     		.2byte	0x611
 8835 226e 8F220000 		.4byte	0x228f
 8836 2272 34       		.uleb128 0x34
 8837 2273 3D120000 		.4byte	0x123d
 8838 2277 7B0B0000 		.4byte	.LLST60
 8839 227b 38       		.uleb128 0x38
ARM GAS  C:\Users\jo\AppData\Local\Temp\ccpE7U9z.s 			page 159


 8840 227c 5E000000 		.4byte	.LVL216
 8841 2280 6B300000 		.4byte	0x306b
 8842 2284 39       		.uleb128 0x39
 8843 2285 01       		.uleb128 0x1
 8844 2286 50       		.byte	0x50
 8845 2287 05       		.uleb128 0x5
 8846 2288 03       		.byte	0x3
 8847 2289 00030000 		.4byte	.LC19
 8848 228d 00       		.byte	0
 8849 228e 00       		.byte	0
 8850 228f 3F       		.uleb128 0x3f
 8851 2290 30120000 		.4byte	0x1230
 8852 2294 74000000 		.4byte	.LBB179
 8853 2298 06000000 		.4byte	.LBE179-.LBB179
 8854 229c 01       		.byte	0x1
 8855 229d 1206     		.2byte	0x612
 8856 229f C0220000 		.4byte	0x22c0
 8857 22a3 34       		.uleb128 0x34
 8858 22a4 3D120000 		.4byte	0x123d
 8859 22a8 930B0000 		.4byte	.LLST61
 8860 22ac 38       		.uleb128 0x38
 8861 22ad 7A000000 		.4byte	.LVL218
 8862 22b1 6B300000 		.4byte	0x306b
 8863 22b5 39       		.uleb128 0x39
 8864 22b6 01       		.uleb128 0x1
 8865 22b7 50       		.byte	0x50
 8866 22b8 05       		.uleb128 0x5
 8867 22b9 03       		.byte	0x3
 8868 22ba 18030000 		.4byte	.LC20
 8869 22be 00       		.byte	0
 8870 22bf 00       		.byte	0
 8871 22c0 3F       		.uleb128 0x3f
 8872 22c1 30120000 		.4byte	0x1230
 8873 22c5 90000000 		.4byte	.LBB181
 8874 22c9 06000000 		.4byte	.LBE181-.LBB181
 8875 22cd 01       		.byte	0x1
 8876 22ce 1406     		.2byte	0x614
 8877 22d0 F1220000 		.4byte	0x22f1
 8878 22d4 34       		.uleb128 0x34
 8879 22d5 3D120000 		.4byte	0x123d
 8880 22d9 AB0B0000 		.4byte	.LLST62
 8881 22dd 38       		.uleb128 0x38
 8882 22de 96000000 		.4byte	.LVL220
 8883 22e2 6B300000 		.4byte	0x306b
 8884 22e6 39       		.uleb128 0x39
 8885 22e7 01       		.uleb128 0x1
 8886 22e8 50       		.byte	0x50
 8887 22e9 05       		.uleb128 0x5
 8888 22ea 03       		.byte	0x3
 8889 22eb 34030000 		.4byte	.LC21
 8890 22ef 00       		.byte	0
 8891 22f0 00       		.byte	0
 8892 22f1 41       		.uleb128 0x41
 8893 22f2 32000000 		.4byte	.LVL214
 8894 22f6 A4120000 		.4byte	0x12a4
 8895 22fa 05230000 		.4byte	0x2305
 8896 22fe 39       		.uleb128 0x39
ARM GAS  C:\Users\jo\AppData\Local\Temp\ccpE7U9z.s 			page 160


 8897 22ff 01       		.uleb128 0x1
 8898 2300 50       		.byte	0x50
 8899 2301 02       		.uleb128 0x2
 8900 2302 74       		.byte	0x74
 8901 2303 00       		.sleb128 0
 8902 2304 00       		.byte	0
 8903 2305 41       		.uleb128 0x41
 8904 2306 58000000 		.4byte	.LVL215
 8905 230a 4F140000 		.4byte	0x144f
 8906 230e 36230000 		.4byte	0x2336
 8907 2312 39       		.uleb128 0x39
 8908 2313 01       		.uleb128 0x1
 8909 2314 53       		.byte	0x53
 8910 2315 03       		.uleb128 0x3
 8911 2316 0A       		.byte	0xa
 8912 2317 1106     		.2byte	0x611
 8913 2319 39       		.uleb128 0x39
 8914 231a 01       		.uleb128 0x1
 8915 231b 52       		.byte	0x52
 8916 231c 05       		.uleb128 0x5
 8917 231d 03       		.byte	0x3
 8918 231e 00030000 		.4byte	.LC19
 8919 2322 39       		.uleb128 0x39
 8920 2323 01       		.uleb128 0x1
 8921 2324 51       		.byte	0x51
 8922 2325 05       		.uleb128 0x5
 8923 2326 03       		.byte	0x3
 8924 2327 00000000 		.4byte	.LC0
 8925 232b 39       		.uleb128 0x39
 8926 232c 02       		.uleb128 0x2
 8927 232d 7D       		.byte	0x7d
 8928 232e 00       		.sleb128 0
 8929 232f 05       		.uleb128 0x5
 8930 2330 03       		.byte	0x3
 8931 2331 50000000 		.4byte	.LC2
 8932 2335 00       		.byte	0
 8933 2336 41       		.uleb128 0x41
 8934 2337 74000000 		.4byte	.LVL217
 8935 233b 4F140000 		.4byte	0x144f
 8936 233f 67230000 		.4byte	0x2367
 8937 2343 39       		.uleb128 0x39
 8938 2344 01       		.uleb128 0x1
 8939 2345 53       		.byte	0x53
 8940 2346 03       		.uleb128 0x3
 8941 2347 0A       		.byte	0xa
 8942 2348 1206     		.2byte	0x612
 8943 234a 39       		.uleb128 0x39
 8944 234b 01       		.uleb128 0x1
 8945 234c 52       		.byte	0x52
 8946 234d 05       		.uleb128 0x5
 8947 234e 03       		.byte	0x3
 8948 234f 18030000 		.4byte	.LC20
 8949 2353 39       		.uleb128 0x39
 8950 2354 01       		.uleb128 0x1
 8951 2355 51       		.byte	0x51
 8952 2356 05       		.uleb128 0x5
 8953 2357 03       		.byte	0x3
ARM GAS  C:\Users\jo\AppData\Local\Temp\ccpE7U9z.s 			page 161


 8954 2358 00000000 		.4byte	.LC0
 8955 235c 39       		.uleb128 0x39
 8956 235d 02       		.uleb128 0x2
 8957 235e 7D       		.byte	0x7d
 8958 235f 00       		.sleb128 0
 8959 2360 05       		.uleb128 0x5
 8960 2361 03       		.byte	0x3
 8961 2362 50000000 		.4byte	.LC2
 8962 2366 00       		.byte	0
 8963 2367 41       		.uleb128 0x41
 8964 2368 90000000 		.4byte	.LVL219
 8965 236c 4F140000 		.4byte	0x144f
 8966 2370 98230000 		.4byte	0x2398
 8967 2374 39       		.uleb128 0x39
 8968 2375 01       		.uleb128 0x1
 8969 2376 53       		.byte	0x53
 8970 2377 03       		.uleb128 0x3
 8971 2378 0A       		.byte	0xa
 8972 2379 1406     		.2byte	0x614
 8973 237b 39       		.uleb128 0x39
 8974 237c 01       		.uleb128 0x1
 8975 237d 52       		.byte	0x52
 8976 237e 05       		.uleb128 0x5
 8977 237f 03       		.byte	0x3
 8978 2380 34030000 		.4byte	.LC21
 8979 2384 39       		.uleb128 0x39
 8980 2385 01       		.uleb128 0x1
 8981 2386 51       		.byte	0x51
 8982 2387 05       		.uleb128 0x5
 8983 2388 03       		.byte	0x3
 8984 2389 00000000 		.4byte	.LC0
 8985 238d 39       		.uleb128 0x39
 8986 238e 02       		.uleb128 0x2
 8987 238f 7D       		.byte	0x7d
 8988 2390 00       		.sleb128 0
 8989 2391 05       		.uleb128 0x5
 8990 2392 03       		.byte	0x3
 8991 2393 50000000 		.4byte	.LC2
 8992 2397 00       		.byte	0
 8993 2398 38       		.uleb128 0x38
 8994 2399 B2000000 		.4byte	.LVL223
 8995 239d AF300000 		.4byte	0x30af
 8996 23a1 39       		.uleb128 0x39
 8997 23a2 01       		.uleb128 0x1
 8998 23a3 50       		.byte	0x50
 8999 23a4 02       		.uleb128 0x2
 9000 23a5 74       		.byte	0x74
 9001 23a6 00       		.sleb128 0
 9002 23a7 00       		.byte	0
 9003 23a8 00       		.byte	0
 9004 23a9 0B       		.uleb128 0xb
 9005 23aa 04       		.byte	0x4
 9006 23ab 130B0000 		.4byte	0xb13
 9007 23af 4E       		.uleb128 0x4e
 9008 23b0 B1080000 		.4byte	.LASF300
 9009 23b4 01       		.byte	0x1
 9010 23b5 AA       		.byte	0xaa
ARM GAS  C:\Users\jo\AppData\Local\Temp\ccpE7U9z.s 			page 162


 9011 23b6 23090000 		.4byte	0x923
 9012 23ba 00000000 		.4byte	.LFB258
 9013 23be A4010000 		.4byte	.LFE258-.LFB258
 9014 23c2 01       		.uleb128 0x1
 9015 23c3 9C       		.byte	0x9c
 9016 23c4 67250000 		.4byte	0x2567
 9017 23c8 4F       		.uleb128 0x4f
 9018 23c9 70636200 		.ascii	"pcb\000"
 9019 23cd 01       		.byte	0x1
 9020 23ce AA       		.byte	0xaa
 9021 23cf 130B0000 		.4byte	0xb13
 9022 23d3 C30B0000 		.4byte	.LLST63
 9023 23d7 50       		.uleb128 0x50
 9024 23d8 C5020000 		.4byte	.LASF301
 9025 23dc 01       		.byte	0x1
 9026 23dd AA       		.byte	0xaa
 9027 23de 44080000 		.4byte	0x844
 9028 23e2 9F0C0000 		.4byte	.LLST64
 9029 23e6 51       		.uleb128 0x51
 9030 23e7 65727200 		.ascii	"err\000"
 9031 23eb 01       		.byte	0x1
 9032 23ec AC       		.byte	0xac
 9033 23ed 23090000 		.4byte	0x923
 9034 23f1 F20C0000 		.4byte	.LLST65
 9035 23f5 52       		.uleb128 0x52
 9036 23f6 30120000 		.4byte	0x1230
 9037 23fa FC000000 		.4byte	.LBB183
 9038 23fe 0A000000 		.4byte	.LBE183-.LBB183
 9039 2402 01       		.byte	0x1
 9040 2403 B2       		.byte	0xb2
 9041 2404 25240000 		.4byte	0x2425
 9042 2408 34       		.uleb128 0x34
 9043 2409 3D120000 		.4byte	0x123d
 9044 240d 4C0D0000 		.4byte	.LLST66
 9045 2411 38       		.uleb128 0x38
 9046 2412 02010000 		.4byte	.LVL252
 9047 2416 6B300000 		.4byte	0x306b
 9048 241a 39       		.uleb128 0x39
 9049 241b 01       		.uleb128 0x1
 9050 241c 50       		.byte	0x50
 9051 241d 05       		.uleb128 0x5
 9052 241e 03       		.byte	0x3
 9053 241f 4C030000 		.4byte	.LC22
 9054 2423 00       		.byte	0
 9055 2424 00       		.byte	0
 9056 2425 41       		.uleb128 0x41
 9057 2426 28000000 		.4byte	.LVL229
 9058 242a 4B310000 		.4byte	0x314b
 9059 242e 39240000 		.4byte	0x2439
 9060 2432 39       		.uleb128 0x39
 9061 2433 01       		.uleb128 0x1
 9062 2434 50       		.byte	0x50
 9063 2435 02       		.uleb128 0x2
 9064 2436 74       		.byte	0x74
 9065 2437 00       		.sleb128 0
 9066 2438 00       		.byte	0
 9067 2439 41       		.uleb128 0x41
ARM GAS  C:\Users\jo\AppData\Local\Temp\ccpE7U9z.s 			page 163


 9068 243a 34000000 		.4byte	.LVL231
 9069 243e AF300000 		.4byte	0x30af
 9070 2442 4D240000 		.4byte	0x244d
 9071 2446 39       		.uleb128 0x39
 9072 2447 01       		.uleb128 0x1
 9073 2448 50       		.byte	0x50
 9074 2449 02       		.uleb128 0x2
 9075 244a 74       		.byte	0x74
 9076 244b 00       		.sleb128 0
 9077 244c 00       		.byte	0
 9078 244d 41       		.uleb128 0x41
 9079 244e 42000000 		.4byte	.LVL234
 9080 2452 4B310000 		.4byte	0x314b
 9081 2456 61240000 		.4byte	0x2461
 9082 245a 39       		.uleb128 0x39
 9083 245b 01       		.uleb128 0x1
 9084 245c 50       		.byte	0x50
 9085 245d 02       		.uleb128 0x2
 9086 245e 74       		.byte	0x74
 9087 245f 00       		.sleb128 0
 9088 2460 00       		.byte	0
 9089 2461 41       		.uleb128 0x41
 9090 2462 6E000000 		.4byte	.LVL238
 9091 2466 EB300000 		.4byte	0x30eb
 9092 246a 7B240000 		.4byte	0x247b
 9093 246e 39       		.uleb128 0x39
 9094 246f 01       		.uleb128 0x1
 9095 2470 53       		.byte	0x53
 9096 2471 02       		.uleb128 0x2
 9097 2472 74       		.byte	0x74
 9098 2473 04       		.sleb128 4
 9099 2474 39       		.uleb128 0x39
 9100 2475 01       		.uleb128 0x1
 9101 2476 52       		.byte	0x52
 9102 2477 02       		.uleb128 0x2
 9103 2478 74       		.byte	0x74
 9104 2479 00       		.sleb128 0
 9105 247a 00       		.byte	0
 9106 247b 41       		.uleb128 0x41
 9107 247c 74000000 		.4byte	.LVL239
 9108 2480 A4120000 		.4byte	0x12a4
 9109 2484 8F240000 		.4byte	0x248f
 9110 2488 39       		.uleb128 0x39
 9111 2489 01       		.uleb128 0x1
 9112 248a 50       		.byte	0x50
 9113 248b 02       		.uleb128 0x2
 9114 248c 74       		.byte	0x74
 9115 248d 00       		.sleb128 0
 9116 248e 00       		.byte	0
 9117 248f 41       		.uleb128 0x41
 9118 2490 CA000000 		.4byte	.LVL243
 9119 2494 28220000 		.4byte	0x2228
 9120 2498 AC240000 		.4byte	0x24ac
 9121 249c 39       		.uleb128 0x39
 9122 249d 01       		.uleb128 0x1
 9123 249e 51       		.byte	0x51
 9124 249f 02       		.uleb128 0x2
ARM GAS  C:\Users\jo\AppData\Local\Temp\ccpE7U9z.s 			page 164


 9125 24a0 74       		.byte	0x74
 9126 24a1 00       		.sleb128 0
 9127 24a2 39       		.uleb128 0x39
 9128 24a3 01       		.uleb128 0x1
 9129 24a4 50       		.byte	0x50
 9130 24a5 05       		.uleb128 0x5
 9131 24a6 03       		.byte	0x3
 9132 24a7 00000000 		.4byte	.LANCHOR4
 9133 24ab 00       		.byte	0
 9134 24ac 41       		.uleb128 0x41
 9135 24ad D2000000 		.4byte	.LVL244
 9136 24b1 99300000 		.4byte	0x3099
 9137 24b5 C5240000 		.4byte	0x24c5
 9138 24b9 39       		.uleb128 0x39
 9139 24ba 01       		.uleb128 0x1
 9140 24bb 51       		.byte	0x51
 9141 24bc 02       		.uleb128 0x2
 9142 24bd 74       		.byte	0x74
 9143 24be 00       		.sleb128 0
 9144 24bf 39       		.uleb128 0x39
 9145 24c0 01       		.uleb128 0x1
 9146 24c1 50       		.byte	0x50
 9147 24c2 01       		.uleb128 0x1
 9148 24c3 33       		.byte	0x33
 9149 24c4 00       		.byte	0
 9150 24c5 41       		.uleb128 0x41
 9151 24c6 DC000000 		.4byte	.LVL247
 9152 24ca 28220000 		.4byte	0x2228
 9153 24ce E2240000 		.4byte	0x24e2
 9154 24d2 39       		.uleb128 0x39
 9155 24d3 01       		.uleb128 0x1
 9156 24d4 51       		.byte	0x51
 9157 24d5 02       		.uleb128 0x2
 9158 24d6 74       		.byte	0x74
 9159 24d7 00       		.sleb128 0
 9160 24d8 39       		.uleb128 0x39
 9161 24d9 01       		.uleb128 0x1
 9162 24da 50       		.byte	0x50
 9163 24db 05       		.uleb128 0x5
 9164 24dc 03       		.byte	0x3
 9165 24dd 00000000 		.4byte	.LANCHOR7
 9166 24e1 00       		.byte	0
 9167 24e2 41       		.uleb128 0x41
 9168 24e3 EA000000 		.4byte	.LVL248
 9169 24e7 99300000 		.4byte	0x3099
 9170 24eb FB240000 		.4byte	0x24fb
 9171 24ef 39       		.uleb128 0x39
 9172 24f0 01       		.uleb128 0x1
 9173 24f1 51       		.byte	0x51
 9174 24f2 02       		.uleb128 0x2
 9175 24f3 74       		.byte	0x74
 9176 24f4 00       		.sleb128 0
 9177 24f5 39       		.uleb128 0x39
 9178 24f6 01       		.uleb128 0x1
 9179 24f7 50       		.byte	0x50
 9180 24f8 01       		.uleb128 0x1
 9181 24f9 32       		.byte	0x32
ARM GAS  C:\Users\jo\AppData\Local\Temp\ccpE7U9z.s 			page 165


 9182 24fa 00       		.byte	0
 9183 24fb 41       		.uleb128 0x41
 9184 24fc FC000000 		.4byte	.LVL251
 9185 2500 4F140000 		.4byte	0x144f
 9186 2504 2B250000 		.4byte	0x252b
 9187 2508 39       		.uleb128 0x39
 9188 2509 01       		.uleb128 0x1
 9189 250a 53       		.byte	0x53
 9190 250b 02       		.uleb128 0x2
 9191 250c 08       		.byte	0x8
 9192 250d B2       		.byte	0xb2
 9193 250e 39       		.uleb128 0x39
 9194 250f 01       		.uleb128 0x1
 9195 2510 52       		.byte	0x52
 9196 2511 05       		.uleb128 0x5
 9197 2512 03       		.byte	0x3
 9198 2513 4C030000 		.4byte	.LC22
 9199 2517 39       		.uleb128 0x39
 9200 2518 01       		.uleb128 0x1
 9201 2519 51       		.byte	0x51
 9202 251a 05       		.uleb128 0x5
 9203 251b 03       		.byte	0x3
 9204 251c 00000000 		.4byte	.LC0
 9205 2520 39       		.uleb128 0x39
 9206 2521 02       		.uleb128 0x2
 9207 2522 7D       		.byte	0x7d
 9208 2523 00       		.sleb128 0
 9209 2524 05       		.uleb128 0x5
 9210 2525 03       		.byte	0x3
 9211 2526 50000000 		.4byte	.LC2
 9212 252a 00       		.byte	0
 9213 252b 41       		.uleb128 0x41
 9214 252c 22010000 		.4byte	.LVL254
 9215 2530 99300000 		.4byte	0x3099
 9216 2534 44250000 		.4byte	0x2544
 9217 2538 39       		.uleb128 0x39
 9218 2539 01       		.uleb128 0x1
 9219 253a 51       		.byte	0x51
 9220 253b 02       		.uleb128 0x2
 9221 253c 74       		.byte	0x74
 9222 253d 00       		.sleb128 0
 9223 253e 39       		.uleb128 0x39
 9224 253f 01       		.uleb128 0x1
 9225 2540 50       		.byte	0x50
 9226 2541 01       		.uleb128 0x1
 9227 2542 32       		.byte	0x32
 9228 2543 00       		.byte	0
 9229 2544 41       		.uleb128 0x41
 9230 2545 3A010000 		.4byte	.LVL257
 9231 2549 99300000 		.4byte	0x3099
 9232 254d 5D250000 		.4byte	0x255d
 9233 2551 39       		.uleb128 0x39
 9234 2552 01       		.uleb128 0x1
 9235 2553 51       		.byte	0x51
 9236 2554 02       		.uleb128 0x2
 9237 2555 74       		.byte	0x74
 9238 2556 00       		.sleb128 0
ARM GAS  C:\Users\jo\AppData\Local\Temp\ccpE7U9z.s 			page 166


 9239 2557 39       		.uleb128 0x39
 9240 2558 01       		.uleb128 0x1
 9241 2559 50       		.byte	0x50
 9242 255a 01       		.uleb128 0x1
 9243 255b 32       		.byte	0x32
 9244 255c 00       		.byte	0
 9245 255d 40       		.uleb128 0x40
 9246 255e 50010000 		.4byte	.LVL259
 9247 2562 7C300000 		.4byte	0x307c
 9248 2566 00       		.byte	0
 9249 2567 3B       		.uleb128 0x3b
 9250 2568 99080000 		.4byte	.LASF302
 9251 256c 01       		.byte	0x1
 9252 256d 1D01     		.2byte	0x11d
 9253 256f 23090000 		.4byte	0x923
 9254 2573 00000000 		.4byte	.LFB259
 9255 2577 14000000 		.4byte	.LFE259-.LFB259
 9256 257b 01       		.uleb128 0x1
 9257 257c 9C       		.byte	0x9c
 9258 257d A1250000 		.4byte	0x25a1
 9259 2581 2E       		.uleb128 0x2e
 9260 2582 70636200 		.ascii	"pcb\000"
 9261 2586 01       		.byte	0x1
 9262 2587 1D01     		.2byte	0x11d
 9263 2589 130B0000 		.4byte	0xb13
 9264 258d 640D0000 		.4byte	.LLST67
 9265 2591 47       		.uleb128 0x47
 9266 2592 14000000 		.4byte	.LVL265
 9267 2596 AF230000 		.4byte	0x23af
 9268 259a 39       		.uleb128 0x39
 9269 259b 01       		.uleb128 0x1
 9270 259c 51       		.byte	0x51
 9271 259d 01       		.uleb128 0x1
 9272 259e 31       		.byte	0x31
 9273 259f 00       		.byte	0
 9274 25a0 00       		.byte	0
 9275 25a1 33       		.uleb128 0x33
 9276 25a2 BE120000 		.4byte	0x12be
 9277 25a6 00000000 		.4byte	.LFB277
 9278 25aa 24000000 		.4byte	.LFE277-.LFB277
 9279 25ae 01       		.uleb128 0x1
 9280 25af 9C       		.byte	0x9c
 9281 25b0 3A260000 		.4byte	0x263a
 9282 25b4 34       		.uleb128 0x34
 9283 25b5 CF120000 		.4byte	0x12cf
 9284 25b9 850D0000 		.4byte	.LLST68
 9285 25bd 34       		.uleb128 0x34
 9286 25be DB120000 		.4byte	0x12db
 9287 25c2 D80D0000 		.4byte	.LLST69
 9288 25c6 34       		.uleb128 0x34
 9289 25c7 E7120000 		.4byte	0x12e7
 9290 25cb 1D0E0000 		.4byte	.LLST70
 9291 25cf 34       		.uleb128 0x34
 9292 25d0 F1120000 		.4byte	0x12f1
 9293 25d4 540E0000 		.4byte	.LLST71
 9294 25d8 45       		.uleb128 0x45
 9295 25d9 78000000 		.4byte	.Ldebug_ranges0+0x78
ARM GAS  C:\Users\jo\AppData\Local\Temp\ccpE7U9z.s 			page 167


 9296 25dd 14260000 		.4byte	0x2614
 9297 25e1 34       		.uleb128 0x34
 9298 25e2 CF120000 		.4byte	0x12cf
 9299 25e6 8E0E0000 		.4byte	.LLST72
 9300 25ea 53       		.uleb128 0x53
 9301 25eb E7120000 		.4byte	0x12e7
 9302 25ef 00       		.byte	0
 9303 25f0 34       		.uleb128 0x34
 9304 25f1 F1120000 		.4byte	0x12f1
 9305 25f5 C80E0000 		.4byte	.LLST73
 9306 25f9 34       		.uleb128 0x34
 9307 25fa DB120000 		.4byte	0x12db
 9308 25fe E90E0000 		.4byte	.LLST74
 9309 2602 47       		.uleb128 0x47
 9310 2603 24000000 		.4byte	.LVL275
 9311 2607 67250000 		.4byte	0x2567
 9312 260b 39       		.uleb128 0x39
 9313 260c 01       		.uleb128 0x1
 9314 260d 50       		.byte	0x50
 9315 260e 03       		.uleb128 0x3
 9316 260f F3       		.byte	0xf3
 9317 2610 01       		.uleb128 0x1
 9318 2611 51       		.byte	0x51
 9319 2612 00       		.byte	0
 9320 2613 00       		.byte	0
 9321 2614 41       		.uleb128 0x41
 9322 2615 0E000000 		.4byte	.LVL269
 9323 2619 4A120000 		.4byte	0x124a
 9324 261d 29260000 		.4byte	0x2629
 9325 2621 39       		.uleb128 0x39
 9326 2622 01       		.uleb128 0x1
 9327 2623 50       		.byte	0x50
 9328 2624 03       		.uleb128 0x3
 9329 2625 F3       		.byte	0xf3
 9330 2626 01       		.uleb128 0x1
 9331 2627 51       		.byte	0x51
 9332 2628 00       		.byte	0
 9333 2629 38       		.uleb128 0x38
 9334 262a 14000000 		.4byte	.LVL270
 9335 262e C5300000 		.4byte	0x30c5
 9336 2632 39       		.uleb128 0x39
 9337 2633 01       		.uleb128 0x1
 9338 2634 50       		.byte	0x50
 9339 2635 02       		.uleb128 0x2
 9340 2636 74       		.byte	0x74
 9341 2637 00       		.sleb128 0
 9342 2638 00       		.byte	0
 9343 2639 00       		.byte	0
 9344 263a 33       		.uleb128 0x33
 9345 263b FE120000 		.4byte	0x12fe
 9346 263f 00000000 		.4byte	.LFB272
 9347 2643 68000000 		.4byte	.LFE272-.LFB272
 9348 2647 01       		.uleb128 0x1
 9349 2648 9C       		.byte	0x9c
 9350 2649 F5260000 		.4byte	0x26f5
 9351 264d 34       		.uleb128 0x34
 9352 264e 0F130000 		.4byte	0x130f
ARM GAS  C:\Users\jo\AppData\Local\Temp\ccpE7U9z.s 			page 168


 9353 2652 0A0F0000 		.4byte	.LLST75
 9354 2656 44       		.uleb128 0x44
 9355 2657 1B130000 		.4byte	0x131b
 9356 265b 3E0F0000 		.4byte	.LLST76
 9357 265f 36       		.uleb128 0x36
 9358 2660 27130000 		.4byte	0x1327
 9359 2664 01       		.uleb128 0x1
 9360 2665 57       		.byte	0x57
 9361 2666 44       		.uleb128 0x44
 9362 2667 33130000 		.4byte	0x1333
 9363 266b 740F0000 		.4byte	.LLST77
 9364 266f 45       		.uleb128 0x45
 9365 2670 90000000 		.4byte	.Ldebug_ranges0+0x90
 9366 2674 B4260000 		.4byte	0x26b4
 9367 2678 34       		.uleb128 0x34
 9368 2679 0F130000 		.4byte	0x130f
 9369 267d 9D0F0000 		.4byte	.LLST78
 9370 2681 42       		.uleb128 0x42
 9371 2682 90000000 		.4byte	.Ldebug_ranges0+0x90
 9372 2686 44       		.uleb128 0x44
 9373 2687 1B130000 		.4byte	0x131b
 9374 268b B00F0000 		.4byte	.LLST79
 9375 268f 46       		.uleb128 0x46
 9376 2690 27130000 		.4byte	0x1327
 9377 2694 46       		.uleb128 0x46
 9378 2695 33130000 		.4byte	0x1333
 9379 2699 54       		.uleb128 0x54
 9380 269a 3E000000 		.4byte	.LVL283
 9381 269e 02       		.uleb128 0x2
 9382 269f 75       		.byte	0x75
 9383 26a0 00       		.sleb128 0
 9384 26a1 39       		.uleb128 0x39
 9385 26a2 01       		.uleb128 0x1
 9386 26a3 53       		.byte	0x53
 9387 26a4 01       		.uleb128 0x1
 9388 26a5 30       		.byte	0x30
 9389 26a6 39       		.uleb128 0x39
 9390 26a7 01       		.uleb128 0x1
 9391 26a8 52       		.byte	0x52
 9392 26a9 01       		.uleb128 0x1
 9393 26aa 30       		.byte	0x30
 9394 26ab 39       		.uleb128 0x39
 9395 26ac 01       		.uleb128 0x1
 9396 26ad 51       		.byte	0x51
 9397 26ae 02       		.uleb128 0x2
 9398 26af 74       		.byte	0x74
 9399 26b0 00       		.sleb128 0
 9400 26b1 00       		.byte	0
 9401 26b2 00       		.byte	0
 9402 26b3 00       		.byte	0
 9403 26b4 4C       		.uleb128 0x4c
 9404 26b5 1A000000 		.4byte	.LVL279
 9405 26b9 02       		.uleb128 0x2
 9406 26ba 76       		.byte	0x76
 9407 26bb 00       		.sleb128 0
 9408 26bc D2260000 		.4byte	0x26d2
 9409 26c0 39       		.uleb128 0x39
ARM GAS  C:\Users\jo\AppData\Local\Temp\ccpE7U9z.s 			page 169


 9410 26c1 01       		.uleb128 0x1
 9411 26c2 53       		.byte	0x53
 9412 26c3 01       		.uleb128 0x1
 9413 26c4 30       		.byte	0x30
 9414 26c5 39       		.uleb128 0x39
 9415 26c6 01       		.uleb128 0x1
 9416 26c7 52       		.byte	0x52
 9417 26c8 02       		.uleb128 0x2
 9418 26c9 75       		.byte	0x75
 9419 26ca 00       		.sleb128 0
 9420 26cb 39       		.uleb128 0x39
 9421 26cc 01       		.uleb128 0x1
 9422 26cd 51       		.byte	0x51
 9423 26ce 02       		.uleb128 0x2
 9424 26cf 74       		.byte	0x74
 9425 26d0 00       		.sleb128 0
 9426 26d1 00       		.byte	0
 9427 26d2 38       		.uleb128 0x38
 9428 26d3 62000000 		.4byte	.LVL291
 9429 26d7 BE120000 		.4byte	0x12be
 9430 26db 39       		.uleb128 0x39
 9431 26dc 01       		.uleb128 0x1
 9432 26dd 53       		.byte	0x53
 9433 26de 02       		.uleb128 0x2
 9434 26df 76       		.byte	0x76
 9435 26e0 00       		.sleb128 0
 9436 26e1 39       		.uleb128 0x39
 9437 26e2 01       		.uleb128 0x1
 9438 26e3 52       		.byte	0x52
 9439 26e4 02       		.uleb128 0x2
 9440 26e5 75       		.byte	0x75
 9441 26e6 00       		.sleb128 0
 9442 26e7 39       		.uleb128 0x39
 9443 26e8 01       		.uleb128 0x1
 9444 26e9 51       		.byte	0x51
 9445 26ea 02       		.uleb128 0x2
 9446 26eb 74       		.byte	0x74
 9447 26ec 00       		.sleb128 0
 9448 26ed 39       		.uleb128 0x39
 9449 26ee 01       		.uleb128 0x1
 9450 26ef 50       		.byte	0x50
 9451 26f0 02       		.uleb128 0x2
 9452 26f1 76       		.byte	0x76
 9453 26f2 00       		.sleb128 0
 9454 26f3 00       		.byte	0
 9455 26f4 00       		.byte	0
 9456 26f5 48       		.uleb128 0x48
 9457 26f6 19080000 		.4byte	.LASF303
 9458 26fa 01       		.byte	0x1
 9459 26fb 1604     		.2byte	0x416
 9460 26fd 00000000 		.4byte	.LFB271
 9461 2701 70000000 		.4byte	.LFE271-.LFB271
 9462 2705 01       		.uleb128 0x1
 9463 2706 9C       		.byte	0x9c
 9464 2707 53270000 		.4byte	0x2753
 9465 270b 27       		.uleb128 0x27
 9466 270c 70636200 		.ascii	"pcb\000"
ARM GAS  C:\Users\jo\AppData\Local\Temp\ccpE7U9z.s 			page 170


 9467 2710 01       		.byte	0x1
 9468 2711 1804     		.2byte	0x418
 9469 2713 130B0000 		.4byte	0xb13
 9470 2717 32       		.uleb128 0x32
 9471 2718 EC0D0000 		.4byte	.LASF305
 9472 271c 01       		.byte	0x1
 9473 271d 1C04     		.2byte	0x41c
 9474 271f 14000000 		.4byte	.L421
 9475 2723 42       		.uleb128 0x42
 9476 2724 A8000000 		.4byte	.Ldebug_ranges0+0xa8
 9477 2728 3E       		.uleb128 0x3e
 9478 2729 4B010000 		.4byte	.LASF139
 9479 272d 01       		.byte	0x1
 9480 272e 2104     		.2byte	0x421
 9481 2730 130B0000 		.4byte	0xb13
 9482 2734 C30F0000 		.4byte	.LLST80
 9483 2738 40       		.uleb128 0x40
 9484 2739 44000000 		.4byte	.LVL295
 9485 273d FE120000 		.4byte	0x12fe
 9486 2741 38       		.uleb128 0x38
 9487 2742 5A000000 		.4byte	.LVL297
 9488 2746 AF300000 		.4byte	0x30af
 9489 274a 39       		.uleb128 0x39
 9490 274b 01       		.uleb128 0x1
 9491 274c 50       		.byte	0x50
 9492 274d 02       		.uleb128 0x2
 9493 274e 74       		.byte	0x74
 9494 274f 00       		.sleb128 0
 9495 2750 00       		.byte	0
 9496 2751 00       		.byte	0
 9497 2752 00       		.byte	0
 9498 2753 55       		.uleb128 0x55
 9499 2754 CB060000 		.4byte	.LASF306
 9500 2758 01       		.byte	0x1
 9501 2759 8D       		.byte	0x8d
 9502 275a 00000000 		.4byte	.LFB257
 9503 275e 24000000 		.4byte	.LFE257-.LFB257
 9504 2762 01       		.uleb128 0x1
 9505 2763 9C       		.byte	0x9c
 9506 2764 7B270000 		.4byte	0x277b
 9507 2768 40       		.uleb128 0x40
 9508 2769 06000000 		.4byte	.LVL298
 9509 276d F5260000 		.4byte	0x26f5
 9510 2771 56       		.uleb128 0x56
 9511 2772 1E000000 		.4byte	.LVL299
 9512 2776 391D0000 		.4byte	0x1d39
 9513 277a 00       		.byte	0
 9514 277b 3B       		.uleb128 0x3b
 9515 277c 6A040000 		.4byte	.LASF307
 9516 2780 01       		.byte	0x1
 9517 2781 3901     		.2byte	0x139
 9518 2783 23090000 		.4byte	0x923
 9519 2787 00000000 		.4byte	.LFB260
 9520 278b 56000000 		.4byte	.LFE260-.LFB260
 9521 278f 01       		.uleb128 0x1
 9522 2790 9C       		.byte	0x9c
 9523 2791 E7270000 		.4byte	0x27e7
ARM GAS  C:\Users\jo\AppData\Local\Temp\ccpE7U9z.s 			page 171


 9524 2795 2E       		.uleb128 0x2e
 9525 2796 70636200 		.ascii	"pcb\000"
 9526 279a 01       		.byte	0x1
 9527 279b 3901     		.2byte	0x139
 9528 279d 130B0000 		.4byte	0xb13
 9529 27a1 D60F0000 		.4byte	.LLST81
 9530 27a5 3C       		.uleb128 0x3c
 9531 27a6 13100000 		.4byte	.LASF308
 9532 27aa 01       		.byte	0x1
 9533 27ab 3901     		.2byte	0x139
 9534 27ad 25000000 		.4byte	0x25
 9535 27b1 3C100000 		.4byte	.LLST82
 9536 27b5 3C       		.uleb128 0x3c
 9537 27b6 DE010000 		.4byte	.LASF309
 9538 27ba 01       		.byte	0x1
 9539 27bb 3901     		.2byte	0x139
 9540 27bd 25000000 		.4byte	0x25
 9541 27c1 9A100000 		.4byte	.LLST83
 9542 27c5 40       		.uleb128 0x40
 9543 27c6 20000000 		.4byte	.LVL302
 9544 27ca C5300000 		.4byte	0x30c5
 9545 27ce 56       		.uleb128 0x56
 9546 27cf 48000000 		.4byte	.LVL306
 9547 27d3 AF230000 		.4byte	0x23af
 9548 27d7 47       		.uleb128 0x47
 9549 27d8 52000000 		.4byte	.LVL308
 9550 27dc AF230000 		.4byte	0x23af
 9551 27e0 39       		.uleb128 0x39
 9552 27e1 01       		.uleb128 0x1
 9553 27e2 51       		.byte	0x51
 9554 27e3 01       		.uleb128 0x1
 9555 27e4 31       		.byte	0x31
 9556 27e5 00       		.byte	0
 9557 27e6 00       		.byte	0
 9558 27e7 48       		.uleb128 0x48
 9559 27e8 A50F0000 		.4byte	.LASF310
 9560 27ec 01       		.byte	0x1
 9561 27ed 6501     		.2byte	0x165
 9562 27ef 00000000 		.4byte	.LFB261
 9563 27f3 F8000000 		.4byte	.LFE261-.LFB261
 9564 27f7 01       		.uleb128 0x1
 9565 27f8 9C       		.byte	0x9c
 9566 27f9 292A0000 		.4byte	0x2a29
 9567 27fd 2E       		.uleb128 0x2e
 9568 27fe 70636200 		.ascii	"pcb\000"
 9569 2802 01       		.byte	0x1
 9570 2803 6501     		.2byte	0x165
 9571 2805 130B0000 		.4byte	0xb13
 9572 2809 F8100000 		.4byte	.LLST84
 9573 280d 3C       		.uleb128 0x3c
 9574 280e 580B0000 		.4byte	.LASF311
 9575 2812 01       		.byte	0x1
 9576 2813 6501     		.2byte	0x165
 9577 2815 25000000 		.4byte	0x25
 9578 2819 5E110000 		.4byte	.LLST85
 9579 281d 3E       		.uleb128 0x3e
 9580 281e 16030000 		.4byte	.LASF225
ARM GAS  C:\Users\jo\AppData\Local\Temp\ccpE7U9z.s 			page 172


 9581 2822 01       		.byte	0x1
 9582 2823 6701     		.2byte	0x167
 9583 2825 70080000 		.4byte	0x870
 9584 2829 B9110000 		.4byte	.LLST86
 9585 282d 3E       		.uleb128 0x3e
 9586 282e 9B070000 		.4byte	.LASF226
 9587 2832 01       		.byte	0x1
 9588 2833 6701     		.2byte	0x167
 9589 2835 70080000 		.4byte	0x870
 9590 2839 D7110000 		.4byte	.LLST87
 9591 283d 3E       		.uleb128 0x3e
 9592 283e CB090000 		.4byte	.LASF199
 9593 2842 01       		.byte	0x1
 9594 2843 6901     		.2byte	0x169
 9595 2845 490E0000 		.4byte	0xe49
 9596 2849 F5110000 		.4byte	.LLST88
 9597 284d 3E       		.uleb128 0x3e
 9598 284e 24010000 		.4byte	.LASF312
 9599 2852 01       		.byte	0x1
 9600 2853 6B01     		.2byte	0x16b
 9601 2855 3C030000 		.4byte	0x33c
 9602 2859 1E120000 		.4byte	.LLST89
 9603 285d 3F       		.uleb128 0x3f
 9604 285e 7C120000 		.4byte	0x127c
 9605 2862 34000000 		.4byte	.LBB200
 9606 2866 0E000000 		.4byte	.LBE200-.LBB200
 9607 286a 01       		.byte	0x1
 9608 286b 7F01     		.2byte	0x17f
 9609 286d 97280000 		.4byte	0x2897
 9610 2871 34       		.uleb128 0x34
 9611 2872 89120000 		.4byte	0x1289
 9612 2876 47120000 		.4byte	.LLST90
 9613 287a 49       		.uleb128 0x49
 9614 287b 34000000 		.4byte	.LBB202
 9615 287f 08000000 		.4byte	.LBE202-.LBB202
 9616 2883 44       		.uleb128 0x44
 9617 2884 96120000 		.4byte	0x1296
 9618 2888 65120000 		.4byte	.LLST91
 9619 288c 40       		.uleb128 0x40
 9620 288d 3C000000 		.4byte	.LVL319
 9621 2891 73180000 		.4byte	0x1873
 9622 2895 00       		.byte	0
 9623 2896 00       		.byte	0
 9624 2897 3F       		.uleb128 0x3f
 9625 2898 7C120000 		.4byte	0x127c
 9626 289c 46000000 		.4byte	.LBB203
 9627 28a0 0E000000 		.4byte	.LBE203-.LBB203
 9628 28a4 01       		.byte	0x1
 9629 28a5 8201     		.2byte	0x182
 9630 28a7 D1280000 		.4byte	0x28d1
 9631 28ab 34       		.uleb128 0x34
 9632 28ac 89120000 		.4byte	0x1289
 9633 28b0 78120000 		.4byte	.LLST92
 9634 28b4 49       		.uleb128 0x49
 9635 28b5 46000000 		.4byte	.LBB205
 9636 28b9 08000000 		.4byte	.LBE205-.LBB205
 9637 28bd 44       		.uleb128 0x44
ARM GAS  C:\Users\jo\AppData\Local\Temp\ccpE7U9z.s 			page 173


 9638 28be 96120000 		.4byte	0x1296
 9639 28c2 96120000 		.4byte	.LLST93
 9640 28c6 40       		.uleb128 0x40
 9641 28c7 4E000000 		.4byte	.LVL323
 9642 28cb 73180000 		.4byte	0x1873
 9643 28cf 00       		.byte	0
 9644 28d0 00       		.byte	0
 9645 28d1 3F       		.uleb128 0x3f
 9646 28d2 7C120000 		.4byte	0x127c
 9647 28d6 58000000 		.4byte	.LBB206
 9648 28da 0E000000 		.4byte	.LBE206-.LBB206
 9649 28de 01       		.byte	0x1
 9650 28df 8601     		.2byte	0x186
 9651 28e1 0B290000 		.4byte	0x290b
 9652 28e5 34       		.uleb128 0x34
 9653 28e6 89120000 		.4byte	0x1289
 9654 28ea A9120000 		.4byte	.LLST94
 9655 28ee 49       		.uleb128 0x49
 9656 28ef 58000000 		.4byte	.LBB208
 9657 28f3 08000000 		.4byte	.LBE208-.LBB208
 9658 28f7 44       		.uleb128 0x44
 9659 28f8 96120000 		.4byte	0x1296
 9660 28fc C7120000 		.4byte	.LLST95
 9661 2900 40       		.uleb128 0x40
 9662 2901 60000000 		.4byte	.LVL327
 9663 2905 73180000 		.4byte	0x1873
 9664 2909 00       		.byte	0
 9665 290a 00       		.byte	0
 9666 290b 3F       		.uleb128 0x3f
 9667 290c 30120000 		.4byte	0x1230
 9668 2910 D0000000 		.4byte	.LBB209
 9669 2914 28000000 		.4byte	.LBE209-.LBB209
 9670 2918 01       		.byte	0x1
 9671 2919 6E01     		.2byte	0x16e
 9672 291b 3F290000 		.4byte	0x293f
 9673 291f 35       		.uleb128 0x35
 9674 2920 3D120000 		.4byte	0x123d
 9675 2924 06       		.uleb128 0x6
 9676 2925 03       		.byte	0x3
 9677 2926 68030000 		.4byte	.LC23
 9678 292a 9F       		.byte	0x9f
 9679 292b 38       		.uleb128 0x38
 9680 292c D6000000 		.4byte	.LVL341
 9681 2930 6B300000 		.4byte	0x306b
 9682 2934 39       		.uleb128 0x39
 9683 2935 01       		.uleb128 0x1
 9684 2936 50       		.byte	0x50
 9685 2937 05       		.uleb128 0x5
 9686 2938 03       		.byte	0x3
 9687 2939 68030000 		.4byte	.LC23
 9688 293d 00       		.byte	0
 9689 293e 00       		.byte	0
 9690 293f 41       		.uleb128 0x41
 9691 2940 2A000000 		.4byte	.LVL316
 9692 2944 28220000 		.4byte	0x2228
 9693 2948 5C290000 		.4byte	0x295c
 9694 294c 39       		.uleb128 0x39
ARM GAS  C:\Users\jo\AppData\Local\Temp\ccpE7U9z.s 			page 174


 9695 294d 01       		.uleb128 0x1
 9696 294e 51       		.byte	0x51
 9697 294f 02       		.uleb128 0x2
 9698 2950 74       		.byte	0x74
 9699 2951 00       		.sleb128 0
 9700 2952 39       		.uleb128 0x39
 9701 2953 01       		.uleb128 0x1
 9702 2954 50       		.byte	0x50
 9703 2955 05       		.uleb128 0x5
 9704 2956 03       		.byte	0x3
 9705 2957 00000000 		.4byte	.LANCHOR7
 9706 295b 00       		.byte	0
 9707 295c 41       		.uleb128 0x41
 9708 295d 70000000 		.4byte	.LVL329
 9709 2961 99300000 		.4byte	0x3099
 9710 2965 75290000 		.4byte	0x2975
 9711 2969 39       		.uleb128 0x39
 9712 296a 01       		.uleb128 0x1
 9713 296b 51       		.byte	0x51
 9714 296c 02       		.uleb128 0x2
 9715 296d 74       		.byte	0x74
 9716 296e 00       		.sleb128 0
 9717 296f 39       		.uleb128 0x39
 9718 2970 01       		.uleb128 0x1
 9719 2971 50       		.byte	0x50
 9720 2972 01       		.uleb128 0x1
 9721 2973 32       		.byte	0x32
 9722 2974 00       		.byte	0
 9723 2975 57       		.uleb128 0x57
 9724 2976 82000000 		.4byte	.LVL331
 9725 297a 85290000 		.4byte	0x2985
 9726 297e 39       		.uleb128 0x39
 9727 297f 01       		.uleb128 0x1
 9728 2980 51       		.byte	0x51
 9729 2981 02       		.uleb128 0x2
 9730 2982 09       		.byte	0x9
 9731 2983 F6       		.byte	0xf6
 9732 2984 00       		.byte	0
 9733 2985 41       		.uleb128 0x41
 9734 2986 96000000 		.4byte	.LVL332
 9735 298a EB300000 		.4byte	0x30eb
 9736 298e AB290000 		.4byte	0x29ab
 9737 2992 39       		.uleb128 0x39
 9738 2993 01       		.uleb128 0x1
 9739 2994 53       		.byte	0x53
 9740 2995 02       		.uleb128 0x2
 9741 2996 74       		.byte	0x74
 9742 2997 04       		.sleb128 4
 9743 2998 39       		.uleb128 0x39
 9744 2999 01       		.uleb128 0x1
 9745 299a 52       		.byte	0x52
 9746 299b 02       		.uleb128 0x2
 9747 299c 74       		.byte	0x74
 9748 299d 00       		.sleb128 0
 9749 299e 39       		.uleb128 0x39
 9750 299f 01       		.uleb128 0x1
 9751 29a0 51       		.byte	0x51
ARM GAS  C:\Users\jo\AppData\Local\Temp\ccpE7U9z.s 			page 175


 9752 29a1 02       		.uleb128 0x2
 9753 29a2 78       		.byte	0x78
 9754 29a3 00       		.sleb128 0
 9755 29a4 39       		.uleb128 0x39
 9756 29a5 01       		.uleb128 0x1
 9757 29a6 50       		.byte	0x50
 9758 29a7 02       		.uleb128 0x2
 9759 29a8 79       		.byte	0x79
 9760 29a9 00       		.sleb128 0
 9761 29aa 00       		.byte	0
 9762 29ab 41       		.uleb128 0x41
 9763 29ac 9E000000 		.4byte	.LVL333
 9764 29b0 99300000 		.4byte	0x3099
 9765 29b4 C4290000 		.4byte	0x29c4
 9766 29b8 39       		.uleb128 0x39
 9767 29b9 01       		.uleb128 0x1
 9768 29ba 51       		.byte	0x51
 9769 29bb 02       		.uleb128 0x2
 9770 29bc 74       		.byte	0x74
 9771 29bd 00       		.sleb128 0
 9772 29be 39       		.uleb128 0x39
 9773 29bf 01       		.uleb128 0x1
 9774 29c0 50       		.byte	0x50
 9775 29c1 01       		.uleb128 0x1
 9776 29c2 32       		.byte	0x32
 9777 29c3 00       		.byte	0
 9778 29c4 41       		.uleb128 0x41
 9779 29c5 B0000000 		.4byte	.LVL335
 9780 29c9 28220000 		.4byte	0x2228
 9781 29cd E1290000 		.4byte	0x29e1
 9782 29d1 39       		.uleb128 0x39
 9783 29d2 01       		.uleb128 0x1
 9784 29d3 51       		.byte	0x51
 9785 29d4 02       		.uleb128 0x2
 9786 29d5 74       		.byte	0x74
 9787 29d6 00       		.sleb128 0
 9788 29d7 39       		.uleb128 0x39
 9789 29d8 01       		.uleb128 0x1
 9790 29d9 50       		.byte	0x50
 9791 29da 05       		.uleb128 0x5
 9792 29db 03       		.byte	0x3
 9793 29dc 00000000 		.4byte	.LANCHOR8
 9794 29e0 00       		.byte	0
 9795 29e1 58       		.uleb128 0x58
 9796 29e2 BE000000 		.4byte	.LVL337
 9797 29e6 99300000 		.4byte	0x3099
 9798 29ea FB290000 		.4byte	0x29fb
 9799 29ee 39       		.uleb128 0x39
 9800 29ef 01       		.uleb128 0x1
 9801 29f0 51       		.byte	0x51
 9802 29f1 03       		.uleb128 0x3
 9803 29f2 F3       		.byte	0xf3
 9804 29f3 01       		.uleb128 0x1
 9805 29f4 50       		.byte	0x50
 9806 29f5 39       		.uleb128 0x39
 9807 29f6 01       		.uleb128 0x1
 9808 29f7 50       		.byte	0x50
ARM GAS  C:\Users\jo\AppData\Local\Temp\ccpE7U9z.s 			page 176


 9809 29f8 01       		.uleb128 0x1
 9810 29f9 32       		.byte	0x32
 9811 29fa 00       		.byte	0
 9812 29fb 38       		.uleb128 0x38
 9813 29fc D0000000 		.4byte	.LVL340
 9814 2a00 4F140000 		.4byte	0x144f
 9815 2a04 39       		.uleb128 0x39
 9816 2a05 01       		.uleb128 0x1
 9817 2a06 53       		.byte	0x53
 9818 2a07 03       		.uleb128 0x3
 9819 2a08 0A       		.byte	0xa
 9820 2a09 6F01     		.2byte	0x16f
 9821 2a0b 39       		.uleb128 0x39
 9822 2a0c 01       		.uleb128 0x1
 9823 2a0d 52       		.byte	0x52
 9824 2a0e 05       		.uleb128 0x5
 9825 2a0f 03       		.byte	0x3
 9826 2a10 68030000 		.4byte	.LC23
 9827 2a14 39       		.uleb128 0x39
 9828 2a15 01       		.uleb128 0x1
 9829 2a16 51       		.byte	0x51
 9830 2a17 05       		.uleb128 0x5
 9831 2a18 03       		.byte	0x3
 9832 2a19 00000000 		.4byte	.LC0
 9833 2a1d 39       		.uleb128 0x39
 9834 2a1e 02       		.uleb128 0x2
 9835 2a1f 7D       		.byte	0x7d
 9836 2a20 00       		.sleb128 0
 9837 2a21 05       		.uleb128 0x5
 9838 2a22 03       		.byte	0x3
 9839 2a23 50000000 		.4byte	.LC2
 9840 2a27 00       		.byte	0
 9841 2a28 00       		.byte	0
 9842 2a29 33       		.uleb128 0x33
 9843 2a2a 40130000 		.4byte	0x1340
 9844 2a2e 00000000 		.4byte	.LFB262
 9845 2a32 06000000 		.4byte	.LFE262-.LFB262
 9846 2a36 01       		.uleb128 0x1
 9847 2a37 9C       		.byte	0x9c
 9848 2a38 5C2A0000 		.4byte	0x2a5c
 9849 2a3c 34       		.uleb128 0x34
 9850 2a3d 4D130000 		.4byte	0x134d
 9851 2a41 DA120000 		.4byte	.LLST96
 9852 2a45 47       		.uleb128 0x47
 9853 2a46 06000000 		.4byte	.LVL343
 9854 2a4a E7270000 		.4byte	0x27e7
 9855 2a4e 39       		.uleb128 0x39
 9856 2a4f 01       		.uleb128 0x1
 9857 2a50 51       		.byte	0x51
 9858 2a51 01       		.uleb128 0x1
 9859 2a52 31       		.byte	0x31
 9860 2a53 39       		.uleb128 0x39
 9861 2a54 01       		.uleb128 0x1
 9862 2a55 50       		.byte	0x50
 9863 2a56 03       		.uleb128 0x3
 9864 2a57 F3       		.byte	0xf3
 9865 2a58 01       		.uleb128 0x1
ARM GAS  C:\Users\jo\AppData\Local\Temp\ccpE7U9z.s 			page 177


 9866 2a59 50       		.byte	0x50
 9867 2a5a 00       		.byte	0
 9868 2a5b 00       		.byte	0
 9869 2a5c 20       		.uleb128 0x20
 9870 2a5d D3070000 		.4byte	.LASF314
 9871 2a61 01       		.byte	0x1
 9872 2a62 E204     		.2byte	0x4e2
 9873 2a64 01       		.byte	0x1
 9874 2a65 8E2A0000 		.4byte	0x2a8e
 9875 2a69 27       		.uleb128 0x27
 9876 2a6a 70636200 		.ascii	"pcb\000"
 9877 2a6e 01       		.byte	0x1
 9878 2a6f E404     		.2byte	0x4e4
 9879 2a71 130B0000 		.4byte	0xb13
 9880 2a75 24       		.uleb128 0x24
 9881 2a76 58070000 		.4byte	.LASF315
 9882 2a7a 01       		.byte	0x1
 9883 2a7b E404     		.2byte	0x4e4
 9884 2a7d 130B0000 		.4byte	0xb13
 9885 2a81 24       		.uleb128 0x24
 9886 2a82 39040000 		.4byte	.LASF316
 9887 2a86 01       		.byte	0x1
 9888 2a87 E504     		.2byte	0x4e5
 9889 2a89 70080000 		.4byte	0x870
 9890 2a8d 00       		.byte	0
 9891 2a8e 20       		.uleb128 0x20
 9892 2a8f 220A0000 		.4byte	.LASF317
 9893 2a93 01       		.byte	0x1
 9894 2a94 C104     		.2byte	0x4c1
 9895 2a96 01       		.byte	0x1
 9896 2a97 D82A0000 		.4byte	0x2ad8
 9897 2a9b 21       		.uleb128 0x21
 9898 2a9c 07060000 		.4byte	.LASF163
 9899 2aa0 01       		.byte	0x1
 9900 2aa1 C104     		.2byte	0x4c1
 9901 2aa3 44080000 		.4byte	0x844
 9902 2aa7 27       		.uleb128 0x27
 9903 2aa8 70636200 		.ascii	"pcb\000"
 9904 2aac 01       		.byte	0x1
 9905 2aad C304     		.2byte	0x4c3
 9906 2aaf 130B0000 		.4byte	0xb13
 9907 2ab3 24       		.uleb128 0x24
 9908 2ab4 58070000 		.4byte	.LASF315
 9909 2ab8 01       		.byte	0x1
 9910 2ab9 C304     		.2byte	0x4c3
 9911 2abb 130B0000 		.4byte	0xb13
 9912 2abf 24       		.uleb128 0x24
 9913 2ac0 39040000 		.4byte	.LASF316
 9914 2ac4 01       		.byte	0x1
 9915 2ac5 C404     		.2byte	0x4c4
 9916 2ac7 70080000 		.4byte	0x870
 9917 2acb 24       		.uleb128 0x24
 9918 2acc 3F0C0000 		.4byte	.LASF318
 9919 2ad0 01       		.byte	0x1
 9920 2ad1 C504     		.2byte	0x4c5
 9921 2ad3 44080000 		.4byte	0x844
 9922 2ad7 00       		.byte	0
ARM GAS  C:\Users\jo\AppData\Local\Temp\ccpE7U9z.s 			page 178


 9923 2ad8 3B       		.uleb128 0x3b
 9924 2ad9 F90F0000 		.4byte	.LASF319
 9925 2add 01       		.byte	0x1
 9926 2ade FE04     		.2byte	0x4fe
 9927 2ae0 130B0000 		.4byte	0xb13
 9928 2ae4 00000000 		.4byte	.LFB280
 9929 2ae8 48010000 		.4byte	.LFE280-.LFB280
 9930 2aec 01       		.uleb128 0x1
 9931 2aed 9C       		.byte	0x9c
 9932 2aee 6F2C0000 		.4byte	0x2c6f
 9933 2af2 3C       		.uleb128 0x3c
 9934 2af3 07060000 		.4byte	.LASF163
 9935 2af7 01       		.byte	0x1
 9936 2af8 FE04     		.2byte	0x4fe
 9937 2afa 44080000 		.4byte	0x844
 9938 2afe FB120000 		.4byte	.LLST97
 9939 2b02 30       		.uleb128 0x30
 9940 2b03 70636200 		.ascii	"pcb\000"
 9941 2b07 01       		.byte	0x1
 9942 2b08 0005     		.2byte	0x500
 9943 2b0a 130B0000 		.4byte	0xb13
 9944 2b0e 1C130000 		.4byte	.LLST98
 9945 2b12 27       		.uleb128 0x27
 9946 2b13 69737300 		.ascii	"iss\000"
 9947 2b17 01       		.byte	0x1
 9948 2b18 0105     		.2byte	0x501
 9949 2b1a 70080000 		.4byte	0x870
 9950 2b1e 59       		.uleb128 0x59
 9951 2b1f 5A130000 		.4byte	0x135a
 9952 2b23 1C000000 		.4byte	.LBB221
 9953 2b27 C8000000 		.4byte	.Ldebug_ranges0+0xc8
 9954 2b2b 01       		.byte	0x1
 9955 2b2c 2B05     		.2byte	0x52b
 9956 2b2e 442B0000 		.4byte	0x2b44
 9957 2b32 42       		.uleb128 0x42
 9958 2b33 C8000000 		.4byte	.Ldebug_ranges0+0xc8
 9959 2b37 36       		.uleb128 0x36
 9960 2b38 6B130000 		.4byte	0x136b
 9961 2b3c 05       		.uleb128 0x5
 9962 2b3d 03       		.byte	0x3
 9963 2b3e 00000000 		.4byte	iss.9250
 9964 2b42 00       		.byte	0
 9965 2b43 00       		.byte	0
 9966 2b44 3F       		.uleb128 0x3f
 9967 2b45 5C2A0000 		.4byte	0x2a5c
 9968 2b49 9C000000 		.4byte	.LBB229
 9969 2b4d 2A000000 		.4byte	.LBE229-.LBB229
 9970 2b51 01       		.byte	0x1
 9971 2b52 0705     		.2byte	0x507
 9972 2b54 A72B0000 		.4byte	0x2ba7
 9973 2b58 49       		.uleb128 0x49
 9974 2b59 9C000000 		.4byte	.LBB230
 9975 2b5d 2A000000 		.4byte	.LBE230-.LBB230
 9976 2b61 44       		.uleb128 0x44
 9977 2b62 692A0000 		.4byte	0x2a69
 9978 2b66 66130000 		.4byte	.LLST99
 9979 2b6a 44       		.uleb128 0x44
ARM GAS  C:\Users\jo\AppData\Local\Temp\ccpE7U9z.s 			page 179


 9980 2b6b 752A0000 		.4byte	0x2a75
 9981 2b6f 84130000 		.4byte	.LLST100
 9982 2b73 44       		.uleb128 0x44
 9983 2b74 812A0000 		.4byte	0x2a81
 9984 2b78 98130000 		.4byte	.LLST101
 9985 2b7c 5A       		.uleb128 0x5a
 9986 2b7d 40130000 		.4byte	0x1340
 9987 2b81 C0000000 		.4byte	.LBB231
 9988 2b85 06000000 		.4byte	.LBE231-.LBB231
 9989 2b89 01       		.byte	0x1
 9990 2b8a F304     		.2byte	0x4f3
 9991 2b8c 34       		.uleb128 0x34
 9992 2b8d 4D130000 		.4byte	0x134d
 9993 2b91 C2130000 		.4byte	.LLST102
 9994 2b95 38       		.uleb128 0x38
 9995 2b96 C6000000 		.4byte	.LVL357
 9996 2b9a E7270000 		.4byte	0x27e7
 9997 2b9e 39       		.uleb128 0x39
 9998 2b9f 01       		.uleb128 0x1
 9999 2ba0 51       		.byte	0x51
 10000 2ba1 01       		.uleb128 0x1
 10001 2ba2 31       		.byte	0x31
 10002 2ba3 00       		.byte	0
 10003 2ba4 00       		.byte	0
 10004 2ba5 00       		.byte	0
 10005 2ba6 00       		.byte	0
 10006 2ba7 3F       		.uleb128 0x3f
 10007 2ba8 8E2A0000 		.4byte	0x2a8e
 10008 2bac DE000000 		.4byte	.LBB233
 10009 2bb0 32000000 		.4byte	.LBE233-.LBB233
 10010 2bb4 01       		.byte	0x1
 10011 2bb5 0D05     		.2byte	0x50d
 10012 2bb7 1A2C0000 		.4byte	0x2c1a
 10013 2bbb 35       		.uleb128 0x35
 10014 2bbc 9B2A0000 		.4byte	0x2a9b
 10015 2bc0 01       		.uleb128 0x1
 10016 2bc1 57       		.byte	0x57
 10017 2bc2 49       		.uleb128 0x49
 10018 2bc3 DE000000 		.4byte	.LBB234
 10019 2bc7 32000000 		.4byte	.LBE234-.LBB234
 10020 2bcb 44       		.uleb128 0x44
 10021 2bcc A72A0000 		.4byte	0x2aa7
 10022 2bd0 D5130000 		.4byte	.LLST103
 10023 2bd4 44       		.uleb128 0x44
 10024 2bd5 B32A0000 		.4byte	0x2ab3
 10025 2bd9 E8130000 		.4byte	.LLST104
 10026 2bdd 44       		.uleb128 0x44
 10027 2bde BF2A0000 		.4byte	0x2abf
 10028 2be2 FC130000 		.4byte	.LLST105
 10029 2be6 44       		.uleb128 0x44
 10030 2be7 CB2A0000 		.4byte	0x2acb
 10031 2beb 26140000 		.4byte	.LLST106
 10032 2bef 5A       		.uleb128 0x5a
 10033 2bf0 40130000 		.4byte	0x1340
 10034 2bf4 0A010000 		.4byte	.LBB235
 10035 2bf8 06000000 		.4byte	.LBE235-.LBB235
 10036 2bfc 01       		.byte	0x1
ARM GAS  C:\Users\jo\AppData\Local\Temp\ccpE7U9z.s 			page 180


 10037 2bfd D904     		.2byte	0x4d9
 10038 2bff 34       		.uleb128 0x34
 10039 2c00 4D130000 		.4byte	0x134d
 10040 2c04 51140000 		.4byte	.LLST107
 10041 2c08 38       		.uleb128 0x38
 10042 2c09 10010000 		.4byte	.LVL367
 10043 2c0d E7270000 		.4byte	0x27e7
 10044 2c11 39       		.uleb128 0x39
 10045 2c12 01       		.uleb128 0x1
 10046 2c13 51       		.byte	0x51
 10047 2c14 01       		.uleb128 0x1
 10048 2c15 31       		.byte	0x31
 10049 2c16 00       		.byte	0
 10050 2c17 00       		.byte	0
 10051 2c18 00       		.byte	0
 10052 2c19 00       		.byte	0
 10053 2c1a 41       		.uleb128 0x41
 10054 2c1b 0C000000 		.4byte	.LVL346
 10055 2c1f 84300000 		.4byte	0x3084
 10056 2c23 2D2C0000 		.4byte	0x2c2d
 10057 2c27 39       		.uleb128 0x39
 10058 2c28 01       		.uleb128 0x1
 10059 2c29 50       		.byte	0x50
 10060 2c2a 01       		.uleb128 0x1
 10061 2c2b 32       		.byte	0x32
 10062 2c2c 00       		.byte	0
 10063 2c2d 41       		.uleb128 0x41
 10064 2c2e 1C000000 		.4byte	.LVL347
 10065 2c32 61310000 		.4byte	0x3161
 10066 2c36 4C2C0000 		.4byte	0x2c4c
 10067 2c3a 39       		.uleb128 0x39
 10068 2c3b 01       		.uleb128 0x1
 10069 2c3c 52       		.byte	0x52
 10070 2c3d 02       		.uleb128 0x2
 10071 2c3e 08       		.byte	0x8
 10072 2c3f 98       		.byte	0x98
 10073 2c40 39       		.uleb128 0x39
 10074 2c41 01       		.uleb128 0x1
 10075 2c42 51       		.byte	0x51
 10076 2c43 01       		.uleb128 0x1
 10077 2c44 30       		.byte	0x30
 10078 2c45 39       		.uleb128 0x39
 10079 2c46 01       		.uleb128 0x1
 10080 2c47 50       		.byte	0x50
 10081 2c48 02       		.uleb128 0x2
 10082 2c49 74       		.byte	0x74
 10083 2c4a 00       		.sleb128 0
 10084 2c4b 00       		.byte	0
 10085 2c4c 41       		.uleb128 0x41
 10086 2c4d CC000000 		.4byte	.LVL358
 10087 2c51 84300000 		.4byte	0x3084
 10088 2c55 5F2C0000 		.4byte	0x2c5f
 10089 2c59 39       		.uleb128 0x39
 10090 2c5a 01       		.uleb128 0x1
 10091 2c5b 50       		.byte	0x50
 10092 2c5c 01       		.uleb128 0x1
 10093 2c5d 32       		.byte	0x32
ARM GAS  C:\Users\jo\AppData\Local\Temp\ccpE7U9z.s 			page 181


 10094 2c5e 00       		.byte	0
 10095 2c5f 38       		.uleb128 0x38
 10096 2c60 16010000 		.4byte	.LVL368
 10097 2c64 84300000 		.4byte	0x3084
 10098 2c68 39       		.uleb128 0x39
 10099 2c69 01       		.uleb128 0x1
 10100 2c6a 50       		.byte	0x50
 10101 2c6b 01       		.uleb128 0x1
 10102 2c6c 32       		.byte	0x32
 10103 2c6d 00       		.byte	0
 10104 2c6e 00       		.byte	0
 10105 2c6f 3B       		.uleb128 0x3b
 10106 2c70 77040000 		.4byte	.LASF320
 10107 2c74 01       		.byte	0x1
 10108 2c75 5305     		.2byte	0x553
 10109 2c77 130B0000 		.4byte	0xb13
 10110 2c7b 00000000 		.4byte	.LFB281
 10111 2c7f 06000000 		.4byte	.LFE281-.LFB281
 10112 2c83 01       		.uleb128 0x1
 10113 2c84 9C       		.byte	0x9c
 10114 2c85 9A2C0000 		.4byte	0x2c9a
 10115 2c89 47       		.uleb128 0x47
 10116 2c8a 06000000 		.4byte	.LVL369
 10117 2c8e D82A0000 		.4byte	0x2ad8
 10118 2c92 39       		.uleb128 0x39
 10119 2c93 01       		.uleb128 0x1
 10120 2c94 50       		.byte	0x50
 10121 2c95 02       		.uleb128 0x2
 10122 2c96 08       		.byte	0x8
 10123 2c97 40       		.byte	0x40
 10124 2c98 00       		.byte	0
 10125 2c99 00       		.byte	0
 10126 2c9a 33       		.uleb128 0x33
 10127 2c9b 5A130000 		.4byte	0x135a
 10128 2c9f 00000000 		.4byte	.LFB290
 10129 2ca3 18000000 		.4byte	.LFE290-.LFB290
 10130 2ca7 01       		.uleb128 0x1
 10131 2ca8 9C       		.byte	0x9c
 10132 2ca9 B92C0000 		.4byte	0x2cb9
 10133 2cad 36       		.uleb128 0x36
 10134 2cae 6B130000 		.4byte	0x136b
 10135 2cb2 05       		.uleb128 0x5
 10136 2cb3 03       		.byte	0x3
 10137 2cb4 00000000 		.4byte	iss.9250
 10138 2cb8 00       		.byte	0
 10139 2cb9 3B       		.uleb128 0x3b
 10140 2cba 99090000 		.4byte	.LASF321
 10141 2cbe 01       		.byte	0x1
 10142 2cbf 3206     		.2byte	0x632
 10143 2cc1 5A080000 		.4byte	0x85a
 10144 2cc5 00000000 		.4byte	.LFB291
 10145 2cc9 1E000000 		.4byte	.LFE291-.LFB291
 10146 2ccd 01       		.uleb128 0x1
 10147 2cce 9C       		.byte	0x9c
 10148 2ccf 252D0000 		.4byte	0x2d25
 10149 2cd3 3C       		.uleb128 0x3c
 10150 2cd4 30100000 		.4byte	.LASF322
ARM GAS  C:\Users\jo\AppData\Local\Temp\ccpE7U9z.s 			page 182


 10151 2cd8 01       		.byte	0x1
 10152 2cd9 3206     		.2byte	0x632
 10153 2cdb 5A080000 		.4byte	0x85a
 10154 2cdf 64140000 		.4byte	.LLST108
 10155 2ce3 3C       		.uleb128 0x3c
 10156 2ce4 610D0000 		.4byte	.LASF135
 10157 2ce8 01       		.byte	0x1
 10158 2ce9 3206     		.2byte	0x632
 10159 2ceb 9E0A0000 		.4byte	0xa9e
 10160 2cef 90140000 		.4byte	.LLST109
 10161 2cf3 3E       		.uleb128 0x3e
 10162 2cf4 64040000 		.4byte	.LASF323
 10163 2cf8 01       		.byte	0x1
 10164 2cf9 3406     		.2byte	0x634
 10165 2cfb 5A080000 		.4byte	0x85a
 10166 2cff B1140000 		.4byte	.LLST110
 10167 2d03 3E       		.uleb128 0x3e
 10168 2d04 BE0B0000 		.4byte	.LASF324
 10169 2d08 01       		.byte	0x1
 10170 2d09 3506     		.2byte	0x635
 10171 2d0b 95090000 		.4byte	0x995
 10172 2d0f E5140000 		.4byte	.LLST111
 10173 2d13 38       		.uleb128 0x38
 10174 2d14 0A000000 		.4byte	.LVL372
 10175 2d18 7E310000 		.4byte	0x317e
 10176 2d1c 39       		.uleb128 0x39
 10177 2d1d 01       		.uleb128 0x1
 10178 2d1e 50       		.byte	0x50
 10179 2d1f 03       		.uleb128 0x3
 10180 2d20 F3       		.byte	0xf3
 10181 2d21 01       		.uleb128 0x1
 10182 2d22 51       		.byte	0x51
 10183 2d23 00       		.byte	0
 10184 2d24 00       		.byte	0
 10185 2d25 3B       		.uleb128 0x3b
 10186 2d26 63050000 		.4byte	.LASF325
 10187 2d2a 01       		.byte	0x1
 10188 2d2b AC02     		.2byte	0x2ac
 10189 2d2d 23090000 		.4byte	0x923
 10190 2d31 00000000 		.4byte	.LFB269
 10191 2d35 4C010000 		.4byte	.LFE269-.LFB269
 10192 2d39 01       		.uleb128 0x1
 10193 2d3a 9C       		.byte	0x9c
 10194 2d3b B42E0000 		.4byte	0x2eb4
 10195 2d3f 2E       		.uleb128 0x2e
 10196 2d40 70636200 		.ascii	"pcb\000"
 10197 2d44 01       		.byte	0x1
 10198 2d45 AC02     		.2byte	0x2ac
 10199 2d47 130B0000 		.4byte	0xb13
 10200 2d4b F8140000 		.4byte	.LLST112
 10201 2d4f 3C       		.uleb128 0x3c
 10202 2d50 17050000 		.4byte	.LASF268
 10203 2d54 01       		.byte	0x1
 10204 2d55 AC02     		.2byte	0x2ac
 10205 2d57 9E0A0000 		.4byte	0xa9e
 10206 2d5b 42150000 		.4byte	.LLST113
 10207 2d5f 3C       		.uleb128 0x3c
ARM GAS  C:\Users\jo\AppData\Local\Temp\ccpE7U9z.s 			page 183


 10208 2d60 5A0C0000 		.4byte	.LASF269
 10209 2d64 01       		.byte	0x1
 10210 2d65 AC02     		.2byte	0x2ac
 10211 2d67 5A080000 		.4byte	0x85a
 10212 2d6b 60150000 		.4byte	.LLST114
 10213 2d6f 3C       		.uleb128 0x3c
 10214 2d70 47050000 		.4byte	.LASF197
 10215 2d74 01       		.byte	0x1
 10216 2d75 AD02     		.2byte	0x2ad
 10217 2d77 6A0E0000 		.4byte	0xe6a
 10218 2d7b B3150000 		.4byte	.LLST115
 10219 2d7f 30       		.uleb128 0x30
 10220 2d80 72657400 		.ascii	"ret\000"
 10221 2d84 01       		.byte	0x1
 10222 2d85 AF02     		.2byte	0x2af
 10223 2d87 23090000 		.4byte	0x923
 10224 2d8b 19160000 		.4byte	.LLST116
 10225 2d8f 27       		.uleb128 0x27
 10226 2d90 69737300 		.ascii	"iss\000"
 10227 2d94 01       		.byte	0x1
 10228 2d95 B002     		.2byte	0x2b0
 10229 2d97 70080000 		.4byte	0x870
 10230 2d9b 3E       		.uleb128 0x3e
 10231 2d9c 70060000 		.4byte	.LASF326
 10232 2da0 01       		.byte	0x1
 10233 2da1 B102     		.2byte	0x2b1
 10234 2da3 5A080000 		.4byte	0x85a
 10235 2da7 42160000 		.4byte	.LLST117
 10236 2dab 45       		.uleb128 0x45
 10237 2dac F0000000 		.4byte	.Ldebug_ranges0+0xf0
 10238 2db0 D52D0000 		.4byte	0x2dd5
 10239 2db4 3E       		.uleb128 0x3e
 10240 2db5 A40D0000 		.4byte	.LASF144
 10241 2db9 01       		.byte	0x1
 10242 2dba C002     		.2byte	0x2c0
 10243 2dbc 95090000 		.4byte	0x995
 10244 2dc0 60160000 		.4byte	.LLST118
 10245 2dc4 38       		.uleb128 0x38
 10246 2dc5 28000000 		.4byte	.LVL382
 10247 2dc9 7E310000 		.4byte	0x317e
 10248 2dcd 39       		.uleb128 0x39
 10249 2dce 01       		.uleb128 0x1
 10250 2dcf 50       		.byte	0x50
 10251 2dd0 02       		.uleb128 0x2
 10252 2dd1 74       		.byte	0x74
 10253 2dd2 04       		.sleb128 4
 10254 2dd3 00       		.byte	0
 10255 2dd4 00       		.byte	0
 10256 2dd5 59       		.uleb128 0x59
 10257 2dd6 5A130000 		.4byte	0x135a
 10258 2dda 3E000000 		.4byte	.LBB238
 10259 2dde 08010000 		.4byte	.Ldebug_ranges0+0x108
 10260 2de2 01       		.byte	0x1
 10261 2de3 E502     		.2byte	0x2e5
 10262 2de5 FB2D0000 		.4byte	0x2dfb
 10263 2de9 42       		.uleb128 0x42
 10264 2dea 08010000 		.4byte	.Ldebug_ranges0+0x108
ARM GAS  C:\Users\jo\AppData\Local\Temp\ccpE7U9z.s 			page 184


 10265 2dee 36       		.uleb128 0x36
 10266 2def 6B130000 		.4byte	0x136b
 10267 2df3 05       		.uleb128 0x5
 10268 2df4 03       		.byte	0x3
 10269 2df5 00000000 		.4byte	iss.9250
 10270 2df9 00       		.byte	0
 10271 2dfa 00       		.byte	0
 10272 2dfb 3F       		.uleb128 0x3f
 10273 2dfc 30120000 		.4byte	0x1230
 10274 2e00 12010000 		.4byte	.LBB242
 10275 2e04 06000000 		.4byte	.LBE242-.LBB242
 10276 2e08 01       		.byte	0x1
 10277 2e09 B302     		.2byte	0x2b3
 10278 2e0b 2C2E0000 		.4byte	0x2e2c
 10279 2e0f 34       		.uleb128 0x34
 10280 2e10 3D120000 		.4byte	0x123d
 10281 2e14 7E160000 		.4byte	.LLST119
 10282 2e18 38       		.uleb128 0x38
 10283 2e19 18010000 		.4byte	.LVL399
 10284 2e1d 6B300000 		.4byte	0x306b
 10285 2e21 39       		.uleb128 0x39
 10286 2e22 01       		.uleb128 0x1
 10287 2e23 50       		.byte	0x50
 10288 2e24 05       		.uleb128 0x5
 10289 2e25 03       		.byte	0x3
 10290 2e26 9C030000 		.4byte	.LC24
 10291 2e2a 00       		.byte	0
 10292 2e2b 00       		.byte	0
 10293 2e2c 40       		.uleb128 0x40
 10294 2e2d 38000000 		.4byte	.LVL385
 10295 2e31 02140000 		.4byte	0x1402
 10296 2e35 41       		.uleb128 0x41
 10297 2e36 82000000 		.4byte	.LVL386
 10298 2e3a B92C0000 		.4byte	0x2cb9
 10299 2e3e 502E0000 		.4byte	0x2e50
 10300 2e42 39       		.uleb128 0x39
 10301 2e43 01       		.uleb128 0x1
 10302 2e44 51       		.byte	0x51
 10303 2e45 02       		.uleb128 0x2
 10304 2e46 75       		.byte	0x75
 10305 2e47 00       		.sleb128 0
 10306 2e48 39       		.uleb128 0x39
 10307 2e49 01       		.uleb128 0x1
 10308 2e4a 50       		.byte	0x50
 10309 2e4b 03       		.uleb128 0x3
 10310 2e4c 0A       		.byte	0xa
 10311 2e4d 1802     		.2byte	0x218
 10312 2e4f 00       		.byte	0
 10313 2e50 41       		.uleb128 0x41
 10314 2e51 A0000000 		.4byte	.LVL387
 10315 2e55 93310000 		.4byte	0x3193
 10316 2e59 692E0000 		.4byte	0x2e69
 10317 2e5d 39       		.uleb128 0x39
 10318 2e5e 01       		.uleb128 0x1
 10319 2e5f 51       		.byte	0x51
 10320 2e60 01       		.uleb128 0x1
 10321 2e61 32       		.byte	0x32
ARM GAS  C:\Users\jo\AppData\Local\Temp\ccpE7U9z.s 			page 185


 10322 2e62 39       		.uleb128 0x39
 10323 2e63 01       		.uleb128 0x1
 10324 2e64 50       		.byte	0x50
 10325 2e65 02       		.uleb128 0x2
 10326 2e66 74       		.byte	0x74
 10327 2e67 00       		.sleb128 0
 10328 2e68 00       		.byte	0
 10329 2e69 40       		.uleb128 0x40
 10330 2e6a D6000000 		.4byte	.LVL388
 10331 2e6e 7C300000 		.4byte	0x307c
 10332 2e72 41       		.uleb128 0x41
 10333 2e73 E2000000 		.4byte	.LVL389
 10334 2e77 AF300000 		.4byte	0x30af
 10335 2e7b 862E0000 		.4byte	0x2e86
 10336 2e7f 39       		.uleb128 0x39
 10337 2e80 01       		.uleb128 0x1
 10338 2e81 50       		.byte	0x50
 10339 2e82 02       		.uleb128 0x2
 10340 2e83 74       		.byte	0x74
 10341 2e84 00       		.sleb128 0
 10342 2e85 00       		.byte	0
 10343 2e86 38       		.uleb128 0x38
 10344 2e87 12010000 		.4byte	.LVL398
 10345 2e8b 4F140000 		.4byte	0x144f
 10346 2e8f 39       		.uleb128 0x39
 10347 2e90 01       		.uleb128 0x1
 10348 2e91 53       		.byte	0x53
 10349 2e92 03       		.uleb128 0x3
 10350 2e93 0A       		.byte	0xa
 10351 2e94 B302     		.2byte	0x2b3
 10352 2e96 39       		.uleb128 0x39
 10353 2e97 01       		.uleb128 0x1
 10354 2e98 52       		.byte	0x52
 10355 2e99 05       		.uleb128 0x5
 10356 2e9a 03       		.byte	0x3
 10357 2e9b 9C030000 		.4byte	.LC24
 10358 2e9f 39       		.uleb128 0x39
 10359 2ea0 01       		.uleb128 0x1
 10360 2ea1 51       		.byte	0x51
 10361 2ea2 05       		.uleb128 0x5
 10362 2ea3 03       		.byte	0x3
 10363 2ea4 00000000 		.4byte	.LC0
 10364 2ea8 39       		.uleb128 0x39
 10365 2ea9 02       		.uleb128 0x2
 10366 2eaa 7D       		.byte	0x7d
 10367 2eab 00       		.sleb128 0
 10368 2eac 05       		.uleb128 0x5
 10369 2ead 03       		.byte	0x3
 10370 2eae 50000000 		.4byte	.LC2
 10371 2eb2 00       		.byte	0
 10372 2eb3 00       		.byte	0
 10373 2eb4 3B       		.uleb128 0x3b
 10374 2eb5 A9070000 		.4byte	.LASF327
 10375 2eb9 01       		.byte	0x1
 10376 2eba 4506     		.2byte	0x645
 10377 2ebc 18060000 		.4byte	0x618
 10378 2ec0 00000000 		.4byte	.LFB292
ARM GAS  C:\Users\jo\AppData\Local\Temp\ccpE7U9z.s 			page 186


 10379 2ec4 0C000000 		.4byte	.LFE292-.LFB292
 10380 2ec8 01       		.uleb128 0x1
 10381 2ec9 9C       		.byte	0x9c
 10382 2eca DD2E0000 		.4byte	0x2edd
 10383 2ece 2E       		.uleb128 0x2e
 10384 2ecf 7300     		.ascii	"s\000"
 10385 2ed1 01       		.byte	0x1
 10386 2ed2 4506     		.2byte	0x645
 10387 2ed4 750E0000 		.4byte	0xe75
 10388 2ed8 96160000 		.4byte	.LLST120
 10389 2edc 00       		.byte	0
 10390 2edd 5B       		.uleb128 0x5b
 10391 2ede 5A0A0000 		.4byte	.LASF328
 10392 2ee2 01       		.byte	0x1
 10393 2ee3 59       		.byte	0x59
 10394 2ee4 5A080000 		.4byte	0x85a
 10395 2ee8 05       		.uleb128 0x5
 10396 2ee9 03       		.byte	0x3
 10397 2eea 00000000 		.4byte	tcp_port
 10398 2eee 5B       		.uleb128 0x5b
 10399 2eef A1050000 		.4byte	.LASF329
 10400 2ef3 01       		.byte	0x1
 10401 2ef4 7A       		.byte	0x7a
 10402 2ef5 44080000 		.4byte	0x844
 10403 2ef9 05       		.uleb128 0x5
 10404 2efa 03       		.byte	0x3
 10405 2efb 00000000 		.4byte	tcp_timer
 10406 2eff 5B       		.uleb128 0x5b
 10407 2f00 B80D0000 		.4byte	.LASF330
 10408 2f04 01       		.byte	0x1
 10409 2f05 7B       		.byte	0x7b
 10410 2f06 44080000 		.4byte	0x844
 10411 2f0a 05       		.uleb128 0x5
 10412 2f0b 03       		.byte	0x3
 10413 2f0c 00000000 		.4byte	tcp_timer_ctr
 10414 2f10 5C       		.uleb128 0x5c
 10415 2f11 B80A0000 		.4byte	.LASF331
 10416 2f15 1C       		.byte	0x1c
 10417 2f16 A706     		.2byte	0x6a7
 10418 2f18 10010000 		.4byte	0x110
 10419 2f1c 5D       		.uleb128 0x5d
 10420 2f1d 636800   		.ascii	"ch\000"
 10421 2f20 09       		.byte	0x9
 10422 2f21 EB01     		.2byte	0x1eb
 10423 2f23 0B040000 		.4byte	0x40b
 10424 2f27 5E       		.uleb128 0x5e
 10425 2f28 A8080000 		.4byte	.LASF332
 10426 2f2c 12       		.byte	0x12
 10427 2f2d 3B       		.byte	0x3b
 10428 2f2e 2E080000 		.4byte	0x82e
 10429 2f32 5F       		.uleb128 0x5f
 10430 2f33 57100000 		.4byte	.LASF333
 10431 2f37 01       		.byte	0x1
 10432 2f38 5C       		.byte	0x5c
 10433 2f39 70080000 		.4byte	0x870
 10434 2f3d 05       		.uleb128 0x5
 10435 2f3e 03       		.byte	0x3
ARM GAS  C:\Users\jo\AppData\Local\Temp\ccpE7U9z.s 			page 187


 10436 2f3f 00000000 		.4byte	tcp_ticks
 10437 2f43 5F       		.uleb128 0x5f
 10438 2f44 5E030000 		.4byte	.LASF334
 10439 2f48 01       		.byte	0x1
 10440 2f49 77       		.byte	0x77
 10441 2f4a 44080000 		.4byte	0x844
 10442 2f4e 05       		.uleb128 0x5
 10443 2f4f 03       		.byte	0x3
 10444 2f50 00000000 		.4byte	tcp_active_pcbs_changed
 10445 2f54 5F       		.uleb128 0x5f
 10446 2f55 1F0D0000 		.4byte	.LASF335
 10447 2f59 01       		.byte	0x1
 10448 2f5a 65       		.byte	0x65
 10449 2f5b 130B0000 		.4byte	0xb13
 10450 2f5f 05       		.uleb128 0x5
 10451 2f60 03       		.byte	0x3
 10452 2f61 00000000 		.4byte	tcp_bound_pcbs
 10453 2f65 5F       		.uleb128 0x5f
 10454 2f66 C4080000 		.4byte	.LASF336
 10455 2f6a 01       		.byte	0x1
 10456 2f6b 67       		.byte	0x67
 10457 2f6c 2D100000 		.4byte	0x102d
 10458 2f70 05       		.uleb128 0x5
 10459 2f71 03       		.byte	0x3
 10460 2f72 00000000 		.4byte	tcp_listen_pcbs
 10461 2f76 5F       		.uleb128 0x5f
 10462 2f77 03100000 		.4byte	.LASF337
 10463 2f7b 01       		.byte	0x1
 10464 2f7c 6A       		.byte	0x6a
 10465 2f7d 130B0000 		.4byte	0xb13
 10466 2f81 05       		.uleb128 0x5
 10467 2f82 03       		.byte	0x3
 10468 2f83 00000000 		.4byte	tcp_active_pcbs
 10469 2f87 5F       		.uleb128 0x5f
 10470 2f88 990F0000 		.4byte	.LASF338
 10471 2f8c 01       		.byte	0x1
 10472 2f8d 6C       		.byte	0x6c
 10473 2f8e 130B0000 		.4byte	0xb13
 10474 2f92 05       		.uleb128 0x5
 10475 2f93 03       		.byte	0x3
 10476 2f94 00000000 		.4byte	tcp_tw_pcbs
 10477 2f98 5F       		.uleb128 0x5f
 10478 2f99 57050000 		.4byte	.LASF339
 10479 2f9d 01       		.byte	0x1
 10480 2f9e 75       		.byte	0x75
 10481 2f9f 130B0000 		.4byte	0xb13
 10482 2fa3 05       		.uleb128 0x5
 10483 2fa4 03       		.byte	0x3
 10484 2fa5 00000000 		.4byte	tcp_tmp_pcb
 10485 2fa9 5E       		.uleb128 0x5e
 10486 2faa AE020000 		.4byte	.LASF340
 10487 2fae 1B       		.byte	0x1b
 10488 2faf 95       		.byte	0x95
 10489 2fb0 9A110000 		.4byte	0x119a
 10490 2fb4 17       		.uleb128 0x17
 10491 2fb5 18060000 		.4byte	0x618
 10492 2fb9 C42F0000 		.4byte	0x2fc4
ARM GAS  C:\Users\jo\AppData\Local\Temp\ccpE7U9z.s 			page 188


 10493 2fbd 18       		.uleb128 0x18
 10494 2fbe 72040000 		.4byte	0x472
 10495 2fc2 0A       		.byte	0xa
 10496 2fc3 00       		.byte	0
 10497 2fc4 5F       		.uleb128 0x5f
 10498 2fc5 AA0D0000 		.4byte	.LASF341
 10499 2fc9 01       		.byte	0x1
 10500 2fca 4A       		.byte	0x4a
 10501 2fcb D52F0000 		.4byte	0x2fd5
 10502 2fcf 05       		.uleb128 0x5
 10503 2fd0 03       		.byte	0x3
 10504 2fd1 00000000 		.4byte	tcp_state_str
 10505 2fd5 12       		.uleb128 0x12
 10506 2fd6 B42F0000 		.4byte	0x2fb4
 10507 2fda 17       		.uleb128 0x17
 10508 2fdb 44080000 		.4byte	0x844
 10509 2fdf EA2F0000 		.4byte	0x2fea
 10510 2fe3 18       		.uleb128 0x18
 10511 2fe4 72040000 		.4byte	0x472
 10512 2fe8 0C       		.byte	0xc
 10513 2fe9 00       		.byte	0
 10514 2fea 5F       		.uleb128 0x5f
 10515 2feb 23060000 		.4byte	.LASF342
 10516 2fef 01       		.byte	0x1
 10517 2ff0 5D       		.byte	0x5d
 10518 2ff1 FB2F0000 		.4byte	0x2ffb
 10519 2ff5 05       		.uleb128 0x5
 10520 2ff6 03       		.byte	0x3
 10521 2ff7 00000000 		.4byte	tcp_backoff
 10522 2ffb 12       		.uleb128 0x12
 10523 2ffc DA2F0000 		.4byte	0x2fda
 10524 3000 17       		.uleb128 0x17
 10525 3001 44080000 		.4byte	0x844
 10526 3005 10300000 		.4byte	0x3010
 10527 3009 18       		.uleb128 0x18
 10528 300a 72040000 		.4byte	0x472
 10529 300e 06       		.byte	0x6
 10530 300f 00       		.byte	0
 10531 3010 5F       		.uleb128 0x5f
 10532 3011 9E010000 		.4byte	.LASF343
 10533 3015 01       		.byte	0x1
 10534 3016 60       		.byte	0x60
 10535 3017 21300000 		.4byte	0x3021
 10536 301b 05       		.uleb128 0x5
 10537 301c 03       		.byte	0x3
 10538 301d 00000000 		.4byte	tcp_persist_backoff
 10539 3021 12       		.uleb128 0x12
 10540 3022 00300000 		.4byte	0x3000
 10541 3026 17       		.uleb128 0x17
 10542 3027 A9230000 		.4byte	0x23a9
 10543 302b 36300000 		.4byte	0x3036
 10544 302f 18       		.uleb128 0x18
 10545 3030 72040000 		.4byte	0x472
 10546 3034 03       		.byte	0x3
 10547 3035 00       		.byte	0
 10548 3036 5F       		.uleb128 0x5f
 10549 3037 50010000 		.4byte	.LASF344
ARM GAS  C:\Users\jo\AppData\Local\Temp\ccpE7U9z.s 			page 189


 10550 303b 01       		.byte	0x1
 10551 303c 71       		.byte	0x71
 10552 303d 47300000 		.4byte	0x3047
 10553 3041 05       		.uleb128 0x5
 10554 3042 03       		.byte	0x3
 10555 3043 00000000 		.4byte	tcp_pcb_lists
 10556 3047 12       		.uleb128 0x12
 10557 3048 26300000 		.4byte	0x3026
 10558 304c 60       		.uleb128 0x60
 10559 304d 97000000 		.4byte	.LASF345
 10560 3051 02       		.byte	0x2
 10561 3052 28       		.byte	0x28
 10562 3053 25000000 		.4byte	0x25
 10563 3057 6B300000 		.4byte	0x306b
 10564 305b 0D       		.uleb128 0xd
 10565 305c B5130000 		.4byte	0x13b5
 10566 3060 0D       		.uleb128 0xd
 10567 3061 18060000 		.4byte	0x618
 10568 3065 0D       		.uleb128 0xd
 10569 3066 39080000 		.4byte	0x839
 10570 306a 00       		.byte	0
 10571 306b 61       		.uleb128 0x61
 10572 306c 890D0000 		.4byte	.LASF346
 10573 3070 1D       		.byte	0x1d
 10574 3071 E6       		.byte	0xe6
 10575 3072 7C300000 		.4byte	0x307c
 10576 3076 0D       		.uleb128 0xd
 10577 3077 18060000 		.4byte	0x618
 10578 307b 00       		.byte	0
 10579 307c 62       		.uleb128 0x62
 10580 307d 88090000 		.4byte	.LASF368
 10581 3081 1A       		.byte	0x1a
 10582 3082 DD01     		.2byte	0x1dd
 10583 3084 60       		.uleb128 0x60
 10584 3085 4C070000 		.4byte	.LASF347
 10585 3089 14       		.byte	0x14
 10586 308a 6A       		.byte	0x6a
 10587 308b 3C030000 		.4byte	0x33c
 10588 308f 99300000 		.4byte	0x3099
 10589 3093 0D       		.uleb128 0xd
 10590 3094 F4080000 		.4byte	0x8f4
 10591 3098 00       		.byte	0
 10592 3099 61       		.uleb128 0x61
 10593 309a CF040000 		.4byte	.LASF348
 10594 309e 14       		.byte	0x14
 10595 309f 6C       		.byte	0x6c
 10596 30a0 AF300000 		.4byte	0x30af
 10597 30a4 0D       		.uleb128 0xd
 10598 30a5 F4080000 		.4byte	0x8f4
 10599 30a9 0D       		.uleb128 0xd
 10600 30aa 3C030000 		.4byte	0x33c
 10601 30ae 00       		.byte	0
 10602 30af 63       		.uleb128 0x63
 10603 30b0 C4050000 		.4byte	.LASF349
 10604 30b4 19       		.byte	0x19
 10605 30b5 6F01     		.2byte	0x16f
 10606 30b7 23090000 		.4byte	0x923
ARM GAS  C:\Users\jo\AppData\Local\Temp\ccpE7U9z.s 			page 190


 10607 30bb C5300000 		.4byte	0x30c5
 10608 30bf 0D       		.uleb128 0xd
 10609 30c0 130B0000 		.4byte	0xb13
 10610 30c4 00       		.byte	0
 10611 30c5 60       		.uleb128 0x60
 10612 30c6 22070000 		.4byte	.LASF350
 10613 30ca 17       		.byte	0x17
 10614 30cb 9B       		.byte	0x9b
 10615 30cc 44080000 		.4byte	0x844
 10616 30d0 DA300000 		.4byte	0x30da
 10617 30d4 0D       		.uleb128 0xd
 10618 30d5 8F090000 		.4byte	0x98f
 10619 30d9 00       		.byte	0
 10620 30da 61       		.uleb128 0x61
 10621 30db CD0B0000 		.4byte	.LASF351
 10622 30df 17       		.byte	0x17
 10623 30e0 9A       		.byte	0x9a
 10624 30e1 EB300000 		.4byte	0x30eb
 10625 30e5 0D       		.uleb128 0xd
 10626 30e6 8F090000 		.4byte	0x98f
 10627 30ea 00       		.byte	0
 10628 30eb 64       		.uleb128 0x64
 10629 30ec 1A0A0000 		.4byte	.LASF352
 10630 30f0 1A       		.byte	0x1a
 10631 30f1 BC01     		.2byte	0x1bc
 10632 30f3 16310000 		.4byte	0x3116
 10633 30f7 0D       		.uleb128 0xd
 10634 30f8 70080000 		.4byte	0x870
 10635 30fc 0D       		.uleb128 0xd
 10636 30fd 70080000 		.4byte	0x870
 10637 3101 0D       		.uleb128 0xd
 10638 3102 9E0A0000 		.4byte	0xa9e
 10639 3106 0D       		.uleb128 0xd
 10640 3107 9E0A0000 		.4byte	0xa9e
 10641 310b 0D       		.uleb128 0xd
 10642 310c 5A080000 		.4byte	0x85a
 10643 3110 0D       		.uleb128 0xd
 10644 3111 5A080000 		.4byte	0x85a
 10645 3115 00       		.byte	0
 10646 3116 64       		.uleb128 0x64
 10647 3117 64010000 		.4byte	.LASF353
 10648 311b 1A       		.byte	0x1a
 10649 311c C301     		.2byte	0x1c3
 10650 311e 28310000 		.4byte	0x3128
 10651 3122 0D       		.uleb128 0xd
 10652 3123 130B0000 		.4byte	0xb13
 10653 3127 00       		.byte	0
 10654 3128 61       		.uleb128 0x61
 10655 3129 44040000 		.4byte	.LASF354
 10656 312d 1A       		.byte	0x1a
 10657 312e 46       		.byte	0x46
 10658 312f 39310000 		.4byte	0x3139
 10659 3133 0D       		.uleb128 0xd
 10660 3134 130B0000 		.4byte	0xb13
 10661 3138 00       		.byte	0
 10662 3139 64       		.uleb128 0x64
 10663 313a 79000000 		.4byte	.LASF355
ARM GAS  C:\Users\jo\AppData\Local\Temp\ccpE7U9z.s 			page 191


 10664 313e 1A       		.byte	0x1a
 10665 313f C201     		.2byte	0x1c2
 10666 3141 4B310000 		.4byte	0x314b
 10667 3145 0D       		.uleb128 0xd
 10668 3146 130B0000 		.4byte	0xb13
 10669 314a 00       		.byte	0
 10670 314b 63       		.uleb128 0x63
 10671 314c BE090000 		.4byte	.LASF356
 10672 3150 1A       		.byte	0x1a
 10673 3151 B701     		.2byte	0x1b7
 10674 3153 23090000 		.4byte	0x923
 10675 3157 61310000 		.4byte	0x3161
 10676 315b 0D       		.uleb128 0xd
 10677 315c 130B0000 		.4byte	0xb13
 10678 3160 00       		.byte	0
 10679 3161 65       		.uleb128 0x65
 10680 3162 3A080000 		.4byte	.LASF357
 10681 3166 3C030000 		.4byte	0x33c
 10682 316a 7E310000 		.4byte	0x317e
 10683 316e 0D       		.uleb128 0xd
 10684 316f 3C030000 		.4byte	0x33c
 10685 3173 0D       		.uleb128 0xd
 10686 3174 25000000 		.4byte	0x25
 10687 3178 0D       		.uleb128 0xd
 10688 3179 72040000 		.4byte	0x472
 10689 317d 00       		.byte	0
 10690 317e 60       		.uleb128 0x60
 10691 317f D30F0000 		.4byte	.LASF358
 10692 3183 1E       		.byte	0x1e
 10693 3184 AF       		.byte	0xaf
 10694 3185 95090000 		.4byte	0x995
 10695 3189 93310000 		.4byte	0x3193
 10696 318d 0D       		.uleb128 0xd
 10697 318e 9E0A0000 		.4byte	0xa9e
 10698 3192 00       		.byte	0
 10699 3193 66       		.uleb128 0x66
 10700 3194 300A0000 		.4byte	.LASF359
 10701 3198 1A       		.byte	0x1a
 10702 3199 B801     		.2byte	0x1b8
 10703 319b 23090000 		.4byte	0x923
 10704 319f 0D       		.uleb128 0xd
 10705 31a0 130B0000 		.4byte	0xb13
 10706 31a4 0D       		.uleb128 0xd
 10707 31a5 44080000 		.4byte	0x844
 10708 31a9 00       		.byte	0
 10709 31aa 00       		.byte	0
 10710              		.section	.debug_abbrev,"",%progbits
 10711              	.Ldebug_abbrev0:
 10712 0000 01       		.uleb128 0x1
 10713 0001 11       		.uleb128 0x11
 10714 0002 01       		.byte	0x1
 10715 0003 25       		.uleb128 0x25
 10716 0004 0E       		.uleb128 0xe
 10717 0005 13       		.uleb128 0x13
 10718 0006 0B       		.uleb128 0xb
 10719 0007 03       		.uleb128 0x3
 10720 0008 0E       		.uleb128 0xe
ARM GAS  C:\Users\jo\AppData\Local\Temp\ccpE7U9z.s 			page 192


 10721 0009 1B       		.uleb128 0x1b
 10722 000a 0E       		.uleb128 0xe
 10723 000b 55       		.uleb128 0x55
 10724 000c 17       		.uleb128 0x17
 10725 000d 11       		.uleb128 0x11
 10726 000e 01       		.uleb128 0x1
 10727 000f 10       		.uleb128 0x10
 10728 0010 17       		.uleb128 0x17
 10729 0011 00       		.byte	0
 10730 0012 00       		.byte	0
 10731 0013 02       		.uleb128 0x2
 10732 0014 24       		.uleb128 0x24
 10733 0015 00       		.byte	0
 10734 0016 0B       		.uleb128 0xb
 10735 0017 0B       		.uleb128 0xb
 10736 0018 3E       		.uleb128 0x3e
 10737 0019 0B       		.uleb128 0xb
 10738 001a 03       		.uleb128 0x3
 10739 001b 08       		.uleb128 0x8
 10740 001c 00       		.byte	0
 10741 001d 00       		.byte	0
 10742 001e 03       		.uleb128 0x3
 10743 001f 16       		.uleb128 0x16
 10744 0020 00       		.byte	0
 10745 0021 03       		.uleb128 0x3
 10746 0022 0E       		.uleb128 0xe
 10747 0023 3A       		.uleb128 0x3a
 10748 0024 0B       		.uleb128 0xb
 10749 0025 3B       		.uleb128 0x3b
 10750 0026 0B       		.uleb128 0xb
 10751 0027 49       		.uleb128 0x49
 10752 0028 13       		.uleb128 0x13
 10753 0029 00       		.byte	0
 10754 002a 00       		.byte	0
 10755 002b 04       		.uleb128 0x4
 10756 002c 24       		.uleb128 0x24
 10757 002d 00       		.byte	0
 10758 002e 0B       		.uleb128 0xb
 10759 002f 0B       		.uleb128 0xb
 10760 0030 3E       		.uleb128 0x3e
 10761 0031 0B       		.uleb128 0xb
 10762 0032 03       		.uleb128 0x3
 10763 0033 0E       		.uleb128 0xe
 10764 0034 00       		.byte	0
 10765 0035 00       		.byte	0
 10766 0036 05       		.uleb128 0x5
 10767 0037 35       		.uleb128 0x35
 10768 0038 00       		.byte	0
 10769 0039 49       		.uleb128 0x49
 10770 003a 13       		.uleb128 0x13
 10771 003b 00       		.byte	0
 10772 003c 00       		.byte	0
 10773 003d 06       		.uleb128 0x6
 10774 003e 13       		.uleb128 0x13
 10775 003f 01       		.byte	0x1
 10776 0040 03       		.uleb128 0x3
 10777 0041 0E       		.uleb128 0xe
ARM GAS  C:\Users\jo\AppData\Local\Temp\ccpE7U9z.s 			page 193


 10778 0042 0B       		.uleb128 0xb
 10779 0043 0B       		.uleb128 0xb
 10780 0044 3A       		.uleb128 0x3a
 10781 0045 0B       		.uleb128 0xb
 10782 0046 3B       		.uleb128 0x3b
 10783 0047 0B       		.uleb128 0xb
 10784 0048 01       		.uleb128 0x1
 10785 0049 13       		.uleb128 0x13
 10786 004a 00       		.byte	0
 10787 004b 00       		.byte	0
 10788 004c 07       		.uleb128 0x7
 10789 004d 0D       		.uleb128 0xd
 10790 004e 00       		.byte	0
 10791 004f 03       		.uleb128 0x3
 10792 0050 0E       		.uleb128 0xe
 10793 0051 3A       		.uleb128 0x3a
 10794 0052 0B       		.uleb128 0xb
 10795 0053 3B       		.uleb128 0x3b
 10796 0054 0B       		.uleb128 0xb
 10797 0055 49       		.uleb128 0x49
 10798 0056 13       		.uleb128 0x13
 10799 0057 38       		.uleb128 0x38
 10800 0058 0B       		.uleb128 0xb
 10801 0059 00       		.byte	0
 10802 005a 00       		.byte	0
 10803 005b 08       		.uleb128 0x8
 10804 005c 0D       		.uleb128 0xd
 10805 005d 00       		.byte	0
 10806 005e 03       		.uleb128 0x3
 10807 005f 08       		.uleb128 0x8
 10808 0060 3A       		.uleb128 0x3a
 10809 0061 0B       		.uleb128 0xb
 10810 0062 3B       		.uleb128 0x3b
 10811 0063 05       		.uleb128 0x5
 10812 0064 49       		.uleb128 0x49
 10813 0065 13       		.uleb128 0x13
 10814 0066 38       		.uleb128 0x38
 10815 0067 0B       		.uleb128 0xb
 10816 0068 00       		.byte	0
 10817 0069 00       		.byte	0
 10818 006a 09       		.uleb128 0x9
 10819 006b 0D       		.uleb128 0xd
 10820 006c 00       		.byte	0
 10821 006d 03       		.uleb128 0x3
 10822 006e 0E       		.uleb128 0xe
 10823 006f 3A       		.uleb128 0x3a
 10824 0070 0B       		.uleb128 0xb
 10825 0071 3B       		.uleb128 0x3b
 10826 0072 05       		.uleb128 0x5
 10827 0073 49       		.uleb128 0x49
 10828 0074 13       		.uleb128 0x13
 10829 0075 38       		.uleb128 0x38
 10830 0076 0B       		.uleb128 0xb
 10831 0077 00       		.byte	0
 10832 0078 00       		.byte	0
 10833 0079 0A       		.uleb128 0xa
 10834 007a 13       		.uleb128 0x13
ARM GAS  C:\Users\jo\AppData\Local\Temp\ccpE7U9z.s 			page 194


 10835 007b 01       		.byte	0x1
 10836 007c 03       		.uleb128 0x3
 10837 007d 0E       		.uleb128 0xe
 10838 007e 0B       		.uleb128 0xb
 10839 007f 0B       		.uleb128 0xb
 10840 0080 3A       		.uleb128 0x3a
 10841 0081 0B       		.uleb128 0xb
 10842 0082 3B       		.uleb128 0x3b
 10843 0083 05       		.uleb128 0x5
 10844 0084 01       		.uleb128 0x1
 10845 0085 13       		.uleb128 0x13
 10846 0086 00       		.byte	0
 10847 0087 00       		.byte	0
 10848 0088 0B       		.uleb128 0xb
 10849 0089 0F       		.uleb128 0xf
 10850 008a 00       		.byte	0
 10851 008b 0B       		.uleb128 0xb
 10852 008c 0B       		.uleb128 0xb
 10853 008d 49       		.uleb128 0x49
 10854 008e 13       		.uleb128 0x13
 10855 008f 00       		.byte	0
 10856 0090 00       		.byte	0
 10857 0091 0C       		.uleb128 0xc
 10858 0092 15       		.uleb128 0x15
 10859 0093 01       		.byte	0x1
 10860 0094 27       		.uleb128 0x27
 10861 0095 19       		.uleb128 0x19
 10862 0096 01       		.uleb128 0x1
 10863 0097 13       		.uleb128 0x13
 10864 0098 00       		.byte	0
 10865 0099 00       		.byte	0
 10866 009a 0D       		.uleb128 0xd
 10867 009b 05       		.uleb128 0x5
 10868 009c 00       		.byte	0
 10869 009d 49       		.uleb128 0x49
 10870 009e 13       		.uleb128 0x13
 10871 009f 00       		.byte	0
 10872 00a0 00       		.byte	0
 10873 00a1 0E       		.uleb128 0xe
 10874 00a2 0F       		.uleb128 0xf
 10875 00a3 00       		.byte	0
 10876 00a4 0B       		.uleb128 0xb
 10877 00a5 0B       		.uleb128 0xb
 10878 00a6 00       		.byte	0
 10879 00a7 00       		.byte	0
 10880 00a8 0F       		.uleb128 0xf
 10881 00a9 13       		.uleb128 0x13
 10882 00aa 01       		.byte	0x1
 10883 00ab 03       		.uleb128 0x3
 10884 00ac 0E       		.uleb128 0xe
 10885 00ad 0B       		.uleb128 0xb
 10886 00ae 05       		.uleb128 0x5
 10887 00af 3A       		.uleb128 0x3a
 10888 00b0 0B       		.uleb128 0xb
 10889 00b1 3B       		.uleb128 0x3b
 10890 00b2 05       		.uleb128 0x5
 10891 00b3 01       		.uleb128 0x1
ARM GAS  C:\Users\jo\AppData\Local\Temp\ccpE7U9z.s 			page 195


 10892 00b4 13       		.uleb128 0x13
 10893 00b5 00       		.byte	0
 10894 00b6 00       		.byte	0
 10895 00b7 10       		.uleb128 0x10
 10896 00b8 0D       		.uleb128 0xd
 10897 00b9 00       		.byte	0
 10898 00ba 03       		.uleb128 0x3
 10899 00bb 08       		.uleb128 0x8
 10900 00bc 3A       		.uleb128 0x3a
 10901 00bd 0B       		.uleb128 0xb
 10902 00be 3B       		.uleb128 0x3b
 10903 00bf 0B       		.uleb128 0xb
 10904 00c0 49       		.uleb128 0x49
 10905 00c1 13       		.uleb128 0x13
 10906 00c2 38       		.uleb128 0x38
 10907 00c3 0B       		.uleb128 0xb
 10908 00c4 00       		.byte	0
 10909 00c5 00       		.byte	0
 10910 00c6 11       		.uleb128 0x11
 10911 00c7 0D       		.uleb128 0xd
 10912 00c8 00       		.byte	0
 10913 00c9 03       		.uleb128 0x3
 10914 00ca 0E       		.uleb128 0xe
 10915 00cb 49       		.uleb128 0x49
 10916 00cc 13       		.uleb128 0x13
 10917 00cd 38       		.uleb128 0x38
 10918 00ce 0B       		.uleb128 0xb
 10919 00cf 34       		.uleb128 0x34
 10920 00d0 19       		.uleb128 0x19
 10921 00d1 00       		.byte	0
 10922 00d2 00       		.byte	0
 10923 00d3 12       		.uleb128 0x12
 10924 00d4 26       		.uleb128 0x26
 10925 00d5 00       		.byte	0
 10926 00d6 49       		.uleb128 0x49
 10927 00d7 13       		.uleb128 0x13
 10928 00d8 00       		.byte	0
 10929 00d9 00       		.byte	0
 10930 00da 13       		.uleb128 0x13
 10931 00db 13       		.uleb128 0x13
 10932 00dc 01       		.byte	0x1
 10933 00dd 0B       		.uleb128 0xb
 10934 00de 0B       		.uleb128 0xb
 10935 00df 3A       		.uleb128 0x3a
 10936 00e0 0B       		.uleb128 0xb
 10937 00e1 3B       		.uleb128 0x3b
 10938 00e2 0B       		.uleb128 0xb
 10939 00e3 01       		.uleb128 0x1
 10940 00e4 13       		.uleb128 0x13
 10941 00e5 00       		.byte	0
 10942 00e6 00       		.byte	0
 10943 00e7 14       		.uleb128 0x14
 10944 00e8 17       		.uleb128 0x17
 10945 00e9 01       		.byte	0x1
 10946 00ea 0B       		.uleb128 0xb
 10947 00eb 0B       		.uleb128 0xb
 10948 00ec 3A       		.uleb128 0x3a
ARM GAS  C:\Users\jo\AppData\Local\Temp\ccpE7U9z.s 			page 196


 10949 00ed 0B       		.uleb128 0xb
 10950 00ee 3B       		.uleb128 0x3b
 10951 00ef 0B       		.uleb128 0xb
 10952 00f0 01       		.uleb128 0x1
 10953 00f1 13       		.uleb128 0x13
 10954 00f2 00       		.byte	0
 10955 00f3 00       		.byte	0
 10956 00f4 15       		.uleb128 0x15
 10957 00f5 0D       		.uleb128 0xd
 10958 00f6 00       		.byte	0
 10959 00f7 03       		.uleb128 0x3
 10960 00f8 0E       		.uleb128 0xe
 10961 00f9 3A       		.uleb128 0x3a
 10962 00fa 0B       		.uleb128 0xb
 10963 00fb 3B       		.uleb128 0x3b
 10964 00fc 0B       		.uleb128 0xb
 10965 00fd 49       		.uleb128 0x49
 10966 00fe 13       		.uleb128 0x13
 10967 00ff 00       		.byte	0
 10968 0100 00       		.byte	0
 10969 0101 16       		.uleb128 0x16
 10970 0102 0D       		.uleb128 0xd
 10971 0103 00       		.byte	0
 10972 0104 03       		.uleb128 0x3
 10973 0105 0E       		.uleb128 0xe
 10974 0106 3A       		.uleb128 0x3a
 10975 0107 0B       		.uleb128 0xb
 10976 0108 3B       		.uleb128 0x3b
 10977 0109 05       		.uleb128 0x5
 10978 010a 49       		.uleb128 0x49
 10979 010b 13       		.uleb128 0x13
 10980 010c 00       		.byte	0
 10981 010d 00       		.byte	0
 10982 010e 17       		.uleb128 0x17
 10983 010f 01       		.uleb128 0x1
 10984 0110 01       		.byte	0x1
 10985 0111 49       		.uleb128 0x49
 10986 0112 13       		.uleb128 0x13
 10987 0113 01       		.uleb128 0x1
 10988 0114 13       		.uleb128 0x13
 10989 0115 00       		.byte	0
 10990 0116 00       		.byte	0
 10991 0117 18       		.uleb128 0x18
 10992 0118 21       		.uleb128 0x21
 10993 0119 00       		.byte	0
 10994 011a 49       		.uleb128 0x49
 10995 011b 13       		.uleb128 0x13
 10996 011c 2F       		.uleb128 0x2f
 10997 011d 0B       		.uleb128 0xb
 10998 011e 00       		.byte	0
 10999 011f 00       		.byte	0
 11000 0120 19       		.uleb128 0x19
 11001 0121 15       		.uleb128 0x15
 11002 0122 01       		.byte	0x1
 11003 0123 27       		.uleb128 0x27
 11004 0124 19       		.uleb128 0x19
 11005 0125 49       		.uleb128 0x49
ARM GAS  C:\Users\jo\AppData\Local\Temp\ccpE7U9z.s 			page 197


 11006 0126 13       		.uleb128 0x13
 11007 0127 01       		.uleb128 0x1
 11008 0128 13       		.uleb128 0x13
 11009 0129 00       		.byte	0
 11010 012a 00       		.byte	0
 11011 012b 1A       		.uleb128 0x1a
 11012 012c 04       		.uleb128 0x4
 11013 012d 01       		.byte	0x1
 11014 012e 0B       		.uleb128 0xb
 11015 012f 0B       		.uleb128 0xb
 11016 0130 3A       		.uleb128 0x3a
 11017 0131 0B       		.uleb128 0xb
 11018 0132 3B       		.uleb128 0x3b
 11019 0133 0B       		.uleb128 0xb
 11020 0134 01       		.uleb128 0x1
 11021 0135 13       		.uleb128 0x13
 11022 0136 00       		.byte	0
 11023 0137 00       		.byte	0
 11024 0138 1B       		.uleb128 0x1b
 11025 0139 28       		.uleb128 0x28
 11026 013a 00       		.byte	0
 11027 013b 03       		.uleb128 0x3
 11028 013c 0E       		.uleb128 0xe
 11029 013d 1C       		.uleb128 0x1c
 11030 013e 0D       		.uleb128 0xd
 11031 013f 00       		.byte	0
 11032 0140 00       		.byte	0
 11033 0141 1C       		.uleb128 0x1c
 11034 0142 04       		.uleb128 0x4
 11035 0143 01       		.byte	0x1
 11036 0144 03       		.uleb128 0x3
 11037 0145 0E       		.uleb128 0xe
 11038 0146 0B       		.uleb128 0xb
 11039 0147 0B       		.uleb128 0xb
 11040 0148 3A       		.uleb128 0x3a
 11041 0149 0B       		.uleb128 0xb
 11042 014a 3B       		.uleb128 0x3b
 11043 014b 0B       		.uleb128 0xb
 11044 014c 01       		.uleb128 0x1
 11045 014d 13       		.uleb128 0x13
 11046 014e 00       		.byte	0
 11047 014f 00       		.byte	0
 11048 0150 1D       		.uleb128 0x1d
 11049 0151 17       		.uleb128 0x17
 11050 0152 01       		.byte	0x1
 11051 0153 03       		.uleb128 0x3
 11052 0154 0E       		.uleb128 0xe
 11053 0155 0B       		.uleb128 0xb
 11054 0156 0B       		.uleb128 0xb
 11055 0157 3A       		.uleb128 0x3a
 11056 0158 0B       		.uleb128 0xb
 11057 0159 3B       		.uleb128 0x3b
 11058 015a 05       		.uleb128 0x5
 11059 015b 01       		.uleb128 0x1
 11060 015c 13       		.uleb128 0x13
 11061 015d 00       		.byte	0
 11062 015e 00       		.byte	0
ARM GAS  C:\Users\jo\AppData\Local\Temp\ccpE7U9z.s 			page 198


 11063 015f 1E       		.uleb128 0x1e
 11064 0160 13       		.uleb128 0x13
 11065 0161 01       		.byte	0x1
 11066 0162 03       		.uleb128 0x3
 11067 0163 0E       		.uleb128 0xe
 11068 0164 0B       		.uleb128 0xb
 11069 0165 05       		.uleb128 0x5
 11070 0166 3A       		.uleb128 0x3a
 11071 0167 0B       		.uleb128 0xb
 11072 0168 3B       		.uleb128 0x3b
 11073 0169 0B       		.uleb128 0xb
 11074 016a 01       		.uleb128 0x1
 11075 016b 13       		.uleb128 0x13
 11076 016c 00       		.byte	0
 11077 016d 00       		.byte	0
 11078 016e 1F       		.uleb128 0x1f
 11079 016f 0D       		.uleb128 0xd
 11080 0170 00       		.byte	0
 11081 0171 03       		.uleb128 0x3
 11082 0172 08       		.uleb128 0x8
 11083 0173 3A       		.uleb128 0x3a
 11084 0174 0B       		.uleb128 0xb
 11085 0175 3B       		.uleb128 0x3b
 11086 0176 0B       		.uleb128 0xb
 11087 0177 49       		.uleb128 0x49
 11088 0178 13       		.uleb128 0x13
 11089 0179 38       		.uleb128 0x38
 11090 017a 05       		.uleb128 0x5
 11091 017b 00       		.byte	0
 11092 017c 00       		.byte	0
 11093 017d 20       		.uleb128 0x20
 11094 017e 2E       		.uleb128 0x2e
 11095 017f 01       		.byte	0x1
 11096 0180 03       		.uleb128 0x3
 11097 0181 0E       		.uleb128 0xe
 11098 0182 3A       		.uleb128 0x3a
 11099 0183 0B       		.uleb128 0xb
 11100 0184 3B       		.uleb128 0x3b
 11101 0185 05       		.uleb128 0x5
 11102 0186 27       		.uleb128 0x27
 11103 0187 19       		.uleb128 0x19
 11104 0188 20       		.uleb128 0x20
 11105 0189 0B       		.uleb128 0xb
 11106 018a 01       		.uleb128 0x1
 11107 018b 13       		.uleb128 0x13
 11108 018c 00       		.byte	0
 11109 018d 00       		.byte	0
 11110 018e 21       		.uleb128 0x21
 11111 018f 05       		.uleb128 0x5
 11112 0190 00       		.byte	0
 11113 0191 03       		.uleb128 0x3
 11114 0192 0E       		.uleb128 0xe
 11115 0193 3A       		.uleb128 0x3a
 11116 0194 0B       		.uleb128 0xb
 11117 0195 3B       		.uleb128 0x3b
 11118 0196 05       		.uleb128 0x5
 11119 0197 49       		.uleb128 0x49
ARM GAS  C:\Users\jo\AppData\Local\Temp\ccpE7U9z.s 			page 199


 11120 0198 13       		.uleb128 0x13
 11121 0199 00       		.byte	0
 11122 019a 00       		.byte	0
 11123 019b 22       		.uleb128 0x22
 11124 019c 2E       		.uleb128 0x2e
 11125 019d 01       		.byte	0x1
 11126 019e 3F       		.uleb128 0x3f
 11127 019f 19       		.uleb128 0x19
 11128 01a0 03       		.uleb128 0x3
 11129 01a1 0E       		.uleb128 0xe
 11130 01a2 3A       		.uleb128 0x3a
 11131 01a3 0B       		.uleb128 0xb
 11132 01a4 3B       		.uleb128 0x3b
 11133 01a5 05       		.uleb128 0x5
 11134 01a6 27       		.uleb128 0x27
 11135 01a7 19       		.uleb128 0x19
 11136 01a8 20       		.uleb128 0x20
 11137 01a9 0B       		.uleb128 0xb
 11138 01aa 01       		.uleb128 0x1
 11139 01ab 13       		.uleb128 0x13
 11140 01ac 00       		.byte	0
 11141 01ad 00       		.byte	0
 11142 01ae 23       		.uleb128 0x23
 11143 01af 05       		.uleb128 0x5
 11144 01b0 00       		.byte	0
 11145 01b1 03       		.uleb128 0x3
 11146 01b2 08       		.uleb128 0x8
 11147 01b3 3A       		.uleb128 0x3a
 11148 01b4 0B       		.uleb128 0xb
 11149 01b5 3B       		.uleb128 0x3b
 11150 01b6 05       		.uleb128 0x5
 11151 01b7 49       		.uleb128 0x49
 11152 01b8 13       		.uleb128 0x13
 11153 01b9 00       		.byte	0
 11154 01ba 00       		.byte	0
 11155 01bb 24       		.uleb128 0x24
 11156 01bc 34       		.uleb128 0x34
 11157 01bd 00       		.byte	0
 11158 01be 03       		.uleb128 0x3
 11159 01bf 0E       		.uleb128 0xe
 11160 01c0 3A       		.uleb128 0x3a
 11161 01c1 0B       		.uleb128 0xb
 11162 01c2 3B       		.uleb128 0x3b
 11163 01c3 05       		.uleb128 0x5
 11164 01c4 49       		.uleb128 0x49
 11165 01c5 13       		.uleb128 0x13
 11166 01c6 00       		.byte	0
 11167 01c7 00       		.byte	0
 11168 01c8 25       		.uleb128 0x25
 11169 01c9 0B       		.uleb128 0xb
 11170 01ca 01       		.byte	0x1
 11171 01cb 00       		.byte	0
 11172 01cc 00       		.byte	0
 11173 01cd 26       		.uleb128 0x26
 11174 01ce 2E       		.uleb128 0x2e
 11175 01cf 01       		.byte	0x1
 11176 01d0 3F       		.uleb128 0x3f
ARM GAS  C:\Users\jo\AppData\Local\Temp\ccpE7U9z.s 			page 200


 11177 01d1 19       		.uleb128 0x19
 11178 01d2 03       		.uleb128 0x3
 11179 01d3 0E       		.uleb128 0xe
 11180 01d4 3A       		.uleb128 0x3a
 11181 01d5 0B       		.uleb128 0xb
 11182 01d6 3B       		.uleb128 0x3b
 11183 01d7 05       		.uleb128 0x5
 11184 01d8 27       		.uleb128 0x27
 11185 01d9 19       		.uleb128 0x19
 11186 01da 49       		.uleb128 0x49
 11187 01db 13       		.uleb128 0x13
 11188 01dc 20       		.uleb128 0x20
 11189 01dd 0B       		.uleb128 0xb
 11190 01de 01       		.uleb128 0x1
 11191 01df 13       		.uleb128 0x13
 11192 01e0 00       		.byte	0
 11193 01e1 00       		.byte	0
 11194 01e2 27       		.uleb128 0x27
 11195 01e3 34       		.uleb128 0x34
 11196 01e4 00       		.byte	0
 11197 01e5 03       		.uleb128 0x3
 11198 01e6 08       		.uleb128 0x8
 11199 01e7 3A       		.uleb128 0x3a
 11200 01e8 0B       		.uleb128 0xb
 11201 01e9 3B       		.uleb128 0x3b
 11202 01ea 05       		.uleb128 0x5
 11203 01eb 49       		.uleb128 0x49
 11204 01ec 13       		.uleb128 0x13
 11205 01ed 00       		.byte	0
 11206 01ee 00       		.byte	0
 11207 01ef 28       		.uleb128 0x28
 11208 01f0 2E       		.uleb128 0x2e
 11209 01f1 01       		.byte	0x1
 11210 01f2 03       		.uleb128 0x3
 11211 01f3 0E       		.uleb128 0xe
 11212 01f4 3A       		.uleb128 0x3a
 11213 01f5 0B       		.uleb128 0xb
 11214 01f6 3B       		.uleb128 0x3b
 11215 01f7 0B       		.uleb128 0xb
 11216 01f8 27       		.uleb128 0x27
 11217 01f9 19       		.uleb128 0x19
 11218 01fa 49       		.uleb128 0x49
 11219 01fb 13       		.uleb128 0x13
 11220 01fc 20       		.uleb128 0x20
 11221 01fd 0B       		.uleb128 0xb
 11222 01fe 01       		.uleb128 0x1
 11223 01ff 13       		.uleb128 0x13
 11224 0200 00       		.byte	0
 11225 0201 00       		.byte	0
 11226 0202 29       		.uleb128 0x29
 11227 0203 05       		.uleb128 0x5
 11228 0204 00       		.byte	0
 11229 0205 03       		.uleb128 0x3
 11230 0206 08       		.uleb128 0x8
 11231 0207 3A       		.uleb128 0x3a
 11232 0208 0B       		.uleb128 0xb
 11233 0209 3B       		.uleb128 0x3b
ARM GAS  C:\Users\jo\AppData\Local\Temp\ccpE7U9z.s 			page 201


 11234 020a 0B       		.uleb128 0xb
 11235 020b 49       		.uleb128 0x49
 11236 020c 13       		.uleb128 0x13
 11237 020d 00       		.byte	0
 11238 020e 00       		.byte	0
 11239 020f 2A       		.uleb128 0x2a
 11240 0210 18       		.uleb128 0x18
 11241 0211 00       		.byte	0
 11242 0212 00       		.byte	0
 11243 0213 00       		.byte	0
 11244 0214 2B       		.uleb128 0x2b
 11245 0215 34       		.uleb128 0x34
 11246 0216 00       		.byte	0
 11247 0217 03       		.uleb128 0x3
 11248 0218 08       		.uleb128 0x8
 11249 0219 3A       		.uleb128 0x3a
 11250 021a 0B       		.uleb128 0xb
 11251 021b 3B       		.uleb128 0x3b
 11252 021c 0B       		.uleb128 0xb
 11253 021d 49       		.uleb128 0x49
 11254 021e 13       		.uleb128 0x13
 11255 021f 00       		.byte	0
 11256 0220 00       		.byte	0
 11257 0221 2C       		.uleb128 0x2c
 11258 0222 34       		.uleb128 0x34
 11259 0223 00       		.byte	0
 11260 0224 03       		.uleb128 0x3
 11261 0225 0E       		.uleb128 0xe
 11262 0226 3A       		.uleb128 0x3a
 11263 0227 0B       		.uleb128 0xb
 11264 0228 3B       		.uleb128 0x3b
 11265 0229 0B       		.uleb128 0xb
 11266 022a 49       		.uleb128 0x49
 11267 022b 13       		.uleb128 0x13
 11268 022c 00       		.byte	0
 11269 022d 00       		.byte	0
 11270 022e 2D       		.uleb128 0x2d
 11271 022f 2E       		.uleb128 0x2e
 11272 0230 01       		.byte	0x1
 11273 0231 03       		.uleb128 0x3
 11274 0232 0E       		.uleb128 0xe
 11275 0233 3A       		.uleb128 0x3a
 11276 0234 0B       		.uleb128 0xb
 11277 0235 3B       		.uleb128 0x3b
 11278 0236 05       		.uleb128 0x5
 11279 0237 27       		.uleb128 0x27
 11280 0238 19       		.uleb128 0x19
 11281 0239 49       		.uleb128 0x49
 11282 023a 13       		.uleb128 0x13
 11283 023b 11       		.uleb128 0x11
 11284 023c 01       		.uleb128 0x1
 11285 023d 12       		.uleb128 0x12
 11286 023e 06       		.uleb128 0x6
 11287 023f 40       		.uleb128 0x40
 11288 0240 18       		.uleb128 0x18
 11289 0241 9742     		.uleb128 0x2117
 11290 0243 19       		.uleb128 0x19
ARM GAS  C:\Users\jo\AppData\Local\Temp\ccpE7U9z.s 			page 202


 11291 0244 01       		.uleb128 0x1
 11292 0245 13       		.uleb128 0x13
 11293 0246 00       		.byte	0
 11294 0247 00       		.byte	0
 11295 0248 2E       		.uleb128 0x2e
 11296 0249 05       		.uleb128 0x5
 11297 024a 00       		.byte	0
 11298 024b 03       		.uleb128 0x3
 11299 024c 08       		.uleb128 0x8
 11300 024d 3A       		.uleb128 0x3a
 11301 024e 0B       		.uleb128 0xb
 11302 024f 3B       		.uleb128 0x3b
 11303 0250 05       		.uleb128 0x5
 11304 0251 49       		.uleb128 0x49
 11305 0252 13       		.uleb128 0x13
 11306 0253 02       		.uleb128 0x2
 11307 0254 17       		.uleb128 0x17
 11308 0255 00       		.byte	0
 11309 0256 00       		.byte	0
 11310 0257 2F       		.uleb128 0x2f
 11311 0258 05       		.uleb128 0x5
 11312 0259 00       		.byte	0
 11313 025a 03       		.uleb128 0x3
 11314 025b 08       		.uleb128 0x8
 11315 025c 3A       		.uleb128 0x3a
 11316 025d 0B       		.uleb128 0xb
 11317 025e 3B       		.uleb128 0x3b
 11318 025f 05       		.uleb128 0x5
 11319 0260 49       		.uleb128 0x49
 11320 0261 13       		.uleb128 0x13
 11321 0262 02       		.uleb128 0x2
 11322 0263 18       		.uleb128 0x18
 11323 0264 00       		.byte	0
 11324 0265 00       		.byte	0
 11325 0266 30       		.uleb128 0x30
 11326 0267 34       		.uleb128 0x34
 11327 0268 00       		.byte	0
 11328 0269 03       		.uleb128 0x3
 11329 026a 08       		.uleb128 0x8
 11330 026b 3A       		.uleb128 0x3a
 11331 026c 0B       		.uleb128 0xb
 11332 026d 3B       		.uleb128 0x3b
 11333 026e 05       		.uleb128 0x5
 11334 026f 49       		.uleb128 0x49
 11335 0270 13       		.uleb128 0x13
 11336 0271 02       		.uleb128 0x2
 11337 0272 17       		.uleb128 0x17
 11338 0273 00       		.byte	0
 11339 0274 00       		.byte	0
 11340 0275 31       		.uleb128 0x31
 11341 0276 34       		.uleb128 0x34
 11342 0277 00       		.byte	0
 11343 0278 03       		.uleb128 0x3
 11344 0279 08       		.uleb128 0x8
 11345 027a 3A       		.uleb128 0x3a
 11346 027b 0B       		.uleb128 0xb
 11347 027c 3B       		.uleb128 0x3b
ARM GAS  C:\Users\jo\AppData\Local\Temp\ccpE7U9z.s 			page 203


 11348 027d 05       		.uleb128 0x5
 11349 027e 49       		.uleb128 0x49
 11350 027f 13       		.uleb128 0x13
 11351 0280 02       		.uleb128 0x2
 11352 0281 18       		.uleb128 0x18
 11353 0282 00       		.byte	0
 11354 0283 00       		.byte	0
 11355 0284 32       		.uleb128 0x32
 11356 0285 0A       		.uleb128 0xa
 11357 0286 00       		.byte	0
 11358 0287 03       		.uleb128 0x3
 11359 0288 0E       		.uleb128 0xe
 11360 0289 3A       		.uleb128 0x3a
 11361 028a 0B       		.uleb128 0xb
 11362 028b 3B       		.uleb128 0x3b
 11363 028c 05       		.uleb128 0x5
 11364 028d 11       		.uleb128 0x11
 11365 028e 01       		.uleb128 0x1
 11366 028f 00       		.byte	0
 11367 0290 00       		.byte	0
 11368 0291 33       		.uleb128 0x33
 11369 0292 2E       		.uleb128 0x2e
 11370 0293 01       		.byte	0x1
 11371 0294 31       		.uleb128 0x31
 11372 0295 13       		.uleb128 0x13
 11373 0296 11       		.uleb128 0x11
 11374 0297 01       		.uleb128 0x1
 11375 0298 12       		.uleb128 0x12
 11376 0299 06       		.uleb128 0x6
 11377 029a 40       		.uleb128 0x40
 11378 029b 18       		.uleb128 0x18
 11379 029c 9742     		.uleb128 0x2117
 11380 029e 19       		.uleb128 0x19
 11381 029f 01       		.uleb128 0x1
 11382 02a0 13       		.uleb128 0x13
 11383 02a1 00       		.byte	0
 11384 02a2 00       		.byte	0
 11385 02a3 34       		.uleb128 0x34
 11386 02a4 05       		.uleb128 0x5
 11387 02a5 00       		.byte	0
 11388 02a6 31       		.uleb128 0x31
 11389 02a7 13       		.uleb128 0x13
 11390 02a8 02       		.uleb128 0x2
 11391 02a9 17       		.uleb128 0x17
 11392 02aa 00       		.byte	0
 11393 02ab 00       		.byte	0
 11394 02ac 35       		.uleb128 0x35
 11395 02ad 05       		.uleb128 0x5
 11396 02ae 00       		.byte	0
 11397 02af 31       		.uleb128 0x31
 11398 02b0 13       		.uleb128 0x13
 11399 02b1 02       		.uleb128 0x2
 11400 02b2 18       		.uleb128 0x18
 11401 02b3 00       		.byte	0
 11402 02b4 00       		.byte	0
 11403 02b5 36       		.uleb128 0x36
 11404 02b6 34       		.uleb128 0x34
ARM GAS  C:\Users\jo\AppData\Local\Temp\ccpE7U9z.s 			page 204


 11405 02b7 00       		.byte	0
 11406 02b8 31       		.uleb128 0x31
 11407 02b9 13       		.uleb128 0x13
 11408 02ba 02       		.uleb128 0x2
 11409 02bb 18       		.uleb128 0x18
 11410 02bc 00       		.byte	0
 11411 02bd 00       		.byte	0
 11412 02be 37       		.uleb128 0x37
 11413 02bf 05       		.uleb128 0x5
 11414 02c0 00       		.byte	0
 11415 02c1 31       		.uleb128 0x31
 11416 02c2 13       		.uleb128 0x13
 11417 02c3 00       		.byte	0
 11418 02c4 00       		.byte	0
 11419 02c5 38       		.uleb128 0x38
 11420 02c6 898201   		.uleb128 0x4109
 11421 02c9 01       		.byte	0x1
 11422 02ca 11       		.uleb128 0x11
 11423 02cb 01       		.uleb128 0x1
 11424 02cc 31       		.uleb128 0x31
 11425 02cd 13       		.uleb128 0x13
 11426 02ce 00       		.byte	0
 11427 02cf 00       		.byte	0
 11428 02d0 39       		.uleb128 0x39
 11429 02d1 8A8201   		.uleb128 0x410a
 11430 02d4 00       		.byte	0
 11431 02d5 02       		.uleb128 0x2
 11432 02d6 18       		.uleb128 0x18
 11433 02d7 9142     		.uleb128 0x2111
 11434 02d9 18       		.uleb128 0x18
 11435 02da 00       		.byte	0
 11436 02db 00       		.byte	0
 11437 02dc 3A       		.uleb128 0x3a
 11438 02dd 2E       		.uleb128 0x2e
 11439 02de 00       		.byte	0
 11440 02df 3F       		.uleb128 0x3f
 11441 02e0 19       		.uleb128 0x19
 11442 02e1 03       		.uleb128 0x3
 11443 02e2 0E       		.uleb128 0xe
 11444 02e3 3A       		.uleb128 0x3a
 11445 02e4 0B       		.uleb128 0xb
 11446 02e5 3B       		.uleb128 0x3b
 11447 02e6 0B       		.uleb128 0xb
 11448 02e7 27       		.uleb128 0x27
 11449 02e8 19       		.uleb128 0x19
 11450 02e9 11       		.uleb128 0x11
 11451 02ea 01       		.uleb128 0x1
 11452 02eb 12       		.uleb128 0x12
 11453 02ec 06       		.uleb128 0x6
 11454 02ed 40       		.uleb128 0x40
 11455 02ee 18       		.uleb128 0x18
 11456 02ef 9742     		.uleb128 0x2117
 11457 02f1 19       		.uleb128 0x19
 11458 02f2 00       		.byte	0
 11459 02f3 00       		.byte	0
 11460 02f4 3B       		.uleb128 0x3b
 11461 02f5 2E       		.uleb128 0x2e
ARM GAS  C:\Users\jo\AppData\Local\Temp\ccpE7U9z.s 			page 205


 11462 02f6 01       		.byte	0x1
 11463 02f7 3F       		.uleb128 0x3f
 11464 02f8 19       		.uleb128 0x19
 11465 02f9 03       		.uleb128 0x3
 11466 02fa 0E       		.uleb128 0xe
 11467 02fb 3A       		.uleb128 0x3a
 11468 02fc 0B       		.uleb128 0xb
 11469 02fd 3B       		.uleb128 0x3b
 11470 02fe 05       		.uleb128 0x5
 11471 02ff 27       		.uleb128 0x27
 11472 0300 19       		.uleb128 0x19
 11473 0301 49       		.uleb128 0x49
 11474 0302 13       		.uleb128 0x13
 11475 0303 11       		.uleb128 0x11
 11476 0304 01       		.uleb128 0x1
 11477 0305 12       		.uleb128 0x12
 11478 0306 06       		.uleb128 0x6
 11479 0307 40       		.uleb128 0x40
 11480 0308 18       		.uleb128 0x18
 11481 0309 9742     		.uleb128 0x2117
 11482 030b 19       		.uleb128 0x19
 11483 030c 01       		.uleb128 0x1
 11484 030d 13       		.uleb128 0x13
 11485 030e 00       		.byte	0
 11486 030f 00       		.byte	0
 11487 0310 3C       		.uleb128 0x3c
 11488 0311 05       		.uleb128 0x5
 11489 0312 00       		.byte	0
 11490 0313 03       		.uleb128 0x3
 11491 0314 0E       		.uleb128 0xe
 11492 0315 3A       		.uleb128 0x3a
 11493 0316 0B       		.uleb128 0xb
 11494 0317 3B       		.uleb128 0x3b
 11495 0318 05       		.uleb128 0x5
 11496 0319 49       		.uleb128 0x49
 11497 031a 13       		.uleb128 0x13
 11498 031b 02       		.uleb128 0x2
 11499 031c 17       		.uleb128 0x17
 11500 031d 00       		.byte	0
 11501 031e 00       		.byte	0
 11502 031f 3D       		.uleb128 0x3d
 11503 0320 34       		.uleb128 0x34
 11504 0321 00       		.byte	0
 11505 0322 03       		.uleb128 0x3
 11506 0323 0E       		.uleb128 0xe
 11507 0324 3A       		.uleb128 0x3a
 11508 0325 0B       		.uleb128 0xb
 11509 0326 3B       		.uleb128 0x3b
 11510 0327 05       		.uleb128 0x5
 11511 0328 49       		.uleb128 0x49
 11512 0329 13       		.uleb128 0x13
 11513 032a 1C       		.uleb128 0x1c
 11514 032b 0B       		.uleb128 0xb
 11515 032c 00       		.byte	0
 11516 032d 00       		.byte	0
 11517 032e 3E       		.uleb128 0x3e
 11518 032f 34       		.uleb128 0x34
ARM GAS  C:\Users\jo\AppData\Local\Temp\ccpE7U9z.s 			page 206


 11519 0330 00       		.byte	0
 11520 0331 03       		.uleb128 0x3
 11521 0332 0E       		.uleb128 0xe
 11522 0333 3A       		.uleb128 0x3a
 11523 0334 0B       		.uleb128 0xb
 11524 0335 3B       		.uleb128 0x3b
 11525 0336 05       		.uleb128 0x5
 11526 0337 49       		.uleb128 0x49
 11527 0338 13       		.uleb128 0x13
 11528 0339 02       		.uleb128 0x2
 11529 033a 17       		.uleb128 0x17
 11530 033b 00       		.byte	0
 11531 033c 00       		.byte	0
 11532 033d 3F       		.uleb128 0x3f
 11533 033e 1D       		.uleb128 0x1d
 11534 033f 01       		.byte	0x1
 11535 0340 31       		.uleb128 0x31
 11536 0341 13       		.uleb128 0x13
 11537 0342 11       		.uleb128 0x11
 11538 0343 01       		.uleb128 0x1
 11539 0344 12       		.uleb128 0x12
 11540 0345 06       		.uleb128 0x6
 11541 0346 58       		.uleb128 0x58
 11542 0347 0B       		.uleb128 0xb
 11543 0348 59       		.uleb128 0x59
 11544 0349 05       		.uleb128 0x5
 11545 034a 01       		.uleb128 0x1
 11546 034b 13       		.uleb128 0x13
 11547 034c 00       		.byte	0
 11548 034d 00       		.byte	0
 11549 034e 40       		.uleb128 0x40
 11550 034f 898201   		.uleb128 0x4109
 11551 0352 00       		.byte	0
 11552 0353 11       		.uleb128 0x11
 11553 0354 01       		.uleb128 0x1
 11554 0355 31       		.uleb128 0x31
 11555 0356 13       		.uleb128 0x13
 11556 0357 00       		.byte	0
 11557 0358 00       		.byte	0
 11558 0359 41       		.uleb128 0x41
 11559 035a 898201   		.uleb128 0x4109
 11560 035d 01       		.byte	0x1
 11561 035e 11       		.uleb128 0x11
 11562 035f 01       		.uleb128 0x1
 11563 0360 31       		.uleb128 0x31
 11564 0361 13       		.uleb128 0x13
 11565 0362 01       		.uleb128 0x1
 11566 0363 13       		.uleb128 0x13
 11567 0364 00       		.byte	0
 11568 0365 00       		.byte	0
 11569 0366 42       		.uleb128 0x42
 11570 0367 0B       		.uleb128 0xb
 11571 0368 01       		.byte	0x1
 11572 0369 55       		.uleb128 0x55
 11573 036a 17       		.uleb128 0x17
 11574 036b 00       		.byte	0
 11575 036c 00       		.byte	0
ARM GAS  C:\Users\jo\AppData\Local\Temp\ccpE7U9z.s 			page 207


 11576 036d 43       		.uleb128 0x43
 11577 036e 34       		.uleb128 0x34
 11578 036f 00       		.byte	0
 11579 0370 03       		.uleb128 0x3
 11580 0371 0E       		.uleb128 0xe
 11581 0372 3A       		.uleb128 0x3a
 11582 0373 0B       		.uleb128 0xb
 11583 0374 3B       		.uleb128 0x3b
 11584 0375 05       		.uleb128 0x5
 11585 0376 49       		.uleb128 0x49
 11586 0377 13       		.uleb128 0x13
 11587 0378 02       		.uleb128 0x2
 11588 0379 18       		.uleb128 0x18
 11589 037a 00       		.byte	0
 11590 037b 00       		.byte	0
 11591 037c 44       		.uleb128 0x44
 11592 037d 34       		.uleb128 0x34
 11593 037e 00       		.byte	0
 11594 037f 31       		.uleb128 0x31
 11595 0380 13       		.uleb128 0x13
 11596 0381 02       		.uleb128 0x2
 11597 0382 17       		.uleb128 0x17
 11598 0383 00       		.byte	0
 11599 0384 00       		.byte	0
 11600 0385 45       		.uleb128 0x45
 11601 0386 0B       		.uleb128 0xb
 11602 0387 01       		.byte	0x1
 11603 0388 55       		.uleb128 0x55
 11604 0389 17       		.uleb128 0x17
 11605 038a 01       		.uleb128 0x1
 11606 038b 13       		.uleb128 0x13
 11607 038c 00       		.byte	0
 11608 038d 00       		.byte	0
 11609 038e 46       		.uleb128 0x46
 11610 038f 34       		.uleb128 0x34
 11611 0390 00       		.byte	0
 11612 0391 31       		.uleb128 0x31
 11613 0392 13       		.uleb128 0x13
 11614 0393 00       		.byte	0
 11615 0394 00       		.byte	0
 11616 0395 47       		.uleb128 0x47
 11617 0396 898201   		.uleb128 0x4109
 11618 0399 01       		.byte	0x1
 11619 039a 11       		.uleb128 0x11
 11620 039b 01       		.uleb128 0x1
 11621 039c 9542     		.uleb128 0x2115
 11622 039e 19       		.uleb128 0x19
 11623 039f 31       		.uleb128 0x31
 11624 03a0 13       		.uleb128 0x13
 11625 03a1 00       		.byte	0
 11626 03a2 00       		.byte	0
 11627 03a3 48       		.uleb128 0x48
 11628 03a4 2E       		.uleb128 0x2e
 11629 03a5 01       		.byte	0x1
 11630 03a6 3F       		.uleb128 0x3f
 11631 03a7 19       		.uleb128 0x19
 11632 03a8 03       		.uleb128 0x3
ARM GAS  C:\Users\jo\AppData\Local\Temp\ccpE7U9z.s 			page 208


 11633 03a9 0E       		.uleb128 0xe
 11634 03aa 3A       		.uleb128 0x3a
 11635 03ab 0B       		.uleb128 0xb
 11636 03ac 3B       		.uleb128 0x3b
 11637 03ad 05       		.uleb128 0x5
 11638 03ae 27       		.uleb128 0x27
 11639 03af 19       		.uleb128 0x19
 11640 03b0 11       		.uleb128 0x11
 11641 03b1 01       		.uleb128 0x1
 11642 03b2 12       		.uleb128 0x12
 11643 03b3 06       		.uleb128 0x6
 11644 03b4 40       		.uleb128 0x40
 11645 03b5 18       		.uleb128 0x18
 11646 03b6 9742     		.uleb128 0x2117
 11647 03b8 19       		.uleb128 0x19
 11648 03b9 01       		.uleb128 0x1
 11649 03ba 13       		.uleb128 0x13
 11650 03bb 00       		.byte	0
 11651 03bc 00       		.byte	0
 11652 03bd 49       		.uleb128 0x49
 11653 03be 0B       		.uleb128 0xb
 11654 03bf 01       		.byte	0x1
 11655 03c0 11       		.uleb128 0x11
 11656 03c1 01       		.uleb128 0x1
 11657 03c2 12       		.uleb128 0x12
 11658 03c3 06       		.uleb128 0x6
 11659 03c4 00       		.byte	0
 11660 03c5 00       		.byte	0
 11661 03c6 4A       		.uleb128 0x4a
 11662 03c7 05       		.uleb128 0x5
 11663 03c8 00       		.byte	0
 11664 03c9 03       		.uleb128 0x3
 11665 03ca 0E       		.uleb128 0xe
 11666 03cb 3A       		.uleb128 0x3a
 11667 03cc 0B       		.uleb128 0xb
 11668 03cd 3B       		.uleb128 0x3b
 11669 03ce 05       		.uleb128 0x5
 11670 03cf 49       		.uleb128 0x49
 11671 03d0 13       		.uleb128 0x13
 11672 03d1 02       		.uleb128 0x2
 11673 03d2 18       		.uleb128 0x18
 11674 03d3 00       		.byte	0
 11675 03d4 00       		.byte	0
 11676 03d5 4B       		.uleb128 0x4b
 11677 03d6 0A       		.uleb128 0xa
 11678 03d7 00       		.byte	0
 11679 03d8 03       		.uleb128 0x3
 11680 03d9 0E       		.uleb128 0xe
 11681 03da 3A       		.uleb128 0x3a
 11682 03db 0B       		.uleb128 0xb
 11683 03dc 3B       		.uleb128 0x3b
 11684 03dd 05       		.uleb128 0x5
 11685 03de 00       		.byte	0
 11686 03df 00       		.byte	0
 11687 03e0 4C       		.uleb128 0x4c
 11688 03e1 898201   		.uleb128 0x4109
 11689 03e4 01       		.byte	0x1
ARM GAS  C:\Users\jo\AppData\Local\Temp\ccpE7U9z.s 			page 209


 11690 03e5 11       		.uleb128 0x11
 11691 03e6 01       		.uleb128 0x1
 11692 03e7 9342     		.uleb128 0x2113
 11693 03e9 18       		.uleb128 0x18
 11694 03ea 01       		.uleb128 0x1
 11695 03eb 13       		.uleb128 0x13
 11696 03ec 00       		.byte	0
 11697 03ed 00       		.byte	0
 11698 03ee 4D       		.uleb128 0x4d
 11699 03ef 898201   		.uleb128 0x4109
 11700 03f2 01       		.byte	0x1
 11701 03f3 11       		.uleb128 0x11
 11702 03f4 01       		.uleb128 0x1
 11703 03f5 01       		.uleb128 0x1
 11704 03f6 13       		.uleb128 0x13
 11705 03f7 00       		.byte	0
 11706 03f8 00       		.byte	0
 11707 03f9 4E       		.uleb128 0x4e
 11708 03fa 2E       		.uleb128 0x2e
 11709 03fb 01       		.byte	0x1
 11710 03fc 03       		.uleb128 0x3
 11711 03fd 0E       		.uleb128 0xe
 11712 03fe 3A       		.uleb128 0x3a
 11713 03ff 0B       		.uleb128 0xb
 11714 0400 3B       		.uleb128 0x3b
 11715 0401 0B       		.uleb128 0xb
 11716 0402 27       		.uleb128 0x27
 11717 0403 19       		.uleb128 0x19
 11718 0404 49       		.uleb128 0x49
 11719 0405 13       		.uleb128 0x13
 11720 0406 11       		.uleb128 0x11
 11721 0407 01       		.uleb128 0x1
 11722 0408 12       		.uleb128 0x12
 11723 0409 06       		.uleb128 0x6
 11724 040a 40       		.uleb128 0x40
 11725 040b 18       		.uleb128 0x18
 11726 040c 9742     		.uleb128 0x2117
 11727 040e 19       		.uleb128 0x19
 11728 040f 01       		.uleb128 0x1
 11729 0410 13       		.uleb128 0x13
 11730 0411 00       		.byte	0
 11731 0412 00       		.byte	0
 11732 0413 4F       		.uleb128 0x4f
 11733 0414 05       		.uleb128 0x5
 11734 0415 00       		.byte	0
 11735 0416 03       		.uleb128 0x3
 11736 0417 08       		.uleb128 0x8
 11737 0418 3A       		.uleb128 0x3a
 11738 0419 0B       		.uleb128 0xb
 11739 041a 3B       		.uleb128 0x3b
 11740 041b 0B       		.uleb128 0xb
 11741 041c 49       		.uleb128 0x49
 11742 041d 13       		.uleb128 0x13
 11743 041e 02       		.uleb128 0x2
 11744 041f 17       		.uleb128 0x17
 11745 0420 00       		.byte	0
 11746 0421 00       		.byte	0
ARM GAS  C:\Users\jo\AppData\Local\Temp\ccpE7U9z.s 			page 210


 11747 0422 50       		.uleb128 0x50
 11748 0423 05       		.uleb128 0x5
 11749 0424 00       		.byte	0
 11750 0425 03       		.uleb128 0x3
 11751 0426 0E       		.uleb128 0xe
 11752 0427 3A       		.uleb128 0x3a
 11753 0428 0B       		.uleb128 0xb
 11754 0429 3B       		.uleb128 0x3b
 11755 042a 0B       		.uleb128 0xb
 11756 042b 49       		.uleb128 0x49
 11757 042c 13       		.uleb128 0x13
 11758 042d 02       		.uleb128 0x2
 11759 042e 17       		.uleb128 0x17
 11760 042f 00       		.byte	0
 11761 0430 00       		.byte	0
 11762 0431 51       		.uleb128 0x51
 11763 0432 34       		.uleb128 0x34
 11764 0433 00       		.byte	0
 11765 0434 03       		.uleb128 0x3
 11766 0435 08       		.uleb128 0x8
 11767 0436 3A       		.uleb128 0x3a
 11768 0437 0B       		.uleb128 0xb
 11769 0438 3B       		.uleb128 0x3b
 11770 0439 0B       		.uleb128 0xb
 11771 043a 49       		.uleb128 0x49
 11772 043b 13       		.uleb128 0x13
 11773 043c 02       		.uleb128 0x2
 11774 043d 17       		.uleb128 0x17
 11775 043e 00       		.byte	0
 11776 043f 00       		.byte	0
 11777 0440 52       		.uleb128 0x52
 11778 0441 1D       		.uleb128 0x1d
 11779 0442 01       		.byte	0x1
 11780 0443 31       		.uleb128 0x31
 11781 0444 13       		.uleb128 0x13
 11782 0445 11       		.uleb128 0x11
 11783 0446 01       		.uleb128 0x1
 11784 0447 12       		.uleb128 0x12
 11785 0448 06       		.uleb128 0x6
 11786 0449 58       		.uleb128 0x58
 11787 044a 0B       		.uleb128 0xb
 11788 044b 59       		.uleb128 0x59
 11789 044c 0B       		.uleb128 0xb
 11790 044d 01       		.uleb128 0x1
 11791 044e 13       		.uleb128 0x13
 11792 044f 00       		.byte	0
 11793 0450 00       		.byte	0
 11794 0451 53       		.uleb128 0x53
 11795 0452 05       		.uleb128 0x5
 11796 0453 00       		.byte	0
 11797 0454 31       		.uleb128 0x31
 11798 0455 13       		.uleb128 0x13
 11799 0456 1C       		.uleb128 0x1c
 11800 0457 0B       		.uleb128 0xb
 11801 0458 00       		.byte	0
 11802 0459 00       		.byte	0
 11803 045a 54       		.uleb128 0x54
ARM GAS  C:\Users\jo\AppData\Local\Temp\ccpE7U9z.s 			page 211


 11804 045b 898201   		.uleb128 0x4109
 11805 045e 01       		.byte	0x1
 11806 045f 11       		.uleb128 0x11
 11807 0460 01       		.uleb128 0x1
 11808 0461 9342     		.uleb128 0x2113
 11809 0463 18       		.uleb128 0x18
 11810 0464 00       		.byte	0
 11811 0465 00       		.byte	0
 11812 0466 55       		.uleb128 0x55
 11813 0467 2E       		.uleb128 0x2e
 11814 0468 01       		.byte	0x1
 11815 0469 3F       		.uleb128 0x3f
 11816 046a 19       		.uleb128 0x19
 11817 046b 03       		.uleb128 0x3
 11818 046c 0E       		.uleb128 0xe
 11819 046d 3A       		.uleb128 0x3a
 11820 046e 0B       		.uleb128 0xb
 11821 046f 3B       		.uleb128 0x3b
 11822 0470 0B       		.uleb128 0xb
 11823 0471 27       		.uleb128 0x27
 11824 0472 19       		.uleb128 0x19
 11825 0473 11       		.uleb128 0x11
 11826 0474 01       		.uleb128 0x1
 11827 0475 12       		.uleb128 0x12
 11828 0476 06       		.uleb128 0x6
 11829 0477 40       		.uleb128 0x40
 11830 0478 18       		.uleb128 0x18
 11831 0479 9742     		.uleb128 0x2117
 11832 047b 19       		.uleb128 0x19
 11833 047c 01       		.uleb128 0x1
 11834 047d 13       		.uleb128 0x13
 11835 047e 00       		.byte	0
 11836 047f 00       		.byte	0
 11837 0480 56       		.uleb128 0x56
 11838 0481 898201   		.uleb128 0x4109
 11839 0484 00       		.byte	0
 11840 0485 11       		.uleb128 0x11
 11841 0486 01       		.uleb128 0x1
 11842 0487 9542     		.uleb128 0x2115
 11843 0489 19       		.uleb128 0x19
 11844 048a 31       		.uleb128 0x31
 11845 048b 13       		.uleb128 0x13
 11846 048c 00       		.byte	0
 11847 048d 00       		.byte	0
 11848 048e 57       		.uleb128 0x57
 11849 048f 898201   		.uleb128 0x4109
 11850 0492 01       		.byte	0x1
 11851 0493 11       		.uleb128 0x11
 11852 0494 01       		.uleb128 0x1
 11853 0495 9542     		.uleb128 0x2115
 11854 0497 19       		.uleb128 0x19
 11855 0498 01       		.uleb128 0x1
 11856 0499 13       		.uleb128 0x13
 11857 049a 00       		.byte	0
 11858 049b 00       		.byte	0
 11859 049c 58       		.uleb128 0x58
 11860 049d 898201   		.uleb128 0x4109
ARM GAS  C:\Users\jo\AppData\Local\Temp\ccpE7U9z.s 			page 212


 11861 04a0 01       		.byte	0x1
 11862 04a1 11       		.uleb128 0x11
 11863 04a2 01       		.uleb128 0x1
 11864 04a3 9542     		.uleb128 0x2115
 11865 04a5 19       		.uleb128 0x19
 11866 04a6 31       		.uleb128 0x31
 11867 04a7 13       		.uleb128 0x13
 11868 04a8 01       		.uleb128 0x1
 11869 04a9 13       		.uleb128 0x13
 11870 04aa 00       		.byte	0
 11871 04ab 00       		.byte	0
 11872 04ac 59       		.uleb128 0x59
 11873 04ad 1D       		.uleb128 0x1d
 11874 04ae 01       		.byte	0x1
 11875 04af 31       		.uleb128 0x31
 11876 04b0 13       		.uleb128 0x13
 11877 04b1 52       		.uleb128 0x52
 11878 04b2 01       		.uleb128 0x1
 11879 04b3 55       		.uleb128 0x55
 11880 04b4 17       		.uleb128 0x17
 11881 04b5 58       		.uleb128 0x58
 11882 04b6 0B       		.uleb128 0xb
 11883 04b7 59       		.uleb128 0x59
 11884 04b8 05       		.uleb128 0x5
 11885 04b9 01       		.uleb128 0x1
 11886 04ba 13       		.uleb128 0x13
 11887 04bb 00       		.byte	0
 11888 04bc 00       		.byte	0
 11889 04bd 5A       		.uleb128 0x5a
 11890 04be 1D       		.uleb128 0x1d
 11891 04bf 01       		.byte	0x1
 11892 04c0 31       		.uleb128 0x31
 11893 04c1 13       		.uleb128 0x13
 11894 04c2 11       		.uleb128 0x11
 11895 04c3 01       		.uleb128 0x1
 11896 04c4 12       		.uleb128 0x12
 11897 04c5 06       		.uleb128 0x6
 11898 04c6 58       		.uleb128 0x58
 11899 04c7 0B       		.uleb128 0xb
 11900 04c8 59       		.uleb128 0x59
 11901 04c9 05       		.uleb128 0x5
 11902 04ca 00       		.byte	0
 11903 04cb 00       		.byte	0
 11904 04cc 5B       		.uleb128 0x5b
 11905 04cd 34       		.uleb128 0x34
 11906 04ce 00       		.byte	0
 11907 04cf 03       		.uleb128 0x3
 11908 04d0 0E       		.uleb128 0xe
 11909 04d1 3A       		.uleb128 0x3a
 11910 04d2 0B       		.uleb128 0xb
 11911 04d3 3B       		.uleb128 0x3b
 11912 04d4 0B       		.uleb128 0xb
 11913 04d5 49       		.uleb128 0x49
 11914 04d6 13       		.uleb128 0x13
 11915 04d7 02       		.uleb128 0x2
 11916 04d8 18       		.uleb128 0x18
 11917 04d9 00       		.byte	0
ARM GAS  C:\Users\jo\AppData\Local\Temp\ccpE7U9z.s 			page 213


 11918 04da 00       		.byte	0
 11919 04db 5C       		.uleb128 0x5c
 11920 04dc 34       		.uleb128 0x34
 11921 04dd 00       		.byte	0
 11922 04de 03       		.uleb128 0x3
 11923 04df 0E       		.uleb128 0xe
 11924 04e0 3A       		.uleb128 0x3a
 11925 04e1 0B       		.uleb128 0xb
 11926 04e2 3B       		.uleb128 0x3b
 11927 04e3 05       		.uleb128 0x5
 11928 04e4 49       		.uleb128 0x49
 11929 04e5 13       		.uleb128 0x13
 11930 04e6 3F       		.uleb128 0x3f
 11931 04e7 19       		.uleb128 0x19
 11932 04e8 3C       		.uleb128 0x3c
 11933 04e9 19       		.uleb128 0x19
 11934 04ea 00       		.byte	0
 11935 04eb 00       		.byte	0
 11936 04ec 5D       		.uleb128 0x5d
 11937 04ed 34       		.uleb128 0x34
 11938 04ee 00       		.byte	0
 11939 04ef 03       		.uleb128 0x3
 11940 04f0 08       		.uleb128 0x8
 11941 04f1 3A       		.uleb128 0x3a
 11942 04f2 0B       		.uleb128 0xb
 11943 04f3 3B       		.uleb128 0x3b
 11944 04f4 05       		.uleb128 0x5
 11945 04f5 49       		.uleb128 0x49
 11946 04f6 13       		.uleb128 0x13
 11947 04f7 3F       		.uleb128 0x3f
 11948 04f8 19       		.uleb128 0x19
 11949 04f9 3C       		.uleb128 0x3c
 11950 04fa 19       		.uleb128 0x19
 11951 04fb 00       		.byte	0
 11952 04fc 00       		.byte	0
 11953 04fd 5E       		.uleb128 0x5e
 11954 04fe 34       		.uleb128 0x34
 11955 04ff 00       		.byte	0
 11956 0500 03       		.uleb128 0x3
 11957 0501 0E       		.uleb128 0xe
 11958 0502 3A       		.uleb128 0x3a
 11959 0503 0B       		.uleb128 0xb
 11960 0504 3B       		.uleb128 0x3b
 11961 0505 0B       		.uleb128 0xb
 11962 0506 49       		.uleb128 0x49
 11963 0507 13       		.uleb128 0x13
 11964 0508 3F       		.uleb128 0x3f
 11965 0509 19       		.uleb128 0x19
 11966 050a 3C       		.uleb128 0x3c
 11967 050b 19       		.uleb128 0x19
 11968 050c 00       		.byte	0
 11969 050d 00       		.byte	0
 11970 050e 5F       		.uleb128 0x5f
 11971 050f 34       		.uleb128 0x34
 11972 0510 00       		.byte	0
 11973 0511 03       		.uleb128 0x3
 11974 0512 0E       		.uleb128 0xe
ARM GAS  C:\Users\jo\AppData\Local\Temp\ccpE7U9z.s 			page 214


 11975 0513 3A       		.uleb128 0x3a
 11976 0514 0B       		.uleb128 0xb
 11977 0515 3B       		.uleb128 0x3b
 11978 0516 0B       		.uleb128 0xb
 11979 0517 49       		.uleb128 0x49
 11980 0518 13       		.uleb128 0x13
 11981 0519 3F       		.uleb128 0x3f
 11982 051a 19       		.uleb128 0x19
 11983 051b 02       		.uleb128 0x2
 11984 051c 18       		.uleb128 0x18
 11985 051d 00       		.byte	0
 11986 051e 00       		.byte	0
 11987 051f 60       		.uleb128 0x60
 11988 0520 2E       		.uleb128 0x2e
 11989 0521 01       		.byte	0x1
 11990 0522 3F       		.uleb128 0x3f
 11991 0523 19       		.uleb128 0x19
 11992 0524 03       		.uleb128 0x3
 11993 0525 0E       		.uleb128 0xe
 11994 0526 3A       		.uleb128 0x3a
 11995 0527 0B       		.uleb128 0xb
 11996 0528 3B       		.uleb128 0x3b
 11997 0529 0B       		.uleb128 0xb
 11998 052a 27       		.uleb128 0x27
 11999 052b 19       		.uleb128 0x19
 12000 052c 49       		.uleb128 0x49
 12001 052d 13       		.uleb128 0x13
 12002 052e 3C       		.uleb128 0x3c
 12003 052f 19       		.uleb128 0x19
 12004 0530 01       		.uleb128 0x1
 12005 0531 13       		.uleb128 0x13
 12006 0532 00       		.byte	0
 12007 0533 00       		.byte	0
 12008 0534 61       		.uleb128 0x61
 12009 0535 2E       		.uleb128 0x2e
 12010 0536 01       		.byte	0x1
 12011 0537 3F       		.uleb128 0x3f
 12012 0538 19       		.uleb128 0x19
 12013 0539 03       		.uleb128 0x3
 12014 053a 0E       		.uleb128 0xe
 12015 053b 3A       		.uleb128 0x3a
 12016 053c 0B       		.uleb128 0xb
 12017 053d 3B       		.uleb128 0x3b
 12018 053e 0B       		.uleb128 0xb
 12019 053f 27       		.uleb128 0x27
 12020 0540 19       		.uleb128 0x19
 12021 0541 3C       		.uleb128 0x3c
 12022 0542 19       		.uleb128 0x19
 12023 0543 01       		.uleb128 0x1
 12024 0544 13       		.uleb128 0x13
 12025 0545 00       		.byte	0
 12026 0546 00       		.byte	0
 12027 0547 62       		.uleb128 0x62
 12028 0548 2E       		.uleb128 0x2e
 12029 0549 00       		.byte	0
 12030 054a 3F       		.uleb128 0x3f
 12031 054b 19       		.uleb128 0x19
ARM GAS  C:\Users\jo\AppData\Local\Temp\ccpE7U9z.s 			page 215


 12032 054c 03       		.uleb128 0x3
 12033 054d 0E       		.uleb128 0xe
 12034 054e 3A       		.uleb128 0x3a
 12035 054f 0B       		.uleb128 0xb
 12036 0550 3B       		.uleb128 0x3b
 12037 0551 05       		.uleb128 0x5
 12038 0552 27       		.uleb128 0x27
 12039 0553 19       		.uleb128 0x19
 12040 0554 3C       		.uleb128 0x3c
 12041 0555 19       		.uleb128 0x19
 12042 0556 00       		.byte	0
 12043 0557 00       		.byte	0
 12044 0558 63       		.uleb128 0x63
 12045 0559 2E       		.uleb128 0x2e
 12046 055a 01       		.byte	0x1
 12047 055b 3F       		.uleb128 0x3f
 12048 055c 19       		.uleb128 0x19
 12049 055d 03       		.uleb128 0x3
 12050 055e 0E       		.uleb128 0xe
 12051 055f 3A       		.uleb128 0x3a
 12052 0560 0B       		.uleb128 0xb
 12053 0561 3B       		.uleb128 0x3b
 12054 0562 05       		.uleb128 0x5
 12055 0563 27       		.uleb128 0x27
 12056 0564 19       		.uleb128 0x19
 12057 0565 49       		.uleb128 0x49
 12058 0566 13       		.uleb128 0x13
 12059 0567 3C       		.uleb128 0x3c
 12060 0568 19       		.uleb128 0x19
 12061 0569 01       		.uleb128 0x1
 12062 056a 13       		.uleb128 0x13
 12063 056b 00       		.byte	0
 12064 056c 00       		.byte	0
 12065 056d 64       		.uleb128 0x64
 12066 056e 2E       		.uleb128 0x2e
 12067 056f 01       		.byte	0x1
 12068 0570 3F       		.uleb128 0x3f
 12069 0571 19       		.uleb128 0x19
 12070 0572 03       		.uleb128 0x3
 12071 0573 0E       		.uleb128 0xe
 12072 0574 3A       		.uleb128 0x3a
 12073 0575 0B       		.uleb128 0xb
 12074 0576 3B       		.uleb128 0x3b
 12075 0577 05       		.uleb128 0x5
 12076 0578 27       		.uleb128 0x27
 12077 0579 19       		.uleb128 0x19
 12078 057a 3C       		.uleb128 0x3c
 12079 057b 19       		.uleb128 0x19
 12080 057c 01       		.uleb128 0x1
 12081 057d 13       		.uleb128 0x13
 12082 057e 00       		.byte	0
 12083 057f 00       		.byte	0
 12084 0580 65       		.uleb128 0x65
 12085 0581 2E       		.uleb128 0x2e
 12086 0582 01       		.byte	0x1
 12087 0583 3F       		.uleb128 0x3f
 12088 0584 19       		.uleb128 0x19
ARM GAS  C:\Users\jo\AppData\Local\Temp\ccpE7U9z.s 			page 216


 12089 0585 03       		.uleb128 0x3
 12090 0586 0E       		.uleb128 0xe
 12091 0587 27       		.uleb128 0x27
 12092 0588 19       		.uleb128 0x19
 12093 0589 49       		.uleb128 0x49
 12094 058a 13       		.uleb128 0x13
 12095 058b 34       		.uleb128 0x34
 12096 058c 19       		.uleb128 0x19
 12097 058d 3C       		.uleb128 0x3c
 12098 058e 19       		.uleb128 0x19
 12099 058f 01       		.uleb128 0x1
 12100 0590 13       		.uleb128 0x13
 12101 0591 00       		.byte	0
 12102 0592 00       		.byte	0
 12103 0593 66       		.uleb128 0x66
 12104 0594 2E       		.uleb128 0x2e
 12105 0595 01       		.byte	0x1
 12106 0596 3F       		.uleb128 0x3f
 12107 0597 19       		.uleb128 0x19
 12108 0598 03       		.uleb128 0x3
 12109 0599 0E       		.uleb128 0xe
 12110 059a 3A       		.uleb128 0x3a
 12111 059b 0B       		.uleb128 0xb
 12112 059c 3B       		.uleb128 0x3b
 12113 059d 05       		.uleb128 0x5
 12114 059e 27       		.uleb128 0x27
 12115 059f 19       		.uleb128 0x19
 12116 05a0 49       		.uleb128 0x49
 12117 05a1 13       		.uleb128 0x13
 12118 05a2 3C       		.uleb128 0x3c
 12119 05a3 19       		.uleb128 0x19
 12120 05a4 00       		.byte	0
 12121 05a5 00       		.byte	0
 12122 05a6 00       		.byte	0
 12123              		.section	.debug_loc,"",%progbits
 12124              	.Ldebug_loc0:
 12125              	.LLST0:
 12126 0000 00000000 		.4byte	.LVL0
 12127 0004 04000000 		.4byte	.LVL1
 12128 0008 0100     		.2byte	0x1
 12129 000a 50       		.byte	0x50
 12130 000b 04000000 		.4byte	.LVL1
 12131 000f 06000000 		.4byte	.LFE264
 12132 0013 0400     		.2byte	0x4
 12133 0015 F3       		.byte	0xf3
 12134 0016 01       		.uleb128 0x1
 12135 0017 50       		.byte	0x50
 12136 0018 9F       		.byte	0x9f
 12137 0019 00000000 		.4byte	0
 12138 001d 00000000 		.4byte	0
 12139              	.LLST1:
 12140 0021 00000000 		.4byte	.LVL2
 12141 0025 10000000 		.4byte	.LVL3
 12142 0029 0200     		.2byte	0x2
 12143 002b 30       		.byte	0x30
 12144 002c 9F       		.byte	0x9f
 12145 002d 10000000 		.4byte	.LVL3
ARM GAS  C:\Users\jo\AppData\Local\Temp\ccpE7U9z.s 			page 217


 12146 0031 34000000 		.4byte	.LVL7
 12147 0035 0700     		.2byte	0x7
 12148 0037 0A       		.byte	0xa
 12149 0038 0040     		.2byte	0x4000
 12150 003a 74       		.byte	0x74
 12151 003b 00       		.sleb128 0
 12152 003c 1C       		.byte	0x1c
 12153 003d 9F       		.byte	0x9f
 12154 003e 34000000 		.4byte	.LVL7
 12155 0042 36000000 		.4byte	.LVL8
 12156 0046 0700     		.2byte	0x7
 12157 0048 0A       		.byte	0xa
 12158 0049 0140     		.2byte	0x4001
 12159 004b 74       		.byte	0x74
 12160 004c 00       		.sleb128 0
 12161 004d 1C       		.byte	0x1c
 12162 004e 9F       		.byte	0x9f
 12163 004f 42000000 		.4byte	.LVL9
 12164 0053 48000000 		.4byte	.LVL10
 12165 0057 0700     		.2byte	0x7
 12166 0059 0A       		.byte	0xa
 12167 005a 0040     		.2byte	0x4000
 12168 005c 74       		.byte	0x74
 12169 005d 00       		.sleb128 0
 12170 005e 1C       		.byte	0x1c
 12171 005f 9F       		.byte	0x9f
 12172 0060 00000000 		.4byte	0
 12173 0064 00000000 		.4byte	0
 12174              	.LLST2:
 12175 0068 00000000 		.4byte	.LVL11
 12176 006c 0E000000 		.4byte	.LVL12
 12177 0070 0100     		.2byte	0x1
 12178 0072 50       		.byte	0x50
 12179 0073 0E000000 		.4byte	.LVL12
 12180 0077 28000000 		.4byte	.LFE297
 12181 007b 0400     		.2byte	0x4
 12182 007d F3       		.byte	0xf3
 12183 007e 01       		.uleb128 0x1
 12184 007f 50       		.byte	0x50
 12185 0080 9F       		.byte	0x9f
 12186 0081 00000000 		.4byte	0
 12187 0085 00000000 		.4byte	0
 12188              	.LLST3:
 12189 0089 00000000 		.4byte	.LVL14
 12190 008d 10000000 		.4byte	.LVL15
 12191 0091 0100     		.2byte	0x1
 12192 0093 50       		.byte	0x50
 12193 0094 10000000 		.4byte	.LVL15
 12194 0098 62000000 		.4byte	.LVL24
 12195 009c 0100     		.2byte	0x1
 12196 009e 56       		.byte	0x56
 12197 009f 62000000 		.4byte	.LVL24
 12198 00a3 65000000 		.4byte	.LVL25-1
 12199 00a7 0100     		.2byte	0x1
 12200 00a9 50       		.byte	0x50
 12201 00aa 65000000 		.4byte	.LVL25-1
 12202 00ae 70000000 		.4byte	.LVL27
ARM GAS  C:\Users\jo\AppData\Local\Temp\ccpE7U9z.s 			page 218


 12203 00b2 0100     		.2byte	0x1
 12204 00b4 56       		.byte	0x56
 12205 00b5 70000000 		.4byte	.LVL27
 12206 00b9 7A000000 		.4byte	.LVL30
 12207 00bd 0100     		.2byte	0x1
 12208 00bf 50       		.byte	0x50
 12209 00c0 7A000000 		.4byte	.LVL30
 12210 00c4 A4000000 		.4byte	.LFE263
 12211 00c8 0100     		.2byte	0x1
 12212 00ca 56       		.byte	0x56
 12213 00cb 00000000 		.4byte	0
 12214 00cf 00000000 		.4byte	0
 12215              	.LLST4:
 12216 00d3 00000000 		.4byte	.LVL14
 12217 00d7 10000000 		.4byte	.LVL15
 12218 00db 0100     		.2byte	0x1
 12219 00dd 51       		.byte	0x51
 12220 00de 10000000 		.4byte	.LVL15
 12221 00e2 3A000000 		.4byte	.LVL19
 12222 00e6 0100     		.2byte	0x1
 12223 00e8 55       		.byte	0x55
 12224 00e9 3A000000 		.4byte	.LVL19
 12225 00ed 40000000 		.4byte	.LVL20
 12226 00f1 0400     		.2byte	0x4
 12227 00f3 F3       		.byte	0xf3
 12228 00f4 01       		.uleb128 0x1
 12229 00f5 51       		.byte	0x51
 12230 00f6 9F       		.byte	0x9f
 12231 00f7 40000000 		.4byte	.LVL20
 12232 00fb 62000000 		.4byte	.LVL24
 12233 00ff 0100     		.2byte	0x1
 12234 0101 55       		.byte	0x55
 12235 0102 62000000 		.4byte	.LVL24
 12236 0106 65000000 		.4byte	.LVL25-1
 12237 010a 0100     		.2byte	0x1
 12238 010c 51       		.byte	0x51
 12239 010d 65000000 		.4byte	.LVL25-1
 12240 0111 70000000 		.4byte	.LVL27
 12241 0115 0100     		.2byte	0x1
 12242 0117 55       		.byte	0x55
 12243 0118 70000000 		.4byte	.LVL27
 12244 011c 76000000 		.4byte	.LVL28
 12245 0120 0100     		.2byte	0x1
 12246 0122 51       		.byte	0x51
 12247 0123 76000000 		.4byte	.LVL28
 12248 0127 A4000000 		.4byte	.LFE263
 12249 012b 0400     		.2byte	0x4
 12250 012d F3       		.byte	0xf3
 12251 012e 01       		.uleb128 0x1
 12252 012f 51       		.byte	0x51
 12253 0130 9F       		.byte	0x9f
 12254 0131 00000000 		.4byte	0
 12255 0135 00000000 		.4byte	0
 12256              	.LLST5:
 12257 0139 00000000 		.4byte	.LVL14
 12258 013d 10000000 		.4byte	.LVL15
 12259 0141 0100     		.2byte	0x1
ARM GAS  C:\Users\jo\AppData\Local\Temp\ccpE7U9z.s 			page 219


 12260 0143 52       		.byte	0x52
 12261 0144 10000000 		.4byte	.LVL15
 12262 0148 3A000000 		.4byte	.LVL19
 12263 014c 0100     		.2byte	0x1
 12264 014e 52       		.byte	0x52
 12265 014f 40000000 		.4byte	.LVL20
 12266 0153 52000000 		.4byte	.LVL22
 12267 0157 0100     		.2byte	0x1
 12268 0159 52       		.byte	0x52
 12269 015a 52000000 		.4byte	.LVL22
 12270 015e 59000000 		.4byte	.LVL23-1
 12271 0162 0200     		.2byte	0x2
 12272 0164 76       		.byte	0x76
 12273 0165 1A       		.sleb128 26
 12274 0166 62000000 		.4byte	.LVL24
 12275 016a 65000000 		.4byte	.LVL25-1
 12276 016e 0100     		.2byte	0x1
 12277 0170 52       		.byte	0x52
 12278 0171 65000000 		.4byte	.LVL25-1
 12279 0175 66000000 		.4byte	.LVL25
 12280 0179 0400     		.2byte	0x4
 12281 017b F3       		.byte	0xf3
 12282 017c 01       		.uleb128 0x1
 12283 017d 52       		.byte	0x52
 12284 017e 9F       		.byte	0x9f
 12285 017f 66000000 		.4byte	.LVL25
 12286 0183 6E000000 		.4byte	.LVL26
 12287 0187 0100     		.2byte	0x1
 12288 0189 50       		.byte	0x50
 12289 018a 70000000 		.4byte	.LVL27
 12290 018e 78000000 		.4byte	.LVL29
 12291 0192 0100     		.2byte	0x1
 12292 0194 52       		.byte	0x52
 12293 0195 78000000 		.4byte	.LVL29
 12294 0199 A4000000 		.4byte	.LFE263
 12295 019d 0400     		.2byte	0x4
 12296 019f F3       		.byte	0xf3
 12297 01a0 01       		.uleb128 0x1
 12298 01a1 52       		.byte	0x52
 12299 01a2 9F       		.byte	0x9f
 12300 01a3 00000000 		.4byte	0
 12301 01a7 00000000 		.4byte	0
 12302              	.LLST6:
 12303 01ab 10000000 		.4byte	.LVL15
 12304 01af 16000000 		.4byte	.LVL16
 12305 01b3 0200     		.2byte	0x2
 12306 01b5 30       		.byte	0x30
 12307 01b6 9F       		.byte	0x9f
 12308 01b7 00000000 		.4byte	0
 12309 01bb 00000000 		.4byte	0
 12310              	.LLST7:
 12311 01bf 1C000000 		.4byte	.LVL17
 12312 01c3 3A000000 		.4byte	.LVL19
 12313 01c7 0100     		.2byte	0x1
 12314 01c9 53       		.byte	0x53
 12315 01ca 40000000 		.4byte	.LVL20
 12316 01ce 48000000 		.4byte	.LVL21
ARM GAS  C:\Users\jo\AppData\Local\Temp\ccpE7U9z.s 			page 220


 12317 01d2 0100     		.2byte	0x1
 12318 01d4 53       		.byte	0x53
 12319 01d5 00000000 		.4byte	0
 12320 01d9 00000000 		.4byte	0
 12321              	.LLST8:
 12322 01dd 00000000 		.4byte	.LVL33
 12323 01e1 0E000000 		.4byte	.LVL34
 12324 01e5 0100     		.2byte	0x1
 12325 01e7 50       		.byte	0x50
 12326 01e8 0E000000 		.4byte	.LVL34
 12327 01ec 9C000000 		.4byte	.LVL41
 12328 01f0 0100     		.2byte	0x1
 12329 01f2 54       		.byte	0x54
 12330 01f3 9C000000 		.4byte	.LVL41
 12331 01f7 A6000000 		.4byte	.LVL43
 12332 01fb 0100     		.2byte	0x1
 12333 01fd 50       		.byte	0x50
 12334 01fe A6000000 		.4byte	.LVL43
 12335 0202 D8000000 		.4byte	.LFE265
 12336 0206 0100     		.2byte	0x1
 12337 0208 54       		.byte	0x54
 12338 0209 00000000 		.4byte	0
 12339 020d 00000000 		.4byte	0
 12340              	.LLST9:
 12341 0211 00000000 		.4byte	.LVL33
 12342 0215 11000000 		.4byte	.LVL35-1
 12343 0219 0100     		.2byte	0x1
 12344 021b 51       		.byte	0x51
 12345 021c 11000000 		.4byte	.LVL35-1
 12346 0220 9C000000 		.4byte	.LVL41
 12347 0224 0400     		.2byte	0x4
 12348 0226 F3       		.byte	0xf3
 12349 0227 01       		.uleb128 0x1
 12350 0228 51       		.byte	0x51
 12351 0229 9F       		.byte	0x9f
 12352 022a 9C000000 		.4byte	.LVL41
 12353 022e A2000000 		.4byte	.LVL42
 12354 0232 0100     		.2byte	0x1
 12355 0234 51       		.byte	0x51
 12356 0235 A2000000 		.4byte	.LVL42
 12357 0239 D8000000 		.4byte	.LFE265
 12358 023d 0400     		.2byte	0x4
 12359 023f F3       		.byte	0xf3
 12360 0240 01       		.uleb128 0x1
 12361 0241 51       		.byte	0x51
 12362 0242 9F       		.byte	0x9f
 12363 0243 00000000 		.4byte	0
 12364 0247 00000000 		.4byte	0
 12365              	.LLST10:
 12366 024b 12000000 		.4byte	.LVL35
 12367 024f 6A000000 		.4byte	.LVL36
 12368 0253 0100     		.2byte	0x1
 12369 0255 50       		.byte	0x50
 12370 0256 6A000000 		.4byte	.LVL36
 12371 025a 82000000 		.4byte	.LVL39
 12372 025e 0100     		.2byte	0x1
 12373 0260 55       		.byte	0x55
ARM GAS  C:\Users\jo\AppData\Local\Temp\ccpE7U9z.s 			page 221


 12374 0261 86000000 		.4byte	.LVL40
 12375 0265 9C000000 		.4byte	.LVL41
 12376 0269 0100     		.2byte	0x1
 12377 026b 50       		.byte	0x50
 12378 026c 00000000 		.4byte	0
 12379 0270 00000000 		.4byte	0
 12380              	.LLST11:
 12381 0274 00000000 		.4byte	.LVL46
 12382 0278 12000000 		.4byte	.LVL48
 12383 027c 0100     		.2byte	0x1
 12384 027e 50       		.byte	0x50
 12385 027f 12000000 		.4byte	.LVL48
 12386 0283 40000000 		.4byte	.LVL53
 12387 0287 0100     		.2byte	0x1
 12388 0289 53       		.byte	0x53
 12389 028a 40000000 		.4byte	.LVL53
 12390 028e 48000000 		.4byte	.LVL54
 12391 0292 0100     		.2byte	0x1
 12392 0294 54       		.byte	0x54
 12393 0295 48000000 		.4byte	.LVL54
 12394 0299 4A000000 		.4byte	.LVL55
 12395 029d 0100     		.2byte	0x1
 12396 029f 53       		.byte	0x53
 12397 02a0 4A000000 		.4byte	.LVL55
 12398 02a4 74000000 		.4byte	.LFE266
 12399 02a8 0100     		.2byte	0x1
 12400 02aa 54       		.byte	0x54
 12401 02ab 00000000 		.4byte	0
 12402 02af 00000000 		.4byte	0
 12403              	.LLST12:
 12404 02b3 0A000000 		.4byte	.LVL47
 12405 02b7 38000000 		.4byte	.LVL51
 12406 02bb 0600     		.2byte	0x6
 12407 02bd 74       		.byte	0x74
 12408 02be 00       		.sleb128 0
 12409 02bf 75       		.byte	0x75
 12410 02c0 00       		.sleb128 0
 12411 02c1 22       		.byte	0x22
 12412 02c2 9F       		.byte	0x9f
 12413 02c3 38000000 		.4byte	.LVL51
 12414 02c7 3E000000 		.4byte	.LVL52
 12415 02cb 0700     		.2byte	0x7
 12416 02cd 74       		.byte	0x74
 12417 02ce 00       		.sleb128 0
 12418 02cf 73       		.byte	0x73
 12419 02d0 28       		.sleb128 40
 12420 02d1 06       		.byte	0x6
 12421 02d2 22       		.byte	0x22
 12422 02d3 9F       		.byte	0x9f
 12423 02d4 3E000000 		.4byte	.LVL52
 12424 02d8 40000000 		.4byte	.LVL53
 12425 02dc 0D00     		.2byte	0xd
 12426 02de 73       		.byte	0x73
 12427 02df 2C       		.sleb128 44
 12428 02e0 94       		.byte	0x94
 12429 02e1 02       		.byte	0x2
 12430 02e2 0A       		.byte	0xa
ARM GAS  C:\Users\jo\AppData\Local\Temp\ccpE7U9z.s 			page 222


 12431 02e3 FFFF     		.2byte	0xffff
 12432 02e5 1A       		.byte	0x1a
 12433 02e6 73       		.byte	0x73
 12434 02e7 28       		.sleb128 40
 12435 02e8 06       		.byte	0x6
 12436 02e9 22       		.byte	0x22
 12437 02ea 9F       		.byte	0x9f
 12438 02eb 48000000 		.4byte	.LVL54
 12439 02ef 4A000000 		.4byte	.LVL55
 12440 02f3 0D00     		.2byte	0xd
 12441 02f5 73       		.byte	0x73
 12442 02f6 2C       		.sleb128 44
 12443 02f7 94       		.byte	0x94
 12444 02f8 02       		.byte	0x2
 12445 02f9 0A       		.byte	0xa
 12446 02fa FFFF     		.2byte	0xffff
 12447 02fc 1A       		.byte	0x1a
 12448 02fd 73       		.byte	0x73
 12449 02fe 28       		.sleb128 40
 12450 02ff 06       		.byte	0x6
 12451 0300 22       		.byte	0x22
 12452 0301 9F       		.byte	0x9f
 12453 0302 4A000000 		.4byte	.LVL55
 12454 0306 4C000000 		.4byte	.LVL56
 12455 030a 0D00     		.2byte	0xd
 12456 030c 74       		.byte	0x74
 12457 030d 2C       		.sleb128 44
 12458 030e 94       		.byte	0x94
 12459 030f 02       		.byte	0x2
 12460 0310 0A       		.byte	0xa
 12461 0311 FFFF     		.2byte	0xffff
 12462 0313 1A       		.byte	0x1a
 12463 0314 74       		.byte	0x74
 12464 0315 28       		.sleb128 40
 12465 0316 06       		.byte	0x6
 12466 0317 22       		.byte	0x22
 12467 0318 9F       		.byte	0x9f
 12468 0319 00000000 		.4byte	0
 12469 031d 00000000 		.4byte	0
 12470              	.LLST13:
 12471 0321 00000000 		.4byte	.LVL59
 12472 0325 0E000000 		.4byte	.LVL60
 12473 0329 0100     		.2byte	0x1
 12474 032b 50       		.byte	0x50
 12475 032c 0E000000 		.4byte	.LVL60
 12476 0330 4C000000 		.4byte	.LVL64
 12477 0334 0100     		.2byte	0x1
 12478 0336 55       		.byte	0x55
 12479 0337 4C000000 		.4byte	.LVL64
 12480 033b 4F000000 		.4byte	.LVL65-1
 12481 033f 0100     		.2byte	0x1
 12482 0341 50       		.byte	0x50
 12483 0342 4F000000 		.4byte	.LVL65-1
 12484 0346 50000000 		.4byte	.LVL65
 12485 034a 0400     		.2byte	0x4
 12486 034c F3       		.byte	0xf3
 12487 034d 01       		.uleb128 0x1
ARM GAS  C:\Users\jo\AppData\Local\Temp\ccpE7U9z.s 			page 223


 12488 034e 50       		.byte	0x50
 12489 034f 9F       		.byte	0x9f
 12490 0350 50000000 		.4byte	.LVL65
 12491 0354 6C000000 		.4byte	.LVL68
 12492 0358 0100     		.2byte	0x1
 12493 035a 55       		.byte	0x55
 12494 035b 6C000000 		.4byte	.LVL68
 12495 035f 76000000 		.4byte	.LVL70
 12496 0363 0100     		.2byte	0x1
 12497 0365 50       		.byte	0x50
 12498 0366 76000000 		.4byte	.LVL70
 12499 036a 9C000000 		.4byte	.LFE267
 12500 036e 0100     		.2byte	0x1
 12501 0370 55       		.byte	0x55
 12502 0371 00000000 		.4byte	0
 12503 0375 00000000 		.4byte	0
 12504              	.LLST14:
 12505 0379 00000000 		.4byte	.LVL59
 12506 037d 0E000000 		.4byte	.LVL60
 12507 0381 0100     		.2byte	0x1
 12508 0383 51       		.byte	0x51
 12509 0384 0E000000 		.4byte	.LVL60
 12510 0388 6C000000 		.4byte	.LVL68
 12511 038c 0400     		.2byte	0x4
 12512 038e F3       		.byte	0xf3
 12513 038f 01       		.uleb128 0x1
 12514 0390 51       		.byte	0x51
 12515 0391 9F       		.byte	0x9f
 12516 0392 6C000000 		.4byte	.LVL68
 12517 0396 72000000 		.4byte	.LVL69
 12518 039a 0100     		.2byte	0x1
 12519 039c 51       		.byte	0x51
 12520 039d 72000000 		.4byte	.LVL69
 12521 03a1 9C000000 		.4byte	.LFE267
 12522 03a5 0400     		.2byte	0x4
 12523 03a7 F3       		.byte	0xf3
 12524 03a8 01       		.uleb128 0x1
 12525 03a9 51       		.byte	0x51
 12526 03aa 9F       		.byte	0x9f
 12527 03ab 00000000 		.4byte	0
 12528 03af 00000000 		.4byte	0
 12529              	.LLST15:
 12530 03b3 30000000 		.4byte	.LVL61
 12531 03b7 40000000 		.4byte	.LVL63
 12532 03bb 0100     		.2byte	0x1
 12533 03bd 50       		.byte	0x50
 12534 03be 00000000 		.4byte	0
 12535 03c2 00000000 		.4byte	0
 12536              	.LLST16:
 12537 03c6 3C000000 		.4byte	.LVL62
 12538 03ca 4C000000 		.4byte	.LVL64
 12539 03ce 0100     		.2byte	0x1
 12540 03d0 55       		.byte	0x55
 12541 03d1 4C000000 		.4byte	.LVL64
 12542 03d5 4F000000 		.4byte	.LVL65-1
 12543 03d9 0100     		.2byte	0x1
 12544 03db 50       		.byte	0x50
ARM GAS  C:\Users\jo\AppData\Local\Temp\ccpE7U9z.s 			page 224


 12545 03dc 4F000000 		.4byte	.LVL65-1
 12546 03e0 50000000 		.4byte	.LVL65
 12547 03e4 0400     		.2byte	0x4
 12548 03e6 F3       		.byte	0xf3
 12549 03e7 01       		.uleb128 0x1
 12550 03e8 50       		.byte	0x50
 12551 03e9 9F       		.byte	0x9f
 12552 03ea 00000000 		.4byte	0
 12553 03ee 00000000 		.4byte	0
 12554              	.LLST17:
 12555 03f2 62000000 		.4byte	.LVL66
 12556 03f6 6C000000 		.4byte	.LVL68
 12557 03fa 0600     		.2byte	0x6
 12558 03fc 03       		.byte	0x3
 12559 03fd E4000000 		.4byte	.LC6
 12560 0401 9F       		.byte	0x9f
 12561 0402 00000000 		.4byte	0
 12562 0406 00000000 		.4byte	0
 12563              	.LLST18:
 12564 040a 00000000 		.4byte	.LVL73
 12565 040e 08000000 		.4byte	.LVL74
 12566 0412 0100     		.2byte	0x1
 12567 0414 50       		.byte	0x50
 12568 0415 08000000 		.4byte	.LVL74
 12569 0419 16000000 		.4byte	.LVL76
 12570 041d 0100     		.2byte	0x1
 12571 041f 54       		.byte	0x54
 12572 0420 16000000 		.4byte	.LVL76
 12573 0424 19000000 		.4byte	.LVL77-1
 12574 0428 0100     		.2byte	0x1
 12575 042a 51       		.byte	0x51
 12576 042b 19000000 		.4byte	.LVL77-1
 12577 042f 1A000000 		.4byte	.LVL77
 12578 0433 0400     		.2byte	0x4
 12579 0435 F3       		.byte	0xf3
 12580 0436 01       		.uleb128 0x1
 12581 0437 50       		.byte	0x50
 12582 0438 9F       		.byte	0x9f
 12583 0439 1A000000 		.4byte	.LVL77
 12584 043d 1C000000 		.4byte	.LFE274
 12585 0441 0100     		.2byte	0x1
 12586 0443 50       		.byte	0x50
 12587 0444 00000000 		.4byte	0
 12588 0448 00000000 		.4byte	0
 12589              	.LLST19:
 12590 044c 00000000 		.4byte	.LVL78
 12591 0450 09000000 		.4byte	.LVL80-1
 12592 0454 0100     		.2byte	0x1
 12593 0456 50       		.byte	0x50
 12594 0457 0A000000 		.4byte	.LVL80
 12595 045b 12000000 		.4byte	.LVL81
 12596 045f 0100     		.2byte	0x1
 12597 0461 54       		.byte	0x54
 12598 0462 12000000 		.4byte	.LVL81
 12599 0466 14000000 		.4byte	.LFE273
 12600 046a 0100     		.2byte	0x1
 12601 046c 50       		.byte	0x50
ARM GAS  C:\Users\jo\AppData\Local\Temp\ccpE7U9z.s 			page 225


 12602 046d 00000000 		.4byte	0
 12603 0471 00000000 		.4byte	0
 12604              	.LLST20:
 12605 0475 06000000 		.4byte	.LVL79
 12606 0479 12000000 		.4byte	.LVL81
 12607 047d 0100     		.2byte	0x1
 12608 047f 54       		.byte	0x54
 12609 0480 00000000 		.4byte	0
 12610 0484 00000000 		.4byte	0
 12611              	.LLST21:
 12612 0488 00000000 		.4byte	.LVL83
 12613 048c 06000000 		.4byte	.LVL84
 12614 0490 0100     		.2byte	0x1
 12615 0492 50       		.byte	0x50
 12616 0493 06000000 		.4byte	.LVL84
 12617 0497 28000000 		.4byte	.LFE276
 12618 049b 0100     		.2byte	0x1
 12619 049d 55       		.byte	0x55
 12620 049e 00000000 		.4byte	0
 12621 04a2 00000000 		.4byte	0
 12622              	.LLST22:
 12623 04a6 0A000000 		.4byte	.LVL85
 12624 04aa 10000000 		.4byte	.LVL86
 12625 04ae 0100     		.2byte	0x1
 12626 04b0 50       		.byte	0x50
 12627 04b1 10000000 		.4byte	.LVL86
 12628 04b5 28000000 		.4byte	.LFE276
 12629 04b9 0100     		.2byte	0x1
 12630 04bb 54       		.byte	0x54
 12631 04bc 00000000 		.4byte	0
 12632 04c0 00000000 		.4byte	0
 12633              	.LLST23:
 12634 04c4 00000000 		.4byte	.LVL89
 12635 04c8 20000000 		.4byte	.LVL91
 12636 04cc 0100     		.2byte	0x1
 12637 04ce 50       		.byte	0x50
 12638 04cf 20000000 		.4byte	.LVL91
 12639 04d3 36000000 		.4byte	.LVL94
 12640 04d7 0100     		.2byte	0x1
 12641 04d9 54       		.byte	0x54
 12642 04da 36000000 		.4byte	.LVL94
 12643 04de 48000000 		.4byte	.LFE283
 12644 04e2 0400     		.2byte	0x4
 12645 04e4 F3       		.byte	0xf3
 12646 04e5 01       		.uleb128 0x1
 12647 04e6 50       		.byte	0x50
 12648 04e7 9F       		.byte	0x9f
 12649 04e8 00000000 		.4byte	0
 12650 04ec 00000000 		.4byte	0
 12651              	.LLST24:
 12652 04f0 00000000 		.4byte	.LVL89
 12653 04f4 1C000000 		.4byte	.LVL90
 12654 04f8 0100     		.2byte	0x1
 12655 04fa 51       		.byte	0x51
 12656 04fb 1C000000 		.4byte	.LVL90
 12657 04ff 36000000 		.4byte	.LVL94
 12658 0503 0100     		.2byte	0x1
ARM GAS  C:\Users\jo\AppData\Local\Temp\ccpE7U9z.s 			page 226


 12659 0505 55       		.byte	0x55
 12660 0506 36000000 		.4byte	.LVL94
 12661 050a 48000000 		.4byte	.LFE283
 12662 050e 0600     		.2byte	0x6
 12663 0510 F3       		.byte	0xf3
 12664 0511 01       		.uleb128 0x1
 12665 0512 50       		.byte	0x50
 12666 0513 23       		.byte	0x23
 12667 0514 8001     		.uleb128 0x80
 12668 0516 00000000 		.4byte	0
 12669 051a 00000000 		.4byte	0
 12670              	.LLST25:
 12671 051e 00000000 		.4byte	.LVL95
 12672 0522 1E000000 		.4byte	.LVL97
 12673 0526 0100     		.2byte	0x1
 12674 0528 50       		.byte	0x50
 12675 0529 1E000000 		.4byte	.LVL97
 12676 052d 32000000 		.4byte	.LVL100
 12677 0531 0100     		.2byte	0x1
 12678 0533 54       		.byte	0x54
 12679 0534 32000000 		.4byte	.LVL100
 12680 0538 44000000 		.4byte	.LFE284
 12681 053c 0400     		.2byte	0x4
 12682 053e F3       		.byte	0xf3
 12683 053f 01       		.uleb128 0x1
 12684 0540 50       		.byte	0x50
 12685 0541 9F       		.byte	0x9f
 12686 0542 00000000 		.4byte	0
 12687 0546 00000000 		.4byte	0
 12688              	.LLST26:
 12689 054a 00000000 		.4byte	.LVL95
 12690 054e 1A000000 		.4byte	.LVL96
 12691 0552 0100     		.2byte	0x1
 12692 0554 51       		.byte	0x51
 12693 0555 1A000000 		.4byte	.LVL96
 12694 0559 32000000 		.4byte	.LVL100
 12695 055d 0100     		.2byte	0x1
 12696 055f 55       		.byte	0x55
 12697 0560 32000000 		.4byte	.LVL100
 12698 0564 44000000 		.4byte	.LFE284
 12699 0568 0500     		.2byte	0x5
 12700 056a F3       		.byte	0xf3
 12701 056b 01       		.uleb128 0x1
 12702 056c 50       		.byte	0x50
 12703 056d 23       		.byte	0x23
 12704 056e 7C       		.uleb128 0x7c
 12705 056f 00000000 		.4byte	0
 12706 0573 00000000 		.4byte	0
 12707              	.LLST27:
 12708 0577 00000000 		.4byte	.LVL101
 12709 057b 20000000 		.4byte	.LVL103
 12710 057f 0100     		.2byte	0x1
 12711 0581 50       		.byte	0x50
 12712 0582 20000000 		.4byte	.LVL103
 12713 0586 36000000 		.4byte	.LVL106
 12714 058a 0100     		.2byte	0x1
 12715 058c 54       		.byte	0x54
ARM GAS  C:\Users\jo\AppData\Local\Temp\ccpE7U9z.s 			page 227


 12716 058d 36000000 		.4byte	.LVL106
 12717 0591 48000000 		.4byte	.LFE285
 12718 0595 0400     		.2byte	0x4
 12719 0597 F3       		.byte	0xf3
 12720 0598 01       		.uleb128 0x1
 12721 0599 50       		.byte	0x50
 12722 059a 9F       		.byte	0x9f
 12723 059b 00000000 		.4byte	0
 12724 059f 00000000 		.4byte	0
 12725              	.LLST28:
 12726 05a3 00000000 		.4byte	.LVL101
 12727 05a7 1C000000 		.4byte	.LVL102
 12728 05ab 0100     		.2byte	0x1
 12729 05ad 51       		.byte	0x51
 12730 05ae 1C000000 		.4byte	.LVL102
 12731 05b2 36000000 		.4byte	.LVL106
 12732 05b6 0100     		.2byte	0x1
 12733 05b8 55       		.byte	0x55
 12734 05b9 36000000 		.4byte	.LVL106
 12735 05bd 48000000 		.4byte	.LFE285
 12736 05c1 0600     		.2byte	0x6
 12737 05c3 F3       		.byte	0xf3
 12738 05c4 01       		.uleb128 0x1
 12739 05c5 50       		.byte	0x50
 12740 05c6 23       		.byte	0x23
 12741 05c7 8C01     		.uleb128 0x8c
 12742 05c9 00000000 		.4byte	0
 12743 05cd 00000000 		.4byte	0
 12744              	.LLST29:
 12745 05d1 00000000 		.4byte	.LVL108
 12746 05d5 26000000 		.4byte	.LVL111
 12747 05d9 0100     		.2byte	0x1
 12748 05db 50       		.byte	0x50
 12749 05dc 26000000 		.4byte	.LVL111
 12750 05e0 40000000 		.4byte	.LVL114
 12751 05e4 0100     		.2byte	0x1
 12752 05e6 54       		.byte	0x54
 12753 05e7 40000000 		.4byte	.LVL114
 12754 05eb 50000000 		.4byte	.LFE287
 12755 05ef 0400     		.2byte	0x4
 12756 05f1 F3       		.byte	0xf3
 12757 05f2 01       		.uleb128 0x1
 12758 05f3 50       		.byte	0x50
 12759 05f4 9F       		.byte	0x9f
 12760 05f5 00000000 		.4byte	0
 12761 05f9 00000000 		.4byte	0
 12762              	.LLST30:
 12763 05fd 00000000 		.4byte	.LVL108
 12764 0601 22000000 		.4byte	.LVL109
 12765 0605 0100     		.2byte	0x1
 12766 0607 51       		.byte	0x51
 12767 0608 22000000 		.4byte	.LVL109
 12768 060c 40000000 		.4byte	.LVL114
 12769 0610 0100     		.2byte	0x1
 12770 0612 56       		.byte	0x56
 12771 0613 40000000 		.4byte	.LVL114
 12772 0617 50000000 		.4byte	.LFE287
ARM GAS  C:\Users\jo\AppData\Local\Temp\ccpE7U9z.s 			page 228


 12773 061b 0600     		.2byte	0x6
 12774 061d F3       		.byte	0xf3
 12775 061e 01       		.uleb128 0x1
 12776 061f 50       		.byte	0x50
 12777 0620 23       		.byte	0x23
 12778 0621 8801     		.uleb128 0x88
 12779 0623 00000000 		.4byte	0
 12780 0627 00000000 		.4byte	0
 12781              	.LLST31:
 12782 062b 00000000 		.4byte	.LVL108
 12783 062f 24000000 		.4byte	.LVL110
 12784 0633 0100     		.2byte	0x1
 12785 0635 52       		.byte	0x52
 12786 0636 24000000 		.4byte	.LVL110
 12787 063a 50000000 		.4byte	.LFE287
 12788 063e 0400     		.2byte	0x4
 12789 0640 F3       		.byte	0xf3
 12790 0641 01       		.uleb128 0x1
 12791 0642 52       		.byte	0x52
 12792 0643 9F       		.byte	0x9f
 12793 0644 00000000 		.4byte	0
 12794 0648 00000000 		.4byte	0
 12795              	.LLST32:
 12796 064c 00000000 		.4byte	.LVL115
 12797 0650 10000000 		.4byte	.LVL117
 12798 0654 0100     		.2byte	0x1
 12799 0656 50       		.byte	0x50
 12800 0657 10000000 		.4byte	.LVL117
 12801 065b 60000000 		.4byte	.LVL131
 12802 065f 0100     		.2byte	0x1
 12803 0661 55       		.byte	0x55
 12804 0662 60000000 		.4byte	.LVL131
 12805 0666 62000000 		.4byte	.LFE288
 12806 066a 0100     		.2byte	0x1
 12807 066c 50       		.byte	0x50
 12808 066d 00000000 		.4byte	0
 12809 0671 00000000 		.4byte	0
 12810              	.LLST33:
 12811 0675 0C000000 		.4byte	.LVL116
 12812 0679 10000000 		.4byte	.LVL117
 12813 067d 0100     		.2byte	0x1
 12814 067f 50       		.byte	0x50
 12815 0680 10000000 		.4byte	.LVL117
 12816 0684 60000000 		.4byte	.LVL131
 12817 0688 0100     		.2byte	0x1
 12818 068a 55       		.byte	0x55
 12819 068b 00000000 		.4byte	0
 12820 068f 00000000 		.4byte	0
 12821              	.LLST34:
 12822 0693 1C000000 		.4byte	.LVL119
 12823 0697 23000000 		.4byte	.LVL121-1
 12824 069b 0100     		.2byte	0x1
 12825 069d 50       		.byte	0x50
 12826 069e 24000000 		.4byte	.LVL121
 12827 06a2 2A000000 		.4byte	.LVL122
 12828 06a6 0100     		.2byte	0x1
 12829 06a8 54       		.byte	0x54
ARM GAS  C:\Users\jo\AppData\Local\Temp\ccpE7U9z.s 			page 229


 12830 06a9 2A000000 		.4byte	.LVL122
 12831 06ad 2C000000 		.4byte	.LVL123
 12832 06b1 0100     		.2byte	0x1
 12833 06b3 50       		.byte	0x50
 12834 06b4 00000000 		.4byte	0
 12835 06b8 00000000 		.4byte	0
 12836              	.LLST35:
 12837 06bc 20000000 		.4byte	.LVL120
 12838 06c0 2A000000 		.4byte	.LVL122
 12839 06c4 0100     		.2byte	0x1
 12840 06c6 54       		.byte	0x54
 12841 06c7 00000000 		.4byte	0
 12842 06cb 00000000 		.4byte	0
 12843              	.LLST36:
 12844 06cf 2C000000 		.4byte	.LVL123
 12845 06d3 3D000000 		.4byte	.LVL125-1
 12846 06d7 0100     		.2byte	0x1
 12847 06d9 50       		.byte	0x50
 12848 06da 3E000000 		.4byte	.LVL125
 12849 06de 44000000 		.4byte	.LVL126
 12850 06e2 0100     		.2byte	0x1
 12851 06e4 54       		.byte	0x54
 12852 06e5 44000000 		.4byte	.LVL126
 12853 06e9 46000000 		.4byte	.LVL127
 12854 06ed 0100     		.2byte	0x1
 12855 06ef 50       		.byte	0x50
 12856 06f0 00000000 		.4byte	0
 12857 06f4 00000000 		.4byte	0
 12858              	.LLST37:
 12859 06f8 3A000000 		.4byte	.LVL124
 12860 06fc 44000000 		.4byte	.LVL126
 12861 0700 0100     		.2byte	0x1
 12862 0702 54       		.byte	0x54
 12863 0703 00000000 		.4byte	0
 12864 0707 00000000 		.4byte	0
 12865              	.LLST38:
 12866 070b 46000000 		.4byte	.LVL127
 12867 070f 4D000000 		.4byte	.LVL129-1
 12868 0713 0100     		.2byte	0x1
 12869 0715 50       		.byte	0x50
 12870 0716 4E000000 		.4byte	.LVL129
 12871 071a 54000000 		.4byte	.LVL130
 12872 071e 0100     		.2byte	0x1
 12873 0720 54       		.byte	0x54
 12874 0721 54000000 		.4byte	.LVL130
 12875 0725 60000000 		.4byte	.LVL131
 12876 0729 0100     		.2byte	0x1
 12877 072b 50       		.byte	0x50
 12878 072c 00000000 		.4byte	0
 12879 0730 00000000 		.4byte	0
 12880              	.LLST39:
 12881 0734 4A000000 		.4byte	.LVL128
 12882 0738 54000000 		.4byte	.LVL130
 12883 073c 0100     		.2byte	0x1
 12884 073e 54       		.byte	0x54
 12885 073f 00000000 		.4byte	0
 12886 0743 00000000 		.4byte	0
ARM GAS  C:\Users\jo\AppData\Local\Temp\ccpE7U9z.s 			page 230


 12887              	.LLST40:
 12888 0747 1E000000 		.4byte	.LVL134
 12889 074b F4000000 		.4byte	.LVL141
 12890 074f 0100     		.2byte	0x1
 12891 0751 57       		.byte	0x57
 12892 0752 F4000000 		.4byte	.LVL141
 12893 0756 2A010000 		.4byte	.LVL145
 12894 075a 0100     		.2byte	0x1
 12895 075c 59       		.byte	0x59
 12896 075d 2A010000 		.4byte	.LVL145
 12897 0761 38010000 		.4byte	.LVL147
 12898 0765 0100     		.2byte	0x1
 12899 0767 57       		.byte	0x57
 12900 0768 38010000 		.4byte	.LVL147
 12901 076c 84010000 		.4byte	.LVL153
 12902 0770 0100     		.2byte	0x1
 12903 0772 55       		.byte	0x55
 12904 0773 84010000 		.4byte	.LVL153
 12905 0777 92010000 		.4byte	.LVL156
 12906 077b 0100     		.2byte	0x1
 12907 077d 59       		.byte	0x59
 12908 077e 92010000 		.4byte	.LVL156
 12909 0782 98010000 		.4byte	.LVL157
 12910 0786 0100     		.2byte	0x1
 12911 0788 55       		.byte	0x55
 12912 0789 98010000 		.4byte	.LVL157
 12913 078d 04020000 		.4byte	.LVL167
 12914 0791 0100     		.2byte	0x1
 12915 0793 57       		.byte	0x57
 12916 0794 04020000 		.4byte	.LVL167
 12917 0798 34020000 		.4byte	.LVL173
 12918 079c 0100     		.2byte	0x1
 12919 079e 59       		.byte	0x59
 12920 079f 34020000 		.4byte	.LVL173
 12921 07a3 BE030000 		.4byte	.LVL194
 12922 07a7 0100     		.2byte	0x1
 12923 07a9 57       		.byte	0x57
 12924 07aa BE030000 		.4byte	.LVL194
 12925 07ae C2030000 		.4byte	.LVL195
 12926 07b2 0200     		.2byte	0x2
 12927 07b4 75       		.byte	0x75
 12928 07b5 0C       		.sleb128 12
 12929 07b6 C2030000 		.4byte	.LVL195
 12930 07ba CA030000 		.4byte	.LVL196
 12931 07be 0100     		.2byte	0x1
 12932 07c0 55       		.byte	0x55
 12933 07c1 CA030000 		.4byte	.LVL196
 12934 07c5 32040000 		.4byte	.LVL202
 12935 07c9 0100     		.2byte	0x1
 12936 07cb 57       		.byte	0x57
 12937 07cc 32040000 		.4byte	.LVL202
 12938 07d0 5A040000 		.4byte	.LVL205
 12939 07d4 0100     		.2byte	0x1
 12940 07d6 55       		.byte	0x55
 12941 07d7 5A040000 		.4byte	.LVL205
 12942 07db 74040000 		.4byte	.LVL208
 12943 07df 0100     		.2byte	0x1
ARM GAS  C:\Users\jo\AppData\Local\Temp\ccpE7U9z.s 			page 231


 12944 07e1 57       		.byte	0x57
 12945 07e2 74040000 		.4byte	.LVL208
 12946 07e6 B4040000 		.4byte	.LFE270
 12947 07ea 0100     		.2byte	0x1
 12948 07ec 55       		.byte	0x55
 12949 07ed 00000000 		.4byte	0
 12950 07f1 00000000 		.4byte	0
 12951              	.LLST41:
 12952 07f5 1A000000 		.4byte	.LVL133
 12953 07f9 26000000 		.4byte	.LVL135
 12954 07fd 0200     		.2byte	0x2
 12955 07ff 30       		.byte	0x30
 12956 0800 9F       		.byte	0x9f
 12957 0801 26000000 		.4byte	.LVL135
 12958 0805 EA000000 		.4byte	.LVL140
 12959 0809 0100     		.2byte	0x1
 12960 080b 56       		.byte	0x56
 12961 080c EA000000 		.4byte	.LVL140
 12962 0810 28010000 		.4byte	.LVL144
 12963 0814 0100     		.2byte	0x1
 12964 0816 57       		.byte	0x57
 12965 0817 28010000 		.4byte	.LVL144
 12966 081b 30010000 		.4byte	.LVL146
 12967 081f 0100     		.2byte	0x1
 12968 0821 56       		.byte	0x56
 12969 0822 30010000 		.4byte	.LVL146
 12970 0826 3E010000 		.4byte	.LVL148
 12971 082a 0200     		.2byte	0x2
 12972 082c 30       		.byte	0x30
 12973 082d 9F       		.byte	0x9f
 12974 082e 3E010000 		.4byte	.LVL148
 12975 0832 92010000 		.4byte	.LVL156
 12976 0836 0100     		.2byte	0x1
 12977 0838 56       		.byte	0x56
 12978 0839 98010000 		.4byte	.LVL157
 12979 083d 2A020000 		.4byte	.LVL171
 12980 0841 0100     		.2byte	0x1
 12981 0843 56       		.byte	0x56
 12982 0844 2A020000 		.4byte	.LVL171
 12983 0848 30020000 		.4byte	.LVL172
 12984 084c 0100     		.2byte	0x1
 12985 084e 57       		.byte	0x57
 12986 084f 30020000 		.4byte	.LVL172
 12987 0853 33020000 		.4byte	.LVL173-1
 12988 0857 0100     		.2byte	0x1
 12989 0859 50       		.byte	0x50
 12990 085a 33020000 		.4byte	.LVL173-1
 12991 085e BE030000 		.4byte	.LVL194
 12992 0862 0100     		.2byte	0x1
 12993 0864 56       		.byte	0x56
 12994 0865 BE030000 		.4byte	.LVL194
 12995 0869 C2030000 		.4byte	.LVL195
 12996 086d 0100     		.2byte	0x1
 12997 086f 55       		.byte	0x55
 12998 0870 C2030000 		.4byte	.LVL195
 12999 0874 B4040000 		.4byte	.LFE270
 13000 0878 0100     		.2byte	0x1
ARM GAS  C:\Users\jo\AppData\Local\Temp\ccpE7U9z.s 			page 232


 13001 087a 56       		.byte	0x56
 13002 087b 00000000 		.4byte	0
 13003 087f 00000000 		.4byte	0
 13004              	.LLST42:
 13005 0883 4C000000 		.4byte	.LVL136
 13006 0887 A0000000 		.4byte	.LVL138
 13007 088b 0200     		.2byte	0x2
 13008 088d 30       		.byte	0x30
 13009 088e 9F       		.byte	0x9f
 13010 088f A0000000 		.4byte	.LVL138
 13011 0893 28010000 		.4byte	.LVL144
 13012 0897 0100     		.2byte	0x1
 13013 0899 58       		.byte	0x58
 13014 089a 5A010000 		.4byte	.LVL150
 13015 089e 66010000 		.4byte	.LVL151
 13016 08a2 0200     		.2byte	0x2
 13017 08a4 30       		.byte	0x30
 13018 08a5 9F       		.byte	0x9f
 13019 08a6 66010000 		.4byte	.LVL151
 13020 08aa 92010000 		.4byte	.LVL156
 13021 08ae 0200     		.2byte	0x2
 13022 08b0 31       		.byte	0x31
 13023 08b1 9F       		.byte	0x9f
 13024 08b2 98010000 		.4byte	.LVL157
 13025 08b6 BE010000 		.4byte	.LVL161
 13026 08ba 0100     		.2byte	0x1
 13027 08bc 58       		.byte	0x58
 13028 08bd C2010000 		.4byte	.LVL162
 13029 08c1 CE010000 		.4byte	.LVL163
 13030 08c5 0100     		.2byte	0x1
 13031 08c7 58       		.byte	0x58
 13032 08c8 2A020000 		.4byte	.LVL171
 13033 08cc 3C020000 		.4byte	.LVL174
 13034 08d0 0100     		.2byte	0x1
 13035 08d2 58       		.byte	0x58
 13036 08d3 AA020000 		.4byte	.LVL185
 13037 08d7 B0020000 		.4byte	.LVL186
 13038 08db 0200     		.2byte	0x2
 13039 08dd 30       		.byte	0x30
 13040 08de 9F       		.byte	0x9f
 13041 08df B0020000 		.4byte	.LVL186
 13042 08e3 CC020000 		.4byte	.LVL187
 13043 08e7 0100     		.2byte	0x1
 13044 08e9 58       		.byte	0x58
 13045 08ea D0020000 		.4byte	.LVL188
 13046 08ee 08030000 		.4byte	.LVL189
 13047 08f2 0100     		.2byte	0x1
 13048 08f4 58       		.byte	0x58
 13049 08f5 08030000 		.4byte	.LVL189
 13050 08f9 8E030000 		.4byte	.LVL191
 13051 08fd 0200     		.2byte	0x2
 13052 08ff 30       		.byte	0x30
 13053 0900 9F       		.byte	0x9f
 13054 0901 8E030000 		.4byte	.LVL191
 13055 0905 B4030000 		.4byte	.LVL192
 13056 0909 0100     		.2byte	0x1
 13057 090b 58       		.byte	0x58
ARM GAS  C:\Users\jo\AppData\Local\Temp\ccpE7U9z.s 			page 233


 13058 090c B8030000 		.4byte	.LVL193
 13059 0910 BE030000 		.4byte	.LVL194
 13060 0914 0100     		.2byte	0x1
 13061 0916 58       		.byte	0x58
 13062 0917 BE030000 		.4byte	.LVL194
 13063 091b CA030000 		.4byte	.LVL196
 13064 091f 0200     		.2byte	0x2
 13065 0921 30       		.byte	0x30
 13066 0922 9F       		.byte	0x9f
 13067 0923 CA030000 		.4byte	.LVL196
 13068 0927 F8030000 		.4byte	.LVL198
 13069 092b 0100     		.2byte	0x1
 13070 092d 58       		.byte	0x58
 13071 092e 32040000 		.4byte	.LVL202
 13072 0932 5A040000 		.4byte	.LVL205
 13073 0936 0200     		.2byte	0x2
 13074 0938 31       		.byte	0x31
 13075 0939 9F       		.byte	0x9f
 13076 093a 74040000 		.4byte	.LVL208
 13077 093e B4040000 		.4byte	.LFE270
 13078 0942 0200     		.2byte	0x2
 13079 0944 31       		.byte	0x31
 13080 0945 9F       		.byte	0x9f
 13081 0946 00000000 		.4byte	0
 13082 094a 00000000 		.4byte	0
 13083              	.LLST43:
 13084 094e 4C000000 		.4byte	.LVL136
 13085 0952 C2000000 		.4byte	.LVL139
 13086 0956 0200     		.2byte	0x2
 13087 0958 30       		.byte	0x30
 13088 0959 9F       		.byte	0x9f
 13089 095a C2000000 		.4byte	.LVL139
 13090 095e F4000000 		.4byte	.LVL141
 13091 0962 0100     		.2byte	0x1
 13092 0964 59       		.byte	0x59
 13093 0965 98010000 		.4byte	.LVL157
 13094 0969 04020000 		.4byte	.LVL167
 13095 096d 0100     		.2byte	0x1
 13096 096f 59       		.byte	0x59
 13097 0970 AA020000 		.4byte	.LVL185
 13098 0974 B8030000 		.4byte	.LVL193
 13099 0978 0200     		.2byte	0x2
 13100 097a 30       		.byte	0x30
 13101 097b 9F       		.byte	0x9f
 13102 097c B8030000 		.4byte	.LVL193
 13103 0980 BE030000 		.4byte	.LVL194
 13104 0984 0200     		.2byte	0x2
 13105 0986 31       		.byte	0x31
 13106 0987 9F       		.byte	0x9f
 13107 0988 CA030000 		.4byte	.LVL196
 13108 098c F8030000 		.4byte	.LVL198
 13109 0990 0200     		.2byte	0x2
 13110 0992 30       		.byte	0x30
 13111 0993 9F       		.byte	0x9f
 13112 0994 F8030000 		.4byte	.LVL198
 13113 0998 32040000 		.4byte	.LVL202
 13114 099c 0100     		.2byte	0x1
ARM GAS  C:\Users\jo\AppData\Local\Temp\ccpE7U9z.s 			page 234


 13115 099e 59       		.byte	0x59
 13116 099f 5A040000 		.4byte	.LVL205
 13117 09a3 74040000 		.4byte	.LVL208
 13118 09a7 0100     		.2byte	0x1
 13119 09a9 59       		.byte	0x59
 13120 09aa 00000000 		.4byte	0
 13121 09ae 00000000 		.4byte	0
 13122              	.LLST44:
 13123 09b2 00000000 		.4byte	.LVL132
 13124 09b6 1A000000 		.4byte	.LVL133
 13125 09ba 0200     		.2byte	0x2
 13126 09bc 30       		.byte	0x30
 13127 09bd 9F       		.byte	0x9f
 13128 09be 18010000 		.4byte	.LVL142
 13129 09c2 26010000 		.4byte	.LVL143
 13130 09c6 0100     		.2byte	0x1
 13131 09c8 50       		.byte	0x50
 13132 09c9 00000000 		.4byte	0
 13133 09cd 00000000 		.4byte	0
 13134              	.LLST45:
 13135 09d1 54010000 		.4byte	.LVL149
 13136 09d5 5A010000 		.4byte	.LVL150
 13137 09d9 0600     		.2byte	0x6
 13138 09db 03       		.byte	0x3
 13139 09dc 80020000 		.4byte	.LC16
 13140 09e0 9F       		.byte	0x9f
 13141 09e1 00000000 		.4byte	0
 13142 09e5 00000000 		.4byte	0
 13143              	.LLST46:
 13144 09e9 84010000 		.4byte	.LVL153
 13145 09ed 8A010000 		.4byte	.LVL154
 13146 09f1 0100     		.2byte	0x1
 13147 09f3 55       		.byte	0x55
 13148 09f4 8A010000 		.4byte	.LVL154
 13149 09f8 8D010000 		.4byte	.LVL155-1
 13150 09fc 0100     		.2byte	0x1
 13151 09fe 51       		.byte	0x51
 13152 09ff 00000000 		.4byte	0
 13153 0a03 00000000 		.4byte	0
 13154              	.LLST47:
 13155 0a07 4A040000 		.4byte	.LVL203
 13156 0a0b 50040000 		.4byte	.LVL204
 13157 0a0f 0600     		.2byte	0x6
 13158 0a11 03       		.byte	0x3
 13159 0a12 D8020000 		.4byte	.LC18
 13160 0a16 9F       		.byte	0x9f
 13161 0a17 00000000 		.4byte	0
 13162 0a1b 00000000 		.4byte	0
 13163              	.LLST48:
 13164 0a1f 98010000 		.4byte	.LVL157
 13165 0a23 9F010000 		.4byte	.LVL159-1
 13166 0a27 0100     		.2byte	0x1
 13167 0a29 50       		.byte	0x50
 13168 0a2a A0010000 		.4byte	.LVL159
 13169 0a2e B0010000 		.4byte	.LVL160
 13170 0a32 0100     		.2byte	0x1
 13171 0a34 5A       		.byte	0x5a
ARM GAS  C:\Users\jo\AppData\Local\Temp\ccpE7U9z.s 			page 235


 13172 0a35 00000000 		.4byte	0
 13173 0a39 00000000 		.4byte	0
 13174              	.LLST49:
 13175 0a3d 9C010000 		.4byte	.LVL158
 13176 0a41 B0010000 		.4byte	.LVL160
 13177 0a45 0100     		.2byte	0x1
 13178 0a47 5A       		.byte	0x5a
 13179 0a48 00000000 		.4byte	0
 13180 0a4c 00000000 		.4byte	0
 13181              	.LLST50:
 13182 0a50 F6010000 		.4byte	.LVL165
 13183 0a54 28020000 		.4byte	.LVL170
 13184 0a58 0100     		.2byte	0x1
 13185 0a5a 57       		.byte	0x57
 13186 0a5b 00000000 		.4byte	0
 13187 0a5f 00000000 		.4byte	0
 13188              	.LLST51:
 13189 0a63 F6010000 		.4byte	.LVL165
 13190 0a67 2A020000 		.4byte	.LVL171
 13191 0a6b 0100     		.2byte	0x1
 13192 0a6d 5A       		.byte	0x5a
 13193 0a6e 00000000 		.4byte	0
 13194 0a72 00000000 		.4byte	0
 13195              	.LLST52:
 13196 0a76 F6010000 		.4byte	.LVL165
 13197 0a7a FC010000 		.4byte	.LVL166
 13198 0a7e 0200     		.2byte	0x2
 13199 0a80 91       		.byte	0x91
 13200 0a81 54       		.sleb128 -44
 13201 0a82 00000000 		.4byte	0
 13202 0a86 00000000 		.4byte	0
 13203              	.LLST53:
 13204 0a8a 24040000 		.4byte	.LVL200
 13205 0a8e 2A040000 		.4byte	.LVL201
 13206 0a92 0600     		.2byte	0x6
 13207 0a94 03       		.byte	0x3
 13208 0a95 54020000 		.4byte	.LC15
 13209 0a99 9F       		.byte	0x9f
 13210 0a9a 00000000 		.4byte	0
 13211 0a9e 00000000 		.4byte	0
 13212              	.LLST54:
 13213 0aa2 6C040000 		.4byte	.LVL206
 13214 0aa6 74040000 		.4byte	.LVL208
 13215 0aaa 0600     		.2byte	0x6
 13216 0aac 03       		.byte	0x3
 13217 0aad 28020000 		.4byte	.LC14
 13218 0ab1 9F       		.byte	0x9f
 13219 0ab2 00000000 		.4byte	0
 13220 0ab6 00000000 		.4byte	0
 13221              	.LLST55:
 13222 0aba 4E020000 		.4byte	.LVL175
 13223 0abe 5C020000 		.4byte	.LVL177
 13224 0ac2 0600     		.2byte	0x6
 13225 0ac4 03       		.byte	0x3
 13226 0ac5 A0010000 		.4byte	.LC11
 13227 0ac9 9F       		.byte	0x9f
 13228 0aca 00000000 		.4byte	0
ARM GAS  C:\Users\jo\AppData\Local\Temp\ccpE7U9z.s 			page 236


 13229 0ace 00000000 		.4byte	0
 13230              	.LLST56:
 13231 0ad2 6E020000 		.4byte	.LVL178
 13232 0ad6 7C020000 		.4byte	.LVL180
 13233 0ada 0600     		.2byte	0x6
 13234 0adc 03       		.byte	0x3
 13235 0add CC010000 		.4byte	.LC12
 13236 0ae1 9F       		.byte	0x9f
 13237 0ae2 00000000 		.4byte	0
 13238 0ae6 00000000 		.4byte	0
 13239              	.LLST57:
 13240 0aea 8E020000 		.4byte	.LVL181
 13241 0aee A0020000 		.4byte	.LVL183
 13242 0af2 0600     		.2byte	0x6
 13243 0af4 03       		.byte	0x3
 13244 0af5 F8010000 		.4byte	.LC13
 13245 0af9 9F       		.byte	0x9f
 13246 0afa 00000000 		.4byte	0
 13247 0afe 00000000 		.4byte	0
 13248              	.LLST58:
 13249 0b02 00000000 		.4byte	.LVL211
 13250 0b06 2E000000 		.4byte	.LVL213
 13251 0b0a 0100     		.2byte	0x1
 13252 0b0c 50       		.byte	0x50
 13253 0b0d 2E000000 		.4byte	.LVL213
 13254 0b11 9E000000 		.4byte	.LVL221
 13255 0b15 0400     		.2byte	0x4
 13256 0b17 F3       		.byte	0xf3
 13257 0b18 01       		.uleb128 0x1
 13258 0b19 50       		.byte	0x50
 13259 0b1a 9F       		.byte	0x9f
 13260 0b1b 9E000000 		.4byte	.LVL221
 13261 0b1f A6000000 		.4byte	.LVL222
 13262 0b23 0100     		.2byte	0x1
 13263 0b25 50       		.byte	0x50
 13264 0b26 A6000000 		.4byte	.LVL222
 13265 0b2a BA000000 		.4byte	.LVL224
 13266 0b2e 0400     		.2byte	0x4
 13267 0b30 F3       		.byte	0xf3
 13268 0b31 01       		.uleb128 0x1
 13269 0b32 50       		.byte	0x50
 13270 0b33 9F       		.byte	0x9f
 13271 0b34 BA000000 		.4byte	.LVL224
 13272 0b38 E0000000 		.4byte	.LFE289
 13273 0b3c 0100     		.2byte	0x1
 13274 0b3e 50       		.byte	0x50
 13275 0b3f 00000000 		.4byte	0
 13276 0b43 00000000 		.4byte	0
 13277              	.LLST59:
 13278 0b47 00000000 		.4byte	.LVL211
 13279 0b4b 0E000000 		.4byte	.LVL212
 13280 0b4f 0100     		.2byte	0x1
 13281 0b51 51       		.byte	0x51
 13282 0b52 0E000000 		.4byte	.LVL212
 13283 0b56 BA000000 		.4byte	.LVL224
 13284 0b5a 0100     		.2byte	0x1
 13285 0b5c 54       		.byte	0x54
ARM GAS  C:\Users\jo\AppData\Local\Temp\ccpE7U9z.s 			page 237


 13286 0b5d BA000000 		.4byte	.LVL224
 13287 0b61 C0000000 		.4byte	.LVL225
 13288 0b65 0100     		.2byte	0x1
 13289 0b67 51       		.byte	0x51
 13290 0b68 C0000000 		.4byte	.LVL225
 13291 0b6c E0000000 		.4byte	.LFE289
 13292 0b70 0100     		.2byte	0x1
 13293 0b72 54       		.byte	0x54
 13294 0b73 00000000 		.4byte	0
 13295 0b77 00000000 		.4byte	0
 13296              	.LLST60:
 13297 0b7b 58000000 		.4byte	.LVL215
 13298 0b7f 5E000000 		.4byte	.LVL216
 13299 0b83 0600     		.2byte	0x6
 13300 0b85 03       		.byte	0x3
 13301 0b86 00030000 		.4byte	.LC19
 13302 0b8a 9F       		.byte	0x9f
 13303 0b8b 00000000 		.4byte	0
 13304 0b8f 00000000 		.4byte	0
 13305              	.LLST61:
 13306 0b93 74000000 		.4byte	.LVL217
 13307 0b97 7A000000 		.4byte	.LVL218
 13308 0b9b 0600     		.2byte	0x6
 13309 0b9d 03       		.byte	0x3
 13310 0b9e 18030000 		.4byte	.LC20
 13311 0ba2 9F       		.byte	0x9f
 13312 0ba3 00000000 		.4byte	0
 13313 0ba7 00000000 		.4byte	0
 13314              	.LLST62:
 13315 0bab 90000000 		.4byte	.LVL219
 13316 0baf 96000000 		.4byte	.LVL220
 13317 0bb3 0600     		.2byte	0x6
 13318 0bb5 03       		.byte	0x3
 13319 0bb6 34030000 		.4byte	.LC21
 13320 0bba 9F       		.byte	0x9f
 13321 0bbb 00000000 		.4byte	0
 13322 0bbf 00000000 		.4byte	0
 13323              	.LLST63:
 13324 0bc3 00000000 		.4byte	.LVL226
 13325 0bc7 24000000 		.4byte	.LVL228
 13326 0bcb 0100     		.2byte	0x1
 13327 0bcd 50       		.byte	0x50
 13328 0bce 24000000 		.4byte	.LVL228
 13329 0bd2 34000000 		.4byte	.LVL231
 13330 0bd6 0100     		.2byte	0x1
 13331 0bd8 54       		.byte	0x54
 13332 0bd9 3C000000 		.4byte	.LVL232
 13333 0bdd 3E000000 		.4byte	.LVL233
 13334 0be1 0100     		.2byte	0x1
 13335 0be3 50       		.byte	0x50
 13336 0be4 3E000000 		.4byte	.LVL233
 13337 0be8 4C000000 		.4byte	.LVL235
 13338 0bec 0100     		.2byte	0x1
 13339 0bee 54       		.byte	0x54
 13340 0bef 4C000000 		.4byte	.LVL235
 13341 0bf3 5A000000 		.4byte	.LVL237
 13342 0bf7 0100     		.2byte	0x1
ARM GAS  C:\Users\jo\AppData\Local\Temp\ccpE7U9z.s 			page 238


 13343 0bf9 50       		.byte	0x50
 13344 0bfa 5A000000 		.4byte	.LVL237
 13345 0bfe 98000000 		.4byte	.LVL240
 13346 0c02 0100     		.2byte	0x1
 13347 0c04 54       		.byte	0x54
 13348 0c05 98000000 		.4byte	.LVL240
 13349 0c09 C6000000 		.4byte	.LVL242
 13350 0c0d 0100     		.2byte	0x1
 13351 0c0f 50       		.byte	0x50
 13352 0c10 C6000000 		.4byte	.LVL242
 13353 0c14 D2000000 		.4byte	.LVL244
 13354 0c18 0100     		.2byte	0x1
 13355 0c1a 54       		.byte	0x54
 13356 0c1b D2000000 		.4byte	.LVL244
 13357 0c1f D4000000 		.4byte	.LVL245
 13358 0c23 0200     		.2byte	0x2
 13359 0c25 30       		.byte	0x30
 13360 0c26 9F       		.byte	0x9f
 13361 0c27 D4000000 		.4byte	.LVL245
 13362 0c2b D8000000 		.4byte	.LVL246
 13363 0c2f 0100     		.2byte	0x1
 13364 0c31 50       		.byte	0x50
 13365 0c32 D8000000 		.4byte	.LVL246
 13366 0c36 EA000000 		.4byte	.LVL248
 13367 0c3a 0100     		.2byte	0x1
 13368 0c3c 54       		.byte	0x54
 13369 0c3d EA000000 		.4byte	.LVL248
 13370 0c41 EC000000 		.4byte	.LVL249
 13371 0c45 0200     		.2byte	0x2
 13372 0c47 30       		.byte	0x30
 13373 0c48 9F       		.byte	0x9f
 13374 0c49 EC000000 		.4byte	.LVL249
 13375 0c4d F6000000 		.4byte	.LVL250
 13376 0c51 0100     		.2byte	0x1
 13377 0c53 50       		.byte	0x50
 13378 0c54 F6000000 		.4byte	.LVL250
 13379 0c58 2A010000 		.4byte	.LVL255
 13380 0c5c 0100     		.2byte	0x1
 13381 0c5e 54       		.byte	0x54
 13382 0c5f 2A010000 		.4byte	.LVL255
 13383 0c63 36010000 		.4byte	.LVL256
 13384 0c67 0100     		.2byte	0x1
 13385 0c69 50       		.byte	0x50
 13386 0c6a 36010000 		.4byte	.LVL256
 13387 0c6e 3A010000 		.4byte	.LVL257
 13388 0c72 0100     		.2byte	0x1
 13389 0c74 54       		.byte	0x54
 13390 0c75 3A010000 		.4byte	.LVL257
 13391 0c79 3C010000 		.4byte	.LVL258
 13392 0c7d 0200     		.2byte	0x2
 13393 0c7f 30       		.byte	0x30
 13394 0c80 9F       		.byte	0x9f
 13395 0c81 3C010000 		.4byte	.LVL258
 13396 0c85 5E010000 		.4byte	.LVL260
 13397 0c89 0100     		.2byte	0x1
 13398 0c8b 54       		.byte	0x54
 13399 0c8c 5E010000 		.4byte	.LVL260
ARM GAS  C:\Users\jo\AppData\Local\Temp\ccpE7U9z.s 			page 239


 13400 0c90 A4010000 		.4byte	.LFE258
 13401 0c94 0100     		.2byte	0x1
 13402 0c96 50       		.byte	0x50
 13403 0c97 00000000 		.4byte	0
 13404 0c9b 00000000 		.4byte	0
 13405              	.LLST64:
 13406 0c9f 00000000 		.4byte	.LVL226
 13407 0ca3 12000000 		.4byte	.LVL227
 13408 0ca7 0100     		.2byte	0x1
 13409 0ca9 51       		.byte	0x51
 13410 0caa 12000000 		.4byte	.LVL227
 13411 0cae 4C000000 		.4byte	.LVL235
 13412 0cb2 0400     		.2byte	0x4
 13413 0cb4 F3       		.byte	0xf3
 13414 0cb5 01       		.uleb128 0x1
 13415 0cb6 51       		.byte	0x51
 13416 0cb7 9F       		.byte	0x9f
 13417 0cb8 4C000000 		.4byte	.LVL235
 13418 0cbc 54000000 		.4byte	.LVL236
 13419 0cc0 0100     		.2byte	0x1
 13420 0cc2 51       		.byte	0x51
 13421 0cc3 54000000 		.4byte	.LVL236
 13422 0cc7 68010000 		.4byte	.LVL261
 13423 0ccb 0400     		.2byte	0x4
 13424 0ccd F3       		.byte	0xf3
 13425 0cce 01       		.uleb128 0x1
 13426 0ccf 51       		.byte	0x51
 13427 0cd0 9F       		.byte	0x9f
 13428 0cd1 68010000 		.4byte	.LVL261
 13429 0cd5 6A010000 		.4byte	.LVL262
 13430 0cd9 0100     		.2byte	0x1
 13431 0cdb 51       		.byte	0x51
 13432 0cdc 6A010000 		.4byte	.LVL262
 13433 0ce0 A4010000 		.4byte	.LFE258
 13434 0ce4 0400     		.2byte	0x4
 13435 0ce6 F3       		.byte	0xf3
 13436 0ce7 01       		.uleb128 0x1
 13437 0ce8 51       		.byte	0x51
 13438 0ce9 9F       		.byte	0x9f
 13439 0cea 00000000 		.4byte	0
 13440 0cee 00000000 		.4byte	0
 13441              	.LLST65:
 13442 0cf2 28000000 		.4byte	.LVL229
 13443 0cf6 2E000000 		.4byte	.LVL230
 13444 0cfa 0100     		.2byte	0x1
 13445 0cfc 50       		.byte	0x50
 13446 0cfd 2E000000 		.4byte	.LVL230
 13447 0d01 34000000 		.4byte	.LVL231
 13448 0d05 0200     		.2byte	0x2
 13449 0d07 30       		.byte	0x30
 13450 0d08 9F       		.byte	0x9f
 13451 0d09 42000000 		.4byte	.LVL234
 13452 0d0d 4C000000 		.4byte	.LVL235
 13453 0d11 0100     		.2byte	0x1
 13454 0d13 50       		.byte	0x50
 13455 0d14 98000000 		.4byte	.LVL240
 13456 0d18 EC000000 		.4byte	.LVL249
ARM GAS  C:\Users\jo\AppData\Local\Temp\ccpE7U9z.s 			page 240


 13457 0d1c 0200     		.2byte	0x2
 13458 0d1e 30       		.byte	0x30
 13459 0d1f 9F       		.byte	0x9f
 13460 0d20 2A010000 		.4byte	.LVL255
 13461 0d24 3C010000 		.4byte	.LVL258
 13462 0d28 0200     		.2byte	0x2
 13463 0d2a 30       		.byte	0x30
 13464 0d2b 9F       		.byte	0x9f
 13465 0d2c 5E010000 		.4byte	.LVL260
 13466 0d30 68010000 		.4byte	.LVL261
 13467 0d34 0200     		.2byte	0x2
 13468 0d36 30       		.byte	0x30
 13469 0d37 9F       		.byte	0x9f
 13470 0d38 76010000 		.4byte	.LVL263
 13471 0d3c A4010000 		.4byte	.LFE258
 13472 0d40 0200     		.2byte	0x2
 13473 0d42 30       		.byte	0x30
 13474 0d43 9F       		.byte	0x9f
 13475 0d44 00000000 		.4byte	0
 13476 0d48 00000000 		.4byte	0
 13477              	.LLST66:
 13478 0d4c FC000000 		.4byte	.LVL251
 13479 0d50 04010000 		.4byte	.LVL253
 13480 0d54 0600     		.2byte	0x6
 13481 0d56 03       		.byte	0x3
 13482 0d57 4C030000 		.4byte	.LC22
 13483 0d5b 9F       		.byte	0x9f
 13484 0d5c 00000000 		.4byte	0
 13485 0d60 00000000 		.4byte	0
 13486              	.LLST67:
 13487 0d64 00000000 		.4byte	.LVL264
 13488 0d68 13000000 		.4byte	.LVL265-1
 13489 0d6c 0100     		.2byte	0x1
 13490 0d6e 50       		.byte	0x50
 13491 0d6f 13000000 		.4byte	.LVL265-1
 13492 0d73 14000000 		.4byte	.LFE259
 13493 0d77 0400     		.2byte	0x4
 13494 0d79 F3       		.byte	0xf3
 13495 0d7a 01       		.uleb128 0x1
 13496 0d7b 50       		.byte	0x50
 13497 0d7c 9F       		.byte	0x9f
 13498 0d7d 00000000 		.4byte	0
 13499 0d81 00000000 		.4byte	0
 13500              	.LLST68:
 13501 0d85 00000000 		.4byte	.LVL266
 13502 0d89 06000000 		.4byte	.LVL267
 13503 0d8d 0100     		.2byte	0x1
 13504 0d8f 50       		.byte	0x50
 13505 0d90 06000000 		.4byte	.LVL267
 13506 0d94 18000000 		.4byte	.LVL271
 13507 0d98 0400     		.2byte	0x4
 13508 0d9a F3       		.byte	0xf3
 13509 0d9b 01       		.uleb128 0x1
 13510 0d9c 50       		.byte	0x50
 13511 0d9d 9F       		.byte	0x9f
 13512 0d9e 18000000 		.4byte	.LVL271
 13513 0da2 1C000000 		.4byte	.LVL272
ARM GAS  C:\Users\jo\AppData\Local\Temp\ccpE7U9z.s 			page 241


 13514 0da6 0100     		.2byte	0x1
 13515 0da8 50       		.byte	0x50
 13516 0da9 1C000000 		.4byte	.LVL272
 13517 0dad 1E000000 		.4byte	.LVL273
 13518 0db1 0400     		.2byte	0x4
 13519 0db3 F3       		.byte	0xf3
 13520 0db4 01       		.uleb128 0x1
 13521 0db5 50       		.byte	0x50
 13522 0db6 9F       		.byte	0x9f
 13523 0db7 1E000000 		.4byte	.LVL273
 13524 0dbb 20000000 		.4byte	.LVL274
 13525 0dbf 0100     		.2byte	0x1
 13526 0dc1 50       		.byte	0x50
 13527 0dc2 20000000 		.4byte	.LVL274
 13528 0dc6 24000000 		.4byte	.LFE277
 13529 0dca 0400     		.2byte	0x4
 13530 0dcc F3       		.byte	0xf3
 13531 0dcd 01       		.uleb128 0x1
 13532 0dce 50       		.byte	0x50
 13533 0dcf 9F       		.byte	0x9f
 13534 0dd0 00000000 		.4byte	0
 13535 0dd4 00000000 		.4byte	0
 13536              	.LLST69:
 13537 0dd8 00000000 		.4byte	.LVL266
 13538 0ddc 0A000000 		.4byte	.LVL268
 13539 0de0 0100     		.2byte	0x1
 13540 0de2 51       		.byte	0x51
 13541 0de3 0A000000 		.4byte	.LVL268
 13542 0de7 0D000000 		.4byte	.LVL269-1
 13543 0deb 0100     		.2byte	0x1
 13544 0ded 50       		.byte	0x50
 13545 0dee 0D000000 		.4byte	.LVL269-1
 13546 0df2 18000000 		.4byte	.LVL271
 13547 0df6 0400     		.2byte	0x4
 13548 0df8 F3       		.byte	0xf3
 13549 0df9 01       		.uleb128 0x1
 13550 0dfa 51       		.byte	0x51
 13551 0dfb 9F       		.byte	0x9f
 13552 0dfc 18000000 		.4byte	.LVL271
 13553 0e00 23000000 		.4byte	.LVL275-1
 13554 0e04 0100     		.2byte	0x1
 13555 0e06 51       		.byte	0x51
 13556 0e07 23000000 		.4byte	.LVL275-1
 13557 0e0b 24000000 		.4byte	.LFE277
 13558 0e0f 0400     		.2byte	0x4
 13559 0e11 F3       		.byte	0xf3
 13560 0e12 01       		.uleb128 0x1
 13561 0e13 51       		.byte	0x51
 13562 0e14 9F       		.byte	0x9f
 13563 0e15 00000000 		.4byte	0
 13564 0e19 00000000 		.4byte	0
 13565              	.LLST70:
 13566 0e1d 00000000 		.4byte	.LVL266
 13567 0e21 0D000000 		.4byte	.LVL269-1
 13568 0e25 0100     		.2byte	0x1
 13569 0e27 52       		.byte	0x52
 13570 0e28 0D000000 		.4byte	.LVL269-1
ARM GAS  C:\Users\jo\AppData\Local\Temp\ccpE7U9z.s 			page 242


 13571 0e2c 18000000 		.4byte	.LVL271
 13572 0e30 0100     		.2byte	0x1
 13573 0e32 54       		.byte	0x54
 13574 0e33 18000000 		.4byte	.LVL271
 13575 0e37 23000000 		.4byte	.LVL275-1
 13576 0e3b 0100     		.2byte	0x1
 13577 0e3d 52       		.byte	0x52
 13578 0e3e 23000000 		.4byte	.LVL275-1
 13579 0e42 24000000 		.4byte	.LFE277
 13580 0e46 0400     		.2byte	0x4
 13581 0e48 F3       		.byte	0xf3
 13582 0e49 01       		.uleb128 0x1
 13583 0e4a 52       		.byte	0x52
 13584 0e4b 9F       		.byte	0x9f
 13585 0e4c 00000000 		.4byte	0
 13586 0e50 00000000 		.4byte	0
 13587              	.LLST71:
 13588 0e54 00000000 		.4byte	.LVL266
 13589 0e58 0D000000 		.4byte	.LVL269-1
 13590 0e5c 0100     		.2byte	0x1
 13591 0e5e 53       		.byte	0x53
 13592 0e5f 0D000000 		.4byte	.LVL269-1
 13593 0e63 18000000 		.4byte	.LVL271
 13594 0e67 0400     		.2byte	0x4
 13595 0e69 F3       		.byte	0xf3
 13596 0e6a 01       		.uleb128 0x1
 13597 0e6b 53       		.byte	0x53
 13598 0e6c 9F       		.byte	0x9f
 13599 0e6d 18000000 		.4byte	.LVL271
 13600 0e71 23000000 		.4byte	.LVL275-1
 13601 0e75 0100     		.2byte	0x1
 13602 0e77 53       		.byte	0x53
 13603 0e78 23000000 		.4byte	.LVL275-1
 13604 0e7c 24000000 		.4byte	.LFE277
 13605 0e80 0400     		.2byte	0x4
 13606 0e82 F3       		.byte	0xf3
 13607 0e83 01       		.uleb128 0x1
 13608 0e84 53       		.byte	0x53
 13609 0e85 9F       		.byte	0x9f
 13610 0e86 00000000 		.4byte	0
 13611 0e8a 00000000 		.4byte	0
 13612              	.LLST72:
 13613 0e8e 18000000 		.4byte	.LVL271
 13614 0e92 1C000000 		.4byte	.LVL272
 13615 0e96 0100     		.2byte	0x1
 13616 0e98 50       		.byte	0x50
 13617 0e99 1C000000 		.4byte	.LVL272
 13618 0e9d 1E000000 		.4byte	.LVL273
 13619 0ea1 0400     		.2byte	0x4
 13620 0ea3 F3       		.byte	0xf3
 13621 0ea4 01       		.uleb128 0x1
 13622 0ea5 50       		.byte	0x50
 13623 0ea6 9F       		.byte	0x9f
 13624 0ea7 1E000000 		.4byte	.LVL273
 13625 0eab 20000000 		.4byte	.LVL274
 13626 0eaf 0100     		.2byte	0x1
 13627 0eb1 50       		.byte	0x50
ARM GAS  C:\Users\jo\AppData\Local\Temp\ccpE7U9z.s 			page 243


 13628 0eb2 20000000 		.4byte	.LVL274
 13629 0eb6 24000000 		.4byte	.LFE277
 13630 0eba 0400     		.2byte	0x4
 13631 0ebc F3       		.byte	0xf3
 13632 0ebd 01       		.uleb128 0x1
 13633 0ebe 50       		.byte	0x50
 13634 0ebf 9F       		.byte	0x9f
 13635 0ec0 00000000 		.4byte	0
 13636 0ec4 00000000 		.4byte	0
 13637              	.LLST73:
 13638 0ec8 18000000 		.4byte	.LVL271
 13639 0ecc 23000000 		.4byte	.LVL275-1
 13640 0ed0 0100     		.2byte	0x1
 13641 0ed2 53       		.byte	0x53
 13642 0ed3 23000000 		.4byte	.LVL275-1
 13643 0ed7 24000000 		.4byte	.LFE277
 13644 0edb 0400     		.2byte	0x4
 13645 0edd F3       		.byte	0xf3
 13646 0ede 01       		.uleb128 0x1
 13647 0edf 53       		.byte	0x53
 13648 0ee0 9F       		.byte	0x9f
 13649 0ee1 00000000 		.4byte	0
 13650 0ee5 00000000 		.4byte	0
 13651              	.LLST74:
 13652 0ee9 18000000 		.4byte	.LVL271
 13653 0eed 23000000 		.4byte	.LVL275-1
 13654 0ef1 0100     		.2byte	0x1
 13655 0ef3 51       		.byte	0x51
 13656 0ef4 23000000 		.4byte	.LVL275-1
 13657 0ef8 24000000 		.4byte	.LFE277
 13658 0efc 0400     		.2byte	0x4
 13659 0efe F3       		.byte	0xf3
 13660 0eff 01       		.uleb128 0x1
 13661 0f00 51       		.byte	0x51
 13662 0f01 9F       		.byte	0x9f
 13663 0f02 00000000 		.4byte	0
 13664 0f06 00000000 		.4byte	0
 13665              	.LLST75:
 13666 0f0a 00000000 		.4byte	.LVL276
 13667 0f0e 14000000 		.4byte	.LVL278
 13668 0f12 0100     		.2byte	0x1
 13669 0f14 50       		.byte	0x50
 13670 0f15 14000000 		.4byte	.LVL278
 13671 0f19 56000000 		.4byte	.LVL289
 13672 0f1d 0100     		.2byte	0x1
 13673 0f1f 54       		.byte	0x54
 13674 0f20 56000000 		.4byte	.LVL289
 13675 0f24 58000000 		.4byte	.LVL290
 13676 0f28 0100     		.2byte	0x1
 13677 0f2a 50       		.byte	0x50
 13678 0f2b 58000000 		.4byte	.LVL290
 13679 0f2f 68000000 		.4byte	.LFE272
 13680 0f33 0100     		.2byte	0x1
 13681 0f35 54       		.byte	0x54
 13682 0f36 00000000 		.4byte	0
 13683 0f3a 00000000 		.4byte	0
 13684              	.LLST76:
ARM GAS  C:\Users\jo\AppData\Local\Temp\ccpE7U9z.s 			page 244


 13685 0f3e 1A000000 		.4byte	.LVL279
 13686 0f42 3A000000 		.4byte	.LVL282
 13687 0f46 0100     		.2byte	0x1
 13688 0f48 50       		.byte	0x50
 13689 0f49 48000000 		.4byte	.LVL286
 13690 0f4d 4C000000 		.4byte	.LVL287
 13691 0f51 0100     		.2byte	0x1
 13692 0f53 50       		.byte	0x50
 13693 0f54 4C000000 		.4byte	.LVL287
 13694 0f58 52000000 		.4byte	.LVL288
 13695 0f5c 0300     		.2byte	0x3
 13696 0f5e 70       		.byte	0x70
 13697 0f5f 76       		.sleb128 -10
 13698 0f60 9F       		.byte	0x9f
 13699 0f61 62000000 		.4byte	.LVL291
 13700 0f65 64000000 		.4byte	.LVL292
 13701 0f69 0100     		.2byte	0x1
 13702 0f6b 50       		.byte	0x50
 13703 0f6c 00000000 		.4byte	0
 13704 0f70 00000000 		.4byte	0
 13705              	.LLST77:
 13706 0f74 0A000000 		.4byte	.LVL277
 13707 0f78 26000000 		.4byte	.LVL281
 13708 0f7c 0100     		.2byte	0x1
 13709 0f7e 55       		.byte	0x55
 13710 0f7f 48000000 		.4byte	.LVL286
 13711 0f83 52000000 		.4byte	.LVL288
 13712 0f87 0100     		.2byte	0x1
 13713 0f89 55       		.byte	0x55
 13714 0f8a 56000000 		.4byte	.LVL289
 13715 0f8e 64000000 		.4byte	.LVL292
 13716 0f92 0100     		.2byte	0x1
 13717 0f94 55       		.byte	0x55
 13718 0f95 00000000 		.4byte	0
 13719 0f99 00000000 		.4byte	0
 13720              	.LLST78:
 13721 0f9d 20000000 		.4byte	.LVL280
 13722 0fa1 42000000 		.4byte	.LVL285
 13723 0fa5 0100     		.2byte	0x1
 13724 0fa7 54       		.byte	0x54
 13725 0fa8 00000000 		.4byte	0
 13726 0fac 00000000 		.4byte	0
 13727              	.LLST79:
 13728 0fb0 3E000000 		.4byte	.LVL283
 13729 0fb4 40000000 		.4byte	.LVL284
 13730 0fb8 0100     		.2byte	0x1
 13731 0fba 50       		.byte	0x50
 13732 0fbb 00000000 		.4byte	0
 13733 0fbf 00000000 		.4byte	0
 13734              	.LLST80:
 13735 0fc3 38000000 		.4byte	.LVL294
 13736 0fc7 4E000000 		.4byte	.LVL296
 13737 0fcb 0100     		.2byte	0x1
 13738 0fcd 54       		.byte	0x54
 13739 0fce 00000000 		.4byte	0
 13740 0fd2 00000000 		.4byte	0
 13741              	.LLST81:
ARM GAS  C:\Users\jo\AppData\Local\Temp\ccpE7U9z.s 			page 245


 13742 0fd6 00000000 		.4byte	.LVL300
 13743 0fda 18000000 		.4byte	.LVL301
 13744 0fde 0100     		.2byte	0x1
 13745 0fe0 50       		.byte	0x50
 13746 0fe1 18000000 		.4byte	.LVL301
 13747 0fe5 28000000 		.4byte	.LVL304
 13748 0fe9 0100     		.2byte	0x1
 13749 0feb 55       		.byte	0x55
 13750 0fec 28000000 		.4byte	.LVL304
 13751 0ff0 47000000 		.4byte	.LVL306-1
 13752 0ff4 0100     		.2byte	0x1
 13753 0ff6 50       		.byte	0x50
 13754 0ff7 47000000 		.4byte	.LVL306-1
 13755 0ffb 48000000 		.4byte	.LVL306
 13756 0fff 0400     		.2byte	0x4
 13757 1001 F3       		.byte	0xf3
 13758 1002 01       		.uleb128 0x1
 13759 1003 50       		.byte	0x50
 13760 1004 9F       		.byte	0x9f
 13761 1005 48000000 		.4byte	.LVL306
 13762 1009 51000000 		.4byte	.LVL308-1
 13763 100d 0100     		.2byte	0x1
 13764 100f 50       		.byte	0x50
 13765 1010 51000000 		.4byte	.LVL308-1
 13766 1014 52000000 		.4byte	.LVL308
 13767 1018 0400     		.2byte	0x4
 13768 101a F3       		.byte	0xf3
 13769 101b 01       		.uleb128 0x1
 13770 101c 50       		.byte	0x50
 13771 101d 9F       		.byte	0x9f
 13772 101e 52000000 		.4byte	.LVL308
 13773 1022 54000000 		.4byte	.LVL309
 13774 1026 0100     		.2byte	0x1
 13775 1028 50       		.byte	0x50
 13776 1029 54000000 		.4byte	.LVL309
 13777 102d 56000000 		.4byte	.LFE260
 13778 1031 0100     		.2byte	0x1
 13779 1033 55       		.byte	0x55
 13780 1034 00000000 		.4byte	0
 13781 1038 00000000 		.4byte	0
 13782              	.LLST82:
 13783 103c 00000000 		.4byte	.LVL300
 13784 1040 1F000000 		.4byte	.LVL302-1
 13785 1044 0100     		.2byte	0x1
 13786 1046 51       		.byte	0x51
 13787 1047 1F000000 		.4byte	.LVL302-1
 13788 104b 28000000 		.4byte	.LVL304
 13789 104f 0400     		.2byte	0x4
 13790 1051 F3       		.byte	0xf3
 13791 1052 01       		.uleb128 0x1
 13792 1053 51       		.byte	0x51
 13793 1054 9F       		.byte	0x9f
 13794 1055 28000000 		.4byte	.LVL304
 13795 1059 47000000 		.4byte	.LVL306-1
 13796 105d 0100     		.2byte	0x1
 13797 105f 51       		.byte	0x51
 13798 1060 47000000 		.4byte	.LVL306-1
ARM GAS  C:\Users\jo\AppData\Local\Temp\ccpE7U9z.s 			page 246


 13799 1064 48000000 		.4byte	.LVL306
 13800 1068 0400     		.2byte	0x4
 13801 106a F3       		.byte	0xf3
 13802 106b 01       		.uleb128 0x1
 13803 106c 51       		.byte	0x51
 13804 106d 9F       		.byte	0x9f
 13805 106e 48000000 		.4byte	.LVL306
 13806 1072 4A000000 		.4byte	.LVL307
 13807 1076 0100     		.2byte	0x1
 13808 1078 51       		.byte	0x51
 13809 1079 4A000000 		.4byte	.LVL307
 13810 107d 52000000 		.4byte	.LVL308
 13811 1081 0400     		.2byte	0x4
 13812 1083 F3       		.byte	0xf3
 13813 1084 01       		.uleb128 0x1
 13814 1085 51       		.byte	0x51
 13815 1086 9F       		.byte	0x9f
 13816 1087 52000000 		.4byte	.LVL308
 13817 108b 56000000 		.4byte	.LFE260
 13818 108f 0100     		.2byte	0x1
 13819 1091 51       		.byte	0x51
 13820 1092 00000000 		.4byte	0
 13821 1096 00000000 		.4byte	0
 13822              	.LLST83:
 13823 109a 00000000 		.4byte	.LVL300
 13824 109e 1F000000 		.4byte	.LVL302-1
 13825 10a2 0100     		.2byte	0x1
 13826 10a4 52       		.byte	0x52
 13827 10a5 1F000000 		.4byte	.LVL302-1
 13828 10a9 22000000 		.4byte	.LVL303
 13829 10ad 0100     		.2byte	0x1
 13830 10af 54       		.byte	0x54
 13831 10b0 22000000 		.4byte	.LVL303
 13832 10b4 28000000 		.4byte	.LVL304
 13833 10b8 0400     		.2byte	0x4
 13834 10ba F3       		.byte	0xf3
 13835 10bb 01       		.uleb128 0x1
 13836 10bc 52       		.byte	0x52
 13837 10bd 9F       		.byte	0x9f
 13838 10be 28000000 		.4byte	.LVL304
 13839 10c2 36000000 		.4byte	.LVL305
 13840 10c6 0100     		.2byte	0x1
 13841 10c8 52       		.byte	0x52
 13842 10c9 36000000 		.4byte	.LVL305
 13843 10cd 48000000 		.4byte	.LVL306
 13844 10d1 0400     		.2byte	0x4
 13845 10d3 F3       		.byte	0xf3
 13846 10d4 01       		.uleb128 0x1
 13847 10d5 52       		.byte	0x52
 13848 10d6 9F       		.byte	0x9f
 13849 10d7 48000000 		.4byte	.LVL306
 13850 10db 51000000 		.4byte	.LVL308-1
 13851 10df 0100     		.2byte	0x1
 13852 10e1 52       		.byte	0x52
 13853 10e2 51000000 		.4byte	.LVL308-1
 13854 10e6 56000000 		.4byte	.LFE260
 13855 10ea 0400     		.2byte	0x4
ARM GAS  C:\Users\jo\AppData\Local\Temp\ccpE7U9z.s 			page 247


 13856 10ec F3       		.byte	0xf3
 13857 10ed 01       		.uleb128 0x1
 13858 10ee 52       		.byte	0x52
 13859 10ef 9F       		.byte	0x9f
 13860 10f0 00000000 		.4byte	0
 13861 10f4 00000000 		.4byte	0
 13862              	.LLST84:
 13863 10f8 00000000 		.4byte	.LVL310
 13864 10fc 10000000 		.4byte	.LVL311
 13865 1100 0100     		.2byte	0x1
 13866 1102 50       		.byte	0x50
 13867 1103 10000000 		.4byte	.LVL311
 13868 1107 80000000 		.4byte	.LVL330
 13869 110b 0100     		.2byte	0x1
 13870 110d 54       		.byte	0x54
 13871 110e 80000000 		.4byte	.LVL330
 13872 1112 82000000 		.4byte	.LVL331
 13873 1116 0400     		.2byte	0x4
 13874 1118 F3       		.byte	0xf3
 13875 1119 01       		.uleb128 0x1
 13876 111a 50       		.byte	0x50
 13877 111b 9F       		.byte	0x9f
 13878 111c 82000000 		.4byte	.LVL331
 13879 1120 BA000000 		.4byte	.LVL336
 13880 1124 0100     		.2byte	0x1
 13881 1126 54       		.byte	0x54
 13882 1127 BA000000 		.4byte	.LVL336
 13883 112b BD000000 		.4byte	.LVL337-1
 13884 112f 0100     		.2byte	0x1
 13885 1131 51       		.byte	0x51
 13886 1132 BD000000 		.4byte	.LVL337-1
 13887 1136 BE000000 		.4byte	.LVL337
 13888 113a 0400     		.2byte	0x4
 13889 113c F3       		.byte	0xf3
 13890 113d 01       		.uleb128 0x1
 13891 113e 50       		.byte	0x50
 13892 113f 9F       		.byte	0x9f
 13893 1140 BE000000 		.4byte	.LVL337
 13894 1144 C8000000 		.4byte	.LVL339
 13895 1148 0100     		.2byte	0x1
 13896 114a 50       		.byte	0x50
 13897 114b C8000000 		.4byte	.LVL339
 13898 114f F8000000 		.4byte	.LFE261
 13899 1153 0100     		.2byte	0x1
 13900 1155 54       		.byte	0x54
 13901 1156 00000000 		.4byte	0
 13902 115a 00000000 		.4byte	0
 13903              	.LLST85:
 13904 115e 00000000 		.4byte	.LVL310
 13905 1162 10000000 		.4byte	.LVL311
 13906 1166 0100     		.2byte	0x1
 13907 1168 51       		.byte	0x51
 13908 1169 10000000 		.4byte	.LVL311
 13909 116d 80000000 		.4byte	.LVL330
 13910 1171 0100     		.2byte	0x1
 13911 1173 56       		.byte	0x56
 13912 1174 80000000 		.4byte	.LVL330
ARM GAS  C:\Users\jo\AppData\Local\Temp\ccpE7U9z.s 			page 248


 13913 1178 82000000 		.4byte	.LVL331
 13914 117c 0400     		.2byte	0x4
 13915 117e F3       		.byte	0xf3
 13916 117f 01       		.uleb128 0x1
 13917 1180 51       		.byte	0x51
 13918 1181 9F       		.byte	0x9f
 13919 1182 82000000 		.4byte	.LVL331
 13920 1186 BA000000 		.4byte	.LVL336
 13921 118a 0100     		.2byte	0x1
 13922 118c 56       		.byte	0x56
 13923 118d BA000000 		.4byte	.LVL336
 13924 1191 BE000000 		.4byte	.LVL337
 13925 1195 0400     		.2byte	0x4
 13926 1197 F3       		.byte	0xf3
 13927 1198 01       		.uleb128 0x1
 13928 1199 51       		.byte	0x51
 13929 119a 9F       		.byte	0x9f
 13930 119b BE000000 		.4byte	.LVL337
 13931 119f C4000000 		.4byte	.LVL338
 13932 11a3 0100     		.2byte	0x1
 13933 11a5 51       		.byte	0x51
 13934 11a6 C4000000 		.4byte	.LVL338
 13935 11aa F8000000 		.4byte	.LFE261
 13936 11ae 0100     		.2byte	0x1
 13937 11b0 56       		.byte	0x56
 13938 11b1 00000000 		.4byte	0
 13939 11b5 00000000 		.4byte	0
 13940              	.LLST86:
 13941 11b9 1A000000 		.4byte	.LVL312
 13942 11bd 80000000 		.4byte	.LVL330
 13943 11c1 0100     		.2byte	0x1
 13944 11c3 59       		.byte	0x59
 13945 11c4 82000000 		.4byte	.LVL331
 13946 11c8 A8000000 		.4byte	.LVL334
 13947 11cc 0100     		.2byte	0x1
 13948 11ce 59       		.byte	0x59
 13949 11cf 00000000 		.4byte	0
 13950 11d3 00000000 		.4byte	0
 13951              	.LLST87:
 13952 11d7 1E000000 		.4byte	.LVL313
 13953 11db 80000000 		.4byte	.LVL330
 13954 11df 0100     		.2byte	0x1
 13955 11e1 58       		.byte	0x58
 13956 11e2 82000000 		.4byte	.LVL331
 13957 11e6 A8000000 		.4byte	.LVL334
 13958 11ea 0100     		.2byte	0x1
 13959 11ec 58       		.byte	0x58
 13960 11ed 00000000 		.4byte	0
 13961 11f1 00000000 		.4byte	0
 13962              	.LLST88:
 13963 11f5 22000000 		.4byte	.LVL314
 13964 11f9 80000000 		.4byte	.LVL330
 13965 11fd 0100     		.2byte	0x1
 13966 11ff 55       		.byte	0x55
 13967 1200 80000000 		.4byte	.LVL330
 13968 1204 81000000 		.4byte	.LVL331-1
 13969 1208 0100     		.2byte	0x1
ARM GAS  C:\Users\jo\AppData\Local\Temp\ccpE7U9z.s 			page 249


 13970 120a 53       		.byte	0x53
 13971 120b 82000000 		.4byte	.LVL331
 13972 120f A8000000 		.4byte	.LVL334
 13973 1213 0100     		.2byte	0x1
 13974 1215 55       		.byte	0x55
 13975 1216 00000000 		.4byte	0
 13976 121a 00000000 		.4byte	0
 13977              	.LLST89:
 13978 121e 24000000 		.4byte	.LVL315
 13979 1222 80000000 		.4byte	.LVL330
 13980 1226 0100     		.2byte	0x1
 13981 1228 57       		.byte	0x57
 13982 1229 80000000 		.4byte	.LVL330
 13983 122d 81000000 		.4byte	.LVL331-1
 13984 1231 0100     		.2byte	0x1
 13985 1233 50       		.byte	0x50
 13986 1234 82000000 		.4byte	.LVL331
 13987 1238 A8000000 		.4byte	.LVL334
 13988 123c 0100     		.2byte	0x1
 13989 123e 57       		.byte	0x57
 13990 123f 00000000 		.4byte	0
 13991 1243 00000000 		.4byte	0
 13992              	.LLST90:
 13993 1247 34000000 		.4byte	.LVL317
 13994 124b 3B000000 		.4byte	.LVL319-1
 13995 124f 0100     		.2byte	0x1
 13996 1251 50       		.byte	0x50
 13997 1252 3C000000 		.4byte	.LVL319
 13998 1256 42000000 		.4byte	.LVL320
 13999 125a 0100     		.2byte	0x1
 14000 125c 5A       		.byte	0x5a
 14001 125d 00000000 		.4byte	0
 14002 1261 00000000 		.4byte	0
 14003              	.LLST91:
 14004 1265 38000000 		.4byte	.LVL318
 14005 1269 42000000 		.4byte	.LVL320
 14006 126d 0100     		.2byte	0x1
 14007 126f 5A       		.byte	0x5a
 14008 1270 00000000 		.4byte	0
 14009 1274 00000000 		.4byte	0
 14010              	.LLST92:
 14011 1278 46000000 		.4byte	.LVL321
 14012 127c 4D000000 		.4byte	.LVL323-1
 14013 1280 0100     		.2byte	0x1
 14014 1282 50       		.byte	0x50
 14015 1283 4E000000 		.4byte	.LVL323
 14016 1287 54000000 		.4byte	.LVL324
 14017 128b 0100     		.2byte	0x1
 14018 128d 5A       		.byte	0x5a
 14019 128e 00000000 		.4byte	0
 14020 1292 00000000 		.4byte	0
 14021              	.LLST93:
 14022 1296 4A000000 		.4byte	.LVL322
 14023 129a 54000000 		.4byte	.LVL324
 14024 129e 0100     		.2byte	0x1
 14025 12a0 5A       		.byte	0x5a
 14026 12a1 00000000 		.4byte	0
ARM GAS  C:\Users\jo\AppData\Local\Temp\ccpE7U9z.s 			page 250


 14027 12a5 00000000 		.4byte	0
 14028              	.LLST94:
 14029 12a9 58000000 		.4byte	.LVL325
 14030 12ad 5F000000 		.4byte	.LVL327-1
 14031 12b1 0100     		.2byte	0x1
 14032 12b3 50       		.byte	0x50
 14033 12b4 60000000 		.4byte	.LVL327
 14034 12b8 66000000 		.4byte	.LVL328
 14035 12bc 0100     		.2byte	0x1
 14036 12be 5A       		.byte	0x5a
 14037 12bf 00000000 		.4byte	0
 14038 12c3 00000000 		.4byte	0
 14039              	.LLST95:
 14040 12c7 5C000000 		.4byte	.LVL326
 14041 12cb 66000000 		.4byte	.LVL328
 14042 12cf 0100     		.2byte	0x1
 14043 12d1 5A       		.byte	0x5a
 14044 12d2 00000000 		.4byte	0
 14045 12d6 00000000 		.4byte	0
 14046              	.LLST96:
 14047 12da 00000000 		.4byte	.LVL342
 14048 12de 05000000 		.4byte	.LVL343-1
 14049 12e2 0100     		.2byte	0x1
 14050 12e4 50       		.byte	0x50
 14051 12e5 05000000 		.4byte	.LVL343-1
 14052 12e9 06000000 		.4byte	.LFE262
 14053 12ed 0400     		.2byte	0x4
 14054 12ef F3       		.byte	0xf3
 14055 12f0 01       		.uleb128 0x1
 14056 12f1 50       		.byte	0x50
 14057 12f2 9F       		.byte	0x9f
 14058 12f3 00000000 		.4byte	0
 14059 12f7 00000000 		.4byte	0
 14060              	.LLST97:
 14061 12fb 00000000 		.4byte	.LVL344
 14062 12ff 08000000 		.4byte	.LVL345
 14063 1303 0100     		.2byte	0x1
 14064 1305 50       		.byte	0x50
 14065 1306 08000000 		.4byte	.LVL345
 14066 130a 48010000 		.4byte	.LFE280
 14067 130e 0400     		.2byte	0x4
 14068 1310 F3       		.byte	0xf3
 14069 1311 01       		.uleb128 0x1
 14070 1312 50       		.byte	0x50
 14071 1313 9F       		.byte	0x9f
 14072 1314 00000000 		.4byte	0
 14073 1318 00000000 		.4byte	0
 14074              	.LLST98:
 14075 131c 0C000000 		.4byte	.LVL346
 14076 1320 1B000000 		.4byte	.LVL347-1
 14077 1324 0100     		.2byte	0x1
 14078 1326 50       		.byte	0x50
 14079 1327 1B000000 		.4byte	.LVL347-1
 14080 132b 9C000000 		.4byte	.LVL348
 14081 132f 0100     		.2byte	0x1
 14082 1331 54       		.byte	0x54
 14083 1332 9C000000 		.4byte	.LVL348
ARM GAS  C:\Users\jo\AppData\Local\Temp\ccpE7U9z.s 			page 251


 14084 1336 A0000000 		.4byte	.LVL349
 14085 133a 0100     		.2byte	0x1
 14086 133c 50       		.byte	0x50
 14087 133d A0000000 		.4byte	.LVL349
 14088 1341 A8000000 		.4byte	.LVL350
 14089 1345 0100     		.2byte	0x1
 14090 1347 54       		.byte	0x54
 14091 1348 CC000000 		.4byte	.LVL358
 14092 134c EA000000 		.4byte	.LVL361
 14093 1350 0100     		.2byte	0x1
 14094 1352 50       		.byte	0x50
 14095 1353 16010000 		.4byte	.LVL368
 14096 1357 48010000 		.4byte	.LFE280
 14097 135b 0100     		.2byte	0x1
 14098 135d 50       		.byte	0x50
 14099 135e 00000000 		.4byte	0
 14100 1362 00000000 		.4byte	0
 14101              	.LLST99:
 14102 1366 A0000000 		.4byte	.LVL349
 14103 136a AE000000 		.4byte	.LVL351
 14104 136e 0100     		.2byte	0x1
 14105 1370 50       		.byte	0x50
 14106 1371 AE000000 		.4byte	.LVL351
 14107 1375 C5000000 		.4byte	.LVL357-1
 14108 1379 0100     		.2byte	0x1
 14109 137b 53       		.byte	0x53
 14110 137c 00000000 		.4byte	0
 14111 1380 00000000 		.4byte	0
 14112              	.LLST100:
 14113 1384 9C000000 		.4byte	.LVL348
 14114 1388 AE000000 		.4byte	.LVL351
 14115 138c 0200     		.2byte	0x2
 14116 138e 30       		.byte	0x30
 14117 138f 9F       		.byte	0x9f
 14118 1390 00000000 		.4byte	0
 14119 1394 00000000 		.4byte	0
 14120              	.LLST101:
 14121 1398 9C000000 		.4byte	.LVL348
 14122 139c AE000000 		.4byte	.LVL351
 14123 13a0 0200     		.2byte	0x2
 14124 13a2 30       		.byte	0x30
 14125 13a3 9F       		.byte	0x9f
 14126 13a4 AE000000 		.4byte	.LVL351
 14127 13a8 B8000000 		.4byte	.LVL352
 14128 13ac 0100     		.2byte	0x1
 14129 13ae 51       		.byte	0x51
 14130 13af BA000000 		.4byte	.LVL353
 14131 13b3 C2000000 		.4byte	.LVL356
 14132 13b7 0100     		.2byte	0x1
 14133 13b9 51       		.byte	0x51
 14134 13ba 00000000 		.4byte	0
 14135 13be 00000000 		.4byte	0
 14136              	.LLST102:
 14137 13c2 C0000000 		.4byte	.LVL355
 14138 13c6 C5000000 		.4byte	.LVL357-1
 14139 13ca 0100     		.2byte	0x1
 14140 13cc 50       		.byte	0x50
ARM GAS  C:\Users\jo\AppData\Local\Temp\ccpE7U9z.s 			page 252


 14141 13cd 00000000 		.4byte	0
 14142 13d1 00000000 		.4byte	0
 14143              	.LLST103:
 14144 13d5 E2000000 		.4byte	.LVL360
 14145 13d9 0F010000 		.4byte	.LVL367-1
 14146 13dd 0100     		.2byte	0x1
 14147 13df 53       		.byte	0x53
 14148 13e0 00000000 		.4byte	0
 14149 13e4 00000000 		.4byte	0
 14150              	.LLST104:
 14151 13e8 DE000000 		.4byte	.LVL359
 14152 13ec EA000000 		.4byte	.LVL361
 14153 13f0 0200     		.2byte	0x2
 14154 13f2 30       		.byte	0x30
 14155 13f3 9F       		.byte	0x9f
 14156 13f4 00000000 		.4byte	0
 14157 13f8 00000000 		.4byte	0
 14158              	.LLST105:
 14159 13fc DE000000 		.4byte	.LVL359
 14160 1400 EA000000 		.4byte	.LVL361
 14161 1404 0200     		.2byte	0x2
 14162 1406 30       		.byte	0x30
 14163 1407 9F       		.byte	0x9f
 14164 1408 EA000000 		.4byte	.LVL361
 14165 140c 00010000 		.4byte	.LVL363
 14166 1410 0100     		.2byte	0x1
 14167 1412 54       		.byte	0x54
 14168 1413 02010000 		.4byte	.LVL364
 14169 1417 10010000 		.4byte	.LVL367
 14170 141b 0100     		.2byte	0x1
 14171 141d 54       		.byte	0x54
 14172 141e 00000000 		.4byte	0
 14173 1422 00000000 		.4byte	0
 14174              	.LLST106:
 14175 1426 DE000000 		.4byte	.LVL359
 14176 142a EA000000 		.4byte	.LVL361
 14177 142e 0300     		.2byte	0x3
 14178 1430 08       		.byte	0x8
 14179 1431 7F       		.byte	0x7f
 14180 1432 9F       		.byte	0x9f
 14181 1433 EA000000 		.4byte	.LVL361
 14182 1437 FE000000 		.4byte	.LVL362
 14183 143b 0100     		.2byte	0x1
 14184 143d 55       		.byte	0x55
 14185 143e 02010000 		.4byte	.LVL364
 14186 1442 10010000 		.4byte	.LVL367
 14187 1446 0100     		.2byte	0x1
 14188 1448 55       		.byte	0x55
 14189 1449 00000000 		.4byte	0
 14190 144d 00000000 		.4byte	0
 14191              	.LLST107:
 14192 1451 0A010000 		.4byte	.LVL366
 14193 1455 0F010000 		.4byte	.LVL367-1
 14194 1459 0100     		.2byte	0x1
 14195 145b 50       		.byte	0x50
 14196 145c 00000000 		.4byte	0
 14197 1460 00000000 		.4byte	0
ARM GAS  C:\Users\jo\AppData\Local\Temp\ccpE7U9z.s 			page 253


 14198              	.LLST108:
 14199 1464 00000000 		.4byte	.LVL370
 14200 1468 06000000 		.4byte	.LVL371
 14201 146c 0100     		.2byte	0x1
 14202 146e 50       		.byte	0x50
 14203 146f 06000000 		.4byte	.LVL371
 14204 1473 1A000000 		.4byte	.LVL376
 14205 1477 0400     		.2byte	0x4
 14206 1479 F3       		.byte	0xf3
 14207 147a 01       		.uleb128 0x1
 14208 147b 50       		.byte	0x50
 14209 147c 9F       		.byte	0x9f
 14210 147d 1A000000 		.4byte	.LVL376
 14211 1481 1E000000 		.4byte	.LFE291
 14212 1485 0100     		.2byte	0x1
 14213 1487 54       		.byte	0x54
 14214 1488 00000000 		.4byte	0
 14215 148c 00000000 		.4byte	0
 14216              	.LLST109:
 14217 1490 00000000 		.4byte	.LVL370
 14218 1494 09000000 		.4byte	.LVL372-1
 14219 1498 0100     		.2byte	0x1
 14220 149a 51       		.byte	0x51
 14221 149b 09000000 		.4byte	.LVL372-1
 14222 149f 1E000000 		.4byte	.LFE291
 14223 14a3 0400     		.2byte	0x4
 14224 14a5 F3       		.byte	0xf3
 14225 14a6 01       		.uleb128 0x1
 14226 14a7 51       		.byte	0x51
 14227 14a8 9F       		.byte	0x9f
 14228 14a9 00000000 		.4byte	0
 14229 14ad 00000000 		.4byte	0
 14230              	.LLST110:
 14231 14b1 10000000 		.4byte	.LVL373
 14232 14b5 12000000 		.4byte	.LVL374
 14233 14b9 0300     		.2byte	0x3
 14234 14bb 73       		.byte	0x73
 14235 14bc 58       		.sleb128 -40
 14236 14bd 9F       		.byte	0x9f
 14237 14be 12000000 		.4byte	.LVL374
 14238 14c2 14000000 		.4byte	.LVL375
 14239 14c6 0300     		.2byte	0x3
 14240 14c8 73       		.byte	0x73
 14241 14c9 00       		.sleb128 0
 14242 14ca 9F       		.byte	0x9f
 14243 14cb 14000000 		.4byte	.LVL375
 14244 14cf 1A000000 		.4byte	.LVL376
 14245 14d3 0800     		.2byte	0x8
 14246 14d5 70       		.byte	0x70
 14247 14d6 20       		.sleb128 32
 14248 14d7 94       		.byte	0x94
 14249 14d8 02       		.byte	0x2
 14250 14d9 08       		.byte	0x8
 14251 14da 28       		.byte	0x28
 14252 14db 1C       		.byte	0x1c
 14253 14dc 9F       		.byte	0x9f
 14254 14dd 00000000 		.4byte	0
ARM GAS  C:\Users\jo\AppData\Local\Temp\ccpE7U9z.s 			page 254


 14255 14e1 00000000 		.4byte	0
 14256              	.LLST111:
 14257 14e5 0A000000 		.4byte	.LVL372
 14258 14e9 1C000000 		.4byte	.LVL377
 14259 14ed 0100     		.2byte	0x1
 14260 14ef 50       		.byte	0x50
 14261 14f0 00000000 		.4byte	0
 14262 14f4 00000000 		.4byte	0
 14263              	.LLST112:
 14264 14f8 00000000 		.4byte	.LVL378
 14265 14fc 24000000 		.4byte	.LVL381
 14266 1500 0100     		.2byte	0x1
 14267 1502 50       		.byte	0x50
 14268 1503 24000000 		.4byte	.LVL381
 14269 1507 00010000 		.4byte	.LVL394
 14270 150b 0100     		.2byte	0x1
 14271 150d 54       		.byte	0x54
 14272 150e 00010000 		.4byte	.LVL394
 14273 1512 0A010000 		.4byte	.LVL397
 14274 1516 0100     		.2byte	0x1
 14275 1518 50       		.byte	0x50
 14276 1519 0A010000 		.4byte	.LVL397
 14277 151d 1C010000 		.4byte	.LVL400
 14278 1521 0100     		.2byte	0x1
 14279 1523 54       		.byte	0x54
 14280 1524 1C010000 		.4byte	.LVL400
 14281 1528 1E010000 		.4byte	.LVL401
 14282 152c 0100     		.2byte	0x1
 14283 152e 50       		.byte	0x50
 14284 152f 1E010000 		.4byte	.LVL401
 14285 1533 4C010000 		.4byte	.LFE269
 14286 1537 0100     		.2byte	0x1
 14287 1539 54       		.byte	0x54
 14288 153a 00000000 		.4byte	0
 14289 153e 00000000 		.4byte	0
 14290              	.LLST113:
 14291 1542 00000000 		.4byte	.LVL378
 14292 1546 08000000 		.4byte	.LVL379
 14293 154a 0100     		.2byte	0x1
 14294 154c 51       		.byte	0x51
 14295 154d 08000000 		.4byte	.LVL379
 14296 1551 4C010000 		.4byte	.LFE269
 14297 1555 0100     		.2byte	0x1
 14298 1557 55       		.byte	0x55
 14299 1558 00000000 		.4byte	0
 14300 155c 00000000 		.4byte	0
 14301              	.LLST114:
 14302 1560 00000000 		.4byte	.LVL378
 14303 1564 27000000 		.4byte	.LVL382-1
 14304 1568 0100     		.2byte	0x1
 14305 156a 52       		.byte	0x52
 14306 156b 27000000 		.4byte	.LVL382-1
 14307 156f 00010000 		.4byte	.LVL394
 14308 1573 0400     		.2byte	0x4
 14309 1575 F3       		.byte	0xf3
 14310 1576 01       		.uleb128 0x1
 14311 1577 52       		.byte	0x52
ARM GAS  C:\Users\jo\AppData\Local\Temp\ccpE7U9z.s 			page 255


 14312 1578 9F       		.byte	0x9f
 14313 1579 00010000 		.4byte	.LVL394
 14314 157d 08010000 		.4byte	.LVL396
 14315 1581 0100     		.2byte	0x1
 14316 1583 52       		.byte	0x52
 14317 1584 08010000 		.4byte	.LVL396
 14318 1588 1C010000 		.4byte	.LVL400
 14319 158c 0400     		.2byte	0x4
 14320 158e F3       		.byte	0xf3
 14321 158f 01       		.uleb128 0x1
 14322 1590 52       		.byte	0x52
 14323 1591 9F       		.byte	0x9f
 14324 1592 1C010000 		.4byte	.LVL400
 14325 1596 20010000 		.4byte	.LVL402
 14326 159a 0100     		.2byte	0x1
 14327 159c 52       		.byte	0x52
 14328 159d 20010000 		.4byte	.LVL402
 14329 15a1 4C010000 		.4byte	.LFE269
 14330 15a5 0400     		.2byte	0x4
 14331 15a7 F3       		.byte	0xf3
 14332 15a8 01       		.uleb128 0x1
 14333 15a9 52       		.byte	0x52
 14334 15aa 9F       		.byte	0x9f
 14335 15ab 00000000 		.4byte	0
 14336 15af 00000000 		.4byte	0
 14337              	.LLST115:
 14338 15b3 00000000 		.4byte	.LVL378
 14339 15b7 1A000000 		.4byte	.LVL380
 14340 15bb 0100     		.2byte	0x1
 14341 15bd 53       		.byte	0x53
 14342 15be 1A000000 		.4byte	.LVL380
 14343 15c2 E4000000 		.4byte	.LVL390
 14344 15c6 0100     		.2byte	0x1
 14345 15c8 57       		.byte	0x57
 14346 15c9 E4000000 		.4byte	.LVL390
 14347 15cd EC000000 		.4byte	.LVL391
 14348 15d1 0400     		.2byte	0x4
 14349 15d3 F3       		.byte	0xf3
 14350 15d4 01       		.uleb128 0x1
 14351 15d5 53       		.byte	0x53
 14352 15d6 9F       		.byte	0x9f
 14353 15d7 EC000000 		.4byte	.LVL391
 14354 15db 00010000 		.4byte	.LVL394
 14355 15df 0100     		.2byte	0x1
 14356 15e1 57       		.byte	0x57
 14357 15e2 00010000 		.4byte	.LVL394
 14358 15e6 02010000 		.4byte	.LVL395
 14359 15ea 0100     		.2byte	0x1
 14360 15ec 53       		.byte	0x53
 14361 15ed 02010000 		.4byte	.LVL395
 14362 15f1 1C010000 		.4byte	.LVL400
 14363 15f5 0400     		.2byte	0x4
 14364 15f7 F3       		.byte	0xf3
 14365 15f8 01       		.uleb128 0x1
 14366 15f9 53       		.byte	0x53
 14367 15fa 9F       		.byte	0x9f
 14368 15fb 1C010000 		.4byte	.LVL400
ARM GAS  C:\Users\jo\AppData\Local\Temp\ccpE7U9z.s 			page 256


 14369 15ff 20010000 		.4byte	.LVL402
 14370 1603 0100     		.2byte	0x1
 14371 1605 53       		.byte	0x53
 14372 1606 20010000 		.4byte	.LVL402
 14373 160a 4C010000 		.4byte	.LFE269
 14374 160e 0100     		.2byte	0x1
 14375 1610 57       		.byte	0x57
 14376 1611 00000000 		.4byte	0
 14377 1615 00000000 		.4byte	0
 14378              	.LLST116:
 14379 1619 A0000000 		.4byte	.LVL387
 14380 161d D5000000 		.4byte	.LVL388-1
 14381 1621 0100     		.2byte	0x1
 14382 1623 50       		.byte	0x50
 14383 1624 EC000000 		.4byte	.LVL391
 14384 1628 F6000000 		.4byte	.LVL392
 14385 162c 0100     		.2byte	0x1
 14386 162e 50       		.byte	0x50
 14387 162f FA000000 		.4byte	.LVL393
 14388 1633 00010000 		.4byte	.LVL394
 14389 1637 0100     		.2byte	0x1
 14390 1639 50       		.byte	0x50
 14391 163a 00000000 		.4byte	0
 14392 163e 00000000 		.4byte	0
 14393              	.LLST117:
 14394 1642 32000000 		.4byte	.LVL384
 14395 1646 E4000000 		.4byte	.LVL390
 14396 164a 0100     		.2byte	0x1
 14397 164c 56       		.byte	0x56
 14398 164d EC000000 		.4byte	.LVL391
 14399 1651 00010000 		.4byte	.LVL394
 14400 1655 0100     		.2byte	0x1
 14401 1657 56       		.byte	0x56
 14402 1658 00000000 		.4byte	0
 14403 165c 00000000 		.4byte	0
 14404              	.LLST118:
 14405 1660 28000000 		.4byte	.LVL382
 14406 1664 30000000 		.4byte	.LVL383
 14407 1668 0100     		.2byte	0x1
 14408 166a 50       		.byte	0x50
 14409 166b 20010000 		.4byte	.LVL402
 14410 166f 22010000 		.4byte	.LVL403
 14411 1673 0100     		.2byte	0x1
 14412 1675 50       		.byte	0x50
 14413 1676 00000000 		.4byte	0
 14414 167a 00000000 		.4byte	0
 14415              	.LLST119:
 14416 167e 12010000 		.4byte	.LVL398
 14417 1682 1C010000 		.4byte	.LVL400
 14418 1686 0600     		.2byte	0x6
 14419 1688 03       		.byte	0x3
 14420 1689 9C030000 		.4byte	.LC24
 14421 168d 9F       		.byte	0x9f
 14422 168e 00000000 		.4byte	0
 14423 1692 00000000 		.4byte	0
 14424              	.LLST120:
 14425 1696 00000000 		.4byte	.LVL404
ARM GAS  C:\Users\jo\AppData\Local\Temp\ccpE7U9z.s 			page 257


 14426 169a 06000000 		.4byte	.LVL405
 14427 169e 0100     		.2byte	0x1
 14428 16a0 50       		.byte	0x50
 14429 16a1 06000000 		.4byte	.LVL405
 14430 16a5 0C000000 		.4byte	.LFE292
 14431 16a9 0400     		.2byte	0x4
 14432 16ab F3       		.byte	0xf3
 14433 16ac 01       		.uleb128 0x1
 14434 16ad 50       		.byte	0x50
 14435 16ae 9F       		.byte	0x9f
 14436 16af 00000000 		.4byte	0
 14437 16b3 00000000 		.4byte	0
 14438              		.section	.debug_aranges,"",%progbits
 14439 0000 34010000 		.4byte	0x134
 14440 0004 0200     		.2byte	0x2
 14441 0006 00000000 		.4byte	.Ldebug_info0
 14442 000a 04       		.byte	0x4
 14443 000b 00       		.byte	0
 14444 000c 0000     		.2byte	0
 14445 000e 0000     		.2byte	0
 14446 0010 00000000 		.4byte	.LFB264
 14447 0014 06000000 		.4byte	.LFE264-.LFB264
 14448 0018 00000000 		.4byte	.LFB268
 14449 001c 58000000 		.4byte	.LFE268-.LFB268
 14450 0020 00000000 		.4byte	.LFB297
 14451 0024 28000000 		.4byte	.LFE297-.LFB297
 14452 0028 00000000 		.4byte	.LFB256
 14453 002c 02000000 		.4byte	.LFE256-.LFB256
 14454 0030 00000000 		.4byte	.LFB263
 14455 0034 A4000000 		.4byte	.LFE263-.LFB263
 14456 0038 00000000 		.4byte	.LFB265
 14457 003c D8000000 		.4byte	.LFE265-.LFB265
 14458 0040 00000000 		.4byte	.LFB266
 14459 0044 74000000 		.4byte	.LFE266-.LFB266
 14460 0048 00000000 		.4byte	.LFB267
 14461 004c 9C000000 		.4byte	.LFE267-.LFB267
 14462 0050 00000000 		.4byte	.LFB274
 14463 0054 1C000000 		.4byte	.LFE274-.LFB274
 14464 0058 00000000 		.4byte	.LFB273
 14465 005c 14000000 		.4byte	.LFE273-.LFB273
 14466 0060 00000000 		.4byte	.LFB275
 14467 0064 04000000 		.4byte	.LFE275-.LFB275
 14468 0068 00000000 		.4byte	.LFB276
 14469 006c 28000000 		.4byte	.LFE276-.LFB276
 14470 0070 00000000 		.4byte	.LFB282
 14471 0074 04000000 		.4byte	.LFE282-.LFB282
 14472 0078 00000000 		.4byte	.LFB283
 14473 007c 48000000 		.4byte	.LFE283-.LFB283
 14474 0080 00000000 		.4byte	.LFB284
 14475 0084 44000000 		.4byte	.LFE284-.LFB284
 14476 0088 00000000 		.4byte	.LFB285
 14477 008c 48000000 		.4byte	.LFE285-.LFB285
 14478 0090 00000000 		.4byte	.LFB286
 14479 0094 04000000 		.4byte	.LFE286-.LFB286
 14480 0098 00000000 		.4byte	.LFB287
 14481 009c 50000000 		.4byte	.LFE287-.LFB287
 14482 00a0 00000000 		.4byte	.LFB288
ARM GAS  C:\Users\jo\AppData\Local\Temp\ccpE7U9z.s 			page 258


 14483 00a4 62000000 		.4byte	.LFE288-.LFB288
 14484 00a8 00000000 		.4byte	.LFB270
 14485 00ac B4040000 		.4byte	.LFE270-.LFB270
 14486 00b0 00000000 		.4byte	.LFB289
 14487 00b4 E0000000 		.4byte	.LFE289-.LFB289
 14488 00b8 00000000 		.4byte	.LFB258
 14489 00bc A4010000 		.4byte	.LFE258-.LFB258
 14490 00c0 00000000 		.4byte	.LFB259
 14491 00c4 14000000 		.4byte	.LFE259-.LFB259
 14492 00c8 00000000 		.4byte	.LFB277
 14493 00cc 24000000 		.4byte	.LFE277-.LFB277
 14494 00d0 00000000 		.4byte	.LFB272
 14495 00d4 68000000 		.4byte	.LFE272-.LFB272
 14496 00d8 00000000 		.4byte	.LFB271
 14497 00dc 70000000 		.4byte	.LFE271-.LFB271
 14498 00e0 00000000 		.4byte	.LFB257
 14499 00e4 24000000 		.4byte	.LFE257-.LFB257
 14500 00e8 00000000 		.4byte	.LFB260
 14501 00ec 56000000 		.4byte	.LFE260-.LFB260
 14502 00f0 00000000 		.4byte	.LFB261
 14503 00f4 F8000000 		.4byte	.LFE261-.LFB261
 14504 00f8 00000000 		.4byte	.LFB262
 14505 00fc 06000000 		.4byte	.LFE262-.LFB262
 14506 0100 00000000 		.4byte	.LFB280
 14507 0104 48010000 		.4byte	.LFE280-.LFB280
 14508 0108 00000000 		.4byte	.LFB281
 14509 010c 06000000 		.4byte	.LFE281-.LFB281
 14510 0110 00000000 		.4byte	.LFB290
 14511 0114 18000000 		.4byte	.LFE290-.LFB290
 14512 0118 00000000 		.4byte	.LFB291
 14513 011c 1E000000 		.4byte	.LFE291-.LFB291
 14514 0120 00000000 		.4byte	.LFB269
 14515 0124 4C010000 		.4byte	.LFE269-.LFB269
 14516 0128 00000000 		.4byte	.LFB292
 14517 012c 0C000000 		.4byte	.LFE292-.LFB292
 14518 0130 00000000 		.4byte	0
 14519 0134 00000000 		.4byte	0
 14520              		.section	.debug_ranges,"",%progbits
 14521              	.Ldebug_ranges0:
 14522 0000 36000000 		.4byte	.LBB98
 14523 0004 40000000 		.4byte	.LBE98
 14524 0008 42000000 		.4byte	.LBB101
 14525 000c 44000000 		.4byte	.LBE101
 14526 0010 48000000 		.4byte	.LBB102
 14527 0014 74000000 		.4byte	.LBE102
 14528 0018 00000000 		.4byte	0
 14529 001c 00000000 		.4byte	0
 14530 0020 3C000000 		.4byte	.LBB113
 14531 0024 46000000 		.4byte	.LBE113
 14532 0028 4C000000 		.4byte	.LBB116
 14533 002c 50000000 		.4byte	.LBE116
 14534 0030 00000000 		.4byte	0
 14535 0034 00000000 		.4byte	0
 14536 0038 66010000 		.4byte	.LBB154
 14537 003c 8E010000 		.4byte	.LBE154
 14538 0040 32040000 		.4byte	.LBB174
 14539 0044 5A040000 		.4byte	.LBE174
ARM GAS  C:\Users\jo\AppData\Local\Temp\ccpE7U9z.s 			page 259


 14540 0048 74040000 		.4byte	.LBB176
 14541 004c B4040000 		.4byte	.LBE176
 14542 0050 00000000 		.4byte	0
 14543 0054 00000000 		.4byte	0
 14544 0058 CE010000 		.4byte	.LBB162
 14545 005c 26020000 		.4byte	.LBE162
 14546 0060 F8030000 		.4byte	.LBB173
 14547 0064 32040000 		.4byte	.LBE173
 14548 0068 5A040000 		.4byte	.LBB175
 14549 006c 74040000 		.4byte	.LBE175
 14550 0070 00000000 		.4byte	0
 14551 0074 00000000 		.4byte	0
 14552 0078 18000000 		.4byte	.LBB187
 14553 007c 1A000000 		.4byte	.LBE187
 14554 0080 1E000000 		.4byte	.LBB190
 14555 0084 24000000 		.4byte	.LBE190
 14556 0088 00000000 		.4byte	0
 14557 008c 00000000 		.4byte	0
 14558 0090 20000000 		.4byte	.LBB193
 14559 0094 44000000 		.4byte	.LBE193
 14560 0098 64000000 		.4byte	.LBB196
 14561 009c 68000000 		.4byte	.LBE196
 14562 00a0 00000000 		.4byte	0
 14563 00a4 00000000 		.4byte	0
 14564 00a8 0A000000 		.4byte	.LBB197
 14565 00ac 0E000000 		.4byte	.LBE197
 14566 00b0 12000000 		.4byte	.LBB198
 14567 00b4 14000000 		.4byte	.LBE198
 14568 00b8 28000000 		.4byte	.LBB199
 14569 00bc 70000000 		.4byte	.LBE199
 14570 00c0 00000000 		.4byte	0
 14571 00c4 00000000 		.4byte	0
 14572 00c8 1C000000 		.4byte	.LBB221
 14573 00cc 20000000 		.4byte	.LBE221
 14574 00d0 22000000 		.4byte	.LBB226
 14575 00d4 26000000 		.4byte	.LBE226
 14576 00d8 34000000 		.4byte	.LBB227
 14577 00dc 36000000 		.4byte	.LBE227
 14578 00e0 52000000 		.4byte	.LBB228
 14579 00e4 54000000 		.4byte	.LBE228
 14580 00e8 00000000 		.4byte	0
 14581 00ec 00000000 		.4byte	0
 14582 00f0 22000000 		.4byte	.LBB237
 14583 00f4 30000000 		.4byte	.LBE237
 14584 00f8 20010000 		.4byte	.LBB244
 14585 00fc 4C010000 		.4byte	.LBE244
 14586 0100 00000000 		.4byte	0
 14587 0104 00000000 		.4byte	0
 14588 0108 3E000000 		.4byte	.LBB238
 14589 010c 4C000000 		.4byte	.LBE238
 14590 0110 7A000000 		.4byte	.LBB241
 14591 0114 7E000000 		.4byte	.LBE241
 14592 0118 00000000 		.4byte	0
 14593 011c 00000000 		.4byte	0
 14594 0120 00000000 		.4byte	.LFB264
 14595 0124 06000000 		.4byte	.LFE264
 14596 0128 00000000 		.4byte	.LFB268
ARM GAS  C:\Users\jo\AppData\Local\Temp\ccpE7U9z.s 			page 260


 14597 012c 58000000 		.4byte	.LFE268
 14598 0130 00000000 		.4byte	.LFB297
 14599 0134 28000000 		.4byte	.LFE297
 14600 0138 00000000 		.4byte	.LFB256
 14601 013c 02000000 		.4byte	.LFE256
 14602 0140 00000000 		.4byte	.LFB263
 14603 0144 A4000000 		.4byte	.LFE263
 14604 0148 00000000 		.4byte	.LFB265
 14605 014c D8000000 		.4byte	.LFE265
 14606 0150 00000000 		.4byte	.LFB266
 14607 0154 74000000 		.4byte	.LFE266
 14608 0158 00000000 		.4byte	.LFB267
 14609 015c 9C000000 		.4byte	.LFE267
 14610 0160 00000000 		.4byte	.LFB274
 14611 0164 1C000000 		.4byte	.LFE274
 14612 0168 00000000 		.4byte	.LFB273
 14613 016c 14000000 		.4byte	.LFE273
 14614 0170 00000000 		.4byte	.LFB275
 14615 0174 04000000 		.4byte	.LFE275
 14616 0178 00000000 		.4byte	.LFB276
 14617 017c 28000000 		.4byte	.LFE276
 14618 0180 00000000 		.4byte	.LFB282
 14619 0184 04000000 		.4byte	.LFE282
 14620 0188 00000000 		.4byte	.LFB283
 14621 018c 48000000 		.4byte	.LFE283
 14622 0190 00000000 		.4byte	.LFB284
 14623 0194 44000000 		.4byte	.LFE284
 14624 0198 00000000 		.4byte	.LFB285
 14625 019c 48000000 		.4byte	.LFE285
 14626 01a0 00000000 		.4byte	.LFB286
 14627 01a4 04000000 		.4byte	.LFE286
 14628 01a8 00000000 		.4byte	.LFB287
 14629 01ac 50000000 		.4byte	.LFE287
 14630 01b0 00000000 		.4byte	.LFB288
 14631 01b4 62000000 		.4byte	.LFE288
 14632 01b8 00000000 		.4byte	.LFB270
 14633 01bc B4040000 		.4byte	.LFE270
 14634 01c0 00000000 		.4byte	.LFB289
 14635 01c4 E0000000 		.4byte	.LFE289
 14636 01c8 00000000 		.4byte	.LFB258
 14637 01cc A4010000 		.4byte	.LFE258
 14638 01d0 00000000 		.4byte	.LFB259
 14639 01d4 14000000 		.4byte	.LFE259
 14640 01d8 00000000 		.4byte	.LFB277
 14641 01dc 24000000 		.4byte	.LFE277
 14642 01e0 00000000 		.4byte	.LFB272
 14643 01e4 68000000 		.4byte	.LFE272
 14644 01e8 00000000 		.4byte	.LFB271
 14645 01ec 70000000 		.4byte	.LFE271
 14646 01f0 00000000 		.4byte	.LFB257
 14647 01f4 24000000 		.4byte	.LFE257
 14648 01f8 00000000 		.4byte	.LFB260
 14649 01fc 56000000 		.4byte	.LFE260
 14650 0200 00000000 		.4byte	.LFB261
 14651 0204 F8000000 		.4byte	.LFE261
 14652 0208 00000000 		.4byte	.LFB262
 14653 020c 06000000 		.4byte	.LFE262
ARM GAS  C:\Users\jo\AppData\Local\Temp\ccpE7U9z.s 			page 261


 14654 0210 00000000 		.4byte	.LFB280
 14655 0214 48010000 		.4byte	.LFE280
 14656 0218 00000000 		.4byte	.LFB281
 14657 021c 06000000 		.4byte	.LFE281
 14658 0220 00000000 		.4byte	.LFB290
 14659 0224 18000000 		.4byte	.LFE290
 14660 0228 00000000 		.4byte	.LFB291
 14661 022c 1E000000 		.4byte	.LFE291
 14662 0230 00000000 		.4byte	.LFB269
 14663 0234 4C010000 		.4byte	.LFE269
 14664 0238 00000000 		.4byte	.LFB292
 14665 023c 0C000000 		.4byte	.LFE292
 14666 0240 00000000 		.4byte	0
 14667 0244 00000000 		.4byte	0
 14668              		.section	.debug_line,"",%progbits
 14669              	.Ldebug_line0:
 14670 0000 530D0000 		.section	.debug_str,"MS",%progbits,1
 14670      0200C503 
 14670      00000201 
 14670      FB0E0D00 
 14670      01010101 
 14671              	.LASF53:
 14672 0000 74687265 		.ascii	"threads_queue_t\000"
 14672      6164735F 
 14672      71756575 
 14672      655F7400 
 14673              	.LASF230:
 14674 0010 6C697374 		.ascii	"listen_pcbs\000"
 14674      656E5F70 
 14674      63627300 
 14675              	.LASF289:
 14676 001c 696E7465 		.ascii	"interval\000"
 14676      7276616C 
 14676      00
 14677              	.LASF232:
 14678 0025 73746174 		.ascii	"stats_proto\000"
 14678      735F7072 
 14678      6F746F00 
 14679              	.LASF152:
 14680 0031 6E616D65 		.ascii	"name\000"
 14680      00
 14681              	.LASF361:
 14682 0036 2E2E2F2E 		.ascii	"../../../os/ext/lwip-1.4.1/src/core/tcp.c\000"
 14682      2E2F2E2E 
 14682      2F6F732F 
 14682      6578742F 
 14682      6C776970 
 14683              	.LASF121:
 14684 0060 4D454D50 		.ascii	"MEMP_TCP_PCB_LISTEN\000"
 14684      5F544350 
 14684      5F504342 
 14684      5F4C4953 
 14684      54454E00 
 14685              	.LASF282:
 14686 0074 63736567 		.ascii	"cseg\000"
 14686      00
 14687              	.LASF355:
ARM GAS  C:\Users\jo\AppData\Local\Temp\ccpE7U9z.s 			page 262


 14688 0079 7463705F 		.ascii	"tcp_keepalive\000"
 14688      6B656570 
 14688      616C6976 
 14688      6500
 14689              	.LASF160:
 14690 0087 736F5F6F 		.ascii	"so_options\000"
 14690      7074696F 
 14690      6E7300
 14691              	.LASF90:
 14692 0092 63686172 		.ascii	"char\000"
 14692      00
 14693              	.LASF345:
 14694 0097 63687670 		.ascii	"chvprintf\000"
 14694      72696E74 
 14694      6600
 14695              	.LASF147:
 14696 00a1 6F757470 		.ascii	"output\000"
 14696      757400
 14697              	.LASF35:
 14698 00a8 705F7072 		.ascii	"p_prio\000"
 14698      696F00
 14699              	.LASF304:
 14700 00af 61676169 		.ascii	"again\000"
 14700      6E00
 14701              	.LASF229:
 14702 00b5 75726770 		.ascii	"urgp\000"
 14702      00
 14703              	.LASF261:
 14704 00ba 7463705F 		.ascii	"tcp_process_refused_data\000"
 14704      70726F63 
 14704      6573735F 
 14704      72656675 
 14704      7365645F 
 14705              	.LASF166:
 14706 00d3 706F6C6C 		.ascii	"polltmr\000"
 14706      746D7200 
 14707              	.LASF156:
 14708 00db 7463705F 		.ascii	"tcp_accept_fn\000"
 14708      61636365 
 14708      70745F66 
 14708      6E00
 14709              	.LASF263:
 14710 00e9 7463705F 		.ascii	"tcp_abort\000"
 14710      61626F72 
 14710      7400
 14711              	.LASF31:
 14712 00f3 73797374 		.ascii	"systime_t\000"
 14712      696D655F 
 14712      7400
 14713              	.LASF272:
 14714 00fd 7463705F 		.ascii	"tcp_bind\000"
 14714      62696E64 
 14714      00
 14715              	.LASF100:
 14716 0106 6D5F6F77 		.ascii	"m_owner\000"
 14716      6E657200 
 14717              	.LASF125:
ARM GAS  C:\Users\jo\AppData\Local\Temp\ccpE7U9z.s 			page 263


 14718 010e 4D454D50 		.ascii	"MEMP_NETBUF\000"
 14718      5F4E4554 
 14718      42554600 
 14719              	.LASF219:
 14720 011a 54494D45 		.ascii	"TIME_WAIT\000"
 14720      5F574149 
 14720      5400
 14721              	.LASF312:
 14722 0124 65727266 		.ascii	"errf_arg\000"
 14722      5F617267 
 14722      00
 14723              	.LASF0:
 14724 012d 756E7369 		.ascii	"unsigned int\000"
 14724      676E6564 
 14724      20696E74 
 14724      00
 14725              	.LASF208:
 14726 013a 7463705F 		.ascii	"tcp_connected_fn\000"
 14726      636F6E6E 
 14726      65637465 
 14726      645F666E 
 14726      00
 14727              	.LASF139:
 14728 014b 6E657874 		.ascii	"next\000"
 14728      00
 14729              	.LASF344:
 14730 0150 7463705F 		.ascii	"tcp_pcb_lists\000"
 14730      7063625F 
 14730      6C697374 
 14730      7300
 14731              	.LASF193:
 14732 015e 6F6F7365 		.ascii	"ooseq\000"
 14732      7100
 14733              	.LASF353:
 14734 0164 7463705F 		.ascii	"tcp_zero_window_probe\000"
 14734      7A65726F 
 14734      5F77696E 
 14734      646F775F 
 14734      70726F62 
 14735              	.LASF277:
 14736 017a 6E65775F 		.ascii	"new_right_edge\000"
 14736      72696768 
 14736      745F6564 
 14736      676500
 14737              	.LASF50:
 14738 0189 74687265 		.ascii	"threads_list_t\000"
 14738      6164735F 
 14738      6C697374 
 14738      5F7400
 14739              	.LASF137:
 14740 0198 6572725F 		.ascii	"err_t\000"
 14740      7400
 14741              	.LASF343:
 14742 019e 7463705F 		.ascii	"tcp_persist_backoff\000"
 14742      70657273 
 14742      6973745F 
 14742      6261636B 
ARM GAS  C:\Users\jo\AppData\Local\Temp\ccpE7U9z.s 			page 264


 14742      6F666600 
 14743              	.LASF43:
 14744 01b2 705F7761 		.ascii	"p_waiting\000"
 14744      6974696E 
 14744      6700
 14745              	.LASF10:
 14746 01bc 5F5F696E 		.ascii	"__int32_t\000"
 14746      7433325F 
 14746      7400
 14747              	.LASF103:
 14748 01c6 42617365 		.ascii	"BaseSequentialStreamVMT\000"
 14748      53657175 
 14748      656E7469 
 14748      616C5374 
 14748      7265616D 
 14749              	.LASF309:
 14750 01de 73687574 		.ascii	"shut_tx\000"
 14750      5F747800 
 14751              	.LASF291:
 14752 01e6 70726576 		.ascii	"prev\000"
 14752      00
 14753              	.LASF113:
 14754 01eb 7531365F 		.ascii	"u16_t\000"
 14754      7400
 14755              	.LASF80:
 14756 01f1 76746C69 		.ascii	"vtlist\000"
 14756      737400
 14757              	.LASF172:
 14758 01f8 7263765F 		.ascii	"rcv_ann_right_edge\000"
 14758      616E6E5F 
 14758      72696768 
 14758      745F6564 
 14758      676500
 14759              	.LASF296:
 14760 020b 6572725F 		.ascii	"err_fn\000"
 14760      666E00
 14761              	.LASF56:
 14762 0212 63685F72 		.ascii	"ch_ready_list\000"
 14762      65616479 
 14762      5F6C6973 
 14762      7400
 14763              	.LASF82:
 14764 0220 69646C65 		.ascii	"idle_thread_wa\000"
 14764      5F746872 
 14764      6561645F 
 14764      776100
 14765              	.LASF242:
 14766 022f 73746174 		.ascii	"stats_mem\000"
 14766      735F6D65 
 14766      6D00
 14767              	.LASF362:
 14768 0239 433A5C55 		.ascii	"C:\\Users\\jo\\Documents\\GitHub\\ChibiOS\\demos\\S"
 14768      73657273 
 14768      5C6A6F5C 
 14768      446F6375 
 14768      6D656E74 
 14769 0265 544D3332 		.ascii	"TM32\\RT-STM32F407-DISCOVERY\000"
ARM GAS  C:\Users\jo\AppData\Local\Temp\ccpE7U9z.s 			page 265


 14769      5C52542D 
 14769      53544D33 
 14769      32463430 
 14769      372D4449 
 14770              	.LASF154:
 14771 0281 6E657469 		.ascii	"netif_output_fn\000"
 14771      665F6F75 
 14771      74707574 
 14771      5F666E00 
 14772              	.LASF203:
 14773 0291 6B656570 		.ascii	"keep_cnt_sent\000"
 14773      5F636E74 
 14773      5F73656E 
 14773      7400
 14774              	.LASF131:
 14775 029f 4D454D50 		.ascii	"MEMP_PBUF_POOL\000"
 14775      5F504255 
 14775      465F504F 
 14775      4F4C00
 14776              	.LASF340:
 14777 02ae 6C776970 		.ascii	"lwip_stats\000"
 14777      5F737461 
 14777      747300
 14778              	.LASF205:
 14779 02b9 7463705F 		.ascii	"tcp_sent_fn\000"
 14779      73656E74 
 14779      5F666E00 
 14780              	.LASF301:
 14781 02c5 7273745F 		.ascii	"rst_on_unacked_data\000"
 14781      6F6E5F75 
 14781      6E61636B 
 14781      65645F64 
 14781      61746100 
 14782              	.LASF63:
 14783 02d9 76746675 		.ascii	"vtfunc_t\000"
 14783      6E635F74 
 14783      00
 14784              	.LASF96:
 14785 02e2 77746F62 		.ascii	"wtobjp\000"
 14785      6A7000
 14786              	.LASF298:
 14787 02e9 7463705F 		.ascii	"tcp_pcb_remove\000"
 14787      7063625F 
 14787      72656D6F 
 14787      766500
 14788              	.LASF75:
 14789 02f8 63685F73 		.ascii	"ch_system_debug\000"
 14789      79737465 
 14789      6D5F6465 
 14789      62756700 
 14790              	.LASF246:
 14791 0308 73746174 		.ascii	"stats_syselem\000"
 14791      735F7379 
 14791      73656C65 
 14791      6D00
 14792              	.LASF225:
 14793 0316 7365716E 		.ascii	"seqno\000"
ARM GAS  C:\Users\jo\AppData\Local\Temp\ccpE7U9z.s 			page 266


 14793      6F00
 14794              	.LASF262:
 14795 031c 72656675 		.ascii	"refused_flags\000"
 14795      7365645F 
 14795      666C6167 
 14795      7300
 14796              	.LASF153:
 14797 032a 6E657469 		.ascii	"netif_input_fn\000"
 14797      665F696E 
 14797      7075745F 
 14797      666E00
 14798              	.LASF294:
 14799 0339 7063625F 		.ascii	"pcb_reset\000"
 14799      72657365 
 14799      7400
 14800              	.LASF22:
 14801 0343 75696E74 		.ascii	"uint32_t\000"
 14801      33325F74 
 14801      00
 14802              	.LASF126:
 14803 034c 4D454D50 		.ascii	"MEMP_NETCONN\000"
 14803      5F4E4554 
 14803      434F4E4E 
 14803      00
 14804              	.LASF179:
 14805 0359 63776E64 		.ascii	"cwnd\000"
 14805      00
 14806              	.LASF334:
 14807 035e 7463705F 		.ascii	"tcp_active_pcbs_changed\000"
 14807      61637469 
 14807      76655F70 
 14807      6362735F 
 14807      6368616E 
 14808              	.LASF171:
 14809 0376 7263765F 		.ascii	"rcv_ann_wnd\000"
 14809      616E6E5F 
 14809      776E6400 
 14810              	.LASF30:
 14811 0382 6576656E 		.ascii	"eventmask_t\000"
 14811      746D6173 
 14811      6B5F7400 
 14812              	.LASF58:
 14813 038e 725F7072 		.ascii	"r_prio\000"
 14813      696F00
 14814              	.LASF162:
 14815 0395 61636365 		.ascii	"accept\000"
 14815      707400
 14816              	.LASF127:
 14817 039c 4D454D50 		.ascii	"MEMP_TCPIP_MSG_API\000"
 14817      5F544350 
 14817      49505F4D 
 14817      53475F41 
 14817      504900
 14818              	.LASF270:
 14819 03af 6D61785F 		.ascii	"max_pcb_list\000"
 14819      7063625F 
 14819      6C697374 
ARM GAS  C:\Users\jo\AppData\Local\Temp\ccpE7U9z.s 			page 267


 14819      00
 14820              	.LASF240:
 14821 03bc 6F707465 		.ascii	"opterr\000"
 14821      727200
 14822              	.LASF164:
 14823 03c3 6C6F6361 		.ascii	"local_port\000"
 14823      6C5F706F 
 14823      727400
 14824              	.LASF98:
 14825 03ce 6D757465 		.ascii	"mutex\000"
 14825      7800
 14826              	.LASF252:
 14827 03d4 69705F66 		.ascii	"ip_frag\000"
 14827      72616700 
 14828              	.LASF292:
 14829 03dc 6566665F 		.ascii	"eff_wnd\000"
 14829      776E6400 
 14830              	.LASF28:
 14831 03e4 74707269 		.ascii	"tprio_t\000"
 14831      6F5F7400 
 14832              	.LASF65:
 14833 03ec 63685F76 		.ascii	"ch_virtual_timer\000"
 14833      69727475 
 14833      616C5F74 
 14833      696D6572 
 14833      00
 14834              	.LASF19:
 14835 03fd 696E7431 		.ascii	"int16_t\000"
 14835      365F7400 
 14836              	.LASF151:
 14837 0405 68776164 		.ascii	"hwaddr\000"
 14837      647200
 14838              	.LASF251:
 14839 040c 65746861 		.ascii	"etharp\000"
 14839      727000
 14840              	.LASF220:
 14841 0413 7463705F 		.ascii	"tcp_seg\000"
 14841      73656700 
 14842              	.LASF16:
 14843 041b 6C6F6E67 		.ascii	"long long unsigned int\000"
 14843      206C6F6E 
 14843      6720756E 
 14843      7369676E 
 14843      65642069 
 14844              	.LASF255:
 14845 0432 72656173 		.ascii	"reason\000"
 14845      6F6E00
 14846              	.LASF316:
 14847 0439 696E6163 		.ascii	"inactivity\000"
 14847      74697669 
 14847      747900
 14848              	.LASF354:
 14849 0444 7463705F 		.ascii	"tcp_rexmit_rto\000"
 14849      7265786D 
 14849      69745F72 
 14849      746F00
 14850              	.LASF175:
ARM GAS  C:\Users\jo\AppData\Local\Temp\ccpE7U9z.s 			page 268


 14851 0453 72747365 		.ascii	"rtseq\000"
 14851      7100
 14852              	.LASF8:
 14853 0459 5F5F7569 		.ascii	"__uint16_t\000"
 14853      6E743136 
 14853      5F7400
 14854              	.LASF323:
 14855 0464 6D73735F 		.ascii	"mss_s\000"
 14855      7300
 14856              	.LASF307:
 14857 046a 7463705F 		.ascii	"tcp_shutdown\000"
 14857      73687574 
 14857      646F776E 
 14857      00
 14858              	.LASF320:
 14859 0477 7463705F 		.ascii	"tcp_new\000"
 14859      6E657700 
 14860              	.LASF256:
 14861 047f 7463705F 		.ascii	"tcp_recved\000"
 14861      72656376 
 14861      656400
 14862              	.LASF37:
 14863 048a 705F6E65 		.ascii	"p_newer\000"
 14863      77657200 
 14864              	.LASF72:
 14865 0492 63685F76 		.ascii	"ch_virtual_timers_list\000"
 14865      69727475 
 14865      616C5F74 
 14865      696D6572 
 14865      735F6C69 
 14866              	.LASF68:
 14867 04a9 76745F64 		.ascii	"vt_delta\000"
 14867      656C7461 
 14867      00
 14868              	.LASF169:
 14869 04b2 7263765F 		.ascii	"rcv_nxt\000"
 14869      6E787400 
 14870              	.LASF128:
 14871 04ba 4D454D50 		.ascii	"MEMP_TCPIP_MSG_INPKT\000"
 14871      5F544350 
 14871      49505F4D 
 14871      53475F49 
 14871      4E504B54 
 14872              	.LASF348:
 14873 04cf 6D656D70 		.ascii	"memp_free\000"
 14873      5F667265 
 14873      6500
 14874              	.LASF192:
 14875 04d9 756E6163 		.ascii	"unacked\000"
 14875      6B656400 
 14876              	.LASF249:
 14877 04e1 73746174 		.ascii	"stats_\000"
 14877      735F00
 14878              	.LASF32:
 14879 04e8 74687265 		.ascii	"thread_t\000"
 14879      61645F74 
 14879      00
ARM GAS  C:\Users\jo\AppData\Local\Temp\ccpE7U9z.s 			page 269


 14880              	.LASF33:
 14881 04f1 705F6E65 		.ascii	"p_next\000"
 14881      787400
 14882              	.LASF88:
 14883 04f8 5F5F676E 		.ascii	"__gnuc_va_list\000"
 14883      75635F76 
 14883      615F6C69 
 14883      737400
 14884              	.LASF218:
 14885 0507 4C415354 		.ascii	"LAST_ACK\000"
 14885      5F41434B 
 14885      00
 14886              	.LASF228:
 14887 0510 63686B73 		.ascii	"chksum\000"
 14887      756D00
 14888              	.LASF268:
 14889 0517 69706164 		.ascii	"ipaddr\000"
 14889      647200
 14890              	.LASF94:
 14891 051e 7264796D 		.ascii	"rdymsg\000"
 14891      736700
 14892              	.LASF140:
 14893 0525 7061796C 		.ascii	"payload\000"
 14893      6F616400 
 14894              	.LASF91:
 14895 052d 6F666673 		.ascii	"offset\000"
 14895      657400
 14896              	.LASF293:
 14897 0534 7063625F 		.ascii	"pcb_remove\000"
 14897      72656D6F 
 14897      766500
 14898              	.LASF299:
 14899 053f 7063626C 		.ascii	"pcblist\000"
 14899      69737400 
 14900              	.LASF197:
 14901 0547 636F6E6E 		.ascii	"connected\000"
 14901      65637465 
 14901      6400
 14902              	.LASF107:
 14903 0551 5F426F6F 		.ascii	"_Bool\000"
 14903      6C00
 14904              	.LASF339:
 14905 0557 7463705F 		.ascii	"tcp_tmp_pcb\000"
 14905      746D705F 
 14905      70636200 
 14906              	.LASF325:
 14907 0563 7463705F 		.ascii	"tcp_connect\000"
 14907      636F6E6E 
 14907      65637400 
 14908              	.LASF259:
 14909 056f 7463705F 		.ascii	"tcp_pcb_purge\000"
 14909      7063625F 
 14909      70757267 
 14909      6500
 14910              	.LASF217:
 14911 057d 434C4F53 		.ascii	"CLOSING\000"
 14911      494E4700 
ARM GAS  C:\Users\jo\AppData\Local\Temp\ccpE7U9z.s 			page 270


 14912              	.LASF274:
 14913 0585 6261636B 		.ascii	"backlog\000"
 14913      6C6F6700 
 14914              	.LASF15:
 14915 058d 5F5F7569 		.ascii	"__uint64_t\000"
 14915      6E743634 
 14915      5F7400
 14916              	.LASF132:
 14917 0598 4D454D50 		.ascii	"MEMP_MAX\000"
 14917      5F4D4158 
 14917      00
 14918              	.LASF329:
 14919 05a1 7463705F 		.ascii	"tcp_timer\000"
 14919      74696D65 
 14919      7200
 14920              	.LASF112:
 14921 05ab 73385F74 		.ascii	"s8_t\000"
 14921      00
 14922              	.LASF116:
 14923 05b0 7333325F 		.ascii	"s32_t\000"
 14923      7400
 14924              	.LASF260:
 14925 05b6 7463705F 		.ascii	"tcp_recv_null\000"
 14925      72656376 
 14925      5F6E756C 
 14925      6C00
 14926              	.LASF349:
 14927 05c4 7463705F 		.ascii	"tcp_output\000"
 14927      6F757470 
 14927      757400
 14928              	.LASF184:
 14929 05cf 736E645F 		.ascii	"snd_lbb\000"
 14929      6C626200 
 14930              	.LASF250:
 14931 05d7 6C696E6B 		.ascii	"link\000"
 14931      00
 14932              	.LASF17:
 14933 05dc 696E7438 		.ascii	"int8_t\000"
 14933      5F7400
 14934              	.LASF39:
 14935 05e3 705F6E61 		.ascii	"p_name\000"
 14935      6D6500
 14936              	.LASF106:
 14937 05ea 42617365 		.ascii	"BaseSequentialStream\000"
 14937      53657175 
 14937      656E7469 
 14937      616C5374 
 14937      7265616D 
 14938              	.LASF177:
 14939 05ff 64757061 		.ascii	"dupacks\000"
 14939      636B7300 
 14940              	.LASF163:
 14941 0607 7072696F 		.ascii	"prio\000"
 14941      00
 14942              	.LASF167:
 14943 060c 706F6C6C 		.ascii	"pollinterval\000"
 14943      696E7465 
ARM GAS  C:\Users\jo\AppData\Local\Temp\ccpE7U9z.s 			page 271


 14943      7276616C 
 14943      00
 14944              	.LASF130:
 14945 0619 4D454D50 		.ascii	"MEMP_PBUF\000"
 14945      5F504255 
 14945      4600
 14946              	.LASF342:
 14947 0623 7463705F 		.ascii	"tcp_backoff\000"
 14947      6261636B 
 14947      6F666600 
 14948              	.LASF365:
 14949 062f 63687072 		.ascii	"chprintf\000"
 14949      696E7466 
 14949      00
 14950              	.LASF245:
 14951 0638 696C6C65 		.ascii	"illegal\000"
 14951      67616C00 
 14952              	.LASF117:
 14953 0640 6D656D5F 		.ascii	"mem_size_t\000"
 14953      73697A65 
 14953      5F7400
 14954              	.LASF60:
 14955 064b 725F6E65 		.ascii	"r_newer\000"
 14955      77657200 
 14956              	.LASF73:
 14957 0653 76745F6C 		.ascii	"vt_lasttime\000"
 14957      61737474 
 14957      696D6500 
 14958              	.LASF187:
 14959 065f 61636B65 		.ascii	"acked\000"
 14959      6400
 14960              	.LASF216:
 14961 0665 434C4F53 		.ascii	"CLOSE_WAIT\000"
 14961      455F5741 
 14961      495400
 14962              	.LASF326:
 14963 0670 6F6C645F 		.ascii	"old_local_port\000"
 14963      6C6F6361 
 14963      6C5F706F 
 14963      727400
 14964              	.LASF258:
 14965 067f 776E645F 		.ascii	"wnd_inflation\000"
 14965      696E666C 
 14965      6174696F 
 14965      6E00
 14966              	.LASF14:
 14967 068d 6C6F6E67 		.ascii	"long long int\000"
 14967      206C6F6E 
 14967      6720696E 
 14967      7400
 14968              	.LASF38:
 14969 069b 705F6F6C 		.ascii	"p_older\000"
 14969      64657200 
 14970              	.LASF12:
 14971 06a3 5F5F7569 		.ascii	"__uint32_t\000"
 14971      6E743332 
 14971      5F7400
ARM GAS  C:\Users\jo\AppData\Local\Temp\ccpE7U9z.s 			page 272


 14972              	.LASF195:
 14973 06ae 73656E74 		.ascii	"sent\000"
 14973      00
 14974              	.LASF18:
 14975 06b3 75696E74 		.ascii	"uint8_t\000"
 14975      385F7400 
 14976              	.LASF182:
 14977 06bb 736E645F 		.ascii	"snd_wl1\000"
 14977      776C3100 
 14978              	.LASF183:
 14979 06c3 736E645F 		.ascii	"snd_wl2\000"
 14979      776C3200 
 14980              	.LASF306:
 14981 06cb 7463705F 		.ascii	"tcp_tmr\000"
 14981      746D7200 
 14982              	.LASF281:
 14983 06d3 7463705F 		.ascii	"tcp_seg_copy\000"
 14983      7365675F 
 14983      636F7079 
 14983      00
 14984              	.LASF47:
 14985 06e0 705F6D74 		.ascii	"p_mtxlist\000"
 14985      786C6973 
 14985      7400
 14986              	.LASF207:
 14987 06ea 7463705F 		.ascii	"tcp_err_fn\000"
 14987      6572725F 
 14987      666E00
 14988              	.LASF40:
 14989 06f5 705F7374 		.ascii	"p_state\000"
 14989      61746500 
 14990              	.LASF51:
 14991 06fd 63685F74 		.ascii	"ch_thread\000"
 14991      68726561 
 14991      6400
 14992              	.LASF364:
 14993 0707 7463705F 		.ascii	"tcp_listen_pcbs_t\000"
 14993      6C697374 
 14993      656E5F70 
 14993      6362735F 
 14993      7400
 14994              	.LASF288:
 14995 0719 7463705F 		.ascii	"tcp_poll\000"
 14995      706F6C6C 
 14995      00
 14996              	.LASF350:
 14997 0722 70627566 		.ascii	"pbuf_free\000"
 14997      5F667265 
 14997      6500
 14998              	.LASF110:
 14999 072c 76615F6C 		.ascii	"va_list\000"
 14999      69737400 
 15000              	.LASF74:
 15001 0734 73797374 		.ascii	"system_debug_t\000"
 15001      656D5F64 
 15001      65627567 
 15001      5F7400
ARM GAS  C:\Users\jo\AppData\Local\Temp\ccpE7U9z.s 			page 273


 15002              	.LASF285:
 15003 0743 7463705F 		.ascii	"tcp_sent\000"
 15003      73656E74 
 15003      00
 15004              	.LASF347:
 15005 074c 6D656D70 		.ascii	"memp_malloc\000"
 15005      5F6D616C 
 15005      6C6F6300 
 15006              	.LASF315:
 15007 0758 696E6163 		.ascii	"inactive\000"
 15007      74697665 
 15007      00
 15008              	.LASF280:
 15009 0761 7463705F 		.ascii	"tcp_setprio\000"
 15009      73657470 
 15009      72696F00 
 15010              	.LASF145:
 15011 076d 6E65746D 		.ascii	"netmask\000"
 15011      61736B00 
 15012              	.LASF54:
 15013 0775 63685F74 		.ascii	"ch_threads_queue\000"
 15013      68726561 
 15013      64735F71 
 15013      75657565 
 15013      00
 15014              	.LASF222:
 15015 0786 7463705F 		.ascii	"tcp_pcb_listen\000"
 15015      7063625F 
 15015      6C697374 
 15015      656E00
 15016              	.LASF104:
 15017 0795 77726974 		.ascii	"write\000"
 15017      6500
 15018              	.LASF226:
 15019 079b 61636B6E 		.ascii	"ackno\000"
 15019      6F00
 15020              	.LASF57:
 15021 07a1 725F7175 		.ascii	"r_queue\000"
 15021      65756500 
 15022              	.LASF327:
 15023 07a9 7463705F 		.ascii	"tcp_debug_state_str\000"
 15023      64656275 
 15023      675F7374 
 15023      6174655F 
 15023      73747200 
 15024              	.LASF202:
 15025 07bd 70657273 		.ascii	"persist_backoff\000"
 15025      6973745F 
 15025      6261636B 
 15025      6F666600 
 15026              	.LASF29:
 15027 07cd 6D73675F 		.ascii	"msg_t\000"
 15027      7400
 15028              	.LASF314:
 15029 07d3 7463705F 		.ascii	"tcp_kill_timewait\000"
 15029      6B696C6C 
 15029      5F74696D 
ARM GAS  C:\Users\jo\AppData\Local\Temp\ccpE7U9z.s 			page 274


 15029      65776169 
 15029      7400
 15030              	.LASF120:
 15031 07e5 4D454D50 		.ascii	"MEMP_TCP_PCB\000"
 15031      5F544350 
 15031      5F504342 
 15031      00
 15032              	.LASF111:
 15033 07f2 75385F74 		.ascii	"u8_t\000"
 15033      00
 15034              	.LASF266:
 15035 07f7 7463705F 		.ascii	"tcp_accept_null\000"
 15035      61636365 
 15035      70745F6E 
 15035      756C6C00 
 15036              	.LASF41:
 15037 0807 705F666C 		.ascii	"p_flags\000"
 15037      61677300 
 15038              	.LASF6:
 15039 080f 5F5F696E 		.ascii	"__int16_t\000"
 15039      7431365F 
 15039      7400
 15040              	.LASF303:
 15041 0819 7463705F 		.ascii	"tcp_fasttmr\000"
 15041      66617374 
 15041      746D7200 
 15042              	.LASF93:
 15043 0825 5F5F6170 		.ascii	"__ap\000"
 15043      00
 15044              	.LASF64:
 15045 082a 76697274 		.ascii	"virtual_timer_t\000"
 15045      75616C5F 
 15045      74696D65 
 15045      725F7400 
 15046              	.LASF357:
 15047 083a 6D656D73 		.ascii	"memset\000"
 15047      657400
 15048              	.LASF367:
 15049 0841 7463705F 		.ascii	"tcp_slowtmr_start\000"
 15049      736C6F77 
 15049      746D725F 
 15049      73746172 
 15049      7400
 15050              	.LASF108:
 15051 0853 49544D53 		.ascii	"ITMStreamVMT\000"
 15051      74726561 
 15051      6D564D54 
 15051      00
 15052              	.LASF118:
 15053 0860 4D454D50 		.ascii	"MEMP_RAW_PCB\000"
 15053      5F524157 
 15053      5F504342 
 15053      00
 15054              	.LASF273:
 15055 086d 7463705F 		.ascii	"tcp_listen_with_backlog\000"
 15055      6C697374 
 15055      656E5F77 
ARM GAS  C:\Users\jo\AppData\Local\Temp\ccpE7U9z.s 			page 275


 15055      6974685F 
 15055      6261636B 
 15056              	.LASF286:
 15057 0885 7463705F 		.ascii	"tcp_err\000"
 15057      65727200 
 15058              	.LASF165:
 15059 088d 72656D6F 		.ascii	"remote_port\000"
 15059      74655F70 
 15059      6F727400 
 15060              	.LASF302:
 15061 0899 7463705F 		.ascii	"tcp_close\000"
 15061      636C6F73 
 15061      6500
 15062              	.LASF244:
 15063 08a3 75736564 		.ascii	"used\000"
 15063      00
 15064              	.LASF332:
 15065 08a8 69746D5F 		.ascii	"itm_port\000"
 15065      706F7274 
 15065      00
 15066              	.LASF300:
 15067 08b1 7463705F 		.ascii	"tcp_close_shutdown\000"
 15067      636C6F73 
 15067      655F7368 
 15067      7574646F 
 15067      776E00
 15068              	.LASF336:
 15069 08c4 7463705F 		.ascii	"tcp_listen_pcbs\000"
 15069      6C697374 
 15069      656E5F70 
 15069      63627300 
 15070              	.LASF178:
 15071 08d4 6C617374 		.ascii	"lastack\000"
 15071      61636B00 
 15072              	.LASF278:
 15073 08dc 6E65775F 		.ascii	"new_rcv_ann_wnd\000"
 15073      7263765F 
 15073      616E6E5F 
 15073      776E6400 
 15074              	.LASF366:
 15075 08ec 7463705F 		.ascii	"tcp_init\000"
 15075      696E6974 
 15075      00
 15076              	.LASF235:
 15077 08f5 63686B65 		.ascii	"chkerr\000"
 15077      727200
 15078              	.LASF61:
 15079 08fc 725F6F6C 		.ascii	"r_older\000"
 15079      64657200 
 15080              	.LASF123:
 15081 0904 4D454D50 		.ascii	"MEMP_REASSDATA\000"
 15081      5F524541 
 15081      53534441 
 15081      544100
 15082              	.LASF204:
 15083 0913 7463705F 		.ascii	"tcp_recv_fn\000"
 15083      72656376 
ARM GAS  C:\Users\jo\AppData\Local\Temp\ccpE7U9z.s 			page 276


 15083      5F666E00 
 15084              	.LASF109:
 15085 091f 49544D53 		.ascii	"ITMStream\000"
 15085      74726561 
 15085      6D00
 15086              	.LASF290:
 15087 0929 7463705F 		.ascii	"tcp_slowtmr\000"
 15087      736C6F77 
 15087      746D7200 
 15088              	.LASF198:
 15089 0935 706F6C6C 		.ascii	"poll\000"
 15089      00
 15090              	.LASF45:
 15091 093a 705F6D73 		.ascii	"p_msg\000"
 15091      6700
 15092              	.LASF97:
 15093 0940 65776D61 		.ascii	"ewmask\000"
 15093      736B00
 15094              	.LASF92:
 15095 0947 746D5F63 		.ascii	"tm_calibration_t\000"
 15095      616C6962 
 15095      72617469 
 15095      6F6E5F74 
 15095      00
 15096              	.LASF173:
 15097 0958 7274696D 		.ascii	"rtime\000"
 15097      6500
 15098              	.LASF25:
 15099 095e 746D6F64 		.ascii	"tmode_t\000"
 15099      655F7400 
 15100              	.LASF276:
 15101 0966 7463705F 		.ascii	"tcp_update_rcv_ann_wnd\000"
 15101      75706461 
 15101      74655F72 
 15101      63765F61 
 15101      6E6E5F77 
 15102              	.LASF81:
 15103 097d 6D61696E 		.ascii	"mainthread\000"
 15103      74687265 
 15103      616400
 15104              	.LASF368:
 15105 0988 7463705F 		.ascii	"tcp_timer_needed\000"
 15105      74696D65 
 15105      725F6E65 
 15105      65646564 
 15105      00
 15106              	.LASF321:
 15107 0999 7463705F 		.ascii	"tcp_eff_send_mss\000"
 15107      6566665F 
 15107      73656E64 
 15107      5F6D7373 
 15107      00
 15108              	.LASF150:
 15109 09aa 68776164 		.ascii	"hwaddr_len\000"
 15109      64725F6C 
 15109      656E00
 15110              	.LASF20:
ARM GAS  C:\Users\jo\AppData\Local\Temp\ccpE7U9z.s 			page 277


 15111 09b5 75696E74 		.ascii	"uint16_t\000"
 15111      31365F74 
 15111      00
 15112              	.LASF356:
 15113 09be 7463705F 		.ascii	"tcp_send_fin\000"
 15113      73656E64 
 15113      5F66696E 
 15113      00
 15114              	.LASF199:
 15115 09cb 65727266 		.ascii	"errf\000"
 15115      00
 15116              	.LASF206:
 15117 09d0 7463705F 		.ascii	"tcp_poll_fn\000"
 15117      706F6C6C 
 15117      5F666E00 
 15118              	.LASF1:
 15119 09dc 73697A65 		.ascii	"size_t\000"
 15119      5F7400
 15120              	.LASF287:
 15121 09e3 7463705F 		.ascii	"tcp_accept\000"
 15121      61636365 
 15121      707400
 15122              	.LASF363:
 15123 09ee 7463705F 		.ascii	"tcp_state\000"
 15123      73746174 
 15123      6500
 15124              	.LASF24:
 15125 09f8 7274636E 		.ascii	"rtcnt_t\000"
 15125      745F7400 
 15126              	.LASF279:
 15127 0a00 7463705F 		.ascii	"tcp_seg_free\000"
 15127      7365675F 
 15127      66726565 
 15127      00
 15128              	.LASF264:
 15129 0a0d 7463705F 		.ascii	"tcp_next_iss\000"
 15129      6E657874 
 15129      5F697373 
 15129      00
 15130              	.LASF352:
 15131 0a1a 7463705F 		.ascii	"tcp_rst\000"
 15131      72737400 
 15132              	.LASF317:
 15133 0a22 7463705F 		.ascii	"tcp_kill_prio\000"
 15133      6B696C6C 
 15133      5F707269 
 15133      6F00
 15134              	.LASF359:
 15135 0a30 7463705F 		.ascii	"tcp_enqueue_flags\000"
 15135      656E7175 
 15135      6575655F 
 15135      666C6167 
 15135      7300
 15136              	.LASF143:
 15137 0a42 666C6167 		.ascii	"flags\000"
 15137      7300
 15138              	.LASF48:
ARM GAS  C:\Users\jo\AppData\Local\Temp\ccpE7U9z.s 			page 278


 15139 0a48 705F7265 		.ascii	"p_realprio\000"
 15139      616C7072 
 15139      696F00
 15140              	.LASF209:
 15141 0a53 434C4F53 		.ascii	"CLOSED\000"
 15141      454400
 15142              	.LASF328:
 15143 0a5a 7463705F 		.ascii	"tcp_port\000"
 15143      706F7274 
 15143      00
 15144              	.LASF115:
 15145 0a63 7533325F 		.ascii	"u32_t\000"
 15145      7400
 15146              	.LASF7:
 15147 0a69 73686F72 		.ascii	"short int\000"
 15147      7420696E 
 15147      7400
 15148              	.LASF253:
 15149 0a73 69636D70 		.ascii	"icmp\000"
 15149      00
 15150              	.LASF62:
 15151 0a78 725F6375 		.ascii	"r_current\000"
 15151      7272656E 
 15151      7400
 15152              	.LASF46:
 15153 0a82 705F6570 		.ascii	"p_epending\000"
 15153      656E6469 
 15153      6E6700
 15154              	.LASF99:
 15155 0a8d 6D5F7175 		.ascii	"m_queue\000"
 15155      65756500 
 15156              	.LASF11:
 15157 0a95 6C6F6E67 		.ascii	"long int\000"
 15157      20696E74 
 15157      00
 15158              	.LASF87:
 15159 0a9e 706F7274 		.ascii	"port_intctx\000"
 15159      5F696E74 
 15159      63747800 
 15160              	.LASF86:
 15161 0aaa 636F6E74 		.ascii	"context\000"
 15161      65787400 
 15162              	.LASF238:
 15163 0ab2 72746572 		.ascii	"rterr\000"
 15163      7200
 15164              	.LASF331:
 15165 0ab8 49544D5F 		.ascii	"ITM_RxBuffer\000"
 15165      52784275 
 15165      66666572 
 15165      00
 15166              	.LASF243:
 15167 0ac5 61766169 		.ascii	"avail\000"
 15167      6C00
 15168              	.LASF191:
 15169 0acb 756E7365 		.ascii	"unsent\000"
 15169      6E7400
 15170              	.LASF170:
ARM GAS  C:\Users\jo\AppData\Local\Temp\ccpE7U9z.s 			page 279


 15171 0ad2 7263765F 		.ascii	"rcv_wnd\000"
 15171      776E6400 
 15172              	.LASF174:
 15173 0ada 72747465 		.ascii	"rttest\000"
 15173      737400
 15174              	.LASF313:
 15175 0ae1 6F73616C 		.ascii	"osalSysHalt\000"
 15175      53797348 
 15175      616C7400 
 15176              	.LASF271:
 15177 0aed 63706362 		.ascii	"cpcb\000"
 15177      00
 15178              	.LASF78:
 15179 0af2 63685F73 		.ascii	"ch_system\000"
 15179      79737465 
 15179      6D00
 15180              	.LASF129:
 15181 0afc 4D454D50 		.ascii	"MEMP_SYS_TIMEOUT\000"
 15181      5F535953 
 15181      5F54494D 
 15181      454F5554 
 15181      00
 15182              	.LASF168:
 15183 0b0d 6C617374 		.ascii	"last_timer\000"
 15183      5F74696D 
 15183      657200
 15184              	.LASF119:
 15185 0b18 4D454D50 		.ascii	"MEMP_UDP_PCB\000"
 15185      5F554450 
 15185      5F504342 
 15185      00
 15186              	.LASF158:
 15187 0b25 6C6F6361 		.ascii	"local_ip\000"
 15187      6C5F6970 
 15187      00
 15188              	.LASF36:
 15189 0b2e 705F6374 		.ascii	"p_ctx\000"
 15189      7800
 15190              	.LASF248:
 15191 0b34 6D626F78 		.ascii	"mbox\000"
 15191      00
 15192              	.LASF79:
 15193 0b39 726C6973 		.ascii	"rlist\000"
 15193      7400
 15194              	.LASF190:
 15195 0b3f 756E7365 		.ascii	"unsent_oversize\000"
 15195      6E745F6F 
 15195      76657273 
 15195      697A6500 
 15196              	.LASF211:
 15197 0b4f 53594E5F 		.ascii	"SYN_SENT\000"
 15197      53454E54 
 15197      00
 15198              	.LASF311:
 15199 0b58 72657365 		.ascii	"reset\000"
 15199      7400
 15200              	.LASF181:
ARM GAS  C:\Users\jo\AppData\Local\Temp\ccpE7U9z.s 			page 280


 15201 0b5e 736E645F 		.ascii	"snd_nxt\000"
 15201      6E787400 
 15202              	.LASF4:
 15203 0b66 5F5F7569 		.ascii	"__uint8_t\000"
 15203      6E74385F 
 15203      7400
 15204              	.LASF213:
 15205 0b70 45535441 		.ascii	"ESTABLISHED\000"
 15205      424C4953 
 15205      48454400 
 15206              	.LASF233:
 15207 0b7c 786D6974 		.ascii	"xmit\000"
 15207      00
 15208              	.LASF241:
 15209 0b81 63616368 		.ascii	"cachehit\000"
 15209      65686974 
 15209      00
 15210              	.LASF186:
 15211 0b8a 736E645F 		.ascii	"snd_wnd_max\000"
 15211      776E645F 
 15211      6D617800 
 15212              	.LASF105:
 15213 0b96 72656164 		.ascii	"read\000"
 15213      00
 15214              	.LASF155:
 15215 0b9b 6E657469 		.ascii	"netif_linkoutput_fn\000"
 15215      665F6C69 
 15215      6E6B6F75 
 15215      74707574 
 15215      5F666E00 
 15216              	.LASF124:
 15217 0baf 4D454D50 		.ascii	"MEMP_FRAG_PBUF\000"
 15217      5F465241 
 15217      475F5042 
 15217      554600
 15218              	.LASF324:
 15219 0bbe 6F757469 		.ascii	"outif\000"
 15219      6600
 15220              	.LASF180:
 15221 0bc4 73737468 		.ascii	"ssthresh\000"
 15221      72657368 
 15221      00
 15222              	.LASF351:
 15223 0bcd 70627566 		.ascii	"pbuf_ref\000"
 15223      5F726566 
 15223      00
 15224              	.LASF188:
 15225 0bd6 736E645F 		.ascii	"snd_buf\000"
 15225      62756600 
 15226              	.LASF254:
 15227 0bde 6D656D70 		.ascii	"memp\000"
 15227      00
 15228              	.LASF227:
 15229 0be3 5F686472 		.ascii	"_hdrlen_rsvd_flags\000"
 15229      6C656E5F 
 15229      72737664 
 15229      5F666C61 
ARM GAS  C:\Users\jo\AppData\Local\Temp\ccpE7U9z.s 			page 281


 15229      677300
 15230              	.LASF236:
 15231 0bf6 6C656E65 		.ascii	"lenerr\000"
 15231      727200
 15232              	.LASF34:
 15233 0bfd 705F7072 		.ascii	"p_prev\000"
 15233      657600
 15234              	.LASF83:
 15235 0c04 73697A65 		.ascii	"sizetype\000"
 15235      74797065 
 15235      00
 15236              	.LASF27:
 15237 0c0d 74726566 		.ascii	"trefs_t\000"
 15237      735F7400 
 15238              	.LASF13:
 15239 0c15 6C6F6E67 		.ascii	"long unsigned int\000"
 15239      20756E73 
 15239      69676E65 
 15239      6420696E 
 15239      7400
 15240              	.LASF44:
 15241 0c27 705F6D73 		.ascii	"p_msgqueue\000"
 15241      67717565 
 15241      756500
 15242              	.LASF55:
 15243 0c32 72656164 		.ascii	"ready_list_t\000"
 15243      795F6C69 
 15243      73745F74 
 15243      00
 15244              	.LASF318:
 15245 0c3f 6D707269 		.ascii	"mprio\000"
 15245      6F00
 15246              	.LASF221:
 15247 0c45 74637068 		.ascii	"tcphdr\000"
 15247      647200
 15248              	.LASF114:
 15249 0c4c 7331365F 		.ascii	"s16_t\000"
 15249      7400
 15250              	.LASF21:
 15251 0c52 696E7433 		.ascii	"int32_t\000"
 15251      325F7400 
 15252              	.LASF269:
 15253 0c5a 706F7274 		.ascii	"port\000"
 15253      00
 15254              	.LASF194:
 15255 0c5f 72656675 		.ascii	"refused_data\000"
 15255      7365645F 
 15255      64617461 
 15255      00
 15256              	.LASF52:
 15257 0c6c 63685F74 		.ascii	"ch_threads_list\000"
 15257      68726561 
 15257      64735F6C 
 15257      69737400 
 15258              	.LASF239:
 15259 0c7c 70726F74 		.ascii	"proterr\000"
 15259      65727200 
ARM GAS  C:\Users\jo\AppData\Local\Temp\ccpE7U9z.s 			page 282


 15260              	.LASF146:
 15261 0c84 696E7075 		.ascii	"input\000"
 15261      7400
 15262              	.LASF26:
 15263 0c8a 74737461 		.ascii	"tstate_t\000"
 15263      74655F74 
 15263      00
 15264              	.LASF102:
 15265 0c93 6D757465 		.ascii	"mutex_t\000"
 15265      785F7400 
 15266              	.LASF223:
 15267 0c9b 7463705F 		.ascii	"tcp_hdr\000"
 15267      68647200 
 15268              	.LASF70:
 15269 0ca3 76745F70 		.ascii	"vt_par\000"
 15269      617200
 15270              	.LASF142:
 15271 0caa 74797065 		.ascii	"type\000"
 15271      00
 15272              	.LASF247:
 15273 0caf 73746174 		.ascii	"stats_sys\000"
 15273      735F7379 
 15273      7300
 15274              	.LASF5:
 15275 0cb9 756E7369 		.ascii	"unsigned char\000"
 15275      676E6564 
 15275      20636861 
 15275      7200
 15276              	.LASF84:
 15277 0cc7 72656761 		.ascii	"regarm_t\000"
 15277      726D5F74 
 15277      00
 15278              	.LASF214:
 15279 0cd0 46494E5F 		.ascii	"FIN_WAIT_1\000"
 15279      57414954 
 15279      5F3100
 15280              	.LASF215:
 15281 0cdb 46494E5F 		.ascii	"FIN_WAIT_2\000"
 15281      57414954 
 15281      5F3200
 15282              	.LASF71:
 15283 0ce6 76697274 		.ascii	"virtual_timers_list_t\000"
 15283      75616C5F 
 15283      74696D65 
 15283      72735F6C 
 15283      6973745F 
 15284              	.LASF237:
 15285 0cfc 6D656D65 		.ascii	"memerr\000"
 15285      727200
 15286              	.LASF122:
 15287 0d03 4D454D50 		.ascii	"MEMP_TCP_SEG\000"
 15287      5F544350 
 15287      5F534547 
 15287      00
 15288              	.LASF76:
 15289 0d10 70616E69 		.ascii	"panic_msg\000"
 15289      635F6D73 
ARM GAS  C:\Users\jo\AppData\Local\Temp\ccpE7U9z.s 			page 283


 15289      6700
 15290              	.LASF138:
 15291 0d1a 70627566 		.ascii	"pbuf\000"
 15291      00
 15292              	.LASF335:
 15293 0d1f 7463705F 		.ascii	"tcp_bound_pcbs\000"
 15293      626F756E 
 15293      645F7063 
 15293      627300
 15294              	.LASF200:
 15295 0d2e 6B656570 		.ascii	"keep_idle\000"
 15295      5F69646C 
 15295      6500
 15296              	.LASF267:
 15297 0d38 7463705F 		.ascii	"tcp_new_port\000"
 15297      6E65775F 
 15297      706F7274 
 15297      00
 15298              	.LASF161:
 15299 0d45 63616C6C 		.ascii	"callback_arg\000"
 15299      6261636B 
 15299      5F617267 
 15299      00
 15300              	.LASF210:
 15301 0d52 4C495354 		.ascii	"LISTEN\000"
 15301      454E00
 15302              	.LASF283:
 15303 0d59 7463705F 		.ascii	"tcp_arg\000"
 15303      61726700 
 15304              	.LASF135:
 15305 0d61 61646472 		.ascii	"addr\000"
 15305      00
 15306              	.LASF42:
 15307 0d66 705F7265 		.ascii	"p_refs\000"
 15307      667300
 15308              	.LASF234:
 15309 0d6d 64726F70 		.ascii	"drop\000"
 15309      00
 15310              	.LASF149:
 15311 0d72 73746174 		.ascii	"state\000"
 15311      6500
 15312              	.LASF141:
 15313 0d78 746F745F 		.ascii	"tot_len\000"
 15313      6C656E00 
 15314              	.LASF284:
 15315 0d80 7463705F 		.ascii	"tcp_recv\000"
 15315      72656376 
 15315      00
 15316              	.LASF346:
 15317 0d89 63685379 		.ascii	"chSysHalt\000"
 15317      7348616C 
 15317      7400
 15318              	.LASF66:
 15319 0d93 76745F6E 		.ascii	"vt_next\000"
 15319      65787400 
 15320              	.LASF23:
 15321 0d9b 75696E74 		.ascii	"uint64_t\000"
ARM GAS  C:\Users\jo\AppData\Local\Temp\ccpE7U9z.s 			page 284


 15321      36345F74 
 15321      00
 15322              	.LASF144:
 15323 0da4 6E657469 		.ascii	"netif\000"
 15323      6600
 15324              	.LASF341:
 15325 0daa 7463705F 		.ascii	"tcp_state_str\000"
 15325      73746174 
 15325      655F7374 
 15325      7200
 15326              	.LASF330:
 15327 0db8 7463705F 		.ascii	"tcp_timer_ctr\000"
 15327      74696D65 
 15327      725F6374 
 15327      7200
 15328              	.LASF49:
 15329 0dc6 705F6D70 		.ascii	"p_mpool\000"
 15329      6F6F6C00 
 15330              	.LASF189:
 15331 0dce 736E645F 		.ascii	"snd_queuelen\000"
 15331      71756575 
 15331      656C656E 
 15331      00
 15332              	.LASF77:
 15333 0ddb 63685F73 		.ascii	"ch_system_t\000"
 15333      79737465 
 15333      6D5F7400 
 15334              	.LASF275:
 15335 0de7 6C706362 		.ascii	"lpcb\000"
 15335      00
 15336              	.LASF305:
 15337 0dec 7463705F 		.ascii	"tcp_fasttmr_start\000"
 15337      66617374 
 15337      746D725F 
 15337      73746172 
 15337      7400
 15338              	.LASF89:
 15339 0dfe 5F5F7661 		.ascii	"__va_list\000"
 15339      5F6C6973 
 15339      7400
 15340              	.LASF196:
 15341 0e08 72656376 		.ascii	"recv\000"
 15341      00
 15342              	.LASF101:
 15343 0e0d 6D5F6E65 		.ascii	"m_next\000"
 15343      787400
 15344              	.LASF360:
 15345 0e14 474E5520 		.ascii	"GNU C 4.9.3 20141119 (release) [ARM/embedded-4_9-br"
 15345      4320342E 
 15345      392E3320 
 15345      32303134 
 15345      31313139 
 15346 0e47 616E6368 		.ascii	"anch revision 218278] -mcpu=cortex-m4 -mfloat-abi=h"
 15346      20726576 
 15346      6973696F 
 15346      6E203231 
 15346      38323738 
ARM GAS  C:\Users\jo\AppData\Local\Temp\ccpE7U9z.s 			page 285


 15347 0e7a 61726420 		.ascii	"ard -mfpu=fpv4-sp-d16 -mno-thumb-interwork -mthumb "
 15347      2D6D6670 
 15347      753D6670 
 15347      76342D73 
 15347      702D6431 
 15348 0ead 2D676764 		.ascii	"-ggdb -O2 -fomit-frame-pointer -falign-functions=16"
 15348      62202D4F 
 15348      32202D66 
 15348      6F6D6974 
 15348      2D667261 
 15349 0ee0 202D6666 		.ascii	" -ffunction-sections -fdata-sections -fno-common -f"
 15349      756E6374 
 15349      696F6E2D 
 15349      73656374 
 15349      696F6E73 
 15350 0f13 73696E67 		.ascii	"single-precision-constant\000"
 15350      6C652D70 
 15350      72656369 
 15350      73696F6E 
 15350      2D636F6E 
 15351              	.LASF3:
 15352 0f2d 7369676E 		.ascii	"signed char\000"
 15352      65642063 
 15352      68617200 
 15353              	.LASF157:
 15354 0f39 7463705F 		.ascii	"tcp_pcb\000"
 15354      70636200 
 15355              	.LASF9:
 15356 0f41 73686F72 		.ascii	"short unsigned int\000"
 15356      7420756E 
 15356      7369676E 
 15356      65642069 
 15356      6E7400
 15357              	.LASF59:
 15358 0f54 725F6374 		.ascii	"r_ctx\000"
 15358      7800
 15359              	.LASF85:
 15360 0f5a 73746B61 		.ascii	"stkalign_t\000"
 15360      6C69676E 
 15360      5F7400
 15361              	.LASF2:
 15362 0f65 5F5F696E 		.ascii	"__int8_t\000"
 15362      74385F74 
 15362      00
 15363              	.LASF295:
 15364 0f6e 70636232 		.ascii	"pcb2\000"
 15364      00
 15365              	.LASF185:
 15366 0f73 736E645F 		.ascii	"snd_wnd\000"
 15366      776E6400 
 15367              	.LASF201:
 15368 0f7b 70657273 		.ascii	"persist_cnt\000"
 15368      6973745F 
 15368      636E7400 
 15369              	.LASF159:
 15370 0f87 72656D6F 		.ascii	"remote_ip\000"
 15370      74655F69 
ARM GAS  C:\Users\jo\AppData\Local\Temp\ccpE7U9z.s 			page 286


 15370      7000
 15371              	.LASF69:
 15372 0f91 76745F66 		.ascii	"vt_func\000"
 15372      756E6300 
 15373              	.LASF338:
 15374 0f99 7463705F 		.ascii	"tcp_tw_pcbs\000"
 15374      74775F70 
 15374      63627300 
 15375              	.LASF310:
 15376 0fa5 7463705F 		.ascii	"tcp_abandon\000"
 15376      6162616E 
 15376      646F6E00 
 15377              	.LASF67:
 15378 0fb1 76745F70 		.ascii	"vt_prev\000"
 15378      72657600 
 15379              	.LASF265:
 15380 0fb9 666F726D 		.ascii	"formatted_bytes\000"
 15380      61747465 
 15380      645F6279 
 15380      74657300 
 15381              	.LASF136:
 15382 0fc9 69705F61 		.ascii	"ip_addr_t\000"
 15382      6464725F 
 15382      7400
 15383              	.LASF358:
 15384 0fd3 69705F72 		.ascii	"ip_route\000"
 15384      6F757465 
 15384      00
 15385              	.LASF297:
 15386 0fdc 6572725F 		.ascii	"err_arg\000"
 15386      61726700 
 15387              	.LASF257:
 15388 0fe4 7463705F 		.ascii	"tcp_segs_free\000"
 15388      73656773 
 15388      5F667265 
 15388      6500
 15389              	.LASF133:
 15390 0ff2 6D656D70 		.ascii	"memp_t\000"
 15390      5F7400
 15391              	.LASF319:
 15392 0ff9 7463705F 		.ascii	"tcp_alloc\000"
 15392      616C6C6F 
 15392      6300
 15393              	.LASF337:
 15394 1003 7463705F 		.ascii	"tcp_active_pcbs\000"
 15394      61637469 
 15394      76655F70 
 15394      63627300 
 15395              	.LASF308:
 15396 1013 73687574 		.ascii	"shut_rx\000"
 15396      5F727800 
 15397              	.LASF176:
 15398 101b 6E727478 		.ascii	"nrtx\000"
 15398      00
 15399              	.LASF148:
 15400 1020 6C696E6B 		.ascii	"linkoutput\000"
 15400      6F757470 
ARM GAS  C:\Users\jo\AppData\Local\Temp\ccpE7U9z.s 			page 287


 15400      757400
 15401              	.LASF224:
 15402 102b 64657374 		.ascii	"dest\000"
 15402      00
 15403              	.LASF322:
 15404 1030 73656E64 		.ascii	"sendmss\000"
 15404      6D737300 
 15405              	.LASF212:
 15406 1038 53594E5F 		.ascii	"SYN_RCVD\000"
 15406      52435644 
 15406      00
 15407              	.LASF134:
 15408 1041 69705F61 		.ascii	"ip_addr\000"
 15408      64647200 
 15409              	.LASF231:
 15410 1049 70636273 		.ascii	"pcbs\000"
 15410      00
 15411              	.LASF95:
 15412 104e 65786974 		.ascii	"exitcode\000"
 15412      636F6465 
 15412      00
 15413              	.LASF333:
 15414 1057 7463705F 		.ascii	"tcp_ticks\000"
 15414      7469636B 
 15414      7300
 15415              		.ident	"GCC: (GNU Tools for ARM Embedded Processors) 4.9.3 20141119 (release) [ARM/embedded-4_9-br
ARM GAS  C:\Users\jo\AppData\Local\Temp\ccpE7U9z.s 			page 288


DEFINED SYMBOLS
                            *ABS*:00000000 tcp.c
C:\Users\jo\AppData\Local\Temp\ccpE7U9z.s:21     .text.tcp_accept_null:00000000 $t
C:\Users\jo\AppData\Local\Temp\ccpE7U9z.s:26     .text.tcp_accept_null:00000000 tcp_accept_null
C:\Users\jo\AppData\Local\Temp\ccpE7U9z.s:43     .text.tcp_new_port:00000000 $t
C:\Users\jo\AppData\Local\Temp\ccpE7U9z.s:48     .text.tcp_new_port:00000000 tcp_new_port
C:\Users\jo\AppData\Local\Temp\ccpE7U9z.s:126    .text.tcp_new_port:0000004c $d
C:\Users\jo\AppData\Local\Temp\ccpE7U9z.s:133    .text.chprintf.constprop.4:00000000 $t
C:\Users\jo\AppData\Local\Temp\ccpE7U9z.s:138    .text.chprintf.constprop.4:00000000 chprintf.constprop.4
C:\Users\jo\AppData\Local\Temp\ccpE7U9z.s:184    .text.chprintf.constprop.4:00000020 $d
C:\Users\jo\AppData\Local\Temp\ccpE7U9z.s:190    .text.tcp_init:00000000 $t
C:\Users\jo\AppData\Local\Temp\ccpE7U9z.s:196    .text.tcp_init:00000000 tcp_init
C:\Users\jo\AppData\Local\Temp\ccpE7U9z.s:208    .text.tcp_bind:00000000 $t
C:\Users\jo\AppData\Local\Temp\ccpE7U9z.s:214    .text.tcp_bind:00000000 tcp_bind
C:\Users\jo\AppData\Local\Temp\ccpE7U9z.s:365    .text.tcp_bind:0000008c $d
C:\Users\jo\AppData\Local\Temp\ccpE7U9z.s:375    .text.tcp_listen_with_backlog:00000000 $t
C:\Users\jo\AppData\Local\Temp\ccpE7U9z.s:381    .text.tcp_listen_with_backlog:00000000 tcp_listen_with_backlog
C:\Users\jo\AppData\Local\Temp\ccpE7U9z.s:551    .text.tcp_listen_with_backlog:000000b8 $d
C:\Users\jo\AppData\Local\Temp\ccpE7U9z.s:563    .text.tcp_update_rcv_ann_wnd:00000000 $t
C:\Users\jo\AppData\Local\Temp\ccpE7U9z.s:569    .text.tcp_update_rcv_ann_wnd:00000000 tcp_update_rcv_ann_wnd
C:\Users\jo\AppData\Local\Temp\ccpE7U9z.s:685    .text.tcp_update_rcv_ann_wnd:00000064 $d
C:\Users\jo\AppData\Local\Temp\ccpE7U9z.s:696    .text.tcp_recved:00000000 $t
C:\Users\jo\AppData\Local\Temp\ccpE7U9z.s:702    .text.tcp_recved:00000000 tcp_recved
C:\Users\jo\AppData\Local\Temp\ccpE7U9z.s:838    .text.tcp_recved:00000088 $d
C:\Users\jo\AppData\Local\Temp\ccpE7U9z.s:849    .text.tcp_seg_free:00000000 $t
C:\Users\jo\AppData\Local\Temp\ccpE7U9z.s:855    .text.tcp_seg_free:00000000 tcp_seg_free
C:\Users\jo\AppData\Local\Temp\ccpE7U9z.s:896    .text.tcp_segs_free:00000000 $t
C:\Users\jo\AppData\Local\Temp\ccpE7U9z.s:902    .text.tcp_segs_free:00000000 tcp_segs_free
C:\Users\jo\AppData\Local\Temp\ccpE7U9z.s:940    .text.tcp_setprio:00000000 $t
C:\Users\jo\AppData\Local\Temp\ccpE7U9z.s:946    .text.tcp_setprio:00000000 tcp_setprio
C:\Users\jo\AppData\Local\Temp\ccpE7U9z.s:961    .text.tcp_seg_copy:00000000 $t
C:\Users\jo\AppData\Local\Temp\ccpE7U9z.s:967    .text.tcp_seg_copy:00000000 tcp_seg_copy
C:\Users\jo\AppData\Local\Temp\ccpE7U9z.s:1012   .text.tcp_arg:00000000 $t
C:\Users\jo\AppData\Local\Temp\ccpE7U9z.s:1018   .text.tcp_arg:00000000 tcp_arg
C:\Users\jo\AppData\Local\Temp\ccpE7U9z.s:1033   .text.tcp_recv:00000000 $t
C:\Users\jo\AppData\Local\Temp\ccpE7U9z.s:1039   .text.tcp_recv:00000000 tcp_recv
C:\Users\jo\AppData\Local\Temp\ccpE7U9z.s:1102   .text.tcp_recv:00000038 $d
C:\Users\jo\AppData\Local\Temp\ccpE7U9z.s:1110   .text.tcp_sent:00000000 $t
C:\Users\jo\AppData\Local\Temp\ccpE7U9z.s:1116   .text.tcp_sent:00000000 tcp_sent
C:\Users\jo\AppData\Local\Temp\ccpE7U9z.s:1179   .text.tcp_sent:00000034 $d
C:\Users\jo\AppData\Local\Temp\ccpE7U9z.s:1187   .text.tcp_err:00000000 $t
C:\Users\jo\AppData\Local\Temp\ccpE7U9z.s:1193   .text.tcp_err:00000000 tcp_err
C:\Users\jo\AppData\Local\Temp\ccpE7U9z.s:1256   .text.tcp_err:00000038 $d
C:\Users\jo\AppData\Local\Temp\ccpE7U9z.s:1264   .text.tcp_accept:00000000 $t
C:\Users\jo\AppData\Local\Temp\ccpE7U9z.s:1270   .text.tcp_accept:00000000 tcp_accept
C:\Users\jo\AppData\Local\Temp\ccpE7U9z.s:1285   .text.tcp_poll:00000000 $t
C:\Users\jo\AppData\Local\Temp\ccpE7U9z.s:1291   .text.tcp_poll:00000000 tcp_poll
C:\Users\jo\AppData\Local\Temp\ccpE7U9z.s:1361   .text.tcp_poll:00000040 $d
C:\Users\jo\AppData\Local\Temp\ccpE7U9z.s:1369   .text.tcp_pcb_purge:00000000 $t
C:\Users\jo\AppData\Local\Temp\ccpE7U9z.s:1375   .text.tcp_pcb_purge:00000000 tcp_pcb_purge
C:\Users\jo\AppData\Local\Temp\ccpE7U9z.s:1506   .text.tcp_slowtmr:00000000 $t
C:\Users\jo\AppData\Local\Temp\ccpE7U9z.s:1512   .text.tcp_slowtmr:00000000 tcp_slowtmr
C:\Users\jo\AppData\Local\Temp\ccpE7U9z.s:2045   .text.tcp_slowtmr:000002d4 $d
C:\Users\jo\AppData\Local\Temp\ccpE7U9z.s:2061   .text.tcp_slowtmr:00000308 $t
C:\Users\jo\AppData\Local\Temp\ccpE7U9z.s:2314   .text.tcp_slowtmr:0000048c $d
C:\Users\jo\AppData\Local\Temp\ccpE7U9z.s:2331   .text.tcp_pcb_remove:00000000 $t
C:\Users\jo\AppData\Local\Temp\ccpE7U9z.s:2337   .text.tcp_pcb_remove:00000000 tcp_pcb_remove
ARM GAS  C:\Users\jo\AppData\Local\Temp\ccpE7U9z.s 			page 289


C:\Users\jo\AppData\Local\Temp\ccpE7U9z.s:2511   .text.tcp_pcb_remove:000000c4 $d
C:\Users\jo\AppData\Local\Temp\ccpE7U9z.s:2522   .text.tcp_close_shutdown:00000000 $t
C:\Users\jo\AppData\Local\Temp\ccpE7U9z.s:2527   .text.tcp_close_shutdown:00000000 tcp_close_shutdown
C:\Users\jo\AppData\Local\Temp\ccpE7U9z.s:2561   .text.tcp_close_shutdown:0000001a $d
C:\Users\jo\AppData\Local\Temp\ccpE7U9z.s:2569   .text.tcp_close_shutdown:00000022 $t
C:\Users\jo\AppData\Local\Temp\ccpE7U9z.s:2859   .text.tcp_close_shutdown:0000017c $d
C:\Users\jo\AppData\Local\Temp\ccpE7U9z.s:2873   .text.tcp_close:00000000 $t
C:\Users\jo\AppData\Local\Temp\ccpE7U9z.s:2879   .text.tcp_close:00000000 tcp_close
C:\Users\jo\AppData\Local\Temp\ccpE7U9z.s:2904   .text.tcp_recv_null:00000000 $t
C:\Users\jo\AppData\Local\Temp\ccpE7U9z.s:2910   .text.tcp_recv_null:00000000 tcp_recv_null
C:\Users\jo\AppData\Local\Temp\ccpE7U9z.s:2969   .text.tcp_process_refused_data:00000000 $t
C:\Users\jo\AppData\Local\Temp\ccpE7U9z.s:2975   .text.tcp_process_refused_data:00000000 tcp_process_refused_data
C:\Users\jo\AppData\Local\Temp\ccpE7U9z.s:3095   .text.tcp_fasttmr:00000000 $t
C:\Users\jo\AppData\Local\Temp\ccpE7U9z.s:3101   .text.tcp_fasttmr:00000000 tcp_fasttmr
C:\Users\jo\AppData\Local\Temp\ccpE7U9z.s:3193   .text.tcp_fasttmr:00000064 $d
C:\Users\jo\AppData\Local\Temp\ccpE7U9z.s:3201   .text.tcp_tmr:00000000 $t
C:\Users\jo\AppData\Local\Temp\ccpE7U9z.s:3207   .text.tcp_tmr:00000000 tcp_tmr
C:\Users\jo\AppData\Local\Temp\ccpE7U9z.s:3241   .text.tcp_tmr:00000020 $d
C:\Users\jo\AppData\Local\Temp\ccpE7U9z.s:3246   .text.tcp_shutdown:00000000 $t
C:\Users\jo\AppData\Local\Temp\ccpE7U9z.s:3252   .text.tcp_shutdown:00000000 tcp_shutdown
C:\Users\jo\AppData\Local\Temp\ccpE7U9z.s:3349   .text.tcp_abandon:00000000 $t
C:\Users\jo\AppData\Local\Temp\ccpE7U9z.s:3355   .text.tcp_abandon:00000000 tcp_abandon
C:\Users\jo\AppData\Local\Temp\ccpE7U9z.s:3595   .text.tcp_abandon:000000dc $d
C:\Users\jo\AppData\Local\Temp\ccpE7U9z.s:3608   .text.tcp_abort:00000000 $t
C:\Users\jo\AppData\Local\Temp\ccpE7U9z.s:3614   .text.tcp_abort:00000000 tcp_abort
C:\Users\jo\AppData\Local\Temp\ccpE7U9z.s:3630   .text.tcp_alloc:00000000 $t
C:\Users\jo\AppData\Local\Temp\ccpE7U9z.s:3636   .text.tcp_alloc:00000000 tcp_alloc
C:\Users\jo\AppData\Local\Temp\ccpE7U9z.s:3903   .text.tcp_alloc:00000128 $d
C:\Users\jo\AppData\Local\Temp\ccpE7U9z.s:3915   .text.tcp_new:00000000 $t
C:\Users\jo\AppData\Local\Temp\ccpE7U9z.s:3921   .text.tcp_new:00000000 tcp_new
C:\Users\jo\AppData\Local\Temp\ccpE7U9z.s:3936   .text.tcp_next_iss:00000000 $t
C:\Users\jo\AppData\Local\Temp\ccpE7U9z.s:3942   .text.tcp_next_iss:00000000 tcp_next_iss
C:\Users\jo\AppData\Local\Temp\ccpE7U9z.s:3961   .text.tcp_next_iss:00000010 $d
C:\Users\jo\AppData\Local\Temp\ccpE7U9z.s:3967   .text.tcp_eff_send_mss:00000000 $t
C:\Users\jo\AppData\Local\Temp\ccpE7U9z.s:3973   .text.tcp_eff_send_mss:00000000 tcp_eff_send_mss
C:\Users\jo\AppData\Local\Temp\ccpE7U9z.s:4016   .text.tcp_connect:00000000 $t
C:\Users\jo\AppData\Local\Temp\ccpE7U9z.s:4022   .text.tcp_connect:00000000 tcp_connect
C:\Users\jo\AppData\Local\Temp\ccpE7U9z.s:4276   .text.tcp_connect:00000124 $d
C:\Users\jo\AppData\Local\Temp\ccpE7U9z.s:4291   .text.tcp_debug_state_str:00000000 $t
C:\Users\jo\AppData\Local\Temp\ccpE7U9z.s:4297   .text.tcp_debug_state_str:00000000 tcp_debug_state_str
C:\Users\jo\AppData\Local\Temp\ccpE7U9z.s:4314   .text.tcp_debug_state_str:00000008 $d
C:\Users\jo\AppData\Local\Temp\ccpE7U9z.s:4333   .bss.tcp_active_pcbs_changed:00000000 tcp_active_pcbs_changed
C:\Users\jo\AppData\Local\Temp\ccpE7U9z.s:4535   .bss.tcp_tmp_pcb:00000000 tcp_tmp_pcb
C:\Users\jo\AppData\Local\Temp\ccpE7U9z.s:4364   .rodata.tcp_pcb_lists:00000000 tcp_pcb_lists
C:\Users\jo\AppData\Local\Temp\ccpE7U9z.s:4340   .bss.tcp_tw_pcbs:00000000 tcp_tw_pcbs
C:\Users\jo\AppData\Local\Temp\ccpE7U9z.s:4420   .bss.tcp_active_pcbs:00000000 tcp_active_pcbs
C:\Users\jo\AppData\Local\Temp\ccpE7U9z.s:4406   .bss.tcp_listen_pcbs:00000000 tcp_listen_pcbs
C:\Users\jo\AppData\Local\Temp\ccpE7U9z.s:4562   .bss.tcp_bound_pcbs:00000000 tcp_bound_pcbs
C:\Users\jo\AppData\Local\Temp\ccpE7U9z.s:4549   .rodata.tcp_persist_backoff:00000000 tcp_persist_backoff
C:\Users\jo\AppData\Local\Temp\ccpE7U9z.s:4387   .rodata.tcp_backoff:00000000 tcp_backoff
C:\Users\jo\AppData\Local\Temp\ccpE7U9z.s:4374   .bss.tcp_ticks:00000000 tcp_ticks
C:\Users\jo\AppData\Local\Temp\ccpE7U9z.s:4347   .rodata.tcp_state_str:00000000 tcp_state_str
C:\Users\jo\AppData\Local\Temp\ccpE7U9z.s:4334   .bss.tcp_active_pcbs_changed:00000000 $d
C:\Users\jo\AppData\Local\Temp\ccpE7U9z.s:4336   .bss.tcp_tw_pcbs:00000000 $d
C:\Users\jo\AppData\Local\Temp\ccpE7U9z.s:4343   .rodata.tcp_state_str:00000000 $d
C:\Users\jo\AppData\Local\Temp\ccpE7U9z.s:4360   .rodata.tcp_pcb_lists:00000000 $d
C:\Users\jo\AppData\Local\Temp\ccpE7U9z.s:4370   .bss.tcp_ticks:00000000 $d
ARM GAS  C:\Users\jo\AppData\Local\Temp\ccpE7U9z.s 			page 290


C:\Users\jo\AppData\Local\Temp\ccpE7U9z.s:4380   .bss.tcp_timer:00000000 tcp_timer
C:\Users\jo\AppData\Local\Temp\ccpE7U9z.s:4381   .bss.tcp_timer:00000000 $d
C:\Users\jo\AppData\Local\Temp\ccpE7U9z.s:4383   .rodata.tcp_backoff:00000000 $d
C:\Users\jo\AppData\Local\Temp\ccpE7U9z.s:4402   .bss.tcp_listen_pcbs:00000000 $d
C:\Users\jo\AppData\Local\Temp\ccpE7U9z.s:4409   .data.tcp_port:00000000 $d
C:\Users\jo\AppData\Local\Temp\ccpE7U9z.s:4413   .data.tcp_port:00000000 tcp_port
C:\Users\jo\AppData\Local\Temp\ccpE7U9z.s:4416   .bss.tcp_active_pcbs:00000000 $d
C:\Users\jo\AppData\Local\Temp\ccpE7U9z.s:4426   .bss.tcp_timer_ctr:00000000 tcp_timer_ctr
C:\Users\jo\AppData\Local\Temp\ccpE7U9z.s:4427   .bss.tcp_timer_ctr:00000000 $d
C:\Users\jo\AppData\Local\Temp\ccpE7U9z.s:4429   .rodata.str1.4:00000000 $d
C:\Users\jo\AppData\Local\Temp\ccpE7U9z.s:4531   .bss.tcp_tmp_pcb:00000000 $d
C:\Users\jo\AppData\Local\Temp\ccpE7U9z.s:4538   .data.iss.9250:00000000 $d
C:\Users\jo\AppData\Local\Temp\ccpE7U9z.s:4542   .data.iss.9250:00000000 iss.9250
C:\Users\jo\AppData\Local\Temp\ccpE7U9z.s:4545   .rodata.tcp_persist_backoff:00000000 $d
C:\Users\jo\AppData\Local\Temp\ccpE7U9z.s:4558   .bss.tcp_bound_pcbs:00000000 $d
                     .debug_frame:00000010 $d
C:\Users\jo\AppData\Local\Temp\ccpE7U9z.s:132    .text.tcp_new_port:00000058 $t
C:\Users\jo\AppData\Local\Temp\ccpE7U9z.s:189    .text.chprintf.constprop.4:00000028 $t
C:\Users\jo\AppData\Local\Temp\ccpE7U9z.s:374    .text.tcp_bind:000000a4 $t
C:\Users\jo\AppData\Local\Temp\ccpE7U9z.s:562    .text.tcp_listen_with_backlog:000000d8 $t
C:\Users\jo\AppData\Local\Temp\ccpE7U9z.s:695    .text.tcp_update_rcv_ann_wnd:00000074 $t
C:\Users\jo\AppData\Local\Temp\ccpE7U9z.s:848    .text.tcp_recved:0000009c $t
C:\Users\jo\AppData\Local\Temp\ccpE7U9z.s:1109   .text.tcp_recv:00000048 $t
C:\Users\jo\AppData\Local\Temp\ccpE7U9z.s:1186   .text.tcp_sent:00000044 $t
C:\Users\jo\AppData\Local\Temp\ccpE7U9z.s:1263   .text.tcp_err:00000048 $t
C:\Users\jo\AppData\Local\Temp\ccpE7U9z.s:2330   .text.tcp_slowtmr:000004b4 $t
C:\Users\jo\AppData\Local\Temp\ccpE7U9z.s:2872   .text.tcp_close_shutdown:000001a4 $t
C:\Users\jo\AppData\Local\Temp\ccpE7U9z.s:3245   .text.tcp_tmr:00000024 $t
C:\Users\jo\AppData\Local\Temp\ccpE7U9z.s:3607   .text.tcp_abandon:000000f8 $t
C:\Users\jo\AppData\Local\Temp\ccpE7U9z.s:3914   .text.tcp_alloc:00000148 $t
C:\Users\jo\AppData\Local\Temp\ccpE7U9z.s:3966   .text.tcp_next_iss:00000018 $t
C:\Users\jo\AppData\Local\Temp\ccpE7U9z.s:4290   .text.tcp_connect:0000014c $t
C:\Users\jo\AppData\Local\Temp\ccpE7U9z.s:4329   .text.tcp_debug_state_str:0000000c $t

UNDEFINED SYMBOLS
chvprintf
itm_port
tcp_timer_needed
chSysHalt
memp_malloc
memp_free
tcp_output
pbuf_free
pbuf_ref
tcp_zero_window_probe
tcp_rexmit_rto
tcp_keepalive
tcp_rst
tcp_send_fin
memset
lwip_stats
ip_route
tcp_enqueue_flags
