ARM GAS  C:\Users\jo\AppData\Local\Temp\ccpE7U9z.s 			page 1


   1              		.syntax unified
   2              		.cpu cortex-m4
   3              		.eabi_attribute 27, 3
   4              		.eabi_attribute 28, 1
   5              		.fpu fpv4-sp-d16
   6              		.eabi_attribute 20, 1
   7              		.eabi_attribute 21, 1
   8              		.eabi_attribute 23, 3
   9              		.eabi_attribute 24, 1
  10              		.eabi_attribute 25, 1
  11              		.eabi_attribute 26, 1
  12              		.eabi_attribute 30, 2
  13              		.eabi_attribute 34, 1
  14              		.eabi_attribute 18, 4
  15              		.thumb
  16              		.file	"tcp.c"
  17              		.text
  18              	.Ltext0:
  19              		.cfi_sections	.debug_frame
  20              		.section	.text.tcp_accept_null,"ax",%progbits
  21              		.align	2
  22              		.p2align 4,,15
  23              		.thumb
  24              		.thumb_func
  25              		.type	tcp_accept_null, %function
  26              	tcp_accept_null:
  27              	.LFB264:
  28              		.file 1 "../../../os/ext/lwip-1.4.1/src/core/tcp.c"
  29              		.loc 1 495 0
  30              		.cfi_startproc
  31              		@ args = 0, pretend = 0, frame = 0
  32              		@ frame_needed = 0, uses_anonymous_args = 0
  33              		@ link register save eliminated.
  34              	.LVL0:
  35              		.loc 1 501 0
  36 0000 6FF00900 		mvn	r0, #9
  37              	.LVL1:
  38 0004 7047     		bx	lr
  39              		.cfi_endproc
  40              	.LFE264:
  41              		.size	tcp_accept_null, .-tcp_accept_null
  42 0006 00BFAFF3 		.section	.text.tcp_new_port,"ax",%progbits
  42      0080AFF3 
  42      0080
  43              		.align	2
  44              		.p2align 4,,15
  45              		.thumb
  46              		.thumb_func
  47              		.type	tcp_new_port, %function
  48              	tcp_new_port:
  49              	.LFB268:
  50              		.loc 1 648 0
  51              		.cfi_startproc
  52              		@ args = 0, pretend = 0, frame = 0
  53              		@ frame_needed = 0, uses_anonymous_args = 0
  54              		@ link register save eliminated.
  55              	.LVL2:
ARM GAS  C:\Users\jo\AppData\Local\Temp\ccpE7U9z.s 			page 2


  56 0000 F0B4     		push	{r4, r5, r6, r7}
  57              		.cfi_def_cfa_offset 16
  58              		.cfi_offset 4, -16
  59              		.cfi_offset 5, -12
  60              		.cfi_offset 6, -8
  61              		.cfi_offset 7, -4
  62 0002 124E     		ldr	r6, .L22
  63 0004 124F     		ldr	r7, .L22+4
  64 0006 3088     		ldrh	r0, [r6]
  65              		.loc 1 648 0
  66 0008 4FF48044 		mov	r4, #16384
  67              		.loc 1 654 0
  68 000c 4FF6FF75 		movw	r5, #65535
  69              	.LVL3:
  70              	.L3:
  71 0010 A842     		cmp	r0, r5
  72 0012 18BF     		it	ne
  73 0014 0130     		addne	r0, r0, #1
  74 0016 0F49     		ldr	r1, .L22+8
  75 0018 14BF     		ite	ne
  76 001a 80B2     		uxthne	r0, r0
  77 001c 4FF44040 		moveq	r0, #49152
  78              	.LVL4:
  79              	.L12:
  80              		.loc 1 659 0
  81 0020 51F8043B 		ldr	r3, [r1], #4
  82 0024 1B68     		ldr	r3, [r3]
  83              	.LVL5:
  84 0026 13B9     		cbnz	r3, .L20
  85 0028 0BE0     		b	.L5
  86              	.L9:
  87              		.loc 1 659 0 is_stmt 0 discriminator 2
  88 002a DB68     		ldr	r3, [r3, #12]
  89              	.LVL6:
  90 002c 4BB1     		cbz	r3, .L5
  91              	.L20:
  92              		.loc 1 660 0 is_stmt 1
  93 002e 5A8B     		ldrh	r2, [r3, #26]
  94 0030 8242     		cmp	r2, r0
  95 0032 FAD1     		bne	.L9
  96              	.LVL7:
  97 0034 013C     		subs	r4, r4, #1
  98              	.LVL8:
  99 0036 A4B2     		uxth	r4, r4
 100              		.loc 1 661 0
 101 0038 002C     		cmp	r4, #0
 102 003a E9D1     		bne	.L3
 103 003c 3080     		strh	r0, [r6]	@ movhi
 104              		.loc 1 662 0
 105 003e 2046     		mov	r0, r4
 106 0040 02E0     		b	.L10
 107              	.LVL9:
 108              	.L5:
 109              		.loc 1 658 0 discriminator 2
 110 0042 B942     		cmp	r1, r7
 111 0044 ECD1     		bne	.L12
 112 0046 3080     		strh	r0, [r6]	@ movhi
ARM GAS  C:\Users\jo\AppData\Local\Temp\ccpE7U9z.s 			page 3


 113              	.LVL10:
 114              	.L10:
 115              		.loc 1 669 0
 116 0048 F0BC     		pop	{r4, r5, r6, r7}
 117              		.cfi_restore 7
 118              		.cfi_restore 6
 119              		.cfi_restore 5
 120              		.cfi_restore 4
 121              		.cfi_def_cfa_offset 0
 122 004a 7047     		bx	lr
 123              	.L23:
 124              		.align	2
 125              	.L22:
 126 004c 00000000 		.word	.LANCHOR0
 127 0050 10000000 		.word	.LANCHOR1+16
 128 0054 00000000 		.word	.LANCHOR1
 129              		.cfi_endproc
 130              	.LFE268:
 131              		.size	tcp_new_port, .-tcp_new_port
 132 0058 AFF30080 		.section	.text.chprintf.constprop.4,"ax",%progbits
 132      AFF30080 
 133              		.align	2
 134              		.p2align 4,,15
 135              		.thumb
 136              		.thumb_func
 137              		.type	chprintf.constprop.4, %function
 138              	chprintf.constprop.4:
 139              	.LFB297:
 140              		.file 2 "../../../os/hal/lib/streams/chprintf.h"
 141              		.loc 2 69 0
 142              		.cfi_startproc
 143              		@ args = 4, pretend = 12, frame = 8
 144              		@ frame_needed = 0, uses_anonymous_args = 1
 145              	.LVL11:
 146 0000 0EB4     		push	{r1, r2, r3}
 147              		.cfi_def_cfa_offset 12
 148              		.cfi_offset 1, -12
 149              		.cfi_offset 2, -8
 150              		.cfi_offset 3, -4
 151 0002 00B5     		push	{lr}
 152              		.cfi_def_cfa_offset 16
 153              		.cfi_offset 14, -16
 154 0004 82B0     		sub	sp, sp, #8
 155              		.cfi_def_cfa_offset 24
 156              		.loc 2 73 0
 157 0006 04AB     		add	r3, sp, #16
 158              		.loc 2 74 0
 159 0008 1A46     		mov	r2, r3
 160 000a 0549     		ldr	r1, .L26
 161 000c 0548     		ldr	r0, .L26+4
 162              	.LVL12:
 163              		.loc 2 73 0
 164 000e 0193     		str	r3, [sp, #4]
 165              		.loc 2 74 0
 166 0010 FFF7FEFF 		bl	chvprintf
 167              	.LVL13:
 168              		.loc 2 78 0
ARM GAS  C:\Users\jo\AppData\Local\Temp\ccpE7U9z.s 			page 4


 169 0014 02B0     		add	sp, sp, #8
 170              		.cfi_def_cfa_offset 16
 171              		@ sp needed
 172 0016 5DF804EB 		ldr	lr, [sp], #4
 173              		.cfi_restore 14
 174              		.cfi_def_cfa_offset 12
 175 001a 03B0     		add	sp, sp, #12
 176              		.cfi_restore 3
 177              		.cfi_restore 2
 178              		.cfi_restore 1
 179              		.cfi_def_cfa_offset 0
 180 001c 7047     		bx	lr
 181              	.L27:
 182 001e 00BF     		.align	2
 183              	.L26:
 184 0020 00000000 		.word	.LC0
 185 0024 00000000 		.word	itm_port
 186              		.cfi_endproc
 187              	.LFE297:
 188              		.size	chprintf.constprop.4, .-chprintf.constprop.4
 189 0028 AFF30080 		.section	.text.tcp_init,"ax",%progbits
 189      AFF30080 
 190              		.align	2
 191              		.p2align 4,,15
 192              		.global	tcp_init
 193              		.thumb
 194              		.thumb_func
 195              		.type	tcp_init, %function
 196              	tcp_init:
 197              	.LFB256:
 198              		.loc 1 131 0
 199              		.cfi_startproc
 200              		@ args = 0, pretend = 0, frame = 0
 201              		@ frame_needed = 0, uses_anonymous_args = 0
 202              		@ link register save eliminated.
 203 0000 7047     		bx	lr
 204              		.cfi_endproc
 205              	.LFE256:
 206              		.size	tcp_init, .-tcp_init
 207 0002 00BFAFF3 		.section	.text.tcp_bind,"ax",%progbits
 207      0080AFF3 
 207      0080AFF3 
 207      0080
 208              		.align	2
 209              		.p2align 4,,15
 210              		.global	tcp_bind
 211              		.thumb
 212              		.thumb_func
 213              		.type	tcp_bind, %function
 214              	tcp_bind:
 215              	.LFB263:
 216              		.loc 1 434 0
 217              		.cfi_startproc
 218              		@ args = 0, pretend = 0, frame = 0
 219              		@ frame_needed = 0, uses_anonymous_args = 0
 220              	.LVL14:
 221              		.loc 1 434 0
ARM GAS  C:\Users\jo\AppData\Local\Temp\ccpE7U9z.s 			page 5


 222 0000 F0B5     		push	{r4, r5, r6, r7, lr}
 223              		.cfi_def_cfa_offset 20
 224              		.cfi_offset 4, -20
 225              		.cfi_offset 5, -16
 226              		.cfi_offset 6, -12
 227              		.cfi_offset 7, -8
 228              		.cfi_offset 14, -4
 229              		.loc 1 439 0
 230 0002 037E     		ldrb	r3, [r0, #24]	@ zero_extendqisi2
 231              		.loc 1 434 0
 232 0004 83B0     		sub	sp, sp, #12
 233              		.cfi_def_cfa_offset 32
 234              		.loc 1 434 0
 235 0006 0646     		mov	r6, r0
 236              		.loc 1 439 0
 237 0008 002B     		cmp	r3, #0
 238 000a 31D1     		bne	.L55
 239 000c 0D46     		mov	r5, r1
 240              		.loc 1 452 0
 241 000e 42B3     		cbz	r2, .L56
 242              	.LVL15:
 243              	.L32:
 244 0010 1E49     		ldr	r1, .L57
 245 0012 01F11007 		add	r7, r1, #16
 246              	.LVL16:
 247              	.L36:
 248              		.loc 1 461 0
 249 0016 51F8043B 		ldr	r3, [r1], #4
 250 001a 1B68     		ldr	r3, [r3]
 251              	.LVL17:
 252 001c 13B9     		cbnz	r3, .L35
 253 001e 0FE0     		b	.L33
 254              	.L34:
 255              		.loc 1 461 0 is_stmt 0 discriminator 2
 256 0020 DB68     		ldr	r3, [r3, #12]
 257              	.LVL18:
 258 0022 6BB1     		cbz	r3, .L33
 259              	.L35:
 260              		.loc 1 462 0 is_stmt 1
 261 0024 5C8B     		ldrh	r4, [r3, #26]
 262 0026 9442     		cmp	r4, r2
 263 0028 FAD1     		bne	.L34
 264              		.loc 1 471 0
 265 002a 1868     		ldr	r0, [r3]
 266 002c 20B1     		cbz	r0, .L42
 267              		.loc 1 471 0 is_stmt 0 discriminator 2
 268 002e 1DB1     		cbz	r5, .L42
 269              		.loc 1 472 0 is_stmt 1
 270 0030 2C68     		ldr	r4, [r5]
 271 0032 0CB1     		cbz	r4, .L42
 272              		.loc 1 472 0 is_stmt 0 discriminator 1
 273 0034 A042     		cmp	r0, r4
 274 0036 F3D1     		bne	.L34
 275              	.L42:
 276              		.loc 1 474 0 is_stmt 1
 277 0038 F820     		movs	r0, #248
 278              	.LVL19:
ARM GAS  C:\Users\jo\AppData\Local\Temp\ccpE7U9z.s 			page 6


 279              	.L31:
 280              		.loc 1 488 0
 281 003a 40B2     		sxtb	r0, r0
 282 003c 03B0     		add	sp, sp, #12
 283              		.cfi_remember_state
 284              		.cfi_def_cfa_offset 20
 285              		@ sp needed
 286 003e F0BD     		pop	{r4, r5, r6, r7, pc}
 287              	.LVL20:
 288              	.L33:
 289              		.cfi_restore_state
 290              		.loc 1 460 0 discriminator 2
 291 0040 B942     		cmp	r1, r7
 292 0042 E8D1     		bne	.L36
 293              		.loc 1 481 0
 294 0044 15B1     		cbz	r5, .L37
 295              		.loc 1 481 0 is_stmt 0 discriminator 1
 296 0046 2B68     		ldr	r3, [r5]
 297              	.LVL21:
 298 0048 03B1     		cbz	r3, .L37
 299              		.loc 1 482 0 is_stmt 1
 300 004a 3360     		str	r3, [r6]
 301              	.L37:
 302              		.loc 1 485 0
 303 004c 104B     		ldr	r3, .L57+4
 304              		.loc 1 484 0
 305 004e 7283     		strh	r2, [r6, #26]	@ movhi
 306              		.loc 1 485 0
 307 0050 1A68     		ldr	r2, [r3]
 308              	.LVL22:
 309 0052 F260     		str	r2, [r6, #12]
 310 0054 1E60     		str	r6, [r3]
 311 0056 FFF7FEFF 		bl	tcp_timer_needed
 312              	.LVL23:
 313              		.loc 1 487 0
 314 005a 0020     		movs	r0, #0
 315              		.loc 1 488 0
 316 005c 40B2     		sxtb	r0, r0
 317 005e 03B0     		add	sp, sp, #12
 318              		.cfi_remember_state
 319              		.cfi_def_cfa_offset 20
 320              		@ sp needed
 321 0060 F0BD     		pop	{r4, r5, r6, r7, pc}
 322              	.LVL24:
 323              	.L56:
 324              		.cfi_restore_state
 325              		.loc 1 453 0
 326 0062 FFF7FEFF 		bl	tcp_new_port
 327              	.LVL25:
 328              		.loc 1 454 0
 329 0066 0246     		mov	r2, r0
 330 0068 0028     		cmp	r0, #0
 331 006a D1D1     		bne	.L32
 332              		.loc 1 455 0
 333 006c FE20     		movs	r0, #254
 334              	.LVL26:
 335 006e E4E7     		b	.L31
ARM GAS  C:\Users\jo\AppData\Local\Temp\ccpE7U9z.s 			page 7


 336              	.LVL27:
 337              	.L55:
 338              		.loc 1 439 0 discriminator 1
 339 0070 084B     		ldr	r3, .L57+8
 340 0072 0093     		str	r3, [sp]
 341 0074 0849     		ldr	r1, .L57+12
 342              	.LVL28:
 343 0076 094A     		ldr	r2, .L57+16
 344              	.LVL29:
 345 0078 0948     		ldr	r0, .L57+20
 346              	.LVL30:
 347 007a 40F2B713 		movw	r3, #439
 348 007e FFF7FEFF 		bl	chprintf.constprop.4
 349              	.LVL31:
 350              	.LBB94:
 351              	.LBB95:
 352              		.file 3 "../../../os/hal/osal/rt/osal.h"
 353              		.loc 3 414 0 discriminator 1
 354 0082 0648     		ldr	r0, .L57+16
 355 0084 FFF7FEFF 		bl	chSysHalt
 356              	.LVL32:
 357              	.LBE95:
 358              	.LBE94:
 359              		.loc 1 439 0 discriminator 1
 360 0088 FA20     		movs	r0, #250
 361 008a D6E7     		b	.L31
 362              	.L58:
 363              		.align	2
 364              	.L57:
 365 008c 00000000 		.word	.LANCHOR1
 366 0090 00000000 		.word	.LANCHOR2
 367 0094 50000000 		.word	.LC2
 368 0098 00000000 		.word	.LC0
 369 009c 28000000 		.word	.LC1
 370 00a0 00000000 		.word	itm_port
 371              		.cfi_endproc
 372              	.LFE263:
 373              		.size	tcp_bind, .-tcp_bind
 374 00a4 AFF30080 		.section	.text.tcp_listen_with_backlog,"ax",%progbits
 374      AFF30080 
 374      AFF30080 
 375              		.align	2
 376              		.p2align 4,,15
 377              		.global	tcp_listen_with_backlog
 378              		.thumb
 379              		.thumb_func
 380              		.type	tcp_listen_with_backlog, %function
 381              	tcp_listen_with_backlog:
 382              	.LFB265:
 383              		.loc 1 520 0
 384              		.cfi_startproc
 385              		@ args = 0, pretend = 0, frame = 0
 386              		@ frame_needed = 0, uses_anonymous_args = 0
 387              	.LVL33:
 388 0000 30B5     		push	{r4, r5, lr}
 389              		.cfi_def_cfa_offset 12
 390              		.cfi_offset 4, -12
ARM GAS  C:\Users\jo\AppData\Local\Temp\ccpE7U9z.s 			page 8


 391              		.cfi_offset 5, -8
 392              		.cfi_offset 14, -4
 393              		.loc 1 524 0
 394 0002 037E     		ldrb	r3, [r0, #24]	@ zero_extendqisi2
 395              		.loc 1 520 0
 396 0004 83B0     		sub	sp, sp, #12
 397              		.cfi_def_cfa_offset 24
 398              		.loc 1 520 0
 399 0006 0446     		mov	r4, r0
 400              		.loc 1 524 0
 401 0008 002B     		cmp	r3, #0
 402 000a 47D1     		bne	.L79
 403              		.loc 1 545 0
 404 000c 0320     		movs	r0, #3
 405              	.LVL34:
 406 000e FFF7FEFF 		bl	memp_malloc
 407              	.LVL35:
 408              		.loc 1 546 0
 409 0012 0546     		mov	r5, r0
 410 0014 0028     		cmp	r0, #0
 411 0016 34D0     		beq	.L61
 412              		.loc 1 549 0
 413 0018 2369     		ldr	r3, [r4, #16]
 414              		.loc 1 550 0
 415 001a 628B     		ldrh	r2, [r4, #26]
 416              		.loc 1 549 0
 417 001c 0361     		str	r3, [r0, #16]
 418              		.loc 1 551 0
 419 001e 0123     		movs	r3, #1
 420              		.loc 1 550 0
 421 0020 4283     		strh	r2, [r0, #26]	@ movhi
 422              		.loc 1 551 0
 423 0022 0376     		strb	r3, [r0, #24]
 424              		.loc 1 552 0
 425 0024 637E     		ldrb	r3, [r4, #25]	@ zero_extendqisi2
 426 0026 4376     		strb	r3, [r0, #25]
 427              		.loc 1 554 0
 428 0028 237A     		ldrb	r3, [r4, #8]	@ zero_extendqisi2
 429 002a 43F00203 		orr	r3, r3, #2
 430 002e 0372     		strb	r3, [r0, #8]
 431              		.loc 1 555 0
 432 0030 A37A     		ldrb	r3, [r4, #10]	@ zero_extendqisi2
 433 0032 8372     		strb	r3, [r0, #10]
 434              		.loc 1 556 0
 435 0034 637A     		ldrb	r3, [r4, #9]	@ zero_extendqisi2
 436 0036 4372     		strb	r3, [r0, #9]
 437              		.loc 1 558 0
 438 0038 638B     		ldrh	r3, [r4, #26]
 439              		.loc 1 557 0
 440 003a 2268     		ldr	r2, [r4]
 441 003c 0260     		str	r2, [r0]
 442              		.loc 1 558 0
 443 003e 9BB1     		cbz	r3, .L62
 444              		.loc 1 559 0
 445 0040 1D4B     		ldr	r3, .L84
 446 0042 1A68     		ldr	r2, [r3]
 447 0044 A242     		cmp	r2, r4
ARM GAS  C:\Users\jo\AppData\Local\Temp\ccpE7U9z.s 			page 9


 448 0046 26D0     		beq	.L80
 449              		.loc 1 559 0 is_stmt 0 discriminator 2
 450 0048 1C49     		ldr	r1, .L84+4
 451 004a 0A60     		str	r2, [r1]
 452 004c 52B1     		cbz	r2, .L64
 453              		.loc 1 559 0
 454 004e D368     		ldr	r3, [r2, #12]
 455 0050 A342     		cmp	r3, r4
 456 0052 1ED0     		beq	.L81
 457              		.loc 1 559 0 discriminator 6
 458 0054 2BB1     		cbz	r3, .L82
 459              	.L69:
 460              		.loc 1 559 0 discriminator 9
 461 0056 DA68     		ldr	r2, [r3, #12]
 462 0058 A242     		cmp	r2, r4
 463 005a 14D0     		beq	.L83
 464 005c 1346     		mov	r3, r2
 465              		.loc 1 559 0
 466 005e 002B     		cmp	r3, #0
 467 0060 F9D1     		bne	.L69
 468              	.L82:
 469 0062 0B60     		str	r3, [r1]
 470              	.L64:
 471              		.loc 1 559 0 discriminator 10
 472 0064 0023     		movs	r3, #0
 473 0066 E360     		str	r3, [r4, #12]
 474              	.L62:
 475              		.loc 1 561 0 is_stmt 1
 476 0068 0220     		movs	r0, #2
 477              	.LVL36:
 478 006a 2146     		mov	r1, r4
 479 006c FFF7FEFF 		bl	memp_free
 480              	.LVL37:
 481              		.loc 1 569 0
 482 0070 134B     		ldr	r3, .L84+8
 483              		.loc 1 563 0
 484 0072 144A     		ldr	r2, .L84+12
 485              		.loc 1 569 0
 486 0074 1968     		ldr	r1, [r3]
 487 0076 E960     		str	r1, [r5, #12]
 488              		.loc 1 563 0
 489 0078 6A61     		str	r2, [r5, #20]
 490              		.loc 1 569 0
 491 007a 1D60     		str	r5, [r3]
 492 007c FFF7FEFF 		bl	tcp_timer_needed
 493              	.LVL38:
 494              		.loc 1 570 0
 495 0080 2846     		mov	r0, r5
 496              	.LVL39:
 497              	.L61:
 498              		.loc 1 571 0
 499 0082 03B0     		add	sp, sp, #12
 500              		.cfi_remember_state
 501              		.cfi_def_cfa_offset 12
 502              		@ sp needed
 503 0084 30BD     		pop	{r4, r5, pc}
 504              	.LVL40:
ARM GAS  C:\Users\jo\AppData\Local\Temp\ccpE7U9z.s 			page 10


 505              	.L83:
 506              		.cfi_restore_state
 507 0086 0B60     		str	r3, [r1]
 508              	.L66:
 509              		.loc 1 559 0 discriminator 5
 510 0088 E268     		ldr	r2, [r4, #12]
 511 008a DA60     		str	r2, [r3, #12]
 512 008c 0023     		movs	r3, #0
 513 008e E360     		str	r3, [r4, #12]
 514 0090 EAE7     		b	.L62
 515              	.L81:
 516              		.loc 1 559 0 is_stmt 0
 517 0092 1346     		mov	r3, r2
 518 0094 F8E7     		b	.L66
 519              	.L80:
 520              		.loc 1 559 0 discriminator 1
 521 0096 E268     		ldr	r2, [r4, #12]
 522 0098 1A60     		str	r2, [r3]
 523 009a E3E7     		b	.L64
 524              	.LVL41:
 525              	.L79:
 526              		.loc 1 524 0 is_stmt 1 discriminator 1
 527 009c 0A4B     		ldr	r3, .L84+16
 528 009e 0093     		str	r3, [sp]
 529 00a0 0A49     		ldr	r1, .L84+20
 530              	.LVL42:
 531 00a2 0B4A     		ldr	r2, .L84+24
 532 00a4 0B48     		ldr	r0, .L84+28
 533              	.LVL43:
 534 00a6 4FF40373 		mov	r3, #524
 535 00aa FFF7FEFF 		bl	chprintf.constprop.4
 536              	.LVL44:
 537              	.LBB96:
 538              	.LBB97:
 539              		.loc 3 414 0 discriminator 1
 540 00ae 0848     		ldr	r0, .L84+24
 541 00b0 FFF7FEFF 		bl	chSysHalt
 542              	.LVL45:
 543              	.LBE97:
 544              	.LBE96:
 545              		.loc 1 524 0 discriminator 1
 546 00b4 0020     		movs	r0, #0
 547 00b6 E4E7     		b	.L61
 548              	.L85:
 549              		.align	2
 550              	.L84:
 551 00b8 00000000 		.word	.LANCHOR2
 552 00bc 00000000 		.word	.LANCHOR3
 553 00c0 00000000 		.word	.LANCHOR4
 554 00c4 00000000 		.word	tcp_accept_null
 555 00c8 50000000 		.word	.LC2
 556 00cc 00000000 		.word	.LC0
 557 00d0 7C000000 		.word	.LC3
 558 00d4 00000000 		.word	itm_port
 559              		.cfi_endproc
 560              	.LFE265:
 561              		.size	tcp_listen_with_backlog, .-tcp_listen_with_backlog
ARM GAS  C:\Users\jo\AppData\Local\Temp\ccpE7U9z.s 			page 11


 562 00d8 AFF30080 		.section	.text.tcp_update_rcv_ann_wnd,"ax",%progbits
 562      AFF30080 
 563              		.align	2
 564              		.p2align 4,,15
 565              		.global	tcp_update_rcv_ann_wnd
 566              		.thumb
 567              		.thumb_func
 568              		.type	tcp_update_rcv_ann_wnd, %function
 569              	tcp_update_rcv_ann_wnd:
 570              	.LFB266:
 571              		.loc 1 580 0
 572              		.cfi_startproc
 573              		@ args = 0, pretend = 0, frame = 0
 574              		@ frame_needed = 0, uses_anonymous_args = 0
 575              	.LVL46:
 576 0000 70B5     		push	{r4, r5, r6, lr}
 577              		.cfi_def_cfa_offset 16
 578              		.cfi_offset 4, -16
 579              		.cfi_offset 5, -12
 580              		.cfi_offset 6, -8
 581              		.cfi_offset 14, -4
 582              		.loc 1 583 0
 583 0002 016B     		ldr	r1, [r0, #48]
 584              		.loc 1 581 0
 585 0004 848D     		ldrh	r4, [r0, #44]
 586              		.loc 1 583 0
 587 0006 C28E     		ldrh	r2, [r0, #54]
 588              		.loc 1 581 0
 589 0008 856A     		ldr	r5, [r0, #40]
 590              	.LVL47:
 591              		.loc 1 583 0
 592 000a 40F66836 		movw	r6, #2920
 593              		.loc 1 580 0
 594 000e 0346     		mov	r3, r0
 595 0010 601A     		subs	r0, r4, r1
 596              	.LVL48:
 597              		.loc 1 583 0
 598 0012 B242     		cmp	r2, r6
 599 0014 2844     		add	r0, r0, r5
 600 0016 94BF     		ite	ls
 601 0018 821A     		subls	r2, r0, r2
 602 001a 821B     		subhi	r2, r0, r6
 603 001c 002A     		cmp	r2, #0
 604              		.loc 1 580 0
 605 001e 82B0     		sub	sp, sp, #8
 606              		.cfi_def_cfa_offset 24
 607              		.loc 1 583 0
 608 0020 02DB     		blt	.L88
 609              		.loc 1 585 0
 610 0022 DC85     		strh	r4, [r3, #46]	@ movhi
 611              		.loc 1 600 0
 612 0024 02B0     		add	sp, sp, #8
 613              		.cfi_remember_state
 614              		.cfi_def_cfa_offset 16
 615              		@ sp needed
 616 0026 70BD     		pop	{r4, r5, r6, pc}
 617              	.LVL49:
ARM GAS  C:\Users\jo\AppData\Local\Temp\ccpE7U9z.s 			page 12


 618              	.L88:
 619              		.cfi_restore_state
 620              		.loc 1 588 0
 621 0028 6A1A     		subs	r2, r5, r1
 622 002a 002A     		cmp	r2, #0
 623 002c 03DD     		ble	.L90
 624              		.loc 1 591 0
 625 002e 0020     		movs	r0, #0
 626 0030 D885     		strh	r0, [r3, #46]	@ movhi
 627              		.loc 1 600 0
 628 0032 02B0     		add	sp, sp, #8
 629              		.cfi_remember_state
 630              		.cfi_def_cfa_offset 16
 631              		@ sp needed
 632 0034 70BD     		pop	{r4, r5, r6, pc}
 633              	.LVL50:
 634              	.L90:
 635              		.cfi_restore_state
 636              	.LBB98:
 637              		.loc 1 594 0
 638 0036 4D1B     		subs	r5, r1, r5
 639              	.LVL51:
 640              		.loc 1 595 0
 641 0038 B5F5803F 		cmp	r5, #65536
 642 003c 1C46     		mov	r4, r3
 643              	.LVL52:
 644 003e 03D2     		bcs	.L94
 645              	.LVL53:
 646              	.L91:
 647              	.LBE98:
 648              		.loc 1 598 0
 649 0040 0020     		movs	r0, #0
 650              	.LBB101:
 651              		.loc 1 596 0
 652 0042 E585     		strh	r5, [r4, #46]	@ movhi
 653              	.LBE101:
 654              		.loc 1 600 0
 655 0044 02B0     		add	sp, sp, #8
 656              		.cfi_remember_state
 657              		.cfi_def_cfa_offset 16
 658              		@ sp needed
 659 0046 70BD     		pop	{r4, r5, r6, pc}
 660              	.LVL54:
 661              	.L94:
 662              		.cfi_restore_state
 663              	.LBB102:
 664              		.loc 1 595 0 discriminator 1
 665 0048 064B     		ldr	r3, .L95
 666              	.LVL55:
 667 004a 0093     		str	r3, [sp]
 668              	.LVL56:
 669 004c 0649     		ldr	r1, .L95+4
 670 004e 074A     		ldr	r2, .L95+8
 671 0050 0748     		ldr	r0, .L95+12
 672 0052 40F25323 		movw	r3, #595
 673 0056 FFF7FEFF 		bl	chprintf.constprop.4
 674              	.LVL57:
ARM GAS  C:\Users\jo\AppData\Local\Temp\ccpE7U9z.s 			page 13


 675              	.LBB99:
 676              	.LBB100:
 677              		.loc 3 414 0 discriminator 1
 678 005a 0448     		ldr	r0, .L95+8
 679 005c FFF7FEFF 		bl	chSysHalt
 680              	.LVL58:
 681 0060 EEE7     		b	.L91
 682              	.L96:
 683 0062 00BF     		.align	2
 684              	.L95:
 685 0064 50000000 		.word	.LC2
 686 0068 00000000 		.word	.LC0
 687 006c A0000000 		.word	.LC4
 688 0070 00000000 		.word	itm_port
 689              	.LBE100:
 690              	.LBE99:
 691              	.LBE102:
 692              		.cfi_endproc
 693              	.LFE266:
 694              		.size	tcp_update_rcv_ann_wnd, .-tcp_update_rcv_ann_wnd
 695 0074 AFF30080 		.section	.text.tcp_recved,"ax",%progbits
 695      AFF30080 
 695      AFF30080 
 696              		.align	2
 697              		.p2align 4,,15
 698              		.global	tcp_recved
 699              		.thumb
 700              		.thumb_func
 701              		.type	tcp_recved, %function
 702              	tcp_recved:
 703              	.LFB267:
 704              		.loc 1 612 0
 705              		.cfi_startproc
 706              		@ args = 0, pretend = 0, frame = 0
 707              		@ frame_needed = 0, uses_anonymous_args = 0
 708              	.LVL59:
 709 0000 30B5     		push	{r4, r5, lr}
 710              		.cfi_def_cfa_offset 12
 711              		.cfi_offset 4, -12
 712              		.cfi_offset 5, -8
 713              		.cfi_offset 14, -4
 714              		.loc 1 616 0
 715 0002 037E     		ldrb	r3, [r0, #24]	@ zero_extendqisi2
 716 0004 012B     		cmp	r3, #1
 717              		.loc 1 612 0
 718 0006 83B0     		sub	sp, sp, #12
 719              		.cfi_def_cfa_offset 24
 720              		.loc 1 612 0
 721 0008 0546     		mov	r5, r0
 722 000a 0C46     		mov	r4, r1
 723              		.loc 1 616 0
 724 000c 2ED0     		beq	.L104
 725              	.LVL60:
 726              	.L98:
 727              		.loc 1 618 0
 728 000e AA8D     		ldrh	r2, [r5, #44]
 729 0010 C2F57F43 		rsb	r3, r2, #65280
ARM GAS  C:\Users\jo\AppData\Local\Temp\ccpE7U9z.s 			page 14


 730 0014 FF33     		adds	r3, r3, #255
 731 0016 9C42     		cmp	r4, r3
 732 0018 1ADC     		bgt	.L105
 733              	.L99:
 734              		.loc 1 621 0
 735 001a 1444     		add	r4, r4, r2
 736              		.loc 1 622 0
 737 001c 41F2D063 		movw	r3, #5840
 738              		.loc 1 621 0
 739 0020 A4B2     		uxth	r4, r4
 740              		.loc 1 622 0
 741 0022 9C42     		cmp	r4, r3
 742              		.loc 1 623 0
 743 0024 8CBF     		ite	hi
 744 0026 AB85     		strhhi	r3, [r5, #44]	@ movhi
 745              		.loc 1 621 0
 746 0028 AC85     		strhls	r4, [r5, #44]	@ movhi
 747              		.loc 1 626 0
 748 002a 2846     		mov	r0, r5
 749 002c FFF7FEFF 		bl	tcp_update_rcv_ann_wnd
 750              	.LVL61:
 751              		.loc 1 632 0
 752 0030 40F2B353 		movw	r3, #1459
 753 0034 9842     		cmp	r0, r3
 754 0036 01DC     		bgt	.L106
 755              		.loc 1 639 0
 756 0038 03B0     		add	sp, sp, #12
 757              		.cfi_remember_state
 758              		.cfi_def_cfa_offset 12
 759              		@ sp needed
 760 003a 30BD     		pop	{r4, r5, pc}
 761              	.LVL62:
 762              	.L106:
 763              		.cfi_restore_state
 764              	.LBB113:
 765              	.LBB114:
 766              		.loc 1 633 0
 767 003c AB7F     		ldrb	r3, [r5, #30]	@ zero_extendqisi2
 768              		.loc 1 634 0
 769 003e 2846     		mov	r0, r5
 770              	.LVL63:
 771              		.loc 1 633 0
 772 0040 43F00203 		orr	r3, r3, #2
 773 0044 AB77     		strb	r3, [r5, #30]
 774              	.LBE114:
 775              	.LBE113:
 776              		.loc 1 639 0
 777 0046 03B0     		add	sp, sp, #12
 778              		.cfi_remember_state
 779              		.cfi_def_cfa_offset 12
 780              		@ sp needed
 781 0048 BDE83040 		pop	{r4, r5, lr}
 782              		.cfi_restore 14
 783              		.cfi_restore 5
 784              		.cfi_restore 4
 785              		.cfi_def_cfa_offset 0
 786              	.LVL64:
ARM GAS  C:\Users\jo\AppData\Local\Temp\ccpE7U9z.s 			page 15


 787              	.LBB116:
 788              	.LBB115:
 789              		.loc 1 634 0
 790 004c FFF7FEBF 		b	tcp_output
 791              	.LVL65:
 792              	.L105:
 793              		.cfi_restore_state
 794              	.LBE115:
 795              	.LBE116:
 796              		.loc 1 618 0 discriminator 1
 797 0050 0D4B     		ldr	r3, .L107
 798 0052 0E4A     		ldr	r2, .L107+4
 799 0054 0093     		str	r3, [sp]
 800 0056 0E49     		ldr	r1, .L107+8
 801 0058 0E48     		ldr	r0, .L107+12
 802 005a 40F26B23 		movw	r3, #619
 803 005e FFF7FEFF 		bl	chprintf.constprop.4
 804              	.LVL66:
 805              	.LBB117:
 806              	.LBB118:
 807              		.loc 3 414 0 discriminator 1
 808 0062 0A48     		ldr	r0, .L107+4
 809 0064 FFF7FEFF 		bl	chSysHalt
 810              	.LVL67:
 811 0068 AA8D     		ldrh	r2, [r5, #44]
 812 006a D6E7     		b	.L99
 813              	.LVL68:
 814              	.L104:
 815              	.LBE118:
 816              	.LBE117:
 817              		.loc 1 616 0 discriminator 1
 818 006c 064B     		ldr	r3, .L107
 819 006e 0093     		str	r3, [sp]
 820 0070 0749     		ldr	r1, .L107+8
 821              	.LVL69:
 822 0072 094A     		ldr	r2, .L107+16
 823 0074 0748     		ldr	r0, .L107+12
 824              	.LVL70:
 825 0076 40F26923 		movw	r3, #617
 826 007a FFF7FEFF 		bl	chprintf.constprop.4
 827              	.LVL71:
 828              	.LBB119:
 829              	.LBB120:
 830              		.loc 3 414 0 discriminator 1
 831 007e 0648     		ldr	r0, .L107+16
 832 0080 FFF7FEFF 		bl	chSysHalt
 833              	.LVL72:
 834 0084 C3E7     		b	.L98
 835              	.L108:
 836 0086 00BF     		.align	2
 837              	.L107:
 838 0088 50000000 		.word	.LC2
 839 008c E4000000 		.word	.LC6
 840 0090 00000000 		.word	.LC0
 841 0094 00000000 		.word	itm_port
 842 0098 BC000000 		.word	.LC5
 843              	.LBE120:
ARM GAS  C:\Users\jo\AppData\Local\Temp\ccpE7U9z.s 			page 16


 844              	.LBE119:
 845              		.cfi_endproc
 846              	.LFE267:
 847              		.size	tcp_recved, .-tcp_recved
 848 009c AFF30080 		.section	.text.tcp_seg_free,"ax",%progbits
 849              		.align	2
 850              		.p2align 4,,15
 851              		.global	tcp_seg_free
 852              		.thumb
 853              		.thumb_func
 854              		.type	tcp_seg_free, %function
 855              	tcp_seg_free:
 856              	.LFB274:
 857              		.loc 1 1144 0
 858              		.cfi_startproc
 859              		@ args = 0, pretend = 0, frame = 0
 860              		@ frame_needed = 0, uses_anonymous_args = 0
 861              	.LVL73:
 862              		.loc 1 1145 0
 863 0000 58B1     		cbz	r0, .L116
 864              		.loc 1 1144 0
 865 0002 10B5     		push	{r4, lr}
 866              		.cfi_def_cfa_offset 8
 867              		.cfi_offset 4, -8
 868              		.cfi_offset 14, -4
 869 0004 0446     		mov	r4, r0
 870              		.loc 1 1146 0
 871 0006 4068     		ldr	r0, [r0, #4]
 872              	.LVL74:
 873 0008 08B1     		cbz	r0, .L111
 874              		.loc 1 1147 0
 875 000a FFF7FEFF 		bl	pbuf_free
 876              	.LVL75:
 877              	.L111:
 878              		.loc 1 1152 0
 879 000e 2146     		mov	r1, r4
 880 0010 0420     		movs	r0, #4
 881              		.loc 1 1154 0
 882 0012 BDE81040 		pop	{r4, lr}
 883              		.cfi_restore 14
 884              		.cfi_restore 4
 885              		.cfi_def_cfa_offset 0
 886              	.LVL76:
 887              		.loc 1 1152 0
 888 0016 FFF7FEBF 		b	memp_free
 889              	.LVL77:
 890              	.L116:
 891 001a 7047     		bx	lr
 892              		.cfi_endproc
 893              	.LFE274:
 894              		.size	tcp_seg_free, .-tcp_seg_free
 895              		.section	.text.tcp_segs_free,"ax",%progbits
 896              		.align	2
 897              		.p2align 4,,15
 898              		.global	tcp_segs_free
 899              		.thumb
 900              		.thumb_func
ARM GAS  C:\Users\jo\AppData\Local\Temp\ccpE7U9z.s 			page 17


 901              		.type	tcp_segs_free, %function
 902              	tcp_segs_free:
 903              	.LFB273:
 904              		.loc 1 1129 0
 905              		.cfi_startproc
 906              		@ args = 0, pretend = 0, frame = 0
 907              		@ frame_needed = 0, uses_anonymous_args = 0
 908              	.LVL78:
 909              		.loc 1 1130 0
 910 0000 38B1     		cbz	r0, .L123
 911              		.loc 1 1129 0
 912 0002 10B5     		push	{r4, lr}
 913              		.cfi_def_cfa_offset 8
 914              		.cfi_offset 4, -8
 915              		.cfi_offset 14, -4
 916              	.L119:
 917              	.LBB121:
 918              		.loc 1 1131 0
 919 0004 0468     		ldr	r4, [r0]
 920              	.LVL79:
 921              		.loc 1 1132 0
 922 0006 FFF7FEFF 		bl	tcp_seg_free
 923              	.LVL80:
 924              	.LBE121:
 925              		.loc 1 1130 0
 926 000a 2046     		mov	r0, r4
 927 000c 002C     		cmp	r4, #0
 928 000e F9D1     		bne	.L119
 929 0010 10BD     		pop	{r4, pc}
 930              	.LVL81:
 931              	.L123:
 932              		.cfi_def_cfa_offset 0
 933              		.cfi_restore 4
 934              		.cfi_restore 14
 935 0012 7047     		bx	lr
 936              		.cfi_endproc
 937              	.LFE273:
 938              		.size	tcp_segs_free, .-tcp_segs_free
 939 0014 AFF30080 		.section	.text.tcp_setprio,"ax",%progbits
 939      AFF30080 
 939      AFF30080 
 940              		.align	2
 941              		.p2align 4,,15
 942              		.global	tcp_setprio
 943              		.thumb
 944              		.thumb_func
 945              		.type	tcp_setprio, %function
 946              	tcp_setprio:
 947              	.LFB275:
 948              		.loc 1 1164 0
 949              		.cfi_startproc
 950              		@ args = 0, pretend = 0, frame = 0
 951              		@ frame_needed = 0, uses_anonymous_args = 0
 952              		@ link register save eliminated.
 953              	.LVL82:
 954              		.loc 1 1165 0
 955 0000 4176     		strb	r1, [r0, #25]
ARM GAS  C:\Users\jo\AppData\Local\Temp\ccpE7U9z.s 			page 18


 956 0002 7047     		bx	lr
 957              		.cfi_endproc
 958              	.LFE275:
 959              		.size	tcp_setprio, .-tcp_setprio
 960 0004 AFF30080 		.section	.text.tcp_seg_copy,"ax",%progbits
 960      AFF30080 
 960      AFF30080 
 961              		.align	2
 962              		.p2align 4,,15
 963              		.global	tcp_seg_copy
 964              		.thumb
 965              		.thumb_func
 966              		.type	tcp_seg_copy, %function
 967              	tcp_seg_copy:
 968              	.LFB276:
 969              		.loc 1 1178 0
 970              		.cfi_startproc
 971              		@ args = 0, pretend = 0, frame = 0
 972              		@ frame_needed = 0, uses_anonymous_args = 0
 973              	.LVL83:
 974 0000 38B5     		push	{r3, r4, r5, lr}
 975              		.cfi_def_cfa_offset 16
 976              		.cfi_offset 3, -16
 977              		.cfi_offset 4, -12
 978              		.cfi_offset 5, -8
 979              		.cfi_offset 14, -4
 980              		.loc 1 1178 0
 981 0002 0546     		mov	r5, r0
 982              		.loc 1 1181 0
 983 0004 0420     		movs	r0, #4
 984              	.LVL84:
 985 0006 FFF7FEFF 		bl	memp_malloc
 986              	.LVL85:
 987              		.loc 1 1182 0
 988 000a 0446     		mov	r4, r0
 989 000c 50B1     		cbz	r0, .L126
 990              		.loc 1 1185 0
 991 000e 6868     		ldr	r0, [r5, #4]	@ unaligned
 992              	.LVL86:
 993 0010 2968     		ldr	r1, [r5]	@ unaligned
 994 0012 AA68     		ldr	r2, [r5, #8]	@ unaligned
 995 0014 EB68     		ldr	r3, [r5, #12]	@ unaligned
 996 0016 6060     		str	r0, [r4, #4]	@ unaligned
 997 0018 2160     		str	r1, [r4]	@ unaligned
 998 001a A260     		str	r2, [r4, #8]	@ unaligned
 999 001c E360     		str	r3, [r4, #12]	@ unaligned
 1000              		.loc 1 1186 0
 1001 001e 6068     		ldr	r0, [r4, #4]
 1002 0020 FFF7FEFF 		bl	pbuf_ref
 1003              	.LVL87:
 1004              	.L126:
 1005              		.loc 1 1188 0
 1006 0024 2046     		mov	r0, r4
 1007 0026 38BD     		pop	{r3, r4, r5, pc}
 1008              		.cfi_endproc
 1009              	.LFE276:
 1010              		.size	tcp_seg_copy, .-tcp_seg_copy
ARM GAS  C:\Users\jo\AppData\Local\Temp\ccpE7U9z.s 			page 19


 1011 0028 AFF30080 		.section	.text.tcp_arg,"ax",%progbits
 1011      AFF30080 
 1012              		.align	2
 1013              		.p2align 4,,15
 1014              		.global	tcp_arg
 1015              		.thumb
 1016              		.thumb_func
 1017              		.type	tcp_arg, %function
 1018              	tcp_arg:
 1019              	.LFB282:
 1020              		.loc 1 1377 0
 1021              		.cfi_startproc
 1022              		@ args = 0, pretend = 0, frame = 0
 1023              		@ frame_needed = 0, uses_anonymous_args = 0
 1024              		@ link register save eliminated.
 1025              	.LVL88:
 1026              		.loc 1 1380 0
 1027 0000 0161     		str	r1, [r0, #16]
 1028 0002 7047     		bx	lr
 1029              		.cfi_endproc
 1030              	.LFE282:
 1031              		.size	tcp_arg, .-tcp_arg
 1032 0004 AFF30080 		.section	.text.tcp_recv,"ax",%progbits
 1032      AFF30080 
 1032      AFF30080 
 1033              		.align	2
 1034              		.p2align 4,,15
 1035              		.global	tcp_recv
 1036              		.thumb
 1037              		.thumb_func
 1038              		.type	tcp_recv, %function
 1039              	tcp_recv:
 1040              	.LFB283:
 1041              		.loc 1 1393 0
 1042              		.cfi_startproc
 1043              		@ args = 0, pretend = 0, frame = 0
 1044              		@ frame_needed = 0, uses_anonymous_args = 0
 1045              	.LVL89:
 1046 0000 30B5     		push	{r4, r5, lr}
 1047              		.cfi_def_cfa_offset 12
 1048              		.cfi_offset 4, -12
 1049              		.cfi_offset 5, -8
 1050              		.cfi_offset 14, -4
 1051              		.loc 1 1394 0
 1052 0002 037E     		ldrb	r3, [r0, #24]	@ zero_extendqisi2
 1053 0004 012B     		cmp	r3, #1
 1054              		.loc 1 1393 0
 1055 0006 83B0     		sub	sp, sp, #12
 1056              		.cfi_def_cfa_offset 24
 1057              		.loc 1 1393 0
 1058 0008 0446     		mov	r4, r0
 1059 000a 0D46     		mov	r5, r1
 1060              		.loc 1 1394 0
 1061 000c 03D0     		beq	.L135
 1062              		.loc 1 1395 0
 1063 000e C4F88050 		str	r5, [r4, #128]
 1064              		.loc 1 1396 0
ARM GAS  C:\Users\jo\AppData\Local\Temp\ccpE7U9z.s 			page 20


 1065 0012 03B0     		add	sp, sp, #12
 1066              		.cfi_remember_state
 1067              		.cfi_def_cfa_offset 12
 1068              		@ sp needed
 1069 0014 30BD     		pop	{r4, r5, pc}
 1070              	.L135:
 1071              		.cfi_restore_state
 1072              		.loc 1 1394 0 discriminator 1
 1073 0016 084B     		ldr	r3, .L136
 1074 0018 0093     		str	r3, [sp]
 1075 001a 0849     		ldr	r1, .L136+4
 1076              	.LVL90:
 1077 001c 084A     		ldr	r2, .L136+8
 1078 001e 0948     		ldr	r0, .L136+12
 1079              	.LVL91:
 1080 0020 40F27253 		movw	r3, #1394
 1081 0024 FFF7FEFF 		bl	chprintf.constprop.4
 1082              	.LVL92:
 1083              	.LBB122:
 1084              	.LBB123:
 1085              		.loc 3 414 0 discriminator 1
 1086 0028 0548     		ldr	r0, .L136+8
 1087 002a FFF7FEFF 		bl	chSysHalt
 1088              	.LVL93:
 1089              	.LBE123:
 1090              	.LBE122:
 1091              		.loc 1 1395 0 discriminator 1
 1092 002e C4F88050 		str	r5, [r4, #128]
 1093              		.loc 1 1396 0 discriminator 1
 1094 0032 03B0     		add	sp, sp, #12
 1095              		.cfi_def_cfa_offset 12
 1096              		@ sp needed
 1097 0034 30BD     		pop	{r4, r5, pc}
 1098              	.LVL94:
 1099              	.L137:
 1100 0036 00BF     		.align	2
 1101              	.L136:
 1102 0038 50000000 		.word	.LC2
 1103 003c 00000000 		.word	.LC0
 1104 0040 08010000 		.word	.LC7
 1105 0044 00000000 		.word	itm_port
 1106              		.cfi_endproc
 1107              	.LFE283:
 1108              		.size	tcp_recv, .-tcp_recv
 1109 0048 AFF30080 		.section	.text.tcp_sent,"ax",%progbits
 1109      AFF30080 
 1110              		.align	2
 1111              		.p2align 4,,15
 1112              		.global	tcp_sent
 1113              		.thumb
 1114              		.thumb_func
 1115              		.type	tcp_sent, %function
 1116              	tcp_sent:
 1117              	.LFB284:
 1118              		.loc 1 1407 0
 1119              		.cfi_startproc
 1120              		@ args = 0, pretend = 0, frame = 0
ARM GAS  C:\Users\jo\AppData\Local\Temp\ccpE7U9z.s 			page 21


 1121              		@ frame_needed = 0, uses_anonymous_args = 0
 1122              	.LVL95:
 1123 0000 30B5     		push	{r4, r5, lr}
 1124              		.cfi_def_cfa_offset 12
 1125              		.cfi_offset 4, -12
 1126              		.cfi_offset 5, -8
 1127              		.cfi_offset 14, -4
 1128              		.loc 1 1408 0
 1129 0002 037E     		ldrb	r3, [r0, #24]	@ zero_extendqisi2
 1130 0004 012B     		cmp	r3, #1
 1131              		.loc 1 1407 0
 1132 0006 83B0     		sub	sp, sp, #12
 1133              		.cfi_def_cfa_offset 24
 1134              		.loc 1 1407 0
 1135 0008 0446     		mov	r4, r0
 1136 000a 0D46     		mov	r5, r1
 1137              		.loc 1 1408 0
 1138 000c 02D0     		beq	.L141
 1139              		.loc 1 1409 0
 1140 000e E567     		str	r5, [r4, #124]
 1141              		.loc 1 1410 0
 1142 0010 03B0     		add	sp, sp, #12
 1143              		.cfi_remember_state
 1144              		.cfi_def_cfa_offset 12
 1145              		@ sp needed
 1146 0012 30BD     		pop	{r4, r5, pc}
 1147              	.L141:
 1148              		.cfi_restore_state
 1149              		.loc 1 1408 0 discriminator 1
 1150 0014 074B     		ldr	r3, .L142
 1151 0016 0093     		str	r3, [sp]
 1152 0018 0749     		ldr	r1, .L142+4
 1153              	.LVL96:
 1154 001a 084A     		ldr	r2, .L142+8
 1155 001c 0848     		ldr	r0, .L142+12
 1156              	.LVL97:
 1157 001e 4FF4B063 		mov	r3, #1408
 1158 0022 FFF7FEFF 		bl	chprintf.constprop.4
 1159              	.LVL98:
 1160              	.LBB124:
 1161              	.LBB125:
 1162              		.loc 3 414 0 discriminator 1
 1163 0026 0548     		ldr	r0, .L142+8
 1164 0028 FFF7FEFF 		bl	chSysHalt
 1165              	.LVL99:
 1166              	.LBE125:
 1167              	.LBE124:
 1168              		.loc 1 1409 0 discriminator 1
 1169 002c E567     		str	r5, [r4, #124]
 1170              		.loc 1 1410 0 discriminator 1
 1171 002e 03B0     		add	sp, sp, #12
 1172              		.cfi_def_cfa_offset 12
 1173              		@ sp needed
 1174 0030 30BD     		pop	{r4, r5, pc}
 1175              	.LVL100:
 1176              	.L143:
 1177 0032 00BF     		.align	2
ARM GAS  C:\Users\jo\AppData\Local\Temp\ccpE7U9z.s 			page 22


 1178              	.L142:
 1179 0034 50000000 		.word	.LC2
 1180 0038 00000000 		.word	.LC0
 1181 003c 30010000 		.word	.LC8
 1182 0040 00000000 		.word	itm_port
 1183              		.cfi_endproc
 1184              	.LFE284:
 1185              		.size	tcp_sent, .-tcp_sent
 1186 0044 AFF30080 		.section	.text.tcp_err,"ax",%progbits
 1186      AFF30080 
 1186      AFF30080 
 1187              		.align	2
 1188              		.p2align 4,,15
 1189              		.global	tcp_err
 1190              		.thumb
 1191              		.thumb_func
 1192              		.type	tcp_err, %function
 1193              	tcp_err:
 1194              	.LFB285:
 1195              		.loc 1 1422 0
 1196              		.cfi_startproc
 1197              		@ args = 0, pretend = 0, frame = 0
 1198              		@ frame_needed = 0, uses_anonymous_args = 0
 1199              	.LVL101:
 1200 0000 30B5     		push	{r4, r5, lr}
 1201              		.cfi_def_cfa_offset 12
 1202              		.cfi_offset 4, -12
 1203              		.cfi_offset 5, -8
 1204              		.cfi_offset 14, -4
 1205              		.loc 1 1423 0
 1206 0002 037E     		ldrb	r3, [r0, #24]	@ zero_extendqisi2
 1207 0004 012B     		cmp	r3, #1
 1208              		.loc 1 1422 0
 1209 0006 83B0     		sub	sp, sp, #12
 1210              		.cfi_def_cfa_offset 24
 1211              		.loc 1 1422 0
 1212 0008 0446     		mov	r4, r0
 1213 000a 0D46     		mov	r5, r1
 1214              		.loc 1 1423 0
 1215 000c 03D0     		beq	.L147
 1216              		.loc 1 1424 0
 1217 000e C4F88C50 		str	r5, [r4, #140]
 1218              		.loc 1 1425 0
 1219 0012 03B0     		add	sp, sp, #12
 1220              		.cfi_remember_state
 1221              		.cfi_def_cfa_offset 12
 1222              		@ sp needed
 1223 0014 30BD     		pop	{r4, r5, pc}
 1224              	.L147:
 1225              		.cfi_restore_state
 1226              		.loc 1 1423 0 discriminator 1
 1227 0016 084B     		ldr	r3, .L148
 1228 0018 0093     		str	r3, [sp]
 1229 001a 0849     		ldr	r1, .L148+4
 1230              	.LVL102:
 1231 001c 084A     		ldr	r2, .L148+8
 1232 001e 0948     		ldr	r0, .L148+12
ARM GAS  C:\Users\jo\AppData\Local\Temp\ccpE7U9z.s 			page 23


 1233              	.LVL103:
 1234 0020 40F28F53 		movw	r3, #1423
 1235 0024 FFF7FEFF 		bl	chprintf.constprop.4
 1236              	.LVL104:
 1237              	.LBB126:
 1238              	.LBB127:
 1239              		.loc 3 414 0 discriminator 1
 1240 0028 0548     		ldr	r0, .L148+8
 1241 002a FFF7FEFF 		bl	chSysHalt
 1242              	.LVL105:
 1243              	.LBE127:
 1244              	.LBE126:
 1245              		.loc 1 1424 0 discriminator 1
 1246 002e C4F88C50 		str	r5, [r4, #140]
 1247              		.loc 1 1425 0 discriminator 1
 1248 0032 03B0     		add	sp, sp, #12
 1249              		.cfi_def_cfa_offset 12
 1250              		@ sp needed
 1251 0034 30BD     		pop	{r4, r5, pc}
 1252              	.LVL106:
 1253              	.L149:
 1254 0036 00BF     		.align	2
 1255              	.L148:
 1256 0038 50000000 		.word	.LC2
 1257 003c 00000000 		.word	.LC0
 1258 0040 58010000 		.word	.LC9
 1259 0044 00000000 		.word	itm_port
 1260              		.cfi_endproc
 1261              	.LFE285:
 1262              		.size	tcp_err, .-tcp_err
 1263 0048 AFF30080 		.section	.text.tcp_accept,"ax",%progbits
 1263      AFF30080 
 1264              		.align	2
 1265              		.p2align 4,,15
 1266              		.global	tcp_accept
 1267              		.thumb
 1268              		.thumb_func
 1269              		.type	tcp_accept, %function
 1270              	tcp_accept:
 1271              	.LFB286:
 1272              		.loc 1 1437 0
 1273              		.cfi_startproc
 1274              		@ args = 0, pretend = 0, frame = 0
 1275              		@ frame_needed = 0, uses_anonymous_args = 0
 1276              		@ link register save eliminated.
 1277              	.LVL107:
 1278              		.loc 1 1440 0
 1279 0000 4161     		str	r1, [r0, #20]
 1280 0002 7047     		bx	lr
 1281              		.cfi_endproc
 1282              	.LFE286:
 1283              		.size	tcp_accept, .-tcp_accept
 1284 0004 AFF30080 		.section	.text.tcp_poll,"ax",%progbits
 1284      AFF30080 
 1284      AFF30080 
 1285              		.align	2
 1286              		.p2align 4,,15
ARM GAS  C:\Users\jo\AppData\Local\Temp\ccpE7U9z.s 			page 24


 1287              		.global	tcp_poll
 1288              		.thumb
 1289              		.thumb_func
 1290              		.type	tcp_poll, %function
 1291              	tcp_poll:
 1292              	.LFB287:
 1293              		.loc 1 1453 0
 1294              		.cfi_startproc
 1295              		@ args = 0, pretend = 0, frame = 0
 1296              		@ frame_needed = 0, uses_anonymous_args = 0
 1297              	.LVL108:
 1298 0000 70B5     		push	{r4, r5, r6, lr}
 1299              		.cfi_def_cfa_offset 16
 1300              		.cfi_offset 4, -16
 1301              		.cfi_offset 5, -12
 1302              		.cfi_offset 6, -8
 1303              		.cfi_offset 14, -4
 1304              		.loc 1 1454 0
 1305 0002 037E     		ldrb	r3, [r0, #24]	@ zero_extendqisi2
 1306 0004 012B     		cmp	r3, #1
 1307              		.loc 1 1453 0
 1308 0006 82B0     		sub	sp, sp, #8
 1309              		.cfi_def_cfa_offset 24
 1310              		.loc 1 1453 0
 1311 0008 0446     		mov	r4, r0
 1312 000a 0E46     		mov	r6, r1
 1313 000c 1546     		mov	r5, r2
 1314              		.loc 1 1454 0
 1315 000e 05D0     		beq	.L154
 1316              		.loc 1 1456 0
 1317 0010 C4F88860 		str	r6, [r4, #136]
 1318              		.loc 1 1460 0
 1319 0014 84F82050 		strb	r5, [r4, #32]
 1320              		.loc 1 1461 0
 1321 0018 02B0     		add	sp, sp, #8
 1322              		.cfi_remember_state
 1323              		.cfi_def_cfa_offset 16
 1324              		@ sp needed
 1325 001a 70BD     		pop	{r4, r5, r6, pc}
 1326              	.L154:
 1327              		.cfi_restore_state
 1328              		.loc 1 1454 0 discriminator 1
 1329 001c 084B     		ldr	r3, .L155
 1330 001e 0093     		str	r3, [sp]
 1331 0020 0849     		ldr	r1, .L155+4
 1332              	.LVL109:
 1333 0022 094A     		ldr	r2, .L155+8
 1334              	.LVL110:
 1335 0024 0948     		ldr	r0, .L155+12
 1336              	.LVL111:
 1337 0026 40F2AE53 		movw	r3, #1454
 1338 002a FFF7FEFF 		bl	chprintf.constprop.4
 1339              	.LVL112:
 1340              	.LBB128:
 1341              	.LBB129:
 1342              		.loc 3 414 0 discriminator 1
 1343 002e 0648     		ldr	r0, .L155+8
ARM GAS  C:\Users\jo\AppData\Local\Temp\ccpE7U9z.s 			page 25


 1344 0030 FFF7FEFF 		bl	chSysHalt
 1345              	.LVL113:
 1346              	.LBE129:
 1347              	.LBE128:
 1348              		.loc 1 1456 0 discriminator 1
 1349 0034 C4F88860 		str	r6, [r4, #136]
 1350              		.loc 1 1460 0 discriminator 1
 1351 0038 84F82050 		strb	r5, [r4, #32]
 1352              		.loc 1 1461 0 discriminator 1
 1353 003c 02B0     		add	sp, sp, #8
 1354              		.cfi_def_cfa_offset 16
 1355              		@ sp needed
 1356 003e 70BD     		pop	{r4, r5, r6, pc}
 1357              	.LVL114:
 1358              	.L156:
 1359              		.align	2
 1360              	.L155:
 1361 0040 50000000 		.word	.LC2
 1362 0044 00000000 		.word	.LC0
 1363 0048 80010000 		.word	.LC10
 1364 004c 00000000 		.word	itm_port
 1365              		.cfi_endproc
 1366              	.LFE287:
 1367              		.size	tcp_poll, .-tcp_poll
 1368              		.section	.text.tcp_pcb_purge,"ax",%progbits
 1369              		.align	2
 1370              		.p2align 4,,15
 1371              		.global	tcp_pcb_purge
 1372              		.thumb
 1373              		.thumb_func
 1374              		.type	tcp_pcb_purge, %function
 1375              	tcp_pcb_purge:
 1376              	.LFB288:
 1377              		.loc 1 1471 0
 1378              		.cfi_startproc
 1379              		@ args = 0, pretend = 0, frame = 0
 1380              		@ frame_needed = 0, uses_anonymous_args = 0
 1381              	.LVL115:
 1382 0000 38B5     		push	{r3, r4, r5, lr}
 1383              		.cfi_def_cfa_offset 16
 1384              		.cfi_offset 3, -16
 1385              		.cfi_offset 4, -12
 1386              		.cfi_offset 5, -8
 1387              		.cfi_offset 14, -4
 1388              		.loc 1 1472 0
 1389 0002 037E     		ldrb	r3, [r0, #24]	@ zero_extendqisi2
 1390 0004 012B     		cmp	r3, #1
 1391 0006 2BD9     		bls	.L157
 1392              		.loc 1 1472 0 is_stmt 0 discriminator 1
 1393 0008 0A2B     		cmp	r3, #10
 1394 000a 29D0     		beq	.L157
 1395              	.LVL116:
 1396 000c 0546     		mov	r5, r0
 1397              	.LBB141:
 1398              	.LBB142:
 1399              		.loc 1 1499 0 is_stmt 1
 1400 000e 806F     		ldr	r0, [r0, #120]
ARM GAS  C:\Users\jo\AppData\Local\Temp\ccpE7U9z.s 			page 26


 1401              	.LVL117:
 1402 0010 18B1     		cbz	r0, .L159
 1403              		.loc 1 1501 0
 1404 0012 FFF7FEFF 		bl	pbuf_free
 1405              	.LVL118:
 1406              		.loc 1 1502 0
 1407 0016 0023     		movs	r3, #0
 1408 0018 AB67     		str	r3, [r5, #120]
 1409              	.L159:
 1410              		.loc 1 1514 0
 1411 001a 686F     		ldr	r0, [r5, #116]
 1412              	.LVL119:
 1413              	.LBB143:
 1414              	.LBB144:
 1415              		.loc 1 1130 0
 1416 001c 28B1     		cbz	r0, .L164
 1417              	.L163:
 1418              	.LBB145:
 1419              		.loc 1 1131 0
 1420 001e 0468     		ldr	r4, [r0]
 1421              	.LVL120:
 1422              		.loc 1 1132 0
 1423 0020 FFF7FEFF 		bl	tcp_seg_free
 1424              	.LVL121:
 1425              	.LBE145:
 1426              		.loc 1 1130 0
 1427 0024 2046     		mov	r0, r4
 1428 0026 002C     		cmp	r4, #0
 1429 0028 F9D1     		bne	.L163
 1430              	.LVL122:
 1431              	.L164:
 1432              	.LBE144:
 1433              	.LBE143:
 1434              		.loc 1 1522 0
 1435 002a E86E     		ldr	r0, [r5, #108]
 1436              	.LVL123:
 1437              		.loc 1 1515 0
 1438 002c 0022     		movs	r2, #0
 1439              		.loc 1 1520 0
 1440 002e 4FF6FF73 		movw	r3, #65535
 1441              		.loc 1 1515 0
 1442 0032 6A67     		str	r2, [r5, #116]
 1443              		.loc 1 1520 0
 1444 0034 AB86     		strh	r3, [r5, #52]	@ movhi
 1445              	.LBB146:
 1446              	.LBB147:
 1447              		.loc 1 1130 0
 1448 0036 28B1     		cbz	r0, .L162
 1449              	.L167:
 1450              	.LBB148:
 1451              		.loc 1 1131 0
 1452 0038 0468     		ldr	r4, [r0]
 1453              	.LVL124:
 1454              		.loc 1 1132 0
 1455 003a FFF7FEFF 		bl	tcp_seg_free
 1456              	.LVL125:
 1457              	.LBE148:
ARM GAS  C:\Users\jo\AppData\Local\Temp\ccpE7U9z.s 			page 27


 1458              		.loc 1 1130 0
 1459 003e 2046     		mov	r0, r4
 1460 0040 002C     		cmp	r4, #0
 1461 0042 F9D1     		bne	.L167
 1462              	.LVL126:
 1463              	.L162:
 1464              	.LBE147:
 1465              	.LBE146:
 1466              		.loc 1 1523 0
 1467 0044 286F     		ldr	r0, [r5, #112]
 1468              	.LVL127:
 1469              	.LBB149:
 1470              	.LBB150:
 1471              		.loc 1 1130 0
 1472 0046 28B1     		cbz	r0, .L166
 1473              	.L168:
 1474              	.LBB151:
 1475              		.loc 1 1131 0
 1476 0048 0468     		ldr	r4, [r0]
 1477              	.LVL128:
 1478              		.loc 1 1132 0
 1479 004a FFF7FEFF 		bl	tcp_seg_free
 1480              	.LVL129:
 1481              	.LBE151:
 1482              		.loc 1 1130 0
 1483 004e 2046     		mov	r0, r4
 1484 0050 002C     		cmp	r4, #0
 1485 0052 F9D1     		bne	.L168
 1486              	.LVL130:
 1487              	.L166:
 1488              	.LBE150:
 1489              	.LBE149:
 1490              		.loc 1 1524 0
 1491 0054 0023     		movs	r3, #0
 1492 0056 EB66     		str	r3, [r5, #108]
 1493 0058 2B67     		str	r3, [r5, #112]
 1494              		.loc 1 1526 0
 1495 005a A5F86A30 		strh	r3, [r5, #106]	@ movhi
 1496 005e 38BD     		pop	{r3, r4, r5, pc}
 1497              	.LVL131:
 1498              	.L157:
 1499 0060 38BD     		pop	{r3, r4, r5, pc}
 1500              	.LBE142:
 1501              	.LBE141:
 1502              		.cfi_endproc
 1503              	.LFE288:
 1504              		.size	tcp_pcb_purge, .-tcp_pcb_purge
 1505 0062 00BFAFF3 		.section	.text.tcp_slowtmr,"ax",%progbits
 1505      0080AFF3 
 1505      0080AFF3 
 1505      0080
 1506              		.align	2
 1507              		.p2align 4,,15
 1508              		.global	tcp_slowtmr
 1509              		.thumb
 1510              		.thumb_func
 1511              		.type	tcp_slowtmr, %function
ARM GAS  C:\Users\jo\AppData\Local\Temp\ccpE7U9z.s 			page 28


 1512              	tcp_slowtmr:
 1513              	.LFB270:
 1514              		.loc 1 789 0
 1515              		.cfi_startproc
 1516              		@ args = 0, pretend = 0, frame = 8
 1517              		@ frame_needed = 0, uses_anonymous_args = 0
 1518              	.LVL132:
 1519 0000 2DE9F04F 		push	{r4, r5, r6, r7, r8, r9, r10, fp, lr}
 1520              		.cfi_def_cfa_offset 36
 1521              		.cfi_offset 4, -36
 1522              		.cfi_offset 5, -32
 1523              		.cfi_offset 6, -28
 1524              		.cfi_offset 7, -24
 1525              		.cfi_offset 8, -20
 1526              		.cfi_offset 9, -16
 1527              		.cfi_offset 10, -12
 1528              		.cfi_offset 11, -8
 1529              		.cfi_offset 14, -4
 1530              		.loc 1 798 0
 1531 0004 B34C     		ldr	r4, .L286
 1532              		.loc 1 799 0
 1533 0006 B44D     		ldr	r5, .L286+4
 1534              		.loc 1 798 0
 1535 0008 2268     		ldr	r2, [r4]
 1536              		.loc 1 799 0
 1537 000a 2B78     		ldrb	r3, [r5]	@ zero_extendqisi2
 1538 000c DFF8F0B2 		ldr	fp, .L286+44
 1539              		.loc 1 798 0
 1540 0010 0132     		adds	r2, r2, #1
 1541              		.loc 1 799 0
 1542 0012 0133     		adds	r3, r3, #1
 1543              		.loc 1 789 0
 1544 0014 85B0     		sub	sp, sp, #20
 1545              		.cfi_def_cfa_offset 56
 1546              		.loc 1 798 0
 1547 0016 2260     		str	r2, [r4]
 1548              		.loc 1 799 0
 1549 0018 2B70     		strb	r3, [r5]
 1550              	.LVL133:
 1551              	.L180:
 1552              		.loc 1 804 0
 1553 001a DBF80070 		ldr	r7, [fp]
 1554              	.LVL134:
 1555              		.loc 1 808 0
 1556 001e 002F     		cmp	r7, #0
 1557 0020 00F08680 		beq	.L218
 1558 0024 0026     		movs	r6, #0
 1559              	.LVL135:
 1560              	.L217:
 1561              		.loc 1 810 0
 1562 0026 3B7E     		ldrb	r3, [r7, #24]	@ zero_extendqisi2
 1563 0028 002B     		cmp	r3, #0
 1564 002a 00F00781 		beq	.L273
 1565              		.loc 1 811 0
 1566 002e 012B     		cmp	r3, #1
 1567 0030 00F01481 		beq	.L274
 1568              	.L185:
ARM GAS  C:\Users\jo\AppData\Local\Temp\ccpE7U9z.s 			page 29


 1569              		.loc 1 812 0
 1570 0034 0A2B     		cmp	r3, #10
 1571 0036 00F02181 		beq	.L275
 1572              	.L186:
 1573              		.loc 1 813 0
 1574 003a 2B78     		ldrb	r3, [r5]	@ zero_extendqisi2
 1575 003c 97F82120 		ldrb	r2, [r7, #33]	@ zero_extendqisi2
 1576 0040 9A42     		cmp	r2, r3
 1577 0042 00F02D81 		beq	.L276
 1578              	.L187:
 1579              		.loc 1 823 0
 1580 0046 3A7E     		ldrb	r2, [r7, #24]	@ zero_extendqisi2
 1581              		.loc 1 818 0
 1582 0048 87F82130 		strb	r3, [r7, #33]
 1583              	.LVL136:
 1584              		.loc 1 823 0
 1585 004c 022A     		cmp	r2, #2
 1586 004e 97F84630 		ldrb	r3, [r7, #70]	@ zero_extendqisi2
 1587 0052 00F08F81 		beq	.L277
 1588              		.loc 1 827 0
 1589 0056 0C2B     		cmp	r3, #12
 1590 0058 00F09681 		beq	.L231
 1591              	.L229:
 1592              		.loc 1 831 0
 1593 005c 97F89510 		ldrb	r1, [r7, #149]	@ zero_extendqisi2
 1594 0060 0029     		cmp	r1, #0
 1595 0062 00F05181 		beq	.L193
 1596              		.loc 1 835 0
 1597 0066 9D48     		ldr	r0, .L286+8
 1598              		.loc 1 834 0
 1599 0068 97F89430 		ldrb	r3, [r7, #148]	@ zero_extendqisi2
 1600              		.loc 1 835 0
 1601 006c 0844     		add	r0, r0, r1
 1602              		.loc 1 834 0
 1603 006e 0133     		adds	r3, r3, #1
 1604              		.loc 1 835 0
 1605 0070 10F8010C 		ldrb	r0, [r0, #-1]	@ zero_extendqisi2
 1606              		.loc 1 834 0
 1607 0074 DBB2     		uxtb	r3, r3
 1608              		.loc 1 835 0
 1609 0076 9842     		cmp	r0, r3
 1610              		.loc 1 834 0
 1611 0078 87F89430 		strb	r3, [r7, #148]
 1612              		.loc 1 835 0
 1613 007c 00F21581 		bhi	.L234
 1614              		.loc 1 837 0
 1615 0080 0629     		cmp	r1, #6
 1616              		.loc 1 836 0
 1617 0082 4FF00003 		mov	r3, #0
 1618              		.loc 1 838 0
 1619 0086 98BF     		it	ls
 1620 0088 0131     		addls	r1, r1, #1
 1621              		.loc 1 836 0
 1622 008a 87F89430 		strb	r3, [r7, #148]
 1623              		.loc 1 838 0
 1624 008e 98BF     		it	ls
 1625 0090 87F89510 		strbls	r1, [r7, #149]
ARM GAS  C:\Users\jo\AppData\Local\Temp\ccpE7U9z.s 			page 30


 1626              		.loc 1 840 0
 1627 0094 3846     		mov	r0, r7
 1628 0096 FFF7FEFF 		bl	tcp_zero_window_probe
 1629              	.LVL137:
 1630 009a 3A7E     		ldrb	r2, [r7, #24]	@ zero_extendqisi2
 1631              		.loc 1 820 0
 1632 009c 4FF00008 		mov	r8, #0
 1633              	.L192:
 1634              	.LVL138:
 1635              		.loc 1 881 0
 1636 00a0 062A     		cmp	r2, #6
 1637 00a2 00F00781 		beq	.L278
 1638              	.L198:
 1639              		.loc 1 895 0
 1640 00a6 3B7A     		ldrb	r3, [r7, #8]	@ zero_extendqisi2
 1641 00a8 03F00803 		and	r3, r3, #8
 1642 00ac 03F0FF09 		and	r9, r3, #255
 1643 00b0 3BB1     		cbz	r3, .L190
 1644              		.loc 1 895 0 is_stmt 0 discriminator 1
 1645 00b2 042A     		cmp	r2, #4
 1646 00b4 00F06B81 		beq	.L200
 1647              		.loc 1 896 0 is_stmt 1
 1648 00b8 072A     		cmp	r2, #7
 1649 00ba 00F06881 		beq	.L200
 1650              	.L199:
 1651              		.loc 1 821 0
 1652 00be 4FF00009 		mov	r9, #0
 1653              	.LVL139:
 1654              	.L190:
 1655              		.loc 1 921 0
 1656 00c2 786F     		ldr	r0, [r7, #116]
 1657 00c4 48B1     		cbz	r0, .L202
 1658              		.loc 1 922 0 discriminator 1
 1659 00c6 2268     		ldr	r2, [r4]
 1660 00c8 796A     		ldr	r1, [r7, #36]
 1661 00ca B7F94430 		ldrsh	r3, [r7, #68]
 1662 00ce 521A     		subs	r2, r2, r1
 1663 00d0 03EB4303 		add	r3, r3, r3, lsl #1
 1664              		.loc 1 921 0 discriminator 1
 1665 00d4 B2EB430F 		cmp	r2, r3, lsl #1
 1666 00d8 5ED2     		bcs	.L203
 1667              	.L202:
 1668              		.loc 1 930 0
 1669 00da 3B7E     		ldrb	r3, [r7, #24]	@ zero_extendqisi2
 1670 00dc 032B     		cmp	r3, #3
 1671 00de 67D0     		beq	.L279
 1672              	.L204:
 1673              		.loc 1 939 0
 1674 00e0 092B     		cmp	r3, #9
 1675 00e2 6FD0     		beq	.L280
 1676              	.L206:
 1677              		.loc 1 947 0
 1678 00e4 B8F1000F 		cmp	r8, #0
 1679 00e8 71D1     		bne	.L207
 1680              	.LVL140:
 1681              		.loc 1 984 0
 1682 00ea FB7F     		ldrb	r3, [r7, #31]	@ zero_extendqisi2
ARM GAS  C:\Users\jo\AppData\Local\Temp\ccpE7U9z.s 			page 31


 1683              		.loc 1 985 0
 1684 00ec 97F82020 		ldrb	r2, [r7, #32]	@ zero_extendqisi2
 1685              		.loc 1 981 0
 1686 00f0 D7F80C90 		ldr	r9, [r7, #12]
 1687              	.LVL141:
 1688              		.loc 1 984 0
 1689 00f4 0133     		adds	r3, r3, #1
 1690 00f6 DBB2     		uxtb	r3, r3
 1691              		.loc 1 985 0
 1692 00f8 9A42     		cmp	r2, r3
 1693              		.loc 1 984 0
 1694 00fa FB77     		strb	r3, [r7, #31]
 1695              		.loc 1 985 0
 1696 00fc 13D8     		bhi	.L239
 1697              		.loc 1 988 0
 1698 00fe 784E     		ldr	r6, .L286+12
 1699              		.loc 1 989 0
 1700 0100 D7F88830 		ldr	r3, [r7, #136]
 1701              		.loc 1 986 0
 1702 0104 87F81F80 		strb	r8, [r7, #31]
 1703              		.loc 1 988 0
 1704 0108 86F80080 		strb	r8, [r6]
 1705              		.loc 1 989 0
 1706 010c 002B     		cmp	r3, #0
 1707 010e 00F08C80 		beq	.L216
 1708              		.loc 1 989 0 is_stmt 0 discriminator 1
 1709 0112 3869     		ldr	r0, [r7, #16]
 1710 0114 3946     		mov	r1, r7
 1711 0116 9847     		blx	r3
 1712              	.LVL142:
 1713              		.loc 1 990 0 is_stmt 1 discriminator 1
 1714 0118 3378     		ldrb	r3, [r6]	@ zero_extendqisi2
 1715 011a 002B     		cmp	r3, #0
 1716 011c 7FF47DAF 		bne	.L180
 1717              		.loc 1 994 0
 1718 0120 0028     		cmp	r0, #0
 1719 0122 00F08280 		beq	.L216
 1720              	.LVL143:
 1721              	.L239:
 1722 0126 3E46     		mov	r6, r7
 1723              	.LVL144:
 1724              	.L269:
 1725              		.loc 1 981 0
 1726 0128 4F46     		mov	r7, r9
 1727              	.LVL145:
 1728              	.L188:
 1729              		.loc 1 808 0
 1730 012a 002F     		cmp	r7, #0
 1731 012c 7FF47BAF 		bne	.L217
 1732              	.LVL146:
 1733              	.L218:
 1734              		.loc 1 1004 0
 1735 0130 DFF8D081 		ldr	r8, .L286+48
 1736 0134 D8F80050 		ldr	r5, [r8]
 1737              	.LVL147:
 1738              		.loc 1 1005 0
 1739 0138 5DB3     		cbz	r5, .L179
ARM GAS  C:\Users\jo\AppData\Local\Temp\ccpE7U9z.s 			page 32


 1740              		.loc 1 1006 0
 1741 013a 6A4F     		ldr	r7, .L286+16
 1742              		.loc 1 1005 0
 1743 013c 0026     		movs	r6, #0
 1744              	.LVL148:
 1745              	.L225:
 1746              		.loc 1 1006 0
 1747 013e 2B7E     		ldrb	r3, [r5, #24]	@ zero_extendqisi2
 1748 0140 0A2B     		cmp	r3, #10
 1749 0142 0AD0     		beq	.L219
 1750              		.loc 1 1006 0 is_stmt 0 discriminator 1
 1751 0144 0097     		str	r7, [sp]
 1752 0146 6848     		ldr	r0, .L286+20
 1753 0148 6849     		ldr	r1, .L286+24
 1754 014a 694A     		ldr	r2, .L286+28
 1755 014c 40F2EE33 		movw	r3, #1006
 1756 0150 FFF7FEFF 		bl	chprintf.constprop.4
 1757              	.LVL149:
 1758              	.LBB152:
 1759              	.LBB153:
 1760              		.loc 3 414 0 is_stmt 1 discriminator 1
 1761 0154 6648     		ldr	r0, .L286+28
 1762 0156 FFF7FEFF 		bl	chSysHalt
 1763              	.LVL150:
 1764              	.L219:
 1765              	.LBE153:
 1766              	.LBE152:
 1767              		.loc 1 1010 0
 1768 015a 2368     		ldr	r3, [r4]
 1769 015c 6A6A     		ldr	r2, [r5, #36]
 1770 015e 9B1A     		subs	r3, r3, r2
 1771 0160 F02B     		cmp	r3, #240
 1772 0162 40F22C81 		bls	.L281
 1773              	.LVL151:
 1774              	.LBB154:
 1775              		.loc 1 1019 0
 1776 0166 2846     		mov	r0, r5
 1777 0168 FFF7FEFF 		bl	tcp_pcb_purge
 1778              	.LVL152:
 1779              		.loc 1 1021 0
 1780 016c 002E     		cmp	r6, #0
 1781 016e 00F06081 		beq	.L282
 1782              		.loc 1 1022 0
 1783 0172 D8F80030 		ldr	r3, [r8]
 1784 0176 9D42     		cmp	r5, r3
 1785 0178 00F07C81 		beq	.L283
 1786              	.L222:
 1787              		.loc 1 1023 0
 1788 017c EB68     		ldr	r3, [r5, #12]
 1789 017e F360     		str	r3, [r6, #12]
 1790 0180 D5F80C90 		ldr	r9, [r5, #12]
 1791              	.L223:
 1792              	.LVL153:
 1793              		.loc 1 1031 0
 1794 0184 2946     		mov	r1, r5
 1795 0186 0220     		movs	r0, #2
 1796              		.loc 1 1030 0
ARM GAS  C:\Users\jo\AppData\Local\Temp\ccpE7U9z.s 			page 33


 1797 0188 4D46     		mov	r5, r9
 1798              	.LVL154:
 1799              		.loc 1 1031 0
 1800 018a FFF7FEFF 		bl	memp_free
 1801              	.LVL155:
 1802              	.LBE154:
 1803              		.loc 1 1005 0
 1804 018e 002D     		cmp	r5, #0
 1805 0190 D5D1     		bne	.L225
 1806              	.LVL156:
 1807              	.L179:
 1808              		.loc 1 1037 0
 1809 0192 05B0     		add	sp, sp, #20
 1810              		.cfi_remember_state
 1811              		.cfi_def_cfa_offset 36
 1812              		@ sp needed
 1813 0194 BDE8F08F 		pop	{r4, r5, r6, r7, r8, r9, r10, fp, pc}
 1814              	.LVL157:
 1815              	.L203:
 1816              		.cfi_restore_state
 1817              	.LBB159:
 1818              	.LBB160:
 1819              	.LBB161:
 1820              		.loc 1 1131 0
 1821 0198 D0F800A0 		ldr	r10, [r0]
 1822              	.LVL158:
 1823              		.loc 1 1132 0
 1824 019c FFF7FEFF 		bl	tcp_seg_free
 1825              	.LVL159:
 1826              	.LBE161:
 1827              		.loc 1 1130 0
 1828 01a0 5046     		mov	r0, r10
 1829 01a2 0028     		cmp	r0, #0
 1830 01a4 F8D1     		bne	.L203
 1831              	.LBE160:
 1832              	.LBE159:
 1833              		.loc 1 930 0
 1834 01a6 3B7E     		ldrb	r3, [r7, #24]	@ zero_extendqisi2
 1835              		.loc 1 924 0
 1836 01a8 C7F874A0 		str	r10, [r7, #116]
 1837              		.loc 1 930 0
 1838 01ac 032B     		cmp	r3, #3
 1839 01ae 97D1     		bne	.L204
 1840              	.LVL160:
 1841              	.L279:
 1842              		.loc 1 931 0
 1843 01b0 2368     		ldr	r3, [r4]
 1844 01b2 7A6A     		ldr	r2, [r7, #36]
 1845 01b4 9B1A     		subs	r3, r3, r2
 1846 01b6 282B     		cmp	r3, #40
 1847 01b8 94D9     		bls	.L206
 1848              		.loc 1 933 0
 1849 01ba 08F10108 		add	r8, r8, #1
 1850              	.LVL161:
 1851 01be 5FFA88F8 		uxtb	r8, r8
 1852              	.LVL162:
 1853 01c2 8FE7     		b	.L206
ARM GAS  C:\Users\jo\AppData\Local\Temp\ccpE7U9z.s 			page 34


 1854              	.L280:
 1855              		.loc 1 940 0
 1856 01c4 2368     		ldr	r3, [r4]
 1857 01c6 7A6A     		ldr	r2, [r7, #36]
 1858 01c8 9B1A     		subs	r3, r3, r2
 1859 01ca F02B     		cmp	r3, #240
 1860 01cc 8AD9     		bls	.L206
 1861              	.L207:
 1862              	.LVL163:
 1863              	.LBB162:
 1864              		.loc 1 951 0
 1865 01ce 3846     		mov	r0, r7
 1866 01d0 FFF7FEFF 		bl	tcp_pcb_purge
 1867              	.LVL164:
 1868              		.loc 1 954 0
 1869 01d4 DBF80030 		ldr	r3, [fp]
 1870              		.loc 1 953 0
 1871 01d8 002E     		cmp	r6, #0
 1872 01da 00F01881 		beq	.L209
 1873              		.loc 1 954 0
 1874 01de 9F42     		cmp	r7, r3
 1875 01e0 00F03B81 		beq	.L284
 1876              	.L210:
 1877              		.loc 1 955 0
 1878 01e4 FB68     		ldr	r3, [r7, #12]
 1879 01e6 F360     		str	r3, [r6, #12]
 1880              	.L211:
 1881              		.loc 1 962 0
 1882 01e8 B9F1000F 		cmp	r9, #0
 1883 01ec 40F00481 		bne	.L285
 1884              	.L213:
 1885              		.loc 1 968 0
 1886 01f0 3B69     		ldr	r3, [r7, #16]
 1887              		.loc 1 967 0
 1888 01f2 D7F88CA0 		ldr	r10, [r7, #140]
 1889              	.LVL165:
 1890              		.loc 1 973 0
 1891 01f6 DFF8E880 		ldr	r8, .L286+12
 1892              		.loc 1 968 0
 1893 01fa 0393     		str	r3, [sp, #12]
 1894              	.LVL166:
 1895              		.loc 1 971 0
 1896 01fc 0220     		movs	r0, #2
 1897 01fe 3946     		mov	r1, r7
 1898              		.loc 1 970 0
 1899 0200 D7F80C90 		ldr	r9, [r7, #12]
 1900              	.LVL167:
 1901              		.loc 1 971 0
 1902 0204 FFF7FEFF 		bl	memp_free
 1903              	.LVL168:
 1904              		.loc 1 973 0
 1905 0208 0022     		movs	r2, #0
 1906 020a 88F80020 		strb	r2, [r8]
 1907              		.loc 1 974 0
 1908 020e BAF1000F 		cmp	r10, #0
 1909 0212 89D0     		beq	.L269
 1910              		.loc 1 974 0 is_stmt 0 discriminator 1
ARM GAS  C:\Users\jo\AppData\Local\Temp\ccpE7U9z.s 			page 35


 1911 0214 0398     		ldr	r0, [sp, #12]
 1912 0216 6FF00901 		mvn	r1, #9
 1913 021a D047     		blx	r10
 1914              	.LVL169:
 1915              		.loc 1 975 0 is_stmt 1 discriminator 1
 1916 021c 98F80030 		ldrb	r3, [r8]	@ zero_extendqisi2
 1917 0220 002B     		cmp	r3, #0
 1918 0222 7FF4FAAE 		bne	.L180
 1919              	.LBE162:
 1920              		.loc 1 981 0
 1921 0226 4F46     		mov	r7, r9
 1922              	.LVL170:
 1923 0228 7FE7     		b	.L188
 1924              	.LVL171:
 1925              	.L216:
 1926              		.loc 1 995 0
 1927 022a 3846     		mov	r0, r7
 1928 022c 3E46     		mov	r6, r7
 1929              		.loc 1 981 0
 1930 022e 4F46     		mov	r7, r9
 1931              	.LVL172:
 1932              		.loc 1 995 0
 1933 0230 FFF7FEFF 		bl	tcp_output
 1934              	.LVL173:
 1935              		.loc 1 808 0
 1936 0234 002F     		cmp	r7, #0
 1937 0236 7FF4F6AE 		bne	.L217
 1938 023a 79E7     		b	.L218
 1939              	.LVL174:
 1940              	.L273:
 1941              		.loc 1 810 0 discriminator 1
 1942 023c 294B     		ldr	r3, .L286+16
 1943 023e 0093     		str	r3, [sp]
 1944 0240 2A49     		ldr	r1, .L286+24
 1945 0242 2C4A     		ldr	r2, .L286+32
 1946 0244 2848     		ldr	r0, .L286+20
 1947 0246 40F22A33 		movw	r3, #810
 1948 024a FFF7FEFF 		bl	chprintf.constprop.4
 1949              	.LVL175:
 1950              	.LBB167:
 1951              	.LBB168:
 1952              		.loc 3 414 0 discriminator 1
 1953 024e 2948     		ldr	r0, .L286+32
 1954 0250 FFF7FEFF 		bl	chSysHalt
 1955              	.LVL176:
 1956 0254 3B7E     		ldrb	r3, [r7, #24]	@ zero_extendqisi2
 1957              	.LBE168:
 1958              	.LBE167:
 1959              		.loc 1 811 0 discriminator 1
 1960 0256 012B     		cmp	r3, #1
 1961 0258 7FF4ECAE 		bne	.L185
 1962              	.LVL177:
 1963              	.L274:
 1964 025c 214B     		ldr	r3, .L286+16
 1965 025e 0093     		str	r3, [sp]
 1966 0260 2249     		ldr	r1, .L286+24
 1967 0262 254A     		ldr	r2, .L286+36
ARM GAS  C:\Users\jo\AppData\Local\Temp\ccpE7U9z.s 			page 36


 1968 0264 2048     		ldr	r0, .L286+20
 1969 0266 40F22B33 		movw	r3, #811
 1970 026a FFF7FEFF 		bl	chprintf.constprop.4
 1971              	.LVL178:
 1972              	.LBB169:
 1973              	.LBB170:
 1974              		.loc 3 414 0 discriminator 1
 1975 026e 2248     		ldr	r0, .L286+36
 1976 0270 FFF7FEFF 		bl	chSysHalt
 1977              	.LVL179:
 1978 0274 3B7E     		ldrb	r3, [r7, #24]	@ zero_extendqisi2
 1979              	.LBE170:
 1980              	.LBE169:
 1981              		.loc 1 812 0 discriminator 1
 1982 0276 0A2B     		cmp	r3, #10
 1983 0278 7FF4DFAE 		bne	.L186
 1984              	.LVL180:
 1985              	.L275:
 1986 027c 194B     		ldr	r3, .L286+16
 1987 027e 1F4A     		ldr	r2, .L286+40
 1988 0280 0093     		str	r3, [sp]
 1989 0282 1A49     		ldr	r1, .L286+24
 1990 0284 1848     		ldr	r0, .L286+20
 1991 0286 4FF44B73 		mov	r3, #812
 1992 028a FFF7FEFF 		bl	chprintf.constprop.4
 1993              	.LVL181:
 1994              	.LBB171:
 1995              	.LBB172:
 1996              		.loc 3 414 0 discriminator 1
 1997 028e 1B48     		ldr	r0, .L286+40
 1998 0290 FFF7FEFF 		bl	chSysHalt
 1999              	.LVL182:
 2000              	.LBE172:
 2001              	.LBE171:
 2002              		.loc 1 813 0 discriminator 1
 2003 0294 2B78     		ldrb	r3, [r5]	@ zero_extendqisi2
 2004 0296 97F82120 		ldrb	r2, [r7, #33]	@ zero_extendqisi2
 2005 029a 9A42     		cmp	r2, r3
 2006 029c 7FF4D3AE 		bne	.L187
 2007              	.LVL183:
 2008              	.L276:
 2009              		.loc 1 815 0
 2010 02a0 FF68     		ldr	r7, [r7, #12]
 2011              	.LVL184:
 2012              		.loc 1 808 0
 2013 02a2 002F     		cmp	r7, #0
 2014 02a4 7FF4BFAE 		bne	.L217
 2015 02a8 42E7     		b	.L218
 2016              	.LVL185:
 2017              	.L234:
 2018              		.loc 1 881 0
 2019 02aa 062A     		cmp	r2, #6
 2020              		.loc 1 820 0
 2021 02ac 4FF00008 		mov	r8, #0
 2022              	.LVL186:
 2023              		.loc 1 881 0
 2024 02b0 7FF4F9AE 		bne	.L198
ARM GAS  C:\Users\jo\AppData\Local\Temp\ccpE7U9z.s 			page 37


 2025              	.L278:
 2026              		.loc 1 883 0
 2027 02b4 BB7F     		ldrb	r3, [r7, #30]	@ zero_extendqisi2
 2028 02b6 DB06     		lsls	r3, r3, #27
 2029 02b8 7FF501AF 		bpl	.L199
 2030              		.loc 1 886 0
 2031 02bc 2368     		ldr	r3, [r4]
 2032 02be 7A6A     		ldr	r2, [r7, #36]
 2033 02c0 9B1A     		subs	r3, r3, r2
 2034 02c2 282B     		cmp	r3, #40
 2035 02c4 7FF6FBAE 		bls	.L199
 2036              		.loc 1 888 0
 2037 02c8 08F10108 		add	r8, r8, #1
 2038              	.LVL187:
 2039 02cc 5FFA88F8 		uxtb	r8, r8
 2040              	.LVL188:
 2041 02d0 F5E6     		b	.L199
 2042              	.L287:
 2043 02d2 00BF     		.align	2
 2044              	.L286:
 2045 02d4 00000000 		.word	.LANCHOR5
 2046 02d8 00000000 		.word	.LANCHOR6
 2047 02dc 00000000 		.word	.LANCHOR9
 2048 02e0 00000000 		.word	.LANCHOR11
 2049 02e4 50000000 		.word	.LC2
 2050 02e8 00000000 		.word	itm_port
 2051 02ec 00000000 		.word	.LC0
 2052 02f0 80020000 		.word	.LC16
 2053 02f4 A0010000 		.word	.LC11
 2054 02f8 CC010000 		.word	.LC12
 2055 02fc F8010000 		.word	.LC13
 2056 0300 00000000 		.word	.LANCHOR7
 2057 0304 00000000 		.word	.LANCHOR8
 2058              	.LVL189:
 2059              	.L193:
 2060              		.loc 1 844 0
 2061 0308 B98E     		ldrh	r1, [r7, #52]
 2062 030a 0804     		lsls	r0, r1, #16
 2063              		.loc 1 845 0
 2064 030c 5CBF     		itt	pl
 2065 030e 0131     		addpl	r1, r1, #1
 2066 0310 B986     		strhpl	r1, [r7, #52]	@ movhi
 2067              		.loc 1 848 0
 2068 0312 396F     		ldr	r1, [r7, #112]
 2069 0314 0029     		cmp	r1, #0
 2070 0316 C8D0     		beq	.L234
 2071              		.loc 1 848 0 is_stmt 0 discriminator 1
 2072 0318 B7F93400 		ldrsh	r0, [r7, #52]
 2073 031c B7F94410 		ldrsh	r1, [r7, #68]
 2074 0320 8842     		cmp	r0, r1
 2075 0322 C2DB     		blt	.L234
 2076              		.loc 1 856 0 is_stmt 1
 2077 0324 022A     		cmp	r2, #2
 2078 0326 0AD0     		beq	.L196
 2079              		.loc 1 857 0
 2080 0328 5849     		ldr	r1, .L288
 2081 032a B7F94000 		ldrsh	r0, [r7, #64]
ARM GAS  C:\Users\jo\AppData\Local\Temp\ccpE7U9z.s 			page 38


 2082 032e B7F94220 		ldrsh	r2, [r7, #66]
 2083 0332 C95C     		ldrb	r1, [r1, r3]	@ zero_extendqisi2
 2084 0334 02EBE003 		add	r3, r2, r0, asr #3
 2085 0338 8B40     		lsls	r3, r3, r1
 2086 033a A7F84430 		strh	r3, [r7, #68]	@ movhi
 2087              	.L196:
 2088              		.loc 1 864 0
 2089 033e B7F84C10 		ldrh	r1, [r7, #76]
 2090 0342 B7F86030 		ldrh	r3, [r7, #96]
 2091              		.loc 1 866 0
 2092 0346 FA8E     		ldrh	r2, [r7, #54]
 2093              		.loc 1 869 0
 2094 0348 A7F84C20 		strh	r2, [r7, #76]	@ movhi
 2095              		.loc 1 865 0
 2096 034c 8B42     		cmp	r3, r1
 2097 034e 28BF     		it	cs
 2098 0350 0B46     		movcs	r3, r1
 2099 0352 5B08     		lsrs	r3, r3, #1
 2100              		.loc 1 866 0
 2101 0354 5100     		lsls	r1, r2, #1
 2102              		.loc 1 861 0
 2103 0356 0020     		movs	r0, #0
 2104              		.loc 1 866 0
 2105 0358 8B42     		cmp	r3, r1
 2106              		.loc 1 865 0
 2107 035a A7F84E30 		strh	r3, [r7, #78]	@ movhi
 2108              		.loc 1 861 0
 2109 035e B886     		strh	r0, [r7, #52]	@ movhi
 2110              		.loc 1 867 0
 2111 0360 B8BF     		it	lt
 2112 0362 A7F84E10 		strhlt	r1, [r7, #78]	@ movhi
 2113              		.loc 1 876 0
 2114 0366 3846     		mov	r0, r7
 2115 0368 FFF7FEFF 		bl	tcp_rexmit_rto
 2116              	.LVL190:
 2117              		.loc 1 820 0
 2118 036c 4FF00008 		mov	r8, #0
 2119 0370 3A7E     		ldrb	r2, [r7, #24]	@ zero_extendqisi2
 2120 0372 95E6     		b	.L192
 2121              	.L277:
 2122              		.loc 1 823 0 discriminator 1
 2123 0374 062B     		cmp	r3, #6
 2124 0376 02D0     		beq	.L240
 2125              		.loc 1 827 0
 2126 0378 0C2B     		cmp	r3, #12
 2127 037a 7FF46FAE 		bne	.L229
 2128              	.L240:
 2129              		.loc 1 821 0
 2130 037e 4FF00009 		mov	r9, #0
 2131              		.loc 1 827 0
 2132 0382 4FF00108 		mov	r8, #1
 2133 0386 9CE6     		b	.L190
 2134              	.L231:
 2135              		.loc 1 828 0
 2136 0388 4FF00108 		mov	r8, #1
 2137 038c 88E6     		b	.L192
 2138              	.LVL191:
ARM GAS  C:\Users\jo\AppData\Local\Temp\ccpE7U9z.s 			page 39


 2139              	.L200:
 2140              		.loc 1 899 0
 2141 038e D7F89000 		ldr	r0, [r7, #144]
 2142              		.loc 1 898 0
 2143 0392 7A6A     		ldr	r2, [r7, #36]
 2144 0394 0392     		str	r2, [sp, #12]
 2145              		.loc 1 899 0
 2146 0396 00F52423 		add	r3, r0, #671744
 2147 039a 3D4A     		ldr	r2, .L288+4
 2148              		.loc 1 898 0
 2149 039c 2168     		ldr	r1, [r4]
 2150              		.loc 1 899 0
 2151 039e 03F6B843 		addw	r3, r3, #3256
 2152 03a2 A2FB0323 		umull	r2, r3, r2, r3
 2153              		.loc 1 898 0
 2154 03a6 039A     		ldr	r2, [sp, #12]
 2155 03a8 8A1A     		subs	r2, r1, r2
 2156 03aa B2EB531F 		cmp	r2, r3, lsr #5
 2157 03ae 0CD9     		bls	.L201
 2158              		.loc 1 905 0
 2159 03b0 08F10108 		add	r8, r8, #1
 2160              	.LVL192:
 2161 03b4 5FFA88F8 		uxtb	r8, r8
 2162              	.LVL193:
 2163              		.loc 1 906 0
 2164 03b8 4FF00109 		mov	r9, #1
 2165 03bc 81E6     		b	.L190
 2166              	.LVL194:
 2167              	.L281:
 2168              		.loc 1 1034 0
 2169 03be 2E46     		mov	r6, r5
 2170 03c0 ED68     		ldr	r5, [r5, #12]
 2171              	.LVL195:
 2172              		.loc 1 1005 0
 2173 03c2 002D     		cmp	r5, #0
 2174 03c4 7FF4BBAE 		bne	.L225
 2175 03c8 E3E6     		b	.L179
 2176              	.LVL196:
 2177              	.L201:
 2178              		.loc 1 909 0
 2179 03ca 97F89610 		ldrb	r1, [r7, #150]	@ zero_extendqisi2
 2180 03ce 314B     		ldr	r3, .L288+8
 2181 03d0 03FB0103 		mla	r3, r3, r1, r0
 2182              		.loc 1 910 0
 2183 03d4 2E49     		ldr	r1, .L288+4
 2184 03d6 A1FB0313 		umull	r1, r3, r1, r3
 2185              		.loc 1 908 0
 2186 03da B2EB531F 		cmp	r2, r3, lsr #5
 2187 03de 7FF66EAE 		bls	.L199
 2188              		.loc 1 912 0
 2189 03e2 3846     		mov	r0, r7
 2190 03e4 FFF7FEFF 		bl	tcp_keepalive
 2191              	.LVL197:
 2192              		.loc 1 913 0
 2193 03e8 97F89630 		ldrb	r3, [r7, #150]	@ zero_extendqisi2
 2194 03ec 0133     		adds	r3, r3, #1
 2195 03ee 87F89630 		strb	r3, [r7, #150]
ARM GAS  C:\Users\jo\AppData\Local\Temp\ccpE7U9z.s 			page 40


 2196              		.loc 1 821 0
 2197 03f2 4FF00009 		mov	r9, #0
 2198 03f6 64E6     		b	.L190
 2199              	.LVL198:
 2200              	.L285:
 2201              	.LBB173:
 2202              		.loc 1 963 0
 2203 03f8 7B8B     		ldrh	r3, [r7, #26]
 2204 03fa 386D     		ldr	r0, [r7, #80]
 2205 03fc B96A     		ldr	r1, [r7, #40]
 2206 03fe 0093     		str	r3, [sp]
 2207 0400 BB8B     		ldrh	r3, [r7, #28]
 2208 0402 0193     		str	r3, [sp, #4]
 2209 0404 3A46     		mov	r2, r7
 2210 0406 3B1D     		adds	r3, r7, #4
 2211 0408 FFF7FEFF 		bl	tcp_rst
 2212              	.LVL199:
 2213 040c F0E6     		b	.L213
 2214              	.L209:
 2215              		.loc 1 958 0
 2216 040e BB42     		cmp	r3, r7
 2217 0410 0BD0     		beq	.L212
 2218              		.loc 1 958 0 is_stmt 0 discriminator 1
 2219 0412 214B     		ldr	r3, .L288+12
 2220 0414 0093     		str	r3, [sp]
 2221 0416 2148     		ldr	r0, .L288+16
 2222 0418 2149     		ldr	r1, .L288+20
 2223 041a 224A     		ldr	r2, .L288+24
 2224 041c 40F2BE33 		movw	r3, #958
 2225 0420 FFF7FEFF 		bl	chprintf.constprop.4
 2226              	.LVL200:
 2227              	.LBB163:
 2228              	.LBB164:
 2229              		.loc 3 414 0 is_stmt 1 discriminator 1
 2230 0424 1F48     		ldr	r0, .L288+24
 2231 0426 FFF7FEFF 		bl	chSysHalt
 2232              	.LVL201:
 2233              	.L212:
 2234              	.LBE164:
 2235              	.LBE163:
 2236              		.loc 1 959 0
 2237 042a FB68     		ldr	r3, [r7, #12]
 2238 042c CBF80030 		str	r3, [fp]
 2239 0430 DAE6     		b	.L211
 2240              	.LVL202:
 2241              	.L282:
 2242              	.LBE173:
 2243              	.LBB174:
 2244              		.loc 1 1026 0
 2245 0432 D8F80030 		ldr	r3, [r8]
 2246 0436 AB42     		cmp	r3, r5
 2247 0438 0AD0     		beq	.L224
 2248              		.loc 1 1026 0 is_stmt 0 discriminator 1
 2249 043a 0097     		str	r7, [sp]
 2250 043c 1748     		ldr	r0, .L288+16
 2251 043e 1849     		ldr	r1, .L288+20
 2252 0440 194A     		ldr	r2, .L288+28
ARM GAS  C:\Users\jo\AppData\Local\Temp\ccpE7U9z.s 			page 41


 2253 0442 40F20243 		movw	r3, #1026
 2254 0446 FFF7FEFF 		bl	chprintf.constprop.4
 2255              	.LVL203:
 2256              	.LBB155:
 2257              	.LBB156:
 2258              		.loc 3 414 0 is_stmt 1 discriminator 1
 2259 044a 1748     		ldr	r0, .L288+28
 2260 044c FFF7FEFF 		bl	chSysHalt
 2261              	.LVL204:
 2262              	.L224:
 2263              	.LBE156:
 2264              	.LBE155:
 2265              		.loc 1 1027 0
 2266 0450 EB68     		ldr	r3, [r5, #12]
 2267 0452 C8F80030 		str	r3, [r8]
 2268 0456 9946     		mov	r9, r3
 2269 0458 94E6     		b	.L223
 2270              	.LVL205:
 2271              	.L284:
 2272              	.LBE174:
 2273              	.LBB175:
 2274              		.loc 1 954 0 discriminator 1
 2275 045a 0F4B     		ldr	r3, .L288+12
 2276 045c 0093     		str	r3, [sp]
 2277 045e 1049     		ldr	r1, .L288+20
 2278 0460 124A     		ldr	r2, .L288+32
 2279 0462 0E48     		ldr	r0, .L288+16
 2280 0464 40F2BA33 		movw	r3, #954
 2281 0468 FFF7FEFF 		bl	chprintf.constprop.4
 2282              	.LVL206:
 2283              	.LBB165:
 2284              	.LBB166:
 2285              		.loc 3 414 0 discriminator 1
 2286 046c 0F48     		ldr	r0, .L288+32
 2287 046e FFF7FEFF 		bl	chSysHalt
 2288              	.LVL207:
 2289 0472 B7E6     		b	.L210
 2290              	.LVL208:
 2291              	.L283:
 2292              	.LBE166:
 2293              	.LBE165:
 2294              	.LBE175:
 2295              	.LBB176:
 2296              		.loc 1 1022 0 discriminator 1
 2297 0474 0097     		str	r7, [sp]
 2298 0476 0A49     		ldr	r1, .L288+20
 2299 0478 0D4A     		ldr	r2, .L288+36
 2300 047a 0848     		ldr	r0, .L288+16
 2301 047c 40F2FE33 		movw	r3, #1022
 2302 0480 FFF7FEFF 		bl	chprintf.constprop.4
 2303              	.LVL209:
 2304              	.LBB157:
 2305              	.LBB158:
 2306              		.loc 3 414 0 discriminator 1
 2307 0484 0A48     		ldr	r0, .L288+36
 2308 0486 FFF7FEFF 		bl	chSysHalt
 2309              	.LVL210:
ARM GAS  C:\Users\jo\AppData\Local\Temp\ccpE7U9z.s 			page 42


 2310 048a 77E6     		b	.L222
 2311              	.L289:
 2312              		.align	2
 2313              	.L288:
 2314 048c 00000000 		.word	.LANCHOR10
 2315 0490 D34D6210 		.word	274877907
 2316 0494 F8240100 		.word	75000
 2317 0498 50000000 		.word	.LC2
 2318 049c 00000000 		.word	itm_port
 2319 04a0 00000000 		.word	.LC0
 2320 04a4 54020000 		.word	.LC15
 2321 04a8 D8020000 		.word	.LC18
 2322 04ac 28020000 		.word	.LC14
 2323 04b0 B0020000 		.word	.LC17
 2324              	.LBE158:
 2325              	.LBE157:
 2326              	.LBE176:
 2327              		.cfi_endproc
 2328              	.LFE270:
 2329              		.size	tcp_slowtmr, .-tcp_slowtmr
 2330 04b4 AFF30080 		.section	.text.tcp_pcb_remove,"ax",%progbits
 2330      AFF30080 
 2330      AFF30080 
 2331              		.align	2
 2332              		.p2align 4,,15
 2333              		.global	tcp_pcb_remove
 2334              		.thumb
 2335              		.thumb_func
 2336              		.type	tcp_pcb_remove, %function
 2337              	tcp_pcb_remove:
 2338              	.LFB289:
 2339              		.loc 1 1539 0
 2340              		.cfi_startproc
 2341              		@ args = 0, pretend = 0, frame = 0
 2342              		@ frame_needed = 0, uses_anonymous_args = 0
 2343              	.LVL211:
 2344 0000 10B5     		push	{r4, lr}
 2345              		.cfi_def_cfa_offset 8
 2346              		.cfi_offset 4, -8
 2347              		.cfi_offset 14, -4
 2348              		.loc 1 1540 0
 2349 0002 0268     		ldr	r2, [r0]
 2350 0004 8A42     		cmp	r2, r1
 2351              		.loc 1 1539 0
 2352 0006 82B0     		sub	sp, sp, #8
 2353              		.cfi_def_cfa_offset 16
 2354              		.loc 1 1539 0
 2355 0008 0C46     		mov	r4, r1
 2356              		.loc 1 1540 0
 2357 000a 56D0     		beq	.L320
 2358              		.loc 1 1540 0 is_stmt 0 discriminator 2
 2359 000c 2D49     		ldr	r1, .L325
 2360              	.LVL212:
 2361 000e 0A60     		str	r2, [r1]
 2362 0010 52B1     		cbz	r2, .L292
 2363              		.loc 1 1540 0
 2364 0012 D368     		ldr	r3, [r2, #12]
ARM GAS  C:\Users\jo\AppData\Local\Temp\ccpE7U9z.s 			page 43


 2365 0014 A342     		cmp	r3, r4
 2366 0016 53D0     		beq	.L321
 2367              		.loc 1 1540 0 discriminator 6
 2368 0018 2BB1     		cbz	r3, .L322
 2369              	.L297:
 2370              		.loc 1 1540 0 discriminator 9
 2371 001a DA68     		ldr	r2, [r3, #12]
 2372 001c A242     		cmp	r2, r4
 2373 001e 3ED0     		beq	.L323
 2374 0020 1346     		mov	r3, r2
 2375              		.loc 1 1540 0
 2376 0022 002B     		cmp	r3, #0
 2377 0024 F9D1     		bne	.L297
 2378              	.L322:
 2379 0026 0B60     		str	r3, [r1]
 2380              	.L292:
 2381              		.loc 1 1540 0 discriminator 10
 2382 0028 0023     		movs	r3, #0
 2383 002a E360     		str	r3, [r4, #12]
 2384              		.loc 1 1542 0 is_stmt 1 discriminator 10
 2385 002c 2046     		mov	r0, r4
 2386              	.LVL213:
 2387 002e FFF7FEFF 		bl	tcp_pcb_purge
 2388              	.LVL214:
 2389              		.loc 1 1545 0 discriminator 10
 2390 0032 237E     		ldrb	r3, [r4, #24]	@ zero_extendqisi2
 2391 0034 0A2B     		cmp	r3, #10
 2392 0036 04D0     		beq	.L304
 2393              		.loc 1 1545 0 is_stmt 0 discriminator 1
 2394 0038 012B     		cmp	r3, #1
 2395 003a 2CD0     		beq	.L303
 2396              		.loc 1 1547 0 is_stmt 1
 2397 003c A37F     		ldrb	r3, [r4, #30]	@ zero_extendqisi2
 2398              		.loc 1 1546 0
 2399 003e DA07     		lsls	r2, r3, #31
 2400 0040 31D4     		bmi	.L324
 2401              	.L304:
 2402              		.loc 1 1553 0
 2403 0042 E36E     		ldr	r3, [r4, #108]
 2404 0044 5BB1     		cbz	r3, .L301
 2405              		.loc 1 1553 0 is_stmt 0 discriminator 1
 2406 0046 204B     		ldr	r3, .L325+4
 2407 0048 0093     		str	r3, [sp]
 2408 004a 2048     		ldr	r0, .L325+8
 2409 004c 2049     		ldr	r1, .L325+12
 2410 004e 214A     		ldr	r2, .L325+16
 2411 0050 40F21163 		movw	r3, #1553
 2412 0054 FFF7FEFF 		bl	chprintf.constprop.4
 2413              	.LVL215:
 2414              	.LBB177:
 2415              	.LBB178:
 2416              		.loc 3 414 0 is_stmt 1 discriminator 1
 2417 0058 1E48     		ldr	r0, .L325+16
 2418 005a FFF7FEFF 		bl	chSysHalt
 2419              	.LVL216:
 2420              	.L301:
 2421              	.LBE178:
ARM GAS  C:\Users\jo\AppData\Local\Temp\ccpE7U9z.s 			page 44


 2422              	.LBE177:
 2423              		.loc 1 1554 0
 2424 005e 236F     		ldr	r3, [r4, #112]
 2425 0060 5BB1     		cbz	r3, .L306
 2426              		.loc 1 1554 0 is_stmt 0 discriminator 1
 2427 0062 194B     		ldr	r3, .L325+4
 2428 0064 0093     		str	r3, [sp]
 2429 0066 1948     		ldr	r0, .L325+8
 2430 0068 1949     		ldr	r1, .L325+12
 2431 006a 1B4A     		ldr	r2, .L325+20
 2432 006c 40F21263 		movw	r3, #1554
 2433 0070 FFF7FEFF 		bl	chprintf.constprop.4
 2434              	.LVL217:
 2435              	.LBB179:
 2436              	.LBB180:
 2437              		.loc 3 414 0 is_stmt 1 discriminator 1
 2438 0074 1848     		ldr	r0, .L325+20
 2439 0076 FFF7FEFF 		bl	chSysHalt
 2440              	.LVL218:
 2441              	.L306:
 2442              	.LBE180:
 2443              	.LBE179:
 2444              		.loc 1 1556 0
 2445 007a 636F     		ldr	r3, [r4, #116]
 2446 007c 5BB1     		cbz	r3, .L303
 2447              		.loc 1 1556 0 is_stmt 0 discriminator 1
 2448 007e 124B     		ldr	r3, .L325+4
 2449 0080 0093     		str	r3, [sp]
 2450 0082 1248     		ldr	r0, .L325+8
 2451 0084 1249     		ldr	r1, .L325+12
 2452 0086 154A     		ldr	r2, .L325+24
 2453 0088 40F21463 		movw	r3, #1556
 2454 008c FFF7FEFF 		bl	chprintf.constprop.4
 2455              	.LVL219:
 2456              	.LBB181:
 2457              	.LBB182:
 2458              		.loc 3 414 0 is_stmt 1 discriminator 1
 2459 0090 1248     		ldr	r0, .L325+24
 2460 0092 FFF7FEFF 		bl	chSysHalt
 2461              	.LVL220:
 2462              	.L303:
 2463              	.LBE182:
 2464              	.LBE181:
 2465              		.loc 1 1560 0
 2466 0096 0023     		movs	r3, #0
 2467 0098 2376     		strb	r3, [r4, #24]
 2468              		.loc 1 1563 0
 2469 009a 02B0     		add	sp, sp, #8
 2470              		.cfi_remember_state
 2471              		.cfi_def_cfa_offset 8
 2472              		@ sp needed
 2473 009c 10BD     		pop	{r4, pc}
 2474              	.LVL221:
 2475              	.L323:
 2476              		.cfi_restore_state
 2477 009e 0B60     		str	r3, [r1]
 2478              	.L294:
ARM GAS  C:\Users\jo\AppData\Local\Temp\ccpE7U9z.s 			page 45


 2479              		.loc 1 1540 0 discriminator 5
 2480 00a0 E268     		ldr	r2, [r4, #12]
 2481 00a2 DA60     		str	r2, [r3, #12]
 2482 00a4 C0E7     		b	.L292
 2483              	.LVL222:
 2484              	.L324:
 2485              		.loc 1 1548 0
 2486 00a6 43F00203 		orr	r3, r3, #2
 2487 00aa A377     		strb	r3, [r4, #30]
 2488              		.loc 1 1549 0
 2489 00ac 2046     		mov	r0, r4
 2490 00ae FFF7FEFF 		bl	tcp_output
 2491              	.LVL223:
 2492              		.loc 1 1552 0
 2493 00b2 237E     		ldrb	r3, [r4, #24]	@ zero_extendqisi2
 2494 00b4 012B     		cmp	r3, #1
 2495 00b6 C4D1     		bne	.L304
 2496 00b8 EDE7     		b	.L303
 2497              	.LVL224:
 2498              	.L320:
 2499              		.loc 1 1540 0 discriminator 1
 2500 00ba CB68     		ldr	r3, [r1, #12]
 2501 00bc 0360     		str	r3, [r0]
 2502 00be B3E7     		b	.L292
 2503              	.LVL225:
 2504              	.L321:
 2505              		.loc 1 1540 0 is_stmt 0
 2506 00c0 1346     		mov	r3, r2
 2507 00c2 EDE7     		b	.L294
 2508              	.L326:
 2509              		.align	2
 2510              	.L325:
 2511 00c4 00000000 		.word	.LANCHOR3
 2512 00c8 50000000 		.word	.LC2
 2513 00cc 00000000 		.word	itm_port
 2514 00d0 00000000 		.word	.LC0
 2515 00d4 00030000 		.word	.LC19
 2516 00d8 18030000 		.word	.LC20
 2517 00dc 34030000 		.word	.LC21
 2518              		.cfi_endproc
 2519              	.LFE289:
 2520              		.size	tcp_pcb_remove, .-tcp_pcb_remove
 2521              		.section	.text.tcp_close_shutdown,"ax",%progbits
 2522              		.align	2
 2523              		.p2align 4,,15
 2524              		.thumb
 2525              		.thumb_func
 2526              		.type	tcp_close_shutdown, %function
 2527              	tcp_close_shutdown:
 2528              	.LFB258:
 2529              		.loc 1 171 0 is_stmt 1
 2530              		.cfi_startproc
 2531              		@ args = 0, pretend = 0, frame = 0
 2532              		@ frame_needed = 0, uses_anonymous_args = 0
 2533              	.LVL226:
 2534 0000 30B5     		push	{r4, r5, lr}
 2535              		.cfi_def_cfa_offset 12
ARM GAS  C:\Users\jo\AppData\Local\Temp\ccpE7U9z.s 			page 46


 2536              		.cfi_offset 4, -12
 2537              		.cfi_offset 5, -8
 2538              		.cfi_offset 14, -4
 2539              		.loc 1 174 0
 2540 0002 037E     		ldrb	r3, [r0, #24]	@ zero_extendqisi2
 2541              		.loc 1 171 0
 2542 0004 83B0     		sub	sp, sp, #12
 2543              		.cfi_def_cfa_offset 24
 2544              		.loc 1 171 0
 2545 0006 0446     		mov	r4, r0
 2546              		.loc 1 174 0
 2547 0008 19B1     		cbz	r1, .L330
 2548              		.loc 1 174 0 is_stmt 0 discriminator 1
 2549 000a 042B     		cmp	r3, #4
 2550 000c 1ED0     		beq	.L329
 2551              		.loc 1 174 0 discriminator 2
 2552 000e 072B     		cmp	r3, #7
 2553 0010 1CD0     		beq	.L329
 2554              	.LVL227:
 2555              	.L330:
 2556              		.loc 1 199 0 is_stmt 1
 2557 0012 072B     		cmp	r3, #7
 2558 0014 0ED8     		bhi	.L377
 2559 0016 DFE803F0 		tbb	[pc, r3]
 2560              	.L345:
 2561 001a 3F       		.byte	(.L344-.L345)/2
 2562 001b 54       		.byte	(.L346-.L345)/2
 2563 001c 5D       		.byte	(.L347-.L345)/2
 2564 001d 11       		.byte	(.L348-.L345)/2
 2565 001e 11       		.byte	(.L348-.L345)/2
 2566 001f 0D       		.byte	(.L377-.L345)/2
 2567 0020 0D       		.byte	(.L377-.L345)/2
 2568 0021 04       		.byte	(.L350-.L345)/2
 2569              		.p2align 1
 2570              	.L350:
 2571              		.loc 1 243 0
 2572 0022 2046     		mov	r0, r4
 2573              	.LVL228:
 2574 0024 FFF7FEFF 		bl	tcp_send_fin
 2575              	.LVL229:
 2576              		.loc 1 244 0
 2577 0028 28B9     		cbnz	r0, .L342
 2578              		.loc 1 246 0
 2579 002a 0923     		movs	r3, #9
 2580 002c 2376     		strb	r3, [r4, #24]
 2581              	.L361:
 2582              	.LVL230:
 2583              		.loc 1 265 0
 2584 002e 2046     		mov	r0, r4
 2585 0030 FFF7FEFF 		bl	tcp_output
 2586              	.LVL231:
 2587              	.L377:
 2588 0034 0020     		movs	r0, #0
 2589              	.L342:
 2590 0036 40B2     		sxtb	r0, r0
 2591              		.loc 1 268 0
 2592 0038 03B0     		add	sp, sp, #12
ARM GAS  C:\Users\jo\AppData\Local\Temp\ccpE7U9z.s 			page 47


 2593              		.cfi_remember_state
 2594              		.cfi_def_cfa_offset 12
 2595              		@ sp needed
 2596 003a 30BD     		pop	{r4, r5, pc}
 2597              	.LVL232:
 2598              	.L348:
 2599              		.cfi_restore_state
 2600              		.loc 1 229 0
 2601 003c 2046     		mov	r0, r4
 2602              	.LVL233:
 2603 003e FFF7FEFF 		bl	tcp_send_fin
 2604              	.LVL234:
 2605              		.loc 1 230 0
 2606 0042 0028     		cmp	r0, #0
 2607 0044 F7D1     		bne	.L342
 2608              		.loc 1 232 0
 2609 0046 0523     		movs	r3, #5
 2610 0048 2376     		strb	r3, [r4, #24]
 2611 004a F0E7     		b	.L361
 2612              	.LVL235:
 2613              	.L329:
 2614              		.loc 1 175 0
 2615 004c A26F     		ldr	r2, [r4, #120]
 2616 004e 002A     		cmp	r2, #0
 2617 0050 00F08A80 		beq	.L379
 2618              	.LVL236:
 2619              	.L331:
 2620              		.loc 1 178 0
 2621 0054 A37F     		ldrb	r3, [r4, #30]	@ zero_extendqisi2
 2622 0056 DB06     		lsls	r3, r3, #27
 2623 0058 48D5     		bpl	.L380
 2624              	.LVL237:
 2625              	.L332:
 2626              		.loc 1 182 0
 2627 005a 628B     		ldrh	r2, [r4, #26]
 2628 005c A38B     		ldrh	r3, [r4, #28]
 2629 005e 206D     		ldr	r0, [r4, #80]
 2630 0060 A16A     		ldr	r1, [r4, #40]
 2631 0062 8DE80C00 		stmia	sp, {r2, r3}
 2632 0066 2246     		mov	r2, r4
 2633 0068 231D     		adds	r3, r4, #4
 2634 006a FFF7FEFF 		bl	tcp_rst
 2635              	.LVL238:
 2636              		.loc 1 185 0
 2637 006e 2046     		mov	r0, r4
 2638 0070 FFF7FEFF 		bl	tcp_pcb_purge
 2639              	.LVL239:
 2640              		.loc 1 186 0
 2641 0074 414B     		ldr	r3, .L389
 2642 0076 1A68     		ldr	r2, [r3]
 2643 0078 A242     		cmp	r2, r4
 2644 007a 6BD0     		beq	.L381
 2645              		.loc 1 186 0 is_stmt 0 discriminator 2
 2646 007c 4049     		ldr	r1, .L389+4
 2647 007e 0A60     		str	r2, [r1]
 2648 0080 002A     		cmp	r2, #0
 2649 0082 42D0     		beq	.L334
ARM GAS  C:\Users\jo\AppData\Local\Temp\ccpE7U9z.s 			page 48


 2650              		.loc 1 186 0
 2651 0084 D368     		ldr	r3, [r2, #12]
 2652 0086 A342     		cmp	r3, r4
 2653 0088 67D0     		beq	.L382
 2654              	.L338:
 2655              		.loc 1 186 0 discriminator 6
 2656 008a 002B     		cmp	r3, #0
 2657 008c 56D0     		beq	.L383
 2658              		.loc 1 186 0 discriminator 9
 2659 008e DA68     		ldr	r2, [r3, #12]
 2660 0090 A242     		cmp	r2, r4
 2661 0092 37D0     		beq	.L384
 2662 0094 1346     		mov	r3, r2
 2663 0096 F8E7     		b	.L338
 2664              	.LVL240:
 2665              	.L344:
 2666              		.loc 1 209 0 is_stmt 1
 2667 0098 638B     		ldrh	r3, [r4, #26]
 2668 009a 002B     		cmp	r3, #0
 2669 009c 49D0     		beq	.L351
 2670              		.loc 1 210 0
 2671 009e 394B     		ldr	r3, .L389+8
 2672 00a0 1A68     		ldr	r2, [r3]
 2673 00a2 A242     		cmp	r2, r4
 2674 00a4 41D0     		beq	.L385
 2675              		.loc 1 210 0 is_stmt 0 discriminator 2
 2676 00a6 3649     		ldr	r1, .L389+4
 2677 00a8 0A60     		str	r2, [r1]
 2678 00aa 002A     		cmp	r2, #0
 2679 00ac 3FD0     		beq	.L353
 2680              		.loc 1 210 0
 2681 00ae D368     		ldr	r3, [r2, #12]
 2682 00b0 A342     		cmp	r3, r4
 2683 00b2 56D0     		beq	.L355
 2684              	.L357:
 2685              		.loc 1 210 0 discriminator 6
 2686 00b4 002B     		cmp	r3, #0
 2687 00b6 5ED0     		beq	.L386
 2688              		.loc 1 210 0 discriminator 9
 2689 00b8 DA68     		ldr	r2, [r3, #12]
 2690 00ba A242     		cmp	r2, r4
 2691 00bc 4FD0     		beq	.L387
 2692 00be 1346     		mov	r3, r2
 2693 00c0 F8E7     		b	.L357
 2694              	.LVL241:
 2695              	.L346:
 2696              		.loc 1 217 0 is_stmt 1
 2697 00c2 2146     		mov	r1, r4
 2698 00c4 3048     		ldr	r0, .L389+12
 2699              	.LVL242:
 2700 00c6 FFF7FEFF 		bl	tcp_pcb_remove
 2701              	.LVL243:
 2702              		.loc 1 218 0
 2703 00ca 2146     		mov	r1, r4
 2704 00cc 0320     		movs	r0, #3
 2705 00ce FFF7FEFF 		bl	memp_free
 2706              	.LVL244:
ARM GAS  C:\Users\jo\AppData\Local\Temp\ccpE7U9z.s 			page 49


 2707              		.loc 1 220 0
 2708 00d2 AFE7     		b	.L377
 2709              	.LVL245:
 2710              	.L347:
 2711              		.loc 1 223 0
 2712 00d4 2146     		mov	r1, r4
 2713 00d6 2948     		ldr	r0, .L389
 2714              	.LVL246:
 2715 00d8 FFF7FEFF 		bl	tcp_pcb_remove
 2716              	.LVL247:
 2717 00dc 2B4B     		ldr	r3, .L389+16
 2718 00de 0122     		movs	r2, #1
 2719              		.loc 1 224 0
 2720 00e0 2146     		mov	r1, r4
 2721 00e2 0220     		movs	r0, #2
 2722              		.loc 1 223 0
 2723 00e4 1A70     		strb	r2, [r3]
 2724              		.loc 1 224 0
 2725 00e6 FFF7FEFF 		bl	memp_free
 2726              	.LVL248:
 2727              		.loc 1 227 0
 2728 00ea A3E7     		b	.L377
 2729              	.LVL249:
 2730              	.L380:
 2731              		.loc 1 178 0 discriminator 1
 2732 00ec 284B     		ldr	r3, .L389+20
 2733 00ee 0093     		str	r3, [sp]
 2734 00f0 2849     		ldr	r1, .L389+24
 2735 00f2 294A     		ldr	r2, .L389+28
 2736 00f4 2948     		ldr	r0, .L389+32
 2737              	.LVL250:
 2738 00f6 B223     		movs	r3, #178
 2739 00f8 FFF7FEFF 		bl	chprintf.constprop.4
 2740              	.LVL251:
 2741              	.LBB183:
 2742              	.LBB184:
 2743              		.loc 3 414 0 discriminator 1
 2744 00fc 2648     		ldr	r0, .L389+28
 2745 00fe FFF7FEFF 		bl	chSysHalt
 2746              	.LVL252:
 2747 0102 AAE7     		b	.L332
 2748              	.LVL253:
 2749              	.L384:
 2750 0104 0B60     		str	r3, [r1]
 2751              	.L336:
 2752              	.LBE184:
 2753              	.LBE183:
 2754              		.loc 1 186 0 discriminator 5
 2755 0106 E268     		ldr	r2, [r4, #12]
 2756 0108 DA60     		str	r2, [r3, #12]
 2757              	.L334:
 2758              		.loc 1 187 0 discriminator 10
 2759 010a 237E     		ldrb	r3, [r4, #24]	@ zero_extendqisi2
 2760              		.loc 1 186 0 discriminator 10
 2761 010c 1F4A     		ldr	r2, .L389+16
 2762 010e 0121     		movs	r1, #1
 2763 0110 0025     		movs	r5, #0
ARM GAS  C:\Users\jo\AppData\Local\Temp\ccpE7U9z.s 			page 50


 2764              		.loc 1 187 0 discriminator 10
 2765 0112 042B     		cmp	r3, #4
 2766              		.loc 1 186 0 discriminator 10
 2767 0114 1170     		strb	r1, [r2]
 2768 0116 E560     		str	r5, [r4, #12]
 2769              		.loc 1 187 0 discriminator 10
 2770 0118 12D0     		beq	.L388
 2771              		.loc 1 193 0
 2772 011a 2146     		mov	r1, r4
 2773 011c 0220     		movs	r0, #2
 2774 011e FFF7FEFF 		bl	memp_free
 2775              	.LVL254:
 2776              		.loc 1 195 0
 2777 0122 2846     		mov	r0, r5
 2778 0124 40B2     		sxtb	r0, r0
 2779              		.loc 1 268 0
 2780 0126 03B0     		add	sp, sp, #12
 2781              		.cfi_remember_state
 2782              		.cfi_def_cfa_offset 12
 2783              		@ sp needed
 2784 0128 30BD     		pop	{r4, r5, pc}
 2785              	.LVL255:
 2786              	.L385:
 2787              		.cfi_restore_state
 2788              		.loc 1 210 0 discriminator 1
 2789 012a E268     		ldr	r2, [r4, #12]
 2790 012c 1A60     		str	r2, [r3]
 2791              	.L353:
 2792              		.loc 1 210 0 is_stmt 0 discriminator 10
 2793 012e 0023     		movs	r3, #0
 2794 0130 E360     		str	r3, [r4, #12]
 2795              	.L351:
 2796              		.loc 1 212 0 is_stmt 1
 2797 0132 2146     		mov	r1, r4
 2798 0134 0220     		movs	r0, #2
 2799              	.LVL256:
 2800 0136 FFF7FEFF 		bl	memp_free
 2801              	.LVL257:
 2802              		.loc 1 214 0
 2803 013a 7BE7     		b	.L377
 2804              	.LVL258:
 2805              	.L383:
 2806 013c 0B60     		str	r3, [r1]
 2807 013e E4E7     		b	.L334
 2808              	.L388:
 2809              		.loc 1 190 0
 2810 0140 174B     		ldr	r3, .L389+36
 2811              		.loc 1 189 0
 2812 0142 0A22     		movs	r2, #10
 2813              		.loc 1 190 0
 2814 0144 1968     		ldr	r1, [r3]
 2815 0146 E160     		str	r1, [r4, #12]
 2816              		.loc 1 189 0
 2817 0148 2276     		strb	r2, [r4, #24]
 2818              		.loc 1 190 0
 2819 014a 1C60     		str	r4, [r3]
 2820 014c FFF7FEFF 		bl	tcp_timer_needed
ARM GAS  C:\Users\jo\AppData\Local\Temp\ccpE7U9z.s 			page 51


 2821              	.LVL259:
 2822              		.loc 1 195 0
 2823 0150 2846     		mov	r0, r5
 2824 0152 70E7     		b	.L342
 2825              	.L381:
 2826              		.loc 1 186 0 discriminator 1
 2827 0154 E268     		ldr	r2, [r4, #12]
 2828 0156 1A60     		str	r2, [r3]
 2829 0158 D7E7     		b	.L334
 2830              	.L382:
 2831              		.loc 1 186 0 is_stmt 0
 2832 015a 1346     		mov	r3, r2
 2833 015c D3E7     		b	.L336
 2834              	.LVL260:
 2835              	.L387:
 2836 015e 1A46     		mov	r2, r3
 2837 0160 0B60     		str	r3, [r1]
 2838              	.L355:
 2839              		.loc 1 210 0 is_stmt 1 discriminator 5
 2840 0162 E368     		ldr	r3, [r4, #12]
 2841 0164 D360     		str	r3, [r2, #12]
 2842 0166 E2E7     		b	.L353
 2843              	.LVL261:
 2844              	.L379:
 2845              		.loc 1 175 0 discriminator 1
 2846 0168 A18D     		ldrh	r1, [r4, #44]
 2847              	.LVL262:
 2848 016a 41F2D062 		movw	r2, #5840
 2849 016e 9142     		cmp	r1, r2
 2850 0170 7FF470AF 		bne	.L331
 2851 0174 4DE7     		b	.L330
 2852              	.LVL263:
 2853              	.L386:
 2854 0176 0B60     		str	r3, [r1]
 2855 0178 D9E7     		b	.L353
 2856              	.L390:
 2857 017a 00BF     		.align	2
 2858              	.L389:
 2859 017c 00000000 		.word	.LANCHOR7
 2860 0180 00000000 		.word	.LANCHOR3
 2861 0184 00000000 		.word	.LANCHOR2
 2862 0188 00000000 		.word	.LANCHOR4
 2863 018c 00000000 		.word	.LANCHOR11
 2864 0190 50000000 		.word	.LC2
 2865 0194 00000000 		.word	.LC0
 2866 0198 4C030000 		.word	.LC22
 2867 019c 00000000 		.word	itm_port
 2868 01a0 00000000 		.word	.LANCHOR8
 2869              		.cfi_endproc
 2870              	.LFE258:
 2871              		.size	tcp_close_shutdown, .-tcp_close_shutdown
 2872 01a4 AFF30080 		.section	.text.tcp_close,"ax",%progbits
 2872      AFF30080 
 2872      AFF30080 
 2873              		.align	2
 2874              		.p2align 4,,15
 2875              		.global	tcp_close
ARM GAS  C:\Users\jo\AppData\Local\Temp\ccpE7U9z.s 			page 52


 2876              		.thumb
 2877              		.thumb_func
 2878              		.type	tcp_close, %function
 2879              	tcp_close:
 2880              	.LFB259:
 2881              		.loc 1 286 0
 2882              		.cfi_startproc
 2883              		@ args = 0, pretend = 0, frame = 0
 2884              		@ frame_needed = 0, uses_anonymous_args = 0
 2885              		@ link register save eliminated.
 2886              	.LVL264:
 2887              		.loc 1 292 0
 2888 0000 037E     		ldrb	r3, [r0, #24]	@ zero_extendqisi2
 2889 0002 012B     		cmp	r3, #1
 2890 0004 03D0     		beq	.L392
 2891              		.loc 1 294 0
 2892 0006 837F     		ldrb	r3, [r0, #30]	@ zero_extendqisi2
 2893 0008 43F01003 		orr	r3, r3, #16
 2894 000c 8377     		strb	r3, [r0, #30]
 2895              	.L392:
 2896              		.loc 1 297 0
 2897 000e 0121     		movs	r1, #1
 2898 0010 FFF7FEBF 		b	tcp_close_shutdown
 2899              	.LVL265:
 2900              		.cfi_endproc
 2901              	.LFE259:
 2902              		.size	tcp_close, .-tcp_close
 2903 0014 AFF30080 		.section	.text.tcp_recv_null,"ax",%progbits
 2903      AFF30080 
 2903      AFF30080 
 2904              		.align	2
 2905              		.p2align 4,,15
 2906              		.global	tcp_recv_null
 2907              		.thumb
 2908              		.thumb_func
 2909              		.type	tcp_recv_null, %function
 2910              	tcp_recv_null:
 2911              	.LFB277:
 2912              		.loc 1 1198 0
 2913              		.cfi_startproc
 2914              		@ args = 0, pretend = 0, frame = 0
 2915              		@ frame_needed = 0, uses_anonymous_args = 0
 2916              	.LVL266:
 2917              		.loc 1 1200 0
 2918 0000 52B1     		cbz	r2, .L397
 2919              		.loc 1 1198 0
 2920 0002 10B5     		push	{r4, lr}
 2921              		.cfi_def_cfa_offset 8
 2922              		.cfi_offset 4, -8
 2923              		.cfi_offset 14, -4
 2924 0004 0846     		mov	r0, r1
 2925              	.LVL267:
 2926 0006 1446     		mov	r4, r2
 2927              		.loc 1 1201 0
 2928 0008 1189     		ldrh	r1, [r2, #8]
 2929              	.LVL268:
 2930 000a FFF7FEFF 		bl	tcp_recved
ARM GAS  C:\Users\jo\AppData\Local\Temp\ccpE7U9z.s 			page 53


 2931              	.LVL269:
 2932              		.loc 1 1202 0
 2933 000e 2046     		mov	r0, r4
 2934 0010 FFF7FEFF 		bl	pbuf_free
 2935              	.LVL270:
 2936              		.loc 1 1207 0
 2937 0014 0020     		movs	r0, #0
 2938 0016 10BD     		pop	{r4, pc}
 2939              	.LVL271:
 2940              	.L397:
 2941              		.cfi_def_cfa_offset 0
 2942              		.cfi_restore 4
 2943              		.cfi_restore 14
 2944              	.LBB187:
 2945              	.LBB188:
 2946              		.loc 1 1203 0
 2947 0018 0BB1     		cbz	r3, .L402
 2948              	.LBE188:
 2949              	.LBE187:
 2950              		.loc 1 1207 0
 2951 001a 0020     		movs	r0, #0
 2952              	.LVL272:
 2953 001c 7047     		bx	lr
 2954              	.LVL273:
 2955              	.L402:
 2956              	.LBB190:
 2957              	.LBB189:
 2958              		.loc 1 1204 0
 2959 001e 0846     		mov	r0, r1
 2960              	.LVL274:
 2961 0020 FFF7FEBF 		b	tcp_close
 2962              	.LVL275:
 2963              	.LBE189:
 2964              	.LBE190:
 2965              		.cfi_endproc
 2966              	.LFE277:
 2967              		.size	tcp_recv_null, .-tcp_recv_null
 2968 0024 AFF30080 		.section	.text.tcp_process_refused_data,"ax",%progbits
 2968      AFF30080 
 2968      AFF30080 
 2969              		.align	2
 2970              		.p2align 4,,15
 2971              		.global	tcp_process_refused_data
 2972              		.thumb
 2973              		.thumb_func
 2974              		.type	tcp_process_refused_data, %function
 2975              	tcp_process_refused_data:
 2976              	.LFB272:
 2977              		.loc 1 1086 0
 2978              		.cfi_startproc
 2979              		@ args = 0, pretend = 0, frame = 0
 2980              		@ frame_needed = 0, uses_anonymous_args = 0
 2981              	.LVL276:
 2982 0000 F8B5     		push	{r3, r4, r5, r6, r7, lr}
 2983              		.cfi_def_cfa_offset 24
 2984              		.cfi_offset 3, -24
 2985              		.cfi_offset 4, -20
ARM GAS  C:\Users\jo\AppData\Local\Temp\ccpE7U9z.s 			page 54


 2986              		.cfi_offset 5, -16
 2987              		.cfi_offset 6, -12
 2988              		.cfi_offset 7, -8
 2989              		.cfi_offset 14, -4
 2990              		.loc 1 1088 0
 2991 0002 856F     		ldr	r5, [r0, #120]
 2992              		.loc 1 1095 0
 2993 0004 D0F88060 		ldr	r6, [r0, #128]
 2994              		.loc 1 1088 0
 2995 0008 6F7B     		ldrb	r7, [r5, #13]	@ zero_extendqisi2
 2996              	.LVL277:
 2997              		.loc 1 1092 0
 2998 000a 0023     		movs	r3, #0
 2999              		.loc 1 1086 0
 3000 000c 0446     		mov	r4, r0
 3001              		.loc 1 1092 0
 3002 000e 8367     		str	r3, [r0, #120]
 3003              		.loc 1 1095 0
 3004 0010 0EB3     		cbz	r6, .L404
 3005              		.loc 1 1095 0 is_stmt 0 discriminator 1
 3006 0012 0069     		ldr	r0, [r0, #16]
 3007              	.LVL278:
 3008 0014 2146     		mov	r1, r4
 3009 0016 2A46     		mov	r2, r5
 3010 0018 B047     		blx	r6
 3011              	.LVL279:
 3012              	.L405:
 3013              		.loc 1 1096 0 is_stmt 1
 3014 001a A8B9     		cbnz	r0, .L406
 3015              		.loc 1 1098 0
 3016 001c BB06     		lsls	r3, r7, #26
 3017 001e 10D5     		bpl	.L412
 3018              	.LVL280:
 3019              	.LBB193:
 3020              	.LBB194:
 3021              		.loc 1 1101 0
 3022 0020 A38D     		ldrh	r3, [r4, #44]
 3023              		.loc 1 1104 0
 3024 0022 D4F88050 		ldr	r5, [r4, #128]
 3025              	.LVL281:
 3026              		.loc 1 1101 0
 3027 0026 41F2D062 		movw	r2, #5840
 3028 002a 9342     		cmp	r3, r2
 3029              		.loc 1 1102 0
 3030 002c 1CBF     		itt	ne
 3031 002e 0133     		addne	r3, r3, #1
 3032 0030 A385     		strhne	r3, [r4, #44]	@ movhi
 3033              		.loc 1 1104 0
 3034 0032 35B1     		cbz	r5, .L412
 3035 0034 0022     		movs	r2, #0
 3036 0036 1346     		mov	r3, r2
 3037 0038 2069     		ldr	r0, [r4, #16]
 3038              	.LVL282:
 3039 003a 2146     		mov	r1, r4
 3040 003c A847     		blx	r5
 3041              	.LVL283:
 3042              		.loc 1 1105 0
ARM GAS  C:\Users\jo\AppData\Local\Temp\ccpE7U9z.s 			page 55


 3043 003e 0A30     		adds	r0, r0, #10
 3044              	.LVL284:
 3045 0040 10D0     		beq	.L411
 3046              	.LVL285:
 3047              	.L412:
 3048              		.loc 1 1119 0
 3049 0042 0020     		movs	r0, #0
 3050              	.LBE194:
 3051              	.LBE193:
 3052              		.loc 1 1120 0
 3053 0044 40B2     		sxtb	r0, r0
 3054 0046 F8BD     		pop	{r3, r4, r5, r6, r7, pc}
 3055              	.LVL286:
 3056              	.L406:
 3057              		.loc 1 1109 0
 3058 0048 40B2     		sxtb	r0, r0
 3059 004a 0A30     		adds	r0, r0, #10
 3060              	.LVL287:
 3061 004c 0AD0     		beq	.L411
 3062              		.loc 1 1117 0
 3063 004e A567     		str	r5, [r4, #120]
 3064              		.loc 1 1119 0
 3065 0050 0020     		movs	r0, #0
 3066              	.LVL288:
 3067              	.L408:
 3068              		.loc 1 1120 0
 3069 0052 40B2     		sxtb	r0, r0
 3070 0054 F8BD     		pop	{r3, r4, r5, r6, r7, pc}
 3071              	.LVL289:
 3072              	.L404:
 3073              		.loc 1 1095 0 discriminator 2
 3074 0056 3046     		mov	r0, r6
 3075              	.LVL290:
 3076 0058 3346     		mov	r3, r6
 3077 005a 2146     		mov	r1, r4
 3078 005c 2A46     		mov	r2, r5
 3079 005e FFF7FEFF 		bl	tcp_recv_null
 3080              	.LVL291:
 3081 0062 DAE7     		b	.L405
 3082              	.LVL292:
 3083              	.L411:
 3084              	.LBB196:
 3085              	.LBB195:
 3086              		.loc 1 1106 0
 3087 0064 F620     		movs	r0, #246
 3088 0066 F4E7     		b	.L408
 3089              	.LBE195:
 3090              	.LBE196:
 3091              		.cfi_endproc
 3092              	.LFE272:
 3093              		.size	tcp_process_refused_data, .-tcp_process_refused_data
 3094 0068 AFF30080 		.section	.text.tcp_fasttmr,"ax",%progbits
 3094      AFF30080 
 3095              		.align	2
 3096              		.p2align 4,,15
 3097              		.global	tcp_fasttmr
 3098              		.thumb
ARM GAS  C:\Users\jo\AppData\Local\Temp\ccpE7U9z.s 			page 56


 3099              		.thumb_func
 3100              		.type	tcp_fasttmr, %function
 3101              	tcp_fasttmr:
 3102              	.LFB271:
 3103              		.loc 1 1047 0
 3104              		.cfi_startproc
 3105              		@ args = 0, pretend = 0, frame = 0
 3106              		@ frame_needed = 0, uses_anonymous_args = 0
 3107 0000 2DE9F041 		push	{r4, r5, r6, r7, r8, lr}
 3108              		.cfi_def_cfa_offset 24
 3109              		.cfi_offset 4, -24
 3110              		.cfi_offset 5, -20
 3111              		.cfi_offset 6, -16
 3112              		.cfi_offset 7, -12
 3113              		.cfi_offset 8, -8
 3114              		.cfi_offset 14, -4
 3115              		.loc 1 1050 0
 3116 0004 174D     		ldr	r5, .L435
 3117 0006 184F     		ldr	r7, .L435+4
 3118 0008 2B78     		ldrb	r3, [r5]	@ zero_extendqisi2
 3119              	.LBB197:
 3120              		.loc 1 1071 0
 3121 000a DFF86080 		ldr	r8, .L435+8
 3122              	.LBE197:
 3123              		.loc 1 1050 0
 3124 000e 0133     		adds	r3, r3, #1
 3125 0010 2B70     		strb	r3, [r5]
 3126              	.LBB198:
 3127              		.loc 1 1071 0
 3128 0012 0026     		movs	r6, #0
 3129              	.L421:
 3130              	.LBE198:
 3131              		.loc 1 1053 0
 3132 0014 3C68     		ldr	r4, [r7]
 3133              	.LVL293:
 3134              	.L422:
 3135              		.loc 1 1055 0
 3136 0016 2CB1     		cbz	r4, .L420
 3137              		.loc 1 1056 0
 3138 0018 2B78     		ldrb	r3, [r5]	@ zero_extendqisi2
 3139 001a 94F82120 		ldrb	r2, [r4, #33]	@ zero_extendqisi2
 3140 001e 9A42     		cmp	r2, r3
 3141 0020 02D1     		bne	.L428
 3142              	.L423:
 3143 0022 FEE7     		b	.L423
 3144              	.L420:
 3145 0024 BDE8F081 		pop	{r4, r5, r6, r7, r8, pc}
 3146              	.L428:
 3147              	.LBB199:
 3148              		.loc 1 1060 0
 3149 0028 A27F     		ldrb	r2, [r4, #30]	@ zero_extendqisi2
 3150              		.loc 1 1058 0
 3151 002a 84F82130 		strb	r3, [r4, #33]
 3152              		.loc 1 1060 0
 3153 002e D307     		lsls	r3, r2, #31
 3154 0030 0DD4     		bmi	.L434
 3155              	.L424:
ARM GAS  C:\Users\jo\AppData\Local\Temp\ccpE7U9z.s 			page 57


 3156              		.loc 1 1070 0
 3157 0032 A36F     		ldr	r3, [r4, #120]
 3158              		.loc 1 1072 0
 3159 0034 2046     		mov	r0, r4
 3160              		.loc 1 1067 0
 3161 0036 E468     		ldr	r4, [r4, #12]
 3162              	.LVL294:
 3163              		.loc 1 1070 0
 3164 0038 002B     		cmp	r3, #0
 3165 003a ECD0     		beq	.L422
 3166              		.loc 1 1071 0
 3167 003c 88F80060 		strb	r6, [r8]
 3168              		.loc 1 1072 0
 3169 0040 FFF7FEFF 		bl	tcp_process_refused_data
 3170              	.LVL295:
 3171              		.loc 1 1073 0
 3172 0044 98F80030 		ldrb	r3, [r8]	@ zero_extendqisi2
 3173 0048 002B     		cmp	r3, #0
 3174 004a E4D0     		beq	.L422
 3175 004c E2E7     		b	.L421
 3176              	.LVL296:
 3177              	.L434:
 3178              		.loc 1 1062 0
 3179 004e 42F00202 		orr	r2, r2, #2
 3180 0052 A277     		strb	r2, [r4, #30]
 3181              		.loc 1 1063 0
 3182 0054 2046     		mov	r0, r4
 3183 0056 FFF7FEFF 		bl	tcp_output
 3184              	.LVL297:
 3185              		.loc 1 1064 0
 3186 005a A37F     		ldrb	r3, [r4, #30]	@ zero_extendqisi2
 3187 005c 23F00303 		bic	r3, r3, #3
 3188 0060 A377     		strb	r3, [r4, #30]
 3189 0062 E6E7     		b	.L424
 3190              	.L436:
 3191              		.align	2
 3192              	.L435:
 3193 0064 00000000 		.word	.LANCHOR6
 3194 0068 00000000 		.word	.LANCHOR7
 3195 006c 00000000 		.word	.LANCHOR11
 3196              	.LBE199:
 3197              		.cfi_endproc
 3198              	.LFE271:
 3199              		.size	tcp_fasttmr, .-tcp_fasttmr
 3200              		.section	.text.tcp_tmr,"ax",%progbits
 3201              		.align	2
 3202              		.p2align 4,,15
 3203              		.global	tcp_tmr
 3204              		.thumb
 3205              		.thumb_func
 3206              		.type	tcp_tmr, %function
 3207              	tcp_tmr:
 3208              	.LFB257:
 3209              		.loc 1 142 0
 3210              		.cfi_startproc
 3211              		@ args = 0, pretend = 0, frame = 0
 3212              		@ frame_needed = 0, uses_anonymous_args = 0
ARM GAS  C:\Users\jo\AppData\Local\Temp\ccpE7U9z.s 			page 58


 3213 0000 08B5     		push	{r3, lr}
 3214              		.cfi_def_cfa_offset 8
 3215              		.cfi_offset 3, -8
 3216              		.cfi_offset 14, -4
 3217              		.loc 1 144 0
 3218 0002 FFF7FEFF 		bl	tcp_fasttmr
 3219              	.LVL298:
 3220              		.loc 1 146 0
 3221 0006 064A     		ldr	r2, .L441
 3222 0008 1378     		ldrb	r3, [r2]	@ zero_extendqisi2
 3223 000a 0133     		adds	r3, r3, #1
 3224 000c DBB2     		uxtb	r3, r3
 3225 000e 1370     		strb	r3, [r2]
 3226 0010 DB07     		lsls	r3, r3, #31
 3227 0012 00D4     		bmi	.L440
 3228 0014 08BD     		pop	{r3, pc}
 3229              	.L440:
 3230              		.loc 1 151 0
 3231 0016 BDE80840 		pop	{r3, lr}
 3232              		.cfi_restore 14
 3233              		.cfi_restore 3
 3234              		.cfi_def_cfa_offset 0
 3235              		.loc 1 149 0
 3236 001a FFF7FEBF 		b	tcp_slowtmr
 3237              	.LVL299:
 3238              	.L442:
 3239 001e 00BF     		.align	2
 3240              	.L441:
 3241 0020 00000000 		.word	.LANCHOR12
 3242              		.cfi_endproc
 3243              	.LFE257:
 3244              		.size	tcp_tmr, .-tcp_tmr
 3245 0024 AFF30080 		.section	.text.tcp_shutdown,"ax",%progbits
 3245      AFF30080 
 3245      AFF30080 
 3246              		.align	2
 3247              		.p2align 4,,15
 3248              		.global	tcp_shutdown
 3249              		.thumb
 3250              		.thumb_func
 3251              		.type	tcp_shutdown, %function
 3252              	tcp_shutdown:
 3253              	.LFB260:
 3254              		.loc 1 314 0
 3255              		.cfi_startproc
 3256              		@ args = 0, pretend = 0, frame = 0
 3257              		@ frame_needed = 0, uses_anonymous_args = 0
 3258              	.LVL300:
 3259 0000 38B5     		push	{r3, r4, r5, lr}
 3260              		.cfi_def_cfa_offset 16
 3261              		.cfi_offset 3, -16
 3262              		.cfi_offset 4, -12
 3263              		.cfi_offset 5, -8
 3264              		.cfi_offset 14, -4
 3265              		.loc 1 315 0
 3266 0002 037E     		ldrb	r3, [r0, #24]	@ zero_extendqisi2
 3267 0004 012B     		cmp	r3, #1
ARM GAS  C:\Users\jo\AppData\Local\Temp\ccpE7U9z.s 			page 59


 3268              		.loc 1 314 0
 3269 0006 0546     		mov	r5, r0
 3270              		.loc 1 315 0
 3271 0008 23D0     		beq	.L451
 3272              		.loc 1 318 0
 3273 000a 69B1     		cbz	r1, .L445
 3274              		.loc 1 320 0
 3275 000c 837F     		ldrb	r3, [r0, #30]	@ zero_extendqisi2
 3276 000e 43F01003 		orr	r3, r3, #16
 3277 0012 8377     		strb	r3, [r0, #30]
 3278              		.loc 1 321 0
 3279 0014 C2B9     		cbnz	r2, .L457
 3280              		.loc 1 326 0
 3281 0016 806F     		ldr	r0, [r0, #120]
 3282              	.LVL301:
 3283 0018 18B1     		cbz	r0, .L447
 3284 001a 1446     		mov	r4, r2
 3285              		.loc 1 327 0
 3286 001c FFF7FEFF 		bl	pbuf_free
 3287              	.LVL302:
 3288              		.loc 1 328 0
 3289 0020 AC67     		str	r4, [r5, #120]
 3290              	.LVL303:
 3291              	.L447:
 3292              		.loc 1 345 0
 3293 0022 0020     		movs	r0, #0
 3294              	.L444:
 3295 0024 40B2     		sxtb	r0, r0
 3296              		.loc 1 346 0
 3297 0026 38BD     		pop	{r3, r4, r5, pc}
 3298              	.LVL304:
 3299              	.L445:
 3300              		.loc 1 331 0
 3301 0028 002A     		cmp	r2, #0
 3302 002a FAD0     		beq	.L447
 3303 002c 033B     		subs	r3, r3, #3
 3304 002e DBB2     		uxtb	r3, r3
 3305 0030 042B     		cmp	r3, #4
 3306 0032 0ED8     		bhi	.L451
 3307 0034 0122     		movs	r2, #1
 3308              	.LVL305:
 3309 0036 02FA03F3 		lsl	r3, r2, r3
 3310 003a 13F0130F 		tst	r3, #19
 3311 003e 08D0     		beq	.L451
 3312              		.loc 1 346 0
 3313 0040 BDE83840 		pop	{r3, r4, r5, lr}
 3314              		.cfi_remember_state
 3315              		.cfi_restore 14
 3316              		.cfi_restore 5
 3317              		.cfi_restore 4
 3318              		.cfi_restore 3
 3319              		.cfi_def_cfa_offset 0
 3320              		.loc 1 338 0
 3321 0044 FFF7FEBF 		b	tcp_close_shutdown
 3322              	.LVL306:
 3323              	.L457:
 3324              		.cfi_restore_state
ARM GAS  C:\Users\jo\AppData\Local\Temp\ccpE7U9z.s 			page 60


 3325              		.loc 1 323 0
 3326 0048 0121     		movs	r1, #1
 3327              	.LVL307:
 3328              		.loc 1 346 0
 3329 004a BDE83840 		pop	{r3, r4, r5, lr}
 3330              		.cfi_remember_state
 3331              		.cfi_restore 14
 3332              		.cfi_restore 5
 3333              		.cfi_restore 4
 3334              		.cfi_restore 3
 3335              		.cfi_def_cfa_offset 0
 3336              		.loc 1 323 0
 3337 004e FFF7FEBF 		b	tcp_close_shutdown
 3338              	.LVL308:
 3339              	.L451:
 3340              		.cfi_restore_state
 3341              		.loc 1 316 0
 3342 0052 F320     		movs	r0, #243
 3343              	.LVL309:
 3344 0054 E6E7     		b	.L444
 3345              		.cfi_endproc
 3346              	.LFE260:
 3347              		.size	tcp_shutdown, .-tcp_shutdown
 3348 0056 00BFAFF3 		.section	.text.tcp_abandon,"ax",%progbits
 3348      0080AFF3 
 3348      0080
 3349              		.align	2
 3350              		.p2align 4,,15
 3351              		.global	tcp_abandon
 3352              		.thumb
 3353              		.thumb_func
 3354              		.type	tcp_abandon, %function
 3355              	tcp_abandon:
 3356              	.LFB261:
 3357              		.loc 1 358 0
 3358              		.cfi_startproc
 3359              		@ args = 0, pretend = 0, frame = 0
 3360              		@ frame_needed = 0, uses_anonymous_args = 0
 3361              	.LVL310:
 3362 0000 2DE9F047 		push	{r4, r5, r6, r7, r8, r9, r10, lr}
 3363              		.cfi_def_cfa_offset 32
 3364              		.cfi_offset 4, -32
 3365              		.cfi_offset 5, -28
 3366              		.cfi_offset 6, -24
 3367              		.cfi_offset 7, -20
 3368              		.cfi_offset 8, -16
 3369              		.cfi_offset 9, -12
 3370              		.cfi_offset 10, -8
 3371              		.cfi_offset 14, -4
 3372              		.loc 1 366 0
 3373 0004 037E     		ldrb	r3, [r0, #24]	@ zero_extendqisi2
 3374 0006 012B     		cmp	r3, #1
 3375              		.loc 1 358 0
 3376 0008 82B0     		sub	sp, sp, #8
 3377              		.cfi_def_cfa_offset 40
 3378              		.loc 1 358 0
 3379 000a 0446     		mov	r4, r0
ARM GAS  C:\Users\jo\AppData\Local\Temp\ccpE7U9z.s 			page 61


 3380 000c 0E46     		mov	r6, r1
 3381              		.loc 1 366 0
 3382 000e 56D0     		beq	.L478
 3383              	.LVL311:
 3384              	.L459:
 3385              		.loc 1 371 0
 3386 0010 0A2B     		cmp	r3, #10
 3387 0012 49D0     		beq	.L479
 3388              		.loc 1 381 0
 3389 0014 3148     		ldr	r0, .L482
 3390              		.loc 1 375 0
 3391 0016 D4F85090 		ldr	r9, [r4, #80]
 3392              	.LVL312:
 3393              		.loc 1 376 0
 3394 001a D4F82880 		ldr	r8, [r4, #40]
 3395              	.LVL313:
 3396              		.loc 1 378 0
 3397 001e D4F88C50 		ldr	r5, [r4, #140]
 3398              	.LVL314:
 3399              		.loc 1 380 0
 3400 0022 2769     		ldr	r7, [r4, #16]
 3401              	.LVL315:
 3402              		.loc 1 381 0
 3403 0024 2146     		mov	r1, r4
 3404 0026 FFF7FEFF 		bl	tcp_pcb_remove
 3405              	.LVL316:
 3406 002a 2D4B     		ldr	r3, .L482+4
 3407              		.loc 1 382 0
 3408 002c 206F     		ldr	r0, [r4, #112]
 3409              		.loc 1 381 0
 3410 002e 0122     		movs	r2, #1
 3411 0030 1A70     		strb	r2, [r3]
 3412              		.loc 1 382 0
 3413 0032 30B1     		cbz	r0, .L465
 3414              	.L464:
 3415              	.LVL317:
 3416              	.LBB200:
 3417              	.LBB201:
 3418              	.LBB202:
 3419              		.loc 1 1131 0
 3420 0034 D0F800A0 		ldr	r10, [r0]
 3421              	.LVL318:
 3422              		.loc 1 1132 0
 3423 0038 FFF7FEFF 		bl	tcp_seg_free
 3424              	.LVL319:
 3425              	.LBE202:
 3426              		.loc 1 1130 0
 3427 003c 5046     		mov	r0, r10
 3428 003e 0028     		cmp	r0, #0
 3429 0040 F8D1     		bne	.L464
 3430              	.LVL320:
 3431              	.L465:
 3432              	.LBE201:
 3433              	.LBE200:
 3434              		.loc 1 385 0
 3435 0042 E06E     		ldr	r0, [r4, #108]
 3436 0044 30B1     		cbz	r0, .L463
ARM GAS  C:\Users\jo\AppData\Local\Temp\ccpE7U9z.s 			page 62


 3437              	.L468:
 3438              	.LVL321:
 3439              	.LBB203:
 3440              	.LBB204:
 3441              	.LBB205:
 3442              		.loc 1 1131 0
 3443 0046 D0F800A0 		ldr	r10, [r0]
 3444              	.LVL322:
 3445              		.loc 1 1132 0
 3446 004a FFF7FEFF 		bl	tcp_seg_free
 3447              	.LVL323:
 3448              	.LBE205:
 3449              		.loc 1 1130 0
 3450 004e 5046     		mov	r0, r10
 3451 0050 0028     		cmp	r0, #0
 3452 0052 F8D1     		bne	.L468
 3453              	.LVL324:
 3454              	.L463:
 3455              	.LBE204:
 3456              	.LBE203:
 3457              		.loc 1 389 0
 3458 0054 606F     		ldr	r0, [r4, #116]
 3459 0056 30B1     		cbz	r0, .L467
 3460              	.L471:
 3461              	.LVL325:
 3462              	.LBB206:
 3463              	.LBB207:
 3464              	.LBB208:
 3465              		.loc 1 1131 0
 3466 0058 D0F800A0 		ldr	r10, [r0]
 3467              	.LVL326:
 3468              		.loc 1 1132 0
 3469 005c FFF7FEFF 		bl	tcp_seg_free
 3470              	.LVL327:
 3471              	.LBE208:
 3472              		.loc 1 1130 0
 3473 0060 5046     		mov	r0, r10
 3474 0062 0028     		cmp	r0, #0
 3475 0064 F8D1     		bne	.L471
 3476              	.LVL328:
 3477              	.L467:
 3478              	.LBE207:
 3479              	.LBE206:
 3480              		.loc 1 393 0
 3481 0066 66B9     		cbnz	r6, .L480
 3482              		.loc 1 397 0
 3483 0068 2146     		mov	r1, r4
 3484 006a 0220     		movs	r0, #2
 3485 006c FFF7FEFF 		bl	memp_free
 3486              	.LVL329:
 3487              		.loc 1 398 0
 3488 0070 BDB1     		cbz	r5, .L458
 3489              	.L481:
 3490              		.loc 1 398 0 is_stmt 0 discriminator 1
 3491 0072 3846     		mov	r0, r7
 3492 0074 6FF00901 		mvn	r1, #9
 3493 0078 2B46     		mov	r3, r5
ARM GAS  C:\Users\jo\AppData\Local\Temp\ccpE7U9z.s 			page 63


 3494              		.loc 1 400 0 is_stmt 1 discriminator 1
 3495 007a 02B0     		add	sp, sp, #8
 3496              		.cfi_remember_state
 3497              		.cfi_def_cfa_offset 32
 3498              		@ sp needed
 3499 007c BDE8F047 		pop	{r4, r5, r6, r7, r8, r9, r10, lr}
 3500              		.cfi_restore 14
 3501              		.cfi_restore 10
 3502              		.cfi_restore 9
 3503              		.cfi_restore 8
 3504              		.cfi_restore 7
 3505              		.cfi_restore 6
 3506              		.cfi_restore 5
 3507              		.cfi_restore 4
 3508              		.cfi_def_cfa_offset 0
 3509              	.LVL330:
 3510              		.loc 1 398 0 discriminator 1
 3511 0080 1847     		bx	r3	@ indirect register sibling call
 3512              	.LVL331:
 3513              	.L480:
 3514              		.cfi_restore_state
 3515              		.loc 1 395 0
 3516 0082 628B     		ldrh	r2, [r4, #26]
 3517 0084 A38B     		ldrh	r3, [r4, #28]
 3518 0086 0193     		str	r3, [sp, #4]
 3519 0088 0092     		str	r2, [sp]
 3520 008a 4846     		mov	r0, r9
 3521 008c 4146     		mov	r1, r8
 3522 008e 2246     		mov	r2, r4
 3523 0090 231D     		adds	r3, r4, #4
 3524 0092 FFF7FEFF 		bl	tcp_rst
 3525              	.LVL332:
 3526              		.loc 1 397 0
 3527 0096 2146     		mov	r1, r4
 3528 0098 0220     		movs	r0, #2
 3529 009a FFF7FEFF 		bl	memp_free
 3530              	.LVL333:
 3531              		.loc 1 398 0
 3532 009e 002D     		cmp	r5, #0
 3533 00a0 E7D1     		bne	.L481
 3534              	.L458:
 3535              		.loc 1 400 0
 3536 00a2 02B0     		add	sp, sp, #8
 3537              		.cfi_remember_state
 3538              		.cfi_def_cfa_offset 32
 3539              		@ sp needed
 3540 00a4 BDE8F087 		pop	{r4, r5, r6, r7, r8, r9, r10, pc}
 3541              	.LVL334:
 3542              	.L479:
 3543              		.cfi_restore_state
 3544              		.loc 1 372 0
 3545 00a8 2146     		mov	r1, r4
 3546 00aa 0E48     		ldr	r0, .L482+8
 3547 00ac FFF7FEFF 		bl	tcp_pcb_remove
 3548              	.LVL335:
 3549              		.loc 1 373 0
 3550 00b0 2146     		mov	r1, r4
ARM GAS  C:\Users\jo\AppData\Local\Temp\ccpE7U9z.s 			page 64


 3551 00b2 0220     		movs	r0, #2
 3552              		.loc 1 400 0
 3553 00b4 02B0     		add	sp, sp, #8
 3554              		.cfi_remember_state
 3555              		.cfi_def_cfa_offset 32
 3556              		@ sp needed
 3557 00b6 BDE8F047 		pop	{r4, r5, r6, r7, r8, r9, r10, lr}
 3558              		.cfi_restore 14
 3559              		.cfi_restore 10
 3560              		.cfi_restore 9
 3561              		.cfi_restore 8
 3562              		.cfi_restore 7
 3563              		.cfi_restore 6
 3564              		.cfi_restore 5
 3565              		.cfi_restore 4
 3566              		.cfi_def_cfa_offset 0
 3567              	.LVL336:
 3568              		.loc 1 373 0
 3569 00ba FFF7FEBF 		b	memp_free
 3570              	.LVL337:
 3571              	.L478:
 3572              		.cfi_restore_state
 3573              		.loc 1 366 0 discriminator 1
 3574 00be 0A4B     		ldr	r3, .L482+12
 3575 00c0 0093     		str	r3, [sp]
 3576 00c2 0A49     		ldr	r1, .L482+16
 3577              	.LVL338:
 3578 00c4 0A4A     		ldr	r2, .L482+20
 3579 00c6 0B48     		ldr	r0, .L482+24
 3580              	.LVL339:
 3581 00c8 40F26F13 		movw	r3, #367
 3582 00cc FFF7FEFF 		bl	chprintf.constprop.4
 3583              	.LVL340:
 3584              	.LBB209:
 3585              	.LBB210:
 3586              		.loc 3 414 0 discriminator 1
 3587 00d0 0748     		ldr	r0, .L482+20
 3588 00d2 FFF7FEFF 		bl	chSysHalt
 3589              	.LVL341:
 3590 00d6 237E     		ldrb	r3, [r4, #24]	@ zero_extendqisi2
 3591 00d8 9AE7     		b	.L459
 3592              	.L483:
 3593 00da 00BF     		.align	2
 3594              	.L482:
 3595 00dc 00000000 		.word	.LANCHOR7
 3596 00e0 00000000 		.word	.LANCHOR11
 3597 00e4 00000000 		.word	.LANCHOR8
 3598 00e8 50000000 		.word	.LC2
 3599 00ec 00000000 		.word	.LC0
 3600 00f0 68030000 		.word	.LC23
 3601 00f4 00000000 		.word	itm_port
 3602              	.LBE210:
 3603              	.LBE209:
 3604              		.cfi_endproc
 3605              	.LFE261:
 3606              		.size	tcp_abandon, .-tcp_abandon
 3607 00f8 AFF30080 		.section	.text.tcp_abort,"ax",%progbits
ARM GAS  C:\Users\jo\AppData\Local\Temp\ccpE7U9z.s 			page 65


 3607      AFF30080 
 3608              		.align	2
 3609              		.p2align 4,,15
 3610              		.global	tcp_abort
 3611              		.thumb
 3612              		.thumb_func
 3613              		.type	tcp_abort, %function
 3614              	tcp_abort:
 3615              	.LFB262:
 3616              		.loc 1 414 0
 3617              		.cfi_startproc
 3618              		@ args = 0, pretend = 0, frame = 0
 3619              		@ frame_needed = 0, uses_anonymous_args = 0
 3620              		@ link register save eliminated.
 3621              	.LVL342:
 3622              		.loc 1 415 0
 3623 0000 0121     		movs	r1, #1
 3624 0002 FFF7FEBF 		b	tcp_abandon
 3625              	.LVL343:
 3626              		.cfi_endproc
 3627              	.LFE262:
 3628              		.size	tcp_abort, .-tcp_abort
 3629 0006 00BFAFF3 		.section	.text.tcp_alloc,"ax",%progbits
 3629      0080AFF3 
 3629      0080
 3630              		.align	2
 3631              		.p2align 4,,15
 3632              		.global	tcp_alloc
 3633              		.thumb
 3634              		.thumb_func
 3635              		.type	tcp_alloc, %function
 3636              	tcp_alloc:
 3637              	.LFB280:
 3638              		.loc 1 1279 0
 3639              		.cfi_startproc
 3640              		@ args = 0, pretend = 0, frame = 0
 3641              		@ frame_needed = 0, uses_anonymous_args = 0
 3642              	.LVL344:
 3643 0000 2DE9F84F 		push	{r3, r4, r5, r6, r7, r8, r9, r10, fp, lr}
 3644              		.cfi_def_cfa_offset 40
 3645              		.cfi_offset 3, -40
 3646              		.cfi_offset 4, -36
 3647              		.cfi_offset 5, -32
 3648              		.cfi_offset 6, -28
 3649              		.cfi_offset 7, -24
 3650              		.cfi_offset 8, -20
 3651              		.cfi_offset 9, -16
 3652              		.cfi_offset 10, -12
 3653              		.cfi_offset 11, -8
 3654              		.cfi_offset 14, -4
 3655              		.loc 1 1279 0
 3656 0004 0746     		mov	r7, r0
 3657              		.loc 1 1283 0
 3658 0006 0220     		movs	r0, #2
 3659              	.LVL345:
 3660 0008 FFF7FEFF 		bl	memp_malloc
 3661              	.LVL346:
ARM GAS  C:\Users\jo\AppData\Local\Temp\ccpE7U9z.s 			page 66


 3662              		.loc 1 1284 0
 3663 000c 0446     		mov	r4, r0
 3664 000e 0028     		cmp	r0, #0
 3665 0010 44D0     		beq	.L510
 3666              	.L486:
 3667              		.loc 1 1307 0
 3668 0012 0021     		movs	r1, #0
 3669 0014 9822     		movs	r2, #152
 3670 0016 2046     		mov	r0, r4
 3671 0018 FFF7FEFF 		bl	memset
 3672              	.LVL347:
 3673              	.LBB221:
 3674              	.LBB222:
 3675              		.loc 1 1575 0
 3676 001c 424D     		ldr	r5, .L512
 3677 001e 434B     		ldr	r3, .L512+4
 3678              	.LBE222:
 3679              	.LBE221:
 3680              		.loc 1 1329 0
 3681 0020 434A     		ldr	r2, .L512+8
 3682              	.LBB226:
 3683              	.LBB223:
 3684              		.loc 1 1575 0
 3685 0022 1E68     		ldr	r6, [r3]
 3686 0024 2B68     		ldr	r3, [r5]
 3687              	.LBE223:
 3688              	.LBE226:
 3689              		.loc 1 1329 0
 3690 0026 92F800A0 		ldrb	r10, [r2]	@ zero_extendqisi2
 3691              		.loc 1 1334 0
 3692 002a DFF814C1 		ldr	ip, .L512+24
 3693              		.loc 1 1338 0
 3694 002e DFF814E1 		ldr	lr, .L512+28
 3695              		.loc 1 1308 0
 3696 0032 6776     		strb	r7, [r4, #25]
 3697              	.LBB227:
 3698              	.LBB224:
 3699              		.loc 1 1575 0
 3700 0034 3344     		add	r3, r3, r6
 3701              	.LBE224:
 3702              	.LBE227:
 3703              		.loc 1 1310 0
 3704 0036 0022     		movs	r2, #0
 3705              		.loc 1 1311 0
 3706 0038 41F2D060 		movw	r0, #5840
 3707              		.loc 1 1318 0
 3708 003c 0621     		movs	r1, #6
 3709              		.loc 1 1309 0
 3710 003e 40F6683B 		movw	fp, #2920
 3711              		.loc 1 1314 0
 3712 0042 4FF0FF09 		mov	r9, #255
 3713              		.loc 1 1317 0
 3714 0046 4FF40678 		mov	r8, #536
 3715              		.loc 1 1321 0
 3716 004a 4FF6FF77 		movw	r7, #65535
 3717              		.loc 1 1328 0
 3718 004e 6662     		str	r6, [r4, #36]
ARM GAS  C:\Users\jo\AppData\Local\Temp\ccpE7U9z.s 			page 67


 3719              		.loc 1 1322 0
 3720 0050 0126     		movs	r6, #1
 3721              	.LBB228:
 3722              	.LBB225:
 3723              		.loc 1 1575 0
 3724 0052 2B60     		str	r3, [r5]
 3725              	.LBE225:
 3726              	.LBE228:
 3727              		.loc 1 1324 0
 3728 0054 A365     		str	r3, [r4, #88]
 3729              		.loc 1 1325 0
 3730 0056 2365     		str	r3, [r4, #80]
 3731              		.loc 1 1326 0
 3732 0058 A364     		str	r3, [r4, #72]
 3733              		.loc 1 1327 0
 3734 005a E365     		str	r3, [r4, #92]
 3735              		.loc 1 1329 0
 3736 005c 84F821A0 		strb	r10, [r4, #33]
 3737              		.loc 1 1309 0
 3738 0060 A4F866B0 		strh	fp, [r4, #102]	@ movhi
 3739              		.loc 1 1310 0
 3740 0064 A4F86820 		strh	r2, [r4, #104]	@ movhi
 3741              		.loc 1 1313 0
 3742 0068 6272     		strb	r2, [r4, #9]
 3743              		.loc 1 1319 0
 3744 006a A4F84020 		strh	r2, [r4, #64]	@ movhi
 3745              		.loc 1 1331 0
 3746 006e E277     		strb	r2, [r4, #31]
 3747              		.loc 1 1345 0
 3748 0070 84F89620 		strb	r2, [r4, #150]
 3749              		.loc 1 1311 0
 3750 0074 A085     		strh	r0, [r4, #44]	@ movhi
 3751              		.loc 1 1312 0
 3752 0076 E085     		strh	r0, [r4, #46]	@ movhi
 3753              		.loc 1 1314 0
 3754 0078 84F80A90 		strb	r9, [r4, #10]
 3755              		.loc 1 1317 0
 3756 007c A4F83680 		strh	r8, [r4, #54]	@ movhi
 3757              		.loc 1 1318 0
 3758 0080 A4F84410 		strh	r1, [r4, #68]	@ movhi
 3759              		.loc 1 1320 0
 3760 0084 A4F84210 		strh	r1, [r4, #66]	@ movhi
 3761              		.loc 1 1321 0
 3762 0088 A786     		strh	r7, [r4, #52]	@ movhi
 3763              		.loc 1 1322 0
 3764 008a A4F84C60 		strh	r6, [r4, #76]	@ movhi
 3765              		.loc 1 1334 0
 3766 008e C4F880C0 		str	ip, [r4, #128]
 3767              		.loc 1 1338 0
 3768 0092 C4F890E0 		str	lr, [r4, #144]
 3769              	.L501:
 3770              		.loc 1 1348 0
 3771 0096 2046     		mov	r0, r4
 3772 0098 BDE8F88F 		pop	{r3, r4, r5, r6, r7, r8, r9, r10, fp, pc}
 3773              	.LVL348:
 3774              	.L510:
 3775              	.LBB229:
ARM GAS  C:\Users\jo\AppData\Local\Temp\ccpE7U9z.s 			page 68


 3776              	.LBB230:
 3777              		.loc 1 1258 0
 3778 009c 254B     		ldr	r3, .L512+12
 3779 009e 1868     		ldr	r0, [r3]
 3780              	.LVL349:
 3781 00a0 88B1     		cbz	r0, .L488
 3782              		.loc 1 1259 0
 3783 00a2 224B     		ldr	r3, .L512+4
 3784 00a4 416A     		ldr	r1, [r0, #36]
 3785 00a6 1C68     		ldr	r4, [r3]
 3786              	.LVL350:
 3787 00a8 0346     		mov	r3, r0
 3788 00aa 611A     		subs	r1, r4, r1
 3789 00ac 05E0     		b	.L497
 3790              	.LVL351:
 3791              	.L490:
 3792 00ae 5A6A     		ldr	r2, [r3, #36]
 3793 00b0 A21A     		subs	r2, r4, r2
 3794 00b2 8A42     		cmp	r2, r1
 3795 00b4 24BF     		itt	cs
 3796 00b6 1146     		movcs	r1, r2
 3797              	.LVL352:
 3798 00b8 1846     		movcs	r0, r3
 3799              	.L497:
 3800              	.LVL353:
 3801              		.loc 1 1258 0
 3802 00ba DB68     		ldr	r3, [r3, #12]
 3803              	.LVL354:
 3804 00bc 002B     		cmp	r3, #0
 3805 00be F6D1     		bne	.L490
 3806              	.LVL355:
 3807              	.LBB231:
 3808              	.LBB232:
 3809              		.loc 1 415 0
 3810 00c0 0121     		movs	r1, #1
 3811              	.LVL356:
 3812 00c2 FFF7FEFF 		bl	tcp_abandon
 3813              	.LVL357:
 3814              	.L488:
 3815              	.LBE232:
 3816              	.LBE231:
 3817              	.LBE230:
 3818              	.LBE229:
 3819              		.loc 1 1289 0
 3820 00c6 0220     		movs	r0, #2
 3821 00c8 FFF7FEFF 		bl	memp_malloc
 3822              	.LVL358:
 3823              		.loc 1 1290 0
 3824 00cc 0446     		mov	r4, r0
 3825 00ce 30B1     		cbz	r0, .L511
 3826 00d0 194A     		ldr	r2, .L512+16
 3827 00d2 B2F8CC30 		ldrh	r3, [r2, #204]
 3828              	.L496:
 3829              		.loc 1 1303 0
 3830 00d6 013B     		subs	r3, r3, #1
 3831 00d8 A2F8CC30 		strh	r3, [r2, #204]	@ movhi
 3832 00dc 99E7     		b	.L486
ARM GAS  C:\Users\jo\AppData\Local\Temp\ccpE7U9z.s 			page 69


 3833              	.L511:
 3834              	.LVL359:
 3835              	.LBB233:
 3836              	.LBB234:
 3837              		.loc 1 1229 0
 3838 00de 174B     		ldr	r3, .L512+20
 3839 00e0 1B68     		ldr	r3, [r3]
 3840              	.LVL360:
 3841 00e2 ABB1     		cbz	r3, .L492
 3842              		.loc 1 1232 0
 3843 00e4 114A     		ldr	r2, .L512+4
 3844 00e6 1668     		ldr	r6, [r2]
 3845 00e8 7F25     		movs	r5, #127
 3846              	.LVL361:
 3847              	.L494:
 3848              		.loc 1 1230 0
 3849 00ea 5A7E     		ldrb	r2, [r3, #25]	@ zero_extendqisi2
 3850 00ec 9742     		cmp	r7, r2
 3851 00ee 08D3     		bcc	.L493
 3852 00f0 AA42     		cmp	r2, r5
 3853 00f2 06D8     		bhi	.L493
 3854              		.loc 1 1232 0
 3855 00f4 596A     		ldr	r1, [r3, #36]
 3856 00f6 711A     		subs	r1, r6, r1
 3857              		.loc 1 1231 0
 3858 00f8 A142     		cmp	r1, r4
 3859 00fa 02D3     		bcc	.L493
 3860 00fc 1546     		mov	r5, r2
 3861              	.LVL362:
 3862 00fe 0C46     		mov	r4, r1
 3863              	.LVL363:
 3864 0100 1846     		mov	r0, r3
 3865              	.L493:
 3866              	.LVL364:
 3867              		.loc 1 1229 0
 3868 0102 DB68     		ldr	r3, [r3, #12]
 3869              	.LVL365:
 3870 0104 002B     		cmp	r3, #0
 3871 0106 F0D1     		bne	.L494
 3872              		.loc 1 1238 0
 3873 0108 10B1     		cbz	r0, .L492
 3874              	.LVL366:
 3875              	.LBB235:
 3876              	.LBB236:
 3877              		.loc 1 415 0
 3878 010a 0121     		movs	r1, #1
 3879 010c FFF7FEFF 		bl	tcp_abandon
 3880              	.LVL367:
 3881              	.L492:
 3882              	.LBE236:
 3883              	.LBE235:
 3884              	.LBE234:
 3885              	.LBE233:
 3886              		.loc 1 1295 0
 3887 0110 0220     		movs	r0, #2
 3888 0112 FFF7FEFF 		bl	memp_malloc
 3889              	.LVL368:
ARM GAS  C:\Users\jo\AppData\Local\Temp\ccpE7U9z.s 			page 70


 3890              		.loc 1 1296 0
 3891 0116 0446     		mov	r4, r0
 3892 0118 0028     		cmp	r0, #0
 3893 011a BCD0     		beq	.L501
 3894              		.loc 1 1298 0
 3895 011c 064A     		ldr	r2, .L512+16
 3896 011e B2F8CC30 		ldrh	r3, [r2, #204]
 3897 0122 013B     		subs	r3, r3, #1
 3898 0124 9BB2     		uxth	r3, r3
 3899 0126 D6E7     		b	.L496
 3900              	.L513:
 3901              		.align	2
 3902              	.L512:
 3903 0128 00000000 		.word	.LANCHOR13
 3904 012c 00000000 		.word	.LANCHOR5
 3905 0130 00000000 		.word	.LANCHOR6
 3906 0134 00000000 		.word	.LANCHOR8
 3907 0138 00000000 		.word	lwip_stats
 3908 013c 00000000 		.word	.LANCHOR7
 3909 0140 00000000 		.word	tcp_recv_null
 3910 0144 00DD6D00 		.word	7200000
 3911              		.cfi_endproc
 3912              	.LFE280:
 3913              		.size	tcp_alloc, .-tcp_alloc
 3914 0148 AFF30080 		.section	.text.tcp_new,"ax",%progbits
 3914      AFF30080 
 3915              		.align	2
 3916              		.p2align 4,,15
 3917              		.global	tcp_new
 3918              		.thumb
 3919              		.thumb_func
 3920              		.type	tcp_new, %function
 3921              	tcp_new:
 3922              	.LFB281:
 3923              		.loc 1 1364 0
 3924              		.cfi_startproc
 3925              		@ args = 0, pretend = 0, frame = 0
 3926              		@ frame_needed = 0, uses_anonymous_args = 0
 3927              		@ link register save eliminated.
 3928              		.loc 1 1365 0
 3929 0000 4020     		movs	r0, #64
 3930 0002 FFF7FEBF 		b	tcp_alloc
 3931              	.LVL369:
 3932              		.cfi_endproc
 3933              	.LFE281:
 3934              		.size	tcp_new, .-tcp_new
 3935 0006 00BFAFF3 		.section	.text.tcp_next_iss,"ax",%progbits
 3935      0080AFF3 
 3935      0080
 3936              		.align	2
 3937              		.p2align 4,,15
 3938              		.global	tcp_next_iss
 3939              		.thumb
 3940              		.thumb_func
 3941              		.type	tcp_next_iss, %function
 3942              	tcp_next_iss:
 3943              	.LFB290:
ARM GAS  C:\Users\jo\AppData\Local\Temp\ccpE7U9z.s 			page 71


 3944              		.loc 1 1572 0
 3945              		.cfi_startproc
 3946              		@ args = 0, pretend = 0, frame = 0
 3947              		@ frame_needed = 0, uses_anonymous_args = 0
 3948              		@ link register save eliminated.
 3949              		.loc 1 1575 0
 3950 0000 034A     		ldr	r2, .L516
 3951 0002 044B     		ldr	r3, .L516+4
 3952 0004 1868     		ldr	r0, [r3]
 3953 0006 1368     		ldr	r3, [r2]
 3954 0008 1844     		add	r0, r0, r3
 3955 000a 1060     		str	r0, [r2]
 3956              		.loc 1 1577 0
 3957 000c 7047     		bx	lr
 3958              	.L517:
 3959 000e 00BF     		.align	2
 3960              	.L516:
 3961 0010 00000000 		.word	.LANCHOR13
 3962 0014 00000000 		.word	.LANCHOR5
 3963              		.cfi_endproc
 3964              	.LFE290:
 3965              		.size	tcp_next_iss, .-tcp_next_iss
 3966 0018 AFF30080 		.section	.text.tcp_eff_send_mss,"ax",%progbits
 3966      AFF30080 
 3967              		.align	2
 3968              		.p2align 4,,15
 3969              		.global	tcp_eff_send_mss
 3970              		.thumb
 3971              		.thumb_func
 3972              		.type	tcp_eff_send_mss, %function
 3973              	tcp_eff_send_mss:
 3974              	.LFB291:
 3975              		.loc 1 1587 0
 3976              		.cfi_startproc
 3977              		@ args = 0, pretend = 0, frame = 0
 3978              		@ frame_needed = 0, uses_anonymous_args = 0
 3979              	.LVL370:
 3980 0000 10B5     		push	{r4, lr}
 3981              		.cfi_def_cfa_offset 8
 3982              		.cfi_offset 4, -8
 3983              		.cfi_offset 14, -4
 3984              		.loc 1 1587 0
 3985 0002 0446     		mov	r4, r0
 3986              		.loc 1 1591 0
 3987 0004 0846     		mov	r0, r1
 3988              	.LVL371:
 3989 0006 FFF7FEFF 		bl	ip_route
 3990              	.LVL372:
 3991              		.loc 1 1592 0
 3992 000a 30B1     		cbz	r0, .L519
 3993              		.loc 1 1592 0 is_stmt 0 discriminator 1
 3994 000c 038C     		ldrh	r3, [r0, #32]
 3995 000e 23B1     		cbz	r3, .L519
 3996              	.LVL373:
 3997              		.loc 1 1593 0 is_stmt 1
 3998 0010 283B     		subs	r3, r3, #40
 3999              	.LVL374:
ARM GAS  C:\Users\jo\AppData\Local\Temp\ccpE7U9z.s 			page 72


 4000              		.loc 1 1598 0
 4001 0012 9BB2     		uxth	r3, r3
 4002              	.LVL375:
 4003 0014 9C42     		cmp	r4, r3
 4004 0016 28BF     		it	cs
 4005 0018 1C46     		movcs	r4, r3
 4006              	.LVL376:
 4007              	.L519:
 4008              		.loc 1 1601 0
 4009 001a 2046     		mov	r0, r4
 4010              	.LVL377:
 4011 001c 10BD     		pop	{r4, pc}
 4012              		.cfi_endproc
 4013              	.LFE291:
 4014              		.size	tcp_eff_send_mss, .-tcp_eff_send_mss
 4015 001e 00BF     		.section	.text.tcp_connect,"ax",%progbits
 4016              		.align	2
 4017              		.p2align 4,,15
 4018              		.global	tcp_connect
 4019              		.thumb
 4020              		.thumb_func
 4021              		.type	tcp_connect, %function
 4022              	tcp_connect:
 4023              	.LFB269:
 4024              		.loc 1 686 0
 4025              		.cfi_startproc
 4026              		@ args = 0, pretend = 0, frame = 0
 4027              		@ frame_needed = 0, uses_anonymous_args = 0
 4028              	.LVL378:
 4029 0000 2DE9F041 		push	{r4, r5, r6, r7, r8, lr}
 4030              		.cfi_def_cfa_offset 24
 4031              		.cfi_offset 4, -24
 4032              		.cfi_offset 5, -20
 4033              		.cfi_offset 6, -16
 4034              		.cfi_offset 7, -12
 4035              		.cfi_offset 8, -8
 4036              		.cfi_offset 14, -4
 4037 0004 0D46     		mov	r5, r1
 4038              		.loc 1 691 0
 4039 0006 017E     		ldrb	r1, [r0, #24]	@ zero_extendqisi2
 4040              	.LVL379:
 4041              		.loc 1 686 0
 4042 0008 82B0     		sub	sp, sp, #8
 4043              		.cfi_def_cfa_offset 32
 4044              		.loc 1 686 0
 4045 000a 0446     		mov	r4, r0
 4046              		.loc 1 691 0
 4047 000c 0029     		cmp	r1, #0
 4048 000e 77D1     		bne	.L552
 4049              		.loc 1 694 0
 4050 0010 002D     		cmp	r5, #0
 4051 0012 00F08380 		beq	.L543
 4052 0016 1F46     		mov	r7, r3
 4053              		.loc 1 702 0
 4054 0018 0368     		ldr	r3, [r0]
 4055              	.LVL380:
 4056              		.loc 1 695 0
ARM GAS  C:\Users\jo\AppData\Local\Temp\ccpE7U9z.s 			page 73


 4057 001a 2968     		ldr	r1, [r5]
 4058 001c 4160     		str	r1, [r0, #4]
 4059              		.loc 1 699 0
 4060 001e 8283     		strh	r2, [r0, #28]	@ movhi
 4061              		.loc 1 702 0
 4062 0020 33B9     		cbnz	r3, .L530
 4063              	.LBB237:
 4064              		.loc 1 704 0
 4065 0022 0430     		adds	r0, r0, #4
 4066              	.LVL381:
 4067 0024 FFF7FEFF 		bl	ip_route
 4068              	.LVL382:
 4069              		.loc 1 705 0
 4070 0028 0028     		cmp	r0, #0
 4071 002a 79D0     		beq	.L544
 4072              		.loc 1 711 0
 4073 002c 4368     		ldr	r3, [r0, #4]
 4074 002e 2360     		str	r3, [r4]
 4075              	.LVL383:
 4076              	.L530:
 4077              	.LBE237:
 4078              		.loc 1 714 0
 4079 0030 668B     		ldrh	r6, [r4, #26]
 4080              	.LVL384:
 4081              		.loc 1 715 0
 4082 0032 26B9     		cbnz	r6, .L533
 4083              		.loc 1 716 0
 4084 0034 FFF7FEFF 		bl	tcp_new_port
 4085              	.LVL385:
 4086 0038 6083     		strh	r0, [r4, #26]	@ movhi
 4087              		.loc 1 717 0
 4088 003a 0028     		cmp	r0, #0
 4089 003c 5BD0     		beq	.L553
 4090              	.L533:
 4091              	.LBB238:
 4092              	.LBB239:
 4093              		.loc 1 1575 0
 4094 003e DFF808E1 		ldr	lr, .L557+36
 4095 0042 384B     		ldr	r3, .L557
 4096 0044 1A68     		ldr	r2, [r3]
 4097 0046 DEF80030 		ldr	r3, [lr]
 4098 004a 1344     		add	r3, r3, r2
 4099              	.LBE239:
 4100              	.LBE238:
 4101              		.loc 1 744 0
 4102 004c 03F1FF38 		add	r8, r3, #-1
 4103              		.loc 1 746 0
 4104 0050 41F2D062 		movw	r2, #5840
 4105              		.loc 1 742 0
 4106 0054 4FF0000C 		mov	ip, #0
 4107              		.loc 1 752 0
 4108 0058 4FF40670 		mov	r0, #536
 4109              		.loc 1 754 0
 4110 005c 2946     		mov	r1, r5
 4111              		.loc 1 743 0
 4112 005e 2365     		str	r3, [r4, #80]
 4113              		.loc 1 746 0
ARM GAS  C:\Users\jo\AppData\Local\Temp\ccpE7U9z.s 			page 74


 4114 0060 A285     		strh	r2, [r4, #44]	@ movhi
 4115              		.loc 1 747 0
 4116 0062 E285     		strh	r2, [r4, #46]	@ movhi
 4117              		.loc 1 749 0
 4118 0064 A4F86020 		strh	r2, [r4, #96]	@ movhi
 4119              		.loc 1 744 0
 4120 0068 C4F84880 		str	r8, [r4, #72]
 4121              		.loc 1 745 0
 4122 006c C4F85C80 		str	r8, [r4, #92]
 4123              		.loc 1 742 0
 4124 0070 C4F828C0 		str	ip, [r4, #40]
 4125              		.loc 1 748 0
 4126 0074 C4F830C0 		str	ip, [r4, #48]
 4127              		.loc 1 752 0
 4128 0078 E086     		strh	r0, [r4, #54]	@ movhi
 4129              	.LBB241:
 4130              	.LBB240:
 4131              		.loc 1 1575 0
 4132 007a CEF80030 		str	r3, [lr]
 4133              	.LBE240:
 4134              	.LBE241:
 4135              		.loc 1 754 0
 4136 007e FFF7FEFF 		bl	tcp_eff_send_mss
 4137              	.LVL386:
 4138              		.loc 1 757 0
 4139 0082 00EB8003 		add	r3, r0, r0, lsl #2
 4140 0086 5B00     		lsls	r3, r3, #1
 4141              		.loc 1 756 0
 4142 0088 0122     		movs	r2, #1
 4143              		.loc 1 754 0
 4144 008a E086     		strh	r0, [r4, #54]	@ movhi
 4145              		.loc 1 757 0
 4146 008c A4F84E30 		strh	r3, [r4, #78]	@ movhi
 4147              		.loc 1 759 0
 4148 0090 C4F88470 		str	r7, [r4, #132]
 4149              		.loc 1 756 0
 4150 0094 A4F84C20 		strh	r2, [r4, #76]	@ movhi
 4151              		.loc 1 765 0
 4152 0098 2046     		mov	r0, r4
 4153 009a 0221     		movs	r1, #2
 4154 009c FFF7FEFF 		bl	tcp_enqueue_flags
 4155              	.LVL387:
 4156              		.loc 1 766 0
 4157 00a0 00BB     		cbnz	r0, .L529
 4158              		.loc 1 768 0
 4159 00a2 0223     		movs	r3, #2
 4160 00a4 2376     		strb	r3, [r4, #24]
 4161              		.loc 1 769 0
 4162 00a6 86B1     		cbz	r6, .L534
 4163              		.loc 1 770 0
 4164 00a8 1F4B     		ldr	r3, .L557+4
 4165 00aa 1A68     		ldr	r2, [r3]
 4166 00ac A242     		cmp	r2, r4
 4167 00ae 24D0     		beq	.L554
 4168              		.loc 1 770 0 is_stmt 0 discriminator 2
 4169 00b0 1E49     		ldr	r1, .L557+8
 4170 00b2 0A60     		str	r2, [r1]
ARM GAS  C:\Users\jo\AppData\Local\Temp\ccpE7U9z.s 			page 75


 4171 00b4 4AB1     		cbz	r2, .L534
 4172              		.loc 1 770 0
 4173 00b6 D368     		ldr	r3, [r2, #12]
 4174 00b8 A342     		cmp	r3, r4
 4175 00ba 19D0     		beq	.L538
 4176              	.L540:
 4177              		.loc 1 770 0 discriminator 6
 4178 00bc 23B1     		cbz	r3, .L555
 4179              		.loc 1 770 0 discriminator 9
 4180 00be DA68     		ldr	r2, [r3, #12]
 4181 00c0 A242     		cmp	r2, r4
 4182 00c2 13D0     		beq	.L556
 4183 00c4 1346     		mov	r3, r2
 4184 00c6 F9E7     		b	.L540
 4185              	.L555:
 4186 00c8 0B60     		str	r3, [r1]
 4187              	.L534:
 4188              		.loc 1 772 0 is_stmt 1
 4189 00ca 194B     		ldr	r3, .L557+12
 4190 00cc 1A68     		ldr	r2, [r3]
 4191 00ce E260     		str	r2, [r4, #12]
 4192 00d0 1C60     		str	r4, [r3]
 4193 00d2 FFF7FEFF 		bl	tcp_timer_needed
 4194              	.LVL388:
 4195 00d6 174B     		ldr	r3, .L557+16
 4196 00d8 0122     		movs	r2, #1
 4197              		.loc 1 775 0
 4198 00da 2046     		mov	r0, r4
 4199              		.loc 1 772 0
 4200 00dc 1A70     		strb	r2, [r3]
 4201              		.loc 1 775 0
 4202 00de FFF7FEFF 		bl	tcp_output
 4203              	.LVL389:
 4204 00e2 0020     		movs	r0, #0
 4205              	.LVL390:
 4206              	.L529:
 4207              		.loc 1 778 0
 4208 00e4 40B2     		sxtb	r0, r0
 4209 00e6 02B0     		add	sp, sp, #8
 4210              		.cfi_remember_state
 4211              		.cfi_def_cfa_offset 24
 4212              		@ sp needed
 4213 00e8 BDE8F081 		pop	{r4, r5, r6, r7, r8, pc}
 4214              	.LVL391:
 4215              	.L556:
 4216              		.cfi_restore_state
 4217 00ec 1A46     		mov	r2, r3
 4218 00ee 0B60     		str	r3, [r1]
 4219              	.L538:
 4220              		.loc 1 770 0 discriminator 5
 4221 00f0 E368     		ldr	r3, [r4, #12]
 4222 00f2 D360     		str	r3, [r2, #12]
 4223 00f4 E9E7     		b	.L534
 4224              	.LVL392:
 4225              	.L553:
 4226              		.loc 1 718 0
 4227 00f6 FE20     		movs	r0, #254
ARM GAS  C:\Users\jo\AppData\Local\Temp\ccpE7U9z.s 			page 76


 4228 00f8 F4E7     		b	.L529
 4229              	.LVL393:
 4230              	.L554:
 4231              		.loc 1 770 0 discriminator 1
 4232 00fa E268     		ldr	r2, [r4, #12]
 4233 00fc 1A60     		str	r2, [r3]
 4234 00fe E4E7     		b	.L534
 4235              	.LVL394:
 4236              	.L552:
 4237              		.loc 1 691 0 discriminator 1
 4238 0100 0D4B     		ldr	r3, .L557+20
 4239              	.LVL395:
 4240 0102 0093     		str	r3, [sp]
 4241 0104 0D49     		ldr	r1, .L557+24
 4242 0106 0E4A     		ldr	r2, .L557+28
 4243              	.LVL396:
 4244 0108 0E48     		ldr	r0, .L557+32
 4245              	.LVL397:
 4246 010a 40F2B323 		movw	r3, #691
 4247 010e FFF7FEFF 		bl	chprintf.constprop.4
 4248              	.LVL398:
 4249              	.LBB242:
 4250              	.LBB243:
 4251              		.loc 3 414 0 discriminator 1
 4252 0112 0B48     		ldr	r0, .L557+28
 4253 0114 FFF7FEFF 		bl	chSysHalt
 4254              	.LVL399:
 4255              	.LBE243:
 4256              	.LBE242:
 4257              		.loc 1 691 0 discriminator 1
 4258 0118 F720     		movs	r0, #247
 4259 011a E3E7     		b	.L529
 4260              	.LVL400:
 4261              	.L543:
 4262              		.loc 1 697 0
 4263 011c FA20     		movs	r0, #250
 4264              	.LVL401:
 4265 011e E1E7     		b	.L529
 4266              	.LVL402:
 4267              	.L544:
 4268              	.LBB244:
 4269              		.loc 1 708 0
 4270 0120 FC20     		movs	r0, #252
 4271              	.LVL403:
 4272 0122 DFE7     		b	.L529
 4273              	.L558:
 4274              		.align	2
 4275              	.L557:
 4276 0124 00000000 		.word	.LANCHOR5
 4277 0128 00000000 		.word	.LANCHOR2
 4278 012c 00000000 		.word	.LANCHOR3
 4279 0130 00000000 		.word	.LANCHOR7
 4280 0134 00000000 		.word	.LANCHOR11
 4281 0138 50000000 		.word	.LC2
 4282 013c 00000000 		.word	.LC0
 4283 0140 9C030000 		.word	.LC24
 4284 0144 00000000 		.word	itm_port
ARM GAS  C:\Users\jo\AppData\Local\Temp\ccpE7U9z.s 			page 77


 4285 0148 00000000 		.word	.LANCHOR13
 4286              	.LBE244:
 4287              		.cfi_endproc
 4288              	.LFE269:
 4289              		.size	tcp_connect, .-tcp_connect
 4290 014c AFF30080 		.section	.text.tcp_debug_state_str,"ax",%progbits
 4291              		.align	2
 4292              		.p2align 4,,15
 4293              		.global	tcp_debug_state_str
 4294              		.thumb
 4295              		.thumb_func
 4296              		.type	tcp_debug_state_str, %function
 4297              	tcp_debug_state_str:
 4298              	.LFB292:
 4299              		.loc 1 1606 0
 4300              		.cfi_startproc
 4301              		@ args = 0, pretend = 0, frame = 0
 4302              		@ frame_needed = 0, uses_anonymous_args = 0
 4303              		@ link register save eliminated.
 4304              	.LVL404:
 4305              		.loc 1 1607 0
 4306 0000 014B     		ldr	r3, .L560
 4307              		.loc 1 1608 0
 4308 0002 53F82000 		ldr	r0, [r3, r0, lsl #2]
 4309              	.LVL405:
 4310 0006 7047     		bx	lr
 4311              	.L561:
 4312              		.align	2
 4313              	.L560:
 4314 0008 00000000 		.word	.LANCHOR14
 4315              		.cfi_endproc
 4316              	.LFE292:
 4317              		.size	tcp_debug_state_str, .-tcp_debug_state_str
 4318              		.global	tcp_active_pcbs_changed
 4319              		.global	tcp_tmp_pcb
 4320              		.global	tcp_pcb_lists
 4321              		.global	tcp_tw_pcbs
 4322              		.global	tcp_active_pcbs
 4323              		.global	tcp_listen_pcbs
 4324              		.global	tcp_bound_pcbs
 4325              		.global	tcp_persist_backoff
 4326              		.global	tcp_backoff
 4327              		.global	tcp_ticks
 4328              		.global	tcp_state_str
 4329 000c AFF30080 		.section	.bss.tcp_active_pcbs_changed,"aw",%nobits
 4330              		.set	.LANCHOR11,. + 0
 4331              		.type	tcp_active_pcbs_changed, %object
 4332              		.size	tcp_active_pcbs_changed, 1
 4333              	tcp_active_pcbs_changed:
 4334 0000 00       		.space	1
 4335              		.section	.bss.tcp_tw_pcbs,"aw",%nobits
 4336              		.align	2
 4337              		.set	.LANCHOR8,. + 0
 4338              		.type	tcp_tw_pcbs, %object
 4339              		.size	tcp_tw_pcbs, 4
 4340              	tcp_tw_pcbs:
 4341 0000 00000000 		.space	4
ARM GAS  C:\Users\jo\AppData\Local\Temp\ccpE7U9z.s 			page 78


 4342              		.section	.rodata.tcp_state_str,"a",%progbits
 4343              		.align	2
 4344              		.set	.LANCHOR14,. + 0
 4345              		.type	tcp_state_str, %object
 4346              		.size	tcp_state_str, 44
 4347              	tcp_state_str:
 4348 0000 CC030000 		.word	.LC25
 4349 0004 D4030000 		.word	.LC26
 4350 0008 DC030000 		.word	.LC27
 4351 000c E8030000 		.word	.LC28
 4352 0010 F4030000 		.word	.LC29
 4353 0014 00040000 		.word	.LC30
 4354 0018 0C040000 		.word	.LC31
 4355 001c 18040000 		.word	.LC32
 4356 0020 24040000 		.word	.LC33
 4357 0024 2C040000 		.word	.LC34
 4358 0028 38040000 		.word	.LC35
 4359              		.section	.rodata.tcp_pcb_lists,"a",%progbits
 4360              		.align	2
 4361              		.set	.LANCHOR1,. + 0
 4362              		.type	tcp_pcb_lists, %object
 4363              		.size	tcp_pcb_lists, 16
 4364              	tcp_pcb_lists:
 4365 0000 00000000 		.word	tcp_listen_pcbs
 4366 0004 00000000 		.word	tcp_bound_pcbs
 4367 0008 00000000 		.word	tcp_active_pcbs
 4368 000c 00000000 		.word	tcp_tw_pcbs
 4369              		.section	.bss.tcp_ticks,"aw",%nobits
 4370              		.align	2
 4371              		.set	.LANCHOR5,. + 0
 4372              		.type	tcp_ticks, %object
 4373              		.size	tcp_ticks, 4
 4374              	tcp_ticks:
 4375 0000 00000000 		.space	4
 4376              		.section	.bss.tcp_timer,"aw",%nobits
 4377              		.set	.LANCHOR12,. + 0
 4378              		.type	tcp_timer, %object
 4379              		.size	tcp_timer, 1
 4380              	tcp_timer:
 4381 0000 00       		.space	1
 4382              		.section	.rodata.tcp_backoff,"a",%progbits
 4383              		.align	2
 4384              		.set	.LANCHOR10,. + 0
 4385              		.type	tcp_backoff, %object
 4386              		.size	tcp_backoff, 13
 4387              	tcp_backoff:
 4388 0000 01       		.byte	1
 4389 0001 02       		.byte	2
 4390 0002 03       		.byte	3
 4391 0003 04       		.byte	4
 4392 0004 05       		.byte	5
 4393 0005 06       		.byte	6
 4394 0006 07       		.byte	7
 4395 0007 07       		.byte	7
 4396 0008 07       		.byte	7
 4397 0009 07       		.byte	7
 4398 000a 07       		.byte	7
ARM GAS  C:\Users\jo\AppData\Local\Temp\ccpE7U9z.s 			page 79


 4399 000b 07       		.byte	7
 4400 000c 07       		.byte	7
 4401 000d 000000   		.section	.bss.tcp_listen_pcbs,"aw",%nobits
 4402              		.align	2
 4403              		.set	.LANCHOR4,. + 0
 4404              		.type	tcp_listen_pcbs, %object
 4405              		.size	tcp_listen_pcbs, 4
 4406              	tcp_listen_pcbs:
 4407 0000 00000000 		.space	4
 4408              		.section	.data.tcp_port,"aw",%progbits
 4409              		.align	1
 4410              		.set	.LANCHOR0,. + 0
 4411              		.type	tcp_port, %object
 4412              		.size	tcp_port, 2
 4413              	tcp_port:
 4414 0000 00C0     		.short	-16384
 4415              		.section	.bss.tcp_active_pcbs,"aw",%nobits
 4416              		.align	2
 4417              		.set	.LANCHOR7,. + 0
 4418              		.type	tcp_active_pcbs, %object
 4419              		.size	tcp_active_pcbs, 4
 4420              	tcp_active_pcbs:
 4421 0000 00000000 		.space	4
 4422              		.section	.bss.tcp_timer_ctr,"aw",%nobits
 4423              		.set	.LANCHOR6,. + 0
 4424              		.type	tcp_timer_ctr, %object
 4425              		.size	tcp_timer_ctr, 1
 4426              	tcp_timer_ctr:
 4427 0000 00       		.space	1
 4428              		.section	.rodata.str1.4,"aMS",%progbits,1
 4429              		.align	2
 4430              	.LC0:
 4431 0000 41737365 		.ascii	"Assertion \"%s\" failed at line %d in %s\012\000"
 4431      7274696F 
 4431      6E202225 
 4431      73222066 
 4431      61696C65 
 4432              	.LC1:
 4433 0028 7463705F 		.ascii	"tcp_bind: can only bind in state CLOSED\000"
 4433      62696E64 
 4433      3A206361 
 4433      6E206F6E 
 4433      6C792062 
 4434              	.LC2:
 4435 0050 2E2E2F2E 		.ascii	"../../../os/ext/lwip-1.4.1/src/core/tcp.c\000"
 4435      2E2F2E2E 
 4435      2F6F732F 
 4435      6578742F 
 4435      6C776970 
 4436 007a 0000     		.space	2
 4437              	.LC3:
 4438 007c 7463705F 		.ascii	"tcp_listen: pcb already connected\000"
 4438      6C697374 
 4438      656E3A20 
 4438      70636220 
 4438      616C7265 
 4439 009e 0000     		.space	2
ARM GAS  C:\Users\jo\AppData\Local\Temp\ccpE7U9z.s 			page 80


 4440              	.LC4:
 4441 00a0 6E65775F 		.ascii	"new_rcv_ann_wnd <= 0xffff\000"
 4441      7263765F 
 4441      616E6E5F 
 4441      776E6420 
 4441      3C3D2030 
 4442 00ba 0000     		.space	2
 4443              	.LC5:
 4444 00bc 646F6E27 		.ascii	"don't call tcp_recved for listen-pcbs\000"
 4444      74206361 
 4444      6C6C2074 
 4444      63705F72 
 4444      65637665 
 4445 00e2 0000     		.space	2
 4446              	.LC6:
 4447 00e4 7463705F 		.ascii	"tcp_recved: len would wrap rcv_wnd\012\000"
 4447      72656376 
 4447      65643A20 
 4447      6C656E20 
 4447      776F756C 
 4448              	.LC7:
 4449 0108 696E7661 		.ascii	"invalid socket state for recv callback\000"
 4449      6C696420 
 4449      736F636B 
 4449      65742073 
 4449      74617465 
 4450 012f 00       		.space	1
 4451              	.LC8:
 4452 0130 696E7661 		.ascii	"invalid socket state for sent callback\000"
 4452      6C696420 
 4452      736F636B 
 4452      65742073 
 4452      74617465 
 4453 0157 00       		.space	1
 4454              	.LC9:
 4455 0158 696E7661 		.ascii	"invalid socket state for err callback\000"
 4455      6C696420 
 4455      736F636B 
 4455      65742073 
 4455      74617465 
 4456 017e 0000     		.space	2
 4457              	.LC10:
 4458 0180 696E7661 		.ascii	"invalid socket state for poll\000"
 4458      6C696420 
 4458      736F636B 
 4458      65742073 
 4458      74617465 
 4459 019e 0000     		.space	2
 4460              	.LC11:
 4461 01a0 7463705F 		.ascii	"tcp_slowtmr: active pcb->state != CLOSED\012\000"
 4461      736C6F77 
 4461      746D723A 
 4461      20616374 
 4461      69766520 
 4462 01ca 0000     		.space	2
 4463              	.LC12:
 4464 01cc 7463705F 		.ascii	"tcp_slowtmr: active pcb->state != LISTEN\012\000"
ARM GAS  C:\Users\jo\AppData\Local\Temp\ccpE7U9z.s 			page 81


 4464      736C6F77 
 4464      746D723A 
 4464      20616374 
 4464      69766520 
 4465 01f6 0000     		.space	2
 4466              	.LC13:
 4467 01f8 7463705F 		.ascii	"tcp_slowtmr: active pcb->state != TIME-WAIT\012\000"
 4467      736C6F77 
 4467      746D723A 
 4467      20616374 
 4467      69766520 
 4468 0225 000000   		.space	3
 4469              	.LC14:
 4470 0228 7463705F 		.ascii	"tcp_slowtmr: middle tcp != tcp_active_pcbs\000"
 4470      736C6F77 
 4470      746D723A 
 4470      206D6964 
 4470      646C6520 
 4471 0253 00       		.space	1
 4472              	.LC15:
 4473 0254 7463705F 		.ascii	"tcp_slowtmr: first pcb == tcp_active_pcbs\000"
 4473      736C6F77 
 4473      746D723A 
 4473      20666972 
 4473      73742070 
 4474 027e 0000     		.space	2
 4475              	.LC16:
 4476 0280 7463705F 		.ascii	"tcp_slowtmr: TIME-WAIT pcb->state == TIME-WAIT\000"
 4476      736C6F77 
 4476      746D723A 
 4476      2054494D 
 4476      452D5741 
 4477 02af 00       		.space	1
 4478              	.LC17:
 4479 02b0 7463705F 		.ascii	"tcp_slowtmr: middle tcp != tcp_tw_pcbs\000"
 4479      736C6F77 
 4479      746D723A 
 4479      206D6964 
 4479      646C6520 
 4480 02d7 00       		.space	1
 4481              	.LC18:
 4482 02d8 7463705F 		.ascii	"tcp_slowtmr: first pcb == tcp_tw_pcbs\000"
 4482      736C6F77 
 4482      746D723A 
 4482      20666972 
 4482      73742070 
 4483 02fe 0000     		.space	2
 4484              	.LC19:
 4485 0300 756E7365 		.ascii	"unsent segments leaking\000"
 4485      6E742073 
 4485      65676D65 
 4485      6E747320 
 4485      6C65616B 
 4486              	.LC20:
 4487 0318 756E6163 		.ascii	"unacked segments leaking\000"
 4487      6B656420 
 4487      7365676D 
ARM GAS  C:\Users\jo\AppData\Local\Temp\ccpE7U9z.s 			page 82


 4487      656E7473 
 4487      206C6561 
 4488 0331 000000   		.space	3
 4489              	.LC21:
 4490 0334 6F6F7365 		.ascii	"ooseq segments leaking\000"
 4490      71207365 
 4490      676D656E 
 4490      7473206C 
 4490      65616B69 
 4491 034b 00       		.space	1
 4492              	.LC22:
 4493 034c 7063622D 		.ascii	"pcb->flags & TF_RXCLOSED\000"
 4493      3E666C61 
 4493      67732026 
 4493      2054465F 
 4493      5258434C 
 4494 0365 000000   		.space	3
 4495              	.LC23:
 4496 0368 646F6E27 		.ascii	"don't call tcp_abort/tcp_abandon for listen-pcbs\000"
 4496      74206361 
 4496      6C6C2074 
 4496      63705F61 
 4496      626F7274 
 4497 0399 000000   		.space	3
 4498              	.LC24:
 4499 039c 7463705F 		.ascii	"tcp_connect: can only connect from state CLOSED\000"
 4499      636F6E6E 
 4499      6563743A 
 4499      2063616E 
 4499      206F6E6C 
 4500              	.LC25:
 4501 03cc 434C4F53 		.ascii	"CLOSED\000"
 4501      454400
 4502 03d3 00       		.space	1
 4503              	.LC26:
 4504 03d4 4C495354 		.ascii	"LISTEN\000"
 4504      454E00
 4505 03db 00       		.space	1
 4506              	.LC27:
 4507 03dc 53594E5F 		.ascii	"SYN_SENT\000"
 4507      53454E54 
 4507      00
 4508 03e5 000000   		.space	3
 4509              	.LC28:
 4510 03e8 53594E5F 		.ascii	"SYN_RCVD\000"
 4510      52435644 
 4510      00
 4511 03f1 000000   		.space	3
 4512              	.LC29:
 4513 03f4 45535441 		.ascii	"ESTABLISHED\000"
 4513      424C4953 
 4513      48454400 
 4514              	.LC30:
 4515 0400 46494E5F 		.ascii	"FIN_WAIT_1\000"
 4515      57414954 
 4515      5F3100
 4516 040b 00       		.space	1
ARM GAS  C:\Users\jo\AppData\Local\Temp\ccpE7U9z.s 			page 83


 4517              	.LC31:
 4518 040c 46494E5F 		.ascii	"FIN_WAIT_2\000"
 4518      57414954 
 4518      5F3200
 4519 0417 00       		.space	1
 4520              	.LC32:
 4521 0418 434C4F53 		.ascii	"CLOSE_WAIT\000"
 4521      455F5741 
 4521      495400
 4522 0423 00       		.space	1
 4523              	.LC33:
 4524 0424 434C4F53 		.ascii	"CLOSING\000"
 4524      494E4700 
 4525              	.LC34:
 4526 042c 4C415354 		.ascii	"LAST_ACK\000"
 4526      5F41434B 
 4526      00
 4527 0435 000000   		.space	3
 4528              	.LC35:
 4529 0438 54494D45 		.ascii	"TIME_WAIT\000"
 4529      5F574149 
 4529      5400
 4530 0442 0000     		.section	.bss.tcp_tmp_pcb,"aw",%nobits
 4531              		.align	2
 4532              		.set	.LANCHOR3,. + 0
 4533              		.type	tcp_tmp_pcb, %object
 4534              		.size	tcp_tmp_pcb, 4
 4535              	tcp_tmp_pcb:
 4536 0000 00000000 		.space	4
 4537              		.section	.data.iss.9250,"aw",%progbits
 4538              		.align	2
 4539              		.set	.LANCHOR13,. + 0
 4540              		.type	iss.9250, %object
 4541              		.size	iss.9250, 4
 4542              	iss.9250:
 4543 0000 6E190000 		.word	6510
 4544              		.section	.rodata.tcp_persist_backoff,"a",%progbits
 4545              		.align	2
 4546              		.set	.LANCHOR9,. + 0
 4547              		.type	tcp_persist_backoff, %object
 4548              		.size	tcp_persist_backoff, 7
 4549              	tcp_persist_backoff:
 4550 0000 03       		.byte	3
 4551 0001 06       		.byte	6
 4552 0002 0C       		.byte	12
 4553 0003 18       		.byte	24
 4554 0004 30       		.byte	48
 4555 0005 60       		.byte	96
 4556 0006 78       		.byte	120
 4557 0007 00       		.section	.bss.tcp_bound_pcbs,"aw",%nobits
 4558              		.align	2
 4559              		.set	.LANCHOR2,. + 0
 4560              		.type	tcp_bound_pcbs, %object
 4561              		.size	tcp_bound_pcbs, 4
 4562              	tcp_bound_pcbs:
 4563 0000 00000000 		.space	4
 4564              		.text
ARM GAS  C:\Users\jo\AppData\Local\Temp\ccpE7U9z.s 			page 84


 4565              	.Letext0:
 4566              		.file 4 "c:\\program files\\gnu tools arm embedded\\4.9 2014q4\\lib\\gcc\\arm-none-eabi\\4.9.3\\in
 4567              		.file 5 "c:\\program files\\gnu tools arm embedded\\4.9 2014q4\\arm-none-eabi\\include\\machine\\_
 4568              		.file 6 "c:\\program files\\gnu tools arm embedded\\4.9 2014q4\\arm-none-eabi\\include\\stdint.h"
 4569              		.file 7 "../../../os/rt/ports/ARMCMx/compilers/GCC/chtypes.h"
 4570              		.file 8 "../../../os/rt/include/chsystypes.h"
 4571              		.file 9 "../../../os/rt/include/chschd.h"
 4572              		.file 10 "../../../os/rt/ports/ARMCMx/chcore.h"
 4573              		.file 11 "../../../os/rt/ports/ARMCMx/chcore_v7m.h"
 4574              		.file 12 "c:\\program files\\gnu tools arm embedded\\4.9 2014q4\\lib\\gcc\\arm-none-eabi\\4.9.3\\i
 4575              		.file 13 "<built-in>"
 4576              		.file 14 "../../../os/rt/include/chtm.h"
 4577              		.file 15 "../../../os/rt/include/chmtx.h"
 4578              		.file 16 "../../../os/rt/include/chstreams.h"
 4579              		.file 17 "./ITM_trace.h"
 4580              		.file 18 "../../../os/various/lwip_bindings/arch/cc.h"
 4581              		.file 19 "../../../os/ext/lwip-1.4.1/src/include/lwip/mem.h"
 4582              		.file 20 "../../../os/ext/lwip-1.4.1/src/include/lwip/memp.h"
 4583              		.file 21 "../../../os/ext/lwip-1.4.1/src/include/ipv4/lwip/ip_addr.h"
 4584              		.file 22 "../../../os/ext/lwip-1.4.1/src/include/lwip/err.h"
 4585              		.file 23 "../../../os/ext/lwip-1.4.1/src/include/lwip/pbuf.h"
 4586              		.file 24 "../../../os/ext/lwip-1.4.1/src/include/lwip/netif.h"
 4587              		.file 25 "../../../os/ext/lwip-1.4.1/src/include/lwip/tcp.h"
 4588              		.file 26 "../../../os/ext/lwip-1.4.1/src/include/lwip/tcp_impl.h"
 4589              		.file 27 "../../../os/ext/lwip-1.4.1/src/include/lwip/stats.h"
 4590              		.file 28 "../../../os/ext/CMSIS/include/core_cm4.h"
 4591              		.file 29 "../../../os/rt/include/chsys.h"
 4592              		.file 30 "../../../os/ext/lwip-1.4.1/src/include/ipv4/lwip/ip.h"