ARM GAS  C:\Users\jo\AppData\Local\Temp\ccnOsBUt.s 			page 1


   1              		.syntax unified
   2              		.cpu cortex-m4
   3              		.eabi_attribute 27, 3
   4              		.eabi_attribute 28, 1
   5              		.fpu fpv4-sp-d16
   6              		.eabi_attribute 20, 1
   7              		.eabi_attribute 21, 1
   8              		.eabi_attribute 23, 3
   9              		.eabi_attribute 24, 1
  10              		.eabi_attribute 25, 1
  11              		.eabi_attribute 26, 1
  12              		.eabi_attribute 30, 2
  13              		.eabi_attribute 34, 1
  14              		.eabi_attribute 18, 4
  15              		.thumb
  16              		.file	"tcp_out.c"
  17              		.text
  18              	.Ltext0:
  19              		.cfi_sections	.debug_frame
  20              		.section	.text.tcp_create_segment.isra.0,"ax",%progbits
  21              		.align	2
  22              		.p2align 4,,15
  23              		.thumb
  24              		.thumb_func
  25              		.type	tcp_create_segment.isra.0, %function
  26              	tcp_create_segment.isra.0:
  27              	.LFB272:
  28              		.file 1 "../../../os/ext/lwip-1.4.1/src/core/tcp_out.c"
  29              		.loc 1 159 0
  30              		.cfi_startproc
  31              		@ args = 8, pretend = 0, frame = 0
  32              		@ frame_needed = 0, uses_anonymous_args = 0
  33              	.LVL0:
  34 0000 2DE9F047 		push	{r4, r5, r6, r7, r8, r9, r10, lr}
  35              		.cfi_def_cfa_offset 32
  36              		.cfi_offset 4, -32
  37              		.cfi_offset 5, -28
  38              		.cfi_offset 6, -24
  39              		.cfi_offset 7, -20
  40              		.cfi_offset 8, -16
  41              		.cfi_offset 9, -12
  42              		.cfi_offset 10, -8
  43              		.cfi_offset 14, -4
  44              		.loc 1 159 0
  45 0004 9DF82470 		ldrb	r7, [sp, #36]	@ zero_extendqisi2
  46 0008 8046     		mov	r8, r0
  47              		.loc 1 162 0
  48 000a 17F00104 		ands	r4, r7, #1
  49              		.loc 1 164 0
  50 000e 4FF00400 		mov	r0, #4
  51              		.loc 1 162 0
  52 0012 18BF     		it	ne
  53 0014 0424     		movne	r4, #4
  54              		.loc 1 159 0
  55 0016 8946     		mov	r9, r1
  56 0018 9246     		mov	r10, r2
  57 001a 1E46     		mov	r6, r3
ARM GAS  C:\Users\jo\AppData\Local\Temp\ccnOsBUt.s 			page 2


  58              		.loc 1 164 0
  59 001c FFF7FEFF 		bl	memp_malloc
  60              	.LVL1:
  61              		.loc 1 162 0
  62 0020 07F00205 		and	r5, r7, #2
  63 0024 002D     		cmp	r5, #0
  64 0026 14BF     		ite	ne
  65 0028 0C25     		movne	r5, #12
  66 002a 0025     		moveq	r5, #0
  67 002c 2544     		add	r5, r5, r4
  68              	.LVL2:
  69              		.loc 1 164 0
  70 002e 0446     		mov	r4, r0
  71 0030 0028     		cmp	r0, #0
  72 0032 40D0     		beq	.L11
  73              		.loc 1 169 0
  74 0034 8772     		strb	r7, [r0, #10]
  75              		.loc 1 172 0
  76 0036 BAF80830 		ldrh	r3, [r10, #8]
  77              		.loc 1 171 0
  78 003a C0F804A0 		str	r10, [r0, #4]
  79              		.loc 1 172 0
  80 003e 5B1B     		subs	r3, r3, r5
  81              		.loc 1 170 0
  82 0040 0027     		movs	r7, #0
  83              		.loc 1 172 0
  84 0042 0381     		strh	r3, [r0, #8]	@ movhi
  85              		.loc 1 185 0
  86 0044 1421     		movs	r1, #20
  87 0046 5046     		mov	r0, r10
  88              	.LVL3:
  89              		.loc 1 170 0
  90 0048 2760     		str	r7, [r4]
  91              		.loc 1 185 0
  92 004a FFF7FEFF 		bl	pbuf_header
  93              	.LVL4:
  94 004e 8246     		mov	r10, r0
  95              	.LVL5:
  96 0050 28BB     		cbnz	r0, .L12
  97              		.loc 1 191 0
  98 0052 6368     		ldr	r3, [r4, #4]
  99              		.loc 1 192 0
 100 0054 B8F80000 		ldrh	r0, [r8]
 101              		.loc 1 191 0
 102 0058 5F68     		ldr	r7, [r3, #4]
 103 005a E760     		str	r7, [r4, #12]
 104              		.loc 1 192 0
 105 005c FFF7FEFF 		bl	lwip_htons
 106              	.LVL6:
 107 0060 3880     		strh	r0, [r7]	@ unaligned
 108              		.loc 1 193 0
 109 0062 B9F80000 		ldrh	r0, [r9]
 110 0066 E768     		ldr	r7, [r4, #12]
 111 0068 FFF7FEFF 		bl	lwip_htons
 112              	.LVL7:
 113 006c 7880     		strh	r0, [r7, #2]	@ unaligned
 114              		.loc 1 194 0
ARM GAS  C:\Users\jo\AppData\Local\Temp\ccnOsBUt.s 			page 3


 115 006e 0898     		ldr	r0, [sp, #32]
 116 0070 E768     		ldr	r7, [r4, #12]
 117 0072 FFF7FEFF 		bl	lwip_htonl
 118              	.LVL8:
 119              		.loc 1 196 0
 120 0076 C5F38703 		ubfx	r3, r5, #2, #8
 121 007a 0533     		adds	r3, r3, #5
 122 007c 46EA0333 		orr	r3, r6, r3, lsl #12
 123 0080 9BB2     		uxth	r3, r3
 124              		.loc 1 194 0
 125 0082 7860     		str	r0, [r7, #4]	@ unaligned
 126              		.loc 1 196 0
 127 0084 1846     		mov	r0, r3
 128 0086 E568     		ldr	r5, [r4, #12]
 129              	.LVL9:
 130 0088 FFF7FEFF 		bl	lwip_htons
 131              	.LVL10:
 132              		.loc 1 198 0
 133 008c E368     		ldr	r3, [r4, #12]
 134              		.loc 1 196 0
 135 008e A881     		strh	r0, [r5, #12]	@ unaligned
 136              		.loc 1 198 0
 137 0090 2046     		mov	r0, r4
 138 0092 83F812A0 		strb	r10, [r3, #18]
 139 0096 83F813A0 		strb	r10, [r3, #19]
 140              		.loc 1 200 0
 141 009a BDE8F087 		pop	{r4, r5, r6, r7, r8, r9, r10, pc}
 142              	.LVL11:
 143              	.L12:
 144              		.loc 1 187 0
 145 009e 094A     		ldr	r2, .L13
 146 00a0 B2F8A430 		ldrh	r3, [r2, #164]
 147              		.loc 1 188 0
 148 00a4 2046     		mov	r0, r4
 149              		.loc 1 187 0
 150 00a6 0133     		adds	r3, r3, #1
 151 00a8 A2F8A430 		strh	r3, [r2, #164]	@ movhi
 152              		.loc 1 188 0
 153 00ac FFF7FEFF 		bl	tcp_seg_free
 154              	.LVL12:
 155              		.loc 1 189 0
 156 00b0 3846     		mov	r0, r7
 157 00b2 BDE8F087 		pop	{r4, r5, r6, r7, r8, r9, r10, pc}
 158              	.LVL13:
 159              	.L11:
 160              		.loc 1 166 0
 161 00b6 5046     		mov	r0, r10
 162              	.LVL14:
 163 00b8 FFF7FEFF 		bl	pbuf_free
 164              	.LVL15:
 165              		.loc 1 167 0
 166 00bc 2046     		mov	r0, r4
 167 00be BDE8F087 		pop	{r4, r5, r6, r7, r8, r9, r10, pc}
 168              	.LVL16:
 169              	.L14:
 170 00c2 00BF     		.align	2
 171              	.L13:
ARM GAS  C:\Users\jo\AppData\Local\Temp\ccnOsBUt.s 			page 4


 172 00c4 00000000 		.word	lwip_stats
 173              		.cfi_endproc
 174              	.LFE272:
 175              		.size	tcp_create_segment.isra.0, .-tcp_create_segment.isra.0
 176 00c8 AFF30080 		.section	.text.chprintf.constprop.2,"ax",%progbits
 176      AFF30080 
 177              		.align	2
 178              		.p2align 4,,15
 179              		.thumb
 180              		.thumb_func
 181              		.type	chprintf.constprop.2, %function
 182              	chprintf.constprop.2:
 183              	.LFB273:
 184              		.file 2 "../../../os/hal/lib/streams/chprintf.h"
 185              		.loc 2 69 0
 186              		.cfi_startproc
 187              		@ args = 4, pretend = 12, frame = 8
 188              		@ frame_needed = 0, uses_anonymous_args = 1
 189              	.LVL17:
 190 0000 0EB4     		push	{r1, r2, r3}
 191              		.cfi_def_cfa_offset 12
 192              		.cfi_offset 1, -12
 193              		.cfi_offset 2, -8
 194              		.cfi_offset 3, -4
 195 0002 00B5     		push	{lr}
 196              		.cfi_def_cfa_offset 16
 197              		.cfi_offset 14, -16
 198 0004 82B0     		sub	sp, sp, #8
 199              		.cfi_def_cfa_offset 24
 200              		.loc 2 73 0
 201 0006 04AB     		add	r3, sp, #16
 202              		.loc 2 74 0
 203 0008 1A46     		mov	r2, r3
 204 000a 0549     		ldr	r1, .L17
 205 000c 0548     		ldr	r0, .L17+4
 206              	.LVL18:
 207              		.loc 2 73 0
 208 000e 0193     		str	r3, [sp, #4]
 209              		.loc 2 74 0
 210 0010 FFF7FEFF 		bl	chvprintf
 211              	.LVL19:
 212              		.loc 2 78 0
 213 0014 02B0     		add	sp, sp, #8
 214              		.cfi_def_cfa_offset 16
 215              		@ sp needed
 216 0016 5DF804EB 		ldr	lr, [sp], #4
 217              		.cfi_restore 14
 218              		.cfi_def_cfa_offset 12
 219 001a 03B0     		add	sp, sp, #12
 220              		.cfi_restore 3
 221              		.cfi_restore 2
 222              		.cfi_restore 1
 223              		.cfi_def_cfa_offset 0
 224 001c 7047     		bx	lr
 225              	.L18:
 226 001e 00BF     		.align	2
 227              	.L17:
ARM GAS  C:\Users\jo\AppData\Local\Temp\ccnOsBUt.s 			page 5


 228 0020 00000000 		.word	.LC0
 229 0024 00000000 		.word	itm_port
 230              		.cfi_endproc
 231              	.LFE273:
 232              		.size	chprintf.constprop.2, .-chprintf.constprop.2
 233 0028 AFF30080 		.section	.text.tcp_output_alloc_header.constprop.1,"ax",%progbits
 233      AFF30080 
 234              		.align	2
 235              		.p2align 4,,15
 236              		.thumb
 237              		.thumb_func
 238              		.type	tcp_output_alloc_header.constprop.1, %function
 239              	tcp_output_alloc_header.constprop.1:
 240              	.LFB274:
 241              		.loc 1 94 0
 242              		.cfi_startproc
 243              		@ args = 0, pretend = 0, frame = 0
 244              		@ frame_needed = 0, uses_anonymous_args = 0
 245              	.LVL20:
 246 0000 F0B5     		push	{r4, r5, r6, r7, lr}
 247              		.cfi_def_cfa_offset 20
 248              		.cfi_offset 4, -20
 249              		.cfi_offset 5, -16
 250              		.cfi_offset 6, -12
 251              		.cfi_offset 7, -8
 252              		.cfi_offset 14, -4
 253              		.loc 1 98 0
 254 0002 1431     		adds	r1, r1, #20
 255              	.LVL21:
 256              		.loc 1 94 0
 257 0004 83B0     		sub	sp, sp, #12
 258              		.cfi_def_cfa_offset 32
 259              		.loc 1 98 0
 260 0006 89B2     		uxth	r1, r1
 261              		.loc 1 94 0
 262 0008 0546     		mov	r5, r0
 263 000a 1746     		mov	r7, r2
 264              		.loc 1 98 0
 265 000c 0120     		movs	r0, #1
 266              	.LVL22:
 267 000e 0022     		movs	r2, #0
 268              	.LVL23:
 269 0010 FFF7FEFF 		bl	pbuf_alloc
 270              	.LVL24:
 271              		.loc 1 99 0
 272 0014 0646     		mov	r6, r0
 273 0016 10B3     		cbz	r0, .L20
 274              		.loc 1 100 0
 275 0018 4389     		ldrh	r3, [r0, #10]
 276 001a 132B     		cmp	r3, #19
 277 001c 22DD     		ble	.L26
 278              	.LVL25:
 279              	.L21:
 280              		.loc 1 103 0
 281 001e 688B     		ldrh	r0, [r5, #26]
 282              		.loc 1 102 0
 283 0020 7468     		ldr	r4, [r6, #4]
ARM GAS  C:\Users\jo\AppData\Local\Temp\ccnOsBUt.s 			page 6


 284              	.LVL26:
 285              		.loc 1 103 0
 286 0022 FFF7FEFF 		bl	lwip_htons
 287              	.LVL27:
 288 0026 2080     		strh	r0, [r4]	@ unaligned
 289              		.loc 1 104 0
 290 0028 A88B     		ldrh	r0, [r5, #28]
 291 002a FFF7FEFF 		bl	lwip_htons
 292              	.LVL28:
 293              		.loc 1 105 0
 294 002e 6760     		str	r7, [r4, #4]	@ unaligned
 295              		.loc 1 104 0
 296 0030 6080     		strh	r0, [r4, #2]	@ unaligned
 297              		.loc 1 106 0
 298 0032 A86A     		ldr	r0, [r5, #40]
 299 0034 FFF7FEFF 		bl	lwip_htonl
 300              	.LVL29:
 301 0038 A060     		str	r0, [r4, #8]	@ unaligned
 302              		.loc 1 107 0
 303 003a 45F21000 		movw	r0, #20496
 304 003e FFF7FEFF 		bl	lwip_htons
 305              	.LVL30:
 306 0042 A081     		strh	r0, [r4, #12]	@ unaligned
 307              		.loc 1 108 0
 308 0044 E88D     		ldrh	r0, [r5, #46]
 309 0046 FFF7FEFF 		bl	lwip_htons
 310              	.LVL31:
 311              		.loc 1 113 0
 312 004a E98D     		ldrh	r1, [r5, #46]
 313 004c AA6A     		ldr	r2, [r5, #40]
 314              		.loc 1 108 0
 315 004e E081     		strh	r0, [r4, #14]	@ unaligned
 316              		.loc 1 109 0
 317 0050 0023     		movs	r3, #0
 318              		.loc 1 113 0
 319 0052 0A44     		add	r2, r2, r1
 320              		.loc 1 109 0
 321 0054 2374     		strb	r3, [r4, #16]
 322 0056 6374     		strb	r3, [r4, #17]
 323              		.loc 1 110 0
 324 0058 A374     		strb	r3, [r4, #18]
 325 005a E374     		strb	r3, [r4, #19]
 326              		.loc 1 113 0
 327 005c 2A63     		str	r2, [r5, #48]
 328              	.LVL32:
 329              	.L20:
 330              		.loc 1 116 0
 331 005e 3046     		mov	r0, r6
 332 0060 03B0     		add	sp, sp, #12
 333              		.cfi_remember_state
 334              		.cfi_def_cfa_offset 20
 335              		@ sp needed
 336 0062 F0BD     		pop	{r4, r5, r6, r7, pc}
 337              	.LVL33:
 338              	.L26:
 339              		.cfi_restore_state
 340              		.loc 1 100 0
ARM GAS  C:\Users\jo\AppData\Local\Temp\ccnOsBUt.s 			page 7


 341 0064 054B     		ldr	r3, .L27
 342 0066 0093     		str	r3, [sp]
 343 0068 0549     		ldr	r1, .L27+4
 344 006a 064A     		ldr	r2, .L27+8
 345 006c 0648     		ldr	r0, .L27+12
 346              	.LVL34:
 347 006e 6523     		movs	r3, #101
 348 0070 FFF7FEFF 		bl	chprintf.constprop.2
 349              	.LVL35:
 350              	.LBB55:
 351              	.LBB56:
 352              		.file 3 "../../../os/hal/osal/rt/osal.h"
 353              		.loc 3 414 0
 354 0074 0348     		ldr	r0, .L27+8
 355 0076 FFF7FEFF 		bl	chSysHalt
 356              	.LVL36:
 357 007a D0E7     		b	.L21
 358              	.L28:
 359              		.align	2
 360              	.L27:
 361 007c 58000000 		.word	.LC2
 362 0080 00000000 		.word	.LC0
 363 0084 28000000 		.word	.LC1
 364 0088 00000000 		.word	itm_port
 365              	.LBE56:
 366              	.LBE55:
 367              		.cfi_endproc
 368              	.LFE274:
 369              		.size	tcp_output_alloc_header.constprop.1, .-tcp_output_alloc_header.constprop.1
 370 008c AFF30080 		.section	.text.tcp_pbuf_prealloc,"ax",%progbits
 371              		.align	2
 372              		.p2align 4,,15
 373              		.thumb
 374              		.thumb_func
 375              		.type	tcp_pbuf_prealloc, %function
 376              	tcp_pbuf_prealloc:
 377              	.LFB259:
 378              		.loc 1 222 0
 379              		.cfi_startproc
 380              		@ args = 12, pretend = 0, frame = 0
 381              		@ frame_needed = 0, uses_anonymous_args = 0
 382              	.LVL37:
 383 0000 70B5     		push	{r4, r5, r6, lr}
 384              		.cfi_def_cfa_offset 16
 385              		.cfi_offset 4, -16
 386              		.cfi_offset 5, -12
 387              		.cfi_offset 6, -8
 388              		.cfi_offset 14, -4
 389 0002 0D46     		mov	r5, r1
 390              	.LVL38:
 391 0004 82B0     		sub	sp, sp, #8
 392              		.cfi_def_cfa_offset 24
 393              		.loc 1 234 0
 394 0006 9542     		cmp	r5, r2
 395              		.loc 1 222 0
 396 0008 1E46     		mov	r6, r3
 397 000a 9DF82010 		ldrb	r1, [sp, #32]	@ zero_extendqisi2
ARM GAS  C:\Users\jo\AppData\Local\Temp\ccnOsBUt.s 			page 8


 398              	.LVL39:
 399 000e 9DF81C30 		ldrb	r3, [sp, #28]	@ zero_extendqisi2
 400              	.LVL40:
 401              		.loc 1 234 0
 402 0012 0ED2     		bcs	.L36
 403              		.loc 1 246 0
 404 0014 9C07     		lsls	r4, r3, #30
 405 0016 08D5     		bpl	.L46
 406              	.L31:
 407              		.loc 1 251 0
 408 0018 05F2B751 		addw	r1, r5, #1463
 409 001c 21F00301 		bic	r1, r1, #3
 410 0020 8A42     		cmp	r2, r1
 411 0022 A8BF     		it	ge
 412 0024 0A46     		movge	r2, r1
 413              	.LVL41:
 414 0026 91B2     		uxth	r1, r2
 415              	.LVL42:
 416 0028 04E0     		b	.L30
 417              	.LVL43:
 418              	.L46:
 419              		.loc 1 247 0 discriminator 1
 420 002a 069B     		ldr	r3, [sp, #24]
 421 002c 9B7F     		ldrb	r3, [r3, #30]	@ zero_extendqisi2
 422              		.loc 1 246 0 discriminator 1
 423 002e 5B06     		lsls	r3, r3, #25
 424 0030 1BD5     		bpl	.L47
 425              	.L36:
 426 0032 2946     		mov	r1, r5
 427              	.LVL44:
 428              	.L30:
 429              		.loc 1 255 0
 430 0034 0022     		movs	r2, #0
 431 0036 FFF7FEFF 		bl	pbuf_alloc
 432              	.LVL45:
 433              		.loc 1 256 0
 434 003a 0446     		mov	r4, r0
 435 003c 90B1     		cbz	r0, .L32
 436              		.loc 1 259 0
 437 003e 0368     		ldr	r3, [r0]
 438 0040 5BB1     		cbz	r3, .L33
 439              		.loc 1 259 0 is_stmt 0 discriminator 1
 440 0042 0F4B     		ldr	r3, .L48
 441 0044 0093     		str	r3, [sp]
 442 0046 0F48     		ldr	r0, .L48+4
 443              	.LVL46:
 444 0048 0F49     		ldr	r1, .L48+8
 445 004a 104A     		ldr	r2, .L48+12
 446 004c 40F20313 		movw	r3, #259
 447 0050 FFF7FEFF 		bl	chprintf.constprop.2
 448              	.LVL47:
 449              	.LBB57:
 450              	.LBB58:
 451              		.loc 3 414 0 is_stmt 1 discriminator 1
 452 0054 0D48     		ldr	r0, .L48+12
 453 0056 FFF7FEFF 		bl	chSysHalt
 454              	.LVL48:
ARM GAS  C:\Users\jo\AppData\Local\Temp\ccnOsBUt.s 			page 9


 455              	.L33:
 456              	.LBE58:
 457              	.LBE57:
 458              		.loc 1 260 0
 459 005a 6389     		ldrh	r3, [r4, #10]
 460 005c 5B1B     		subs	r3, r3, r5
 461 005e 3380     		strh	r3, [r6]	@ movhi
 462              		.loc 1 262 0
 463 0060 2581     		strh	r5, [r4, #8]	@ movhi
 464 0062 6581     		strh	r5, [r4, #10]	@ movhi
 465              	.L32:
 466              		.loc 1 264 0
 467 0064 2046     		mov	r0, r4
 468 0066 02B0     		add	sp, sp, #8
 469              		.cfi_remember_state
 470              		.cfi_def_cfa_offset 16
 471              		@ sp needed
 472 0068 70BD     		pop	{r4, r5, r6, pc}
 473              	.LVL49:
 474              	.L47:
 475              		.cfi_restore_state
 476              		.loc 1 247 0
 477 006a 0029     		cmp	r1, #0
 478 006c D4D0     		beq	.L31
 479              		.loc 1 248 0
 480 006e 069B     		ldr	r3, [sp, #24]
 481 0070 DB6E     		ldr	r3, [r3, #108]
 482 0072 002B     		cmp	r3, #0
 483 0074 D0D1     		bne	.L31
 484              		.loc 1 249 0
 485 0076 069B     		ldr	r3, [sp, #24]
 486 0078 1B6F     		ldr	r3, [r3, #112]
 487 007a 002B     		cmp	r3, #0
 488 007c CCD1     		bne	.L31
 489 007e D8E7     		b	.L36
 490              	.L49:
 491              		.align	2
 492              	.L48:
 493 0080 58000000 		.word	.LC2
 494 0084 00000000 		.word	itm_port
 495 0088 00000000 		.word	.LC0
 496 008c 88000000 		.word	.LC3
 497              		.cfi_endproc
 498              	.LFE259:
 499              		.size	tcp_pbuf_prealloc, .-tcp_pbuf_prealloc
 500              		.section	.text.tcp_write,"ax",%progbits
 501              		.align	2
 502              		.p2align 4,,15
 503              		.global	tcp_write
 504              		.thumb
 505              		.thumb_func
 506              		.type	tcp_write, %function
 507              	tcp_write:
 508              	.LFB261:
 509              		.loc 1 355 0
 510              		.cfi_startproc
 511              		@ args = 0, pretend = 0, frame = 40
ARM GAS  C:\Users\jo\AppData\Local\Temp\ccnOsBUt.s 			page 10


 512              		@ frame_needed = 0, uses_anonymous_args = 0
 513              	.LVL50:
 514 0000 2DE9F04F 		push	{r4, r5, r6, r7, r8, r9, r10, fp, lr}
 515              		.cfi_def_cfa_offset 36
 516              		.cfi_offset 4, -36
 517              		.cfi_offset 5, -32
 518              		.cfi_offset 6, -28
 519              		.cfi_offset 7, -24
 520              		.cfi_offset 8, -20
 521              		.cfi_offset 9, -16
 522              		.cfi_offset 10, -12
 523              		.cfi_offset 11, -8
 524              		.cfi_offset 14, -4
 525 0004 0746     		mov	r7, r0
 526              		.loc 1 373 0
 527 0006 B0F86200 		ldrh	r0, [r0, #98]
 528              	.LVL51:
 529 000a FC8E     		ldrh	r4, [r7, #54]
 530              		.loc 1 355 0
 531 000c 8FB0     		sub	sp, sp, #60
 532              		.cfi_def_cfa_offset 96
 533              		.loc 1 373 0
 534 000e 4008     		lsrs	r0, r0, #1
 535 0010 A042     		cmp	r0, r4
 536              		.loc 1 363 0
 537 0012 4FF00005 		mov	r5, #0
 538              		.loc 1 355 0
 539 0016 0893     		str	r3, [sp, #32]
 540              		.loc 1 373 0
 541 0018 0346     		mov	r3, r0
 542              	.LVL52:
 543 001a 28BF     		it	cs
 544 001c 2346     		movcs	r3, r4
 545              		.loc 1 363 0
 546 001e ADF83650 		strh	r5, [sp, #54]	@ movhi
 547              	.LVL53:
 548              		.loc 1 373 0
 549 0022 0593     		str	r3, [sp, #20]
 550              	.LVL54:
 551              		.loc 1 382 0
 552 0024 0691     		str	r1, [sp, #24]
 553 0026 0029     		cmp	r1, #0
 554 0028 00F0C582 		beq	.L184
 555              	.LBB88:
 556              	.LBB89:
 557              		.loc 1 297 0
 558 002c 3B7E     		ldrb	r3, [r7, #24]	@ zero_extendqisi2
 559 002e 072B     		cmp	r3, #7
 560 0030 9346     		mov	fp, r2
 561              	.LVL55:
 562 0032 07D0     		beq	.L53
 563              		.loc 1 298 0
 564 0034 023B     		subs	r3, r3, #2
 565 0036 022B     		cmp	r3, #2
 566 0038 04D9     		bls	.L53
 567              		.loc 1 302 0
 568 003a F320     		movs	r0, #243
ARM GAS  C:\Users\jo\AppData\Local\Temp\ccnOsBUt.s 			page 11


 569              	.LVL56:
 570              	.L52:
 571 003c 40B2     		sxtb	r0, r0
 572              	.LBE89:
 573              	.LBE88:
 574              		.loc 1 709 0
 575 003e 0FB0     		add	sp, sp, #60
 576              		.cfi_remember_state
 577              		.cfi_def_cfa_offset 36
 578              		@ sp needed
 579 0040 BDE8F08F 		pop	{r4, r5, r6, r7, r8, r9, r10, fp, pc}
 580              	.LVL57:
 581              	.L53:
 582              		.cfi_restore_state
 583              	.LBB100:
 584              	.LBB94:
 585              		.loc 1 303 0
 586 0044 BBF1000F 		cmp	fp, #0
 587 0048 00F0F080 		beq	.L55
 588              		.loc 1 308 0
 589 004c B7F86630 		ldrh	r3, [r7, #102]
 590 0050 5B45     		cmp	r3, fp
 591 0052 C0F07682 		bcc	.L179
 592              		.loc 1 320 0
 593 0056 B7F86860 		ldrh	r6, [r7, #104]
 594 005a 072E     		cmp	r6, #7
 595 005c 00F26B82 		bhi	.L185
 596              		.loc 1 328 0
 597 0060 3B6F     		ldr	r3, [r7, #112]
 598              		.loc 1 327 0
 599 0062 002E     		cmp	r6, #0
 600 0064 00F0BA80 		beq	.L58
 601              		.loc 1 328 0
 602 0068 002B     		cmp	r3, #0
 603 006a 00F0F881 		beq	.L186
 604              	.LVL58:
 605              	.L59:
 606              	.LBE94:
 607              	.LBE100:
 608              		.loc 1 422 0
 609 006e FB6E     		ldr	r3, [r7, #108]
 610 0070 0993     		str	r3, [sp, #36]
 611 0072 002B     		cmp	r3, #0
 612 0074 00F0C880 		beq	.L187
 613              	.LVL59:
 614              	.L177:
 615 0078 099A     		ldr	r2, [sp, #36]
 616 007a 00E0     		b	.L63
 617              	.LVL60:
 618              	.L108:
 619              	.LBB101:
 620 007c 1A46     		mov	r2, r3
 621              	.LVL61:
 622              	.L63:
 623              		.loc 1 427 0 discriminator 1
 624 007e 1368     		ldr	r3, [r2]
 625 0080 002B     		cmp	r3, #0
ARM GAS  C:\Users\jo\AppData\Local\Temp\ccnOsBUt.s 			page 12


 626 0082 FBD1     		bne	.L108
 627              		.loc 1 431 0
 628 0084 917A     		ldrb	r1, [r2, #10]	@ zero_extendqisi2
 629 0086 0598     		ldr	r0, [sp, #20]
 630 0088 0992     		str	r2, [sp, #36]
 631 008a 9846     		mov	r8, r3
 632 008c 1389     		ldrh	r3, [r2, #8]
 633              		.loc 1 447 0
 634 008e B7F86A20 		ldrh	r2, [r7, #106]
 635              	.LVL62:
 636              		.loc 1 431 0
 637 0092 11F0010F 		tst	r1, #1
 638 0096 14BF     		ite	ne
 639 0098 0424     		movne	r4, #4
 640 009a 0024     		moveq	r4, #0
 641 009c C31A     		subs	r3, r0, r3
 642 009e 11F0020F 		tst	r1, #2
 643 00a2 A3EB0403 		sub	r3, r3, r4
 644 00a6 14BF     		ite	ne
 645 00a8 0C24     		movne	r4, #12
 646 00aa 0024     		moveq	r4, #0
 647              	.LVL63:
 648              		.loc 1 432 0
 649 00ac 1C1B     		subs	r4, r3, r4
 650 00ae A4B2     		uxth	r4, r4
 651              	.LVL64:
 652              		.loc 1 448 0
 653 00b0 002A     		cmp	r2, #0
 654 00b2 40F0BE80 		bne	.L66
 655              		.loc 1 447 0
 656 00b6 ADF83680 		strh	r8, [sp, #54]	@ movhi
 657              	.LBE101:
 658              		.loc 1 357 0
 659 00ba C146     		mov	r9, r8
 660              		.loc 1 358 0
 661 00bc CDF82880 		str	r8, [sp, #40]
 662              	.LVL65:
 663              	.L67:
 664              	.LBB107:
 665              		.loc 1 467 0
 666 00c0 0A9B     		ldr	r3, [sp, #40]
 667 00c2 9B45     		cmp	fp, r3
 668 00c4 40F2C780 		bls	.L68
 669              		.loc 1 467 0 is_stmt 0 discriminator 1
 670 00c8 002C     		cmp	r4, #0
 671 00ca 40F0E880 		bne	.L188
 672              	.L69:
 673              	.LVL66:
 674 00ce 089B     		ldr	r3, [sp, #32]
 675              	.LBE107:
 676              		.loc 1 358 0 is_stmt 1
 677 00d0 0A9C     		ldr	r4, [sp, #40]
 678              	.LVL67:
 679 00d2 03F00103 		and	r3, r3, #1
 680 00d6 0793     		str	r3, [sp, #28]
 681 00d8 0023     		movs	r3, #0
 682 00da 0B93     		str	r3, [sp, #44]
ARM GAS  C:\Users\jo\AppData\Local\Temp\ccnOsBUt.s 			page 13


 683              	.LVL68:
 684              	.L73:
 685 00dc 4FF00008 		mov	r8, #0
 686 00e0 C246     		mov	r10, r8
 687 00e2 CDF81080 		str	r8, [sp, #16]
 688 00e6 44E0     		b	.L86
 689              	.LVL69:
 690              	.L76:
 691              	.LBB108:
 692              	.LBB109:
 693              		.loc 1 550 0
 694 00e8 BDF83630 		ldrh	r3, [sp, #54]
 695 00ec 002B     		cmp	r3, #0
 696 00ee 40F01F81 		bne	.L189
 697              	.L80:
 698              		.loc 1 552 0
 699 00f2 0020     		movs	r0, #0
 700 00f4 2946     		mov	r1, r5
 701 00f6 0122     		movs	r2, #1
 702 00f8 FFF7FEFF 		bl	pbuf_alloc
 703              	.LVL70:
 704 00fc 8046     		mov	r8, r0
 705 00fe 0028     		cmp	r0, #0
 706 0100 00F08181 		beq	.L174
 707              		.loc 1 561 0
 708 0104 069B     		ldr	r3, [sp, #24]
 709              		.loc 1 564 0
 710 0106 0020     		movs	r0, #0
 711              	.LVL71:
 712              		.loc 1 561 0
 713 0108 1A19     		adds	r2, r3, r4
 714 010a C8F80420 		str	r2, [r8, #4]
 715              		.loc 1 564 0
 716 010e 0146     		mov	r1, r0
 717 0110 0246     		mov	r2, r0
 718 0112 FFF7FEFF 		bl	pbuf_alloc
 719              	.LVL72:
 720 0116 8146     		mov	r9, r0
 721 0118 0028     		cmp	r0, #0
 722 011a 00F09981 		beq	.L190
 723              		.loc 1 572 0
 724 011e 4146     		mov	r1, r8
 725 0120 FFF7FEFF 		bl	pbuf_cat
 726              	.LVL73:
 727              	.LBE109:
 728              		.loc 1 575 0
 729 0124 4846     		mov	r0, r9
 730 0126 FFF7FEFF 		bl	pbuf_clen
 731              	.LVL74:
 732 012a 3044     		add	r0, r0, r6
 733 012c 86B2     		uxth	r6, r0
 734              	.LVL75:
 735              		.loc 1 580 0
 736 012e 082E     		cmp	r6, #8
 737 0130 4ED8     		bhi	.L191
 738              	.LVL76:
 739              	.L83:
ARM GAS  C:\Users\jo\AppData\Local\Temp\ccnOsBUt.s 			page 14


 740              		.loc 1 586 0
 741 0132 FA6D     		ldr	r2, [r7, #92]
 742 0134 0023     		movs	r3, #0
 743 0136 A118     		adds	r1, r4, r2
 744 0138 8DE80A00 		stmia	sp, {r1, r3}
 745 013c 4A46     		mov	r2, r9
 746 013e 07F11A00 		add	r0, r7, #26
 747 0142 07F11C01 		add	r1, r7, #28
 748 0146 FFF7FEFF 		bl	tcp_create_segment.isra.0
 749              	.LVL77:
 750 014a 8146     		mov	r9, r0
 751              	.LVL78:
 752 014c 0028     		cmp	r0, #0
 753 014e 00F05A81 		beq	.L174
 754              		.loc 1 599 0
 755 0152 049B     		ldr	r3, [sp, #16]
 756 0154 002B     		cmp	r3, #0
 757 0156 00F0F880 		beq	.L113
 758              		.loc 1 603 0
 759 015a BAF1000F 		cmp	r10, #0
 760 015e 00F04581 		beq	.L192
 761              	.LVL79:
 762              	.L85:
 763              		.loc 1 613 0
 764 0162 2C44     		add	r4, r4, r5
 765              	.LVL80:
 766 0164 A4B2     		uxth	r4, r4
 767              	.LBE108:
 768              		.loc 1 522 0
 769 0166 A345     		cmp	fp, r4
 770              	.LBB118:
 771              		.loc 1 604 0
 772 0168 CAF80090 		str	r9, [r10]
 773              	.LVL81:
 774              	.LBE118:
 775              		.loc 1 522 0
 776 016c 40F2F380 		bls	.L193
 777              	.L114:
 778 0170 CA46     		mov	r10, r9
 779              	.LVL82:
 780              	.L86:
 781              	.LBB119:
 782              		.loc 1 526 0
 783 0172 059B     		ldr	r3, [sp, #20]
 784              		.loc 1 524 0
 785 0174 C4EB0B05 		rsb	r5, r4, fp
 786              		.loc 1 526 0
 787 0178 ADB2     		uxth	r5, r5
 788 017a 9D42     		cmp	r5, r3
 789 017c 28BF     		it	cs
 790 017e 1D46     		movcs	r5, r3
 791              	.LVL83:
 792              		.loc 1 532 0
 793 0180 079B     		ldr	r3, [sp, #28]
 794 0182 002B     		cmp	r3, #0
 795 0184 B0D0     		beq	.L76
 796              		.loc 1 535 0
ARM GAS  C:\Users\jo\AppData\Local\Temp\ccnOsBUt.s 			page 15


 797 0186 089A     		ldr	r2, [sp, #32]
 798 0188 049B     		ldr	r3, [sp, #16]
 799 018a B3FA83F3 		clz	r3, r3
 800 018e 5B09     		lsrs	r3, r3, #5
 801 0190 0192     		str	r2, [sp, #4]
 802 0192 0293     		str	r3, [sp, #8]
 803 0194 0097     		str	r7, [sp]
 804 0196 0020     		movs	r0, #0
 805 0198 2946     		mov	r1, r5
 806 019a 059A     		ldr	r2, [sp, #20]
 807 019c 0DF13603 		add	r3, sp, #54
 808 01a0 FFF7FEFF 		bl	tcp_pbuf_prealloc
 809              	.LVL84:
 810 01a4 8146     		mov	r9, r0
 811 01a6 0028     		cmp	r0, #0
 812 01a8 00F02D81 		beq	.L174
 813              		.loc 1 539 0
 814 01ac 4389     		ldrh	r3, [r0, #10]
 815 01ae AB42     		cmp	r3, r5
 816 01b0 C0F00F81 		bcc	.L194
 817              	.LVL85:
 818              	.L78:
 819              		.loc 1 541 0
 820 01b4 069B     		ldr	r3, [sp, #24]
 821 01b6 D9F80400 		ldr	r0, [r9, #4]
 822 01ba 1919     		adds	r1, r3, r4
 823 01bc 2A46     		mov	r2, r5
 824 01be FFF7FEFF 		bl	memcpy
 825              	.LVL86:
 826              		.loc 1 575 0
 827 01c2 4846     		mov	r0, r9
 828 01c4 FFF7FEFF 		bl	pbuf_clen
 829              	.LVL87:
 830 01c8 3044     		add	r0, r0, r6
 831 01ca 86B2     		uxth	r6, r0
 832              	.LVL88:
 833              		.loc 1 580 0
 834 01cc 082E     		cmp	r6, #8
 835 01ce B0D9     		bls	.L83
 836              	.L191:
 837              		.loc 1 582 0
 838 01d0 4846     		mov	r0, r9
 839 01d2 DDF81080 		ldr	r8, [sp, #16]
 840 01d6 FFF7FEFF 		bl	pbuf_free
 841              	.LVL89:
 842              		.loc 1 583 0
 843 01da 16E1     		b	.L82
 844              	.LVL90:
 845              	.L58:
 846              	.LBE119:
 847              	.LBB120:
 848              	.LBB95:
 849              		.loc 1 331 0
 850 01dc 002B     		cmp	r3, #0
 851 01de 00F09280 		beq	.L195
 852              	.L61:
 853 01e2 A94B     		ldr	r3, .L204
ARM GAS  C:\Users\jo\AppData\Local\Temp\ccnOsBUt.s 			page 16


 854 01e4 0093     		str	r3, [sp]
 855 01e6 A949     		ldr	r1, .L204+4
 856              	.LVL91:
 857 01e8 A94A     		ldr	r2, .L204+8
 858              	.LVL92:
 859 01ea AA48     		ldr	r0, .L204+12
 860 01ec 4FF4A673 		mov	r3, #332
 861 01f0 FFF7FEFF 		bl	chprintf.constprop.2
 862              	.LVL93:
 863              	.LBB90:
 864              	.LBB91:
 865              		.loc 3 414 0
 866 01f4 A648     		ldr	r0, .L204+8
 867 01f6 FFF7FEFF 		bl	chSysHalt
 868              	.LVL94:
 869              	.LBE91:
 870              	.LBE90:
 871              	.LBE95:
 872              	.LBE120:
 873              		.loc 1 422 0
 874 01fa FB6E     		ldr	r3, [r7, #108]
 875 01fc B7F86860 		ldrh	r6, [r7, #104]
 876              	.LVL95:
 877 0200 0993     		str	r3, [sp, #36]
 878 0202 002B     		cmp	r3, #0
 879 0204 7FF438AF 		bne	.L177
 880              	.LVL96:
 881              	.L187:
 882              		.loc 1 511 0
 883 0208 B7F86A30 		ldrh	r3, [r7, #106]
 884 020c 002B     		cmp	r3, #0
 885 020e 40F08280 		bne	.L102
 886              	.LVL97:
 887              	.L75:
 888              		.loc 1 522 0
 889 0212 BBF1000F 		cmp	fp, #0
 890 0216 00F0DF81 		beq	.L101
 891              	.LVL98:
 892              	.L103:
 893 021a 089B     		ldr	r3, [sp, #32]
 894              		.loc 1 358 0
 895 021c 0024     		movs	r4, #0
 896 021e 03F00103 		and	r3, r3, #1
 897 0222 0A94     		str	r4, [sp, #40]
 898 0224 0994     		str	r4, [sp, #36]
 899 0226 0B94     		str	r4, [sp, #44]
 900 0228 0793     		str	r3, [sp, #28]
 901 022a 57E7     		b	.L73
 902              	.LVL99:
 903              	.L55:
 904 022c B7F86860 		ldrh	r6, [r7, #104]
 905 0230 1DE7     		b	.L59
 906              	.LVL100:
 907              	.L66:
 908              	.LBB121:
 909              		.loc 1 451 0
 910 0232 9345     		cmp	fp, r2
ARM GAS  C:\Users\jo\AppData\Local\Temp\ccnOsBUt.s 			page 17


 911 0234 5B46     		mov	r3, fp
 912 0236 28BF     		it	cs
 913 0238 1346     		movcs	r3, r2
 914              		.loc 1 453 0
 915 023a D21A     		subs	r2, r2, r3
 916 023c 92B2     		uxth	r2, r2
 917              		.loc 1 454 0
 918 023e E41A     		subs	r4, r4, r3
 919              	.LVL101:
 920              		.loc 1 451 0
 921 0240 0A93     		str	r3, [sp, #40]
 922              	.LVL102:
 923              		.loc 1 453 0
 924 0242 ADF83620 		strh	r2, [sp, #54]	@ movhi
 925              		.loc 1 454 0
 926 0246 A4B2     		uxth	r4, r4
 927              	.LVL103:
 928              		.loc 1 457 0
 929 0248 002A     		cmp	r2, #0
 930 024a 00F0C281 		beq	.L111
 931              		.loc 1 457 0 is_stmt 0 discriminator 1
 932 024e 9B45     		cmp	fp, r3
 933 0250 16D1     		bne	.L196
 934 0252 DDF82490 		ldr	r9, [sp, #36]
 935              	.LVL104:
 936              	.L68:
 937              	.LBE121:
 938              		.loc 1 626 0 is_stmt 1
 939 0256 0A9B     		ldr	r3, [sp, #40]
 940 0258 002B     		cmp	r3, #0
 941 025a 00F03F81 		beq	.L197
 942 025e 0023     		movs	r3, #0
 943 0260 0B93     		str	r3, [sp, #44]
 944              	.LVL105:
 945              	.L99:
 946              	.LBB122:
 947              		.loc 1 629 0
 948 0262 099B     		ldr	r3, [sp, #36]
 949 0264 5C68     		ldr	r4, [r3, #4]
 950              	.LVL106:
 951 0266 002C     		cmp	r4, #0
 952 0268 00F03281 		beq	.L88
 953 026c 0A9D     		ldr	r5, [sp, #40]
 954              	.LVL107:
 955              	.L89:
 956              		.loc 1 630 0
 957 026e 2389     		ldrh	r3, [r4, #8]
 958              		.loc 1 631 0
 959 0270 2268     		ldr	r2, [r4]
 960              		.loc 1 630 0
 961 0272 2B44     		add	r3, r3, r5
 962 0274 2381     		strh	r3, [r4, #8]	@ movhi
 963              		.loc 1 631 0
 964 0276 002A     		cmp	r2, #0
 965 0278 00F01C81 		beq	.L198
 966              	.LVL108:
 967              	.L90:
ARM GAS  C:\Users\jo\AppData\Local\Temp\ccnOsBUt.s 			page 18


 968              	.LBE122:
 969              		.loc 1 626 0
 970 027c 1446     		mov	r4, r2
 971 027e F6E7     		b	.L89
 972              	.LVL109:
 973              	.L196:
 974              	.LBB123:
 975              		.loc 1 457 0 discriminator 2
 976 0280 814B     		ldr	r3, .L204
 977              	.LVL110:
 978 0282 0093     		str	r3, [sp]
 979 0284 8149     		ldr	r1, .L204+4
 980 0286 844A     		ldr	r2, .L204+16
 981 0288 8248     		ldr	r0, .L204+12
 982 028a 40F2C913 		movw	r3, #457
 983 028e FFF7FEFF 		bl	chprintf.constprop.2
 984              	.LVL111:
 985              	.LBB102:
 986              	.LBB103:
 987              		.loc 3 414 0 discriminator 2
 988 0292 8148     		ldr	r0, .L204+16
 989 0294 FFF7FEFF 		bl	chSysHalt
 990              	.LVL112:
 991 0298 DDF82490 		ldr	r9, [sp, #36]
 992 029c 10E7     		b	.L67
 993              	.LVL113:
 994              	.L188:
 995              	.LBE103:
 996              	.LBE102:
 997              		.loc 1 467 0 discriminator 2
 998 029e 099B     		ldr	r3, [sp, #36]
 999 02a0 1B89     		ldrh	r3, [r3, #8]
 1000 02a2 002B     		cmp	r3, #0
 1001 02a4 3FF413AF 		beq	.L69
 1002              	.LBB104:
 1003              		.loc 1 468 0
 1004 02a8 0A9B     		ldr	r3, [sp, #40]
 1005 02aa C3EB0B05 		rsb	r5, r3, fp
 1006              		.loc 1 474 0
 1007 02ae 089B     		ldr	r3, [sp, #32]
 1008              		.loc 1 468 0
 1009 02b0 A542     		cmp	r5, r4
 1010 02b2 A8BF     		it	ge
 1011 02b4 2546     		movge	r5, r4
 1012              		.loc 1 474 0
 1013 02b6 13F00103 		ands	r3, r3, #1
 1014              		.loc 1 468 0
 1015 02ba ADB2     		uxth	r5, r5
 1016              	.LVL114:
 1017              		.loc 1 474 0
 1018 02bc 0793     		str	r3, [sp, #28]
 1019 02be 40F01281 		bne	.L199
 1020              		.loc 1 491 0
 1021 02c2 0320     		movs	r0, #3
 1022 02c4 2946     		mov	r1, r5
 1023 02c6 0122     		movs	r2, #1
 1024 02c8 FFF7FEFF 		bl	pbuf_alloc
ARM GAS  C:\Users\jo\AppData\Local\Temp\ccnOsBUt.s 			page 19


 1025              	.LVL115:
 1026 02cc 0B90     		str	r0, [sp, #44]
 1027 02ce 0028     		cmp	r0, #0
 1028 02d0 00F05981 		beq	.L71
 1029              		.loc 1 503 0
 1030 02d4 069B     		ldr	r3, [sp, #24]
 1031 02d6 0A99     		ldr	r1, [sp, #40]
 1032 02d8 0B44     		add	r3, r3, r1
 1033 02da 4360     		str	r3, [r0, #4]
 1034              	.LVL116:
 1035              	.L72:
 1036              		.loc 1 506 0
 1037 02dc 0A9B     		ldr	r3, [sp, #40]
 1038              		.loc 1 507 0
 1039 02de 0B98     		ldr	r0, [sp, #44]
 1040              		.loc 1 506 0
 1041 02e0 EC18     		adds	r4, r5, r3
 1042              	.LVL117:
 1043              		.loc 1 507 0
 1044 02e2 FFF7FEFF 		bl	pbuf_clen
 1045              	.LVL118:
 1046              		.loc 1 506 0
 1047 02e6 A4B2     		uxth	r4, r4
 1048              	.LVL119:
 1049              		.loc 1 507 0
 1050 02e8 3044     		add	r0, r0, r6
 1051              	.LBE104:
 1052              	.LBE123:
 1053              		.loc 1 522 0
 1054 02ea A345     		cmp	fp, r4
 1055              	.LBB124:
 1056              	.LBB105:
 1057              		.loc 1 507 0
 1058 02ec 86B2     		uxth	r6, r0
 1059              	.LVL120:
 1060              	.LBE105:
 1061              	.LBE124:
 1062              		.loc 1 522 0
 1063 02ee 3FF6F5AE 		bhi	.L73
 1064              		.loc 1 626 0
 1065 02f2 0A9B     		ldr	r3, [sp, #40]
 1066              		.loc 1 522 0
 1067 02f4 DDF82490 		ldr	r9, [sp, #36]
 1068              		.loc 1 626 0
 1069 02f8 002B     		cmp	r3, #0
 1070 02fa B2D1     		bne	.L99
 1071              		.loc 1 643 0
 1072 02fc BDF83630 		ldrh	r3, [sp, #54]
 1073 0300 A7F86A30 		strh	r3, [r7, #106]	@ movhi
 1074 0304 34E0     		b	.L105
 1075              	.LVL121:
 1076              	.L195:
 1077              	.LBB125:
 1078              	.LBB96:
 1079              		.loc 1 331 0
 1080 0306 FB6E     		ldr	r3, [r7, #108]
 1081 0308 002B     		cmp	r3, #0
ARM GAS  C:\Users\jo\AppData\Local\Temp\ccnOsBUt.s 			page 20


 1082 030a 7FF46AAF 		bne	.L61
 1083              	.LVL122:
 1084              	.LBE96:
 1085              	.LBE125:
 1086              		.loc 1 511 0
 1087 030e B7F86A30 		ldrh	r3, [r7, #106]
 1088 0312 002B     		cmp	r3, #0
 1089 0314 81D0     		beq	.L103
 1090              	.LVL123:
 1091              	.L102:
 1092              		.loc 1 511 0 is_stmt 0 discriminator 1
 1093 0316 5C4B     		ldr	r3, .L204
 1094 0318 0093     		str	r3, [sp]
 1095 031a 5C49     		ldr	r1, .L204+4
 1096 031c 5F4A     		ldr	r2, .L204+20
 1097 031e 5D48     		ldr	r0, .L204+12
 1098 0320 4FF40073 		mov	r3, #512
 1099 0324 FFF7FEFF 		bl	chprintf.constprop.2
 1100              	.LVL124:
 1101              	.LBB126:
 1102              	.LBB127:
 1103              		.loc 3 414 0 is_stmt 1 discriminator 1
 1104 0328 5C48     		ldr	r0, .L204+20
 1105 032a FFF7FEFF 		bl	chSysHalt
 1106              	.LVL125:
 1107 032e 70E7     		b	.L75
 1108              	.LVL126:
 1109              	.L189:
 1110              	.LBE127:
 1111              	.LBE126:
 1112              	.LBB128:
 1113              	.LBB112:
 1114              		.loc 1 550 0 discriminator 1
 1115 0330 554B     		ldr	r3, .L204
 1116 0332 0093     		str	r3, [sp]
 1117 0334 5549     		ldr	r1, .L204+4
 1118 0336 5A4A     		ldr	r2, .L204+24
 1119 0338 5648     		ldr	r0, .L204+12
 1120 033a 40F22623 		movw	r3, #550
 1121 033e FFF7FEFF 		bl	chprintf.constprop.2
 1122              	.LVL127:
 1123              	.LBB110:
 1124              	.LBB111:
 1125              		.loc 3 414 0 discriminator 1
 1126 0342 5748     		ldr	r0, .L204+24
 1127 0344 FFF7FEFF 		bl	chSysHalt
 1128              	.LVL128:
 1129 0348 D3E6     		b	.L80
 1130              	.LVL129:
 1131              	.L113:
 1132              	.LBE111:
 1133              	.LBE110:
 1134              	.LBE112:
 1135              		.loc 1 613 0
 1136 034a 2C44     		add	r4, r4, r5
 1137              	.LVL130:
 1138 034c A4B2     		uxth	r4, r4
ARM GAS  C:\Users\jo\AppData\Local\Temp\ccnOsBUt.s 			page 21


 1139              	.LBE128:
 1140              		.loc 1 522 0
 1141 034e A345     		cmp	fp, r4
 1142              	.LBB129:
 1143 0350 0490     		str	r0, [sp, #16]
 1144              	.LVL131:
 1145              	.LBE129:
 1146 0352 3FF60DAF 		bhi	.L114
 1147              	.LVL132:
 1148              	.L193:
 1149              		.loc 1 626 0
 1150 0356 0A9B     		ldr	r3, [sp, #40]
 1151 0358 DDF81080 		ldr	r8, [sp, #16]
 1152 035c 002B     		cmp	r3, #0
 1153 035e 80D1     		bne	.L99
 1154              	.LVL133:
 1155              	.L87:
 1156              		.loc 1 643 0
 1157 0360 BDF83630 		ldrh	r3, [sp, #54]
 1158 0364 A7F86A30 		strh	r3, [r7, #106]	@ movhi
 1159              		.loc 1 649 0
 1160 0368 0B9B     		ldr	r3, [sp, #44]
 1161 036a 002B     		cmp	r3, #0
 1162 036c 00F00481 		beq	.L91
 1163              	.L105:
 1164              		.loc 1 650 0
 1165 0370 099B     		ldr	r3, [sp, #36]
 1166 0372 002B     		cmp	r3, #0
 1167 0374 00F01281 		beq	.L200
 1168              	.L92:
 1169              		.loc 1 652 0
 1170 0378 099C     		ldr	r4, [sp, #36]
 1171 037a 0B9D     		ldr	r5, [sp, #44]
 1172 037c 6068     		ldr	r0, [r4, #4]
 1173 037e 2946     		mov	r1, r5
 1174 0380 FFF7FEFF 		bl	pbuf_cat
 1175              	.LVL134:
 1176              		.loc 1 653 0
 1177 0384 2A89     		ldrh	r2, [r5, #8]
 1178 0386 2389     		ldrh	r3, [r4, #8]
 1179 0388 1344     		add	r3, r3, r2
 1180 038a 2381     		strh	r3, [r4, #8]	@ movhi
 1181              	.L93:
 1182              		.loc 1 670 0
 1183 038c 099B     		ldr	r3, [sp, #36]
 1184 038e C3F80080 		str	r8, [r3]
 1185              	.L94:
 1186              		.loc 1 676 0
 1187 0392 FA6D     		ldr	r2, [r7, #92]
 1188              		.loc 1 677 0
 1189 0394 B7F86630 		ldrh	r3, [r7, #102]
 1190              		.loc 1 678 0
 1191 0398 A7F86860 		strh	r6, [r7, #104]	@ movhi
 1192              		.loc 1 676 0
 1193 039c 5A44     		add	r2, r2, fp
 1194              		.loc 1 677 0
 1195 039e CBEB030B 		rsb	fp, fp, r3
ARM GAS  C:\Users\jo\AppData\Local\Temp\ccnOsBUt.s 			page 22


 1196              	.LVL135:
 1197              		.loc 1 676 0
 1198 03a2 FA65     		str	r2, [r7, #92]
 1199              		.loc 1 677 0
 1200 03a4 A7F866B0 		strh	fp, [r7, #102]	@ movhi
 1201              		.loc 1 682 0
 1202 03a8 1EB1     		cbz	r6, .L95
 1203              		.loc 1 683 0
 1204 03aa 3B6F     		ldr	r3, [r7, #112]
 1205 03ac 002B     		cmp	r3, #0
 1206 03ae 00F0B180 		beq	.L201
 1207              	.L95:
 1208              		.loc 1 688 0
 1209 03b2 B9F1000F 		cmp	r9, #0
 1210 03b6 0AD0     		beq	.L117
 1211              		.loc 1 688 0 is_stmt 0 discriminator 1
 1212 03b8 D9F80C40 		ldr	r4, [r9, #12]
 1213 03bc 3CB1     		cbz	r4, .L117
 1214              		.loc 1 688 0 discriminator 2
 1215 03be 089B     		ldr	r3, [sp, #32]
 1216 03c0 03F00203 		and	r3, r3, #2
 1217 03c4 03F0FF09 		and	r9, r3, #255
 1218 03c8 002B     		cmp	r3, #0
 1219 03ca 00F0BF80 		beq	.L202
 1220              	.L117:
 1221              		.loc 1 692 0 is_stmt 1
 1222 03ce 0020     		movs	r0, #0
 1223 03d0 34E6     		b	.L52
 1224              	.LVL136:
 1225              	.L194:
 1226              	.LBB130:
 1227              		.loc 1 539 0 discriminator 1
 1228 03d2 2D4B     		ldr	r3, .L204
 1229 03d4 0093     		str	r3, [sp]
 1230 03d6 2D49     		ldr	r1, .L204+4
 1231 03d8 324A     		ldr	r2, .L204+28
 1232 03da 2E48     		ldr	r0, .L204+12
 1233              	.LVL137:
 1234 03dc 4FF40773 		mov	r3, #540
 1235 03e0 FFF7FEFF 		bl	chprintf.constprop.2
 1236              	.LVL138:
 1237              	.LBB113:
 1238              	.LBB114:
 1239              		.loc 3 414 0 discriminator 1
 1240 03e4 2F48     		ldr	r0, .L204+28
 1241 03e6 FFF7FEFF 		bl	chSysHalt
 1242              	.LVL139:
 1243 03ea E3E6     		b	.L78
 1244              	.LVL140:
 1245              	.L192:
 1246              	.LBE114:
 1247              	.LBE113:
 1248              		.loc 1 603 0 discriminator 1
 1249 03ec 264B     		ldr	r3, .L204
 1250 03ee 0093     		str	r3, [sp]
 1251 03f0 2649     		ldr	r1, .L204+4
 1252 03f2 2D4A     		ldr	r2, .L204+32
ARM GAS  C:\Users\jo\AppData\Local\Temp\ccnOsBUt.s 			page 23


 1253 03f4 2748     		ldr	r0, .L204+12
 1254              	.LVL141:
 1255 03f6 40F25B23 		movw	r3, #603
 1256 03fa FFF7FEFF 		bl	chprintf.constprop.2
 1257              	.LVL142:
 1258              	.LBB115:
 1259              	.LBB116:
 1260              		.loc 3 414 0 discriminator 1
 1261 03fe 2A48     		ldr	r0, .L204+32
 1262 0400 FFF7FEFF 		bl	chSysHalt
 1263              	.LVL143:
 1264 0404 ADE6     		b	.L85
 1265              	.LVL144:
 1266              	.L174:
 1267 0406 DDF81080 		ldr	r8, [sp, #16]
 1268              	.L82:
 1269              	.LVL145:
 1270              	.LBE116:
 1271              	.LBE115:
 1272              	.LBE130:
 1273              		.loc 1 694 0
 1274 040a BB7F     		ldrb	r3, [r7, #30]	@ zero_extendqisi2
 1275              		.loc 1 695 0
 1276 040c 274A     		ldr	r2, .L204+36
 1277              		.loc 1 694 0
 1278 040e 63F07F03 		orn	r3, r3, #127
 1279 0412 BB77     		strb	r3, [r7, #30]
 1280              		.loc 1 695 0
 1281 0414 B2F89C30 		ldrh	r3, [r2, #156]
 1282 0418 0133     		adds	r3, r3, #1
 1283 041a A2F89C30 		strh	r3, [r2, #156]	@ movhi
 1284              		.loc 1 697 0
 1285 041e 0B9B     		ldr	r3, [sp, #44]
 1286 0420 13B1     		cbz	r3, .L96
 1287              		.loc 1 698 0
 1288 0422 1846     		mov	r0, r3
 1289 0424 FFF7FEFF 		bl	pbuf_free
 1290              	.LVL146:
 1291              	.L96:
 1292              		.loc 1 700 0
 1293 0428 B8F1000F 		cmp	r8, #0
 1294 042c 02D0     		beq	.L97
 1295              		.loc 1 701 0
 1296 042e 4046     		mov	r0, r8
 1297 0430 FFF7FEFF 		bl	tcp_segs_free
 1298              	.LVL147:
 1299              	.L97:
 1300              		.loc 1 703 0
 1301 0434 B7F86830 		ldrh	r3, [r7, #104]
 1302 0438 2BB1     		cbz	r3, .L180
 1303              		.loc 1 704 0
 1304 043a 3B6F     		ldr	r3, [r7, #112]
 1305 043c 1BB9     		cbnz	r3, .L180
 1306              		.loc 1 704 0 is_stmt 0 discriminator 1
 1307 043e FB6E     		ldr	r3, [r7, #108]
 1308 0440 002B     		cmp	r3, #0
 1309 0442 00F08B80 		beq	.L203
ARM GAS  C:\Users\jo\AppData\Local\Temp\ccnOsBUt.s 			page 24


 1310              	.L180:
 1311              	.LBB131:
 1312              	.LBB97:
 1313              		.loc 1 325 0 is_stmt 1
 1314 0446 FF20     		movs	r0, #255
 1315 0448 40B2     		sxtb	r0, r0
 1316              	.LBE97:
 1317              	.LBE131:
 1318              		.loc 1 709 0
 1319 044a 0FB0     		add	sp, sp, #60
 1320              		.cfi_remember_state
 1321              		.cfi_def_cfa_offset 36
 1322              		@ sp needed
 1323 044c BDE8F08F 		pop	{r4, r5, r6, r7, r8, r9, r10, fp, pc}
 1324              	.LVL148:
 1325              	.L190:
 1326              		.cfi_restore_state
 1327 0450 4346     		mov	r3, r8
 1328              	.LBB132:
 1329              	.LBB117:
 1330              		.loc 1 567 0
 1331 0452 1846     		mov	r0, r3
 1332              	.LVL149:
 1333 0454 DDF81080 		ldr	r8, [sp, #16]
 1334              	.LVL150:
 1335 0458 FFF7FEFF 		bl	pbuf_free
 1336              	.LVL151:
 1337              		.loc 1 569 0
 1338 045c D5E7     		b	.L82
 1339              	.LVL152:
 1340              	.L186:
 1341              	.LBE117:
 1342              	.LBE132:
 1343              	.LBB133:
 1344              	.LBB98:
 1345              		.loc 1 328 0
 1346 045e FB6E     		ldr	r3, [r7, #108]
 1347 0460 0993     		str	r3, [sp, #36]
 1348 0462 002B     		cmp	r3, #0
 1349 0464 7FF408AE 		bne	.L177
 1350 0468 074B     		ldr	r3, .L204
 1351 046a 0093     		str	r3, [sp]
 1352 046c 0749     		ldr	r1, .L204+4
 1353              	.LVL153:
 1354 046e 104A     		ldr	r2, .L204+40
 1355              	.LVL154:
 1356 0470 0848     		ldr	r0, .L204+12
 1357 0472 40F24913 		movw	r3, #329
 1358 0476 FFF7FEFF 		bl	chprintf.constprop.2
 1359              	.LVL155:
 1360              	.LBB92:
 1361              	.LBB93:
 1362              		.loc 3 414 0
 1363 047a 0D48     		ldr	r0, .L204+40
 1364 047c FFF7FEFF 		bl	chSysHalt
 1365              	.LVL156:
 1366 0480 B7F86860 		ldrh	r6, [r7, #104]
ARM GAS  C:\Users\jo\AppData\Local\Temp\ccnOsBUt.s 			page 25


 1367 0484 F3E5     		b	.L59
 1368              	.L205:
 1369 0486 00BF     		.align	2
 1370              	.L204:
 1371 0488 58000000 		.word	.LC2
 1372 048c 00000000 		.word	.LC0
 1373 0490 0C010000 		.word	.LC6
 1374 0494 00000000 		.word	itm_port
 1375 0498 40010000 		.word	.LC7
 1376 049c 60010000 		.word	.LC8
 1377 04a0 D0010000 		.word	.LC10
 1378 04a4 90010000 		.word	.LC9
 1379 04a8 E0010000 		.word	.LC11
 1380 04ac 00000000 		.word	lwip_stats
 1381 04b0 D0000000 		.word	.LC5
 1382              	.LVL157:
 1383              	.L198:
 1384              	.LBE93:
 1385              	.LBE92:
 1386              	.LBE98:
 1387              	.LBE133:
 1388              	.LBB134:
 1389              		.loc 1 632 0
 1390 04b4 6389     		ldrh	r3, [r4, #10]
 1391 04b6 6068     		ldr	r0, [r4, #4]
 1392 04b8 0699     		ldr	r1, [sp, #24]
 1393 04ba 1844     		add	r0, r0, r3
 1394 04bc 2A46     		mov	r2, r5
 1395 04be FFF7FEFF 		bl	memcpy
 1396              	.LVL158:
 1397              		.loc 1 633 0
 1398 04c2 6389     		ldrh	r3, [r4, #10]
 1399              		.loc 1 629 0
 1400 04c4 2268     		ldr	r2, [r4]
 1401              	.LVL159:
 1402              		.loc 1 633 0
 1403 04c6 2B44     		add	r3, r3, r5
 1404 04c8 6381     		strh	r3, [r4, #10]	@ movhi
 1405              		.loc 1 629 0
 1406 04ca 002A     		cmp	r2, #0
 1407 04cc 7FF4D6AE 		bne	.L90
 1408              	.LVL160:
 1409              	.L88:
 1410              		.loc 1 636 0
 1411 04d0 099A     		ldr	r2, [sp, #36]
 1412 04d2 0A99     		ldr	r1, [sp, #40]
 1413 04d4 1389     		ldrh	r3, [r2, #8]
 1414 04d6 1944     		add	r1, r1, r3
 1415 04d8 1181     		strh	r1, [r2, #8]	@ movhi
 1416 04da 41E7     		b	.L87
 1417              	.LVL161:
 1418              	.L197:
 1419              	.LBE134:
 1420              		.loc 1 643 0
 1421 04dc BDF83630 		ldrh	r3, [sp, #54]
 1422 04e0 A7F86A30 		strh	r3, [r7, #106]	@ movhi
 1423 04e4 52E7     		b	.L93
ARM GAS  C:\Users\jo\AppData\Local\Temp\ccnOsBUt.s 			page 26


 1424              	.LVL162:
 1425              	.L199:
 1426              	.LBB135:
 1427              	.LBB106:
 1428              		.loc 1 476 0
 1429 04e6 089A     		ldr	r2, [sp, #32]
 1430 04e8 0192     		str	r2, [sp, #4]
 1431 04ea 0123     		movs	r3, #1
 1432 04ec 0293     		str	r3, [sp, #8]
 1433 04ee 0097     		str	r7, [sp]
 1434 04f0 2246     		mov	r2, r4
 1435 04f2 0320     		movs	r0, #3
 1436 04f4 2946     		mov	r1, r5
 1437 04f6 0DF13603 		add	r3, sp, #54
 1438 04fa FFF7FEFF 		bl	tcp_pbuf_prealloc
 1439              	.LVL163:
 1440 04fe 0B90     		str	r0, [sp, #44]
 1441 0500 0028     		cmp	r0, #0
 1442 0502 40D0     		beq	.L71
 1443              		.loc 1 485 0
 1444 0504 0A9A     		ldr	r2, [sp, #40]
 1445 0506 069B     		ldr	r3, [sp, #24]
 1446 0508 4068     		ldr	r0, [r0, #4]
 1447              	.LVL164:
 1448 050a 9918     		adds	r1, r3, r2
 1449 050c 2A46     		mov	r2, r5
 1450 050e FFF7FEFF 		bl	memcpy
 1451              	.LVL165:
 1452 0512 E3E6     		b	.L72
 1453              	.LVL166:
 1454              	.L201:
 1455              	.LBE106:
 1456              	.LBE135:
 1457              		.loc 1 683 0 discriminator 1
 1458 0514 FB6E     		ldr	r3, [r7, #108]
 1459 0516 002B     		cmp	r3, #0
 1460 0518 7FF44BAF 		bne	.L95
 1461              		.loc 1 683 0 is_stmt 0 discriminator 2
 1462 051c 324B     		ldr	r3, .L206
 1463 051e 0093     		str	r3, [sp]
 1464 0520 3249     		ldr	r1, .L206+4
 1465 0522 334A     		ldr	r2, .L206+8
 1466 0524 3348     		ldr	r0, .L206+12
 1467 0526 4FF42B73 		mov	r3, #684
 1468 052a FFF7FEFF 		bl	chprintf.constprop.2
 1469              	.LVL167:
 1470              	.LBB136:
 1471              	.LBB137:
 1472              		.loc 3 414 0 is_stmt 1 discriminator 2
 1473 052e 3048     		ldr	r0, .L206+8
 1474 0530 FFF7FEFF 		bl	chSysHalt
 1475              	.LVL168:
 1476 0534 3DE7     		b	.L95
 1477              	.LVL169:
 1478              	.L185:
 1479              	.LBE137:
 1480              	.LBE136:
ARM GAS  C:\Users\jo\AppData\Local\Temp\ccnOsBUt.s 			page 27


 1481              	.LBB138:
 1482              	.LBB99:
 1483              		.loc 1 323 0
 1484 0536 304A     		ldr	r2, .L206+16
 1485              	.LVL170:
 1486 0538 B2F89C30 		ldrh	r3, [r2, #156]
 1487 053c 0133     		adds	r3, r3, #1
 1488 053e A2F89C30 		strh	r3, [r2, #156]	@ movhi
 1489              	.L179:
 1490              		.loc 1 324 0
 1491 0542 BB7F     		ldrb	r3, [r7, #30]	@ zero_extendqisi2
 1492 0544 63F07F03 		orn	r3, r3, #127
 1493 0548 BB77     		strb	r3, [r7, #30]
 1494 054a 7CE7     		b	.L180
 1495              	.LVL171:
 1496              	.L202:
 1497              	.LBE99:
 1498              	.LBE138:
 1499              		.loc 1 689 0
 1500 054c 0820     		movs	r0, #8
 1501 054e A589     		ldrh	r5, [r4, #12]	@ unaligned
 1502 0550 FFF7FEFF 		bl	lwip_htons
 1503              	.LVL172:
 1504 0554 2843     		orrs	r0, r0, r5
 1505 0556 A081     		strh	r0, [r4, #12]	@ unaligned
 1506              		.loc 1 692 0
 1507 0558 4846     		mov	r0, r9
 1508 055a 6FE5     		b	.L52
 1509              	.LVL173:
 1510              	.L203:
 1511              		.loc 1 704 0 discriminator 2
 1512 055c 224B     		ldr	r3, .L206
 1513 055e 0093     		str	r3, [sp]
 1514 0560 2249     		ldr	r1, .L206+4
 1515 0562 234A     		ldr	r2, .L206+8
 1516 0564 2348     		ldr	r0, .L206+12
 1517 0566 40F2C123 		movw	r3, #705
 1518 056a FFF7FEFF 		bl	chprintf.constprop.2
 1519              	.LVL174:
 1520              	.LBB139:
 1521              	.LBB140:
 1522              		.loc 3 414 0 discriminator 2
 1523 056e 2048     		ldr	r0, .L206+8
 1524 0570 FFF7FEFF 		bl	chSysHalt
 1525              	.LVL175:
 1526              	.LBE140:
 1527              	.LBE139:
 1528              		.loc 1 708 0 discriminator 2
 1529 0574 FF20     		movs	r0, #255
 1530 0576 61E5     		b	.L52
 1531              	.LVL176:
 1532              	.L91:
 1533              		.loc 1 667 0
 1534 0578 099B     		ldr	r3, [sp, #36]
 1535 057a 002B     		cmp	r3, #0
 1536 057c 7FF406AF 		bne	.L93
 1537              	.L104:
ARM GAS  C:\Users\jo\AppData\Local\Temp\ccnOsBUt.s 			page 28


 1538              		.loc 1 668 0
 1539 0580 C7F86C80 		str	r8, [r7, #108]
 1540 0584 05E7     		b	.L94
 1541              	.LVL177:
 1542              	.L71:
 1543              		.loc 1 694 0
 1544 0586 BB7F     		ldrb	r3, [r7, #30]	@ zero_extendqisi2
 1545              		.loc 1 695 0
 1546 0588 1B4A     		ldr	r2, .L206+16
 1547              		.loc 1 694 0
 1548 058a 63F07F03 		orn	r3, r3, #127
 1549 058e BB77     		strb	r3, [r7, #30]
 1550              		.loc 1 695 0
 1551 0590 B2F89C30 		ldrh	r3, [r2, #156]
 1552 0594 0133     		adds	r3, r3, #1
 1553 0596 A2F89C30 		strh	r3, [r2, #156]	@ movhi
 1554 059a 4BE7     		b	.L97
 1555              	.LVL178:
 1556              	.L200:
 1557              		.loc 1 650 0 discriminator 1
 1558 059c 124B     		ldr	r3, .L206
 1559 059e 0093     		str	r3, [sp]
 1560 05a0 1249     		ldr	r1, .L206+4
 1561 05a2 164A     		ldr	r2, .L206+20
 1562 05a4 1348     		ldr	r0, .L206+12
 1563 05a6 40F28B23 		movw	r3, #651
 1564 05aa FFF7FEFF 		bl	chprintf.constprop.2
 1565              	.LVL179:
 1566              	.LBB141:
 1567              	.LBB142:
 1568              		.loc 3 414 0 discriminator 1
 1569 05ae 1348     		ldr	r0, .L206+20
 1570 05b0 FFF7FEFF 		bl	chSysHalt
 1571              	.LVL180:
 1572 05b4 E0E6     		b	.L92
 1573              	.LVL181:
 1574              	.L184:
 1575              	.LBE142:
 1576              	.LBE141:
 1577              		.loc 1 382 0 discriminator 1
 1578 05b6 0C4B     		ldr	r3, .L206
 1579 05b8 0093     		str	r3, [sp]
 1580 05ba 0C49     		ldr	r1, .L206+4
 1581              	.LVL182:
 1582 05bc 104A     		ldr	r2, .L206+24
 1583              	.LVL183:
 1584 05be 0D48     		ldr	r0, .L206+12
 1585 05c0 40F27F13 		movw	r3, #383
 1586 05c4 FFF7FEFF 		bl	chprintf.constprop.2
 1587              	.LVL184:
 1588              	.LBB143:
 1589              	.LBB144:
 1590              		.loc 3 414 0 discriminator 1
 1591 05c8 0D48     		ldr	r0, .L206+24
 1592 05ca FFF7FEFF 		bl	chSysHalt
 1593              	.LVL185:
 1594              	.LBE144:
ARM GAS  C:\Users\jo\AppData\Local\Temp\ccnOsBUt.s 			page 29


 1595              	.LBE143:
 1596              		.loc 1 382 0 discriminator 1
 1597 05ce F220     		movs	r0, #242
 1598 05d0 34E5     		b	.L52
 1599              	.LVL186:
 1600              	.L111:
 1601              	.LBB145:
 1602 05d2 DDF82490 		ldr	r9, [sp, #36]
 1603 05d6 73E5     		b	.L67
 1604              	.LVL187:
 1605              	.L101:
 1606              	.LBE145:
 1607              		.loc 1 643 0
 1608 05d8 BDF83630 		ldrh	r3, [sp, #54]
 1609 05dc A7F86A30 		strh	r3, [r7, #106]	@ movhi
 1610 05e0 D946     		mov	r9, fp
 1611 05e2 D846     		mov	r8, fp
 1612 05e4 CCE7     		b	.L104
 1613              	.L207:
 1614 05e6 00BF     		.align	2
 1615              	.L206:
 1616 05e8 58000000 		.word	.LC2
 1617 05ec 00000000 		.word	.LC0
 1618 05f0 2C020000 		.word	.LC13
 1619 05f4 00000000 		.word	itm_port
 1620 05f8 00000000 		.word	lwip_stats
 1621 05fc F4010000 		.word	.LC12
 1622 0600 9C000000 		.word	.LC4
 1623              		.cfi_endproc
 1624              	.LFE261:
 1625              		.size	tcp_write, .-tcp_write
 1626 0604 AFF30080 		.section	.text.tcp_enqueue_flags,"ax",%progbits
 1626      AFF30080 
 1626      AFF30080 
 1627              		.align	2
 1628              		.p2align 4,,15
 1629              		.global	tcp_enqueue_flags
 1630              		.thumb
 1631              		.thumb_func
 1632              		.type	tcp_enqueue_flags, %function
 1633              	tcp_enqueue_flags:
 1634              	.LFB262:
 1635              		.loc 1 723 0
 1636              		.cfi_startproc
 1637              		@ args = 0, pretend = 0, frame = 0
 1638              		@ frame_needed = 0, uses_anonymous_args = 0
 1639              	.LVL188:
 1640 0000 2DE9F043 		push	{r4, r5, r6, r7, r8, r9, lr}
 1641              		.cfi_def_cfa_offset 28
 1642              		.cfi_offset 4, -28
 1643              		.cfi_offset 5, -24
 1644              		.cfi_offset 6, -20
 1645              		.cfi_offset 7, -16
 1646              		.cfi_offset 8, -12
 1647              		.cfi_offset 9, -8
 1648              		.cfi_offset 14, -4
 1649              		.loc 1 731 0
ARM GAS  C:\Users\jo\AppData\Local\Temp\ccnOsBUt.s 			page 30


 1650 0004 11F00307 		ands	r7, r1, #3
 1651              		.loc 1 723 0
 1652 0008 83B0     		sub	sp, sp, #12
 1653              		.cfi_def_cfa_offset 40
 1654              		.loc 1 723 0
 1655 000a 0E46     		mov	r6, r1
 1656 000c 0446     		mov	r4, r0
 1657              		.loc 1 731 0
 1658 000e 63D0     		beq	.L243
 1659              	.LVL189:
 1660              	.L209:
 1661              		.loc 1 735 0
 1662 0010 B4F86830 		ldrh	r3, [r4, #104]
 1663 0014 072B     		cmp	r3, #7
 1664 0016 00F2B080 		bhi	.L244
 1665              		.loc 1 743 0
 1666 001a 06F00203 		and	r3, r6, #2
 1667              		.loc 1 757 0
 1668 001e B4F86620 		ldrh	r2, [r4, #102]
 1669              		.loc 1 726 0
 1670 0022 002B     		cmp	r3, #0
 1671              		.loc 1 743 0
 1672 0024 03F0FF01 		and	r1, r3, #255
 1673              		.loc 1 726 0
 1674 0028 0EBF     		itee	eq
 1675 002a 8946     		moveq	r9, r1
 1676 002c 4FF00109 		movne	r9, #1
 1677 0030 0421     		movne	r1, #4
 1678              	.LVL190:
 1679              		.loc 1 757 0
 1680 0032 002A     		cmp	r2, #0
 1681 0034 00F09980 		beq	.L245
 1682              		.loc 1 764 0
 1683 0038 0020     		movs	r0, #0
 1684 003a 8DB2     		uxth	r5, r1
 1685 003c 2946     		mov	r1, r5
 1686              	.LVL191:
 1687 003e 0246     		mov	r2, r0
 1688 0040 FFF7FEFF 		bl	pbuf_alloc
 1689              	.LVL192:
 1690 0044 8046     		mov	r8, r0
 1691 0046 0028     		cmp	r0, #0
 1692 0048 00F0A380 		beq	.L242
 1693              		.loc 1 769 0
 1694 004c 4389     		ldrh	r3, [r0, #10]
 1695 004e AB42     		cmp	r3, r5
 1696 0050 4FD3     		bcc	.L246
 1697              	.LVL193:
 1698              	.L215:
 1699              		.loc 1 773 0
 1700 0052 E36D     		ldr	r3, [r4, #92]
 1701 0054 0093     		str	r3, [sp]
 1702 0056 CDF80490 		str	r9, [sp, #4]
 1703 005a 4246     		mov	r2, r8
 1704 005c 04F11A00 		add	r0, r4, #26
 1705 0060 04F11C01 		add	r1, r4, #28
 1706 0064 3346     		mov	r3, r6
ARM GAS  C:\Users\jo\AppData\Local\Temp\ccnOsBUt.s 			page 31


 1707 0066 FFF7FEFF 		bl	tcp_create_segment.isra.0
 1708              	.LVL194:
 1709 006a 0546     		mov	r5, r0
 1710 006c 0028     		cmp	r0, #0
 1711 006e 00F09080 		beq	.L242
 1712              		.loc 1 778 0
 1713 0072 C368     		ldr	r3, [r0, #12]
 1714 0074 9A07     		lsls	r2, r3, #30
 1715 0076 5AD1     		bne	.L247
 1716              	.LVL195:
 1717              	.L217:
 1718              		.loc 1 779 0
 1719 0078 2B89     		ldrh	r3, [r5, #8]
 1720 007a 002B     		cmp	r3, #0
 1721 007c 46D1     		bne	.L248
 1722              		.loc 1 788 0
 1723 007e E26E     		ldr	r2, [r4, #108]
 1724 0080 0AB9     		cbnz	r2, .L221
 1725 0082 52E0     		b	.L249
 1726              	.LVL196:
 1727              	.L225:
 1728              	.LBB146:
 1729 0084 1A46     		mov	r2, r3
 1730              	.LVL197:
 1731              	.L221:
 1732              		.loc 1 792 0 discriminator 1
 1733 0086 1368     		ldr	r3, [r2]
 1734 0088 002B     		cmp	r3, #0
 1735 008a FBD1     		bne	.L225
 1736              		.loc 1 793 0
 1737 008c 1560     		str	r5, [r2]
 1738              	.LVL198:
 1739              	.L220:
 1740              	.LBE146:
 1741              		.loc 1 797 0
 1742 008e 0023     		movs	r3, #0
 1743 0090 A4F86A30 		strh	r3, [r4, #106]	@ movhi
 1744              		.loc 1 801 0
 1745 0094 3FB1     		cbz	r7, .L222
 1746              		.loc 1 802 0
 1747 0096 E26D     		ldr	r2, [r4, #92]
 1748              		.loc 1 804 0
 1749 0098 B4F86630 		ldrh	r3, [r4, #102]
 1750              		.loc 1 802 0
 1751 009c 0132     		adds	r2, r2, #1
 1752              		.loc 1 804 0
 1753 009e 013B     		subs	r3, r3, #1
 1754              		.loc 1 802 0
 1755 00a0 E265     		str	r2, [r4, #92]
 1756              		.loc 1 804 0
 1757 00a2 A4F86630 		strh	r3, [r4, #102]	@ movhi
 1758              	.L222:
 1759              		.loc 1 806 0
 1760 00a6 F307     		lsls	r3, r6, #31
 1761 00a8 11D4     		bmi	.L250
 1762              	.L223:
 1763              		.loc 1 811 0
ARM GAS  C:\Users\jo\AppData\Local\Temp\ccnOsBUt.s 			page 32


 1764 00aa 6868     		ldr	r0, [r5, #4]
 1765 00ac FFF7FEFF 		bl	pbuf_clen
 1766              	.LVL199:
 1767 00b0 B4F86830 		ldrh	r3, [r4, #104]
 1768 00b4 1844     		add	r0, r0, r3
 1769 00b6 80B2     		uxth	r0, r0
 1770 00b8 A4F86800 		strh	r0, [r4, #104]	@ movhi
 1771              		.loc 1 813 0
 1772 00bc 18B1     		cbz	r0, .L211
 1773              		.loc 1 814 0
 1774 00be 206F     		ldr	r0, [r4, #112]
 1775 00c0 0028     		cmp	r0, #0
 1776 00c2 41D0     		beq	.L251
 1777              		.loc 1 818 0
 1778 00c4 0020     		movs	r0, #0
 1779              	.LVL200:
 1780              	.L211:
 1781              		.loc 1 819 0
 1782 00c6 40B2     		sxtb	r0, r0
 1783 00c8 03B0     		add	sp, sp, #12
 1784              		.cfi_remember_state
 1785              		.cfi_def_cfa_offset 28
 1786              		@ sp needed
 1787 00ca BDE8F083 		pop	{r4, r5, r6, r7, r8, r9, pc}
 1788              	.LVL201:
 1789              	.L250:
 1790              		.cfi_restore_state
 1791              		.loc 1 807 0
 1792 00ce A37F     		ldrb	r3, [r4, #30]	@ zero_extendqisi2
 1793 00d0 43F02003 		orr	r3, r3, #32
 1794 00d4 A377     		strb	r3, [r4, #30]
 1795 00d6 E8E7     		b	.L223
 1796              	.LVL202:
 1797              	.L243:
 1798              		.loc 1 731 0 discriminator 1
 1799 00d8 344B     		ldr	r3, .L252
 1800 00da 0093     		str	r3, [sp]
 1801 00dc 3449     		ldr	r1, .L252+4
 1802              	.LVL203:
 1803 00de 354A     		ldr	r2, .L252+8
 1804 00e0 3548     		ldr	r0, .L252+12
 1805              	.LVL204:
 1806 00e2 4FF43773 		mov	r3, #732
 1807 00e6 FFF7FEFF 		bl	chprintf.constprop.2
 1808              	.LVL205:
 1809              	.LBB147:
 1810              	.LBB148:
 1811              		.loc 3 414 0 discriminator 1
 1812 00ea 3248     		ldr	r0, .L252+8
 1813 00ec FFF7FEFF 		bl	chSysHalt
 1814              	.LVL206:
 1815 00f0 8EE7     		b	.L209
 1816              	.LVL207:
 1817              	.L246:
 1818              	.LBE148:
 1819              	.LBE147:
 1820              		.loc 1 769 0 discriminator 1
ARM GAS  C:\Users\jo\AppData\Local\Temp\ccnOsBUt.s 			page 33


 1821 00f2 2E4B     		ldr	r3, .L252
 1822 00f4 0093     		str	r3, [sp]
 1823 00f6 2E49     		ldr	r1, .L252+4
 1824 00f8 304A     		ldr	r2, .L252+16
 1825 00fa 2F48     		ldr	r0, .L252+12
 1826              	.LVL208:
 1827 00fc 40F20233 		movw	r3, #770
 1828 0100 FFF7FEFF 		bl	chprintf.constprop.2
 1829              	.LVL209:
 1830              	.LBB149:
 1831              	.LBB150:
 1832              		.loc 3 414 0 discriminator 1
 1833 0104 2D48     		ldr	r0, .L252+16
 1834 0106 FFF7FEFF 		bl	chSysHalt
 1835              	.LVL210:
 1836 010a A2E7     		b	.L215
 1837              	.LVL211:
 1838              	.L248:
 1839              	.LBE150:
 1840              	.LBE149:
 1841              		.loc 1 779 0 discriminator 1
 1842 010c 274B     		ldr	r3, .L252
 1843 010e 2C4A     		ldr	r2, .L252+20
 1844 0110 0093     		str	r3, [sp]
 1845 0112 2749     		ldr	r1, .L252+4
 1846 0114 2848     		ldr	r0, .L252+12
 1847 0116 40F20B33 		movw	r3, #779
 1848 011a FFF7FEFF 		bl	chprintf.constprop.2
 1849              	.LVL212:
 1850              	.LBB151:
 1851              	.LBB152:
 1852              		.loc 3 414 0 discriminator 1
 1853 011e 2848     		ldr	r0, .L252+20
 1854 0120 FFF7FEFF 		bl	chSysHalt
 1855              	.LVL213:
 1856              	.LBE152:
 1857              	.LBE151:
 1858              		.loc 1 788 0 discriminator 1
 1859 0124 E26E     		ldr	r2, [r4, #108]
 1860 0126 002A     		cmp	r2, #0
 1861 0128 ADD1     		bne	.L221
 1862              	.LVL214:
 1863              	.L249:
 1864              		.loc 1 789 0
 1865 012a E566     		str	r5, [r4, #108]
 1866 012c AFE7     		b	.L220
 1867              	.LVL215:
 1868              	.L247:
 1869              		.loc 1 778 0 discriminator 1
 1870 012e 1F4B     		ldr	r3, .L252
 1871 0130 0093     		str	r3, [sp]
 1872 0132 1F49     		ldr	r1, .L252+4
 1873 0134 234A     		ldr	r2, .L252+24
 1874 0136 2048     		ldr	r0, .L252+12
 1875              	.LVL216:
 1876 0138 40F20A33 		movw	r3, #778
 1877 013c FFF7FEFF 		bl	chprintf.constprop.2
ARM GAS  C:\Users\jo\AppData\Local\Temp\ccnOsBUt.s 			page 34


 1878              	.LVL217:
 1879              	.LBB153:
 1880              	.LBB154:
 1881              		.loc 3 414 0 discriminator 1
 1882 0140 2048     		ldr	r0, .L252+24
 1883 0142 FFF7FEFF 		bl	chSysHalt
 1884              	.LVL218:
 1885 0146 97E7     		b	.L217
 1886              	.LVL219:
 1887              	.L251:
 1888              	.LBE154:
 1889              	.LBE153:
 1890              		.loc 1 814 0 discriminator 1
 1891 0148 E46E     		ldr	r4, [r4, #108]
 1892              	.LVL220:
 1893 014a 002C     		cmp	r4, #0
 1894 014c BBD1     		bne	.L211
 1895              		.loc 1 814 0 is_stmt 0 discriminator 2
 1896 014e 174B     		ldr	r3, .L252
 1897 0150 0093     		str	r3, [sp]
 1898 0152 1749     		ldr	r1, .L252+4
 1899 0154 1C4A     		ldr	r2, .L252+28
 1900 0156 1848     		ldr	r0, .L252+12
 1901 0158 40F22F33 		movw	r3, #815
 1902 015c FFF7FEFF 		bl	chprintf.constprop.2
 1903              	.LVL221:
 1904              	.LBB155:
 1905              	.LBB156:
 1906              		.loc 3 414 0 is_stmt 1 discriminator 2
 1907 0160 1948     		ldr	r0, .L252+28
 1908 0162 FFF7FEFF 		bl	chSysHalt
 1909              	.LVL222:
 1910              	.LBE156:
 1911              	.LBE155:
 1912              		.loc 1 818 0 discriminator 2
 1913 0166 2046     		mov	r0, r4
 1914 0168 ADE7     		b	.L211
 1915              	.LVL223:
 1916              	.L245:
 1917              		.loc 1 759 0
 1918 016a 184A     		ldr	r2, .L252+32
 1919 016c B2F89C30 		ldrh	r3, [r2, #156]
 1920 0170 0133     		adds	r3, r3, #1
 1921 0172 A2F89C30 		strh	r3, [r2, #156]	@ movhi
 1922              		.loc 1 760 0
 1923 0176 FF20     		movs	r0, #255
 1924 0178 A5E7     		b	.L211
 1925              	.LVL224:
 1926              	.L244:
 1927              		.loc 1 738 0
 1928 017a 144A     		ldr	r2, .L252+32
 1929 017c B2F89C30 		ldrh	r3, [r2, #156]
 1930 0180 0133     		adds	r3, r3, #1
 1931 0182 A2F89C30 		strh	r3, [r2, #156]	@ movhi
 1932              		.loc 1 739 0
 1933 0186 A37F     		ldrb	r3, [r4, #30]	@ zero_extendqisi2
 1934 0188 63F07F03 		orn	r3, r3, #127
ARM GAS  C:\Users\jo\AppData\Local\Temp\ccnOsBUt.s 			page 35


 1935 018c A377     		strb	r3, [r4, #30]
 1936              		.loc 1 740 0
 1937 018e FF20     		movs	r0, #255
 1938 0190 99E7     		b	.L211
 1939              	.LVL225:
 1940              	.L242:
 1941              		.loc 1 774 0
 1942 0192 A37F     		ldrb	r3, [r4, #30]	@ zero_extendqisi2
 1943              		.loc 1 775 0
 1944 0194 0D4A     		ldr	r2, .L252+32
 1945              		.loc 1 774 0
 1946 0196 63F07F03 		orn	r3, r3, #127
 1947 019a A377     		strb	r3, [r4, #30]
 1948              		.loc 1 775 0
 1949 019c B2F89C30 		ldrh	r3, [r2, #156]
 1950 01a0 0133     		adds	r3, r3, #1
 1951 01a2 A2F89C30 		strh	r3, [r2, #156]	@ movhi
 1952              		.loc 1 776 0
 1953 01a6 FF20     		movs	r0, #255
 1954 01a8 8DE7     		b	.L211
 1955              	.L253:
 1956 01aa 00BF     		.align	2
 1957              	.L252:
 1958 01ac 58000000 		.word	.LC2
 1959 01b0 00000000 		.word	.LC0
 1960 01b4 4C020000 		.word	.LC14
 1961 01b8 00000000 		.word	itm_port
 1962 01bc A4020000 		.word	.LC15
 1963 01c0 F8020000 		.word	.LC17
 1964 01c4 E0020000 		.word	.LC16
 1965 01c8 24030000 		.word	.LC18
 1966 01cc 00000000 		.word	lwip_stats
 1967              		.cfi_endproc
 1968              	.LFE262:
 1969              		.size	tcp_enqueue_flags, .-tcp_enqueue_flags
 1970              		.section	.text.tcp_send_fin,"ax",%progbits
 1971              		.align	2
 1972              		.p2align 4,,15
 1973              		.global	tcp_send_fin
 1974              		.thumb
 1975              		.thumb_func
 1976              		.type	tcp_send_fin, %function
 1977              	tcp_send_fin:
 1978              	.LFB257:
 1979              		.loc 1 126 0
 1980              		.cfi_startproc
 1981              		@ args = 0, pretend = 0, frame = 0
 1982              		@ frame_needed = 0, uses_anonymous_args = 0
 1983              	.LVL226:
 1984 0000 F8B5     		push	{r3, r4, r5, r6, r7, lr}
 1985              		.cfi_def_cfa_offset 24
 1986              		.cfi_offset 3, -24
 1987              		.cfi_offset 4, -20
 1988              		.cfi_offset 5, -16
 1989              		.cfi_offset 6, -12
 1990              		.cfi_offset 7, -8
 1991              		.cfi_offset 14, -4
ARM GAS  C:\Users\jo\AppData\Local\Temp\ccnOsBUt.s 			page 36


 1992              		.loc 1 128 0
 1993 0002 C46E     		ldr	r4, [r0, #108]
 1994              		.loc 1 126 0
 1995 0004 0546     		mov	r5, r0
 1996              		.loc 1 128 0
 1997 0006 0CB9     		cbnz	r4, .L256
 1998 0008 0AE0     		b	.L255
 1999              	.LVL227:
 2000              	.L258:
 2001              	.LBB157:
 2002 000a 1C46     		mov	r4, r3
 2003              	.LVL228:
 2004              	.L256:
 2005              		.loc 1 130 0 discriminator 1
 2006 000c 2368     		ldr	r3, [r4]
 2007 000e 002B     		cmp	r3, #0
 2008 0010 FBD1     		bne	.L258
 2009              		.loc 1 133 0
 2010 0012 E368     		ldr	r3, [r4, #12]
 2011 0014 9889     		ldrh	r0, [r3, #12]	@ unaligned
 2012              	.LVL229:
 2013 0016 FFF7FEFF 		bl	lwip_ntohs
 2014              	.LVL230:
 2015 001a 10F00706 		ands	r6, r0, #7
 2016 001e 05D0     		beq	.L263
 2017              	.LVL231:
 2018              	.L255:
 2019              	.LBE157:
 2020              		.loc 1 141 0
 2021 0020 2846     		mov	r0, r5
 2022 0022 0121     		movs	r1, #1
 2023              		.loc 1 142 0
 2024 0024 BDE8F840 		pop	{r3, r4, r5, r6, r7, lr}
 2025              		.cfi_remember_state
 2026              		.cfi_restore 14
 2027              		.cfi_restore 7
 2028              		.cfi_restore 6
 2029              		.cfi_restore 5
 2030              		.cfi_restore 4
 2031              		.cfi_restore 3
 2032              		.cfi_def_cfa_offset 0
 2033              	.LVL232:
 2034              		.loc 1 141 0
 2035 0028 FFF7FEBF 		b	tcp_enqueue_flags
 2036              	.LVL233:
 2037              	.L263:
 2038              		.cfi_restore_state
 2039              	.LBB158:
 2040              		.loc 1 135 0
 2041 002c E768     		ldr	r7, [r4, #12]
 2042 002e 0120     		movs	r0, #1
 2043 0030 BC89     		ldrh	r4, [r7, #12]	@ unaligned
 2044              	.LVL234:
 2045 0032 FFF7FEFF 		bl	lwip_htons
 2046              	.LVL235:
 2047 0036 2043     		orrs	r0, r0, r4
 2048 0038 B881     		strh	r0, [r7, #12]	@ unaligned
ARM GAS  C:\Users\jo\AppData\Local\Temp\ccnOsBUt.s 			page 37


 2049              		.loc 1 136 0
 2050 003a AB7F     		ldrb	r3, [r5, #30]	@ zero_extendqisi2
 2051 003c 43F02003 		orr	r3, r3, #32
 2052 0040 AB77     		strb	r3, [r5, #30]
 2053              	.LBE158:
 2054              		.loc 1 142 0
 2055 0042 3046     		mov	r0, r6
 2056 0044 F8BD     		pop	{r3, r4, r5, r6, r7, pc}
 2057              		.cfi_endproc
 2058              	.LFE257:
 2059              		.size	tcp_send_fin, .-tcp_send_fin
 2060 0046 00BFAFF3 		.section	.text.tcp_send_empty_ack,"ax",%progbits
 2060      0080AFF3 
 2060      0080
 2061              		.align	2
 2062              		.p2align 4,,15
 2063              		.global	tcp_send_empty_ack
 2064              		.thumb
 2065              		.thumb_func
 2066              		.type	tcp_send_empty_ack, %function
 2067              	tcp_send_empty_ack:
 2068              	.LFB263:
 2069              		.loc 1 843 0
 2070              		.cfi_startproc
 2071              		@ args = 0, pretend = 0, frame = 0
 2072              		@ frame_needed = 0, uses_anonymous_args = 0
 2073              	.LVL236:
 2074 0000 F0B5     		push	{r4, r5, r6, r7, lr}
 2075              		.cfi_def_cfa_offset 20
 2076              		.cfi_offset 4, -20
 2077              		.cfi_offset 5, -16
 2078              		.cfi_offset 6, -12
 2079              		.cfi_offset 7, -8
 2080              		.cfi_offset 14, -4
 2081 0002 0446     		mov	r4, r0
 2082 0004 83B0     		sub	sp, sp, #12
 2083              		.cfi_def_cfa_offset 32
 2084              		.loc 1 854 0
 2085 0006 006D     		ldr	r0, [r0, #80]
 2086              	.LVL237:
 2087 0008 FFF7FEFF 		bl	lwip_htonl
 2088              	.LVL238:
 2089 000c 0021     		movs	r1, #0
 2090 000e 0246     		mov	r2, r0
 2091 0010 2046     		mov	r0, r4
 2092 0012 FFF7FEFF 		bl	tcp_output_alloc_header.constprop.1
 2093              	.LVL239:
 2094              		.loc 1 855 0
 2095 0016 F8B1     		cbz	r0, .L267
 2096              		.loc 1 863 0
 2097 0018 A37F     		ldrb	r3, [r4, #30]	@ zero_extendqisi2
 2098              		.loc 1 859 0
 2099 001a 4768     		ldr	r7, [r0, #4]
 2100              	.LVL240:
 2101              		.loc 1 863 0
 2102 001c 23F00303 		bic	r3, r3, #3
 2103 0020 A377     		strb	r3, [r4, #30]
ARM GAS  C:\Users\jo\AppData\Local\Temp\ccnOsBUt.s 			page 38


 2104              		.loc 1 875 0
 2105 0022 0389     		ldrh	r3, [r0, #8]
 2106 0024 0093     		str	r3, [sp]
 2107 0026 261D     		adds	r6, r4, #4
 2108 0028 3246     		mov	r2, r6
 2109 002a 2146     		mov	r1, r4
 2110 002c 0623     		movs	r3, #6
 2111 002e 0546     		mov	r5, r0
 2112 0030 FFF7FEFF 		bl	inet_chksum_pseudo
 2113              	.LVL241:
 2114 0034 3882     		strh	r0, [r7, #16]	@ unaligned
 2115              		.loc 1 882 0
 2116 0036 627A     		ldrb	r2, [r4, #9]	@ zero_extendqisi2
 2117 0038 A37A     		ldrb	r3, [r4, #10]	@ zero_extendqisi2
 2118 003a 0092     		str	r2, [sp]
 2119 003c 0620     		movs	r0, #6
 2120 003e 3246     		mov	r2, r6
 2121 0040 2146     		mov	r1, r4
 2122 0042 0190     		str	r0, [sp, #4]
 2123 0044 2846     		mov	r0, r5
 2124 0046 FFF7FEFF 		bl	ip_output
 2125              	.LVL242:
 2126              		.loc 1 885 0
 2127 004a 2846     		mov	r0, r5
 2128 004c FFF7FEFF 		bl	pbuf_free
 2129              	.LVL243:
 2130              		.loc 1 887 0
 2131 0050 0020     		movs	r0, #0
 2132              	.LVL244:
 2133              	.L266:
 2134              		.loc 1 888 0
 2135 0052 40B2     		sxtb	r0, r0
 2136 0054 03B0     		add	sp, sp, #12
 2137              		.cfi_remember_state
 2138              		.cfi_def_cfa_offset 20
 2139              		@ sp needed
 2140 0056 F0BD     		pop	{r4, r5, r6, r7, pc}
 2141              	.LVL245:
 2142              	.L267:
 2143              		.cfi_restore_state
 2144              		.loc 1 857 0
 2145 0058 FE20     		movs	r0, #254
 2146              	.LVL246:
 2147 005a FAE7     		b	.L266
 2148              		.cfi_endproc
 2149              	.LFE263:
 2150              		.size	tcp_send_empty_ack, .-tcp_send_empty_ack
 2151 005c AFF30080 		.section	.text.tcp_output,"ax",%progbits
 2152              		.align	2
 2153              		.p2align 4,,15
 2154              		.global	tcp_output
 2155              		.thumb
 2156              		.thumb_func
 2157              		.type	tcp_output, %function
 2158              	tcp_output:
 2159              	.LFB264:
 2160              		.loc 1 899 0
ARM GAS  C:\Users\jo\AppData\Local\Temp\ccnOsBUt.s 			page 39


 2161              		.cfi_startproc
 2162              		@ args = 0, pretend = 0, frame = 0
 2163              		@ frame_needed = 0, uses_anonymous_args = 0
 2164              	.LVL247:
 2165 0000 2DE9F047 		push	{r4, r5, r6, r7, r8, r9, r10, lr}
 2166              		.cfi_def_cfa_offset 32
 2167              		.cfi_offset 4, -32
 2168              		.cfi_offset 5, -28
 2169              		.cfi_offset 6, -24
 2170              		.cfi_offset 7, -20
 2171              		.cfi_offset 8, -16
 2172              		.cfi_offset 9, -12
 2173              		.cfi_offset 10, -8
 2174              		.cfi_offset 14, -4
 2175              		.loc 1 907 0
 2176 0004 037E     		ldrb	r3, [r0, #24]	@ zero_extendqisi2
 2177 0006 012B     		cmp	r3, #1
 2178              		.loc 1 899 0
 2179 0008 82B0     		sub	sp, sp, #8
 2180              		.cfi_def_cfa_offset 40
 2181              		.loc 1 899 0
 2182 000a 0446     		mov	r4, r0
 2183              		.loc 1 907 0
 2184 000c 00F08081 		beq	.L338
 2185              	.LVL248:
 2186              	.L270:
 2187              		.loc 1 914 0
 2188 0010 B54B     		ldr	r3, .L346
 2189 0012 1B68     		ldr	r3, [r3]
 2190 0014 A342     		cmp	r3, r4
 2191 0016 00F02381 		beq	.L323
 2192              		.loc 1 918 0
 2193 001a B4F86080 		ldrh	r8, [r4, #96]
 2194 001e B4F84C20 		ldrh	r2, [r4, #76]
 2195              		.loc 1 928 0
 2196 0022 A37F     		ldrb	r3, [r4, #30]	@ zero_extendqisi2
 2197              		.loc 1 920 0
 2198 0024 E56E     		ldr	r5, [r4, #108]
 2199              		.loc 1 918 0
 2200 0026 9045     		cmp	r8, r2
 2201 0028 28BF     		it	cs
 2202 002a 9046     		movcs	r8, r2
 2203              	.LVL249:
 2204              		.loc 1 928 0
 2205 002c 9907     		lsls	r1, r3, #30
 2206 002e 40F1E780 		bpl	.L272
 2207              		.loc 1 928 0 is_stmt 0 discriminator 1
 2208 0032 002D     		cmp	r5, #0
 2209 0034 00F06681 		beq	.L274
 2210              		.loc 1 930 0 is_stmt 1
 2211 0038 EB68     		ldr	r3, [r5, #12]
 2212 003a 5868     		ldr	r0, [r3, #4]	@ unaligned
 2213 003c FFF7FEFF 		bl	lwip_ntohl
 2214              	.LVL250:
 2215 0040 2B89     		ldrh	r3, [r5, #8]
 2216 0042 A26C     		ldr	r2, [r4, #72]
 2217 0044 9B1A     		subs	r3, r3, r2
ARM GAS  C:\Users\jo\AppData\Local\Temp\ccnOsBUt.s 			page 40


 2218 0046 1844     		add	r0, r0, r3
 2219              		.loc 1 929 0
 2220 0048 8045     		cmp	r8, r0
 2221 004a C0F05B81 		bcc	.L274
 2222              		.loc 1 935 0
 2223 004e 276F     		ldr	r7, [r4, #112]
 2224              	.LVL251:
 2225              		.loc 1 936 0
 2226 0050 37B1     		cbz	r7, .L277
 2227              		.loc 1 937 0
 2228 0052 3B68     		ldr	r3, [r7]
 2229 0054 002B     		cmp	r3, #0
 2230 0056 40F0D680 		bne	.L308
 2231              	.L280:
 2232              		.loc 1 962 0
 2233 005a 002D     		cmp	r5, #0
 2234 005c 00F04081 		beq	.L335
 2235              	.L277:
 2236              		.loc 1 964 0 discriminator 1
 2237 0060 DFF89C92 		ldr	r9, .L346+24
 2238 0064 ADE0     		b	.L300
 2239              	.L281:
 2240              		.loc 1 973 0
 2241 0066 236F     		ldr	r3, [r4, #112]
 2242 0068 5BB1     		cbz	r3, .L282
 2243              		.loc 1 973 0 is_stmt 0 discriminator 2
 2244 006a A37F     		ldrb	r3, [r4, #30]	@ zero_extendqisi2
 2245 006c 13F0440F 		tst	r3, #68
 2246 0070 07D1     		bne	.L282
 2247              		.loc 1 973 0 discriminator 4
 2248 0072 E26E     		ldr	r2, [r4, #108]
 2249 0074 002A     		cmp	r2, #0
 2250 0076 00F01C81 		beq	.L283
 2251              		.loc 1 973 0 discriminator 5
 2252 007a 1168     		ldr	r1, [r2]
 2253 007c 0029     		cmp	r1, #0
 2254 007e 00F01381 		beq	.L339
 2255              	.L282:
 2256              		.loc 1 988 0 is_stmt 1
 2257 0082 237E     		ldrb	r3, [r4, #24]	@ zero_extendqisi2
 2258              		.loc 1 986 0
 2259 0084 2A68     		ldr	r2, [r5]
 2260 0086 E266     		str	r2, [r4, #108]
 2261              		.loc 1 988 0
 2262 0088 022B     		cmp	r3, #2
 2263 008a 0DD0     		beq	.L285
 2264              		.loc 1 989 0
 2265 008c D5F80CA0 		ldr	r10, [r5, #12]
 2266 0090 1020     		movs	r0, #16
 2267 0092 BAF80C60 		ldrh	r6, [r10, #12]	@ unaligned
 2268 0096 FFF7FEFF 		bl	lwip_htons
 2269              	.LVL252:
 2270 009a 3043     		orrs	r0, r0, r6
 2271 009c AAF80C00 		strh	r0, [r10, #12]	@ unaligned
 2272              		.loc 1 990 0
 2273 00a0 A37F     		ldrb	r3, [r4, #30]	@ zero_extendqisi2
 2274 00a2 23F00303 		bic	r3, r3, #3
ARM GAS  C:\Users\jo\AppData\Local\Temp\ccnOsBUt.s 			page 41


 2275 00a6 A377     		strb	r3, [r4, #30]
 2276              	.L285:
 2277              	.LVL253:
 2278              	.LBB167:
 2279              	.LBB168:
 2280              		.loc 1 1060 0
 2281 00a8 A06A     		ldr	r0, [r4, #40]
 2282 00aa EE68     		ldr	r6, [r5, #12]
 2283 00ac FFF7FEFF 		bl	lwip_htonl
 2284              	.LVL254:
 2285 00b0 B060     		str	r0, [r6, #8]	@ unaligned
 2286              		.loc 1 1063 0
 2287 00b2 E08D     		ldrh	r0, [r4, #46]
 2288 00b4 EE68     		ldr	r6, [r5, #12]
 2289 00b6 FFF7FEFF 		bl	lwip_htons
 2290              	.LVL255:
 2291              		.loc 1 1065 0
 2292 00ba E28D     		ldrh	r2, [r4, #46]
 2293 00bc A36A     		ldr	r3, [r4, #40]
 2294              		.loc 1 1063 0
 2295 00be F081     		strh	r0, [r6, #14]	@ unaligned
 2296              		.loc 1 1065 0
 2297 00c0 1344     		add	r3, r3, r2
 2298 00c2 2363     		str	r3, [r4, #48]
 2299              		.loc 1 1070 0
 2300 00c4 AB7A     		ldrb	r3, [r5, #10]	@ zero_extendqisi2
 2301              		.loc 1 1069 0
 2302 00c6 D5F80CA0 		ldr	r10, [r5, #12]
 2303              	.LVL256:
 2304              		.loc 1 1070 0
 2305 00ca DB07     		lsls	r3, r3, #31
 2306              	.LBB169:
 2307              		.loc 1 1073 0
 2308 00cc 04F10406 		add	r6, r4, #4
 2309              	.LBE169:
 2310              		.loc 1 1070 0
 2311 00d0 00F19E80 		bmi	.L340
 2312              		.loc 1 1091 0
 2313 00d4 B4F93430 		ldrsh	r3, [r4, #52]
 2314 00d8 0133     		adds	r3, r3, #1
 2315 00da 00F0A980 		beq	.L341
 2316              	.LVL257:
 2317              	.L304:
 2318              		.loc 1 1097 0
 2319 00de 2368     		ldr	r3, [r4]
 2320 00e0 33B9     		cbnz	r3, .L288
 2321              		.loc 1 1098 0
 2322 00e2 3046     		mov	r0, r6
 2323 00e4 FFF7FEFF 		bl	ip_route
 2324              	.LVL258:
 2325              		.loc 1 1099 0
 2326 00e8 0028     		cmp	r0, #0
 2327 00ea 32D0     		beq	.L289
 2328              		.loc 1 1102 0
 2329 00ec 4368     		ldr	r3, [r0, #4]
 2330 00ee 2360     		str	r3, [r4]
 2331              	.LVL259:
ARM GAS  C:\Users\jo\AppData\Local\Temp\ccnOsBUt.s 			page 42


 2332              	.L288:
 2333              		.loc 1 1105 0
 2334 00f0 A36B     		ldr	r3, [r4, #56]
 2335 00f2 002B     		cmp	r3, #0
 2336 00f4 00F09F80 		beq	.L342
 2337              	.L290:
 2338              		.loc 1 1115 0
 2339 00f8 6868     		ldr	r0, [r5, #4]
 2340 00fa D5F80CA0 		ldr	r10, [r5, #12]
 2341 00fe 4268     		ldr	r2, [r0, #4]
 2342              		.loc 1 1118 0
 2343 0100 0389     		ldrh	r3, [r0, #8]
 2344              		.loc 1 1117 0
 2345 0102 4189     		ldrh	r1, [r0, #10]
 2346              		.loc 1 1120 0
 2347 0104 C0F804A0 		str	r10, [r0, #4]
 2348              		.loc 1 1115 0
 2349 0108 C2EB0A02 		rsb	r2, r2, r10
 2350 010c 92B2     		uxth	r2, r2
 2351              	.LVL260:
 2352              		.loc 1 1118 0
 2353 010e 9B1A     		subs	r3, r3, r2
 2354 0110 9BB2     		uxth	r3, r3
 2355              		.loc 1 1117 0
 2356 0112 8A1A     		subs	r2, r1, r2
 2357              	.LVL261:
 2358              		.loc 1 1122 0
 2359 0114 0021     		movs	r1, #0
 2360              		.loc 1 1117 0
 2361 0116 4281     		strh	r2, [r0, #10]	@ movhi
 2362              		.loc 1 1118 0
 2363 0118 0381     		strh	r3, [r0, #8]	@ movhi
 2364              		.loc 1 1158 0
 2365 011a 3246     		mov	r2, r6
 2366              		.loc 1 1122 0
 2367 011c 8AF81010 		strb	r1, [r10, #16]
 2368 0120 8AF81110 		strb	r1, [r10, #17]
 2369              		.loc 1 1158 0
 2370 0124 2146     		mov	r1, r4
 2371 0126 0093     		str	r3, [sp]
 2372 0128 0623     		movs	r3, #6
 2373 012a FFF7FEFF 		bl	inet_chksum_pseudo
 2374              	.LVL262:
 2375              		.loc 1 1163 0
 2376 012e 6F4A     		ldr	r2, .L346+4
 2377              		.loc 1 1158 0
 2378 0130 AAF81000 		strh	r0, [r10, #16]	@ unaligned
 2379              		.loc 1 1163 0
 2380 0134 B2F89030 		ldrh	r3, [r2, #144]
 2381              		.loc 1 1169 0
 2382 0138 6868     		ldr	r0, [r5, #4]
 2383              		.loc 1 1163 0
 2384 013a 0133     		adds	r3, r3, #1
 2385 013c A2F89030 		strh	r3, [r2, #144]	@ movhi
 2386              		.loc 1 1169 0
 2387 0140 627A     		ldrb	r2, [r4, #9]	@ zero_extendqisi2
 2388 0142 A37A     		ldrb	r3, [r4, #10]	@ zero_extendqisi2
ARM GAS  C:\Users\jo\AppData\Local\Temp\ccnOsBUt.s 			page 43


 2389 0144 0092     		str	r2, [sp]
 2390 0146 0621     		movs	r1, #6
 2391 0148 0191     		str	r1, [sp, #4]
 2392 014a 3246     		mov	r2, r6
 2393 014c 2146     		mov	r1, r4
 2394 014e FFF7FEFF 		bl	ip_output
 2395              	.LVL263:
 2396              	.L289:
 2397              	.LBE168:
 2398              	.LBE167:
 2399              		.loc 1 994 0
 2400 0152 EB68     		ldr	r3, [r5, #12]
 2401 0154 5868     		ldr	r0, [r3, #4]	@ unaligned
 2402 0156 FFF7FEFF 		bl	lwip_ntohl
 2403              	.LVL264:
 2404 015a EB68     		ldr	r3, [r5, #12]
 2405 015c B5F808A0 		ldrh	r10, [r5, #8]
 2406 0160 0646     		mov	r6, r0
 2407 0162 9889     		ldrh	r0, [r3, #12]	@ unaligned
 2408 0164 FFF7FEFF 		bl	lwip_ntohs
 2409              	.LVL265:
 2410 0168 10F00300 		ands	r0, r0, #3
 2411 016c 18BF     		it	ne
 2412 016e 0120     		movne	r0, #1
 2413              		.loc 1 995 0
 2414 0170 236D     		ldr	r3, [r4, #80]
 2415              		.loc 1 994 0
 2416 0172 5044     		add	r0, r0, r10
 2417 0174 3044     		add	r0, r0, r6
 2418              	.LVL266:
 2419              		.loc 1 995 0
 2420 0176 1B1A     		subs	r3, r3, r0
 2421 0178 002B     		cmp	r3, #0
 2422              		.loc 1 999 0
 2423 017a EB68     		ldr	r3, [r5, #12]
 2424              		.loc 1 996 0
 2425 017c B8BF     		it	lt
 2426 017e 2065     		strlt	r0, [r4, #80]
 2427              		.loc 1 999 0
 2428 0180 9889     		ldrh	r0, [r3, #12]	@ unaligned
 2429              	.LVL267:
 2430 0182 2E89     		ldrh	r6, [r5, #8]
 2431 0184 FFF7FEFF 		bl	lwip_ntohs
 2432              	.LVL268:
 2433 0188 10F00300 		ands	r0, r0, #3
 2434 018c 18BF     		it	ne
 2435 018e 0120     		movne	r0, #1
 2436 0190 C642     		cmn	r6, r0
 2437 0192 00F08580 		beq	.L292
 2438              		.loc 1 1002 0
 2439 0196 236F     		ldr	r3, [r4, #112]
 2440              		.loc 1 1000 0
 2441 0198 0022     		movs	r2, #0
 2442 019a 2A60     		str	r2, [r5]
 2443              		.loc 1 1002 0
 2444 019c 002B     		cmp	r3, #0
 2445 019e 53D0     		beq	.L343
ARM GAS  C:\Users\jo\AppData\Local\Temp\ccnOsBUt.s 			page 44


 2446              		.loc 1 1010 0
 2447 01a0 EB68     		ldr	r3, [r5, #12]
 2448 01a2 5868     		ldr	r0, [r3, #4]	@ unaligned
 2449 01a4 FFF7FEFF 		bl	lwip_ntohl
 2450              	.LVL269:
 2451 01a8 FB68     		ldr	r3, [r7, #12]
 2452 01aa 0646     		mov	r6, r0
 2453 01ac 5868     		ldr	r0, [r3, #4]	@ unaligned
 2454 01ae FFF7FEFF 		bl	lwip_ntohl
 2455              	.LVL270:
 2456 01b2 301A     		subs	r0, r6, r0
 2457 01b4 0028     		cmp	r0, #0
 2458 01b6 57DB     		blt	.L344
 2459              		.loc 1 1021 0
 2460 01b8 3D60     		str	r5, [r7]
 2461              	.LVL271:
 2462 01ba 2F46     		mov	r7, r5
 2463              	.LVL272:
 2464              	.L294:
 2465              		.loc 1 1029 0
 2466 01bc E56E     		ldr	r5, [r4, #108]
 2467              	.LVL273:
 2468              		.loc 1 962 0
 2469 01be 002D     		cmp	r5, #0
 2470 01c0 47D0     		beq	.L345
 2471              	.LVL274:
 2472              	.L300:
 2473              		.loc 1 963 0 discriminator 1
 2474 01c2 EB68     		ldr	r3, [r5, #12]
 2475 01c4 5868     		ldr	r0, [r3, #4]	@ unaligned
 2476 01c6 FFF7FEFF 		bl	lwip_ntohl
 2477              	.LVL275:
 2478 01ca 2B89     		ldrh	r3, [r5, #8]
 2479 01cc A26C     		ldr	r2, [r4, #72]
 2480 01ce 9B1A     		subs	r3, r3, r2
 2481 01d0 1844     		add	r0, r0, r3
 2482              		.loc 1 962 0 discriminator 1
 2483 01d2 8045     		cmp	r8, r0
 2484 01d4 C0F08480 		bcc	.L335
 2485              		.loc 1 964 0
 2486 01d8 EB68     		ldr	r3, [r5, #12]
 2487 01da 9889     		ldrh	r0, [r3, #12]	@ unaligned
 2488 01dc FFF7FEFF 		bl	lwip_ntohs
 2489              	.LVL276:
 2490 01e0 4207     		lsls	r2, r0, #29
 2491 01e2 7FF540AF 		bpl	.L281
 2492              		.loc 1 964 0 is_stmt 0 discriminator 1
 2493 01e6 CDF80090 		str	r9, [sp]
 2494 01ea 4149     		ldr	r1, .L346+8
 2495 01ec 414A     		ldr	r2, .L346+12
 2496 01ee 4248     		ldr	r0, .L346+16
 2497 01f0 40F2C533 		movw	r3, #965
 2498 01f4 FFF7FEFF 		bl	chprintf.constprop.2
 2499              	.LVL277:
 2500              	.LBB173:
 2501              	.LBB174:
 2502              		.loc 3 414 0 is_stmt 1 discriminator 1
ARM GAS  C:\Users\jo\AppData\Local\Temp\ccnOsBUt.s 			page 45


 2503 01f8 3E48     		ldr	r0, .L346+12
 2504 01fa FFF7FEFF 		bl	chSysHalt
 2505              	.LVL278:
 2506 01fe 32E7     		b	.L281
 2507              	.LVL279:
 2508              	.L272:
 2509              	.LBE174:
 2510              	.LBE173:
 2511              		.loc 1 935 0
 2512 0200 276F     		ldr	r7, [r4, #112]
 2513              	.LVL280:
 2514              		.loc 1 936 0
 2515 0202 0FB9     		cbnz	r7, .L279
 2516 0204 29E7     		b	.L280
 2517              	.L308:
 2518 0206 1F46     		mov	r7, r3
 2519              	.LVL281:
 2520              	.L279:
 2521              		.loc 1 937 0 discriminator 1
 2522 0208 3B68     		ldr	r3, [r7]
 2523 020a 002B     		cmp	r3, #0
 2524 020c FBD1     		bne	.L308
 2525 020e 24E7     		b	.L280
 2526              	.LVL282:
 2527              	.L340:
 2528              	.LBB175:
 2529              	.LBB172:
 2530              	.LBB170:
 2531              		.loc 1 1073 0
 2532 0210 3146     		mov	r1, r6
 2533 0212 40F2B450 		movw	r0, #1460
 2534 0216 FFF7FEFF 		bl	tcp_eff_send_mss
 2535              	.LVL283:
 2536              		.loc 1 1077 0
 2537 021a 40F00170 		orr	r0, r0, #33816576
 2538              	.LVL284:
 2539 021e FFF7FEFF 		bl	lwip_htonl
 2540              	.LVL285:
 2541              	.LBE170:
 2542              		.loc 1 1091 0
 2543 0222 B4F93430 		ldrsh	r3, [r4, #52]
 2544              	.LBB171:
 2545              		.loc 1 1077 0
 2546 0226 CAF81400 		str	r0, [r10, #20]
 2547              	.LVL286:
 2548              	.LBE171:
 2549              		.loc 1 1091 0
 2550 022a 0133     		adds	r3, r3, #1
 2551 022c 7FF457AF 		bne	.L304
 2552              	.LVL287:
 2553              	.L341:
 2554              		.loc 1 1092 0
 2555 0230 0023     		movs	r3, #0
 2556 0232 A386     		strh	r3, [r4, #52]	@ movhi
 2557 0234 53E7     		b	.L304
 2558              	.L342:
 2559              		.loc 1 1106 0
ARM GAS  C:\Users\jo\AppData\Local\Temp\ccnOsBUt.s 			page 46


 2560 0236 314A     		ldr	r2, .L346+20
 2561              		.loc 1 1107 0
 2562 0238 EB68     		ldr	r3, [r5, #12]
 2563              		.loc 1 1106 0
 2564 023a 1268     		ldr	r2, [r2]
 2565 023c A263     		str	r2, [r4, #56]
 2566              		.loc 1 1107 0
 2567 023e 5868     		ldr	r0, [r3, #4]	@ unaligned
 2568 0240 FFF7FEFF 		bl	lwip_ntohl
 2569              	.LVL288:
 2570 0244 E063     		str	r0, [r4, #60]
 2571 0246 57E7     		b	.L290
 2572              	.L343:
 2573              	.LBE172:
 2574              	.LBE175:
 2575              		.loc 1 1003 0
 2576 0248 2567     		str	r5, [r4, #112]
 2577              	.LVL289:
 2578 024a 2F46     		mov	r7, r5
 2579              		.loc 1 1029 0
 2580 024c E56E     		ldr	r5, [r4, #108]
 2581              	.LVL290:
 2582              		.loc 1 962 0
 2583 024e 002D     		cmp	r5, #0
 2584 0250 B7D1     		bne	.L300
 2585              	.LVL291:
 2586              	.L345:
 2587 0252 A37F     		ldrb	r3, [r4, #30]	@ zero_extendqisi2
 2588              	.LVL292:
 2589              	.L301:
 2590              		.loc 1 1034 0
 2591 0254 0022     		movs	r2, #0
 2592              		.loc 1 1038 0
 2593 0256 03F07F03 		and	r3, r3, #127
 2594              		.loc 1 1034 0
 2595 025a A4F86A20 		strh	r2, [r4, #106]	@ movhi
 2596              		.loc 1 1038 0
 2597 025e A377     		strb	r3, [r4, #30]
 2598              	.LVL293:
 2599              	.L323:
 2600              		.loc 1 1040 0
 2601 0260 0020     		movs	r0, #0
 2602 0262 02B0     		add	sp, sp, #8
 2603              		.cfi_remember_state
 2604              		.cfi_def_cfa_offset 32
 2605              		@ sp needed
 2606 0264 BDE8F087 		pop	{r4, r5, r6, r7, r8, r9, r10, pc}
 2607              	.LVL294:
 2608              	.L344:
 2609              		.cfi_restore_state
 2610              	.LBB176:
 2611              		.loc 1 1013 0
 2612 0268 236F     		ldr	r3, [r4, #112]
 2613              		.loc 1 1012 0
 2614 026a 04F1700A 		add	r10, r4, #112
 2615              	.LVL295:
 2616              		.loc 1 1013 0
ARM GAS  C:\Users\jo\AppData\Local\Temp\ccnOsBUt.s 			page 47


 2617 026e 2BB9     		cbnz	r3, .L298
 2618 0270 12E0     		b	.L297
 2619              	.L299:
 2620              		.loc 1 1015 0
 2621 0272 DAF800A0 		ldr	r10, [r10]
 2622              	.LVL296:
 2623              		.loc 1 1013 0
 2624 0276 DAF80030 		ldr	r3, [r10]
 2625 027a 6BB1     		cbz	r3, .L297
 2626              	.L298:
 2627              		.loc 1 1014 0 discriminator 1
 2628 027c DB68     		ldr	r3, [r3, #12]
 2629 027e 5868     		ldr	r0, [r3, #4]	@ unaligned
 2630 0280 FFF7FEFF 		bl	lwip_ntohl
 2631              	.LVL297:
 2632 0284 EB68     		ldr	r3, [r5, #12]
 2633 0286 0646     		mov	r6, r0
 2634 0288 5868     		ldr	r0, [r3, #4]	@ unaligned
 2635 028a FFF7FEFF 		bl	lwip_ntohl
 2636              	.LVL298:
 2637 028e 301A     		subs	r0, r6, r0
 2638              		.loc 1 1013 0 discriminator 1
 2639 0290 0028     		cmp	r0, #0
 2640 0292 EEDB     		blt	.L299
 2641 0294 DAF80030 		ldr	r3, [r10]
 2642              	.L297:
 2643              		.loc 1 1017 0
 2644 0298 2B60     		str	r3, [r5]
 2645              		.loc 1 1018 0
 2646 029a CAF80050 		str	r5, [r10]
 2647              	.LBE176:
 2648 029e 8DE7     		b	.L294
 2649              	.LVL299:
 2650              	.L292:
 2651              		.loc 1 1027 0
 2652 02a0 2846     		mov	r0, r5
 2653 02a2 FFF7FEFF 		bl	tcp_seg_free
 2654              	.LVL300:
 2655 02a6 89E7     		b	.L294
 2656              	.LVL301:
 2657              	.L339:
 2658              		.loc 1 973 0 discriminator 8
 2659 02a8 1089     		ldrh	r0, [r2, #8]
 2660 02aa E18E     		ldrh	r1, [r4, #54]
 2661 02ac 8842     		cmp	r0, r1
 2662 02ae BFF4E8AE 		bcs	.L282
 2663              	.L283:
 2664              		.loc 1 973 0 is_stmt 0 discriminator 10
 2665 02b2 B4F86610 		ldrh	r1, [r4, #102]
 2666 02b6 0029     		cmp	r1, #0
 2667 02b8 3FF4E3AE 		beq	.L282
 2668              		.loc 1 973 0 discriminator 12
 2669 02bc B4F86810 		ldrh	r1, [r4, #104]
 2670 02c0 0729     		cmp	r1, #7
 2671 02c2 3FF6DEAE 		bhi	.L282
 2672              		.loc 1 973 0
 2673 02c6 13F0A00F 		tst	r3, #160
ARM GAS  C:\Users\jo\AppData\Local\Temp\ccnOsBUt.s 			page 48


 2674 02ca 7FF4DAAE 		bne	.L282
 2675              	.L278:
 2676              		.loc 1 1032 0 is_stmt 1
 2677 02ce 002A     		cmp	r2, #0
 2678 02d0 C0D0     		beq	.L301
 2679              		.loc 1 1038 0
 2680 02d2 03F07F03 		and	r3, r3, #127
 2681              		.loc 1 1040 0
 2682 02d6 0020     		movs	r0, #0
 2683              		.loc 1 1038 0
 2684 02d8 A377     		strb	r3, [r4, #30]
 2685              		.loc 1 1040 0
 2686 02da 02B0     		add	sp, sp, #8
 2687              		.cfi_remember_state
 2688              		.cfi_def_cfa_offset 32
 2689              		@ sp needed
 2690 02dc BDE8F087 		pop	{r4, r5, r6, r7, r8, r9, r10, pc}
 2691              	.LVL302:
 2692              	.L335:
 2693              		.cfi_restore_state
 2694 02e0 E26E     		ldr	r2, [r4, #108]
 2695 02e2 A37F     		ldrb	r3, [r4, #30]	@ zero_extendqisi2
 2696 02e4 F3E7     		b	.L278
 2697              	.L347:
 2698 02e6 00BF     		.align	2
 2699              	.L346:
 2700 02e8 00000000 		.word	tcp_input_pcb
 2701 02ec 00000000 		.word	lwip_stats
 2702 02f0 00000000 		.word	.LC0
 2703 02f4 74030000 		.word	.LC20
 2704 02f8 00000000 		.word	itm_port
 2705 02fc 00000000 		.word	tcp_ticks
 2706 0300 58000000 		.word	.LC2
 2707              	.LVL303:
 2708              	.L274:
 2709              		.loc 1 931 0
 2710 0304 2046     		mov	r0, r4
 2711              		.loc 1 1040 0
 2712 0306 02B0     		add	sp, sp, #8
 2713              		.cfi_remember_state
 2714              		.cfi_def_cfa_offset 32
 2715              		@ sp needed
 2716 0308 BDE8F047 		pop	{r4, r5, r6, r7, r8, r9, r10, lr}
 2717              		.cfi_restore 14
 2718              		.cfi_restore 10
 2719              		.cfi_restore 9
 2720              		.cfi_restore 8
 2721              		.cfi_restore 7
 2722              		.cfi_restore 6
 2723              		.cfi_restore 5
 2724              		.cfi_restore 4
 2725              		.cfi_def_cfa_offset 0
 2726              	.LVL304:
 2727              		.loc 1 931 0
 2728 030c FFF7FEBF 		b	tcp_send_empty_ack
 2729              	.LVL305:
 2730              	.L338:
ARM GAS  C:\Users\jo\AppData\Local\Temp\ccnOsBUt.s 			page 49


 2731              		.cfi_restore_state
 2732              		.loc 1 907 0 discriminator 1
 2733 0310 064B     		ldr	r3, .L348
 2734 0312 0093     		str	r3, [sp]
 2735 0314 0649     		ldr	r1, .L348+4
 2736 0316 074A     		ldr	r2, .L348+8
 2737 0318 0748     		ldr	r0, .L348+12
 2738              	.LVL306:
 2739 031a 4FF46373 		mov	r3, #908
 2740 031e FFF7FEFF 		bl	chprintf.constprop.2
 2741              	.LVL307:
 2742              	.LBB177:
 2743              	.LBB178:
 2744              		.loc 3 414 0 discriminator 1
 2745 0322 0448     		ldr	r0, .L348+8
 2746 0324 FFF7FEFF 		bl	chSysHalt
 2747              	.LVL308:
 2748 0328 72E6     		b	.L270
 2749              	.L349:
 2750 032a 00BF     		.align	2
 2751              	.L348:
 2752 032c 58000000 		.word	.LC2
 2753 0330 00000000 		.word	.LC0
 2754 0334 4C030000 		.word	.LC19
 2755 0338 00000000 		.word	itm_port
 2756              	.LBE178:
 2757              	.LBE177:
 2758              		.cfi_endproc
 2759              	.LFE264:
 2760              		.size	tcp_output, .-tcp_output
 2761 033c AFF30080 		.section	.text.tcp_rst,"ax",%progbits
 2762              		.align	2
 2763              		.p2align 4,,15
 2764              		.global	tcp_rst
 2765              		.thumb
 2766              		.thumb_func
 2767              		.type	tcp_rst, %function
 2768              	tcp_rst:
 2769              	.LFB266:
 2770              		.loc 1 1198 0
 2771              		.cfi_startproc
 2772              		@ args = 8, pretend = 0, frame = 0
 2773              		@ frame_needed = 0, uses_anonymous_args = 0
 2774              	.LVL309:
 2775 0000 2DE9F047 		push	{r4, r5, r6, r7, r8, r9, r10, lr}
 2776              		.cfi_def_cfa_offset 32
 2777              		.cfi_offset 4, -32
 2778              		.cfi_offset 5, -28
 2779              		.cfi_offset 6, -24
 2780              		.cfi_offset 7, -20
 2781              		.cfi_offset 8, -16
 2782              		.cfi_offset 9, -12
 2783              		.cfi_offset 10, -8
 2784              		.cfi_offset 14, -4
 2785 0004 82B0     		sub	sp, sp, #8
 2786              		.cfi_def_cfa_offset 40
 2787              		.loc 1 1198 0
ARM GAS  C:\Users\jo\AppData\Local\Temp\ccnOsBUt.s 			page 50


 2788 0006 8146     		mov	r9, r0
 2789 0008 0E46     		mov	r6, r1
 2790 000a 9046     		mov	r8, r2
 2791              		.loc 1 1201 0
 2792 000c 0120     		movs	r0, #1
 2793              	.LVL310:
 2794 000e 1421     		movs	r1, #20
 2795              	.LVL311:
 2796 0010 0022     		movs	r2, #0
 2797              	.LVL312:
 2798              		.loc 1 1198 0
 2799 0012 1F46     		mov	r7, r3
 2800 0014 BDF82840 		ldrh	r4, [sp, #40]
 2801 0018 BDF82CA0 		ldrh	r10, [sp, #44]
 2802              		.loc 1 1201 0
 2803 001c FFF7FEFF 		bl	pbuf_alloc
 2804              	.LVL313:
 2805              		.loc 1 1202 0
 2806 0020 0546     		mov	r5, r0
 2807 0022 0028     		cmp	r0, #0
 2808 0024 4ED0     		beq	.L350
 2809              		.loc 1 1206 0
 2810 0026 4389     		ldrh	r3, [r0, #10]
 2811 0028 132B     		cmp	r3, #19
 2812 002a 3ED9     		bls	.L354
 2813              	.LVL314:
 2814              	.L352:
 2815              		.loc 1 1210 0
 2816 002c 2046     		mov	r0, r4
 2817              		.loc 1 1209 0
 2818 002e 6C68     		ldr	r4, [r5, #4]
 2819              	.LVL315:
 2820              		.loc 1 1210 0
 2821 0030 FFF7FEFF 		bl	lwip_htons
 2822              	.LVL316:
 2823 0034 2080     		strh	r0, [r4]	@ unaligned
 2824              		.loc 1 1211 0
 2825 0036 5046     		mov	r0, r10
 2826 0038 FFF7FEFF 		bl	lwip_htons
 2827              	.LVL317:
 2828 003c 6080     		strh	r0, [r4, #2]	@ unaligned
 2829              		.loc 1 1212 0
 2830 003e 4846     		mov	r0, r9
 2831 0040 FFF7FEFF 		bl	lwip_htonl
 2832              	.LVL318:
 2833 0044 6060     		str	r0, [r4, #4]	@ unaligned
 2834              		.loc 1 1213 0
 2835 0046 3046     		mov	r0, r6
 2836 0048 FFF7FEFF 		bl	lwip_htonl
 2837              	.LVL319:
 2838 004c A060     		str	r0, [r4, #8]	@ unaligned
 2839              		.loc 1 1214 0
 2840 004e 45F21400 		movw	r0, #20500
 2841 0052 FFF7FEFF 		bl	lwip_htons
 2842              	.LVL320:
 2843              		.loc 1 1215 0
 2844 0056 0026     		movs	r6, #0
ARM GAS  C:\Users\jo\AppData\Local\Temp\ccnOsBUt.s 			page 51


 2845              	.LVL321:
 2846              		.loc 1 1220 0
 2847 0058 2B89     		ldrh	r3, [r5, #8]
 2848              		.loc 1 1214 0
 2849 005a A081     		strh	r0, [r4, #12]	@ unaligned
 2850              		.loc 1 1215 0
 2851 005c 1621     		movs	r1, #22
 2852 005e 6FF02F02 		mvn	r2, #47
 2853 0062 A173     		strb	r1, [r4, #14]
 2854 0064 E273     		strb	r2, [r4, #15]
 2855              		.loc 1 1216 0
 2856 0066 2674     		strb	r6, [r4, #16]
 2857 0068 6674     		strb	r6, [r4, #17]
 2858              		.loc 1 1217 0
 2859 006a A674     		strb	r6, [r4, #18]
 2860 006c E674     		strb	r6, [r4, #19]
 2861              		.loc 1 1220 0
 2862 006e 4146     		mov	r1, r8
 2863 0070 0093     		str	r3, [sp]
 2864 0072 3A46     		mov	r2, r7
 2865 0074 2846     		mov	r0, r5
 2866 0076 0623     		movs	r3, #6
 2867 0078 FFF7FEFF 		bl	inet_chksum_pseudo
 2868              	.LVL322:
 2869              		.loc 1 1223 0
 2870 007c DFF85CE0 		ldr	lr, .L355+16
 2871              		.loc 1 1220 0
 2872 0080 2082     		strh	r0, [r4, #16]	@ unaligned
 2873              		.loc 1 1223 0
 2874 0082 BEF89040 		ldrh	r4, [lr, #144]
 2875              	.LVL323:
 2876              		.loc 1 1226 0
 2877 0086 0096     		str	r6, [sp]
 2878 0088 0623     		movs	r3, #6
 2879              		.loc 1 1223 0
 2880 008a 0134     		adds	r4, r4, #1
 2881              		.loc 1 1226 0
 2882 008c 0193     		str	r3, [sp, #4]
 2883 008e 4146     		mov	r1, r8
 2884 0090 3A46     		mov	r2, r7
 2885 0092 2846     		mov	r0, r5
 2886 0094 FF23     		movs	r3, #255
 2887              		.loc 1 1223 0
 2888 0096 AEF89040 		strh	r4, [lr, #144]	@ movhi
 2889              		.loc 1 1226 0
 2890 009a FFF7FEFF 		bl	ip_output
 2891              	.LVL324:
 2892              		.loc 1 1227 0
 2893 009e 2846     		mov	r0, r5
 2894              		.loc 1 1229 0
 2895 00a0 02B0     		add	sp, sp, #8
 2896              		.cfi_remember_state
 2897              		.cfi_def_cfa_offset 32
 2898              		@ sp needed
 2899 00a2 BDE8F047 		pop	{r4, r5, r6, r7, r8, r9, r10, lr}
 2900              		.cfi_restore 14
 2901              		.cfi_restore 10
ARM GAS  C:\Users\jo\AppData\Local\Temp\ccnOsBUt.s 			page 52


 2902              		.cfi_restore 9
 2903              		.cfi_restore 8
 2904              		.cfi_restore 7
 2905              		.cfi_restore 6
 2906              		.cfi_restore 5
 2907              		.cfi_restore 4
 2908              		.cfi_def_cfa_offset 0
 2909              	.LVL325:
 2910              		.loc 1 1227 0
 2911 00a6 FFF7FEBF 		b	pbuf_free
 2912              	.LVL326:
 2913              	.L354:
 2914              		.cfi_restore_state
 2915              		.loc 1 1206 0 discriminator 1
 2916 00aa 084B     		ldr	r3, .L355
 2917 00ac 0093     		str	r3, [sp]
 2918 00ae 0849     		ldr	r1, .L355+4
 2919 00b0 084A     		ldr	r2, .L355+8
 2920 00b2 0948     		ldr	r0, .L355+12
 2921              	.LVL327:
 2922 00b4 40F2B743 		movw	r3, #1207
 2923 00b8 FFF7FEFF 		bl	chprintf.constprop.2
 2924              	.LVL328:
 2925              	.LBB179:
 2926              	.LBB180:
 2927              		.loc 3 414 0 discriminator 1
 2928 00bc 0548     		ldr	r0, .L355+8
 2929 00be FFF7FEFF 		bl	chSysHalt
 2930              	.LVL329:
 2931 00c2 B3E7     		b	.L352
 2932              	.LVL330:
 2933              	.L350:
 2934              	.LBE180:
 2935              	.LBE179:
 2936              		.loc 1 1229 0
 2937 00c4 02B0     		add	sp, sp, #8
 2938              		.cfi_def_cfa_offset 32
 2939              		@ sp needed
 2940 00c6 BDE8F087 		pop	{r4, r5, r6, r7, r8, r9, r10, pc}
 2941              	.LVL331:
 2942              	.L356:
 2943 00ca 00BF     		.align	2
 2944              	.L355:
 2945 00cc 58000000 		.word	.LC2
 2946 00d0 00000000 		.word	.LC0
 2947 00d4 28000000 		.word	.LC1
 2948 00d8 00000000 		.word	itm_port
 2949 00dc 00000000 		.word	lwip_stats
 2950              		.cfi_endproc
 2951              	.LFE266:
 2952              		.size	tcp_rst, .-tcp_rst
 2953              		.section	.text.tcp_rexmit_rto,"ax",%progbits
 2954              		.align	2
 2955              		.p2align 4,,15
 2956              		.global	tcp_rexmit_rto
 2957              		.thumb
 2958              		.thumb_func
ARM GAS  C:\Users\jo\AppData\Local\Temp\ccnOsBUt.s 			page 53


 2959              		.type	tcp_rexmit_rto, %function
 2960              	tcp_rexmit_rto:
 2961              	.LFB267:
 2962              		.loc 1 1240 0
 2963              		.cfi_startproc
 2964              		@ args = 0, pretend = 0, frame = 0
 2965              		@ frame_needed = 0, uses_anonymous_args = 0
 2966              		@ link register save eliminated.
 2967              	.LVL332:
 2968              		.loc 1 1243 0
 2969 0000 016F     		ldr	r1, [r0, #112]
 2970 0002 A1B1     		cbz	r1, .L362
 2971 0004 0A46     		mov	r2, r1
 2972 0006 00E0     		b	.L359
 2973              	.LVL333:
 2974              	.L360:
 2975 0008 1A46     		mov	r2, r3
 2976              	.LVL334:
 2977              	.L359:
 2978              		.loc 1 1248 0 discriminator 1
 2979 000a 1368     		ldr	r3, [r2]
 2980 000c 002B     		cmp	r3, #0
 2981 000e FBD1     		bne	.L360
 2982              		.loc 1 1240 0
 2983 0010 10B4     		push	{r4}
 2984              		.cfi_def_cfa_offset 4
 2985              		.cfi_offset 4, -4
 2986              		.loc 1 1250 0
 2987 0012 C46E     		ldr	r4, [r0, #108]
 2988 0014 1460     		str	r4, [r2]
 2989              		.loc 1 1258 0
 2990 0016 90F84620 		ldrb	r2, [r0, #70]	@ zero_extendqisi2
 2991              	.LVL335:
 2992              		.loc 1 1252 0
 2993 001a C166     		str	r1, [r0, #108]
 2994              		.loc 1 1258 0
 2995 001c 0132     		adds	r2, r2, #1
 2996 001e 80F84620 		strb	r2, [r0, #70]
 2997              		.loc 1 1254 0
 2998 0022 0367     		str	r3, [r0, #112]
 2999              		.loc 1 1261 0
 3000 0024 8363     		str	r3, [r0, #56]
 3001              		.loc 1 1265 0
 3002 0026 5DF8044B 		ldr	r4, [sp], #4
 3003              		.cfi_restore 4
 3004              		.cfi_def_cfa_offset 0
 3005              		.loc 1 1264 0
 3006 002a FFF7FEBF 		b	tcp_output
 3007              	.LVL336:
 3008              	.L362:
 3009 002e 7047     		bx	lr
 3010              		.cfi_endproc
 3011              	.LFE267:
 3012              		.size	tcp_rexmit_rto, .-tcp_rexmit_rto
 3013              		.section	.text.tcp_rexmit,"ax",%progbits
 3014              		.align	2
 3015              		.p2align 4,,15
ARM GAS  C:\Users\jo\AppData\Local\Temp\ccnOsBUt.s 			page 54


 3016              		.global	tcp_rexmit
 3017              		.thumb
 3018              		.thumb_func
 3019              		.type	tcp_rexmit, %function
 3020              	tcp_rexmit:
 3021              	.LFB268:
 3022              		.loc 1 1276 0
 3023              		.cfi_startproc
 3024              		@ args = 0, pretend = 0, frame = 0
 3025              		@ frame_needed = 0, uses_anonymous_args = 0
 3026              	.LVL337:
 3027 0000 F8B5     		push	{r3, r4, r5, r6, r7, lr}
 3028              		.cfi_def_cfa_offset 24
 3029              		.cfi_offset 3, -24
 3030              		.cfi_offset 4, -20
 3031              		.cfi_offset 5, -16
 3032              		.cfi_offset 6, -12
 3033              		.cfi_offset 7, -8
 3034              		.cfi_offset 14, -4
 3035              		.loc 1 1280 0
 3036 0002 066F     		ldr	r6, [r0, #112]
 3037 0004 16B3     		cbz	r6, .L363
 3038              	.LVL338:
 3039              		.loc 1 1290 0
 3040 0006 C36E     		ldr	r3, [r0, #108]
 3041              		.loc 1 1287 0
 3042 0008 3268     		ldr	r2, [r6]
 3043 000a 0267     		str	r2, [r0, #112]
 3044 000c 0746     		mov	r7, r0
 3045              		.loc 1 1289 0
 3046 000e 00F16C05 		add	r5, r0, #108
 3047              	.LVL339:
 3048              		.loc 1 1290 0
 3049 0012 1BB9     		cbnz	r3, .L367
 3050 0014 0FE0     		b	.L366
 3051              	.LVL340:
 3052              	.L368:
 3053              		.loc 1 1292 0
 3054 0016 2D68     		ldr	r5, [r5]
 3055              	.LVL341:
 3056              		.loc 1 1290 0
 3057 0018 2B68     		ldr	r3, [r5]
 3058 001a 63B1     		cbz	r3, .L366
 3059              	.L367:
 3060              		.loc 1 1291 0 discriminator 1
 3061 001c DB68     		ldr	r3, [r3, #12]
 3062 001e 5868     		ldr	r0, [r3, #4]	@ unaligned
 3063 0020 FFF7FEFF 		bl	lwip_ntohl
 3064              	.LVL342:
 3065 0024 F368     		ldr	r3, [r6, #12]
 3066 0026 0446     		mov	r4, r0
 3067 0028 5868     		ldr	r0, [r3, #4]	@ unaligned
 3068 002a FFF7FEFF 		bl	lwip_ntohl
 3069              	.LVL343:
 3070 002e 201A     		subs	r0, r4, r0
 3071              		.loc 1 1290 0 discriminator 1
 3072 0030 0028     		cmp	r0, #0
ARM GAS  C:\Users\jo\AppData\Local\Temp\ccnOsBUt.s 			page 55


 3073 0032 F0DB     		blt	.L368
 3074 0034 2B68     		ldr	r3, [r5]
 3075              	.L366:
 3076              		.loc 1 1294 0
 3077 0036 3360     		str	r3, [r6]
 3078              		.loc 1 1295 0
 3079 0038 2E60     		str	r6, [r5]
 3080              		.loc 1 1297 0
 3081 003a 3368     		ldr	r3, [r6]
 3082 003c 3BB1     		cbz	r3, .L375
 3083              	.L369:
 3084              		.loc 1 1303 0
 3085 003e 97F84630 		ldrb	r3, [r7, #70]	@ zero_extendqisi2
 3086              		.loc 1 1306 0
 3087 0042 0022     		movs	r2, #0
 3088              		.loc 1 1303 0
 3089 0044 0133     		adds	r3, r3, #1
 3090 0046 87F84630 		strb	r3, [r7, #70]
 3091              		.loc 1 1306 0
 3092 004a BA63     		str	r2, [r7, #56]
 3093              	.LVL344:
 3094              	.L363:
 3095 004c F8BD     		pop	{r3, r4, r5, r6, r7, pc}
 3096              	.LVL345:
 3097              	.L375:
 3098              		.loc 1 1299 0
 3099 004e A7F86A30 		strh	r3, [r7, #106]	@ movhi
 3100 0052 F4E7     		b	.L369
 3101              		.cfi_endproc
 3102              	.LFE268:
 3103              		.size	tcp_rexmit, .-tcp_rexmit
 3104 0054 AFF30080 		.section	.text.tcp_rexmit_fast,"ax",%progbits
 3104      AFF30080 
 3104      AFF30080 
 3105              		.align	2
 3106              		.p2align 4,,15
 3107              		.global	tcp_rexmit_fast
 3108              		.thumb
 3109              		.thumb_func
 3110              		.type	tcp_rexmit_fast, %function
 3111              	tcp_rexmit_fast:
 3112              	.LFB269:
 3113              		.loc 1 1322 0
 3114              		.cfi_startproc
 3115              		@ args = 0, pretend = 0, frame = 0
 3116              		@ frame_needed = 0, uses_anonymous_args = 0
 3117              	.LVL346:
 3118              		.loc 1 1323 0
 3119 0000 026F     		ldr	r2, [r0, #112]
 3120 0002 12B1     		cbz	r2, .L385
 3121              		.loc 1 1323 0 is_stmt 0 discriminator 1
 3122 0004 827F     		ldrb	r2, [r0, #30]	@ zero_extendqisi2
 3123 0006 5207     		lsls	r2, r2, #29
 3124 0008 00D5     		bpl	.L386
 3125              	.L385:
 3126 000a 7047     		bx	lr
 3127              	.L386:
ARM GAS  C:\Users\jo\AppData\Local\Temp\ccnOsBUt.s 			page 56


 3128              		.loc 1 1322 0 is_stmt 1
 3129 000c 10B5     		push	{r4, lr}
 3130              		.cfi_def_cfa_offset 8
 3131              		.cfi_offset 4, -8
 3132              		.cfi_offset 14, -4
 3133 000e 0446     		mov	r4, r0
 3134              		.loc 1 1330 0
 3135 0010 FFF7FEFF 		bl	tcp_rexmit
 3136              	.LVL347:
 3137              		.loc 1 1334 0
 3138 0014 B4F86020 		ldrh	r2, [r4, #96]
 3139 0018 B4F84C30 		ldrh	r3, [r4, #76]
 3140              		.loc 1 1341 0
 3141 001c E08E     		ldrh	r0, [r4, #54]
 3142              		.loc 1 1350 0
 3143 001e A17F     		ldrb	r1, [r4, #30]	@ zero_extendqisi2
 3144              		.loc 1 1334 0
 3145 0020 9342     		cmp	r3, r2
 3146              		.loc 1 1337 0
 3147 0022 94BF     		ite	ls
 3148 0024 5A08     		lsrls	r2, r3, #1
 3149              		.loc 1 1335 0
 3150 0026 5208     		lsrhi	r2, r2, #1
 3151              		.loc 1 1341 0
 3152 0028 4300     		lsls	r3, r0, #1
 3153 002a 9A42     		cmp	r2, r3
 3154              		.loc 1 1337 0
 3155 002c A4F84E20 		strh	r2, [r4, #78]	@ movhi
 3156              		.loc 1 1346 0
 3157 0030 B8BF     		it	lt
 3158 0032 9AB2     		uxthlt	r2, r3
 3159              		.loc 1 1349 0
 3160 0034 0344     		add	r3, r3, r0
 3161 0036 1344     		add	r3, r3, r2
 3162              		.loc 1 1346 0
 3163 0038 B8BF     		it	lt
 3164 003a A4F84E20 		strhlt	r2, [r4, #78]	@ movhi
 3165              		.loc 1 1350 0
 3166 003e 41F00402 		orr	r2, r1, #4
 3167 0042 A277     		strb	r2, [r4, #30]
 3168              		.loc 1 1349 0
 3169 0044 A4F84C30 		strh	r3, [r4, #76]	@ movhi
 3170 0048 10BD     		pop	{r4, pc}
 3171              		.cfi_endproc
 3172              	.LFE269:
 3173              		.size	tcp_rexmit_fast, .-tcp_rexmit_fast
 3174 004a 00BFAFF3 		.section	.text.tcp_keepalive,"ax",%progbits
 3174      0080
 3175              		.align	2
 3176              		.p2align 4,,15
 3177              		.global	tcp_keepalive
 3178              		.thumb
 3179              		.thumb_func
 3180              		.type	tcp_keepalive, %function
 3181              	tcp_keepalive:
 3182              	.LFB270:
 3183              		.loc 1 1365 0
ARM GAS  C:\Users\jo\AppData\Local\Temp\ccnOsBUt.s 			page 57


 3184              		.cfi_startproc
 3185              		@ args = 0, pretend = 0, frame = 0
 3186              		@ frame_needed = 0, uses_anonymous_args = 0
 3187              	.LVL348:
 3188 0000 F0B5     		push	{r4, r5, r6, r7, lr}
 3189              		.cfi_def_cfa_offset 20
 3190              		.cfi_offset 4, -20
 3191              		.cfi_offset 5, -16
 3192              		.cfi_offset 6, -12
 3193              		.cfi_offset 7, -8
 3194              		.cfi_offset 14, -4
 3195 0002 0446     		mov	r4, r0
 3196              		.loc 1 1376 0
 3197 0004 006D     		ldr	r0, [r0, #80]
 3198              	.LVL349:
 3199              		.loc 1 1365 0
 3200 0006 83B0     		sub	sp, sp, #12
 3201              		.cfi_def_cfa_offset 32
 3202              		.loc 1 1376 0
 3203 0008 0138     		subs	r0, r0, #1
 3204 000a FFF7FEFF 		bl	lwip_htonl
 3205              	.LVL350:
 3206 000e 0021     		movs	r1, #0
 3207 0010 0246     		mov	r2, r0
 3208 0012 2046     		mov	r0, r4
 3209 0014 FFF7FEFF 		bl	tcp_output_alloc_header.constprop.1
 3210              	.LVL351:
 3211              		.loc 1 1377 0
 3212 0018 00B3     		cbz	r0, .L387
 3213              		.loc 1 1385 0
 3214 001a 261D     		adds	r6, r4, #4
 3215 001c 0389     		ldrh	r3, [r0, #8]
 3216              		.loc 1 1382 0
 3217 001e 4768     		ldr	r7, [r0, #4]
 3218              	.LVL352:
 3219              		.loc 1 1385 0
 3220 0020 0093     		str	r3, [sp]
 3221 0022 3246     		mov	r2, r6
 3222 0024 2146     		mov	r1, r4
 3223 0026 0623     		movs	r3, #6
 3224 0028 0546     		mov	r5, r0
 3225 002a FFF7FEFF 		bl	inet_chksum_pseudo
 3226              	.LVL353:
 3227              		.loc 1 1388 0
 3228 002e 0C4A     		ldr	r2, .L390
 3229              		.loc 1 1385 0
 3230 0030 3882     		strh	r0, [r7, #16]	@ unaligned
 3231              		.loc 1 1388 0
 3232 0032 B2F89030 		ldrh	r3, [r2, #144]
 3233 0036 0133     		adds	r3, r3, #1
 3234 0038 A2F89030 		strh	r3, [r2, #144]	@ movhi
 3235              		.loc 1 1395 0
 3236 003c 0027     		movs	r7, #0
 3237              	.LVL354:
 3238 003e 0620     		movs	r0, #6
 3239 0040 A37A     		ldrb	r3, [r4, #10]	@ zero_extendqisi2
 3240 0042 0190     		str	r0, [sp, #4]
ARM GAS  C:\Users\jo\AppData\Local\Temp\ccnOsBUt.s 			page 58


 3241 0044 3246     		mov	r2, r6
 3242 0046 2146     		mov	r1, r4
 3243 0048 0097     		str	r7, [sp]
 3244 004a 2846     		mov	r0, r5
 3245 004c FFF7FEFF 		bl	ip_output
 3246              	.LVL355:
 3247              		.loc 1 1398 0
 3248 0050 2846     		mov	r0, r5
 3249              		.loc 1 1402 0
 3250 0052 03B0     		add	sp, sp, #12
 3251              		.cfi_remember_state
 3252              		.cfi_def_cfa_offset 20
 3253              		@ sp needed
 3254 0054 BDE8F040 		pop	{r4, r5, r6, r7, lr}
 3255              		.cfi_restore 14
 3256              		.cfi_restore 7
 3257              		.cfi_restore 6
 3258              		.cfi_restore 5
 3259              		.cfi_restore 4
 3260              		.cfi_def_cfa_offset 0
 3261              	.LVL356:
 3262              		.loc 1 1398 0
 3263 0058 FFF7FEBF 		b	pbuf_free
 3264              	.LVL357:
 3265              	.L387:
 3266              		.cfi_restore_state
 3267              		.loc 1 1402 0
 3268 005c 03B0     		add	sp, sp, #12
 3269              		.cfi_def_cfa_offset 20
 3270              		@ sp needed
 3271 005e F0BD     		pop	{r4, r5, r6, r7, pc}
 3272              	.LVL358:
 3273              	.L391:
 3274              		.align	2
 3275              	.L390:
 3276 0060 00000000 		.word	lwip_stats
 3277              		.cfi_endproc
 3278              	.LFE270:
 3279              		.size	tcp_keepalive, .-tcp_keepalive
 3280 0064 AFF30080 		.section	.text.tcp_zero_window_probe,"ax",%progbits
 3280      AFF30080 
 3280      AFF30080 
 3281              		.align	2
 3282              		.p2align 4,,15
 3283              		.global	tcp_zero_window_probe
 3284              		.thumb
 3285              		.thumb_func
 3286              		.type	tcp_zero_window_probe, %function
 3287              	tcp_zero_window_probe:
 3288              	.LFB271:
 3289              		.loc 1 1415 0
 3290              		.cfi_startproc
 3291              		@ args = 0, pretend = 0, frame = 0
 3292              		@ frame_needed = 0, uses_anonymous_args = 0
 3293              	.LVL359:
 3294 0000 F0B5     		push	{r4, r5, r6, r7, lr}
 3295              		.cfi_def_cfa_offset 20
ARM GAS  C:\Users\jo\AppData\Local\Temp\ccnOsBUt.s 			page 59


 3296              		.cfi_offset 4, -20
 3297              		.cfi_offset 5, -16
 3298              		.cfi_offset 6, -12
 3299              		.cfi_offset 7, -8
 3300              		.cfi_offset 14, -4
 3301              		.loc 1 1433 0
 3302 0002 066F     		ldr	r6, [r0, #112]
 3303              	.LVL360:
 3304              		.loc 1 1415 0
 3305 0004 83B0     		sub	sp, sp, #12
 3306              		.cfi_def_cfa_offset 32
 3307              		.loc 1 1435 0
 3308 0006 002E     		cmp	r6, #0
 3309 0008 4FD0     		beq	.L413
 3310              	.L393:
 3311              		.loc 1 1442 0
 3312 000a F368     		ldr	r3, [r6, #12]
 3313 000c 0446     		mov	r4, r0
 3314 000e 9889     		ldrh	r0, [r3, #12]	@ unaligned
 3315              	.LVL361:
 3316 0010 FFF7FEFF 		bl	lwip_ntohs
 3317              	.LVL362:
 3318 0014 C307     		lsls	r3, r0, #31
 3319 0016 33D4     		bmi	.L414
 3320              	.L395:
 3321              	.LVL363:
 3322              		.loc 1 1446 0
 3323 0018 F368     		ldr	r3, [r6, #12]
 3324 001a 2046     		mov	r0, r4
 3325 001c 5A68     		ldr	r2, [r3, #4]	@ unaligned
 3326 001e 0121     		movs	r1, #1
 3327 0020 FFF7FEFF 		bl	tcp_output_alloc_header.constprop.1
 3328              	.LVL364:
 3329              		.loc 1 1447 0
 3330 0024 0546     		mov	r5, r0
 3331 0026 0028     		cmp	r0, #0
 3332 0028 42D0     		beq	.L392
 3333              	.LBB181:
 3334              		.loc 1 1462 0
 3335 002a 7068     		ldr	r0, [r6, #4]
 3336              	.LVL365:
 3337 002c 3289     		ldrh	r2, [r6, #8]
 3338 002e 0389     		ldrh	r3, [r0, #8]
 3339              	.LBE181:
 3340              		.loc 1 1451 0
 3341 0030 6F68     		ldr	r7, [r5, #4]
 3342              	.LVL366:
 3343              	.LBB182:
 3344              		.loc 1 1462 0
 3345 0032 9B1A     		subs	r3, r3, r2
 3346 0034 9BB2     		uxth	r3, r3
 3347 0036 07F11401 		add	r1, r7, #20
 3348              	.LVL367:
 3349 003a 0122     		movs	r2, #1
 3350 003c FFF7FEFF 		bl	pbuf_copy_partial
 3351              	.LVL368:
 3352              	.L397:
ARM GAS  C:\Users\jo\AppData\Local\Temp\ccnOsBUt.s 			page 60


 3353              	.LBE182:
 3354              		.loc 1 1466 0
 3355 0040 2B89     		ldrh	r3, [r5, #8]
 3356 0042 0093     		str	r3, [sp]
 3357 0044 261D     		adds	r6, r4, #4
 3358 0046 3246     		mov	r2, r6
 3359 0048 2146     		mov	r1, r4
 3360 004a 2846     		mov	r0, r5
 3361 004c 0623     		movs	r3, #6
 3362 004e FFF7FEFF 		bl	inet_chksum_pseudo
 3363              	.LVL369:
 3364              		.loc 1 1469 0
 3365 0052 184A     		ldr	r2, .L415
 3366              		.loc 1 1466 0
 3367 0054 3882     		strh	r0, [r7, #16]	@ unaligned
 3368              		.loc 1 1469 0
 3369 0056 B2F89030 		ldrh	r3, [r2, #144]
 3370 005a 0133     		adds	r3, r3, #1
 3371 005c A2F89030 		strh	r3, [r2, #144]	@ movhi
 3372              		.loc 1 1476 0
 3373 0060 0027     		movs	r7, #0
 3374              	.LVL370:
 3375 0062 0620     		movs	r0, #6
 3376 0064 A37A     		ldrb	r3, [r4, #10]	@ zero_extendqisi2
 3377 0066 0190     		str	r0, [sp, #4]
 3378 0068 3246     		mov	r2, r6
 3379 006a 2146     		mov	r1, r4
 3380 006c 0097     		str	r7, [sp]
 3381 006e 2846     		mov	r0, r5
 3382 0070 FFF7FEFF 		bl	ip_output
 3383              	.LVL371:
 3384              		.loc 1 1479 0
 3385 0074 2846     		mov	r0, r5
 3386              		.loc 1 1484 0
 3387 0076 03B0     		add	sp, sp, #12
 3388              		.cfi_remember_state
 3389              		.cfi_def_cfa_offset 20
 3390              		@ sp needed
 3391 0078 BDE8F040 		pop	{r4, r5, r6, r7, lr}
 3392              		.cfi_restore 14
 3393              		.cfi_restore 7
 3394              		.cfi_restore 6
 3395              		.cfi_restore 5
 3396              		.cfi_restore 4
 3397              		.cfi_def_cfa_offset 0
 3398              	.LVL372:
 3399              		.loc 1 1479 0
 3400 007c FFF7FEBF 		b	pbuf_free
 3401              	.LVL373:
 3402              	.L414:
 3403              		.cfi_restore_state
 3404              		.loc 1 1442 0 discriminator 1
 3405 0080 3189     		ldrh	r1, [r6, #8]
 3406 0082 0029     		cmp	r1, #0
 3407 0084 C8D1     		bne	.L395
 3408              	.LVL374:
 3409              		.loc 1 1446 0
ARM GAS  C:\Users\jo\AppData\Local\Temp\ccnOsBUt.s 			page 61


 3410 0086 F368     		ldr	r3, [r6, #12]
 3411 0088 2046     		mov	r0, r4
 3412 008a 5A68     		ldr	r2, [r3, #4]	@ unaligned
 3413 008c FFF7FEFF 		bl	tcp_output_alloc_header.constprop.1
 3414              	.LVL375:
 3415              		.loc 1 1447 0
 3416 0090 0546     		mov	r5, r0
 3417 0092 68B1     		cbz	r0, .L392
 3418              		.loc 1 1451 0
 3419 0094 6F68     		ldr	r7, [r5, #4]
 3420              	.LVL376:
 3421              		.loc 1 1455 0
 3422 0096 1120     		movs	r0, #17
 3423              	.LVL377:
 3424 0098 BE89     		ldrh	r6, [r7, #12]	@ unaligned
 3425              	.LVL378:
 3426 009a FFF7FEFF 		bl	lwip_htons
 3427              	.LVL379:
 3428 009e 26F47C56 		bic	r6, r6, #16128
 3429 00a2 B6B2     		uxth	r6, r6
 3430 00a4 3043     		orrs	r0, r0, r6
 3431 00a6 B881     		strh	r0, [r7, #12]	@ unaligned
 3432 00a8 CAE7     		b	.L397
 3433              	.LVL380:
 3434              	.L413:
 3435              		.loc 1 1436 0
 3436 00aa C66E     		ldr	r6, [r0, #108]
 3437              	.LVL381:
 3438              		.loc 1 1438 0
 3439 00ac 002E     		cmp	r6, #0
 3440 00ae ACD1     		bne	.L393
 3441              	.LVL382:
 3442              	.L392:
 3443              		.loc 1 1484 0
 3444 00b0 03B0     		add	sp, sp, #12
 3445              		.cfi_def_cfa_offset 20
 3446              		@ sp needed
 3447 00b2 F0BD     		pop	{r4, r5, r6, r7, pc}
 3448              	.LVL383:
 3449              	.L416:
 3450              		.align	2
 3451              	.L415:
 3452 00b4 00000000 		.word	lwip_stats
 3453              		.cfi_endproc
 3454              	.LFE271:
 3455              		.size	tcp_zero_window_probe, .-tcp_zero_window_probe
 3456 00b8 AFF30080 		.section	.rodata.str1.4,"aMS",%progbits,1
 3456      AFF30080 
 3457              		.align	2
 3458              	.LC0:
 3459 0000 41737365 		.ascii	"Assertion \"%s\" failed at line %d in %s\012\000"
 3459      7274696F 
 3459      6E202225 
 3459      73222066 
 3459      61696C65 
 3460              	.LC1:
 3461 0028 63686563 		.ascii	"check that first pbuf can hold struct tcp_hdr\000"
ARM GAS  C:\Users\jo\AppData\Local\Temp\ccnOsBUt.s 			page 62


 3461      6B207468 
 3461      61742066 
 3461      69727374 
 3461      20706275 
 3462 0056 0000     		.space	2
 3463              	.LC2:
 3464 0058 2E2E2F2E 		.ascii	"../../../os/ext/lwip-1.4.1/src/core/tcp_out.c\000"
 3464      2E2F2E2E 
 3464      2F6F732F 
 3464      6578742F 
 3464      6C776970 
 3465 0086 0000     		.space	2
 3466              	.LC3:
 3467 0088 6E656564 		.ascii	"need unchained pbuf\000"
 3467      20756E63 
 3467      6861696E 
 3467      65642070 
 3467      62756600 
 3468              	.LC4:
 3469 009c 7463705F 		.ascii	"tcp_write: arg == NULL (programmer violates API)\000"
 3469      77726974 
 3469      653A2061 
 3469      7267203D 
 3469      3D204E55 
 3470 00cd 000000   		.space	3
 3471              	.LC5:
 3472 00d0 7463705F 		.ascii	"tcp_write: pbufs on queue => at least one queue non"
 3472      77726974 
 3472      653A2070 
 3472      62756673 
 3472      206F6E20 
 3473 0103 2D656D70 		.ascii	"-empty\000"
 3473      747900
 3474 010a 0000     		.space	2
 3475              	.LC6:
 3476 010c 7463705F 		.ascii	"tcp_write: no pbufs on queue => both queues empty\000"
 3476      77726974 
 3476      653A206E 
 3476      6F207062 
 3476      75667320 
 3477 013e 0000     		.space	2
 3478              	.LC7:
 3479 0140 696E636F 		.ascii	"inconsistend oversize vs. len\000"
 3479      6E736973 
 3479      74656E64 
 3479      206F7665 
 3479      7273697A 
 3480 015e 0000     		.space	2
 3481              	.LC8:
 3482 0160 756E7365 		.ascii	"unsent_oversize mismatch (pcb->unsent is NULL)\000"
 3482      6E745F6F 
 3482      76657273 
 3482      697A6520 
 3482      6D69736D 
 3483 018f 00       		.space	1
 3484              	.LC9:
 3485 0190 7463705F 		.ascii	"tcp_write: check that first pbuf can hold the compl"
ARM GAS  C:\Users\jo\AppData\Local\Temp\ccnOsBUt.s 			page 63


 3485      77726974 
 3485      653A2063 
 3485      6865636B 
 3485      20746861 
 3486 01c3 65746520 		.ascii	"ete seglen\000"
 3486      7365676C 
 3486      656E00
 3487 01ce 0000     		.space	2
 3488              	.LC10:
 3489 01d0 6F766572 		.ascii	"oversize == 0\000"
 3489      73697A65 
 3489      203D3D20 
 3489      3000
 3490 01de 0000     		.space	2
 3491              	.LC11:
 3492 01e0 70726576 		.ascii	"prev_seg != NULL\000"
 3492      5F736567 
 3492      20213D20 
 3492      4E554C4C 
 3492      00
 3493 01f1 000000   		.space	3
 3494              	.LC12:
 3495 01f4 7463705F 		.ascii	"tcp_write: cannot concatenate when pcb->unsent is e"
 3495      77726974 
 3495      653A2063 
 3495      616E6E6F 
 3495      7420636F 
 3496 0227 6D707479 		.ascii	"mpty\000"
 3496      00
 3497              	.LC13:
 3498 022c 7463705F 		.ascii	"tcp_write: valid queue length\000"
 3498      77726974 
 3498      653A2076 
 3498      616C6964 
 3498      20717565 
 3499 024a 0000     		.space	2
 3500              	.LC14:
 3501 024c 7463705F 		.ascii	"tcp_enqueue_flags: need either TCP_SYN or TCP_FIN i"
 3501      656E7175 
 3501      6575655F 
 3501      666C6167 
 3501      733A206E 
 3502 027f 6E20666C 		.ascii	"n flags (programmer violates API)\000"
 3502      61677320 
 3502      2870726F 
 3502      6772616D 
 3502      6D657220 
 3503 02a1 000000   		.space	3
 3504              	.LC15:
 3505 02a4 7463705F 		.ascii	"tcp_enqueue_flags: check that first pbuf can hold o"
 3505      656E7175 
 3505      6575655F 
 3505      666C6167 
 3505      733A2063 
 3506 02d7 70746C65 		.ascii	"ptlen\000"
 3506      6E00
 3507 02dd 000000   		.space	3
ARM GAS  C:\Users\jo\AppData\Local\Temp\ccnOsBUt.s 			page 64


 3508              	.LC16:
 3509 02e0 7365672D 		.ascii	"seg->tcphdr not aligned\000"
 3509      3E746370 
 3509      68647220 
 3509      6E6F7420 
 3509      616C6967 
 3510              	.LC17:
 3511 02f8 7463705F 		.ascii	"tcp_enqueue_flags: invalid segment length\000"
 3511      656E7175 
 3511      6575655F 
 3511      666C6167 
 3511      733A2069 
 3512 0322 0000     		.space	2
 3513              	.LC18:
 3514 0324 7463705F 		.ascii	"tcp_enqueue_flags: invalid queue length\000"
 3514      656E7175 
 3514      6575655F 
 3514      666C6167 
 3514      733A2069 
 3515              	.LC19:
 3516 034c 646F6E27 		.ascii	"don't call tcp_output for listen-pcbs\000"
 3516      74206361 
 3516      6C6C2074 
 3516      63705F6F 
 3516      75747075 
 3517 0372 0000     		.space	2
 3518              	.LC20:
 3519 0374 52535420 		.ascii	"RST not expected here!\000"
 3519      6E6F7420 
 3519      65787065 
 3519      63746564 
 3519      20686572 
 3520 038b 00       		.text
 3521              	.Letext0:
 3522              		.file 4 "c:\\program files\\gnu tools arm embedded\\4.9 2014q4\\lib\\gcc\\arm-none-eabi\\4.9.3\\in
 3523              		.file 5 "c:\\program files\\gnu tools arm embedded\\4.9 2014q4\\arm-none-eabi\\include\\machine\\_
 3524              		.file 6 "c:\\program files\\gnu tools arm embedded\\4.9 2014q4\\arm-none-eabi\\include\\stdint.h"
 3525              		.file 7 "../../../os/rt/ports/ARMCMx/compilers/GCC/chtypes.h"
 3526              		.file 8 "../../../os/rt/include/chsystypes.h"
 3527              		.file 9 "../../../os/rt/include/chschd.h"
 3528              		.file 10 "../../../os/rt/ports/ARMCMx/chcore.h"
 3529              		.file 11 "../../../os/rt/ports/ARMCMx/chcore_v7m.h"
 3530              		.file 12 "c:\\program files\\gnu tools arm embedded\\4.9 2014q4\\lib\\gcc\\arm-none-eabi\\4.9.3\\i
 3531              		.file 13 "<built-in>"
 3532              		.file 14 "../../../os/rt/include/chtm.h"
 3533              		.file 15 "../../../os/rt/include/chmtx.h"
 3534              		.file 16 "../../../os/rt/include/chstreams.h"
 3535              		.file 17 "./ITM_trace.h"
 3536              		.file 18 "../../../os/various/lwip_bindings/arch/cc.h"
 3537              		.file 19 "../../../os/ext/lwip-1.4.1/src/include/lwip/mem.h"
 3538              		.file 20 "../../../os/ext/lwip-1.4.1/src/include/lwip/err.h"
 3539              		.file 21 "../../../os/ext/lwip-1.4.1/src/include/lwip/pbuf.h"
 3540              		.file 22 "../../../os/ext/lwip-1.4.1/src/include/ipv4/lwip/ip_addr.h"
 3541              		.file 23 "../../../os/ext/lwip-1.4.1/src/include/lwip/netif.h"
 3542              		.file 24 "../../../os/ext/lwip-1.4.1/src/include/lwip/tcp.h"
 3543              		.file 25 "../../../os/ext/lwip-1.4.1/src/include/lwip/tcp_impl.h"
 3544              		.file 26 "../../../os/ext/lwip-1.4.1/src/include/lwip/memp.h"
ARM GAS  C:\Users\jo\AppData\Local\Temp\ccnOsBUt.s 			page 65


 3545              		.file 27 "../../../os/ext/lwip-1.4.1/src/include/lwip/stats.h"
 3546              		.file 28 "../../../os/ext/CMSIS/include/core_cm4.h"
 3547              		.file 29 "../../../os/ext/lwip-1.4.1/src/include/lwip/def.h"
 3548              		.file 30 "../../../os/rt/include/chsys.h"
 3549              		.file 31 "../../../os/ext/lwip-1.4.1/src/include/ipv4/lwip/inet_chksum.h"
 3550              		.file 32 "../../../os/ext/lwip-1.4.1/src/include/ipv4/lwip/ip.h"
 3551              		.section	.debug_info,"",%progbits
 3552              	.Ldebug_info0:
 3553 0000 1B2D0000 		.4byte	0x2d1b
 3554 0004 0400     		.2byte	0x4
 3555 0006 00000000 		.4byte	.Ldebug_abbrev0
 3556 000a 04       		.byte	0x4
 3557 000b 01       		.uleb128 0x1
 3558 000c 3A0C0000 		.4byte	.LASF334
 3559 0010 01       		.byte	0x1
 3560 0011 510E0000 		.4byte	.LASF335
 3561 0015 DC010000 		.4byte	.LASF336
 3562 0019 80010000 		.4byte	.Ldebug_ranges0+0x180
 3563 001d 00000000 		.4byte	0
 3564 0021 00000000 		.4byte	.Ldebug_line0
 3565 0025 02       		.uleb128 0x2
 3566 0026 04       		.byte	0x4
 3567 0027 05       		.byte	0x5
 3568 0028 696E7400 		.ascii	"int\000"
 3569 002c 03       		.uleb128 0x3
 3570 002d FF070000 		.4byte	.LASF1
 3571 0031 04       		.byte	0x4
 3572 0032 D4       		.byte	0xd4
 3573 0033 37000000 		.4byte	0x37
 3574 0037 04       		.uleb128 0x4
 3575 0038 04       		.byte	0x4
 3576 0039 07       		.byte	0x7
 3577 003a 0B010000 		.4byte	.LASF0
 3578 003e 03       		.uleb128 0x3
 3579 003f A10D0000 		.4byte	.LASF2
 3580 0043 05       		.byte	0x5
 3581 0044 1B       		.byte	0x1b
 3582 0045 49000000 		.4byte	0x49
 3583 0049 04       		.uleb128 0x4
 3584 004a 01       		.byte	0x1
 3585 004b 06       		.byte	0x6
 3586 004c 530D0000 		.4byte	.LASF3
 3587 0050 03       		.uleb128 0x3
 3588 0051 CE090000 		.4byte	.LASF4
 3589 0055 05       		.byte	0x5
 3590 0056 1D       		.byte	0x1d
 3591 0057 5B000000 		.4byte	0x5b
 3592 005b 04       		.uleb128 0x4
 3593 005c 01       		.byte	0x1
 3594 005d 08       		.byte	0x8
 3595 005e 2A0B0000 		.4byte	.LASF5
 3596 0062 03       		.uleb128 0x3
 3597 0063 C6060000 		.4byte	.LASF6
 3598 0067 05       		.byte	0x5
 3599 0068 29       		.byte	0x29
 3600 0069 6D000000 		.4byte	0x6d
 3601 006d 04       		.uleb128 0x4
ARM GAS  C:\Users\jo\AppData\Local\Temp\ccnOsBUt.s 			page 66


 3602 006e 02       		.byte	0x2
 3603 006f 05       		.byte	0x5
 3604 0070 8C080000 		.4byte	.LASF7
 3605 0074 03       		.uleb128 0x3
 3606 0075 BB030000 		.4byte	.LASF8
 3607 0079 05       		.byte	0x5
 3608 007a 2B       		.byte	0x2b
 3609 007b 7F000000 		.4byte	0x7f
 3610 007f 04       		.uleb128 0x4
 3611 0080 02       		.byte	0x2
 3612 0081 07       		.byte	0x7
 3613 0082 670D0000 		.4byte	.LASF9
 3614 0086 03       		.uleb128 0x3
 3615 0087 69010000 		.4byte	.LASF10
 3616 008b 05       		.byte	0x5
 3617 008c 3F       		.byte	0x3f
 3618 008d 91000000 		.4byte	0x91
 3619 0091 04       		.uleb128 0x4
 3620 0092 04       		.byte	0x4
 3621 0093 05       		.byte	0x5
 3622 0094 C1080000 		.4byte	.LASF11
 3623 0098 03       		.uleb128 0x3
 3624 0099 DB050000 		.4byte	.LASF12
 3625 009d 05       		.byte	0x5
 3626 009e 41       		.byte	0x41
 3627 009f A3000000 		.4byte	0xa3
 3628 00a3 04       		.uleb128 0x4
 3629 00a4 04       		.byte	0x4
 3630 00a5 07       		.byte	0x7
 3631 00a6 710A0000 		.4byte	.LASF13
 3632 00aa 04       		.uleb128 0x4
 3633 00ab 08       		.byte	0x8
 3634 00ac 05       		.byte	0x5
 3635 00ad A5050000 		.4byte	.LASF14
 3636 00b1 03       		.uleb128 0x3
 3637 00b2 BF040000 		.4byte	.LASF15
 3638 00b6 05       		.byte	0x5
 3639 00b7 5B       		.byte	0x5b
 3640 00b8 BC000000 		.4byte	0xbc
 3641 00bc 04       		.uleb128 0x4
 3642 00bd 08       		.byte	0x8
 3643 00be 07       		.byte	0x7
 3644 00bf 81030000 		.4byte	.LASF16
 3645 00c3 03       		.uleb128 0x3
 3646 00c4 F6040000 		.4byte	.LASF17
 3647 00c8 06       		.byte	0x6
 3648 00c9 14       		.byte	0x14
 3649 00ca 3E000000 		.4byte	0x3e
 3650 00ce 03       		.uleb128 0x3
 3651 00cf EB050000 		.4byte	.LASF18
 3652 00d3 06       		.byte	0x6
 3653 00d4 15       		.byte	0x15
 3654 00d5 50000000 		.4byte	0x50
 3655 00d9 03       		.uleb128 0x3
 3656 00da 5C030000 		.4byte	.LASF19
 3657 00de 06       		.byte	0x6
 3658 00df 20       		.byte	0x20
ARM GAS  C:\Users\jo\AppData\Local\Temp\ccnOsBUt.s 			page 67


 3659 00e0 62000000 		.4byte	0x62
 3660 00e4 03       		.uleb128 0x3
 3661 00e5 DB070000 		.4byte	.LASF20
 3662 00e9 06       		.byte	0x6
 3663 00ea 21       		.byte	0x21
 3664 00eb 74000000 		.4byte	0x74
 3665 00ef 03       		.uleb128 0x3
 3666 00f0 A80A0000 		.4byte	.LASF21
 3667 00f4 06       		.byte	0x6
 3668 00f5 2C       		.byte	0x2c
 3669 00f6 86000000 		.4byte	0x86
 3670 00fa 03       		.uleb128 0x3
 3671 00fb D0020000 		.4byte	.LASF22
 3672 00ff 06       		.byte	0x6
 3673 0100 2D       		.byte	0x2d
 3674 0101 98000000 		.4byte	0x98
 3675 0105 03       		.uleb128 0x3
 3676 0106 F20B0000 		.4byte	.LASF23
 3677 010a 06       		.byte	0x6
 3678 010b 39       		.byte	0x39
 3679 010c B1000000 		.4byte	0xb1
 3680 0110 05       		.uleb128 0x5
 3681 0111 EF000000 		.4byte	0xef
 3682 0115 03       		.uleb128 0x3
 3683 0116 1E080000 		.4byte	.LASF24
 3684 011a 07       		.byte	0x7
 3685 011b 45       		.byte	0x45
 3686 011c FA000000 		.4byte	0xfa
 3687 0120 03       		.uleb128 0x3
 3688 0121 99070000 		.4byte	.LASF25
 3689 0125 07       		.byte	0x7
 3690 0126 48       		.byte	0x48
 3691 0127 CE000000 		.4byte	0xce
 3692 012b 03       		.uleb128 0x3
 3693 012c 9C050000 		.4byte	.LASF26
 3694 0130 07       		.byte	0x7
 3695 0131 49       		.byte	0x49
 3696 0132 CE000000 		.4byte	0xce
 3697 0136 03       		.uleb128 0x3
 3698 0137 690A0000 		.4byte	.LASF27
 3699 013b 07       		.byte	0x7
 3700 013c 4A       		.byte	0x4a
 3701 013d CE000000 		.4byte	0xce
 3702 0141 03       		.uleb128 0x3
 3703 0142 38030000 		.4byte	.LASF28
 3704 0146 07       		.byte	0x7
 3705 0147 4C       		.byte	0x4c
 3706 0148 FA000000 		.4byte	0xfa
 3707 014c 03       		.uleb128 0x3
 3708 014d A0060000 		.4byte	.LASF29
 3709 0151 07       		.byte	0x7
 3710 0152 4D       		.byte	0x4d
 3711 0153 EF000000 		.4byte	0xef
 3712 0157 03       		.uleb128 0x3
 3713 0158 EB020000 		.4byte	.LASF30
 3714 015c 07       		.byte	0x7
 3715 015d 4F       		.byte	0x4f
ARM GAS  C:\Users\jo\AppData\Local\Temp\ccnOsBUt.s 			page 68


 3716 015e FA000000 		.4byte	0xfa
 3717 0162 03       		.uleb128 0x3
 3718 0163 D5000000 		.4byte	.LASF31
 3719 0167 08       		.byte	0x8
 3720 0168 33       		.byte	0x33
 3721 0169 FA000000 		.4byte	0xfa
 3722 016d 03       		.uleb128 0x3
 3723 016e 2F040000 		.4byte	.LASF32
 3724 0172 08       		.byte	0x8
 3725 0173 3F       		.byte	0x3f
 3726 0174 78010000 		.4byte	0x178
 3727 0178 06       		.uleb128 0x6
 3728 0179 20060000 		.4byte	.LASF51
 3729 017d 44       		.byte	0x44
 3730 017e 09       		.byte	0x9
 3731 017f BE       		.byte	0xbe
 3732 0180 65020000 		.4byte	0x265
 3733 0184 07       		.uleb128 0x7
 3734 0185 38040000 		.4byte	.LASF33
 3735 0189 09       		.byte	0x9
 3736 018a BF       		.byte	0xbf
 3737 018b 49060000 		.4byte	0x649
 3738 018f 00       		.byte	0
 3739 0190 07       		.uleb128 0x7
 3740 0191 590A0000 		.4byte	.LASF34
 3741 0195 09       		.byte	0x9
 3742 0196 C1       		.byte	0xc1
 3743 0197 49060000 		.4byte	0x649
 3744 019b 04       		.byte	0x4
 3745 019c 07       		.uleb128 0x7
 3746 019d 7F000000 		.4byte	.LASF35
 3747 01a1 09       		.byte	0x9
 3748 01a2 C3       		.byte	0xc3
 3749 01a3 41010000 		.4byte	0x141
 3750 01a7 08       		.byte	0x8
 3751 01a8 07       		.uleb128 0x7
 3752 01a9 8D090000 		.4byte	.LASF36
 3753 01ad 09       		.byte	0x9
 3754 01ae C4       		.byte	0xc4
 3755 01af 8F040000 		.4byte	0x48f
 3756 01b3 0C       		.byte	0xc
 3757 01b4 07       		.uleb128 0x7
 3758 01b5 D6030000 		.4byte	.LASF37
 3759 01b9 09       		.byte	0x9
 3760 01ba C6       		.byte	0xc6
 3761 01bb 49060000 		.4byte	0x649
 3762 01bf 10       		.byte	0x10
 3763 01c0 07       		.uleb128 0x7
 3764 01c1 C5050000 		.4byte	.LASF38
 3765 01c5 09       		.byte	0x9
 3766 01c6 C7       		.byte	0xc7
 3767 01c7 49060000 		.4byte	0x649
 3768 01cb 14       		.byte	0x14
 3769 01cc 07       		.uleb128 0x7
 3770 01cd D4070000 		.4byte	.LASF39
 3771 01d1 09       		.byte	0x9
 3772 01d2 CE       		.byte	0xce
ARM GAS  C:\Users\jo\AppData\Local\Temp\ccnOsBUt.s 			page 69


 3773 01d3 1E060000 		.4byte	0x61e
 3774 01d7 18       		.byte	0x18
 3775 01d8 07       		.uleb128 0x7
 3776 01d9 CD050000 		.4byte	.LASF40
 3777 01dd 09       		.byte	0x9
 3778 01de D9       		.byte	0xd9
 3779 01df 2B010000 		.4byte	0x12b
 3780 01e3 1C       		.byte	0x1c
 3781 01e4 07       		.uleb128 0x7
 3782 01e5 B8060000 		.4byte	.LASF41
 3783 01e9 09       		.byte	0x9
 3784 01ea DD       		.byte	0xdd
 3785 01eb 20010000 		.4byte	0x120
 3786 01ef 1D       		.byte	0x1d
 3787 01f0 07       		.uleb128 0x7
 3788 01f1 C60B0000 		.4byte	.LASF42
 3789 01f5 09       		.byte	0x9
 3790 01f6 E2       		.byte	0xe2
 3791 01f7 36010000 		.4byte	0x136
 3792 01fb 1E       		.byte	0x1e
 3793 01fc 08       		.uleb128 0x8
 3794 01fd 705F7500 		.ascii	"p_u\000"
 3795 0201 09       		.byte	0x9
 3796 0202 1401     		.2byte	0x114
 3797 0204 4F060000 		.4byte	0x64f
 3798 0208 20       		.byte	0x20
 3799 0209 09       		.uleb128 0x9
 3800 020a 5F010000 		.4byte	.LASF43
 3801 020e 09       		.byte	0x9
 3802 020f 1901     		.2byte	0x119
 3803 0211 65020000 		.4byte	0x265
 3804 0215 24       		.byte	0x24
 3805 0216 09       		.uleb128 0x9
 3806 0217 830A0000 		.4byte	.LASF44
 3807 021b 09       		.byte	0x9
 3808 021c 1F01     		.2byte	0x11f
 3809 021e 89020000 		.4byte	0x289
 3810 0222 28       		.byte	0x28
 3811 0223 09       		.uleb128 0x9
 3812 0224 7B070000 		.4byte	.LASF45
 3813 0228 09       		.byte	0x9
 3814 0229 2301     		.2byte	0x123
 3815 022b 4C010000 		.4byte	0x14c
 3816 022f 30       		.byte	0x30
 3817 0230 09       		.uleb128 0x9
 3818 0231 A5080000 		.4byte	.LASF46
 3819 0235 09       		.byte	0x9
 3820 0236 2901     		.2byte	0x129
 3821 0238 57010000 		.4byte	0x157
 3822 023c 34       		.byte	0x34
 3823 023d 09       		.uleb128 0x9
 3824 023e 0B060000 		.4byte	.LASF47
 3825 0242 09       		.byte	0x9
 3826 0243 3001     		.2byte	0x130
 3827 0245 B8060000 		.4byte	0x6b8
 3828 0249 38       		.byte	0x38
 3829 024a 09       		.uleb128 0x9
ARM GAS  C:\Users\jo\AppData\Local\Temp\ccnOsBUt.s 			page 70


 3830 024b 6E080000 		.4byte	.LASF48
 3831 024f 09       		.byte	0x9
 3832 0250 3401     		.2byte	0x134
 3833 0252 41010000 		.4byte	0x141
 3834 0256 3C       		.byte	0x3c
 3835 0257 09       		.uleb128 0x9
 3836 0258 03060000 		.4byte	.LASF49
 3837 025c 09       		.byte	0x9
 3838 025d 3A01     		.2byte	0x13a
 3839 025f 3C030000 		.4byte	0x33c
 3840 0263 40       		.byte	0x40
 3841 0264 00       		.byte	0
 3842 0265 03       		.uleb128 0x3
 3843 0266 4A010000 		.4byte	.LASF50
 3844 026a 08       		.byte	0x8
 3845 026b 44       		.byte	0x44
 3846 026c 70020000 		.4byte	0x270
 3847 0270 06       		.uleb128 0x6
 3848 0271 DE0D0000 		.4byte	.LASF52
 3849 0275 04       		.byte	0x4
 3850 0276 09       		.byte	0x9
 3851 0277 AC       		.byte	0xac
 3852 0278 89020000 		.4byte	0x289
 3853 027c 07       		.uleb128 0x7
 3854 027d 38040000 		.4byte	.LASF33
 3855 0281 09       		.byte	0x9
 3856 0282 AD       		.byte	0xad
 3857 0283 49060000 		.4byte	0x649
 3858 0287 00       		.byte	0
 3859 0288 00       		.byte	0
 3860 0289 03       		.uleb128 0x3
 3861 028a 00000000 		.4byte	.LASF53
 3862 028e 08       		.byte	0x8
 3863 028f 4B       		.byte	0x4b
 3864 0290 94020000 		.4byte	0x294
 3865 0294 06       		.uleb128 0x6
 3866 0295 6B060000 		.4byte	.LASF54
 3867 0299 08       		.byte	0x8
 3868 029a 09       		.byte	0x9
 3869 029b B3       		.byte	0xb3
 3870 029c B9020000 		.4byte	0x2b9
 3871 02a0 07       		.uleb128 0x7
 3872 02a1 38040000 		.4byte	.LASF33
 3873 02a5 09       		.byte	0x9
 3874 02a6 B4       		.byte	0xb4
 3875 02a7 49060000 		.4byte	0x649
 3876 02ab 00       		.byte	0
 3877 02ac 07       		.uleb128 0x7
 3878 02ad 590A0000 		.4byte	.LASF34
 3879 02b1 09       		.byte	0x9
 3880 02b2 B5       		.byte	0xb5
 3881 02b3 49060000 		.4byte	0x649
 3882 02b7 04       		.byte	0x4
 3883 02b8 00       		.byte	0
 3884 02b9 03       		.uleb128 0x3
 3885 02ba 8E0A0000 		.4byte	.LASF55
 3886 02be 08       		.byte	0x8
ARM GAS  C:\Users\jo\AppData\Local\Temp\ccnOsBUt.s 			page 71


 3887 02bf 52       		.byte	0x52
 3888 02c0 C4020000 		.4byte	0x2c4
 3889 02c4 0A       		.uleb128 0xa
 3890 02c5 B6010000 		.4byte	.LASF56
 3891 02c9 1C       		.byte	0x1c
 3892 02ca 09       		.byte	0x9
 3893 02cb 7201     		.2byte	0x172
 3894 02cd 20030000 		.4byte	0x320
 3895 02d1 09       		.uleb128 0x9
 3896 02d2 88060000 		.4byte	.LASF57
 3897 02d6 09       		.byte	0x9
 3898 02d7 7301     		.2byte	0x173
 3899 02d9 89020000 		.4byte	0x289
 3900 02dd 00       		.byte	0
 3901 02de 09       		.uleb128 0x9
 3902 02df F7020000 		.4byte	.LASF58
 3903 02e3 09       		.byte	0x9
 3904 02e4 7401     		.2byte	0x174
 3905 02e6 41010000 		.4byte	0x141
 3906 02ea 08       		.byte	0x8
 3907 02eb 09       		.uleb128 0x9
 3908 02ec 7A0D0000 		.4byte	.LASF59
 3909 02f0 09       		.byte	0x9
 3910 02f1 7601     		.2byte	0x176
 3911 02f3 8F040000 		.4byte	0x48f
 3912 02f7 0C       		.byte	0xc
 3913 02f8 09       		.uleb128 0x9
 3914 02f9 77050000 		.4byte	.LASF60
 3915 02fd 09       		.byte	0x9
 3916 02fe 7901     		.2byte	0x179
 3917 0300 49060000 		.4byte	0x649
 3918 0304 10       		.byte	0x10
 3919 0305 09       		.uleb128 0x9
 3920 0306 4E070000 		.4byte	.LASF61
 3921 030a 09       		.byte	0x9
 3922 030b 7A01     		.2byte	0x17a
 3923 030d 49060000 		.4byte	0x649
 3924 0311 14       		.byte	0x14
 3925 0312 09       		.uleb128 0x9
 3926 0313 9B080000 		.4byte	.LASF62
 3927 0317 09       		.byte	0x9
 3928 0318 7D01     		.2byte	0x17d
 3929 031a 49060000 		.4byte	0x649
 3930 031e 18       		.byte	0x18
 3931 031f 00       		.byte	0
 3932 0320 03       		.uleb128 0x3
 3933 0321 7E020000 		.4byte	.LASF63
 3934 0325 08       		.byte	0x8
 3935 0326 57       		.byte	0x57
 3936 0327 2B030000 		.4byte	0x32b
 3937 032b 0B       		.uleb128 0xb
 3938 032c 04       		.byte	0x4
 3939 032d 31030000 		.4byte	0x331
 3940 0331 0C       		.uleb128 0xc
 3941 0332 3C030000 		.4byte	0x33c
 3942 0336 0D       		.uleb128 0xd
 3943 0337 3C030000 		.4byte	0x33c
ARM GAS  C:\Users\jo\AppData\Local\Temp\ccnOsBUt.s 			page 72


 3944 033b 00       		.byte	0
 3945 033c 0E       		.uleb128 0xe
 3946 033d 04       		.byte	0x4
 3947 033e 03       		.uleb128 0x3
 3948 033f D5060000 		.4byte	.LASF64
 3949 0343 08       		.byte	0x8
 3950 0344 5C       		.byte	0x5c
 3951 0345 49030000 		.4byte	0x349
 3952 0349 0A       		.uleb128 0xa
 3953 034a 4B030000 		.4byte	.LASF65
 3954 034e 14       		.byte	0x14
 3955 034f 09       		.byte	0x9
 3956 0350 4D01     		.2byte	0x14d
 3957 0352 98030000 		.4byte	0x398
 3958 0356 09       		.uleb128 0x9
 3959 0357 EA0B0000 		.4byte	.LASF66
 3960 035b 09       		.byte	0x9
 3961 035c 4E01     		.2byte	0x14e
 3962 035e BE060000 		.4byte	0x6be
 3963 0362 00       		.byte	0
 3964 0363 09       		.uleb128 0x9
 3965 0364 03010000 		.4byte	.LASF67
 3966 0368 09       		.byte	0x9
 3967 0369 4F01     		.2byte	0x14f
 3968 036b BE060000 		.4byte	0x6be
 3969 036f 04       		.byte	0x4
 3970 0370 09       		.uleb128 0x9
 3971 0371 F5030000 		.4byte	.LASF68
 3972 0375 09       		.byte	0x9
 3973 0376 5001     		.2byte	0x150
 3974 0378 62010000 		.4byte	0x162
 3975 037c 08       		.byte	0x8
 3976 037d 09       		.uleb128 0x9
 3977 037e D60D0000 		.4byte	.LASF69
 3978 0382 09       		.byte	0x9
 3979 0383 5101     		.2byte	0x151
 3980 0385 20030000 		.4byte	0x320
 3981 0389 0C       		.byte	0xc
 3982 038a 09       		.uleb128 0x9
 3983 038b 140B0000 		.4byte	.LASF70
 3984 038f 09       		.byte	0x9
 3985 0390 5301     		.2byte	0x153
 3986 0392 3C030000 		.4byte	0x33c
 3987 0396 10       		.byte	0x10
 3988 0397 00       		.byte	0
 3989 0398 03       		.uleb128 0x3
 3990 0399 570B0000 		.4byte	.LASF71
 3991 039d 08       		.byte	0x8
 3992 039e 61       		.byte	0x61
 3993 039f A3030000 		.4byte	0x3a3
 3994 03a3 0A       		.uleb128 0xa
 3995 03a4 DE030000 		.4byte	.LASF72
 3996 03a8 10       		.byte	0x10
 3997 03a9 09       		.byte	0x9
 3998 03aa 5D01     		.2byte	0x15d
 3999 03ac E5030000 		.4byte	0x3e5
 4000 03b0 09       		.uleb128 0x9
ARM GAS  C:\Users\jo\AppData\Local\Temp\ccnOsBUt.s 			page 73


 4001 03b1 EA0B0000 		.4byte	.LASF66
 4002 03b5 09       		.byte	0x9
 4003 03b6 5E01     		.2byte	0x15e
 4004 03b8 BE060000 		.4byte	0x6be
 4005 03bc 00       		.byte	0
 4006 03bd 09       		.uleb128 0x9
 4007 03be 03010000 		.4byte	.LASF67
 4008 03c2 09       		.byte	0x9
 4009 03c3 6001     		.2byte	0x160
 4010 03c5 BE060000 		.4byte	0x6be
 4011 03c9 04       		.byte	0x4
 4012 03ca 09       		.uleb128 0x9
 4013 03cb F5030000 		.4byte	.LASF68
 4014 03cf 09       		.byte	0x9
 4015 03d0 6201     		.2byte	0x162
 4016 03d2 62010000 		.4byte	0x162
 4017 03d6 08       		.byte	0x8
 4018 03d7 09       		.uleb128 0x9
 4019 03d8 7F050000 		.4byte	.LASF73
 4020 03dc 09       		.byte	0x9
 4021 03dd 6A01     		.2byte	0x16a
 4022 03df 62010000 		.4byte	0x162
 4023 03e3 0C       		.byte	0xc
 4024 03e4 00       		.byte	0
 4025 03e5 03       		.uleb128 0x3
 4026 03e6 3C060000 		.4byte	.LASF74
 4027 03ea 08       		.byte	0x8
 4028 03eb 66       		.byte	0x66
 4029 03ec F0030000 		.4byte	0x3f0
 4030 03f0 0A       		.uleb128 0xa
 4031 03f1 8E020000 		.4byte	.LASF75
 4032 03f5 04       		.byte	0x4
 4033 03f6 09       		.byte	0x9
 4034 03f7 8401     		.2byte	0x184
 4035 03f9 0B040000 		.4byte	0x40b
 4036 03fd 09       		.uleb128 0x9
 4037 03fe 8A0B0000 		.4byte	.LASF76
 4038 0402 09       		.byte	0x9
 4039 0403 8C01     		.2byte	0x18c
 4040 0405 C4060000 		.4byte	0x6c4
 4041 0409 00       		.byte	0
 4042 040a 00       		.byte	0
 4043 040b 03       		.uleb128 0x3
 4044 040c 0E0C0000 		.4byte	.LASF77
 4045 0410 08       		.byte	0x8
 4046 0411 6B       		.byte	0x6b
 4047 0412 16040000 		.4byte	0x416
 4048 0416 0F       		.uleb128 0xf
 4049 0417 3E090000 		.4byte	.LASF78
 4050 041b D801     		.2byte	0x1d8
 4051 041d 09       		.byte	0x9
 4052 041e A401     		.2byte	0x1a4
 4053 0420 72040000 		.4byte	0x472
 4054 0424 09       		.uleb128 0x9
 4055 0425 98090000 		.4byte	.LASF79
 4056 0429 09       		.byte	0x9
 4057 042a A801     		.2byte	0x1a8
ARM GAS  C:\Users\jo\AppData\Local\Temp\ccnOsBUt.s 			page 74


 4058 042c B9020000 		.4byte	0x2b9
 4059 0430 00       		.byte	0
 4060 0431 09       		.uleb128 0x9
 4061 0432 9C010000 		.4byte	.LASF80
 4062 0436 09       		.byte	0x9
 4063 0437 AC01     		.2byte	0x1ac
 4064 0439 98030000 		.4byte	0x398
 4065 043d 1C       		.byte	0x1c
 4066 043e 08       		.uleb128 0x8
 4067 043f 64626700 		.ascii	"dbg\000"
 4068 0443 09       		.byte	0x9
 4069 0444 B001     		.2byte	0x1b0
 4070 0446 E5030000 		.4byte	0x3e5
 4071 044a 2C       		.byte	0x2c
 4072 044b 09       		.uleb128 0x9
 4073 044c A1070000 		.4byte	.LASF81
 4074 0450 09       		.byte	0x9
 4075 0451 B401     		.2byte	0x1b4
 4076 0453 6D010000 		.4byte	0x16d
 4077 0457 30       		.byte	0x30
 4078 0458 08       		.uleb128 0x8
 4079 0459 746D00   		.ascii	"tm\000"
 4080 045c 09       		.byte	0x9
 4081 045d B901     		.2byte	0x1b9
 4082 045f 3E060000 		.4byte	0x63e
 4083 0463 74       		.byte	0x74
 4084 0464 09       		.uleb128 0x9
 4085 0465 B00A0000 		.4byte	.LASF82
 4086 0469 09       		.byte	0x9
 4087 046a C501     		.2byte	0x1c5
 4088 046c C9060000 		.4byte	0x6c9
 4089 0470 78       		.byte	0x78
 4090 0471 00       		.byte	0
 4091 0472 04       		.uleb128 0x4
 4092 0473 04       		.byte	0x4
 4093 0474 07       		.byte	0x7
 4094 0475 600A0000 		.4byte	.LASF83
 4095 0479 03       		.uleb128 0x3
 4096 047a 380B0000 		.4byte	.LASF84
 4097 047e 0A       		.byte	0xa
 4098 047f 85       		.byte	0x85
 4099 0480 3C030000 		.4byte	0x33c
 4100 0484 03       		.uleb128 0x3
 4101 0485 8F0D0000 		.4byte	.LASF85
 4102 0489 0A       		.byte	0xa
 4103 048a 8D       		.byte	0x8d
 4104 048b 05010000 		.4byte	0x105
 4105 048f 06       		.uleb128 0x6
 4106 0490 320A0000 		.4byte	.LASF86
 4107 0494 04       		.byte	0x4
 4108 0495 0A       		.byte	0xa
 4109 0496 A9       		.byte	0xa9
 4110 0497 A8040000 		.4byte	0x4a8
 4111 049b 10       		.uleb128 0x10
 4112 049c 72313300 		.ascii	"r13\000"
 4113 04a0 0A       		.byte	0xa
 4114 04a1 AA       		.byte	0xaa
ARM GAS  C:\Users\jo\AppData\Local\Temp\ccnOsBUt.s 			page 75


 4115 04a2 E9050000 		.4byte	0x5e9
 4116 04a6 00       		.byte	0
 4117 04a7 00       		.byte	0
 4118 04a8 06       		.uleb128 0x6
 4119 04a9 CA080000 		.4byte	.LASF87
 4120 04ad 64       		.byte	0x64
 4121 04ae 0B       		.byte	0xb
 4122 04af F4       		.byte	0xf4
 4123 04b0 E9050000 		.4byte	0x5e9
 4124 04b4 10       		.uleb128 0x10
 4125 04b5 73313600 		.ascii	"s16\000"
 4126 04b9 0B       		.byte	0xb
 4127 04ba F6       		.byte	0xf6
 4128 04bb 79040000 		.4byte	0x479
 4129 04bf 00       		.byte	0
 4130 04c0 10       		.uleb128 0x10
 4131 04c1 73313700 		.ascii	"s17\000"
 4132 04c5 0B       		.byte	0xb
 4133 04c6 F7       		.byte	0xf7
 4134 04c7 79040000 		.4byte	0x479
 4135 04cb 04       		.byte	0x4
 4136 04cc 10       		.uleb128 0x10
 4137 04cd 73313800 		.ascii	"s18\000"
 4138 04d1 0B       		.byte	0xb
 4139 04d2 F8       		.byte	0xf8
 4140 04d3 79040000 		.4byte	0x479
 4141 04d7 08       		.byte	0x8
 4142 04d8 10       		.uleb128 0x10
 4143 04d9 73313900 		.ascii	"s19\000"
 4144 04dd 0B       		.byte	0xb
 4145 04de F9       		.byte	0xf9
 4146 04df 79040000 		.4byte	0x479
 4147 04e3 0C       		.byte	0xc
 4148 04e4 10       		.uleb128 0x10
 4149 04e5 73323000 		.ascii	"s20\000"
 4150 04e9 0B       		.byte	0xb
 4151 04ea FA       		.byte	0xfa
 4152 04eb 79040000 		.4byte	0x479
 4153 04ef 10       		.byte	0x10
 4154 04f0 10       		.uleb128 0x10
 4155 04f1 73323100 		.ascii	"s21\000"
 4156 04f5 0B       		.byte	0xb
 4157 04f6 FB       		.byte	0xfb
 4158 04f7 79040000 		.4byte	0x479
 4159 04fb 14       		.byte	0x14
 4160 04fc 10       		.uleb128 0x10
 4161 04fd 73323200 		.ascii	"s22\000"
 4162 0501 0B       		.byte	0xb
 4163 0502 FC       		.byte	0xfc
 4164 0503 79040000 		.4byte	0x479
 4165 0507 18       		.byte	0x18
 4166 0508 10       		.uleb128 0x10
 4167 0509 73323300 		.ascii	"s23\000"
 4168 050d 0B       		.byte	0xb
 4169 050e FD       		.byte	0xfd
 4170 050f 79040000 		.4byte	0x479
 4171 0513 1C       		.byte	0x1c
ARM GAS  C:\Users\jo\AppData\Local\Temp\ccnOsBUt.s 			page 76


 4172 0514 10       		.uleb128 0x10
 4173 0515 73323400 		.ascii	"s24\000"
 4174 0519 0B       		.byte	0xb
 4175 051a FE       		.byte	0xfe
 4176 051b 79040000 		.4byte	0x479
 4177 051f 20       		.byte	0x20
 4178 0520 10       		.uleb128 0x10
 4179 0521 73323500 		.ascii	"s25\000"
 4180 0525 0B       		.byte	0xb
 4181 0526 FF       		.byte	0xff
 4182 0527 79040000 		.4byte	0x479
 4183 052b 24       		.byte	0x24
 4184 052c 08       		.uleb128 0x8
 4185 052d 73323600 		.ascii	"s26\000"
 4186 0531 0B       		.byte	0xb
 4187 0532 0001     		.2byte	0x100
 4188 0534 79040000 		.4byte	0x479
 4189 0538 28       		.byte	0x28
 4190 0539 08       		.uleb128 0x8
 4191 053a 73323700 		.ascii	"s27\000"
 4192 053e 0B       		.byte	0xb
 4193 053f 0101     		.2byte	0x101
 4194 0541 79040000 		.4byte	0x479
 4195 0545 2C       		.byte	0x2c
 4196 0546 08       		.uleb128 0x8
 4197 0547 73323800 		.ascii	"s28\000"
 4198 054b 0B       		.byte	0xb
 4199 054c 0201     		.2byte	0x102
 4200 054e 79040000 		.4byte	0x479
 4201 0552 30       		.byte	0x30
 4202 0553 08       		.uleb128 0x8
 4203 0554 73323900 		.ascii	"s29\000"
 4204 0558 0B       		.byte	0xb
 4205 0559 0301     		.2byte	0x103
 4206 055b 79040000 		.4byte	0x479
 4207 055f 34       		.byte	0x34
 4208 0560 08       		.uleb128 0x8
 4209 0561 73333000 		.ascii	"s30\000"
 4210 0565 0B       		.byte	0xb
 4211 0566 0401     		.2byte	0x104
 4212 0568 79040000 		.4byte	0x479
 4213 056c 38       		.byte	0x38
 4214 056d 08       		.uleb128 0x8
 4215 056e 73333100 		.ascii	"s31\000"
 4216 0572 0B       		.byte	0xb
 4217 0573 0501     		.2byte	0x105
 4218 0575 79040000 		.4byte	0x479
 4219 0579 3C       		.byte	0x3c
 4220 057a 08       		.uleb128 0x8
 4221 057b 723400   		.ascii	"r4\000"
 4222 057e 0B       		.byte	0xb
 4223 057f 0701     		.2byte	0x107
 4224 0581 79040000 		.4byte	0x479
 4225 0585 40       		.byte	0x40
 4226 0586 08       		.uleb128 0x8
 4227 0587 723500   		.ascii	"r5\000"
 4228 058a 0B       		.byte	0xb
ARM GAS  C:\Users\jo\AppData\Local\Temp\ccnOsBUt.s 			page 77


 4229 058b 0801     		.2byte	0x108
 4230 058d 79040000 		.4byte	0x479
 4231 0591 44       		.byte	0x44
 4232 0592 08       		.uleb128 0x8
 4233 0593 723600   		.ascii	"r6\000"
 4234 0596 0B       		.byte	0xb
 4235 0597 0901     		.2byte	0x109
 4236 0599 79040000 		.4byte	0x479
 4237 059d 48       		.byte	0x48
 4238 059e 08       		.uleb128 0x8
 4239 059f 723700   		.ascii	"r7\000"
 4240 05a2 0B       		.byte	0xb
 4241 05a3 0A01     		.2byte	0x10a
 4242 05a5 79040000 		.4byte	0x479
 4243 05a9 4C       		.byte	0x4c
 4244 05aa 08       		.uleb128 0x8
 4245 05ab 723800   		.ascii	"r8\000"
 4246 05ae 0B       		.byte	0xb
 4247 05af 0B01     		.2byte	0x10b
 4248 05b1 79040000 		.4byte	0x479
 4249 05b5 50       		.byte	0x50
 4250 05b6 08       		.uleb128 0x8
 4251 05b7 723900   		.ascii	"r9\000"
 4252 05ba 0B       		.byte	0xb
 4253 05bb 0C01     		.2byte	0x10c
 4254 05bd 79040000 		.4byte	0x479
 4255 05c1 54       		.byte	0x54
 4256 05c2 08       		.uleb128 0x8
 4257 05c3 72313000 		.ascii	"r10\000"
 4258 05c7 0B       		.byte	0xb
 4259 05c8 0D01     		.2byte	0x10d
 4260 05ca 79040000 		.4byte	0x479
 4261 05ce 58       		.byte	0x58
 4262 05cf 08       		.uleb128 0x8
 4263 05d0 72313100 		.ascii	"r11\000"
 4264 05d4 0B       		.byte	0xb
 4265 05d5 0E01     		.2byte	0x10e
 4266 05d7 79040000 		.4byte	0x479
 4267 05db 5C       		.byte	0x5c
 4268 05dc 08       		.uleb128 0x8
 4269 05dd 6C7200   		.ascii	"lr\000"
 4270 05e0 0B       		.byte	0xb
 4271 05e1 0F01     		.2byte	0x10f
 4272 05e3 79040000 		.4byte	0x479
 4273 05e7 60       		.byte	0x60
 4274 05e8 00       		.byte	0
 4275 05e9 0B       		.uleb128 0xb
 4276 05ea 04       		.byte	0x4
 4277 05eb A8040000 		.4byte	0x4a8
 4278 05ef 03       		.uleb128 0x3
 4279 05f0 3F040000 		.4byte	.LASF88
 4280 05f4 0C       		.byte	0xc
 4281 05f5 28       		.byte	0x28
 4282 05f6 FA050000 		.4byte	0x5fa
 4283 05fa 06       		.uleb128 0x6
 4284 05fb 240C0000 		.4byte	.LASF89
 4285 05ff 04       		.byte	0x4
ARM GAS  C:\Users\jo\AppData\Local\Temp\ccnOsBUt.s 			page 78


 4286 0600 0D       		.byte	0xd
 4287 0601 00       		.byte	0
 4288 0602 11060000 		.4byte	0x611
 4289 0606 11       		.uleb128 0x11
 4290 0607 D0060000 		.4byte	.LASF93
 4291 060b 3C030000 		.4byte	0x33c
 4292 060f 00       		.byte	0
 4293 0610 00       		.byte	0
 4294 0611 0B       		.uleb128 0xb
 4295 0612 04       		.byte	0x4
 4296 0613 17060000 		.4byte	0x617
 4297 0617 04       		.uleb128 0x4
 4298 0618 01       		.byte	0x1
 4299 0619 08       		.byte	0x8
 4300 061a 69000000 		.4byte	.LASF90
 4301 061e 0B       		.uleb128 0xb
 4302 061f 04       		.byte	0x4
 4303 0620 24060000 		.4byte	0x624
 4304 0624 12       		.uleb128 0x12
 4305 0625 17060000 		.4byte	0x617
 4306 0629 13       		.uleb128 0x13
 4307 062a 04       		.byte	0x4
 4308 062b 0E       		.byte	0xe
 4309 062c 38       		.byte	0x38
 4310 062d 3E060000 		.4byte	0x63e
 4311 0631 07       		.uleb128 0x7
 4312 0632 98030000 		.4byte	.LASF91
 4313 0636 0E       		.byte	0xe
 4314 0637 3C       		.byte	0x3c
 4315 0638 15010000 		.4byte	0x115
 4316 063c 00       		.byte	0
 4317 063d 00       		.byte	0
 4318 063e 03       		.uleb128 0x3
 4319 063f 88070000 		.4byte	.LASF92
 4320 0643 0E       		.byte	0xe
 4321 0644 3D       		.byte	0x3d
 4322 0645 29060000 		.4byte	0x629
 4323 0649 0B       		.uleb128 0xb
 4324 064a 04       		.byte	0x4
 4325 064b 6D010000 		.4byte	0x16d
 4326 064f 14       		.uleb128 0x14
 4327 0650 04       		.byte	0x4
 4328 0651 09       		.byte	0x9
 4329 0652 F6       		.byte	0xf6
 4330 0653 87060000 		.4byte	0x687
 4331 0657 15       		.uleb128 0x15
 4332 0658 63040000 		.4byte	.LASF94
 4333 065c 09       		.byte	0x9
 4334 065d FD       		.byte	0xfd
 4335 065e 4C010000 		.4byte	0x14c
 4336 0662 16       		.uleb128 0x16
 4337 0663 B40E0000 		.4byte	.LASF95
 4338 0667 09       		.byte	0x9
 4339 0668 0401     		.2byte	0x104
 4340 066a 4C010000 		.4byte	0x14c
 4341 066e 16       		.uleb128 0x16
 4342 066f 87020000 		.4byte	.LASF96
ARM GAS  C:\Users\jo\AppData\Local\Temp\ccnOsBUt.s 			page 79


 4343 0673 09       		.byte	0x9
 4344 0674 0B01     		.2byte	0x10b
 4345 0676 3C030000 		.4byte	0x33c
 4346 067a 16       		.uleb128 0x16
 4347 067b 81070000 		.4byte	.LASF97
 4348 067f 09       		.byte	0x9
 4349 0680 1201     		.2byte	0x112
 4350 0682 57010000 		.4byte	0x157
 4351 0686 00       		.byte	0
 4352 0687 06       		.uleb128 0x6
 4353 0688 2A030000 		.4byte	.LASF98
 4354 068c 10       		.byte	0x10
 4355 068d 0F       		.byte	0xf
 4356 068e 39       		.byte	0x39
 4357 068f B8060000 		.4byte	0x6b8
 4358 0693 07       		.uleb128 0x7
 4359 0694 B9080000 		.4byte	.LASF99
 4360 0698 0F       		.byte	0xf
 4361 0699 3A       		.byte	0x3a
 4362 069a 89020000 		.4byte	0x289
 4363 069e 00       		.byte	0
 4364 069f 07       		.uleb128 0x7
 4365 06a0 F1000000 		.4byte	.LASF100
 4366 06a4 0F       		.byte	0xf
 4367 06a5 3C       		.byte	0x3c
 4368 06a6 49060000 		.4byte	0x649
 4369 06aa 08       		.byte	0x8
 4370 06ab 07       		.uleb128 0x7
 4371 06ac 330C0000 		.4byte	.LASF101
 4372 06b0 0F       		.byte	0xf
 4373 06b1 3E       		.byte	0x3e
 4374 06b2 F9060000 		.4byte	0x6f9
 4375 06b6 0C       		.byte	0xc
 4376 06b7 00       		.byte	0
 4377 06b8 0B       		.uleb128 0xb
 4378 06b9 04       		.byte	0x4
 4379 06ba 87060000 		.4byte	0x687
 4380 06be 0B       		.uleb128 0xb
 4381 06bf 04       		.byte	0x4
 4382 06c0 3E030000 		.4byte	0x33e
 4383 06c4 05       		.uleb128 0x5
 4384 06c5 1E060000 		.4byte	0x61e
 4385 06c9 17       		.uleb128 0x17
 4386 06ca 84040000 		.4byte	0x484
 4387 06ce D9060000 		.4byte	0x6d9
 4388 06d2 18       		.uleb128 0x18
 4389 06d3 72040000 		.4byte	0x472
 4390 06d7 2B       		.byte	0x2b
 4391 06d8 00       		.byte	0
 4392 06d9 0B       		.uleb128 0xb
 4393 06da 04       		.byte	0x4
 4394 06db DF060000 		.4byte	0x6df
 4395 06df 19       		.uleb128 0x19
 4396 06e0 4C010000 		.4byte	0x14c
 4397 06e4 EE060000 		.4byte	0x6ee
 4398 06e8 0D       		.uleb128 0xd
 4399 06e9 3C030000 		.4byte	0x33c
ARM GAS  C:\Users\jo\AppData\Local\Temp\ccnOsBUt.s 			page 80


 4400 06ed 00       		.byte	0
 4401 06ee 03       		.uleb128 0x3
 4402 06ef 040B0000 		.4byte	.LASF102
 4403 06f3 0F       		.byte	0xf
 4404 06f4 34       		.byte	0x34
 4405 06f5 87060000 		.4byte	0x687
 4406 06f9 0B       		.uleb128 0xb
 4407 06fa 04       		.byte	0x4
 4408 06fb EE060000 		.4byte	0x6ee
 4409 06ff 0B       		.uleb128 0xb
 4410 0700 04       		.byte	0x4
 4411 0701 CE000000 		.4byte	0xce
 4412 0705 06       		.uleb128 0x6
 4413 0706 73010000 		.4byte	.LASF103
 4414 070a 10       		.byte	0x10
 4415 070b 10       		.byte	0x10
 4416 070c 40       		.byte	0x40
 4417 070d 42070000 		.4byte	0x742
 4418 0711 07       		.uleb128 0x7
 4419 0712 7C060000 		.4byte	.LASF104
 4420 0716 10       		.byte	0x10
 4421 0717 41       		.byte	0x41
 4422 0718 66070000 		.4byte	0x766
 4423 071c 00       		.byte	0
 4424 071d 07       		.uleb128 0x7
 4425 071e 9E0E0000 		.4byte	.LASF105
 4426 0722 10       		.byte	0x10
 4427 0723 41       		.byte	0x41
 4428 0724 85070000 		.4byte	0x785
 4429 0728 04       		.byte	0x4
 4430 0729 10       		.uleb128 0x10
 4431 072a 70757400 		.ascii	"put\000"
 4432 072e 10       		.byte	0x10
 4433 072f 41       		.byte	0x41
 4434 0730 9F070000 		.4byte	0x79f
 4435 0734 08       		.byte	0x8
 4436 0735 10       		.uleb128 0x10
 4437 0736 67657400 		.ascii	"get\000"
 4438 073a 10       		.byte	0x10
 4439 073b 41       		.byte	0x41
 4440 073c D9060000 		.4byte	0x6d9
 4441 0740 0C       		.byte	0xc
 4442 0741 00       		.byte	0
 4443 0742 19       		.uleb128 0x19
 4444 0743 2C000000 		.4byte	0x2c
 4445 0747 5B070000 		.4byte	0x75b
 4446 074b 0D       		.uleb128 0xd
 4447 074c 3C030000 		.4byte	0x33c
 4448 0750 0D       		.uleb128 0xd
 4449 0751 5B070000 		.4byte	0x75b
 4450 0755 0D       		.uleb128 0xd
 4451 0756 2C000000 		.4byte	0x2c
 4452 075a 00       		.byte	0
 4453 075b 0B       		.uleb128 0xb
 4454 075c 04       		.byte	0x4
 4455 075d 61070000 		.4byte	0x761
 4456 0761 12       		.uleb128 0x12
ARM GAS  C:\Users\jo\AppData\Local\Temp\ccnOsBUt.s 			page 81


 4457 0762 CE000000 		.4byte	0xce
 4458 0766 0B       		.uleb128 0xb
 4459 0767 04       		.byte	0x4
 4460 0768 42070000 		.4byte	0x742
 4461 076c 19       		.uleb128 0x19
 4462 076d 2C000000 		.4byte	0x2c
 4463 0771 85070000 		.4byte	0x785
 4464 0775 0D       		.uleb128 0xd
 4465 0776 3C030000 		.4byte	0x33c
 4466 077a 0D       		.uleb128 0xd
 4467 077b FF060000 		.4byte	0x6ff
 4468 077f 0D       		.uleb128 0xd
 4469 0780 2C000000 		.4byte	0x2c
 4470 0784 00       		.byte	0
 4471 0785 0B       		.uleb128 0xb
 4472 0786 04       		.byte	0x4
 4473 0787 6C070000 		.4byte	0x76c
 4474 078b 19       		.uleb128 0x19
 4475 078c 4C010000 		.4byte	0x14c
 4476 0790 9F070000 		.4byte	0x79f
 4477 0794 0D       		.uleb128 0xd
 4478 0795 3C030000 		.4byte	0x33c
 4479 0799 0D       		.uleb128 0xd
 4480 079a CE000000 		.4byte	0xce
 4481 079e 00       		.byte	0
 4482 079f 0B       		.uleb128 0xb
 4483 07a0 04       		.byte	0x4
 4484 07a1 8B070000 		.4byte	0x78b
 4485 07a5 13       		.uleb128 0x13
 4486 07a6 04       		.byte	0x4
 4487 07a7 10       		.byte	0x10
 4488 07a8 49       		.byte	0x49
 4489 07a9 BA070000 		.4byte	0x7ba
 4490 07ad 10       		.uleb128 0x10
 4491 07ae 766D7400 		.ascii	"vmt\000"
 4492 07b2 10       		.byte	0x10
 4493 07b3 4B       		.byte	0x4b
 4494 07b4 BA070000 		.4byte	0x7ba
 4495 07b8 00       		.byte	0
 4496 07b9 00       		.byte	0
 4497 07ba 0B       		.uleb128 0xb
 4498 07bb 04       		.byte	0x4
 4499 07bc C0070000 		.4byte	0x7c0
 4500 07c0 12       		.uleb128 0x12
 4501 07c1 05070000 		.4byte	0x705
 4502 07c5 03       		.uleb128 0x3
 4503 07c6 09050000 		.4byte	.LASF106
 4504 07ca 10       		.byte	0x10
 4505 07cb 4D       		.byte	0x4d
 4506 07cc A5070000 		.4byte	0x7a5
 4507 07d0 04       		.uleb128 0x4
 4508 07d1 01       		.byte	0x1
 4509 07d2 02       		.byte	0x2
 4510 07d3 97040000 		.4byte	.LASF107
 4511 07d7 06       		.uleb128 0x6
 4512 07d8 E5060000 		.4byte	.LASF108
 4513 07dc 10       		.byte	0x10
ARM GAS  C:\Users\jo\AppData\Local\Temp\ccnOsBUt.s 			page 82


 4514 07dd 11       		.byte	0x11
 4515 07de 2E       		.byte	0x2e
 4516 07df 14080000 		.4byte	0x814
 4517 07e3 07       		.uleb128 0x7
 4518 07e4 7C060000 		.4byte	.LASF104
 4519 07e8 11       		.byte	0x11
 4520 07e9 2F       		.byte	0x2f
 4521 07ea 66070000 		.4byte	0x766
 4522 07ee 00       		.byte	0
 4523 07ef 07       		.uleb128 0x7
 4524 07f0 9E0E0000 		.4byte	.LASF105
 4525 07f4 11       		.byte	0x11
 4526 07f5 2F       		.byte	0x2f
 4527 07f6 85070000 		.4byte	0x785
 4528 07fa 04       		.byte	0x4
 4529 07fb 10       		.uleb128 0x10
 4530 07fc 70757400 		.ascii	"put\000"
 4531 0800 11       		.byte	0x11
 4532 0801 2F       		.byte	0x2f
 4533 0802 9F070000 		.4byte	0x79f
 4534 0806 08       		.byte	0x8
 4535 0807 10       		.uleb128 0x10
 4536 0808 67657400 		.ascii	"get\000"
 4537 080c 11       		.byte	0x11
 4538 080d 2F       		.byte	0x2f
 4539 080e D9060000 		.4byte	0x6d9
 4540 0812 0C       		.byte	0xc
 4541 0813 00       		.byte	0
 4542 0814 13       		.uleb128 0x13
 4543 0815 04       		.byte	0x4
 4544 0816 11       		.byte	0x11
 4545 0817 39       		.byte	0x39
 4546 0818 29080000 		.4byte	0x829
 4547 081c 10       		.uleb128 0x10
 4548 081d 766D7400 		.ascii	"vmt\000"
 4549 0821 11       		.byte	0x11
 4550 0822 3B       		.byte	0x3b
 4551 0823 29080000 		.4byte	0x829
 4552 0827 00       		.byte	0
 4553 0828 00       		.byte	0
 4554 0829 0B       		.uleb128 0xb
 4555 082a 04       		.byte	0x4
 4556 082b 2F080000 		.4byte	0x82f
 4557 082f 12       		.uleb128 0x12
 4558 0830 D7070000 		.4byte	0x7d7
 4559 0834 03       		.uleb128 0x3
 4560 0835 71070000 		.4byte	.LASF109
 4561 0839 11       		.byte	0x11
 4562 083a 3D       		.byte	0x3d
 4563 083b 14080000 		.4byte	0x814
 4564 083f 03       		.uleb128 0x3
 4565 0840 34060000 		.4byte	.LASF110
 4566 0844 0C       		.byte	0xc
 4567 0845 62       		.byte	0x62
 4568 0846 EF050000 		.4byte	0x5ef
 4569 084a 03       		.uleb128 0x3
 4570 084b B3060000 		.4byte	.LASF111
ARM GAS  C:\Users\jo\AppData\Local\Temp\ccnOsBUt.s 			page 83


 4571 084f 12       		.byte	0x12
 4572 0850 3D       		.byte	0x3d
 4573 0851 CE000000 		.4byte	0xce
 4574 0855 03       		.uleb128 0x3
 4575 0856 D3040000 		.4byte	.LASF112
 4576 085a 12       		.byte	0x12
 4577 085b 3E       		.byte	0x3e
 4578 085c C3000000 		.4byte	0xc3
 4579 0860 03       		.uleb128 0x3
 4580 0861 96010000 		.4byte	.LASF113
 4581 0865 12       		.byte	0x12
 4582 0866 3F       		.byte	0x3f
 4583 0867 E4000000 		.4byte	0xe4
 4584 086b 03       		.uleb128 0x3
 4585 086c A20A0000 		.4byte	.LASF114
 4586 0870 12       		.byte	0x12
 4587 0871 40       		.byte	0x40
 4588 0872 D9000000 		.4byte	0xd9
 4589 0876 03       		.uleb128 0x3
 4590 0877 80080000 		.4byte	.LASF115
 4591 087b 12       		.byte	0x12
 4592 087c 41       		.byte	0x41
 4593 087d FA000000 		.4byte	0xfa
 4594 0881 03       		.uleb128 0x3
 4595 0882 D8040000 		.4byte	.LASF116
 4596 0886 12       		.byte	0x12
 4597 0887 42       		.byte	0x42
 4598 0888 EF000000 		.4byte	0xef
 4599 088c 03       		.uleb128 0x3
 4600 088d C4090000 		.4byte	.LASF117
 4601 0891 12       		.byte	0x12
 4602 0892 43       		.byte	0x43
 4603 0893 FA000000 		.4byte	0xfa
 4604 0897 03       		.uleb128 0x3
 4605 0898 6C050000 		.4byte	.LASF118
 4606 089c 13       		.byte	0x13
 4607 089d 4C       		.byte	0x4c
 4608 089e 60080000 		.4byte	0x860
 4609 08a2 03       		.uleb128 0x3
 4610 08a3 59010000 		.4byte	.LASF119
 4611 08a7 14       		.byte	0x14
 4612 08a8 2F       		.byte	0x2f
 4613 08a9 55080000 		.4byte	0x855
 4614 08ad 1A       		.uleb128 0x1a
 4615 08ae 01       		.byte	0x1
 4616 08af 15       		.byte	0x15
 4617 08b0 32       		.byte	0x32
 4618 08b1 CE080000 		.4byte	0x8ce
 4619 08b5 1B       		.uleb128 0x1b
 4620 08b6 9E020000 		.4byte	.LASF120
 4621 08ba 00       		.sleb128 0
 4622 08bb 1B       		.uleb128 0x1b
 4623 08bc 72040000 		.4byte	.LASF121
 4624 08c0 01       		.sleb128 1
 4625 08c1 1B       		.uleb128 0x1b
 4626 08c2 21000000 		.4byte	.LASF122
 4627 08c6 02       		.sleb128 2
ARM GAS  C:\Users\jo\AppData\Local\Temp\ccnOsBUt.s 			page 84


 4628 08c7 1B       		.uleb128 0x1b
 4629 08c8 F6070000 		.4byte	.LASF123
 4630 08cc 03       		.sleb128 3
 4631 08cd 00       		.byte	0
 4632 08ce 03       		.uleb128 0x3
 4633 08cf BF0A0000 		.4byte	.LASF124
 4634 08d3 15       		.byte	0x15
 4635 08d4 37       		.byte	0x37
 4636 08d5 AD080000 		.4byte	0x8ad
 4637 08d9 1A       		.uleb128 0x1a
 4638 08da 01       		.byte	0x1
 4639 08db 15       		.byte	0x15
 4640 08dc 39       		.byte	0x39
 4641 08dd FA080000 		.4byte	0x8fa
 4642 08e1 1B       		.uleb128 0x1b
 4643 08e2 99000000 		.4byte	.LASF125
 4644 08e6 00       		.sleb128 0
 4645 08e7 1B       		.uleb128 0x1b
 4646 08e8 0E0E0000 		.4byte	.LASF126
 4647 08ec 01       		.sleb128 1
 4648 08ed 1B       		.uleb128 0x1b
 4649 08ee 380E0000 		.4byte	.LASF127
 4650 08f2 02       		.sleb128 2
 4651 08f3 1B       		.uleb128 0x1b
 4652 08f4 9D040000 		.4byte	.LASF128
 4653 08f8 03       		.sleb128 3
 4654 08f9 00       		.byte	0
 4655 08fa 03       		.uleb128 0x3
 4656 08fb CB000000 		.4byte	.LASF129
 4657 08ff 15       		.byte	0x15
 4658 0900 3E       		.byte	0x3e
 4659 0901 D9080000 		.4byte	0x8d9
 4660 0905 06       		.uleb128 0x6
 4661 0906 940B0000 		.4byte	.LASF130
 4662 090a 10       		.byte	0x10
 4663 090b 15       		.byte	0x15
 4664 090c 4F       		.byte	0x4f
 4665 090d 66090000 		.4byte	0x966
 4666 0911 07       		.uleb128 0x7
 4667 0912 29010000 		.4byte	.LASF131
 4668 0916 15       		.byte	0x15
 4669 0917 51       		.byte	0x51
 4670 0918 66090000 		.4byte	0x966
 4671 091c 00       		.byte	0
 4672 091d 07       		.uleb128 0x7
 4673 091e 6A040000 		.4byte	.LASF132
 4674 0922 15       		.byte	0x15
 4675 0923 54       		.byte	0x54
 4676 0924 3C030000 		.4byte	0x33c
 4677 0928 04       		.byte	0x4
 4678 0929 07       		.uleb128 0x7
 4679 092a D80B0000 		.4byte	.LASF133
 4680 092e 15       		.byte	0x15
 4681 092f 5D       		.byte	0x5d
 4682 0930 60080000 		.4byte	0x860
 4683 0934 08       		.byte	0x8
 4684 0935 10       		.uleb128 0x10
ARM GAS  C:\Users\jo\AppData\Local\Temp\ccnOsBUt.s 			page 85


 4685 0936 6C656E00 		.ascii	"len\000"
 4686 093a 15       		.byte	0x15
 4687 093b 60       		.byte	0x60
 4688 093c 60080000 		.4byte	0x860
 4689 0940 0A       		.byte	0xa
 4690 0941 07       		.uleb128 0x7
 4691 0942 1B0B0000 		.4byte	.LASF134
 4692 0946 15       		.byte	0x15
 4693 0947 63       		.byte	0x63
 4694 0948 4A080000 		.4byte	0x84a
 4695 094c 0C       		.byte	0xc
 4696 094d 07       		.uleb128 0x7
 4697 094e B9040000 		.4byte	.LASF135
 4698 0952 15       		.byte	0x15
 4699 0953 66       		.byte	0x66
 4700 0954 4A080000 		.4byte	0x84a
 4701 0958 0D       		.byte	0xd
 4702 0959 10       		.uleb128 0x10
 4703 095a 72656600 		.ascii	"ref\000"
 4704 095e 15       		.byte	0x15
 4705 095f 6D       		.byte	0x6d
 4706 0960 60080000 		.4byte	0x860
 4707 0964 0E       		.byte	0xe
 4708 0965 00       		.byte	0
 4709 0966 0B       		.uleb128 0xb
 4710 0967 04       		.byte	0x4
 4711 0968 05090000 		.4byte	0x905
 4712 096c 06       		.uleb128 0x6
 4713 096d AC0E0000 		.4byte	.LASF136
 4714 0971 04       		.byte	0x4
 4715 0972 16       		.byte	0x16
 4716 0973 2C       		.byte	0x2c
 4717 0974 85090000 		.4byte	0x985
 4718 0978 07       		.uleb128 0x7
 4719 0979 C10B0000 		.4byte	.LASF137
 4720 097d 16       		.byte	0x16
 4721 097e 2D       		.byte	0x2d
 4722 097f 76080000 		.4byte	0x876
 4723 0983 00       		.byte	0
 4724 0984 00       		.byte	0
 4725 0985 03       		.uleb128 0x3
 4726 0986 170E0000 		.4byte	.LASF138
 4727 098a 16       		.byte	0x16
 4728 098b 40       		.byte	0x40
 4729 098c 6C090000 		.4byte	0x96c
 4730 0990 0B       		.uleb128 0xb
 4731 0991 04       		.byte	0x4
 4732 0992 96090000 		.4byte	0x996
 4733 0996 06       		.uleb128 0x6
 4734 0997 FB0B0000 		.4byte	.LASF139
 4735 099b 30       		.byte	0x30
 4736 099c 17       		.byte	0x17
 4737 099d 88       		.byte	0x88
 4738 099e 4A0A0000 		.4byte	0xa4a
 4739 09a2 07       		.uleb128 0x7
 4740 09a3 29010000 		.4byte	.LASF131
 4741 09a7 17       		.byte	0x17
ARM GAS  C:\Users\jo\AppData\Local\Temp\ccnOsBUt.s 			page 86


 4742 09a8 8A       		.byte	0x8a
 4743 09a9 90090000 		.4byte	0x990
 4744 09ad 00       		.byte	0
 4745 09ae 07       		.uleb128 0x7
 4746 09af AC0E0000 		.4byte	.LASF136
 4747 09b3 17       		.byte	0x17
 4748 09b4 8D       		.byte	0x8d
 4749 09b5 85090000 		.4byte	0x985
 4750 09b9 04       		.byte	0x4
 4751 09ba 07       		.uleb128 0x7
 4752 09bb 63060000 		.4byte	.LASF140
 4753 09bf 17       		.byte	0x17
 4754 09c0 8E       		.byte	0x8e
 4755 09c1 85090000 		.4byte	0x985
 4756 09c5 08       		.byte	0x8
 4757 09c6 10       		.uleb128 0x10
 4758 09c7 677700   		.ascii	"gw\000"
 4759 09ca 17       		.byte	0x17
 4760 09cb 8F       		.byte	0x8f
 4761 09cc 85090000 		.4byte	0x985
 4762 09d0 0C       		.byte	0xc
 4763 09d1 07       		.uleb128 0x7
 4764 09d2 F50A0000 		.4byte	.LASF141
 4765 09d6 17       		.byte	0x17
 4766 09d7 93       		.byte	0x93
 4767 09d8 4A0A0000 		.4byte	0xa4a
 4768 09dc 10       		.byte	0x10
 4769 09dd 07       		.uleb128 0x7
 4770 09de 78000000 		.4byte	.LASF142
 4771 09e2 17       		.byte	0x17
 4772 09e3 97       		.byte	0x97
 4773 09e4 6F0A0000 		.4byte	0xa6f
 4774 09e8 14       		.byte	0x14
 4775 09e9 07       		.uleb128 0x7
 4776 09ea 8E0E0000 		.4byte	.LASF143
 4777 09ee 17       		.byte	0x17
 4778 09ef 9B       		.byte	0x9b
 4779 09f0 9F0A0000 		.4byte	0xa9f
 4780 09f4 18       		.byte	0x18
 4781 09f5 07       		.uleb128 0x7
 4782 09f6 D20B0000 		.4byte	.LASF144
 4783 09fa 17       		.byte	0x17
 4784 09fb AC       		.byte	0xac
 4785 09fc 3C030000 		.4byte	0x33c
 4786 0a00 1C       		.byte	0x1c
 4787 0a01 10       		.uleb128 0x10
 4788 0a02 6D747500 		.ascii	"mtu\000"
 4789 0a06 17       		.byte	0x17
 4790 0a07 BA       		.byte	0xba
 4791 0a08 60080000 		.4byte	0x860
 4792 0a0c 20       		.byte	0x20
 4793 0a0d 07       		.uleb128 0x7
 4794 0a0e C9070000 		.4byte	.LASF145
 4795 0a12 17       		.byte	0x17
 4796 0a13 BC       		.byte	0xbc
 4797 0a14 4A080000 		.4byte	0x84a
 4798 0a18 22       		.byte	0x22
ARM GAS  C:\Users\jo\AppData\Local\Temp\ccnOsBUt.s 			page 87


 4799 0a19 07       		.uleb128 0x7
 4800 0a1a 6B030000 		.4byte	.LASF146
 4801 0a1e 17       		.byte	0x17
 4802 0a1f BE       		.byte	0xbe
 4803 0a20 C40A0000 		.4byte	0xac4
 4804 0a24 23       		.byte	0x23
 4805 0a25 07       		.uleb128 0x7
 4806 0a26 B9040000 		.4byte	.LASF135
 4807 0a2a 17       		.byte	0x17
 4808 0a2b C0       		.byte	0xc0
 4809 0a2c 4A080000 		.4byte	0x84a
 4810 0a30 29       		.byte	0x29
 4811 0a31 07       		.uleb128 0x7
 4812 0a32 37000000 		.4byte	.LASF147
 4813 0a36 17       		.byte	0x17
 4814 0a37 C2       		.byte	0xc2
 4815 0a38 D40A0000 		.4byte	0xad4
 4816 0a3c 2A       		.byte	0x2a
 4817 0a3d 10       		.uleb128 0x10
 4818 0a3e 6E756D00 		.ascii	"num\000"
 4819 0a42 17       		.byte	0x17
 4820 0a43 C4       		.byte	0xc4
 4821 0a44 4A080000 		.4byte	0x84a
 4822 0a48 2C       		.byte	0x2c
 4823 0a49 00       		.byte	0
 4824 0a4a 03       		.uleb128 0x3
 4825 0a4b C1020000 		.4byte	.LASF148
 4826 0a4f 17       		.byte	0x17
 4827 0a50 6D       		.byte	0x6d
 4828 0a51 550A0000 		.4byte	0xa55
 4829 0a55 0B       		.uleb128 0xb
 4830 0a56 04       		.byte	0x4
 4831 0a57 5B0A0000 		.4byte	0xa5b
 4832 0a5b 19       		.uleb128 0x19
 4833 0a5c A2080000 		.4byte	0x8a2
 4834 0a60 6F0A0000 		.4byte	0xa6f
 4835 0a64 0D       		.uleb128 0xd
 4836 0a65 66090000 		.4byte	0x966
 4837 0a69 0D       		.uleb128 0xd
 4838 0a6a 90090000 		.4byte	0x990
 4839 0a6e 00       		.byte	0
 4840 0a6f 03       		.uleb128 0x3
 4841 0a70 2F020000 		.4byte	.LASF149
 4842 0a74 17       		.byte	0x17
 4843 0a75 76       		.byte	0x76
 4844 0a76 7A0A0000 		.4byte	0xa7a
 4845 0a7a 0B       		.uleb128 0xb
 4846 0a7b 04       		.byte	0x4
 4847 0a7c 800A0000 		.4byte	0xa80
 4848 0a80 19       		.uleb128 0x19
 4849 0a81 A2080000 		.4byte	0x8a2
 4850 0a85 990A0000 		.4byte	0xa99
 4851 0a89 0D       		.uleb128 0xd
 4852 0a8a 90090000 		.4byte	0x990
 4853 0a8e 0D       		.uleb128 0xd
 4854 0a8f 66090000 		.4byte	0x966
 4855 0a93 0D       		.uleb128 0xd
ARM GAS  C:\Users\jo\AppData\Local\Temp\ccnOsBUt.s 			page 88


 4856 0a94 990A0000 		.4byte	0xa99
 4857 0a98 00       		.byte	0
 4858 0a99 0B       		.uleb128 0xb
 4859 0a9a 04       		.byte	0x4
 4860 0a9b 85090000 		.4byte	0x985
 4861 0a9f 03       		.uleb128 0x3
 4862 0aa0 FE090000 		.4byte	.LASF150
 4863 0aa4 17       		.byte	0x17
 4864 0aa5 7E       		.byte	0x7e
 4865 0aa6 AA0A0000 		.4byte	0xaaa
 4866 0aaa 0B       		.uleb128 0xb
 4867 0aab 04       		.byte	0x4
 4868 0aac B00A0000 		.4byte	0xab0
 4869 0ab0 19       		.uleb128 0x19
 4870 0ab1 A2080000 		.4byte	0x8a2
 4871 0ab5 C40A0000 		.4byte	0xac4
 4872 0ab9 0D       		.uleb128 0xd
 4873 0aba 90090000 		.4byte	0x990
 4874 0abe 0D       		.uleb128 0xd
 4875 0abf 66090000 		.4byte	0x966
 4876 0ac3 00       		.byte	0
 4877 0ac4 17       		.uleb128 0x17
 4878 0ac5 4A080000 		.4byte	0x84a
 4879 0ac9 D40A0000 		.4byte	0xad4
 4880 0acd 18       		.uleb128 0x18
 4881 0ace 72040000 		.4byte	0x472
 4882 0ad2 05       		.byte	0x5
 4883 0ad3 00       		.byte	0
 4884 0ad4 17       		.uleb128 0x17
 4885 0ad5 17060000 		.4byte	0x617
 4886 0ad9 E40A0000 		.4byte	0xae4
 4887 0add 18       		.uleb128 0x18
 4888 0ade 72040000 		.4byte	0x472
 4889 0ae2 01       		.byte	0x1
 4890 0ae3 00       		.byte	0
 4891 0ae4 03       		.uleb128 0x3
 4892 0ae5 BD000000 		.4byte	.LASF151
 4893 0ae9 18       		.byte	0x18
 4894 0aea 3C       		.byte	0x3c
 4895 0aeb EF0A0000 		.4byte	0xaef
 4896 0aef 0B       		.uleb128 0xb
 4897 0af0 04       		.byte	0x4
 4898 0af1 F50A0000 		.4byte	0xaf5
 4899 0af5 19       		.uleb128 0x19
 4900 0af6 A2080000 		.4byte	0x8a2
 4901 0afa 0E0B0000 		.4byte	0xb0e
 4902 0afe 0D       		.uleb128 0xd
 4903 0aff 3C030000 		.4byte	0x33c
 4904 0b03 0D       		.uleb128 0xd
 4905 0b04 0E0B0000 		.4byte	0xb0e
 4906 0b08 0D       		.uleb128 0xd
 4907 0b09 A2080000 		.4byte	0x8a2
 4908 0b0d 00       		.byte	0
 4909 0b0e 0B       		.uleb128 0xb
 4910 0b0f 04       		.byte	0x4
 4911 0b10 140B0000 		.4byte	0xb14
 4912 0b14 06       		.uleb128 0x6
ARM GAS  C:\Users\jo\AppData\Local\Temp\ccnOsBUt.s 			page 89


 4913 0b15 5F0D0000 		.4byte	.LASF152
 4914 0b19 98       		.byte	0x98
 4915 0b1a 18       		.byte	0x18
 4916 0b1b A8       		.byte	0xa8
 4917 0b1c C60D0000 		.4byte	0xdc6
 4918 0b20 07       		.uleb128 0x7
 4919 0b21 84090000 		.4byte	.LASF153
 4920 0b25 18       		.byte	0x18
 4921 0b26 AA       		.byte	0xaa
 4922 0b27 85090000 		.4byte	0x985
 4923 0b2b 00       		.byte	0
 4924 0b2c 07       		.uleb128 0x7
 4925 0b2d CC0D0000 		.4byte	.LASF154
 4926 0b31 18       		.byte	0x18
 4927 0b32 AA       		.byte	0xaa
 4928 0b33 85090000 		.4byte	0x985
 4929 0b37 04       		.byte	0x4
 4930 0b38 07       		.uleb128 0x7
 4931 0b39 5E000000 		.4byte	.LASF155
 4932 0b3d 18       		.byte	0x18
 4933 0b3e AA       		.byte	0xaa
 4934 0b3f 4A080000 		.4byte	0x84a
 4935 0b43 08       		.byte	0x8
 4936 0b44 10       		.uleb128 0x10
 4937 0b45 746F7300 		.ascii	"tos\000"
 4938 0b49 18       		.byte	0x18
 4939 0b4a AA       		.byte	0xaa
 4940 0b4b 4A080000 		.4byte	0x84a
 4941 0b4f 09       		.byte	0x9
 4942 0b50 10       		.uleb128 0x10
 4943 0b51 74746C00 		.ascii	"ttl\000"
 4944 0b55 18       		.byte	0x18
 4945 0b56 AA       		.byte	0xaa
 4946 0b57 4A080000 		.4byte	0x84a
 4947 0b5b 0A       		.byte	0xa
 4948 0b5c 07       		.uleb128 0x7
 4949 0b5d 29010000 		.4byte	.LASF131
 4950 0b61 18       		.byte	0x18
 4951 0b62 AC       		.byte	0xac
 4952 0b63 0E0B0000 		.4byte	0xb0e
 4953 0b67 0C       		.byte	0xc
 4954 0b68 07       		.uleb128 0x7
 4955 0b69 AD0B0000 		.4byte	.LASF156
 4956 0b6d 18       		.byte	0x18
 4957 0b6e AC       		.byte	0xac
 4958 0b6f 3C030000 		.4byte	0x33c
 4959 0b73 10       		.byte	0x10
 4960 0b74 07       		.uleb128 0x7
 4961 0b75 FE020000 		.4byte	.LASF157
 4962 0b79 18       		.byte	0x18
 4963 0b7a AC       		.byte	0xac
 4964 0b7b E40A0000 		.4byte	0xae4
 4965 0b7f 14       		.byte	0x14
 4966 0b80 07       		.uleb128 0x7
 4967 0b81 D20B0000 		.4byte	.LASF144
 4968 0b85 18       		.byte	0x18
 4969 0b86 AC       		.byte	0xac
ARM GAS  C:\Users\jo\AppData\Local\Temp\ccnOsBUt.s 			page 90


 4970 0b87 700E0000 		.4byte	0xe70
 4971 0b8b 18       		.byte	0x18
 4972 0b8c 07       		.uleb128 0x7
 4973 0b8d 26050000 		.4byte	.LASF158
 4974 0b91 18       		.byte	0x18
 4975 0b92 AC       		.byte	0xac
 4976 0b93 4A080000 		.4byte	0x84a
 4977 0b97 19       		.byte	0x19
 4978 0b98 07       		.uleb128 0x7
 4979 0b99 1F030000 		.4byte	.LASF159
 4980 0b9d 18       		.byte	0x18
 4981 0b9e AC       		.byte	0xac
 4982 0b9f 60080000 		.4byte	0x860
 4983 0ba3 1A       		.byte	0x1a
 4984 0ba4 07       		.uleb128 0x7
 4985 0ba5 08070000 		.4byte	.LASF160
 4986 0ba9 18       		.byte	0x18
 4987 0baa AF       		.byte	0xaf
 4988 0bab 60080000 		.4byte	0x860
 4989 0baf 1C       		.byte	0x1c
 4990 0bb0 07       		.uleb128 0x7
 4991 0bb1 B9040000 		.4byte	.LASF135
 4992 0bb5 18       		.byte	0x18
 4993 0bb6 B1       		.byte	0xb1
 4994 0bb7 4A080000 		.4byte	0x84a
 4995 0bbb 1E       		.byte	0x1e
 4996 0bbc 07       		.uleb128 0x7
 4997 0bbd B5000000 		.4byte	.LASF161
 4998 0bc1 18       		.byte	0x18
 4999 0bc2 BF       		.byte	0xbf
 5000 0bc3 4A080000 		.4byte	0x84a
 5001 0bc7 1F       		.byte	0x1f
 5002 0bc8 07       		.uleb128 0x7
 5003 0bc9 2B050000 		.4byte	.LASF162
 5004 0bcd 18       		.byte	0x18
 5005 0bce BF       		.byte	0xbf
 5006 0bcf 4A080000 		.4byte	0x84a
 5007 0bd3 20       		.byte	0x20
 5008 0bd4 07       		.uleb128 0x7
 5009 0bd5 6C090000 		.4byte	.LASF163
 5010 0bd9 18       		.byte	0x18
 5011 0bda C0       		.byte	0xc0
 5012 0bdb 4A080000 		.4byte	0x84a
 5013 0bdf 21       		.byte	0x21
 5014 0be0 10       		.uleb128 0x10
 5015 0be1 746D7200 		.ascii	"tmr\000"
 5016 0be5 18       		.byte	0x18
 5017 0be6 C1       		.byte	0xc1
 5018 0be7 76080000 		.4byte	0x876
 5019 0beb 24       		.byte	0x24
 5020 0bec 07       		.uleb128 0x7
 5021 0bed FE030000 		.4byte	.LASF164
 5022 0bf1 18       		.byte	0x18
 5023 0bf2 C4       		.byte	0xc4
 5024 0bf3 76080000 		.4byte	0x876
 5025 0bf7 28       		.byte	0x28
 5026 0bf8 07       		.uleb128 0x7
ARM GAS  C:\Users\jo\AppData\Local\Temp\ccnOsBUt.s 			page 91


 5027 0bf9 10090000 		.4byte	.LASF165
 5028 0bfd 18       		.byte	0x18
 5029 0bfe C5       		.byte	0xc5
 5030 0bff 60080000 		.4byte	0x860
 5031 0c03 2C       		.byte	0x2c
 5032 0c04 07       		.uleb128 0x7
 5033 0c05 3B070000 		.4byte	.LASF166
 5034 0c09 18       		.byte	0x18
 5035 0c0a C6       		.byte	0xc6
 5036 0c0b 60080000 		.4byte	0x860
 5037 0c0f 2E       		.byte	0x2e
 5038 0c10 07       		.uleb128 0x7
 5039 0c11 A3010000 		.4byte	.LASF167
 5040 0c15 18       		.byte	0x18
 5041 0c16 C7       		.byte	0xc7
 5042 0c17 76080000 		.4byte	0x876
 5043 0c1b 30       		.byte	0x30
 5044 0c1c 07       		.uleb128 0x7
 5045 0c1d D0030000 		.4byte	.LASF168
 5046 0c21 18       		.byte	0x18
 5047 0c22 CA       		.byte	0xca
 5048 0c23 6B080000 		.4byte	0x86b
 5049 0c27 34       		.byte	0x34
 5050 0c28 10       		.uleb128 0x10
 5051 0c29 6D737300 		.ascii	"mss\000"
 5052 0c2d 18       		.byte	0x18
 5053 0c2e CC       		.byte	0xcc
 5054 0c2f 60080000 		.4byte	0x860
 5055 0c33 36       		.byte	0x36
 5056 0c34 07       		.uleb128 0x7
 5057 0c35 18090000 		.4byte	.LASF169
 5058 0c39 18       		.byte	0x18
 5059 0c3a CF       		.byte	0xcf
 5060 0c3b 76080000 		.4byte	0x876
 5061 0c3f 38       		.byte	0x38
 5062 0c40 07       		.uleb128 0x7
 5063 0c41 B5030000 		.4byte	.LASF170
 5064 0c45 18       		.byte	0x18
 5065 0c46 D0       		.byte	0xd0
 5066 0c47 76080000 		.4byte	0x876
 5067 0c4b 3C       		.byte	0x3c
 5068 0c4c 10       		.uleb128 0x10
 5069 0c4d 736100   		.ascii	"sa\000"
 5070 0c50 18       		.byte	0x18
 5071 0c51 D1       		.byte	0xd1
 5072 0c52 6B080000 		.4byte	0x86b
 5073 0c56 40       		.byte	0x40
 5074 0c57 10       		.uleb128 0x10
 5075 0c58 737600   		.ascii	"sv\000"
 5076 0c5b 18       		.byte	0x18
 5077 0c5c D1       		.byte	0xd1
 5078 0c5d 6B080000 		.4byte	0x86b
 5079 0c61 42       		.byte	0x42
 5080 0c62 10       		.uleb128 0x10
 5081 0c63 72746F00 		.ascii	"rto\000"
 5082 0c67 18       		.byte	0x18
 5083 0c68 D3       		.byte	0xd3
ARM GAS  C:\Users\jo\AppData\Local\Temp\ccnOsBUt.s 			page 92


 5084 0c69 6B080000 		.4byte	0x86b
 5085 0c6d 44       		.byte	0x44
 5086 0c6e 07       		.uleb128 0x7
 5087 0c6f 890E0000 		.4byte	.LASF171
 5088 0c73 18       		.byte	0x18
 5089 0c74 D4       		.byte	0xd4
 5090 0c75 4A080000 		.4byte	0x84a
 5091 0c79 46       		.byte	0x46
 5092 0c7a 07       		.uleb128 0x7
 5093 0c7b 1E050000 		.4byte	.LASF172
 5094 0c7f 18       		.byte	0x18
 5095 0c80 D7       		.byte	0xd7
 5096 0c81 4A080000 		.4byte	0x84a
 5097 0c85 47       		.byte	0x47
 5098 0c86 07       		.uleb128 0x7
 5099 0c87 33070000 		.4byte	.LASF173
 5100 0c8b 18       		.byte	0x18
 5101 0c8c D8       		.byte	0xd8
 5102 0c8d 76080000 		.4byte	0x876
 5103 0c91 48       		.byte	0x48
 5104 0c92 07       		.uleb128 0x7
 5105 0c93 E6020000 		.4byte	.LASF174
 5106 0c97 18       		.byte	0x18
 5107 0c98 DB       		.byte	0xdb
 5108 0c99 60080000 		.4byte	0x860
 5109 0c9d 4C       		.byte	0x4c
 5110 0c9e 07       		.uleb128 0x7
 5111 0c9f 210A0000 		.4byte	.LASF175
 5112 0ca3 18       		.byte	0x18
 5113 0ca4 DC       		.byte	0xdc
 5114 0ca5 60080000 		.4byte	0x860
 5115 0ca9 4E       		.byte	0x4e
 5116 0caa 07       		.uleb128 0x7
 5117 0cab B7090000 		.4byte	.LASF176
 5118 0caf 18       		.byte	0x18
 5119 0cb0 DF       		.byte	0xdf
 5120 0cb1 76080000 		.4byte	0x876
 5121 0cb5 50       		.byte	0x50
 5122 0cb6 07       		.uleb128 0x7
 5123 0cb7 F3050000 		.4byte	.LASF177
 5124 0cbb 18       		.byte	0x18
 5125 0cbc E0       		.byte	0xe0
 5126 0cbd 76080000 		.4byte	0x876
 5127 0cc1 54       		.byte	0x54
 5128 0cc2 07       		.uleb128 0x7
 5129 0cc3 FB050000 		.4byte	.LASF178
 5130 0cc7 18       		.byte	0x18
 5131 0cc8 E0       		.byte	0xe0
 5132 0cc9 76080000 		.4byte	0x876
 5133 0ccd 58       		.byte	0x58
 5134 0cce 07       		.uleb128 0x7
 5135 0ccf E9040000 		.4byte	.LASF179
 5136 0cd3 18       		.byte	0x18
 5137 0cd4 E2       		.byte	0xe2
 5138 0cd5 76080000 		.4byte	0x876
 5139 0cd9 5C       		.byte	0x5c
 5140 0cda 07       		.uleb128 0x7
ARM GAS  C:\Users\jo\AppData\Local\Temp\ccnOsBUt.s 			page 93


 5141 0cdb B80D0000 		.4byte	.LASF180
 5142 0cdf 18       		.byte	0x18
 5143 0ce0 E3       		.byte	0xe3
 5144 0ce1 60080000 		.4byte	0x860
 5145 0ce5 60       		.byte	0x60
 5146 0ce6 07       		.uleb128 0x7
 5147 0ce7 ED090000 		.4byte	.LASF181
 5148 0ceb 18       		.byte	0x18
 5149 0cec E4       		.byte	0xe4
 5150 0ced 60080000 		.4byte	0x860
 5151 0cf1 62       		.byte	0x62
 5152 0cf2 07       		.uleb128 0x7
 5153 0cf3 8B050000 		.4byte	.LASF182
 5154 0cf7 18       		.byte	0x18
 5155 0cf8 E6       		.byte	0xe6
 5156 0cf9 60080000 		.4byte	0x860
 5157 0cfd 64       		.byte	0x64
 5158 0cfe 07       		.uleb128 0x7
 5159 0cff 2A0A0000 		.4byte	.LASF183
 5160 0d03 18       		.byte	0x18
 5161 0d04 E8       		.byte	0xe8
 5162 0d05 60080000 		.4byte	0x860
 5163 0d09 66       		.byte	0x66
 5164 0d0a 07       		.uleb128 0x7
 5165 0d0b 010C0000 		.4byte	.LASF184
 5166 0d0f 18       		.byte	0x18
 5167 0d10 EA       		.byte	0xea
 5168 0d11 60080000 		.4byte	0x860
 5169 0d15 68       		.byte	0x68
 5170 0d16 07       		.uleb128 0x7
 5171 0d17 9E090000 		.4byte	.LASF185
 5172 0d1b 18       		.byte	0x18
 5173 0d1c EE       		.byte	0xee
 5174 0d1d 60080000 		.4byte	0x860
 5175 0d21 6A       		.byte	0x6a
 5176 0d22 07       		.uleb128 0x7
 5177 0d23 09090000 		.4byte	.LASF186
 5178 0d27 18       		.byte	0x18
 5179 0d28 F2       		.byte	0xf2
 5180 0d29 0C0F0000 		.4byte	0xf0c
 5181 0d2d 6C       		.byte	0x6c
 5182 0d2e 07       		.uleb128 0x7
 5183 0d2f 1B040000 		.4byte	.LASF187
 5184 0d33 18       		.byte	0x18
 5185 0d34 F3       		.byte	0xf3
 5186 0d35 0C0F0000 		.4byte	0xf0c
 5187 0d39 70       		.byte	0x70
 5188 0d3a 07       		.uleb128 0x7
 5189 0d3b 2E010000 		.4byte	.LASF188
 5190 0d3f 18       		.byte	0x18
 5191 0d40 F5       		.byte	0xf5
 5192 0d41 0C0F0000 		.4byte	0xf0c
 5193 0d45 74       		.byte	0x74
 5194 0d46 07       		.uleb128 0x7
 5195 0d47 D30A0000 		.4byte	.LASF189
 5196 0d4b 18       		.byte	0x18
 5197 0d4c F8       		.byte	0xf8
ARM GAS  C:\Users\jo\AppData\Local\Temp\ccnOsBUt.s 			page 94


 5198 0d4d 66090000 		.4byte	0x966
 5199 0d51 78       		.byte	0x78
 5200 0d52 07       		.uleb128 0x7
 5201 0d53 E6050000 		.4byte	.LASF190
 5202 0d57 18       		.byte	0x18
 5203 0d58 FC       		.byte	0xfc
 5204 0d59 F50D0000 		.4byte	0xdf5
 5205 0d5d 7C       		.byte	0x7c
 5206 0d5e 07       		.uleb128 0x7
 5207 0d5f 2E0C0000 		.4byte	.LASF191
 5208 0d63 18       		.byte	0x18
 5209 0d64 FE       		.byte	0xfe
 5210 0d65 C60D0000 		.4byte	0xdc6
 5211 0d69 80       		.byte	0x80
 5212 0d6a 09       		.uleb128 0x9
 5213 0d6b 7A040000 		.4byte	.LASF192
 5214 0d6f 18       		.byte	0x18
 5215 0d70 0001     		.2byte	0x100
 5216 0d72 650E0000 		.4byte	0xe65
 5217 0d76 84       		.byte	0x84
 5218 0d77 09       		.uleb128 0x9
 5219 0d78 42050000 		.4byte	.LASF193
 5220 0d7c 18       		.byte	0x18
 5221 0d7d 0201     		.2byte	0x102
 5222 0d7f 1F0E0000 		.4byte	0xe1f
 5223 0d83 88       		.byte	0x88
 5224 0d84 09       		.uleb128 0x9
 5225 0d85 F1070000 		.4byte	.LASF194
 5226 0d89 18       		.byte	0x18
 5227 0d8a 0401     		.2byte	0x104
 5228 0d8c 440E0000 		.4byte	0xe44
 5229 0d90 8C       		.byte	0x8c
 5230 0d91 09       		.uleb128 0x9
 5231 0d92 990B0000 		.4byte	.LASF195
 5232 0d96 18       		.byte	0x18
 5233 0d97 0D01     		.2byte	0x10d
 5234 0d99 76080000 		.4byte	0x876
 5235 0d9d 90       		.byte	0x90
 5236 0d9e 09       		.uleb128 0x9
 5237 0d9f C00D0000 		.4byte	.LASF196
 5238 0da3 18       		.byte	0x18
 5239 0da4 1401     		.2byte	0x114
 5240 0da6 4A080000 		.4byte	0x84a
 5241 0daa 94       		.byte	0x94
 5242 0dab 09       		.uleb128 0x9
 5243 0dac 90060000 		.4byte	.LASF197
 5244 0db0 18       		.byte	0x18
 5245 0db1 1601     		.2byte	0x116
 5246 0db3 4A080000 		.4byte	0x84a
 5247 0db7 95       		.byte	0x95
 5248 0db8 09       		.uleb128 0x9
 5249 0db9 4A020000 		.4byte	.LASF198
 5250 0dbd 18       		.byte	0x18
 5251 0dbe 1901     		.2byte	0x119
 5252 0dc0 4A080000 		.4byte	0x84a
 5253 0dc4 96       		.byte	0x96
 5254 0dc5 00       		.byte	0
ARM GAS  C:\Users\jo\AppData\Local\Temp\ccnOsBUt.s 			page 95


 5255 0dc6 03       		.uleb128 0x3
 5256 0dc7 65070000 		.4byte	.LASF199
 5257 0dcb 18       		.byte	0x18
 5258 0dcc 48       		.byte	0x48
 5259 0dcd D10D0000 		.4byte	0xdd1
 5260 0dd1 0B       		.uleb128 0xb
 5261 0dd2 04       		.byte	0x4
 5262 0dd3 D70D0000 		.4byte	0xdd7
 5263 0dd7 19       		.uleb128 0x19
 5264 0dd8 A2080000 		.4byte	0x8a2
 5265 0ddc F50D0000 		.4byte	0xdf5
 5266 0de0 0D       		.uleb128 0xd
 5267 0de1 3C030000 		.4byte	0x33c
 5268 0de5 0D       		.uleb128 0xd
 5269 0de6 0E0B0000 		.4byte	0xb0e
 5270 0dea 0D       		.uleb128 0xd
 5271 0deb 66090000 		.4byte	0x966
 5272 0def 0D       		.uleb128 0xd
 5273 0df0 A2080000 		.4byte	0x8a2
 5274 0df4 00       		.byte	0
 5275 0df5 03       		.uleb128 0x3
 5276 0df6 72020000 		.4byte	.LASF200
 5277 0dfa 18       		.byte	0x18
 5278 0dfb 56       		.byte	0x56
 5279 0dfc 000E0000 		.4byte	0xe00
 5280 0e00 0B       		.uleb128 0xb
 5281 0e01 04       		.byte	0x4
 5282 0e02 060E0000 		.4byte	0xe06
 5283 0e06 19       		.uleb128 0x19
 5284 0e07 A2080000 		.4byte	0x8a2
 5285 0e0b 1F0E0000 		.4byte	0xe1f
 5286 0e0f 0D       		.uleb128 0xd
 5287 0e10 3C030000 		.4byte	0x33c
 5288 0e14 0D       		.uleb128 0xd
 5289 0e15 0E0B0000 		.4byte	0xb0e
 5290 0e19 0D       		.uleb128 0xd
 5291 0e1a 60080000 		.4byte	0x860
 5292 0e1e 00       		.byte	0
 5293 0e1f 03       		.uleb128 0x3
 5294 0e20 AC070000 		.4byte	.LASF201
 5295 0e24 18       		.byte	0x18
 5296 0e25 62       		.byte	0x62
 5297 0e26 2A0E0000 		.4byte	0xe2a
 5298 0e2a 0B       		.uleb128 0xb
 5299 0e2b 04       		.byte	0x4
 5300 0e2c 300E0000 		.4byte	0xe30
 5301 0e30 19       		.uleb128 0x19
 5302 0e31 A2080000 		.4byte	0x8a2
 5303 0e35 440E0000 		.4byte	0xe44
 5304 0e39 0D       		.uleb128 0xd
 5305 0e3a 3C030000 		.4byte	0x33c
 5306 0e3e 0D       		.uleb128 0xd
 5307 0e3f 0E0B0000 		.4byte	0xb0e
 5308 0e43 00       		.byte	0
 5309 0e44 03       		.uleb128 0x3
 5310 0e45 15060000 		.4byte	.LASF202
 5311 0e49 18       		.byte	0x18
ARM GAS  C:\Users\jo\AppData\Local\Temp\ccnOsBUt.s 			page 96


 5312 0e4a 6E       		.byte	0x6e
 5313 0e4b 4F0E0000 		.4byte	0xe4f
 5314 0e4f 0B       		.uleb128 0xb
 5315 0e50 04       		.byte	0x4
 5316 0e51 550E0000 		.4byte	0xe55
 5317 0e55 0C       		.uleb128 0xc
 5318 0e56 650E0000 		.4byte	0xe65
 5319 0e5a 0D       		.uleb128 0xd
 5320 0e5b 3C030000 		.4byte	0x33c
 5321 0e5f 0D       		.uleb128 0xd
 5322 0e60 A2080000 		.4byte	0x8a2
 5323 0e64 00       		.byte	0
 5324 0e65 03       		.uleb128 0x3
 5325 0e66 18010000 		.4byte	.LASF203
 5326 0e6a 18       		.byte	0x18
 5327 0e6b 7C       		.byte	0x7c
 5328 0e6c EF0A0000 		.4byte	0xaef
 5329 0e70 1C       		.uleb128 0x1c
 5330 0e71 C6030000 		.4byte	.LASF337
 5331 0e75 01       		.byte	0x1
 5332 0e76 18       		.byte	0x18
 5333 0e77 7E       		.byte	0x7e
 5334 0e78 BF0E0000 		.4byte	0xebf
 5335 0e7c 1B       		.uleb128 0x1b
 5336 0e7d 79080000 		.4byte	.LASF204
 5337 0e81 00       		.sleb128 0
 5338 0e82 1B       		.uleb128 0x1b
 5339 0e83 BA0B0000 		.4byte	.LASF205
 5340 0e87 01       		.sleb128 1
 5341 0e88 1B       		.uleb128 0x1b
 5342 0e89 AE090000 		.4byte	.LASF206
 5343 0e8d 02       		.sleb128 2
 5344 0e8e 1B       		.uleb128 0x1b
 5345 0e8f A30E0000 		.4byte	.LASF207
 5346 0e93 03       		.sleb128 3
 5347 0e94 1B       		.uleb128 0x1b
 5348 0e95 D8090000 		.4byte	.LASF208
 5349 0e99 04       		.sleb128 4
 5350 0e9a 1B       		.uleb128 0x1b
 5351 0e9b 410B0000 		.4byte	.LASF209
 5352 0e9f 05       		.sleb128 5
 5353 0ea0 1B       		.uleb128 0x1b
 5354 0ea1 4C0B0000 		.4byte	.LASF210
 5355 0ea5 06       		.sleb128 6
 5356 0ea6 1B       		.uleb128 0x1b
 5357 0ea7 91050000 		.4byte	.LASF211
 5358 0eab 07       		.sleb128 7
 5359 0eac 1B       		.uleb128 0x1b
 5360 0ead A7040000 		.4byte	.LASF212
 5361 0eb1 08       		.sleb128 8
 5362 0eb2 1B       		.uleb128 0x1b
 5363 0eb3 2A070000 		.4byte	.LASF213
 5364 0eb7 09       		.sleb128 9
 5365 0eb8 1B       		.uleb128 0x1b
 5366 0eb9 F9000000 		.4byte	.LASF214
 5367 0ebd 0A       		.sleb128 10
 5368 0ebe 00       		.byte	0
ARM GAS  C:\Users\jo\AppData\Local\Temp\ccnOsBUt.s 			page 97


 5369 0ebf 0A       		.uleb128 0xa
 5370 0ec0 79030000 		.4byte	.LASF215
 5371 0ec4 10       		.byte	0x10
 5372 0ec5 19       		.byte	0x19
 5373 0ec6 1501     		.2byte	0x115
 5374 0ec8 0C0F0000 		.4byte	0xf0c
 5375 0ecc 09       		.uleb128 0x9
 5376 0ecd 29010000 		.4byte	.LASF131
 5377 0ed1 19       		.byte	0x19
 5378 0ed2 1601     		.2byte	0x116
 5379 0ed4 0C0F0000 		.4byte	0xf0c
 5380 0ed8 00       		.byte	0
 5381 0ed9 08       		.uleb128 0x8
 5382 0eda 7000     		.ascii	"p\000"
 5383 0edc 19       		.byte	0x19
 5384 0edd 1701     		.2byte	0x117
 5385 0edf 66090000 		.4byte	0x966
 5386 0ee3 04       		.byte	0x4
 5387 0ee4 08       		.uleb128 0x8
 5388 0ee5 6C656E00 		.ascii	"len\000"
 5389 0ee9 19       		.byte	0x19
 5390 0eea 1801     		.2byte	0x118
 5391 0eec 60080000 		.4byte	0x860
 5392 0ef0 08       		.byte	0x8
 5393 0ef1 09       		.uleb128 0x9
 5394 0ef2 B9040000 		.4byte	.LASF135
 5395 0ef6 19       		.byte	0x19
 5396 0ef7 2201     		.2byte	0x122
 5397 0ef9 4A080000 		.4byte	0x84a
 5398 0efd 0A       		.byte	0xa
 5399 0efe 09       		.uleb128 0x9
 5400 0eff 9B0A0000 		.4byte	.LASF216
 5401 0f03 19       		.byte	0x19
 5402 0f04 2701     		.2byte	0x127
 5403 0f06 7F0F0000 		.4byte	0xf7f
 5404 0f0a 0C       		.byte	0xc
 5405 0f0b 00       		.byte	0
 5406 0f0c 0B       		.uleb128 0xb
 5407 0f0d 04       		.byte	0x4
 5408 0f0e BF0E0000 		.4byte	0xebf
 5409 0f12 06       		.uleb128 0x6
 5410 0f13 0C0B0000 		.4byte	.LASF217
 5411 0f17 14       		.byte	0x14
 5412 0f18 19       		.byte	0x19
 5413 0f19 9F       		.byte	0x9f
 5414 0f1a 7F0F0000 		.4byte	0xf7f
 5415 0f1e 10       		.uleb128 0x10
 5416 0f1f 73726300 		.ascii	"src\000"
 5417 0f23 19       		.byte	0x19
 5418 0f24 A0       		.byte	0xa0
 5419 0f25 60080000 		.4byte	0x860
 5420 0f29 00       		.byte	0
 5421 0f2a 07       		.uleb128 0x7
 5422 0f2b 990E0000 		.4byte	.LASF218
 5423 0f2f 19       		.byte	0x19
 5424 0f30 A1       		.byte	0xa1
 5425 0f31 60080000 		.4byte	0x860
ARM GAS  C:\Users\jo\AppData\Local\Temp\ccnOsBUt.s 			page 98


 5426 0f35 02       		.byte	0x2
 5427 0f36 07       		.uleb128 0x7
 5428 0f37 BB020000 		.4byte	.LASF219
 5429 0f3b 19       		.byte	0x19
 5430 0f3c A2       		.byte	0xa2
 5431 0f3d 76080000 		.4byte	0x876
 5432 0f41 04       		.byte	0x4
 5433 0f42 07       		.uleb128 0x7
 5434 0f43 82060000 		.4byte	.LASF220
 5435 0f47 19       		.byte	0x19
 5436 0f48 A3       		.byte	0xa3
 5437 0f49 76080000 		.4byte	0x876
 5438 0f4d 08       		.byte	0x8
 5439 0f4e 07       		.uleb128 0x7
 5440 0f4f 3F0A0000 		.4byte	.LASF221
 5441 0f53 19       		.byte	0x19
 5442 0f54 A4       		.byte	0xa4
 5443 0f55 60080000 		.4byte	0x860
 5444 0f59 0C       		.byte	0xc
 5445 0f5a 10       		.uleb128 0x10
 5446 0f5b 776E6400 		.ascii	"wnd\000"
 5447 0f5f 19       		.byte	0x19
 5448 0f60 A5       		.byte	0xa5
 5449 0f61 60080000 		.4byte	0x860
 5450 0f65 0E       		.byte	0xe
 5451 0f66 07       		.uleb128 0x7
 5452 0f67 5C040000 		.4byte	.LASF222
 5453 0f6b 19       		.byte	0x19
 5454 0f6c A6       		.byte	0xa6
 5455 0f6d 60080000 		.4byte	0x860
 5456 0f71 10       		.byte	0x10
 5457 0f72 07       		.uleb128 0x7
 5458 0f73 A2000000 		.4byte	.LASF223
 5459 0f77 19       		.byte	0x19
 5460 0f78 A7       		.byte	0xa7
 5461 0f79 60080000 		.4byte	0x860
 5462 0f7d 12       		.byte	0x12
 5463 0f7e 00       		.byte	0
 5464 0f7f 0B       		.uleb128 0xb
 5465 0f80 04       		.byte	0x4
 5466 0f81 120F0000 		.4byte	0xf12
 5467 0f85 1A       		.uleb128 0x1a
 5468 0f86 01       		.byte	0x1
 5469 0f87 1A       		.byte	0x1a
 5470 0f88 2B       		.byte	0x2b
 5471 0f89 E80F0000 		.4byte	0xfe8
 5472 0f8d 1B       		.uleb128 0x1b
 5473 0f8e F2060000 		.4byte	.LASF224
 5474 0f92 00       		.sleb128 0
 5475 0f93 1B       		.uleb128 0x1b
 5476 0f94 77090000 		.4byte	.LASF225
 5477 0f98 01       		.sleb128 1
 5478 0f99 1B       		.uleb128 0x1b
 5479 0f9a A6060000 		.4byte	.LASF226
 5480 0f9e 02       		.sleb128 2
 5481 0f9f 1B       		.uleb128 0x1b
 5482 0fa0 3C000000 		.4byte	.LASF227
ARM GAS  C:\Users\jo\AppData\Local\Temp\ccnOsBUt.s 			page 99


 5483 0fa4 03       		.sleb128 3
 5484 0fa5 1B       		.uleb128 0x1b
 5485 0fa6 740B0000 		.4byte	.LASF228
 5486 0faa 04       		.sleb128 4
 5487 0fab 1B       		.uleb128 0x1b
 5488 0fac 56070000 		.4byte	.LASF229
 5489 0fb0 05       		.sleb128 5
 5490 0fb1 1B       		.uleb128 0x1b
 5491 0fb2 120A0000 		.4byte	.LASF230
 5492 0fb6 06       		.sleb128 6
 5493 0fb7 1B       		.uleb128 0x1b
 5494 0fb8 57060000 		.4byte	.LASF231
 5495 0fbc 07       		.sleb128 7
 5496 0fbd 1B       		.uleb128 0x1b
 5497 0fbe D9020000 		.4byte	.LASF232
 5498 0fc2 08       		.sleb128 8
 5499 0fc3 1B       		.uleb128 0x1b
 5500 0fc4 05030000 		.4byte	.LASF233
 5501 0fc8 09       		.sleb128 9
 5502 0fc9 1B       		.uleb128 0x1b
 5503 0fca 06040000 		.4byte	.LASF234
 5504 0fce 0A       		.sleb128 10
 5505 0fcf 1B       		.uleb128 0x1b
 5506 0fd0 5B090000 		.4byte	.LASF235
 5507 0fd4 0B       		.sleb128 11
 5508 0fd5 1B       		.uleb128 0x1b
 5509 0fd6 38050000 		.4byte	.LASF236
 5510 0fda 0C       		.sleb128 12
 5511 0fdb 1B       		.uleb128 0x1b
 5512 0fdc 58020000 		.4byte	.LASF237
 5513 0fe0 0D       		.sleb128 13
 5514 0fe1 1B       		.uleb128 0x1b
 5515 0fe2 CA040000 		.4byte	.LASF238
 5516 0fe6 0E       		.sleb128 14
 5517 0fe7 00       		.byte	0
 5518 0fe8 03       		.uleb128 0x3
 5519 0fe9 4A0E0000 		.4byte	.LASF239
 5520 0fed 1A       		.byte	0x1a
 5521 0fee 2F       		.byte	0x2f
 5522 0fef 850F0000 		.4byte	0xf85
 5523 0ff3 06       		.uleb128 0x6
 5524 0ff4 2B000000 		.4byte	.LASF240
 5525 0ff8 18       		.byte	0x18
 5526 0ff9 1B       		.byte	0x1b
 5527 0ffa 3A       		.byte	0x3a
 5528 0ffb 8F100000 		.4byte	0x108f
 5529 0fff 07       		.uleb128 0x7
 5530 1000 B30D0000 		.4byte	.LASF241
 5531 1004 1B       		.byte	0x1b
 5532 1005 3B       		.byte	0x3b
 5533 1006 60080000 		.4byte	0x860
 5534 100a 00       		.byte	0
 5535 100b 07       		.uleb128 0x7
 5536 100c 2E0C0000 		.4byte	.LASF191
 5537 1010 1B       		.byte	0x1b
 5538 1011 3C       		.byte	0x3c
 5539 1012 60080000 		.4byte	0x860
ARM GAS  C:\Users\jo\AppData\Local\Temp\ccnOsBUt.s 			page 100


 5540 1016 02       		.byte	0x2
 5541 1017 10       		.uleb128 0x10
 5542 1018 667700   		.ascii	"fw\000"
 5543 101b 1B       		.byte	0x1b
 5544 101c 3D       		.byte	0x3d
 5545 101d 60080000 		.4byte	0x860
 5546 1021 04       		.byte	0x4
 5547 1022 07       		.uleb128 0x7
 5548 1023 CD0B0000 		.4byte	.LASF242
 5549 1027 1B       		.byte	0x1b
 5550 1028 3E       		.byte	0x3e
 5551 1029 60080000 		.4byte	0x860
 5552 102d 06       		.byte	0x6
 5553 102e 07       		.uleb128 0x7
 5554 102f 47070000 		.4byte	.LASF243
 5555 1033 1B       		.byte	0x1b
 5556 1034 3F       		.byte	0x3f
 5557 1035 60080000 		.4byte	0x860
 5558 1039 08       		.byte	0x8
 5559 103a 07       		.uleb128 0x7
 5560 103b 520A0000 		.4byte	.LASF244
 5561 103f 1B       		.byte	0x1b
 5562 1040 40       		.byte	0x40
 5563 1041 60080000 		.4byte	0x860
 5564 1045 0A       		.byte	0xa
 5565 1046 07       		.uleb128 0x7
 5566 1047 6D0B0000 		.4byte	.LASF245
 5567 104b 1B       		.byte	0x1b
 5568 104c 41       		.byte	0x41
 5569 104d 60080000 		.4byte	0x860
 5570 1051 0C       		.byte	0xc
 5571 1052 07       		.uleb128 0x7
 5572 1053 E9080000 		.4byte	.LASF246
 5573 1057 1B       		.byte	0x1b
 5574 1058 42       		.byte	0x42
 5575 1059 60080000 		.4byte	0x860
 5576 105d 0E       		.byte	0xe
 5577 105e 07       		.uleb128 0x7
 5578 105f ED0A0000 		.4byte	.LASF247
 5579 1063 1B       		.byte	0x1b
 5580 1064 43       		.byte	0x43
 5581 1065 60080000 		.4byte	0x860
 5582 1069 10       		.byte	0x10
 5583 106a 07       		.uleb128 0x7
 5584 106b 18030000 		.4byte	.LASF248
 5585 106f 1B       		.byte	0x1b
 5586 1070 44       		.byte	0x44
 5587 1071 60080000 		.4byte	0x860
 5588 1075 12       		.byte	0x12
 5589 1076 10       		.uleb128 0x10
 5590 1077 65727200 		.ascii	"err\000"
 5591 107b 1B       		.byte	0x1b
 5592 107c 45       		.byte	0x45
 5593 107d 60080000 		.4byte	0x860
 5594 1081 14       		.byte	0x14
 5595 1082 07       		.uleb128 0x7
 5596 1083 E4090000 		.4byte	.LASF249
ARM GAS  C:\Users\jo\AppData\Local\Temp\ccnOsBUt.s 			page 101


 5597 1087 1B       		.byte	0x1b
 5598 1088 46       		.byte	0x46
 5599 1089 60080000 		.4byte	0x860
 5600 108d 16       		.byte	0x16
 5601 108e 00       		.byte	0
 5602 108f 06       		.uleb128 0x6
 5603 1090 D2010000 		.4byte	.LASF250
 5604 1094 0A       		.byte	0xa
 5605 1095 1B       		.byte	0x1b
 5606 1096 5A       		.byte	0x5a
 5607 1097 D8100000 		.4byte	0x10d8
 5608 109b 07       		.uleb128 0x7
 5609 109c FC080000 		.4byte	.LASF251
 5610 10a0 1B       		.byte	0x1b
 5611 10a1 5E       		.byte	0x5e
 5612 10a2 97080000 		.4byte	0x897
 5613 10a6 00       		.byte	0
 5614 10a7 07       		.uleb128 0x7
 5615 10a8 14070000 		.4byte	.LASF252
 5616 10ac 1B       		.byte	0x1b
 5617 10ad 5F       		.byte	0x5f
 5618 10ae 97080000 		.4byte	0x897
 5619 10b2 02       		.byte	0x2
 5620 10b3 10       		.uleb128 0x10
 5621 10b4 6D617800 		.ascii	"max\000"
 5622 10b8 1B       		.byte	0x1b
 5623 10b9 60       		.byte	0x60
 5624 10ba 97080000 		.4byte	0x897
 5625 10be 04       		.byte	0x4
 5626 10bf 10       		.uleb128 0x10
 5627 10c0 65727200 		.ascii	"err\000"
 5628 10c4 1B       		.byte	0x1b
 5629 10c5 61       		.byte	0x61
 5630 10c6 60080000 		.4byte	0x860
 5631 10ca 06       		.byte	0x6
 5632 10cb 07       		.uleb128 0x7
 5633 10cc 58050000 		.4byte	.LASF253
 5634 10d0 1B       		.byte	0x1b
 5635 10d1 62       		.byte	0x62
 5636 10d2 60080000 		.4byte	0x860
 5637 10d6 08       		.byte	0x8
 5638 10d7 00       		.byte	0
 5639 10d8 06       		.uleb128 0x6
 5640 10d9 AD020000 		.4byte	.LASF254
 5641 10dd 06       		.byte	0x6
 5642 10de 1B       		.byte	0x1b
 5643 10df 65       		.byte	0x65
 5644 10e0 09110000 		.4byte	0x1109
 5645 10e4 07       		.uleb128 0x7
 5646 10e5 14070000 		.4byte	.LASF252
 5647 10e9 1B       		.byte	0x1b
 5648 10ea 66       		.byte	0x66
 5649 10eb 60080000 		.4byte	0x860
 5650 10ef 00       		.byte	0
 5651 10f0 10       		.uleb128 0x10
 5652 10f1 6D617800 		.ascii	"max\000"
 5653 10f5 1B       		.byte	0x1b
ARM GAS  C:\Users\jo\AppData\Local\Temp\ccnOsBUt.s 			page 102


 5654 10f6 67       		.byte	0x67
 5655 10f7 60080000 		.4byte	0x860
 5656 10fb 02       		.byte	0x2
 5657 10fc 10       		.uleb128 0x10
 5658 10fd 65727200 		.ascii	"err\000"
 5659 1101 1B       		.byte	0x1b
 5660 1102 68       		.byte	0x68
 5661 1103 60080000 		.4byte	0x860
 5662 1107 04       		.byte	0x4
 5663 1108 00       		.byte	0
 5664 1109 06       		.uleb128 0x6
 5665 110a 200B0000 		.4byte	.LASF255
 5666 110e 12       		.byte	0x12
 5667 110f 1B       		.byte	0x1b
 5668 1110 6B       		.byte	0x6b
 5669 1111 3A110000 		.4byte	0x113a
 5670 1115 10       		.uleb128 0x10
 5671 1116 73656D00 		.ascii	"sem\000"
 5672 111a 1B       		.byte	0x1b
 5673 111b 6C       		.byte	0x6c
 5674 111c D8100000 		.4byte	0x10d8
 5675 1120 00       		.byte	0
 5676 1121 07       		.uleb128 0x7
 5677 1122 2A030000 		.4byte	.LASF98
 5678 1126 1B       		.byte	0x1b
 5679 1127 6D       		.byte	0x6d
 5680 1128 D8100000 		.4byte	0x10d8
 5681 112c 06       		.byte	0x6
 5682 112d 07       		.uleb128 0x7
 5683 112e 93090000 		.4byte	.LASF256
 5684 1132 1B       		.byte	0x1b
 5685 1133 6E       		.byte	0x6e
 5686 1134 D8100000 		.4byte	0x10d8
 5687 1138 0C       		.byte	0xc
 5688 1139 00       		.byte	0
 5689 113a 1D       		.uleb128 0x1d
 5690 113b 28040000 		.4byte	.LASF257
 5691 113f 5001     		.2byte	0x150
 5692 1141 1B       		.byte	0x1b
 5693 1142 71       		.byte	0x71
 5694 1143 C0110000 		.4byte	0x11c0
 5695 1147 07       		.uleb128 0x7
 5696 1148 F1040000 		.4byte	.LASF258
 5697 114c 1B       		.byte	0x1b
 5698 114d 73       		.byte	0x73
 5699 114e F30F0000 		.4byte	0xff3
 5700 1152 00       		.byte	0
 5701 1153 07       		.uleb128 0x7
 5702 1154 72030000 		.4byte	.LASF259
 5703 1158 1B       		.byte	0x1b
 5704 1159 76       		.byte	0x76
 5705 115a F30F0000 		.4byte	0xff3
 5706 115e 18       		.byte	0x18
 5707 115f 07       		.uleb128 0x7
 5708 1160 30030000 		.4byte	.LASF260
 5709 1164 1B       		.byte	0x1b
 5710 1165 79       		.byte	0x79
ARM GAS  C:\Users\jo\AppData\Local\Temp\ccnOsBUt.s 			page 103


 5711 1166 F30F0000 		.4byte	0xff3
 5712 116a 30       		.byte	0x30
 5713 116b 10       		.uleb128 0x10
 5714 116c 697000   		.ascii	"ip\000"
 5715 116f 1B       		.byte	0x1b
 5716 1170 7C       		.byte	0x7c
 5717 1171 F30F0000 		.4byte	0xff3
 5718 1175 48       		.byte	0x48
 5719 1176 07       		.uleb128 0x7
 5720 1177 96080000 		.4byte	.LASF261
 5721 117b 1B       		.byte	0x1b
 5722 117c 7F       		.byte	0x7f
 5723 117d F30F0000 		.4byte	0xff3
 5724 1181 60       		.byte	0x60
 5725 1182 10       		.uleb128 0x10
 5726 1183 75647000 		.ascii	"udp\000"
 5727 1187 1B       		.byte	0x1b
 5728 1188 85       		.byte	0x85
 5729 1189 F30F0000 		.4byte	0xff3
 5730 118d 78       		.byte	0x78
 5731 118e 10       		.uleb128 0x10
 5732 118f 74637000 		.ascii	"tcp\000"
 5733 1193 1B       		.byte	0x1b
 5734 1194 88       		.byte	0x88
 5735 1195 F30F0000 		.4byte	0xff3
 5736 1199 90       		.byte	0x90
 5737 119a 10       		.uleb128 0x10
 5738 119b 6D656D00 		.ascii	"mem\000"
 5739 119f 1B       		.byte	0x1b
 5740 11a0 8B       		.byte	0x8b
 5741 11a1 8F100000 		.4byte	0x108f
 5742 11a5 A8       		.byte	0xa8
 5743 11a6 07       		.uleb128 0x7
 5744 11a7 3A0A0000 		.4byte	.LASF262
 5745 11ab 1B       		.byte	0x1b
 5746 11ac 8E       		.byte	0x8e
 5747 11ad C0110000 		.4byte	0x11c0
 5748 11b1 B2       		.byte	0xb2
 5749 11b2 1E       		.uleb128 0x1e
 5750 11b3 73797300 		.ascii	"sys\000"
 5751 11b7 1B       		.byte	0x1b
 5752 11b8 91       		.byte	0x91
 5753 11b9 09110000 		.4byte	0x1109
 5754 11bd 3E01     		.2byte	0x13e
 5755 11bf 00       		.byte	0
 5756 11c0 17       		.uleb128 0x17
 5757 11c1 8F100000 		.4byte	0x108f
 5758 11c5 D0110000 		.4byte	0x11d0
 5759 11c9 18       		.uleb128 0x18
 5760 11ca 72040000 		.4byte	0x472
 5761 11ce 0D       		.byte	0xd
 5762 11cf 00       		.byte	0
 5763 11d0 1F       		.uleb128 0x1f
 5764 11d1 48090000 		.4byte	.LASF266
 5765 11d5 01       		.byte	0x1
 5766 11d6 9F       		.byte	0x9f
 5767 11d7 0C0F0000 		.4byte	0xf0c
ARM GAS  C:\Users\jo\AppData\Local\Temp\ccnOsBUt.s 			page 104


 5768 11db 01       		.byte	0x1
 5769 11dc 2C120000 		.4byte	0x122c
 5770 11e0 20       		.uleb128 0x20
 5771 11e1 70636200 		.ascii	"pcb\000"
 5772 11e5 01       		.byte	0x1
 5773 11e6 9F       		.byte	0x9f
 5774 11e7 0E0B0000 		.4byte	0xb0e
 5775 11eb 20       		.uleb128 0x20
 5776 11ec 7000     		.ascii	"p\000"
 5777 11ee 01       		.byte	0x1
 5778 11ef 9F       		.byte	0x9f
 5779 11f0 66090000 		.4byte	0x966
 5780 11f4 21       		.uleb128 0x21
 5781 11f5 B9040000 		.4byte	.LASF135
 5782 11f9 01       		.byte	0x1
 5783 11fa 9F       		.byte	0x9f
 5784 11fb 4A080000 		.4byte	0x84a
 5785 11ff 21       		.uleb128 0x21
 5786 1200 BB020000 		.4byte	.LASF219
 5787 1204 01       		.byte	0x1
 5788 1205 9F       		.byte	0x9f
 5789 1206 76080000 		.4byte	0x876
 5790 120a 21       		.uleb128 0x21
 5791 120b FF060000 		.4byte	.LASF263
 5792 120f 01       		.byte	0x1
 5793 1210 9F       		.byte	0x9f
 5794 1211 4A080000 		.4byte	0x84a
 5795 1215 22       		.uleb128 0x22
 5796 1216 73656700 		.ascii	"seg\000"
 5797 121a 01       		.byte	0x1
 5798 121b A1       		.byte	0xa1
 5799 121c 0C0F0000 		.4byte	0xf0c
 5800 1220 23       		.uleb128 0x23
 5801 1221 E60A0000 		.4byte	.LASF264
 5802 1225 01       		.byte	0x1
 5803 1226 A2       		.byte	0xa2
 5804 1227 4A080000 		.4byte	0x84a
 5805 122b 00       		.byte	0
 5806 122c 24       		.uleb128 0x24
 5807 122d 1F090000 		.4byte	.LASF297
 5808 1231 03       		.byte	0x3
 5809 1232 9C01     		.2byte	0x19c
 5810 1234 03       		.byte	0x3
 5811 1235 46120000 		.4byte	0x1246
 5812 1239 25       		.uleb128 0x25
 5813 123a 9F030000 		.4byte	.LASF265
 5814 123e 03       		.byte	0x3
 5815 123f 9C01     		.2byte	0x19c
 5816 1241 1E060000 		.4byte	0x61e
 5817 1245 00       		.byte	0
 5818 1246 1F       		.uleb128 0x1f
 5819 1247 47050000 		.4byte	.LASF267
 5820 124b 02       		.byte	0x2
 5821 124c 45       		.byte	0x45
 5822 124d 25000000 		.4byte	0x25
 5823 1251 03       		.byte	0x3
 5824 1252 83120000 		.4byte	0x1283
ARM GAS  C:\Users\jo\AppData\Local\Temp\ccnOsBUt.s 			page 105


 5825 1256 20       		.uleb128 0x20
 5826 1257 63687000 		.ascii	"chp\000"
 5827 125b 02       		.byte	0x2
 5828 125c 45       		.byte	0x45
 5829 125d 83120000 		.4byte	0x1283
 5830 1261 20       		.uleb128 0x20
 5831 1262 666D7400 		.ascii	"fmt\000"
 5832 1266 02       		.byte	0x2
 5833 1267 45       		.byte	0x45
 5834 1268 1E060000 		.4byte	0x61e
 5835 126c 26       		.uleb128 0x26
 5836 126d 22       		.uleb128 0x22
 5837 126e 617000   		.ascii	"ap\000"
 5838 1271 02       		.byte	0x2
 5839 1272 46       		.byte	0x46
 5840 1273 3F080000 		.4byte	0x83f
 5841 1277 23       		.uleb128 0x23
 5842 1278 FE0D0000 		.4byte	.LASF268
 5843 127c 02       		.byte	0x2
 5844 127d 47       		.byte	0x47
 5845 127e 25000000 		.4byte	0x25
 5846 1282 00       		.byte	0
 5847 1283 0B       		.uleb128 0xb
 5848 1284 04       		.byte	0x4
 5849 1285 C5070000 		.4byte	0x7c5
 5850 1289 1F       		.uleb128 0x1f
 5851 128a 06080000 		.4byte	.LASF269
 5852 128e 01       		.byte	0x1
 5853 128f 5E       		.byte	0x5e
 5854 1290 66090000 		.4byte	0x966
 5855 1294 01       		.byte	0x1
 5856 1295 DA120000 		.4byte	0x12da
 5857 1299 20       		.uleb128 0x20
 5858 129a 70636200 		.ascii	"pcb\000"
 5859 129e 01       		.byte	0x1
 5860 129f 5E       		.byte	0x5e
 5861 12a0 0E0B0000 		.4byte	0xb0e
 5862 12a4 21       		.uleb128 0x21
 5863 12a5 E60A0000 		.4byte	.LASF264
 5864 12a9 01       		.byte	0x1
 5865 12aa 5E       		.byte	0x5e
 5866 12ab 60080000 		.4byte	0x860
 5867 12af 21       		.uleb128 0x21
 5868 12b0 50050000 		.4byte	.LASF270
 5869 12b4 01       		.byte	0x1
 5870 12b5 5E       		.byte	0x5e
 5871 12b6 60080000 		.4byte	0x860
 5872 12ba 21       		.uleb128 0x21
 5873 12bb 810B0000 		.4byte	.LASF271
 5874 12bf 01       		.byte	0x1
 5875 12c0 5F       		.byte	0x5f
 5876 12c1 76080000 		.4byte	0x876
 5877 12c5 23       		.uleb128 0x23
 5878 12c6 9B0A0000 		.4byte	.LASF216
 5879 12ca 01       		.byte	0x1
 5880 12cb 61       		.byte	0x61
 5881 12cc 7F0F0000 		.4byte	0xf7f
ARM GAS  C:\Users\jo\AppData\Local\Temp\ccnOsBUt.s 			page 106


 5882 12d0 22       		.uleb128 0x22
 5883 12d1 7000     		.ascii	"p\000"
 5884 12d3 01       		.byte	0x1
 5885 12d4 62       		.byte	0x62
 5886 12d5 66090000 		.4byte	0x966
 5887 12d9 00       		.byte	0
 5888 12da 27       		.uleb128 0x27
 5889 12db D0110000 		.4byte	0x11d0
 5890 12df 00000000 		.4byte	.LFB272
 5891 12e3 C8000000 		.4byte	.LFE272-.LFB272
 5892 12e7 01       		.uleb128 0x1
 5893 12e8 9C       		.byte	0x9c
 5894 12e9 FF130000 		.4byte	0x13ff
 5895 12ed 28       		.uleb128 0x28
 5896 12ee EB110000 		.4byte	0x11eb
 5897 12f2 00000000 		.4byte	.LLST0
 5898 12f6 28       		.uleb128 0x28
 5899 12f7 F4110000 		.4byte	0x11f4
 5900 12fb 45000000 		.4byte	.LLST1
 5901 12ff 28       		.uleb128 0x28
 5902 1300 FF110000 		.4byte	0x11ff
 5903 1304 66000000 		.4byte	.LLST2
 5904 1308 28       		.uleb128 0x28
 5905 1309 0A120000 		.4byte	0x120a
 5906 130d 92000000 		.4byte	.LLST3
 5907 1311 29       		.uleb128 0x29
 5908 1312 E0110000 		.4byte	0x11e0
 5909 1316 06       		.uleb128 0x6
 5910 1317 FA       		.byte	0xfa
 5911 1318 E0110000 		.4byte	0x11e0
 5912 131c 9F       		.byte	0x9f
 5913 131d 29       		.uleb128 0x29
 5914 131e E0110000 		.4byte	0x11e0
 5915 1322 06       		.uleb128 0x6
 5916 1323 FA       		.byte	0xfa
 5917 1324 E0110000 		.4byte	0x11e0
 5918 1328 9F       		.byte	0x9f
 5919 1329 2A       		.uleb128 0x2a
 5920 132a 15120000 		.4byte	0x1215
 5921 132e BE000000 		.4byte	.LLST4
 5922 1332 2A       		.uleb128 0x2a
 5923 1333 20120000 		.4byte	0x1220
 5924 1337 FD000000 		.4byte	.LLST5
 5925 133b 2B       		.uleb128 0x2b
 5926 133c 20000000 		.4byte	.LVL1
 5927 1340 242B0000 		.4byte	0x2b24
 5928 1344 4E130000 		.4byte	0x134e
 5929 1348 2C       		.uleb128 0x2c
 5930 1349 01       		.uleb128 0x1
 5931 134a 50       		.byte	0x50
 5932 134b 01       		.uleb128 0x1
 5933 134c 34       		.byte	0x34
 5934 134d 00       		.byte	0
 5935 134e 2B       		.uleb128 0x2b
 5936 134f 4E000000 		.4byte	.LVL4
 5937 1353 392B0000 		.4byte	0x2b39
 5938 1357 67130000 		.4byte	0x1367
ARM GAS  C:\Users\jo\AppData\Local\Temp\ccnOsBUt.s 			page 107


 5939 135b 2C       		.uleb128 0x2c
 5940 135c 01       		.uleb128 0x1
 5941 135d 51       		.byte	0x51
 5942 135e 01       		.uleb128 0x1
 5943 135f 44       		.byte	0x44
 5944 1360 2C       		.uleb128 0x2c
 5945 1361 01       		.uleb128 0x1
 5946 1362 50       		.byte	0x50
 5947 1363 02       		.uleb128 0x2
 5948 1364 7A       		.byte	0x7a
 5949 1365 00       		.sleb128 0
 5950 1366 00       		.byte	0
 5951 1367 2D       		.uleb128 0x2d
 5952 1368 60000000 		.4byte	.LVL6
 5953 136c 532B0000 		.4byte	0x2b53
 5954 1370 2D       		.uleb128 0x2d
 5955 1371 6C000000 		.4byte	.LVL7
 5956 1375 532B0000 		.4byte	0x2b53
 5957 1379 2B       		.uleb128 0x2b
 5958 137a 76000000 		.4byte	.LVL8
 5959 137e 682B0000 		.4byte	0x2b68
 5960 1382 8E130000 		.4byte	0x138e
 5961 1386 2C       		.uleb128 0x2c
 5962 1387 01       		.uleb128 0x1
 5963 1388 50       		.byte	0x50
 5964 1389 03       		.uleb128 0x3
 5965 138a 91       		.byte	0x91
 5966 138b 00       		.sleb128 0
 5967 138c 06       		.byte	0x6
 5968 138d 00       		.byte	0
 5969 138e 2B       		.uleb128 0x2b
 5970 138f 8C000000 		.4byte	.LVL10
 5971 1393 532B0000 		.4byte	0x2b53
 5972 1397 DA130000 		.4byte	0x13da
 5973 139b 2C       		.uleb128 0x2c
 5974 139c 01       		.uleb128 0x1
 5975 139d 50       		.byte	0x50
 5976 139e 3A       		.uleb128 0x3a
 5977 139f 3C       		.byte	0x3c
 5978 13a0 30       		.byte	0x30
 5979 13a1 91       		.byte	0x91
 5980 13a2 04       		.sleb128 4
 5981 13a3 94       		.byte	0x94
 5982 13a4 01       		.byte	0x1
 5983 13a5 32       		.byte	0x32
 5984 13a6 1A       		.byte	0x1a
 5985 13a7 08       		.byte	0x8
 5986 13a8 FF       		.byte	0xff
 5987 13a9 1A       		.byte	0x1a
 5988 13aa 30       		.byte	0x30
 5989 13ab 2E       		.byte	0x2e
 5990 13ac 28       		.byte	0x28
 5991 13ad 0100     		.2byte	0x1
 5992 13af 16       		.byte	0x16
 5993 13b0 13       		.byte	0x13
 5994 13b1 34       		.byte	0x34
 5995 13b2 91       		.byte	0x91
ARM GAS  C:\Users\jo\AppData\Local\Temp\ccnOsBUt.s 			page 108


 5996 13b3 04       		.sleb128 4
 5997 13b4 94       		.byte	0x94
 5998 13b5 01       		.byte	0x1
 5999 13b6 31       		.byte	0x31
 6000 13b7 1A       		.byte	0x1a
 6001 13b8 08       		.byte	0x8
 6002 13b9 FF       		.byte	0xff
 6003 13ba 1A       		.byte	0x1a
 6004 13bb 91       		.byte	0x91
 6005 13bc 04       		.sleb128 4
 6006 13bd 94       		.byte	0x94
 6007 13be 01       		.byte	0x1
 6008 13bf 31       		.byte	0x31
 6009 13c0 1A       		.byte	0x1a
 6010 13c1 08       		.byte	0x8
 6011 13c2 FF       		.byte	0xff
 6012 13c3 1A       		.byte	0x1a
 6013 13c4 30       		.byte	0x30
 6014 13c5 2E       		.byte	0x2e
 6015 13c6 28       		.byte	0x28
 6016 13c7 0100     		.2byte	0x1
 6017 13c9 16       		.byte	0x16
 6018 13ca 13       		.byte	0x13
 6019 13cb 22       		.byte	0x22
 6020 13cc 09       		.byte	0x9
 6021 13cd FA       		.byte	0xfa
 6022 13ce 24       		.byte	0x24
 6023 13cf 09       		.byte	0x9
 6024 13d0 FC       		.byte	0xfc
 6025 13d1 25       		.byte	0x25
 6026 13d2 23       		.byte	0x23
 6027 13d3 05       		.uleb128 0x5
 6028 13d4 3C       		.byte	0x3c
 6029 13d5 24       		.byte	0x24
 6030 13d6 76       		.byte	0x76
 6031 13d7 00       		.sleb128 0
 6032 13d8 21       		.byte	0x21
 6033 13d9 00       		.byte	0
 6034 13da 2B       		.uleb128 0x2b
 6035 13db B0000000 		.4byte	.LVL12
 6036 13df 7D2B0000 		.4byte	0x2b7d
 6037 13e3 EE130000 		.4byte	0x13ee
 6038 13e7 2C       		.uleb128 0x2c
 6039 13e8 01       		.uleb128 0x1
 6040 13e9 50       		.byte	0x50
 6041 13ea 02       		.uleb128 0x2
 6042 13eb 74       		.byte	0x74
 6043 13ec 00       		.sleb128 0
 6044 13ed 00       		.byte	0
 6045 13ee 2E       		.uleb128 0x2e
 6046 13ef BC000000 		.4byte	.LVL15
 6047 13f3 8F2B0000 		.4byte	0x2b8f
 6048 13f7 2C       		.uleb128 0x2c
 6049 13f8 01       		.uleb128 0x1
 6050 13f9 50       		.byte	0x50
 6051 13fa 02       		.uleb128 0x2
 6052 13fb 7A       		.byte	0x7a
ARM GAS  C:\Users\jo\AppData\Local\Temp\ccnOsBUt.s 			page 109


 6053 13fc 00       		.sleb128 0
 6054 13fd 00       		.byte	0
 6055 13fe 00       		.byte	0
 6056 13ff 27       		.uleb128 0x27
 6057 1400 46120000 		.4byte	0x1246
 6058 1404 00000000 		.4byte	.LFB273
 6059 1408 28000000 		.4byte	.LFE273-.LFB273
 6060 140c 01       		.uleb128 0x1
 6061 140d 9C       		.byte	0x9c
 6062 140e 5E140000 		.4byte	0x145e
 6063 1412 28       		.uleb128 0x28
 6064 1413 56120000 		.4byte	0x1256
 6065 1417 8B010000 		.4byte	.LLST6
 6066 141b 29       		.uleb128 0x29
 6067 141c 61120000 		.4byte	0x1261
 6068 1420 02       		.uleb128 0x2
 6069 1421 91       		.byte	0x91
 6070 1422 74       		.sleb128 -12
 6071 1423 26       		.uleb128 0x26
 6072 1424 2F       		.uleb128 0x2f
 6073 1425 6D120000 		.4byte	0x126d
 6074 1429 02       		.uleb128 0x2
 6075 142a 91       		.byte	0x91
 6076 142b 6C       		.sleb128 -20
 6077 142c 2F       		.uleb128 0x2f
 6078 142d 77120000 		.4byte	0x1277
 6079 1431 01       		.uleb128 0x1
 6080 1432 50       		.byte	0x50
 6081 1433 29       		.uleb128 0x29
 6082 1434 61120000 		.4byte	0x1261
 6083 1438 06       		.uleb128 0x6
 6084 1439 03       		.byte	0x3
 6085 143a 00000000 		.4byte	.LC0
 6086 143e 9F       		.byte	0x9f
 6087 143f 30       		.uleb128 0x30
 6088 1440 56120000 		.4byte	0x1256
 6089 1444 2E       		.uleb128 0x2e
 6090 1445 14000000 		.4byte	.LVL19
 6091 1449 A42B0000 		.4byte	0x2ba4
 6092 144d 2C       		.uleb128 0x2c
 6093 144e 01       		.uleb128 0x1
 6094 144f 52       		.byte	0x52
 6095 1450 02       		.uleb128 0x2
 6096 1451 91       		.byte	0x91
 6097 1452 60       		.sleb128 -32
 6098 1453 2C       		.uleb128 0x2c
 6099 1454 01       		.uleb128 0x1
 6100 1455 51       		.byte	0x51
 6101 1456 05       		.uleb128 0x5
 6102 1457 03       		.byte	0x3
 6103 1458 00000000 		.4byte	.LC0
 6104 145c 00       		.byte	0
 6105 145d 00       		.byte	0
 6106 145e 27       		.uleb128 0x27
 6107 145f 89120000 		.4byte	0x1289
 6108 1463 00000000 		.4byte	.LFB274
 6109 1467 8C000000 		.4byte	.LFE274-.LFB274
ARM GAS  C:\Users\jo\AppData\Local\Temp\ccnOsBUt.s 			page 110


 6110 146b 01       		.uleb128 0x1
 6111 146c 9C       		.byte	0x9c
 6112 146d 55150000 		.4byte	0x1555
 6113 1471 28       		.uleb128 0x28
 6114 1472 99120000 		.4byte	0x1299
 6115 1476 AC010000 		.4byte	.LLST7
 6116 147a 28       		.uleb128 0x28
 6117 147b AF120000 		.4byte	0x12af
 6118 147f CA010000 		.4byte	.LLST8
 6119 1483 28       		.uleb128 0x28
 6120 1484 BA120000 		.4byte	0x12ba
 6121 1488 EB010000 		.4byte	.LLST9
 6122 148c 2A       		.uleb128 0x2a
 6123 148d C5120000 		.4byte	0x12c5
 6124 1491 09020000 		.4byte	.LLST10
 6125 1495 2A       		.uleb128 0x2a
 6126 1496 D0120000 		.4byte	0x12d0
 6127 149a 1C020000 		.4byte	.LLST11
 6128 149e 31       		.uleb128 0x31
 6129 149f A4120000 		.4byte	0x12a4
 6130 14a3 00       		.byte	0
 6131 14a4 32       		.uleb128 0x32
 6132 14a5 2C120000 		.4byte	0x122c
 6133 14a9 74000000 		.4byte	.LBB55
 6134 14ad 18000000 		.4byte	.LBE55-.LBB55
 6135 14b1 01       		.byte	0x1
 6136 14b2 64       		.byte	0x64
 6137 14b3 D7140000 		.4byte	0x14d7
 6138 14b7 29       		.uleb128 0x29
 6139 14b8 39120000 		.4byte	0x1239
 6140 14bc 06       		.uleb128 0x6
 6141 14bd 03       		.byte	0x3
 6142 14be 28000000 		.4byte	.LC1
 6143 14c2 9F       		.byte	0x9f
 6144 14c3 2E       		.uleb128 0x2e
 6145 14c4 7A000000 		.4byte	.LVL36
 6146 14c8 C32B0000 		.4byte	0x2bc3
 6147 14cc 2C       		.uleb128 0x2c
 6148 14cd 01       		.uleb128 0x1
 6149 14ce 50       		.byte	0x50
 6150 14cf 05       		.uleb128 0x5
 6151 14d0 03       		.byte	0x3
 6152 14d1 28000000 		.4byte	.LC1
 6153 14d5 00       		.byte	0
 6154 14d6 00       		.byte	0
 6155 14d7 2B       		.uleb128 0x2b
 6156 14d8 14000000 		.4byte	.LVL24
 6157 14dc D42B0000 		.4byte	0x2bd4
 6158 14e0 EF140000 		.4byte	0x14ef
 6159 14e4 2C       		.uleb128 0x2c
 6160 14e5 01       		.uleb128 0x1
 6161 14e6 52       		.byte	0x52
 6162 14e7 01       		.uleb128 0x1
 6163 14e8 30       		.byte	0x30
 6164 14e9 2C       		.uleb128 0x2c
 6165 14ea 01       		.uleb128 0x1
 6166 14eb 50       		.byte	0x50
ARM GAS  C:\Users\jo\AppData\Local\Temp\ccnOsBUt.s 			page 111


 6167 14ec 01       		.uleb128 0x1
 6168 14ed 31       		.byte	0x31
 6169 14ee 00       		.byte	0
 6170 14ef 2D       		.uleb128 0x2d
 6171 14f0 26000000 		.4byte	.LVL27
 6172 14f4 532B0000 		.4byte	0x2b53
 6173 14f8 2D       		.uleb128 0x2d
 6174 14f9 2E000000 		.4byte	.LVL28
 6175 14fd 532B0000 		.4byte	0x2b53
 6176 1501 2D       		.uleb128 0x2d
 6177 1502 38000000 		.4byte	.LVL29
 6178 1506 682B0000 		.4byte	0x2b68
 6179 150a 2B       		.uleb128 0x2b
 6180 150b 42000000 		.4byte	.LVL30
 6181 150f 532B0000 		.4byte	0x2b53
 6182 1513 1F150000 		.4byte	0x151f
 6183 1517 2C       		.uleb128 0x2c
 6184 1518 01       		.uleb128 0x1
 6185 1519 50       		.byte	0x50
 6186 151a 03       		.uleb128 0x3
 6187 151b 0A       		.byte	0xa
 6188 151c 1050     		.2byte	0x5010
 6189 151e 00       		.byte	0
 6190 151f 2D       		.uleb128 0x2d
 6191 1520 4A000000 		.4byte	.LVL31
 6192 1524 532B0000 		.4byte	0x2b53
 6193 1528 2E       		.uleb128 0x2e
 6194 1529 74000000 		.4byte	.LVL35
 6195 152d FF130000 		.4byte	0x13ff
 6196 1531 2C       		.uleb128 0x2c
 6197 1532 01       		.uleb128 0x1
 6198 1533 53       		.byte	0x53
 6199 1534 02       		.uleb128 0x2
 6200 1535 08       		.byte	0x8
 6201 1536 65       		.byte	0x65
 6202 1537 2C       		.uleb128 0x2c
 6203 1538 01       		.uleb128 0x1
 6204 1539 52       		.byte	0x52
 6205 153a 05       		.uleb128 0x5
 6206 153b 03       		.byte	0x3
 6207 153c 28000000 		.4byte	.LC1
 6208 1540 2C       		.uleb128 0x2c
 6209 1541 01       		.uleb128 0x1
 6210 1542 51       		.byte	0x51
 6211 1543 05       		.uleb128 0x5
 6212 1544 03       		.byte	0x3
 6213 1545 00000000 		.4byte	.LC0
 6214 1549 2C       		.uleb128 0x2c
 6215 154a 02       		.uleb128 0x2
 6216 154b 7D       		.byte	0x7d
 6217 154c 00       		.sleb128 0
 6218 154d 05       		.uleb128 0x5
 6219 154e 03       		.byte	0x3
 6220 154f 58000000 		.4byte	.LC2
 6221 1553 00       		.byte	0
 6222 1554 00       		.byte	0
 6223 1555 33       		.uleb128 0x33
ARM GAS  C:\Users\jo\AppData\Local\Temp\ccnOsBUt.s 			page 112


 6224 1556 DF000000 		.4byte	.LASF338
 6225 155a 01       		.byte	0x1
 6226 155b DB       		.byte	0xdb
 6227 155c 66090000 		.4byte	0x966
 6228 1560 00000000 		.4byte	.LFB259
 6229 1564 90000000 		.4byte	.LFE259-.LFB259
 6230 1568 01       		.uleb128 0x1
 6231 1569 9C       		.byte	0x9c
 6232 156a 65160000 		.4byte	0x1665
 6233 156e 34       		.uleb128 0x34
 6234 156f C0060000 		.4byte	.LASF272
 6235 1573 01       		.byte	0x1
 6236 1574 DB       		.byte	0xdb
 6237 1575 CE080000 		.4byte	0x8ce
 6238 1579 50020000 		.4byte	.LLST12
 6239 157d 34       		.uleb128 0x34
 6240 157e 02090000 		.4byte	.LASF273
 6241 1582 01       		.byte	0x1
 6242 1583 DB       		.byte	0xdb
 6243 1584 60080000 		.4byte	0x860
 6244 1588 7C020000 		.4byte	.LLST13
 6245 158c 34       		.uleb128 0x34
 6246 158d 63080000 		.4byte	.LASF274
 6247 1591 01       		.byte	0x1
 6248 1592 DB       		.byte	0xdb
 6249 1593 60080000 		.4byte	0x860
 6250 1597 9D020000 		.4byte	.LLST14
 6251 159b 34       		.uleb128 0x34
 6252 159c 86000000 		.4byte	.LASF275
 6253 15a0 01       		.byte	0x1
 6254 15a1 DC       		.byte	0xdc
 6255 15a2 65160000 		.4byte	0x1665
 6256 15a6 E2020000 		.4byte	.LLST15
 6257 15aa 35       		.uleb128 0x35
 6258 15ab 70636200 		.ascii	"pcb\000"
 6259 15af 01       		.byte	0x1
 6260 15b0 DC       		.byte	0xdc
 6261 15b1 0E0B0000 		.4byte	0xb0e
 6262 15b5 00030000 		.4byte	.LLST16
 6263 15b9 34       		.uleb128 0x34
 6264 15ba CA0A0000 		.4byte	.LASF276
 6265 15be 01       		.byte	0x1
 6266 15bf DC       		.byte	0xdc
 6267 15c0 4A080000 		.4byte	0x84a
 6268 15c4 20030000 		.4byte	.LLST17
 6269 15c8 34       		.uleb128 0x34
 6270 15c9 AF040000 		.4byte	.LASF277
 6271 15cd 01       		.byte	0x1
 6272 15ce DD       		.byte	0xdd
 6273 15cf 4A080000 		.4byte	0x84a
 6274 15d3 40030000 		.4byte	.LLST18
 6275 15d7 36       		.uleb128 0x36
 6276 15d8 7000     		.ascii	"p\000"
 6277 15da 01       		.byte	0x1
 6278 15db DF       		.byte	0xdf
 6279 15dc 66090000 		.4byte	0x966
 6280 15e0 60030000 		.4byte	.LLST19
ARM GAS  C:\Users\jo\AppData\Local\Temp\ccnOsBUt.s 			page 113


 6281 15e4 37       		.uleb128 0x37
 6282 15e5 86080000 		.4byte	.LASF278
 6283 15e9 01       		.byte	0x1
 6284 15ea E0       		.byte	0xe0
 6285 15eb 60080000 		.4byte	0x860
 6286 15ef 7E030000 		.4byte	.LLST20
 6287 15f3 38       		.uleb128 0x38
 6288 15f4 2C120000 		.4byte	0x122c
 6289 15f8 54000000 		.4byte	.LBB57
 6290 15fc 06000000 		.4byte	.LBE57-.LBB57
 6291 1600 01       		.byte	0x1
 6292 1601 0301     		.2byte	0x103
 6293 1603 24160000 		.4byte	0x1624
 6294 1607 28       		.uleb128 0x28
 6295 1608 39120000 		.4byte	0x1239
 6296 160c BD030000 		.4byte	.LLST21
 6297 1610 2E       		.uleb128 0x2e
 6298 1611 5A000000 		.4byte	.LVL48
 6299 1615 C32B0000 		.4byte	0x2bc3
 6300 1619 2C       		.uleb128 0x2c
 6301 161a 01       		.uleb128 0x1
 6302 161b 50       		.byte	0x50
 6303 161c 05       		.uleb128 0x5
 6304 161d 03       		.byte	0x3
 6305 161e 88000000 		.4byte	.LC3
 6306 1622 00       		.byte	0
 6307 1623 00       		.byte	0
 6308 1624 2B       		.uleb128 0x2b
 6309 1625 3A000000 		.4byte	.LVL45
 6310 1629 D42B0000 		.4byte	0x2bd4
 6311 162d 37160000 		.4byte	0x1637
 6312 1631 2C       		.uleb128 0x2c
 6313 1632 01       		.uleb128 0x1
 6314 1633 52       		.byte	0x52
 6315 1634 01       		.uleb128 0x1
 6316 1635 30       		.byte	0x30
 6317 1636 00       		.byte	0
 6318 1637 2E       		.uleb128 0x2e
 6319 1638 54000000 		.4byte	.LVL47
 6320 163c FF130000 		.4byte	0x13ff
 6321 1640 2C       		.uleb128 0x2c
 6322 1641 01       		.uleb128 0x1
 6323 1642 53       		.byte	0x53
 6324 1643 03       		.uleb128 0x3
 6325 1644 0A       		.byte	0xa
 6326 1645 0301     		.2byte	0x103
 6327 1647 2C       		.uleb128 0x2c
 6328 1648 01       		.uleb128 0x1
 6329 1649 52       		.byte	0x52
 6330 164a 05       		.uleb128 0x5
 6331 164b 03       		.byte	0x3
 6332 164c 88000000 		.4byte	.LC3
 6333 1650 2C       		.uleb128 0x2c
 6334 1651 01       		.uleb128 0x1
 6335 1652 51       		.byte	0x51
 6336 1653 05       		.uleb128 0x5
 6337 1654 03       		.byte	0x3
ARM GAS  C:\Users\jo\AppData\Local\Temp\ccnOsBUt.s 			page 114


 6338 1655 00000000 		.4byte	.LC0
 6339 1659 2C       		.uleb128 0x2c
 6340 165a 02       		.uleb128 0x2
 6341 165b 7D       		.byte	0x7d
 6342 165c 00       		.sleb128 0
 6343 165d 05       		.uleb128 0x5
 6344 165e 03       		.byte	0x3
 6345 165f 58000000 		.4byte	.LC2
 6346 1663 00       		.byte	0
 6347 1664 00       		.byte	0
 6348 1665 0B       		.uleb128 0xb
 6349 1666 04       		.byte	0x4
 6350 1667 60080000 		.4byte	0x860
 6351 166b 39       		.uleb128 0x39
 6352 166c 10000000 		.4byte	.LASF279
 6353 1670 01       		.byte	0x1
 6354 1671 2601     		.2byte	0x126
 6355 1673 A2080000 		.4byte	0x8a2
 6356 1677 01       		.byte	0x1
 6357 1678 95160000 		.4byte	0x1695
 6358 167c 3A       		.uleb128 0x3a
 6359 167d 70636200 		.ascii	"pcb\000"
 6360 1681 01       		.byte	0x1
 6361 1682 2601     		.2byte	0x126
 6362 1684 0E0B0000 		.4byte	0xb0e
 6363 1688 3A       		.uleb128 0x3a
 6364 1689 6C656E00 		.ascii	"len\000"
 6365 168d 01       		.byte	0x1
 6366 168e 2601     		.2byte	0x126
 6367 1690 60080000 		.4byte	0x860
 6368 1694 00       		.byte	0
 6369 1695 3B       		.uleb128 0x3b
 6370 1696 1A0C0000 		.4byte	.LASF292
 6371 169a 01       		.byte	0x1
 6372 169b 6201     		.2byte	0x162
 6373 169d A2080000 		.4byte	0x8a2
 6374 16a1 00000000 		.4byte	.LFB261
 6375 16a5 04060000 		.4byte	.LFE261-.LFB261
 6376 16a9 01       		.uleb128 0x1
 6377 16aa 9C       		.byte	0x9c
 6378 16ab E81E0000 		.4byte	0x1ee8
 6379 16af 3C       		.uleb128 0x3c
 6380 16b0 70636200 		.ascii	"pcb\000"
 6381 16b4 01       		.byte	0x1
 6382 16b5 6201     		.2byte	0x162
 6383 16b7 0E0B0000 		.4byte	0xb0e
 6384 16bb D5030000 		.4byte	.LLST22
 6385 16bf 3C       		.uleb128 0x3c
 6386 16c0 61726700 		.ascii	"arg\000"
 6387 16c4 01       		.byte	0x1
 6388 16c5 6201     		.2byte	0x162
 6389 16c7 E81E0000 		.4byte	0x1ee8
 6390 16cb F3030000 		.4byte	.LLST23
 6391 16cf 3C       		.uleb128 0x3c
 6392 16d0 6C656E00 		.ascii	"len\000"
 6393 16d4 01       		.byte	0x1
 6394 16d5 6201     		.2byte	0x162
ARM GAS  C:\Users\jo\AppData\Local\Temp\ccnOsBUt.s 			page 115


 6395 16d7 60080000 		.4byte	0x860
 6396 16db BB040000 		.4byte	.LLST24
 6397 16df 3D       		.uleb128 0x3d
 6398 16e0 CA0A0000 		.4byte	.LASF276
 6399 16e4 01       		.byte	0x1
 6400 16e5 6201     		.2byte	0x162
 6401 16e7 4A080000 		.4byte	0x84a
 6402 16eb 8B050000 		.4byte	.LLST25
 6403 16ef 3E       		.uleb128 0x3e
 6404 16f0 B0080000 		.4byte	.LASF280
 6405 16f4 01       		.byte	0x1
 6406 16f5 6401     		.2byte	0x164
 6407 16f7 66090000 		.4byte	0x966
 6408 16fb AC050000 		.4byte	.LLST26
 6409 16ff 3E       		.uleb128 0x3e
 6410 1700 60050000 		.4byte	.LASF281
 6411 1704 01       		.byte	0x1
 6412 1705 6501     		.2byte	0x165
 6413 1707 0C0F0000 		.4byte	0xf0c
 6414 170b 72060000 		.4byte	.LLST27
 6415 170f 3F       		.uleb128 0x3f
 6416 1710 73656700 		.ascii	"seg\000"
 6417 1714 01       		.byte	0x1
 6418 1715 6501     		.2byte	0x165
 6419 1717 0C0F0000 		.4byte	0xf0c
 6420 171b 2D070000 		.4byte	.LLST28
 6421 171f 3E       		.uleb128 0x3e
 6422 1720 FB0A0000 		.4byte	.LASF282
 6423 1724 01       		.byte	0x1
 6424 1725 6501     		.2byte	0x165
 6425 1727 0C0F0000 		.4byte	0xf0c
 6426 172b 40080000 		.4byte	.LLST29
 6427 172f 3E       		.uleb128 0x3e
 6428 1730 E00A0000 		.4byte	.LASF283
 6429 1734 01       		.byte	0x1
 6430 1735 6501     		.2byte	0x165
 6431 1737 0C0F0000 		.4byte	0xf0c
 6432 173b 0C090000 		.4byte	.LLST30
 6433 173f 3F       		.uleb128 0x3f
 6434 1740 706F7300 		.ascii	"pos\000"
 6435 1744 01       		.byte	0x1
 6436 1745 6601     		.2byte	0x166
 6437 1747 60080000 		.4byte	0x860
 6438 174b BF090000 		.4byte	.LLST31
 6439 174f 3E       		.uleb128 0x3e
 6440 1750 AA0D0000 		.4byte	.LASF284
 6441 1754 01       		.byte	0x1
 6442 1755 6701     		.2byte	0x167
 6443 1757 60080000 		.4byte	0x860
 6444 175b AD0A0000 		.4byte	.LLST32
 6445 175f 40       		.uleb128 0x40
 6446 1760 E60A0000 		.4byte	.LASF264
 6447 1764 01       		.byte	0x1
 6448 1765 6801     		.2byte	0x168
 6449 1767 4A080000 		.4byte	0x84a
 6450 176b 00       		.byte	0
 6451 176c 40       		.uleb128 0x40
ARM GAS  C:\Users\jo\AppData\Local\Temp\ccnOsBUt.s 			page 116


 6452 176d FF060000 		.4byte	.LASF263
 6453 1771 01       		.byte	0x1
 6454 1772 6901     		.2byte	0x169
 6455 1774 4A080000 		.4byte	0x84a
 6456 1778 00       		.byte	0
 6457 1779 41       		.uleb128 0x41
 6458 177a 86000000 		.4byte	.LASF275
 6459 177e 01       		.byte	0x1
 6460 177f 6B01     		.2byte	0x16b
 6461 1781 60080000 		.4byte	0x860
 6462 1785 02       		.uleb128 0x2
 6463 1786 91       		.byte	0x91
 6464 1787 56       		.sleb128 -42
 6465 1788 3E       		.uleb128 0x3e
 6466 1789 C4010000 		.4byte	.LASF285
 6467 178d 01       		.byte	0x1
 6468 178e 6C01     		.2byte	0x16c
 6469 1790 60080000 		.4byte	0x860
 6470 1794 500B0000 		.4byte	.LLST33
 6471 1798 42       		.uleb128 0x42
 6472 1799 65727200 		.ascii	"err\000"
 6473 179d 01       		.byte	0x1
 6474 179e 7301     		.2byte	0x173
 6475 17a0 A2080000 		.4byte	0x8a2
 6476 17a4 41       		.uleb128 0x41
 6477 17a5 A30B0000 		.4byte	.LASF286
 6478 17a9 01       		.byte	0x1
 6479 17aa 7501     		.2byte	0x175
 6480 17ac 60080000 		.4byte	0x860
 6481 17b0 03       		.uleb128 0x3
 6482 17b1 91       		.byte	0x91
 6483 17b2 B47F     		.sleb128 -76
 6484 17b4 43       		.uleb128 0x43
 6485 17b5 6D0B0000 		.4byte	.LASF245
 6486 17b9 01       		.byte	0x1
 6487 17ba B502     		.2byte	0x2b5
 6488 17bc 0A040000 		.4byte	.L82
 6489 17c0 44       		.uleb128 0x44
 6490 17c1 6B160000 		.4byte	0x166b
 6491 17c5 2C000000 		.4byte	.LBB88
 6492 17c9 00000000 		.4byte	.Ldebug_ranges0+0
 6493 17cd 01       		.byte	0x1
 6494 17ce 8101     		.2byte	0x181
 6495 17d0 A7180000 		.4byte	0x18a7
 6496 17d4 28       		.uleb128 0x28
 6497 17d5 88160000 		.4byte	0x1688
 6498 17d9 150C0000 		.4byte	.LLST34
 6499 17dd 28       		.uleb128 0x28
 6500 17de 7C160000 		.4byte	0x167c
 6501 17e2 5F0C0000 		.4byte	.LLST35
 6502 17e6 38       		.uleb128 0x38
 6503 17e7 2C120000 		.4byte	0x122c
 6504 17eb F4010000 		.4byte	.LBB90
 6505 17ef 06000000 		.4byte	.LBE90-.LBB90
 6506 17f3 01       		.byte	0x1
 6507 17f4 4B01     		.2byte	0x14b
 6508 17f6 17180000 		.4byte	0x1817
ARM GAS  C:\Users\jo\AppData\Local\Temp\ccnOsBUt.s 			page 117


 6509 17fa 28       		.uleb128 0x28
 6510 17fb 39120000 		.4byte	0x1239
 6511 17ff 880C0000 		.4byte	.LLST36
 6512 1803 2E       		.uleb128 0x2e
 6513 1804 FA010000 		.4byte	.LVL94
 6514 1808 C32B0000 		.4byte	0x2bc3
 6515 180c 2C       		.uleb128 0x2c
 6516 180d 01       		.uleb128 0x1
 6517 180e 50       		.byte	0x50
 6518 180f 05       		.uleb128 0x5
 6519 1810 03       		.byte	0x3
 6520 1811 0C010000 		.4byte	.LC6
 6521 1815 00       		.byte	0
 6522 1816 00       		.byte	0
 6523 1817 38       		.uleb128 0x38
 6524 1818 2C120000 		.4byte	0x122c
 6525 181c 7A040000 		.4byte	.LBB92
 6526 1820 3A000000 		.4byte	.LBE92-.LBB92
 6527 1824 01       		.byte	0x1
 6528 1825 4801     		.2byte	0x148
 6529 1827 48180000 		.4byte	0x1848
 6530 182b 28       		.uleb128 0x28
 6531 182c 39120000 		.4byte	0x1239
 6532 1830 A00C0000 		.4byte	.LLST37
 6533 1834 2E       		.uleb128 0x2e
 6534 1835 80040000 		.4byte	.LVL156
 6535 1839 C32B0000 		.4byte	0x2bc3
 6536 183d 2C       		.uleb128 0x2c
 6537 183e 01       		.uleb128 0x1
 6538 183f 50       		.byte	0x50
 6539 1840 05       		.uleb128 0x5
 6540 1841 03       		.byte	0x3
 6541 1842 D0000000 		.4byte	.LC5
 6542 1846 00       		.byte	0
 6543 1847 00       		.byte	0
 6544 1848 2B       		.uleb128 0x2b
 6545 1849 F4010000 		.4byte	.LVL93
 6546 184d FF130000 		.4byte	0x13ff
 6547 1851 79180000 		.4byte	0x1879
 6548 1855 2C       		.uleb128 0x2c
 6549 1856 01       		.uleb128 0x1
 6550 1857 53       		.byte	0x53
 6551 1858 03       		.uleb128 0x3
 6552 1859 0A       		.byte	0xa
 6553 185a 4C01     		.2byte	0x14c
 6554 185c 2C       		.uleb128 0x2c
 6555 185d 01       		.uleb128 0x1
 6556 185e 52       		.byte	0x52
 6557 185f 05       		.uleb128 0x5
 6558 1860 03       		.byte	0x3
 6559 1861 0C010000 		.4byte	.LC6
 6560 1865 2C       		.uleb128 0x2c
 6561 1866 01       		.uleb128 0x1
 6562 1867 51       		.byte	0x51
 6563 1868 05       		.uleb128 0x5
 6564 1869 03       		.byte	0x3
 6565 186a 00000000 		.4byte	.LC0
ARM GAS  C:\Users\jo\AppData\Local\Temp\ccnOsBUt.s 			page 118


 6566 186e 2C       		.uleb128 0x2c
 6567 186f 02       		.uleb128 0x2
 6568 1870 7D       		.byte	0x7d
 6569 1871 00       		.sleb128 0
 6570 1872 05       		.uleb128 0x5
 6571 1873 03       		.byte	0x3
 6572 1874 58000000 		.4byte	.LC2
 6573 1878 00       		.byte	0
 6574 1879 2E       		.uleb128 0x2e
 6575 187a 7A040000 		.4byte	.LVL155
 6576 187e FF130000 		.4byte	0x13ff
 6577 1882 2C       		.uleb128 0x2c
 6578 1883 01       		.uleb128 0x1
 6579 1884 53       		.byte	0x53
 6580 1885 03       		.uleb128 0x3
 6581 1886 0A       		.byte	0xa
 6582 1887 4901     		.2byte	0x149
 6583 1889 2C       		.uleb128 0x2c
 6584 188a 01       		.uleb128 0x1
 6585 188b 52       		.byte	0x52
 6586 188c 05       		.uleb128 0x5
 6587 188d 03       		.byte	0x3
 6588 188e D0000000 		.4byte	.LC5
 6589 1892 2C       		.uleb128 0x2c
 6590 1893 01       		.uleb128 0x1
 6591 1894 51       		.byte	0x51
 6592 1895 05       		.uleb128 0x5
 6593 1896 03       		.byte	0x3
 6594 1897 00000000 		.4byte	.LC0
 6595 189b 2C       		.uleb128 0x2c
 6596 189c 02       		.uleb128 0x2
 6597 189d 7D       		.byte	0x7d
 6598 189e 00       		.sleb128 0
 6599 189f 05       		.uleb128 0x5
 6600 18a0 03       		.byte	0x3
 6601 18a1 58000000 		.4byte	.LC2
 6602 18a5 00       		.byte	0
 6603 18a6 00       		.byte	0
 6604 18a7 45       		.uleb128 0x45
 6605 18a8 40000000 		.4byte	.Ldebug_ranges0+0x40
 6606 18ac CF190000 		.4byte	0x19cf
 6607 18b0 3E       		.uleb128 0x3e
 6608 18b1 D5050000 		.4byte	.LASF287
 6609 18b5 01       		.byte	0x1
 6610 18b6 A701     		.2byte	0x1a7
 6611 18b8 60080000 		.4byte	0x860
 6612 18bc B80C0000 		.4byte	.LLST38
 6613 18c0 46       		.uleb128 0x46
 6614 18c1 A7000000 		.4byte	.LASF288
 6615 18c5 01       		.byte	0x1
 6616 18c6 A801     		.2byte	0x1a8
 6617 18c8 60080000 		.4byte	0x860
 6618 18cc 38       		.uleb128 0x38
 6619 18cd 2C120000 		.4byte	0x122c
 6620 18d1 92020000 		.4byte	.LBB102
 6621 18d5 0C000000 		.4byte	.LBE102-.LBB102
 6622 18d9 01       		.byte	0x1
ARM GAS  C:\Users\jo\AppData\Local\Temp\ccnOsBUt.s 			page 119


 6623 18da C901     		.2byte	0x1c9
 6624 18dc FD180000 		.4byte	0x18fd
 6625 18e0 28       		.uleb128 0x28
 6626 18e1 39120000 		.4byte	0x1239
 6627 18e5 0D0D0000 		.4byte	.LLST39
 6628 18e9 2E       		.uleb128 0x2e
 6629 18ea 98020000 		.4byte	.LVL112
 6630 18ee C32B0000 		.4byte	0x2bc3
 6631 18f2 2C       		.uleb128 0x2c
 6632 18f3 01       		.uleb128 0x1
 6633 18f4 50       		.byte	0x50
 6634 18f5 05       		.uleb128 0x5
 6635 18f6 03       		.byte	0x3
 6636 18f7 40010000 		.4byte	.LC7
 6637 18fb 00       		.byte	0
 6638 18fc 00       		.byte	0
 6639 18fd 45       		.uleb128 0x45
 6640 18fe 80000000 		.4byte	.Ldebug_ranges0+0x80
 6641 1902 A1190000 		.4byte	0x19a1
 6642 1906 3E       		.uleb128 0x3e
 6643 1907 800D0000 		.4byte	.LASF289
 6644 190b 01       		.byte	0x1
 6645 190c D401     		.2byte	0x1d4
 6646 190e 60080000 		.4byte	0x860
 6647 1912 250D0000 		.4byte	.LLST40
 6648 1916 2B       		.uleb128 0x2b
 6649 1917 CC020000 		.4byte	.LVL115
 6650 191b D42B0000 		.4byte	0x2bd4
 6651 191f 34190000 		.4byte	0x1934
 6652 1923 2C       		.uleb128 0x2c
 6653 1924 01       		.uleb128 0x1
 6654 1925 52       		.byte	0x52
 6655 1926 01       		.uleb128 0x1
 6656 1927 31       		.byte	0x31
 6657 1928 2C       		.uleb128 0x2c
 6658 1929 01       		.uleb128 0x1
 6659 192a 51       		.byte	0x51
 6660 192b 02       		.uleb128 0x2
 6661 192c 75       		.byte	0x75
 6662 192d 00       		.sleb128 0
 6663 192e 2C       		.uleb128 0x2c
 6664 192f 01       		.uleb128 0x1
 6665 1930 50       		.byte	0x50
 6666 1931 01       		.uleb128 0x1
 6667 1932 33       		.byte	0x33
 6668 1933 00       		.byte	0
 6669 1934 2B       		.uleb128 0x2b
 6670 1935 E6020000 		.4byte	.LVL118
 6671 1939 F32B0000 		.4byte	0x2bf3
 6672 193d 49190000 		.4byte	0x1949
 6673 1941 2C       		.uleb128 0x2c
 6674 1942 01       		.uleb128 0x1
 6675 1943 50       		.byte	0x50
 6676 1944 03       		.uleb128 0x3
 6677 1945 91       		.byte	0x91
 6678 1946 4C       		.sleb128 -52
 6679 1947 06       		.byte	0x6
ARM GAS  C:\Users\jo\AppData\Local\Temp\ccnOsBUt.s 			page 120


 6680 1948 00       		.byte	0
 6681 1949 2B       		.uleb128 0x2b
 6682 194a FE040000 		.4byte	.LVL163
 6683 194e 55150000 		.4byte	0x1555
 6684 1952 84190000 		.4byte	0x1984
 6685 1956 2C       		.uleb128 0x2c
 6686 1957 01       		.uleb128 0x1
 6687 1958 53       		.byte	0x53
 6688 1959 02       		.uleb128 0x2
 6689 195a 91       		.byte	0x91
 6690 195b 56       		.sleb128 -42
 6691 195c 2C       		.uleb128 0x2c
 6692 195d 01       		.uleb128 0x1
 6693 195e 52       		.byte	0x52
 6694 195f 02       		.uleb128 0x2
 6695 1960 74       		.byte	0x74
 6696 1961 00       		.sleb128 0
 6697 1962 2C       		.uleb128 0x2c
 6698 1963 01       		.uleb128 0x1
 6699 1964 51       		.byte	0x51
 6700 1965 02       		.uleb128 0x2
 6701 1966 75       		.byte	0x75
 6702 1967 00       		.sleb128 0
 6703 1968 2C       		.uleb128 0x2c
 6704 1969 01       		.uleb128 0x1
 6705 196a 50       		.byte	0x50
 6706 196b 01       		.uleb128 0x1
 6707 196c 33       		.byte	0x33
 6708 196d 2C       		.uleb128 0x2c
 6709 196e 02       		.uleb128 0x2
 6710 196f 7D       		.byte	0x7d
 6711 1970 08       		.sleb128 8
 6712 1971 01       		.uleb128 0x1
 6713 1972 31       		.byte	0x31
 6714 1973 2C       		.uleb128 0x2c
 6715 1974 02       		.uleb128 0x2
 6716 1975 7D       		.byte	0x7d
 6717 1976 04       		.sleb128 4
 6718 1977 04       		.uleb128 0x4
 6719 1978 91       		.byte	0x91
 6720 1979 40       		.sleb128 -64
 6721 197a 94       		.byte	0x94
 6722 197b 01       		.byte	0x1
 6723 197c 2C       		.uleb128 0x2c
 6724 197d 02       		.uleb128 0x2
 6725 197e 7D       		.byte	0x7d
 6726 197f 00       		.sleb128 0
 6727 1980 02       		.uleb128 0x2
 6728 1981 77       		.byte	0x77
 6729 1982 00       		.sleb128 0
 6730 1983 00       		.byte	0
 6731 1984 2E       		.uleb128 0x2e
 6732 1985 12050000 		.4byte	.LVL165
 6733 1989 082C0000 		.4byte	0x2c08
 6734 198d 2C       		.uleb128 0x2c
 6735 198e 01       		.uleb128 0x1
 6736 198f 52       		.byte	0x52
ARM GAS  C:\Users\jo\AppData\Local\Temp\ccnOsBUt.s 			page 121


 6737 1990 02       		.uleb128 0x2
 6738 1991 75       		.byte	0x75
 6739 1992 00       		.sleb128 0
 6740 1993 2C       		.uleb128 0x2c
 6741 1994 01       		.uleb128 0x1
 6742 1995 51       		.byte	0x51
 6743 1996 08       		.uleb128 0x8
 6744 1997 91       		.byte	0x91
 6745 1998 B87F     		.sleb128 -72
 6746 199a 06       		.byte	0x6
 6747 199b 91       		.byte	0x91
 6748 199c 48       		.sleb128 -56
 6749 199d 06       		.byte	0x6
 6750 199e 22       		.byte	0x22
 6751 199f 00       		.byte	0
 6752 19a0 00       		.byte	0
 6753 19a1 2E       		.uleb128 0x2e
 6754 19a2 92020000 		.4byte	.LVL111
 6755 19a6 FF130000 		.4byte	0x13ff
 6756 19aa 2C       		.uleb128 0x2c
 6757 19ab 01       		.uleb128 0x1
 6758 19ac 53       		.byte	0x53
 6759 19ad 03       		.uleb128 0x3
 6760 19ae 0A       		.byte	0xa
 6761 19af C901     		.2byte	0x1c9
 6762 19b1 2C       		.uleb128 0x2c
 6763 19b2 01       		.uleb128 0x1
 6764 19b3 52       		.byte	0x52
 6765 19b4 05       		.uleb128 0x5
 6766 19b5 03       		.byte	0x3
 6767 19b6 40010000 		.4byte	.LC7
 6768 19ba 2C       		.uleb128 0x2c
 6769 19bb 01       		.uleb128 0x1
 6770 19bc 51       		.byte	0x51
 6771 19bd 05       		.uleb128 0x5
 6772 19be 03       		.byte	0x3
 6773 19bf 00000000 		.4byte	.LC0
 6774 19c3 2C       		.uleb128 0x2c
 6775 19c4 02       		.uleb128 0x2
 6776 19c5 7D       		.byte	0x7d
 6777 19c6 00       		.sleb128 0
 6778 19c7 05       		.uleb128 0x5
 6779 19c8 03       		.byte	0x3
 6780 19c9 58000000 		.4byte	.LC2
 6781 19cd 00       		.byte	0
 6782 19ce 00       		.byte	0
 6783 19cf 45       		.uleb128 0x45
 6784 19d0 A0000000 		.4byte	.Ldebug_ranges0+0xa0
 6785 19d4 811C0000 		.4byte	0x1c81
 6786 19d8 3F       		.uleb128 0x3f
 6787 19d9 7000     		.ascii	"p\000"
 6788 19db 01       		.byte	0x1
 6789 19dc 0B02     		.2byte	0x20b
 6790 19de 66090000 		.4byte	0x966
 6791 19e2 4E0D0000 		.4byte	.LLST41
 6792 19e6 3E       		.uleb128 0x3e
 6793 19e7 BF090000 		.4byte	.LASF290
ARM GAS  C:\Users\jo\AppData\Local\Temp\ccnOsBUt.s 			page 122


 6794 19eb 01       		.byte	0x1
 6795 19ec 0C02     		.2byte	0x20c
 6796 19ee 60080000 		.4byte	0x860
 6797 19f2 AE0D0000 		.4byte	.LLST42
 6798 19f6 3E       		.uleb128 0x3e
 6799 19f7 22070000 		.4byte	.LASF291
 6800 19fb 01       		.byte	0x1
 6801 19fc 0D02     		.2byte	0x20d
 6802 19fe 60080000 		.4byte	0x860
 6803 1a02 060E0000 		.4byte	.LLST43
 6804 1a06 3E       		.uleb128 0x3e
 6805 1a07 800D0000 		.4byte	.LASF289
 6806 1a0b 01       		.byte	0x1
 6807 1a0c 0E02     		.2byte	0x20e
 6808 1a0e 60080000 		.4byte	0x860
 6809 1a12 420E0000 		.4byte	.LLST44
 6810 1a16 45       		.uleb128 0x45
 6811 1a17 E0000000 		.4byte	.Ldebug_ranges0+0xe0
 6812 1a1b EF1A0000 		.4byte	0x1aef
 6813 1a1f 3F       		.uleb128 0x3f
 6814 1a20 703200   		.ascii	"p2\000"
 6815 1a23 01       		.byte	0x1
 6816 1a24 2402     		.2byte	0x224
 6817 1a26 66090000 		.4byte	0x966
 6818 1a2a 810E0000 		.4byte	.LLST45
 6819 1a2e 38       		.uleb128 0x38
 6820 1a2f 2C120000 		.4byte	0x122c
 6821 1a33 42030000 		.4byte	.LBB110
 6822 1a37 08000000 		.4byte	.LBE110-.LBB110
 6823 1a3b 01       		.byte	0x1
 6824 1a3c 2602     		.2byte	0x226
 6825 1a3e 5F1A0000 		.4byte	0x1a5f
 6826 1a42 28       		.uleb128 0x28
 6827 1a43 39120000 		.4byte	0x1239
 6828 1a47 B50E0000 		.4byte	.LLST46
 6829 1a4b 2E       		.uleb128 0x2e
 6830 1a4c 48030000 		.4byte	.LVL128
 6831 1a50 C32B0000 		.4byte	0x2bc3
 6832 1a54 2C       		.uleb128 0x2c
 6833 1a55 01       		.uleb128 0x1
 6834 1a56 50       		.byte	0x50
 6835 1a57 05       		.uleb128 0x5
 6836 1a58 03       		.byte	0x3
 6837 1a59 D0010000 		.4byte	.LC10
 6838 1a5d 00       		.byte	0
 6839 1a5e 00       		.byte	0
 6840 1a5f 2B       		.uleb128 0x2b
 6841 1a60 FC000000 		.4byte	.LVL70
 6842 1a64 D42B0000 		.4byte	0x2bd4
 6843 1a68 7D1A0000 		.4byte	0x1a7d
 6844 1a6c 2C       		.uleb128 0x2c
 6845 1a6d 01       		.uleb128 0x1
 6846 1a6e 52       		.byte	0x52
 6847 1a6f 01       		.uleb128 0x1
 6848 1a70 31       		.byte	0x31
 6849 1a71 2C       		.uleb128 0x2c
 6850 1a72 01       		.uleb128 0x1
ARM GAS  C:\Users\jo\AppData\Local\Temp\ccnOsBUt.s 			page 123


 6851 1a73 51       		.byte	0x51
 6852 1a74 02       		.uleb128 0x2
 6853 1a75 75       		.byte	0x75
 6854 1a76 00       		.sleb128 0
 6855 1a77 2C       		.uleb128 0x2c
 6856 1a78 01       		.uleb128 0x1
 6857 1a79 50       		.byte	0x50
 6858 1a7a 01       		.uleb128 0x1
 6859 1a7b 30       		.byte	0x30
 6860 1a7c 00       		.byte	0
 6861 1a7d 2B       		.uleb128 0x2b
 6862 1a7e 16010000 		.4byte	.LVL72
 6863 1a82 D42B0000 		.4byte	0x2bd4
 6864 1a86 9A1A0000 		.4byte	0x1a9a
 6865 1a8a 2C       		.uleb128 0x2c
 6866 1a8b 01       		.uleb128 0x1
 6867 1a8c 52       		.byte	0x52
 6868 1a8d 01       		.uleb128 0x1
 6869 1a8e 30       		.byte	0x30
 6870 1a8f 2C       		.uleb128 0x2c
 6871 1a90 01       		.uleb128 0x1
 6872 1a91 51       		.byte	0x51
 6873 1a92 01       		.uleb128 0x1
 6874 1a93 30       		.byte	0x30
 6875 1a94 2C       		.uleb128 0x2c
 6876 1a95 01       		.uleb128 0x1
 6877 1a96 50       		.byte	0x50
 6878 1a97 01       		.uleb128 0x1
 6879 1a98 30       		.byte	0x30
 6880 1a99 00       		.byte	0
 6881 1a9a 2B       		.uleb128 0x2b
 6882 1a9b 24010000 		.4byte	.LVL73
 6883 1a9f 252C0000 		.4byte	0x2c25
 6884 1aa3 B41A0000 		.4byte	0x1ab4
 6885 1aa7 2C       		.uleb128 0x2c
 6886 1aa8 01       		.uleb128 0x1
 6887 1aa9 51       		.byte	0x51
 6888 1aaa 02       		.uleb128 0x2
 6889 1aab 78       		.byte	0x78
 6890 1aac 00       		.sleb128 0
 6891 1aad 2C       		.uleb128 0x2c
 6892 1aae 01       		.uleb128 0x1
 6893 1aaf 50       		.byte	0x50
 6894 1ab0 02       		.uleb128 0x2
 6895 1ab1 79       		.byte	0x79
 6896 1ab2 00       		.sleb128 0
 6897 1ab3 00       		.byte	0
 6898 1ab4 2B       		.uleb128 0x2b
 6899 1ab5 42030000 		.4byte	.LVL127
 6900 1ab9 FF130000 		.4byte	0x13ff
 6901 1abd E51A0000 		.4byte	0x1ae5
 6902 1ac1 2C       		.uleb128 0x2c
 6903 1ac2 01       		.uleb128 0x1
 6904 1ac3 53       		.byte	0x53
 6905 1ac4 03       		.uleb128 0x3
 6906 1ac5 0A       		.byte	0xa
 6907 1ac6 2602     		.2byte	0x226
ARM GAS  C:\Users\jo\AppData\Local\Temp\ccnOsBUt.s 			page 124


 6908 1ac8 2C       		.uleb128 0x2c
 6909 1ac9 01       		.uleb128 0x1
 6910 1aca 52       		.byte	0x52
 6911 1acb 05       		.uleb128 0x5
 6912 1acc 03       		.byte	0x3
 6913 1acd D0010000 		.4byte	.LC10
 6914 1ad1 2C       		.uleb128 0x2c
 6915 1ad2 01       		.uleb128 0x1
 6916 1ad3 51       		.byte	0x51
 6917 1ad4 05       		.uleb128 0x5
 6918 1ad5 03       		.byte	0x3
 6919 1ad6 00000000 		.4byte	.LC0
 6920 1ada 2C       		.uleb128 0x2c
 6921 1adb 02       		.uleb128 0x2
 6922 1adc 7D       		.byte	0x7d
 6923 1add 00       		.sleb128 0
 6924 1ade 05       		.uleb128 0x5
 6925 1adf 03       		.byte	0x3
 6926 1ae0 58000000 		.4byte	.LC2
 6927 1ae4 00       		.byte	0
 6928 1ae5 2D       		.uleb128 0x2d
 6929 1ae6 5C040000 		.4byte	.LVL151
 6930 1aea 8F2B0000 		.4byte	0x2b8f
 6931 1aee 00       		.byte	0
 6932 1aef 38       		.uleb128 0x38
 6933 1af0 2C120000 		.4byte	0x122c
 6934 1af4 E4030000 		.4byte	.LBB113
 6935 1af8 08000000 		.4byte	.LBE113-.LBB113
 6936 1afc 01       		.byte	0x1
 6937 1afd 1B02     		.2byte	0x21b
 6938 1aff 201B0000 		.4byte	0x1b20
 6939 1b03 28       		.uleb128 0x28
 6940 1b04 39120000 		.4byte	0x1239
 6941 1b08 CD0E0000 		.4byte	.LLST47
 6942 1b0c 2E       		.uleb128 0x2e
 6943 1b0d EA030000 		.4byte	.LVL139
 6944 1b11 C32B0000 		.4byte	0x2bc3
 6945 1b15 2C       		.uleb128 0x2c
 6946 1b16 01       		.uleb128 0x1
 6947 1b17 50       		.byte	0x50
 6948 1b18 05       		.uleb128 0x5
 6949 1b19 03       		.byte	0x3
 6950 1b1a 90010000 		.4byte	.LC9
 6951 1b1e 00       		.byte	0
 6952 1b1f 00       		.byte	0
 6953 1b20 38       		.uleb128 0x38
 6954 1b21 2C120000 		.4byte	0x122c
 6955 1b25 FE030000 		.4byte	.LBB115
 6956 1b29 0C000000 		.4byte	.LBE115-.LBB115
 6957 1b2d 01       		.byte	0x1
 6958 1b2e 5B02     		.2byte	0x25b
 6959 1b30 511B0000 		.4byte	0x1b51
 6960 1b34 28       		.uleb128 0x28
 6961 1b35 39120000 		.4byte	0x1239
 6962 1b39 E50E0000 		.4byte	.LLST48
 6963 1b3d 2E       		.uleb128 0x2e
 6964 1b3e 04040000 		.4byte	.LVL143
ARM GAS  C:\Users\jo\AppData\Local\Temp\ccnOsBUt.s 			page 125


 6965 1b42 C32B0000 		.4byte	0x2bc3
 6966 1b46 2C       		.uleb128 0x2c
 6967 1b47 01       		.uleb128 0x1
 6968 1b48 50       		.byte	0x50
 6969 1b49 05       		.uleb128 0x5
 6970 1b4a 03       		.byte	0x3
 6971 1b4b E0010000 		.4byte	.LC11
 6972 1b4f 00       		.byte	0
 6973 1b50 00       		.byte	0
 6974 1b51 2B       		.uleb128 0x2b
 6975 1b52 2A010000 		.4byte	.LVL74
 6976 1b56 F32B0000 		.4byte	0x2bf3
 6977 1b5a 651B0000 		.4byte	0x1b65
 6978 1b5e 2C       		.uleb128 0x2c
 6979 1b5f 01       		.uleb128 0x1
 6980 1b60 50       		.byte	0x50
 6981 1b61 02       		.uleb128 0x2
 6982 1b62 79       		.byte	0x79
 6983 1b63 00       		.sleb128 0
 6984 1b64 00       		.byte	0
 6985 1b65 2B       		.uleb128 0x2b
 6986 1b66 4A010000 		.4byte	.LVL77
 6987 1b6a DA120000 		.4byte	0x12da
 6988 1b6e 981B0000 		.4byte	0x1b98
 6989 1b72 2C       		.uleb128 0x2c
 6990 1b73 01       		.uleb128 0x1
 6991 1b74 53       		.byte	0x53
 6992 1b75 01       		.uleb128 0x1
 6993 1b76 30       		.byte	0x30
 6994 1b77 2C       		.uleb128 0x2c
 6995 1b78 01       		.uleb128 0x1
 6996 1b79 52       		.byte	0x52
 6997 1b7a 02       		.uleb128 0x2
 6998 1b7b 79       		.byte	0x79
 6999 1b7c 00       		.sleb128 0
 7000 1b7d 2C       		.uleb128 0x2c
 7001 1b7e 01       		.uleb128 0x1
 7002 1b7f 51       		.byte	0x51
 7003 1b80 02       		.uleb128 0x2
 7004 1b81 77       		.byte	0x77
 7005 1b82 1C       		.sleb128 28
 7006 1b83 2C       		.uleb128 0x2c
 7007 1b84 01       		.uleb128 0x1
 7008 1b85 50       		.byte	0x50
 7009 1b86 02       		.uleb128 0x2
 7010 1b87 77       		.byte	0x77
 7011 1b88 1A       		.sleb128 26
 7012 1b89 2C       		.uleb128 0x2c
 7013 1b8a 02       		.uleb128 0x2
 7014 1b8b 7D       		.byte	0x7d
 7015 1b8c 04       		.sleb128 4
 7016 1b8d 01       		.uleb128 0x1
 7017 1b8e 30       		.byte	0x30
 7018 1b8f 47       		.uleb128 0x47
 7019 1b90 E0110000 		.4byte	0x11e0
 7020 1b94 02       		.uleb128 0x2
 7021 1b95 77       		.byte	0x77
ARM GAS  C:\Users\jo\AppData\Local\Temp\ccnOsBUt.s 			page 126


 7022 1b96 00       		.sleb128 0
 7023 1b97 00       		.byte	0
 7024 1b98 2B       		.uleb128 0x2b
 7025 1b99 A4010000 		.4byte	.LVL84
 7026 1b9d 55150000 		.4byte	0x1555
 7027 1ba1 DB1B0000 		.4byte	0x1bdb
 7028 1ba5 2C       		.uleb128 0x2c
 7029 1ba6 01       		.uleb128 0x1
 7030 1ba7 53       		.byte	0x53
 7031 1ba8 02       		.uleb128 0x2
 7032 1ba9 91       		.byte	0x91
 7033 1baa 56       		.sleb128 -42
 7034 1bab 2C       		.uleb128 0x2c
 7035 1bac 01       		.uleb128 0x1
 7036 1bad 52       		.byte	0x52
 7037 1bae 05       		.uleb128 0x5
 7038 1baf 91       		.byte	0x91
 7039 1bb0 B47F     		.sleb128 -76
 7040 1bb2 94       		.byte	0x94
 7041 1bb3 02       		.byte	0x2
 7042 1bb4 2C       		.uleb128 0x2c
 7043 1bb5 01       		.uleb128 0x1
 7044 1bb6 51       		.byte	0x51
 7045 1bb7 02       		.uleb128 0x2
 7046 1bb8 75       		.byte	0x75
 7047 1bb9 00       		.sleb128 0
 7048 1bba 2C       		.uleb128 0x2c
 7049 1bbb 01       		.uleb128 0x1
 7050 1bbc 50       		.byte	0x50
 7051 1bbd 01       		.uleb128 0x1
 7052 1bbe 30       		.byte	0x30
 7053 1bbf 2C       		.uleb128 0x2c
 7054 1bc0 02       		.uleb128 0x2
 7055 1bc1 7D       		.byte	0x7d
 7056 1bc2 08       		.sleb128 8
 7057 1bc3 06       		.uleb128 0x6
 7058 1bc4 91       		.byte	0x91
 7059 1bc5 B07F     		.sleb128 -80
 7060 1bc7 06       		.byte	0x6
 7061 1bc8 30       		.byte	0x30
 7062 1bc9 29       		.byte	0x29
 7063 1bca 2C       		.uleb128 0x2c
 7064 1bcb 02       		.uleb128 0x2
 7065 1bcc 7D       		.byte	0x7d
 7066 1bcd 04       		.sleb128 4
 7067 1bce 04       		.uleb128 0x4
 7068 1bcf 91       		.byte	0x91
 7069 1bd0 40       		.sleb128 -64
 7070 1bd1 94       		.byte	0x94
 7071 1bd2 01       		.byte	0x1
 7072 1bd3 2C       		.uleb128 0x2c
 7073 1bd4 02       		.uleb128 0x2
 7074 1bd5 7D       		.byte	0x7d
 7075 1bd6 00       		.sleb128 0
 7076 1bd7 02       		.uleb128 0x2
 7077 1bd8 77       		.byte	0x77
 7078 1bd9 00       		.sleb128 0
ARM GAS  C:\Users\jo\AppData\Local\Temp\ccnOsBUt.s 			page 127


 7079 1bda 00       		.byte	0
 7080 1bdb 2B       		.uleb128 0x2b
 7081 1bdc C2010000 		.4byte	.LVL86
 7082 1be0 082C0000 		.4byte	0x2c08
 7083 1be4 FA1B0000 		.4byte	0x1bfa
 7084 1be8 2C       		.uleb128 0x2c
 7085 1be9 01       		.uleb128 0x1
 7086 1bea 52       		.byte	0x52
 7087 1beb 02       		.uleb128 0x2
 7088 1bec 75       		.byte	0x75
 7089 1bed 00       		.sleb128 0
 7090 1bee 2C       		.uleb128 0x2c
 7091 1bef 01       		.uleb128 0x1
 7092 1bf0 51       		.byte	0x51
 7093 1bf1 07       		.uleb128 0x7
 7094 1bf2 91       		.byte	0x91
 7095 1bf3 B87F     		.sleb128 -72
 7096 1bf5 06       		.byte	0x6
 7097 1bf6 74       		.byte	0x74
 7098 1bf7 00       		.sleb128 0
 7099 1bf8 22       		.byte	0x22
 7100 1bf9 00       		.byte	0
 7101 1bfa 2B       		.uleb128 0x2b
 7102 1bfb C8010000 		.4byte	.LVL87
 7103 1bff F32B0000 		.4byte	0x2bf3
 7104 1c03 0E1C0000 		.4byte	0x1c0e
 7105 1c07 2C       		.uleb128 0x2c
 7106 1c08 01       		.uleb128 0x1
 7107 1c09 50       		.byte	0x50
 7108 1c0a 02       		.uleb128 0x2
 7109 1c0b 79       		.byte	0x79
 7110 1c0c 00       		.sleb128 0
 7111 1c0d 00       		.byte	0
 7112 1c0e 2B       		.uleb128 0x2b
 7113 1c0f DA010000 		.4byte	.LVL89
 7114 1c13 8F2B0000 		.4byte	0x2b8f
 7115 1c17 221C0000 		.4byte	0x1c22
 7116 1c1b 2C       		.uleb128 0x2c
 7117 1c1c 01       		.uleb128 0x1
 7118 1c1d 50       		.byte	0x50
 7119 1c1e 02       		.uleb128 0x2
 7120 1c1f 79       		.byte	0x79
 7121 1c20 00       		.sleb128 0
 7122 1c21 00       		.byte	0
 7123 1c22 2B       		.uleb128 0x2b
 7124 1c23 E4030000 		.4byte	.LVL138
 7125 1c27 FF130000 		.4byte	0x13ff
 7126 1c2b 531C0000 		.4byte	0x1c53
 7127 1c2f 2C       		.uleb128 0x2c
 7128 1c30 01       		.uleb128 0x1
 7129 1c31 53       		.byte	0x53
 7130 1c32 03       		.uleb128 0x3
 7131 1c33 0A       		.byte	0xa
 7132 1c34 1C02     		.2byte	0x21c
 7133 1c36 2C       		.uleb128 0x2c
 7134 1c37 01       		.uleb128 0x1
 7135 1c38 52       		.byte	0x52
ARM GAS  C:\Users\jo\AppData\Local\Temp\ccnOsBUt.s 			page 128


 7136 1c39 05       		.uleb128 0x5
 7137 1c3a 03       		.byte	0x3
 7138 1c3b 90010000 		.4byte	.LC9
 7139 1c3f 2C       		.uleb128 0x2c
 7140 1c40 01       		.uleb128 0x1
 7141 1c41 51       		.byte	0x51
 7142 1c42 05       		.uleb128 0x5
 7143 1c43 03       		.byte	0x3
 7144 1c44 00000000 		.4byte	.LC0
 7145 1c48 2C       		.uleb128 0x2c
 7146 1c49 02       		.uleb128 0x2
 7147 1c4a 7D       		.byte	0x7d
 7148 1c4b 00       		.sleb128 0
 7149 1c4c 05       		.uleb128 0x5
 7150 1c4d 03       		.byte	0x3
 7151 1c4e 58000000 		.4byte	.LC2
 7152 1c52 00       		.byte	0
 7153 1c53 2E       		.uleb128 0x2e
 7154 1c54 FE030000 		.4byte	.LVL142
 7155 1c58 FF130000 		.4byte	0x13ff
 7156 1c5c 2C       		.uleb128 0x2c
 7157 1c5d 01       		.uleb128 0x1
 7158 1c5e 53       		.byte	0x53
 7159 1c5f 03       		.uleb128 0x3
 7160 1c60 0A       		.byte	0xa
 7161 1c61 5B02     		.2byte	0x25b
 7162 1c63 2C       		.uleb128 0x2c
 7163 1c64 01       		.uleb128 0x1
 7164 1c65 52       		.byte	0x52
 7165 1c66 05       		.uleb128 0x5
 7166 1c67 03       		.byte	0x3
 7167 1c68 E0010000 		.4byte	.LC11
 7168 1c6c 2C       		.uleb128 0x2c
 7169 1c6d 01       		.uleb128 0x1
 7170 1c6e 51       		.byte	0x51
 7171 1c6f 05       		.uleb128 0x5
 7172 1c70 03       		.byte	0x3
 7173 1c71 00000000 		.4byte	.LC0
 7174 1c75 2C       		.uleb128 0x2c
 7175 1c76 02       		.uleb128 0x2
 7176 1c77 7D       		.byte	0x7d
 7177 1c78 00       		.sleb128 0
 7178 1c79 05       		.uleb128 0x5
 7179 1c7a 03       		.byte	0x3
 7180 1c7b 58000000 		.4byte	.LC2
 7181 1c7f 00       		.byte	0
 7182 1c80 00       		.byte	0
 7183 1c81 45       		.uleb128 0x45
 7184 1c82 00010000 		.4byte	.Ldebug_ranges0+0x100
 7185 1c86 B11C0000 		.4byte	0x1cb1
 7186 1c8a 3F       		.uleb128 0x3f
 7187 1c8b 7000     		.ascii	"p\000"
 7188 1c8d 01       		.byte	0x1
 7189 1c8e 7302     		.2byte	0x273
 7190 1c90 66090000 		.4byte	0x966
 7191 1c94 FD0E0000 		.4byte	.LLST49
 7192 1c98 2E       		.uleb128 0x2e
ARM GAS  C:\Users\jo\AppData\Local\Temp\ccnOsBUt.s 			page 129


 7193 1c99 C2040000 		.4byte	.LVL158
 7194 1c9d 082C0000 		.4byte	0x2c08
 7195 1ca1 2C       		.uleb128 0x2c
 7196 1ca2 01       		.uleb128 0x1
 7197 1ca3 52       		.byte	0x52
 7198 1ca4 02       		.uleb128 0x2
 7199 1ca5 75       		.byte	0x75
 7200 1ca6 00       		.sleb128 0
 7201 1ca7 2C       		.uleb128 0x2c
 7202 1ca8 01       		.uleb128 0x1
 7203 1ca9 51       		.byte	0x51
 7204 1caa 04       		.uleb128 0x4
 7205 1cab 91       		.byte	0x91
 7206 1cac B87F     		.sleb128 -72
 7207 1cae 06       		.byte	0x6
 7208 1caf 00       		.byte	0
 7209 1cb0 00       		.byte	0
 7210 1cb1 38       		.uleb128 0x38
 7211 1cb2 2C120000 		.4byte	0x122c
 7212 1cb6 28030000 		.4byte	.LBB126
 7213 1cba 08000000 		.4byte	.LBE126-.LBB126
 7214 1cbe 01       		.byte	0x1
 7215 1cbf FF01     		.2byte	0x1ff
 7216 1cc1 E21C0000 		.4byte	0x1ce2
 7217 1cc5 28       		.uleb128 0x28
 7218 1cc6 39120000 		.4byte	0x1239
 7219 1cca 260F0000 		.4byte	.LLST50
 7220 1cce 2E       		.uleb128 0x2e
 7221 1ccf 2E030000 		.4byte	.LVL125
 7222 1cd3 C32B0000 		.4byte	0x2bc3
 7223 1cd7 2C       		.uleb128 0x2c
 7224 1cd8 01       		.uleb128 0x1
 7225 1cd9 50       		.byte	0x50
 7226 1cda 05       		.uleb128 0x5
 7227 1cdb 03       		.byte	0x3
 7228 1cdc 60010000 		.4byte	.LC8
 7229 1ce0 00       		.byte	0
 7230 1ce1 00       		.byte	0
 7231 1ce2 38       		.uleb128 0x38
 7232 1ce3 2C120000 		.4byte	0x122c
 7233 1ce7 2E050000 		.4byte	.LBB136
 7234 1ceb 08000000 		.4byte	.LBE136-.LBB136
 7235 1cef 01       		.byte	0x1
 7236 1cf0 AB02     		.2byte	0x2ab
 7237 1cf2 131D0000 		.4byte	0x1d13
 7238 1cf6 28       		.uleb128 0x28
 7239 1cf7 39120000 		.4byte	0x1239
 7240 1cfb 3E0F0000 		.4byte	.LLST51
 7241 1cff 2E       		.uleb128 0x2e
 7242 1d00 34050000 		.4byte	.LVL168
 7243 1d04 C32B0000 		.4byte	0x2bc3
 7244 1d08 2C       		.uleb128 0x2c
 7245 1d09 01       		.uleb128 0x1
 7246 1d0a 50       		.byte	0x50
 7247 1d0b 05       		.uleb128 0x5
 7248 1d0c 03       		.byte	0x3
 7249 1d0d 2C020000 		.4byte	.LC13
ARM GAS  C:\Users\jo\AppData\Local\Temp\ccnOsBUt.s 			page 130


 7250 1d11 00       		.byte	0
 7251 1d12 00       		.byte	0
 7252 1d13 38       		.uleb128 0x38
 7253 1d14 2C120000 		.4byte	0x122c
 7254 1d18 6E050000 		.4byte	.LBB139
 7255 1d1c 06000000 		.4byte	.LBE139-.LBB139
 7256 1d20 01       		.byte	0x1
 7257 1d21 C002     		.2byte	0x2c0
 7258 1d23 441D0000 		.4byte	0x1d44
 7259 1d27 28       		.uleb128 0x28
 7260 1d28 39120000 		.4byte	0x1239
 7261 1d2c 560F0000 		.4byte	.LLST52
 7262 1d30 2E       		.uleb128 0x2e
 7263 1d31 74050000 		.4byte	.LVL175
 7264 1d35 C32B0000 		.4byte	0x2bc3
 7265 1d39 2C       		.uleb128 0x2c
 7266 1d3a 01       		.uleb128 0x1
 7267 1d3b 50       		.byte	0x50
 7268 1d3c 05       		.uleb128 0x5
 7269 1d3d 03       		.byte	0x3
 7270 1d3e 2C020000 		.4byte	.LC13
 7271 1d42 00       		.byte	0
 7272 1d43 00       		.byte	0
 7273 1d44 38       		.uleb128 0x38
 7274 1d45 2C120000 		.4byte	0x122c
 7275 1d49 AE050000 		.4byte	.LBB141
 7276 1d4d 08000000 		.4byte	.LBE141-.LBB141
 7277 1d51 01       		.byte	0x1
 7278 1d52 8A02     		.2byte	0x28a
 7279 1d54 751D0000 		.4byte	0x1d75
 7280 1d58 28       		.uleb128 0x28
 7281 1d59 39120000 		.4byte	0x1239
 7282 1d5d 6E0F0000 		.4byte	.LLST53
 7283 1d61 2E       		.uleb128 0x2e
 7284 1d62 B4050000 		.4byte	.LVL180
 7285 1d66 C32B0000 		.4byte	0x2bc3
 7286 1d6a 2C       		.uleb128 0x2c
 7287 1d6b 01       		.uleb128 0x1
 7288 1d6c 50       		.byte	0x50
 7289 1d6d 05       		.uleb128 0x5
 7290 1d6e 03       		.byte	0x3
 7291 1d6f F4010000 		.4byte	.LC12
 7292 1d73 00       		.byte	0
 7293 1d74 00       		.byte	0
 7294 1d75 38       		.uleb128 0x38
 7295 1d76 2C120000 		.4byte	0x122c
 7296 1d7a C8050000 		.4byte	.LBB143
 7297 1d7e 06000000 		.4byte	.LBE143-.LBB143
 7298 1d82 01       		.byte	0x1
 7299 1d83 7E01     		.2byte	0x17e
 7300 1d85 A61D0000 		.4byte	0x1da6
 7301 1d89 28       		.uleb128 0x28
 7302 1d8a 39120000 		.4byte	0x1239
 7303 1d8e 860F0000 		.4byte	.LLST54
 7304 1d92 2E       		.uleb128 0x2e
 7305 1d93 CE050000 		.4byte	.LVL185
 7306 1d97 C32B0000 		.4byte	0x2bc3
ARM GAS  C:\Users\jo\AppData\Local\Temp\ccnOsBUt.s 			page 131


 7307 1d9b 2C       		.uleb128 0x2c
 7308 1d9c 01       		.uleb128 0x1
 7309 1d9d 50       		.byte	0x50
 7310 1d9e 05       		.uleb128 0x5
 7311 1d9f 03       		.byte	0x3
 7312 1da0 9C000000 		.4byte	.LC4
 7313 1da4 00       		.byte	0
 7314 1da5 00       		.byte	0
 7315 1da6 2B       		.uleb128 0x2b
 7316 1da7 28030000 		.4byte	.LVL124
 7317 1dab FF130000 		.4byte	0x13ff
 7318 1daf D71D0000 		.4byte	0x1dd7
 7319 1db3 2C       		.uleb128 0x2c
 7320 1db4 01       		.uleb128 0x1
 7321 1db5 53       		.byte	0x53
 7322 1db6 03       		.uleb128 0x3
 7323 1db7 0A       		.byte	0xa
 7324 1db8 0002     		.2byte	0x200
 7325 1dba 2C       		.uleb128 0x2c
 7326 1dbb 01       		.uleb128 0x1
 7327 1dbc 52       		.byte	0x52
 7328 1dbd 05       		.uleb128 0x5
 7329 1dbe 03       		.byte	0x3
 7330 1dbf 60010000 		.4byte	.LC8
 7331 1dc3 2C       		.uleb128 0x2c
 7332 1dc4 01       		.uleb128 0x1
 7333 1dc5 51       		.byte	0x51
 7334 1dc6 05       		.uleb128 0x5
 7335 1dc7 03       		.byte	0x3
 7336 1dc8 00000000 		.4byte	.LC0
 7337 1dcc 2C       		.uleb128 0x2c
 7338 1dcd 02       		.uleb128 0x2
 7339 1dce 7D       		.byte	0x7d
 7340 1dcf 00       		.sleb128 0
 7341 1dd0 05       		.uleb128 0x5
 7342 1dd1 03       		.byte	0x3
 7343 1dd2 58000000 		.4byte	.LC2
 7344 1dd6 00       		.byte	0
 7345 1dd7 2B       		.uleb128 0x2b
 7346 1dd8 84030000 		.4byte	.LVL134
 7347 1ddc 252C0000 		.4byte	0x2c25
 7348 1de0 EB1D0000 		.4byte	0x1deb
 7349 1de4 2C       		.uleb128 0x2c
 7350 1de5 01       		.uleb128 0x1
 7351 1de6 51       		.byte	0x51
 7352 1de7 02       		.uleb128 0x2
 7353 1de8 75       		.byte	0x75
 7354 1de9 00       		.sleb128 0
 7355 1dea 00       		.byte	0
 7356 1deb 2B       		.uleb128 0x2b
 7357 1dec 28040000 		.4byte	.LVL146
 7358 1df0 8F2B0000 		.4byte	0x2b8f
 7359 1df4 001E0000 		.4byte	0x1e00
 7360 1df8 2C       		.uleb128 0x2c
 7361 1df9 01       		.uleb128 0x1
 7362 1dfa 50       		.byte	0x50
 7363 1dfb 03       		.uleb128 0x3
ARM GAS  C:\Users\jo\AppData\Local\Temp\ccnOsBUt.s 			page 132


 7364 1dfc 91       		.byte	0x91
 7365 1dfd 4C       		.sleb128 -52
 7366 1dfe 06       		.byte	0x6
 7367 1dff 00       		.byte	0
 7368 1e00 2B       		.uleb128 0x2b
 7369 1e01 34040000 		.4byte	.LVL147
 7370 1e05 3B2C0000 		.4byte	0x2c3b
 7371 1e09 141E0000 		.4byte	0x1e14
 7372 1e0d 2C       		.uleb128 0x2c
 7373 1e0e 01       		.uleb128 0x1
 7374 1e0f 50       		.byte	0x50
 7375 1e10 02       		.uleb128 0x2
 7376 1e11 78       		.byte	0x78
 7377 1e12 00       		.sleb128 0
 7378 1e13 00       		.byte	0
 7379 1e14 2B       		.uleb128 0x2b
 7380 1e15 2E050000 		.4byte	.LVL167
 7381 1e19 FF130000 		.4byte	0x13ff
 7382 1e1d 451E0000 		.4byte	0x1e45
 7383 1e21 2C       		.uleb128 0x2c
 7384 1e22 01       		.uleb128 0x1
 7385 1e23 53       		.byte	0x53
 7386 1e24 03       		.uleb128 0x3
 7387 1e25 0A       		.byte	0xa
 7388 1e26 AC02     		.2byte	0x2ac
 7389 1e28 2C       		.uleb128 0x2c
 7390 1e29 01       		.uleb128 0x1
 7391 1e2a 52       		.byte	0x52
 7392 1e2b 05       		.uleb128 0x5
 7393 1e2c 03       		.byte	0x3
 7394 1e2d 2C020000 		.4byte	.LC13
 7395 1e31 2C       		.uleb128 0x2c
 7396 1e32 01       		.uleb128 0x1
 7397 1e33 51       		.byte	0x51
 7398 1e34 05       		.uleb128 0x5
 7399 1e35 03       		.byte	0x3
 7400 1e36 00000000 		.4byte	.LC0
 7401 1e3a 2C       		.uleb128 0x2c
 7402 1e3b 02       		.uleb128 0x2
 7403 1e3c 7D       		.byte	0x7d
 7404 1e3d 00       		.sleb128 0
 7405 1e3e 05       		.uleb128 0x5
 7406 1e3f 03       		.byte	0x3
 7407 1e40 58000000 		.4byte	.LC2
 7408 1e44 00       		.byte	0
 7409 1e45 2B       		.uleb128 0x2b
 7410 1e46 54050000 		.4byte	.LVL172
 7411 1e4a 532B0000 		.4byte	0x2b53
 7412 1e4e 581E0000 		.4byte	0x1e58
 7413 1e52 2C       		.uleb128 0x2c
 7414 1e53 01       		.uleb128 0x1
 7415 1e54 50       		.byte	0x50
 7416 1e55 01       		.uleb128 0x1
 7417 1e56 38       		.byte	0x38
 7418 1e57 00       		.byte	0
 7419 1e58 2B       		.uleb128 0x2b
 7420 1e59 6E050000 		.4byte	.LVL174
ARM GAS  C:\Users\jo\AppData\Local\Temp\ccnOsBUt.s 			page 133


 7421 1e5d FF130000 		.4byte	0x13ff
 7422 1e61 891E0000 		.4byte	0x1e89
 7423 1e65 2C       		.uleb128 0x2c
 7424 1e66 01       		.uleb128 0x1
 7425 1e67 53       		.byte	0x53
 7426 1e68 03       		.uleb128 0x3
 7427 1e69 0A       		.byte	0xa
 7428 1e6a C102     		.2byte	0x2c1
 7429 1e6c 2C       		.uleb128 0x2c
 7430 1e6d 01       		.uleb128 0x1
 7431 1e6e 52       		.byte	0x52
 7432 1e6f 05       		.uleb128 0x5
 7433 1e70 03       		.byte	0x3
 7434 1e71 2C020000 		.4byte	.LC13
 7435 1e75 2C       		.uleb128 0x2c
 7436 1e76 01       		.uleb128 0x1
 7437 1e77 51       		.byte	0x51
 7438 1e78 05       		.uleb128 0x5
 7439 1e79 03       		.byte	0x3
 7440 1e7a 00000000 		.4byte	.LC0
 7441 1e7e 2C       		.uleb128 0x2c
 7442 1e7f 02       		.uleb128 0x2
 7443 1e80 7D       		.byte	0x7d
 7444 1e81 00       		.sleb128 0
 7445 1e82 05       		.uleb128 0x5
 7446 1e83 03       		.byte	0x3
 7447 1e84 58000000 		.4byte	.LC2
 7448 1e88 00       		.byte	0
 7449 1e89 2B       		.uleb128 0x2b
 7450 1e8a AE050000 		.4byte	.LVL179
 7451 1e8e FF130000 		.4byte	0x13ff
 7452 1e92 BA1E0000 		.4byte	0x1eba
 7453 1e96 2C       		.uleb128 0x2c
 7454 1e97 01       		.uleb128 0x1
 7455 1e98 53       		.byte	0x53
 7456 1e99 03       		.uleb128 0x3
 7457 1e9a 0A       		.byte	0xa
 7458 1e9b 8B02     		.2byte	0x28b
 7459 1e9d 2C       		.uleb128 0x2c
 7460 1e9e 01       		.uleb128 0x1
 7461 1e9f 52       		.byte	0x52
 7462 1ea0 05       		.uleb128 0x5
 7463 1ea1 03       		.byte	0x3
 7464 1ea2 F4010000 		.4byte	.LC12
 7465 1ea6 2C       		.uleb128 0x2c
 7466 1ea7 01       		.uleb128 0x1
 7467 1ea8 51       		.byte	0x51
 7468 1ea9 05       		.uleb128 0x5
 7469 1eaa 03       		.byte	0x3
 7470 1eab 00000000 		.4byte	.LC0
 7471 1eaf 2C       		.uleb128 0x2c
 7472 1eb0 02       		.uleb128 0x2
 7473 1eb1 7D       		.byte	0x7d
 7474 1eb2 00       		.sleb128 0
 7475 1eb3 05       		.uleb128 0x5
 7476 1eb4 03       		.byte	0x3
 7477 1eb5 58000000 		.4byte	.LC2
ARM GAS  C:\Users\jo\AppData\Local\Temp\ccnOsBUt.s 			page 134


 7478 1eb9 00       		.byte	0
 7479 1eba 2E       		.uleb128 0x2e
 7480 1ebb C8050000 		.4byte	.LVL184
 7481 1ebf FF130000 		.4byte	0x13ff
 7482 1ec3 2C       		.uleb128 0x2c
 7483 1ec4 01       		.uleb128 0x1
 7484 1ec5 53       		.byte	0x53
 7485 1ec6 03       		.uleb128 0x3
 7486 1ec7 0A       		.byte	0xa
 7487 1ec8 7F01     		.2byte	0x17f
 7488 1eca 2C       		.uleb128 0x2c
 7489 1ecb 01       		.uleb128 0x1
 7490 1ecc 52       		.byte	0x52
 7491 1ecd 05       		.uleb128 0x5
 7492 1ece 03       		.byte	0x3
 7493 1ecf 9C000000 		.4byte	.LC4
 7494 1ed3 2C       		.uleb128 0x2c
 7495 1ed4 01       		.uleb128 0x1
 7496 1ed5 51       		.byte	0x51
 7497 1ed6 05       		.uleb128 0x5
 7498 1ed7 03       		.byte	0x3
 7499 1ed8 00000000 		.4byte	.LC0
 7500 1edc 2C       		.uleb128 0x2c
 7501 1edd 02       		.uleb128 0x2
 7502 1ede 7D       		.byte	0x7d
 7503 1edf 00       		.sleb128 0
 7504 1ee0 05       		.uleb128 0x5
 7505 1ee1 03       		.byte	0x3
 7506 1ee2 58000000 		.4byte	.LC2
 7507 1ee6 00       		.byte	0
 7508 1ee7 00       		.byte	0
 7509 1ee8 0B       		.uleb128 0xb
 7510 1ee9 04       		.byte	0x4
 7511 1eea EE1E0000 		.4byte	0x1eee
 7512 1eee 48       		.uleb128 0x48
 7513 1eef 3B       		.uleb128 0x3b
 7514 1ef0 46080000 		.4byte	.LASF293
 7515 1ef4 01       		.byte	0x1
 7516 1ef5 D202     		.2byte	0x2d2
 7517 1ef7 A2080000 		.4byte	0x8a2
 7518 1efb 00000000 		.4byte	.LFB262
 7519 1eff D0010000 		.4byte	.LFE262-.LFB262
 7520 1f03 01       		.uleb128 0x1
 7521 1f04 9C       		.byte	0x9c
 7522 1f05 C5210000 		.4byte	0x21c5
 7523 1f09 3C       		.uleb128 0x3c
 7524 1f0a 70636200 		.ascii	"pcb\000"
 7525 1f0e 01       		.byte	0x1
 7526 1f0f D202     		.2byte	0x2d2
 7527 1f11 0E0B0000 		.4byte	0xb0e
 7528 1f15 9E0F0000 		.4byte	.LLST55
 7529 1f19 3D       		.uleb128 0x3d
 7530 1f1a B9040000 		.4byte	.LASF135
 7531 1f1e 01       		.byte	0x1
 7532 1f1f D202     		.2byte	0x2d2
 7533 1f21 4A080000 		.4byte	0x84a
 7534 1f25 04100000 		.4byte	.LLST56
ARM GAS  C:\Users\jo\AppData\Local\Temp\ccnOsBUt.s 			page 135


 7535 1f29 3F       		.uleb128 0x3f
 7536 1f2a 7000     		.ascii	"p\000"
 7537 1f2c 01       		.byte	0x1
 7538 1f2d D402     		.2byte	0x2d4
 7539 1f2f 66090000 		.4byte	0x966
 7540 1f33 3E100000 		.4byte	.LLST57
 7541 1f37 3F       		.uleb128 0x3f
 7542 1f38 73656700 		.ascii	"seg\000"
 7543 1f3c 01       		.byte	0x1
 7544 1f3d D502     		.2byte	0x2d5
 7545 1f3f 0C0F0000 		.4byte	0xf0c
 7546 1f43 88100000 		.4byte	.LLST58
 7547 1f47 40       		.uleb128 0x40
 7548 1f48 FF060000 		.4byte	.LASF263
 7549 1f4c 01       		.byte	0x1
 7550 1f4d D602     		.2byte	0x2d6
 7551 1f4f 4A080000 		.4byte	0x84a
 7552 1f53 00       		.byte	0
 7553 1f54 3E       		.uleb128 0x3e
 7554 1f55 E60A0000 		.4byte	.LASF264
 7555 1f59 01       		.byte	0x1
 7556 1f5a D702     		.2byte	0x2d7
 7557 1f5c 4A080000 		.4byte	0x84a
 7558 1f60 D2100000 		.4byte	.LLST59
 7559 1f64 49       		.uleb128 0x49
 7560 1f65 84000000 		.4byte	.LBB146
 7561 1f69 0A000000 		.4byte	.LBE146-.LBB146
 7562 1f6d 821F0000 		.4byte	0x1f82
 7563 1f71 3E       		.uleb128 0x3e
 7564 1f72 23040000 		.4byte	.LASF294
 7565 1f76 01       		.byte	0x1
 7566 1f77 1703     		.2byte	0x317
 7567 1f79 0C0F0000 		.4byte	0xf0c
 7568 1f7d 9A110000 		.4byte	.LLST60
 7569 1f81 00       		.byte	0
 7570 1f82 38       		.uleb128 0x38
 7571 1f83 2C120000 		.4byte	0x122c
 7572 1f87 EA000000 		.4byte	.LBB147
 7573 1f8b 08000000 		.4byte	.LBE147-.LBB147
 7574 1f8f 01       		.byte	0x1
 7575 1f90 DB02     		.2byte	0x2db
 7576 1f92 B31F0000 		.4byte	0x1fb3
 7577 1f96 28       		.uleb128 0x28
 7578 1f97 39120000 		.4byte	0x1239
 7579 1f9b AD110000 		.4byte	.LLST61
 7580 1f9f 2E       		.uleb128 0x2e
 7581 1fa0 F0000000 		.4byte	.LVL206
 7582 1fa4 C32B0000 		.4byte	0x2bc3
 7583 1fa8 2C       		.uleb128 0x2c
 7584 1fa9 01       		.uleb128 0x1
 7585 1faa 50       		.byte	0x50
 7586 1fab 05       		.uleb128 0x5
 7587 1fac 03       		.byte	0x3
 7588 1fad 4C020000 		.4byte	.LC14
 7589 1fb1 00       		.byte	0
 7590 1fb2 00       		.byte	0
 7591 1fb3 38       		.uleb128 0x38
ARM GAS  C:\Users\jo\AppData\Local\Temp\ccnOsBUt.s 			page 136


 7592 1fb4 2C120000 		.4byte	0x122c
 7593 1fb8 04010000 		.4byte	.LBB149
 7594 1fbc 08000000 		.4byte	.LBE149-.LBB149
 7595 1fc0 01       		.byte	0x1
 7596 1fc1 0103     		.2byte	0x301
 7597 1fc3 E41F0000 		.4byte	0x1fe4
 7598 1fc7 28       		.uleb128 0x28
 7599 1fc8 39120000 		.4byte	0x1239
 7600 1fcc C5110000 		.4byte	.LLST62
 7601 1fd0 2E       		.uleb128 0x2e
 7602 1fd1 0A010000 		.4byte	.LVL210
 7603 1fd5 C32B0000 		.4byte	0x2bc3
 7604 1fd9 2C       		.uleb128 0x2c
 7605 1fda 01       		.uleb128 0x1
 7606 1fdb 50       		.byte	0x50
 7607 1fdc 05       		.uleb128 0x5
 7608 1fdd 03       		.byte	0x3
 7609 1fde A4020000 		.4byte	.LC15
 7610 1fe2 00       		.byte	0
 7611 1fe3 00       		.byte	0
 7612 1fe4 38       		.uleb128 0x38
 7613 1fe5 2C120000 		.4byte	0x122c
 7614 1fe9 1E010000 		.4byte	.LBB151
 7615 1fed 06000000 		.4byte	.LBE151-.LBB151
 7616 1ff1 01       		.byte	0x1
 7617 1ff2 0B03     		.2byte	0x30b
 7618 1ff4 15200000 		.4byte	0x2015
 7619 1ff8 28       		.uleb128 0x28
 7620 1ff9 39120000 		.4byte	0x1239
 7621 1ffd DD110000 		.4byte	.LLST63
 7622 2001 2E       		.uleb128 0x2e
 7623 2002 24010000 		.4byte	.LVL213
 7624 2006 C32B0000 		.4byte	0x2bc3
 7625 200a 2C       		.uleb128 0x2c
 7626 200b 01       		.uleb128 0x1
 7627 200c 50       		.byte	0x50
 7628 200d 05       		.uleb128 0x5
 7629 200e 03       		.byte	0x3
 7630 200f F8020000 		.4byte	.LC17
 7631 2013 00       		.byte	0
 7632 2014 00       		.byte	0
 7633 2015 38       		.uleb128 0x38
 7634 2016 2C120000 		.4byte	0x122c
 7635 201a 40010000 		.4byte	.LBB153
 7636 201e 08000000 		.4byte	.LBE153-.LBB153
 7637 2022 01       		.byte	0x1
 7638 2023 0A03     		.2byte	0x30a
 7639 2025 46200000 		.4byte	0x2046
 7640 2029 28       		.uleb128 0x28
 7641 202a 39120000 		.4byte	0x1239
 7642 202e F5110000 		.4byte	.LLST64
 7643 2032 2E       		.uleb128 0x2e
 7644 2033 46010000 		.4byte	.LVL218
 7645 2037 C32B0000 		.4byte	0x2bc3
 7646 203b 2C       		.uleb128 0x2c
 7647 203c 01       		.uleb128 0x1
 7648 203d 50       		.byte	0x50
ARM GAS  C:\Users\jo\AppData\Local\Temp\ccnOsBUt.s 			page 137


 7649 203e 05       		.uleb128 0x5
 7650 203f 03       		.byte	0x3
 7651 2040 E0020000 		.4byte	.LC16
 7652 2044 00       		.byte	0
 7653 2045 00       		.byte	0
 7654 2046 38       		.uleb128 0x38
 7655 2047 2C120000 		.4byte	0x122c
 7656 204b 60010000 		.4byte	.LBB155
 7657 204f 06000000 		.4byte	.LBE155-.LBB155
 7658 2053 01       		.byte	0x1
 7659 2054 2E03     		.2byte	0x32e
 7660 2056 77200000 		.4byte	0x2077
 7661 205a 28       		.uleb128 0x28
 7662 205b 39120000 		.4byte	0x1239
 7663 205f 0D120000 		.4byte	.LLST65
 7664 2063 2E       		.uleb128 0x2e
 7665 2064 66010000 		.4byte	.LVL222
 7666 2068 C32B0000 		.4byte	0x2bc3
 7667 206c 2C       		.uleb128 0x2c
 7668 206d 01       		.uleb128 0x1
 7669 206e 50       		.byte	0x50
 7670 206f 05       		.uleb128 0x5
 7671 2070 03       		.byte	0x3
 7672 2071 24030000 		.4byte	.LC18
 7673 2075 00       		.byte	0
 7674 2076 00       		.byte	0
 7675 2077 2B       		.uleb128 0x2b
 7676 2078 44000000 		.4byte	.LVL192
 7677 207c D42B0000 		.4byte	0x2bd4
 7678 2080 95200000 		.4byte	0x2095
 7679 2084 2C       		.uleb128 0x2c
 7680 2085 01       		.uleb128 0x1
 7681 2086 52       		.byte	0x52
 7682 2087 01       		.uleb128 0x1
 7683 2088 30       		.byte	0x30
 7684 2089 2C       		.uleb128 0x2c
 7685 208a 01       		.uleb128 0x1
 7686 208b 51       		.byte	0x51
 7687 208c 02       		.uleb128 0x2
 7688 208d 75       		.byte	0x75
 7689 208e 00       		.sleb128 0
 7690 208f 2C       		.uleb128 0x2c
 7691 2090 01       		.uleb128 0x1
 7692 2091 50       		.byte	0x50
 7693 2092 01       		.uleb128 0x1
 7694 2093 30       		.byte	0x30
 7695 2094 00       		.byte	0
 7696 2095 2B       		.uleb128 0x2b
 7697 2096 6A000000 		.4byte	.LVL194
 7698 209a DA120000 		.4byte	0x12da
 7699 209e CA200000 		.4byte	0x20ca
 7700 20a2 2C       		.uleb128 0x2c
 7701 20a3 01       		.uleb128 0x1
 7702 20a4 53       		.byte	0x53
 7703 20a5 02       		.uleb128 0x2
 7704 20a6 76       		.byte	0x76
 7705 20a7 00       		.sleb128 0
ARM GAS  C:\Users\jo\AppData\Local\Temp\ccnOsBUt.s 			page 138


 7706 20a8 2C       		.uleb128 0x2c
 7707 20a9 01       		.uleb128 0x1
 7708 20aa 52       		.byte	0x52
 7709 20ab 02       		.uleb128 0x2
 7710 20ac 78       		.byte	0x78
 7711 20ad 00       		.sleb128 0
 7712 20ae 2C       		.uleb128 0x2c
 7713 20af 01       		.uleb128 0x1
 7714 20b0 51       		.byte	0x51
 7715 20b1 02       		.uleb128 0x2
 7716 20b2 74       		.byte	0x74
 7717 20b3 1C       		.sleb128 28
 7718 20b4 2C       		.uleb128 0x2c
 7719 20b5 01       		.uleb128 0x1
 7720 20b6 50       		.byte	0x50
 7721 20b7 02       		.uleb128 0x2
 7722 20b8 74       		.byte	0x74
 7723 20b9 1A       		.sleb128 26
 7724 20ba 2C       		.uleb128 0x2c
 7725 20bb 02       		.uleb128 0x2
 7726 20bc 7D       		.byte	0x7d
 7727 20bd 04       		.sleb128 4
 7728 20be 02       		.uleb128 0x2
 7729 20bf 79       		.byte	0x79
 7730 20c0 00       		.sleb128 0
 7731 20c1 47       		.uleb128 0x47
 7732 20c2 E0110000 		.4byte	0x11e0
 7733 20c6 02       		.uleb128 0x2
 7734 20c7 74       		.byte	0x74
 7735 20c8 00       		.sleb128 0
 7736 20c9 00       		.byte	0
 7737 20ca 2D       		.uleb128 0x2d
 7738 20cb B0000000 		.4byte	.LVL199
 7739 20cf F32B0000 		.4byte	0x2bf3
 7740 20d3 2B       		.uleb128 0x2b
 7741 20d4 EA000000 		.4byte	.LVL205
 7742 20d8 FF130000 		.4byte	0x13ff
 7743 20dc 04210000 		.4byte	0x2104
 7744 20e0 2C       		.uleb128 0x2c
 7745 20e1 01       		.uleb128 0x1
 7746 20e2 53       		.byte	0x53
 7747 20e3 03       		.uleb128 0x3
 7748 20e4 0A       		.byte	0xa
 7749 20e5 DC02     		.2byte	0x2dc
 7750 20e7 2C       		.uleb128 0x2c
 7751 20e8 01       		.uleb128 0x1
 7752 20e9 52       		.byte	0x52
 7753 20ea 05       		.uleb128 0x5
 7754 20eb 03       		.byte	0x3
 7755 20ec 4C020000 		.4byte	.LC14
 7756 20f0 2C       		.uleb128 0x2c
 7757 20f1 01       		.uleb128 0x1
 7758 20f2 51       		.byte	0x51
 7759 20f3 05       		.uleb128 0x5
 7760 20f4 03       		.byte	0x3
 7761 20f5 00000000 		.4byte	.LC0
 7762 20f9 2C       		.uleb128 0x2c
ARM GAS  C:\Users\jo\AppData\Local\Temp\ccnOsBUt.s 			page 139


 7763 20fa 02       		.uleb128 0x2
 7764 20fb 7D       		.byte	0x7d
 7765 20fc 00       		.sleb128 0
 7766 20fd 05       		.uleb128 0x5
 7767 20fe 03       		.byte	0x3
 7768 20ff 58000000 		.4byte	.LC2
 7769 2103 00       		.byte	0
 7770 2104 2B       		.uleb128 0x2b
 7771 2105 04010000 		.4byte	.LVL209
 7772 2109 FF130000 		.4byte	0x13ff
 7773 210d 35210000 		.4byte	0x2135
 7774 2111 2C       		.uleb128 0x2c
 7775 2112 01       		.uleb128 0x1
 7776 2113 53       		.byte	0x53
 7777 2114 03       		.uleb128 0x3
 7778 2115 0A       		.byte	0xa
 7779 2116 0203     		.2byte	0x302
 7780 2118 2C       		.uleb128 0x2c
 7781 2119 01       		.uleb128 0x1
 7782 211a 52       		.byte	0x52
 7783 211b 05       		.uleb128 0x5
 7784 211c 03       		.byte	0x3
 7785 211d A4020000 		.4byte	.LC15
 7786 2121 2C       		.uleb128 0x2c
 7787 2122 01       		.uleb128 0x1
 7788 2123 51       		.byte	0x51
 7789 2124 05       		.uleb128 0x5
 7790 2125 03       		.byte	0x3
 7791 2126 00000000 		.4byte	.LC0
 7792 212a 2C       		.uleb128 0x2c
 7793 212b 02       		.uleb128 0x2
 7794 212c 7D       		.byte	0x7d
 7795 212d 00       		.sleb128 0
 7796 212e 05       		.uleb128 0x5
 7797 212f 03       		.byte	0x3
 7798 2130 58000000 		.4byte	.LC2
 7799 2134 00       		.byte	0
 7800 2135 2B       		.uleb128 0x2b
 7801 2136 1E010000 		.4byte	.LVL212
 7802 213a FF130000 		.4byte	0x13ff
 7803 213e 66210000 		.4byte	0x2166
 7804 2142 2C       		.uleb128 0x2c
 7805 2143 01       		.uleb128 0x1
 7806 2144 53       		.byte	0x53
 7807 2145 03       		.uleb128 0x3
 7808 2146 0A       		.byte	0xa
 7809 2147 0B03     		.2byte	0x30b
 7810 2149 2C       		.uleb128 0x2c
 7811 214a 01       		.uleb128 0x1
 7812 214b 52       		.byte	0x52
 7813 214c 05       		.uleb128 0x5
 7814 214d 03       		.byte	0x3
 7815 214e F8020000 		.4byte	.LC17
 7816 2152 2C       		.uleb128 0x2c
 7817 2153 01       		.uleb128 0x1
 7818 2154 51       		.byte	0x51
 7819 2155 05       		.uleb128 0x5
ARM GAS  C:\Users\jo\AppData\Local\Temp\ccnOsBUt.s 			page 140


 7820 2156 03       		.byte	0x3
 7821 2157 00000000 		.4byte	.LC0
 7822 215b 2C       		.uleb128 0x2c
 7823 215c 02       		.uleb128 0x2
 7824 215d 7D       		.byte	0x7d
 7825 215e 00       		.sleb128 0
 7826 215f 05       		.uleb128 0x5
 7827 2160 03       		.byte	0x3
 7828 2161 58000000 		.4byte	.LC2
 7829 2165 00       		.byte	0
 7830 2166 2B       		.uleb128 0x2b
 7831 2167 40010000 		.4byte	.LVL217
 7832 216b FF130000 		.4byte	0x13ff
 7833 216f 97210000 		.4byte	0x2197
 7834 2173 2C       		.uleb128 0x2c
 7835 2174 01       		.uleb128 0x1
 7836 2175 53       		.byte	0x53
 7837 2176 03       		.uleb128 0x3
 7838 2177 0A       		.byte	0xa
 7839 2178 0A03     		.2byte	0x30a
 7840 217a 2C       		.uleb128 0x2c
 7841 217b 01       		.uleb128 0x1
 7842 217c 52       		.byte	0x52
 7843 217d 05       		.uleb128 0x5
 7844 217e 03       		.byte	0x3
 7845 217f E0020000 		.4byte	.LC16
 7846 2183 2C       		.uleb128 0x2c
 7847 2184 01       		.uleb128 0x1
 7848 2185 51       		.byte	0x51
 7849 2186 05       		.uleb128 0x5
 7850 2187 03       		.byte	0x3
 7851 2188 00000000 		.4byte	.LC0
 7852 218c 2C       		.uleb128 0x2c
 7853 218d 02       		.uleb128 0x2
 7854 218e 7D       		.byte	0x7d
 7855 218f 00       		.sleb128 0
 7856 2190 05       		.uleb128 0x5
 7857 2191 03       		.byte	0x3
 7858 2192 58000000 		.4byte	.LC2
 7859 2196 00       		.byte	0
 7860 2197 2E       		.uleb128 0x2e
 7861 2198 60010000 		.4byte	.LVL221
 7862 219c FF130000 		.4byte	0x13ff
 7863 21a0 2C       		.uleb128 0x2c
 7864 21a1 01       		.uleb128 0x1
 7865 21a2 53       		.byte	0x53
 7866 21a3 03       		.uleb128 0x3
 7867 21a4 0A       		.byte	0xa
 7868 21a5 2F03     		.2byte	0x32f
 7869 21a7 2C       		.uleb128 0x2c
 7870 21a8 01       		.uleb128 0x1
 7871 21a9 52       		.byte	0x52
 7872 21aa 05       		.uleb128 0x5
 7873 21ab 03       		.byte	0x3
 7874 21ac 24030000 		.4byte	.LC18
 7875 21b0 2C       		.uleb128 0x2c
 7876 21b1 01       		.uleb128 0x1
ARM GAS  C:\Users\jo\AppData\Local\Temp\ccnOsBUt.s 			page 141


 7877 21b2 51       		.byte	0x51
 7878 21b3 05       		.uleb128 0x5
 7879 21b4 03       		.byte	0x3
 7880 21b5 00000000 		.4byte	.LC0
 7881 21b9 2C       		.uleb128 0x2c
 7882 21ba 02       		.uleb128 0x2
 7883 21bb 7D       		.byte	0x7d
 7884 21bc 00       		.sleb128 0
 7885 21bd 05       		.uleb128 0x5
 7886 21be 03       		.byte	0x3
 7887 21bf 58000000 		.4byte	.LC2
 7888 21c3 00       		.byte	0
 7889 21c4 00       		.byte	0
 7890 21c5 4A       		.uleb128 0x4a
 7891 21c6 E4070000 		.4byte	.LASF295
 7892 21ca 01       		.byte	0x1
 7893 21cb 7D       		.byte	0x7d
 7894 21cc A2080000 		.4byte	0x8a2
 7895 21d0 00000000 		.4byte	.LFB257
 7896 21d4 46000000 		.4byte	.LFE257-.LFB257
 7897 21d8 01       		.uleb128 0x1
 7898 21d9 9C       		.byte	0x9c
 7899 21da 35220000 		.4byte	0x2235
 7900 21de 35       		.uleb128 0x35
 7901 21df 70636200 		.ascii	"pcb\000"
 7902 21e3 01       		.byte	0x1
 7903 21e4 7D       		.byte	0x7d
 7904 21e5 0E0B0000 		.4byte	0xb0e
 7905 21e9 25120000 		.4byte	.LLST66
 7906 21ed 45       		.uleb128 0x45
 7907 21ee 18010000 		.4byte	.Ldebug_ranges0+0x118
 7908 21f2 1E220000 		.4byte	0x221e
 7909 21f6 37       		.uleb128 0x37
 7910 21f7 60050000 		.4byte	.LASF281
 7911 21fb 01       		.byte	0x1
 7912 21fc 81       		.byte	0x81
 7913 21fd 0C0F0000 		.4byte	0xf0c
 7914 2201 67120000 		.4byte	.LLST67
 7915 2205 2D       		.uleb128 0x2d
 7916 2206 1A000000 		.4byte	.LVL230
 7917 220a 4D2C0000 		.4byte	0x2c4d
 7918 220e 2E       		.uleb128 0x2e
 7919 220f 36000000 		.4byte	.LVL235
 7920 2213 532B0000 		.4byte	0x2b53
 7921 2217 2C       		.uleb128 0x2c
 7922 2218 01       		.uleb128 0x1
 7923 2219 50       		.byte	0x50
 7924 221a 01       		.uleb128 0x1
 7925 221b 31       		.byte	0x31
 7926 221c 00       		.byte	0
 7927 221d 00       		.byte	0
 7928 221e 4B       		.uleb128 0x4b
 7929 221f 2C000000 		.4byte	.LVL233
 7930 2223 EF1E0000 		.4byte	0x1eef
 7931 2227 2C       		.uleb128 0x2c
 7932 2228 01       		.uleb128 0x1
 7933 2229 51       		.byte	0x51
ARM GAS  C:\Users\jo\AppData\Local\Temp\ccnOsBUt.s 			page 142


 7934 222a 01       		.uleb128 0x1
 7935 222b 31       		.byte	0x31
 7936 222c 2C       		.uleb128 0x2c
 7937 222d 01       		.uleb128 0x1
 7938 222e 50       		.byte	0x50
 7939 222f 03       		.uleb128 0x3
 7940 2230 F3       		.byte	0xf3
 7941 2231 01       		.uleb128 0x1
 7942 2232 50       		.byte	0x50
 7943 2233 00       		.byte	0
 7944 2234 00       		.byte	0
 7945 2235 3B       		.uleb128 0x3b
 7946 2236 2B090000 		.4byte	.LASF296
 7947 223a 01       		.byte	0x1
 7948 223b 4A03     		.2byte	0x34a
 7949 223d A2080000 		.4byte	0x8a2
 7950 2241 00000000 		.4byte	.LFB263
 7951 2245 5C000000 		.4byte	.LFE263-.LFB263
 7952 2249 01       		.uleb128 0x1
 7953 224a 9C       		.byte	0x9c
 7954 224b 08230000 		.4byte	0x2308
 7955 224f 3C       		.uleb128 0x3c
 7956 2250 70636200 		.ascii	"pcb\000"
 7957 2254 01       		.byte	0x1
 7958 2255 4A03     		.2byte	0x34a
 7959 2257 0E0B0000 		.4byte	0xb0e
 7960 225b 85120000 		.4byte	.LLST68
 7961 225f 3F       		.uleb128 0x3f
 7962 2260 7000     		.ascii	"p\000"
 7963 2262 01       		.byte	0x1
 7964 2263 4C03     		.2byte	0x34c
 7965 2265 66090000 		.4byte	0x966
 7966 2269 A3120000 		.4byte	.LLST69
 7967 226d 3E       		.uleb128 0x3e
 7968 226e 9B0A0000 		.4byte	.LASF216
 7969 2272 01       		.byte	0x1
 7970 2273 4D03     		.2byte	0x34d
 7971 2275 7F0F0000 		.4byte	0xf7f
 7972 2279 CC120000 		.4byte	.LLST70
 7973 227d 40       		.uleb128 0x40
 7974 227e E60A0000 		.4byte	.LASF264
 7975 2282 01       		.byte	0x1
 7976 2283 4E03     		.2byte	0x34e
 7977 2285 4A080000 		.4byte	0x84a
 7978 2289 00       		.byte	0
 7979 228a 2D       		.uleb128 0x2d
 7980 228b 0C000000 		.4byte	.LVL238
 7981 228f 682B0000 		.4byte	0x2b68
 7982 2293 2B       		.uleb128 0x2b
 7983 2294 16000000 		.4byte	.LVL239
 7984 2298 5E140000 		.4byte	0x145e
 7985 229c AC220000 		.4byte	0x22ac
 7986 22a0 2C       		.uleb128 0x2c
 7987 22a1 01       		.uleb128 0x1
 7988 22a2 51       		.byte	0x51
 7989 22a3 01       		.uleb128 0x1
 7990 22a4 30       		.byte	0x30
ARM GAS  C:\Users\jo\AppData\Local\Temp\ccnOsBUt.s 			page 143


 7991 22a5 2C       		.uleb128 0x2c
 7992 22a6 01       		.uleb128 0x1
 7993 22a7 50       		.byte	0x50
 7994 22a8 02       		.uleb128 0x2
 7995 22a9 74       		.byte	0x74
 7996 22aa 00       		.sleb128 0
 7997 22ab 00       		.byte	0
 7998 22ac 2B       		.uleb128 0x2b
 7999 22ad 34000000 		.4byte	.LVL241
 8000 22b1 622C0000 		.4byte	0x2c62
 8001 22b5 D1220000 		.4byte	0x22d1
 8002 22b9 2C       		.uleb128 0x2c
 8003 22ba 01       		.uleb128 0x1
 8004 22bb 53       		.byte	0x53
 8005 22bc 01       		.uleb128 0x1
 8006 22bd 36       		.byte	0x36
 8007 22be 2C       		.uleb128 0x2c
 8008 22bf 01       		.uleb128 0x1
 8009 22c0 52       		.byte	0x52
 8010 22c1 02       		.uleb128 0x2
 8011 22c2 76       		.byte	0x76
 8012 22c3 00       		.sleb128 0
 8013 22c4 2C       		.uleb128 0x2c
 8014 22c5 01       		.uleb128 0x1
 8015 22c6 51       		.byte	0x51
 8016 22c7 02       		.uleb128 0x2
 8017 22c8 74       		.byte	0x74
 8018 22c9 00       		.sleb128 0
 8019 22ca 2C       		.uleb128 0x2c
 8020 22cb 01       		.uleb128 0x1
 8021 22cc 50       		.byte	0x50
 8022 22cd 02       		.uleb128 0x2
 8023 22ce 75       		.byte	0x75
 8024 22cf 00       		.sleb128 0
 8025 22d0 00       		.byte	0
 8026 22d1 2B       		.uleb128 0x2b
 8027 22d2 4A000000 		.4byte	.LVL242
 8028 22d6 8B2C0000 		.4byte	0x2c8b
 8029 22da F7220000 		.4byte	0x22f7
 8030 22de 2C       		.uleb128 0x2c
 8031 22df 01       		.uleb128 0x1
 8032 22e0 52       		.byte	0x52
 8033 22e1 02       		.uleb128 0x2
 8034 22e2 76       		.byte	0x76
 8035 22e3 00       		.sleb128 0
 8036 22e4 2C       		.uleb128 0x2c
 8037 22e5 01       		.uleb128 0x1
 8038 22e6 51       		.byte	0x51
 8039 22e7 02       		.uleb128 0x2
 8040 22e8 74       		.byte	0x74
 8041 22e9 00       		.sleb128 0
 8042 22ea 2C       		.uleb128 0x2c
 8043 22eb 01       		.uleb128 0x1
 8044 22ec 50       		.byte	0x50
 8045 22ed 02       		.uleb128 0x2
 8046 22ee 75       		.byte	0x75
 8047 22ef 00       		.sleb128 0
ARM GAS  C:\Users\jo\AppData\Local\Temp\ccnOsBUt.s 			page 144


 8048 22f0 2C       		.uleb128 0x2c
 8049 22f1 02       		.uleb128 0x2
 8050 22f2 7D       		.byte	0x7d
 8051 22f3 04       		.sleb128 4
 8052 22f4 01       		.uleb128 0x1
 8053 22f5 36       		.byte	0x36
 8054 22f6 00       		.byte	0
 8055 22f7 2E       		.uleb128 0x2e
 8056 22f8 50000000 		.4byte	.LVL243
 8057 22fc 8F2B0000 		.4byte	0x2b8f
 8058 2300 2C       		.uleb128 0x2c
 8059 2301 01       		.uleb128 0x1
 8060 2302 50       		.byte	0x50
 8061 2303 02       		.uleb128 0x2
 8062 2304 75       		.byte	0x75
 8063 2305 00       		.sleb128 0
 8064 2306 00       		.byte	0
 8065 2307 00       		.byte	0
 8066 2308 24       		.uleb128 0x24
 8067 2309 84040000 		.4byte	.LASF298
 8068 230d 01       		.byte	0x1
 8069 230e 1904     		.2byte	0x419
 8070 2310 01       		.byte	0x1
 8071 2311 60230000 		.4byte	0x2360
 8072 2315 3A       		.uleb128 0x3a
 8073 2316 73656700 		.ascii	"seg\000"
 8074 231a 01       		.byte	0x1
 8075 231b 1904     		.2byte	0x419
 8076 231d 0C0F0000 		.4byte	0xf0c
 8077 2321 3A       		.uleb128 0x3a
 8078 2322 70636200 		.ascii	"pcb\000"
 8079 2326 01       		.byte	0x1
 8080 2327 1904     		.2byte	0x419
 8081 2329 0E0B0000 		.4byte	0xb0e
 8082 232d 42       		.uleb128 0x42
 8083 232e 6C656E00 		.ascii	"len\000"
 8084 2332 01       		.byte	0x1
 8085 2333 1B04     		.2byte	0x41b
 8086 2335 60080000 		.4byte	0x860
 8087 2339 46       		.uleb128 0x46
 8088 233a FB0B0000 		.4byte	.LASF139
 8089 233e 01       		.byte	0x1
 8090 233f 1C04     		.2byte	0x41c
 8091 2341 90090000 		.4byte	0x990
 8092 2345 46       		.uleb128 0x46
 8093 2346 F9090000 		.4byte	.LASF299
 8094 234a 01       		.byte	0x1
 8095 234b 1D04     		.2byte	0x41d
 8096 234d 60230000 		.4byte	0x2360
 8097 2351 4C       		.uleb128 0x4c
 8098 2352 42       		.uleb128 0x42
 8099 2353 6D737300 		.ascii	"mss\000"
 8100 2357 01       		.byte	0x1
 8101 2358 2F04     		.2byte	0x42f
 8102 235a 60080000 		.4byte	0x860
 8103 235e 00       		.byte	0
 8104 235f 00       		.byte	0
ARM GAS  C:\Users\jo\AppData\Local\Temp\ccnOsBUt.s 			page 145


 8105 2360 0B       		.uleb128 0xb
 8106 2361 04       		.byte	0x4
 8107 2362 76080000 		.4byte	0x876
 8108 2366 3B       		.uleb128 0x3b
 8109 2367 DE040000 		.4byte	.LASF300
 8110 236b 01       		.byte	0x1
 8111 236c 8203     		.2byte	0x382
 8112 236e A2080000 		.4byte	0x8a2
 8113 2372 00000000 		.4byte	.LFB264
 8114 2376 3C030000 		.4byte	.LFE264-.LFB264
 8115 237a 01       		.uleb128 0x1
 8116 237b 9C       		.byte	0x9c
 8117 237c 32260000 		.4byte	0x2632
 8118 2380 3C       		.uleb128 0x3c
 8119 2381 70636200 		.ascii	"pcb\000"
 8120 2385 01       		.byte	0x1
 8121 2386 8203     		.2byte	0x382
 8122 2388 0E0B0000 		.4byte	0xb0e
 8123 238c DF120000 		.4byte	.LLST71
 8124 2390 3F       		.uleb128 0x3f
 8125 2391 73656700 		.ascii	"seg\000"
 8126 2395 01       		.byte	0x1
 8127 2396 8403     		.2byte	0x384
 8128 2398 0C0F0000 		.4byte	0xf0c
 8129 239c 2C130000 		.4byte	.LLST72
 8130 23a0 3E       		.uleb128 0x3e
 8131 23a1 23040000 		.4byte	.LASF294
 8132 23a5 01       		.byte	0x1
 8133 23a6 8403     		.2byte	0x384
 8134 23a8 0C0F0000 		.4byte	0xf0c
 8135 23ac 4A130000 		.4byte	.LLST73
 8136 23b0 3F       		.uleb128 0x3f
 8137 23b1 776E6400 		.ascii	"wnd\000"
 8138 23b5 01       		.byte	0x1
 8139 23b6 8503     		.2byte	0x385
 8140 23b8 76080000 		.4byte	0x876
 8141 23bc A2130000 		.4byte	.LLST74
 8142 23c0 3E       		.uleb128 0x3e
 8143 23c1 B7090000 		.4byte	.LASF176
 8144 23c5 01       		.byte	0x1
 8145 23c6 8503     		.2byte	0x385
 8146 23c8 76080000 		.4byte	0x876
 8147 23cc C0130000 		.4byte	.LLST75
 8148 23d0 44       		.uleb128 0x44
 8149 23d1 08230000 		.4byte	0x2308
 8150 23d5 A8000000 		.4byte	.LBB167
 8151 23d9 30010000 		.4byte	.Ldebug_ranges0+0x130
 8152 23dd 01       		.byte	0x1
 8153 23de E103     		.2byte	0x3e1
 8154 23e0 BD240000 		.4byte	0x24bd
 8155 23e4 28       		.uleb128 0x28
 8156 23e5 21230000 		.4byte	0x2321
 8157 23e9 D3130000 		.4byte	.LLST76
 8158 23ed 28       		.uleb128 0x28
 8159 23ee 15230000 		.4byte	0x2315
 8160 23f2 FC130000 		.4byte	.LLST77
 8161 23f6 4D       		.uleb128 0x4d
ARM GAS  C:\Users\jo\AppData\Local\Temp\ccnOsBUt.s 			page 146


 8162 23f7 30010000 		.4byte	.Ldebug_ranges0+0x130
 8163 23fb 2A       		.uleb128 0x2a
 8164 23fc 2D230000 		.4byte	0x232d
 8165 2400 32140000 		.4byte	.LLST78
 8166 2404 2A       		.uleb128 0x2a
 8167 2405 39230000 		.4byte	0x2339
 8168 2409 45140000 		.4byte	.LLST79
 8169 240d 2A       		.uleb128 0x2a
 8170 240e 45230000 		.4byte	0x2345
 8171 2412 58140000 		.4byte	.LLST80
 8172 2416 45       		.uleb128 0x45
 8173 2417 48010000 		.4byte	.Ldebug_ranges0+0x148
 8174 241b 4D240000 		.4byte	0x244d
 8175 241f 2A       		.uleb128 0x2a
 8176 2420 52230000 		.4byte	0x2352
 8177 2424 87140000 		.4byte	.LLST81
 8178 2428 2B       		.uleb128 0x2b
 8179 2429 1A020000 		.4byte	.LVL283
 8180 242d B92C0000 		.4byte	0x2cb9
 8181 2431 43240000 		.4byte	0x2443
 8182 2435 2C       		.uleb128 0x2c
 8183 2436 01       		.uleb128 0x1
 8184 2437 51       		.byte	0x51
 8185 2438 02       		.uleb128 0x2
 8186 2439 76       		.byte	0x76
 8187 243a 00       		.sleb128 0
 8188 243b 2C       		.uleb128 0x2c
 8189 243c 01       		.uleb128 0x1
 8190 243d 50       		.byte	0x50
 8191 243e 03       		.uleb128 0x3
 8192 243f 0A       		.byte	0xa
 8193 2440 B405     		.2byte	0x5b4
 8194 2442 00       		.byte	0
 8195 2443 2D       		.uleb128 0x2d
 8196 2444 22020000 		.4byte	.LVL285
 8197 2448 682B0000 		.4byte	0x2b68
 8198 244c 00       		.byte	0
 8199 244d 2D       		.uleb128 0x2d
 8200 244e B0000000 		.4byte	.LVL254
 8201 2452 682B0000 		.4byte	0x2b68
 8202 2456 2D       		.uleb128 0x2d
 8203 2457 BA000000 		.4byte	.LVL255
 8204 245b 532B0000 		.4byte	0x2b53
 8205 245f 2B       		.uleb128 0x2b
 8206 2460 E8000000 		.4byte	.LVL258
 8207 2464 D42C0000 		.4byte	0x2cd4
 8208 2468 73240000 		.4byte	0x2473
 8209 246c 2C       		.uleb128 0x2c
 8210 246d 01       		.uleb128 0x1
 8211 246e 50       		.byte	0x50
 8212 246f 02       		.uleb128 0x2
 8213 2470 76       		.byte	0x76
 8214 2471 00       		.sleb128 0
 8215 2472 00       		.byte	0
 8216 2473 2B       		.uleb128 0x2b
 8217 2474 2E010000 		.4byte	.LVL262
 8218 2478 622C0000 		.4byte	0x2c62
ARM GAS  C:\Users\jo\AppData\Local\Temp\ccnOsBUt.s 			page 147


 8219 247c 92240000 		.4byte	0x2492
 8220 2480 2C       		.uleb128 0x2c
 8221 2481 01       		.uleb128 0x1
 8222 2482 53       		.byte	0x53
 8223 2483 01       		.uleb128 0x1
 8224 2484 36       		.byte	0x36
 8225 2485 2C       		.uleb128 0x2c
 8226 2486 01       		.uleb128 0x1
 8227 2487 52       		.byte	0x52
 8228 2488 02       		.uleb128 0x2
 8229 2489 76       		.byte	0x76
 8230 248a 00       		.sleb128 0
 8231 248b 2C       		.uleb128 0x2c
 8232 248c 01       		.uleb128 0x1
 8233 248d 51       		.byte	0x51
 8234 248e 02       		.uleb128 0x2
 8235 248f 74       		.byte	0x74
 8236 2490 00       		.sleb128 0
 8237 2491 00       		.byte	0
 8238 2492 2B       		.uleb128 0x2b
 8239 2493 52010000 		.4byte	.LVL263
 8240 2497 8B2C0000 		.4byte	0x2c8b
 8241 249b B2240000 		.4byte	0x24b2
 8242 249f 2C       		.uleb128 0x2c
 8243 24a0 01       		.uleb128 0x1
 8244 24a1 52       		.byte	0x52
 8245 24a2 02       		.uleb128 0x2
 8246 24a3 76       		.byte	0x76
 8247 24a4 00       		.sleb128 0
 8248 24a5 2C       		.uleb128 0x2c
 8249 24a6 01       		.uleb128 0x1
 8250 24a7 51       		.byte	0x51
 8251 24a8 02       		.uleb128 0x2
 8252 24a9 74       		.byte	0x74
 8253 24aa 00       		.sleb128 0
 8254 24ab 2C       		.uleb128 0x2c
 8255 24ac 02       		.uleb128 0x2
 8256 24ad 7D       		.byte	0x7d
 8257 24ae 04       		.sleb128 4
 8258 24af 01       		.uleb128 0x1
 8259 24b0 36       		.byte	0x36
 8260 24b1 00       		.byte	0
 8261 24b2 2D       		.uleb128 0x2d
 8262 24b3 44020000 		.4byte	.LVL288
 8263 24b7 E92C0000 		.4byte	0x2ce9
 8264 24bb 00       		.byte	0
 8265 24bc 00       		.byte	0
 8266 24bd 38       		.uleb128 0x38
 8267 24be 2C120000 		.4byte	0x122c
 8268 24c2 F8010000 		.4byte	.LBB173
 8269 24c6 08000000 		.4byte	.LBE173-.LBB173
 8270 24ca 01       		.byte	0x1
 8271 24cb C403     		.2byte	0x3c4
 8272 24cd EE240000 		.4byte	0x24ee
 8273 24d1 28       		.uleb128 0x28
 8274 24d2 39120000 		.4byte	0x1239
 8275 24d6 9A140000 		.4byte	.LLST82
ARM GAS  C:\Users\jo\AppData\Local\Temp\ccnOsBUt.s 			page 148


 8276 24da 2E       		.uleb128 0x2e
 8277 24db FE010000 		.4byte	.LVL278
 8278 24df C32B0000 		.4byte	0x2bc3
 8279 24e3 2C       		.uleb128 0x2c
 8280 24e4 01       		.uleb128 0x1
 8281 24e5 50       		.byte	0x50
 8282 24e6 05       		.uleb128 0x5
 8283 24e7 03       		.byte	0x3
 8284 24e8 74030000 		.4byte	.LC20
 8285 24ec 00       		.byte	0
 8286 24ed 00       		.byte	0
 8287 24ee 49       		.uleb128 0x49
 8288 24ef 68020000 		.4byte	.LBB176
 8289 24f3 36000000 		.4byte	.LBE176-.LBB176
 8290 24f7 1E250000 		.4byte	0x251e
 8291 24fb 3E       		.uleb128 0x3e
 8292 24fc 870D0000 		.4byte	.LASF301
 8293 2500 01       		.byte	0x1
 8294 2501 F403     		.2byte	0x3f4
 8295 2503 32260000 		.4byte	0x2632
 8296 2507 B2140000 		.4byte	.LLST83
 8297 250b 2D       		.uleb128 0x2d
 8298 250c 84020000 		.4byte	.LVL297
 8299 2510 E92C0000 		.4byte	0x2ce9
 8300 2514 2D       		.uleb128 0x2d
 8301 2515 8E020000 		.4byte	.LVL298
 8302 2519 E92C0000 		.4byte	0x2ce9
 8303 251d 00       		.byte	0
 8304 251e 38       		.uleb128 0x38
 8305 251f 2C120000 		.4byte	0x122c
 8306 2523 22030000 		.4byte	.LBB177
 8307 2527 1A000000 		.4byte	.LBE177-.LBB177
 8308 252b 01       		.byte	0x1
 8309 252c 8B03     		.2byte	0x38b
 8310 252e 52250000 		.4byte	0x2552
 8311 2532 29       		.uleb128 0x29
 8312 2533 39120000 		.4byte	0x1239
 8313 2537 06       		.uleb128 0x6
 8314 2538 03       		.byte	0x3
 8315 2539 4C030000 		.4byte	.LC19
 8316 253d 9F       		.byte	0x9f
 8317 253e 2E       		.uleb128 0x2e
 8318 253f 28030000 		.4byte	.LVL308
 8319 2543 C32B0000 		.4byte	0x2bc3
 8320 2547 2C       		.uleb128 0x2c
 8321 2548 01       		.uleb128 0x1
 8322 2549 50       		.byte	0x50
 8323 254a 05       		.uleb128 0x5
 8324 254b 03       		.byte	0x3
 8325 254c 4C030000 		.4byte	.LC19
 8326 2550 00       		.byte	0
 8327 2551 00       		.byte	0
 8328 2552 2D       		.uleb128 0x2d
 8329 2553 40000000 		.4byte	.LVL250
 8330 2557 E92C0000 		.4byte	0x2ce9
 8331 255b 2B       		.uleb128 0x2b
 8332 255c 9A000000 		.4byte	.LVL252
ARM GAS  C:\Users\jo\AppData\Local\Temp\ccnOsBUt.s 			page 149


 8333 2560 532B0000 		.4byte	0x2b53
 8334 2564 6E250000 		.4byte	0x256e
 8335 2568 2C       		.uleb128 0x2c
 8336 2569 01       		.uleb128 0x1
 8337 256a 50       		.byte	0x50
 8338 256b 01       		.uleb128 0x1
 8339 256c 40       		.byte	0x40
 8340 256d 00       		.byte	0
 8341 256e 2D       		.uleb128 0x2d
 8342 256f 5A010000 		.4byte	.LVL264
 8343 2573 E92C0000 		.4byte	0x2ce9
 8344 2577 2D       		.uleb128 0x2d
 8345 2578 68010000 		.4byte	.LVL265
 8346 257c 4D2C0000 		.4byte	0x2c4d
 8347 2580 2D       		.uleb128 0x2d
 8348 2581 88010000 		.4byte	.LVL268
 8349 2585 4D2C0000 		.4byte	0x2c4d
 8350 2589 2D       		.uleb128 0x2d
 8351 258a A8010000 		.4byte	.LVL269
 8352 258e E92C0000 		.4byte	0x2ce9
 8353 2592 2D       		.uleb128 0x2d
 8354 2593 B2010000 		.4byte	.LVL270
 8355 2597 E92C0000 		.4byte	0x2ce9
 8356 259b 2D       		.uleb128 0x2d
 8357 259c CA010000 		.4byte	.LVL275
 8358 25a0 E92C0000 		.4byte	0x2ce9
 8359 25a4 2D       		.uleb128 0x2d
 8360 25a5 E0010000 		.4byte	.LVL276
 8361 25a9 4D2C0000 		.4byte	0x2c4d
 8362 25ad 2B       		.uleb128 0x2b
 8363 25ae F8010000 		.4byte	.LVL277
 8364 25b2 FF130000 		.4byte	0x13ff
 8365 25b6 DB250000 		.4byte	0x25db
 8366 25ba 2C       		.uleb128 0x2c
 8367 25bb 01       		.uleb128 0x1
 8368 25bc 53       		.byte	0x53
 8369 25bd 03       		.uleb128 0x3
 8370 25be 0A       		.byte	0xa
 8371 25bf C503     		.2byte	0x3c5
 8372 25c1 2C       		.uleb128 0x2c
 8373 25c2 01       		.uleb128 0x1
 8374 25c3 52       		.byte	0x52
 8375 25c4 05       		.uleb128 0x5
 8376 25c5 03       		.byte	0x3
 8377 25c6 74030000 		.4byte	.LC20
 8378 25ca 2C       		.uleb128 0x2c
 8379 25cb 01       		.uleb128 0x1
 8380 25cc 51       		.byte	0x51
 8381 25cd 05       		.uleb128 0x5
 8382 25ce 03       		.byte	0x3
 8383 25cf 00000000 		.4byte	.LC0
 8384 25d3 2C       		.uleb128 0x2c
 8385 25d4 02       		.uleb128 0x2
 8386 25d5 7D       		.byte	0x7d
 8387 25d6 00       		.sleb128 0
 8388 25d7 02       		.uleb128 0x2
 8389 25d8 79       		.byte	0x79
ARM GAS  C:\Users\jo\AppData\Local\Temp\ccnOsBUt.s 			page 150


 8390 25d9 00       		.sleb128 0
 8391 25da 00       		.byte	0
 8392 25db 2B       		.uleb128 0x2b
 8393 25dc A6020000 		.4byte	.LVL300
 8394 25e0 7D2B0000 		.4byte	0x2b7d
 8395 25e4 EF250000 		.4byte	0x25ef
 8396 25e8 2C       		.uleb128 0x2c
 8397 25e9 01       		.uleb128 0x1
 8398 25ea 50       		.byte	0x50
 8399 25eb 02       		.uleb128 0x2
 8400 25ec 75       		.byte	0x75
 8401 25ed 00       		.sleb128 0
 8402 25ee 00       		.byte	0
 8403 25ef 4E       		.uleb128 0x4e
 8404 25f0 10030000 		.4byte	.LVL305
 8405 25f4 35220000 		.4byte	0x2235
 8406 25f8 04260000 		.4byte	0x2604
 8407 25fc 2C       		.uleb128 0x2c
 8408 25fd 01       		.uleb128 0x1
 8409 25fe 50       		.byte	0x50
 8410 25ff 03       		.uleb128 0x3
 8411 2600 F3       		.byte	0xf3
 8412 2601 01       		.uleb128 0x1
 8413 2602 50       		.byte	0x50
 8414 2603 00       		.byte	0
 8415 2604 2E       		.uleb128 0x2e
 8416 2605 22030000 		.4byte	.LVL307
 8417 2609 FF130000 		.4byte	0x13ff
 8418 260d 2C       		.uleb128 0x2c
 8419 260e 01       		.uleb128 0x1
 8420 260f 53       		.byte	0x53
 8421 2610 03       		.uleb128 0x3
 8422 2611 0A       		.byte	0xa
 8423 2612 8C03     		.2byte	0x38c
 8424 2614 2C       		.uleb128 0x2c
 8425 2615 01       		.uleb128 0x1
 8426 2616 52       		.byte	0x52
 8427 2617 05       		.uleb128 0x5
 8428 2618 03       		.byte	0x3
 8429 2619 4C030000 		.4byte	.LC19
 8430 261d 2C       		.uleb128 0x2c
 8431 261e 01       		.uleb128 0x1
 8432 261f 51       		.byte	0x51
 8433 2620 05       		.uleb128 0x5
 8434 2621 03       		.byte	0x3
 8435 2622 00000000 		.4byte	.LC0
 8436 2626 2C       		.uleb128 0x2c
 8437 2627 02       		.uleb128 0x2
 8438 2628 7D       		.byte	0x7d
 8439 2629 00       		.sleb128 0
 8440 262a 05       		.uleb128 0x5
 8441 262b 03       		.byte	0x3
 8442 262c 58000000 		.4byte	.LC2
 8443 2630 00       		.byte	0
 8444 2631 00       		.byte	0
 8445 2632 0B       		.uleb128 0xb
 8446 2633 04       		.byte	0x4
ARM GAS  C:\Users\jo\AppData\Local\Temp\ccnOsBUt.s 			page 151


 8447 2634 0C0F0000 		.4byte	0xf0c
 8448 2638 4F       		.uleb128 0x4f
 8449 2639 33080000 		.4byte	.LASF302
 8450 263d 01       		.byte	0x1
 8451 263e AB04     		.2byte	0x4ab
 8452 2640 00000000 		.4byte	.LFB266
 8453 2644 E0000000 		.4byte	.LFE266-.LFB266
 8454 2648 01       		.uleb128 0x1
 8455 2649 9C       		.byte	0x9c
 8456 264a 03280000 		.4byte	0x2803
 8457 264e 3D       		.uleb128 0x3d
 8458 264f BB020000 		.4byte	.LASF219
 8459 2653 01       		.byte	0x1
 8460 2654 AB04     		.2byte	0x4ab
 8461 2656 76080000 		.4byte	0x876
 8462 265a C5140000 		.4byte	.LLST84
 8463 265e 3D       		.uleb128 0x3d
 8464 265f 82060000 		.4byte	.LASF220
 8465 2663 01       		.byte	0x1
 8466 2664 AB04     		.2byte	0x4ab
 8467 2666 76080000 		.4byte	0x876
 8468 266a 0A150000 		.4byte	.LLST85
 8469 266e 3D       		.uleb128 0x3d
 8470 266f 84090000 		.4byte	.LASF153
 8471 2673 01       		.byte	0x1
 8472 2674 AC04     		.2byte	0x4ac
 8473 2676 990A0000 		.4byte	0xa99
 8474 267a 4F150000 		.4byte	.LLST86
 8475 267e 3D       		.uleb128 0x3d
 8476 267f CC0D0000 		.4byte	.LASF154
 8477 2683 01       		.byte	0x1
 8478 2684 AC04     		.2byte	0x4ac
 8479 2686 990A0000 		.4byte	0xa99
 8480 268a 94150000 		.4byte	.LLST87
 8481 268e 3D       		.uleb128 0x3d
 8482 268f 1F030000 		.4byte	.LASF159
 8483 2693 01       		.byte	0x1
 8484 2694 AD04     		.2byte	0x4ad
 8485 2696 60080000 		.4byte	0x860
 8486 269a D9150000 		.4byte	.LLST88
 8487 269e 3D       		.uleb128 0x3d
 8488 269f 08070000 		.4byte	.LASF160
 8489 26a3 01       		.byte	0x1
 8490 26a4 AD04     		.2byte	0x4ad
 8491 26a6 60080000 		.4byte	0x860
 8492 26aa 11160000 		.4byte	.LLST89
 8493 26ae 3F       		.uleb128 0x3f
 8494 26af 7000     		.ascii	"p\000"
 8495 26b1 01       		.byte	0x1
 8496 26b2 AF04     		.2byte	0x4af
 8497 26b4 66090000 		.4byte	0x966
 8498 26b8 49160000 		.4byte	.LLST90
 8499 26bc 3E       		.uleb128 0x3e
 8500 26bd 9B0A0000 		.4byte	.LASF216
 8501 26c1 01       		.byte	0x1
 8502 26c2 B004     		.2byte	0x4b0
 8503 26c4 7F0F0000 		.4byte	0xf7f
ARM GAS  C:\Users\jo\AppData\Local\Temp\ccnOsBUt.s 			page 152


 8504 26c8 93160000 		.4byte	.LLST91
 8505 26cc 38       		.uleb128 0x38
 8506 26cd 2C120000 		.4byte	0x122c
 8507 26d1 BC000000 		.4byte	.LBB179
 8508 26d5 08000000 		.4byte	.LBE179-.LBB179
 8509 26d9 01       		.byte	0x1
 8510 26da B604     		.2byte	0x4b6
 8511 26dc FD260000 		.4byte	0x26fd
 8512 26e0 28       		.uleb128 0x28
 8513 26e1 39120000 		.4byte	0x1239
 8514 26e5 A6160000 		.4byte	.LLST92
 8515 26e9 2E       		.uleb128 0x2e
 8516 26ea C2000000 		.4byte	.LVL329
 8517 26ee C32B0000 		.4byte	0x2bc3
 8518 26f2 2C       		.uleb128 0x2c
 8519 26f3 01       		.uleb128 0x1
 8520 26f4 50       		.byte	0x50
 8521 26f5 05       		.uleb128 0x5
 8522 26f6 03       		.byte	0x3
 8523 26f7 28000000 		.4byte	.LC1
 8524 26fb 00       		.byte	0
 8525 26fc 00       		.byte	0
 8526 26fd 2B       		.uleb128 0x2b
 8527 26fe 20000000 		.4byte	.LVL313
 8528 2702 D42B0000 		.4byte	0x2bd4
 8529 2706 1A270000 		.4byte	0x271a
 8530 270a 2C       		.uleb128 0x2c
 8531 270b 01       		.uleb128 0x1
 8532 270c 52       		.byte	0x52
 8533 270d 01       		.uleb128 0x1
 8534 270e 30       		.byte	0x30
 8535 270f 2C       		.uleb128 0x2c
 8536 2710 01       		.uleb128 0x1
 8537 2711 51       		.byte	0x51
 8538 2712 01       		.uleb128 0x1
 8539 2713 44       		.byte	0x44
 8540 2714 2C       		.uleb128 0x2c
 8541 2715 01       		.uleb128 0x1
 8542 2716 50       		.byte	0x50
 8543 2717 01       		.uleb128 0x1
 8544 2718 31       		.byte	0x31
 8545 2719 00       		.byte	0
 8546 271a 2B       		.uleb128 0x2b
 8547 271b 34000000 		.4byte	.LVL316
 8548 271f 532B0000 		.4byte	0x2b53
 8549 2723 30270000 		.4byte	0x2730
 8550 2727 2C       		.uleb128 0x2c
 8551 2728 01       		.uleb128 0x1
 8552 2729 50       		.byte	0x50
 8553 272a 04       		.uleb128 0x4
 8554 272b 91       		.byte	0x91
 8555 272c 00       		.sleb128 0
 8556 272d 94       		.byte	0x94
 8557 272e 02       		.byte	0x2
 8558 272f 00       		.byte	0
 8559 2730 2B       		.uleb128 0x2b
 8560 2731 3C000000 		.4byte	.LVL317
ARM GAS  C:\Users\jo\AppData\Local\Temp\ccnOsBUt.s 			page 153


 8561 2735 532B0000 		.4byte	0x2b53
 8562 2739 44270000 		.4byte	0x2744
 8563 273d 2C       		.uleb128 0x2c
 8564 273e 01       		.uleb128 0x1
 8565 273f 50       		.byte	0x50
 8566 2740 02       		.uleb128 0x2
 8567 2741 7A       		.byte	0x7a
 8568 2742 00       		.sleb128 0
 8569 2743 00       		.byte	0
 8570 2744 2B       		.uleb128 0x2b
 8571 2745 44000000 		.4byte	.LVL318
 8572 2749 682B0000 		.4byte	0x2b68
 8573 274d 58270000 		.4byte	0x2758
 8574 2751 2C       		.uleb128 0x2c
 8575 2752 01       		.uleb128 0x1
 8576 2753 50       		.byte	0x50
 8577 2754 02       		.uleb128 0x2
 8578 2755 79       		.byte	0x79
 8579 2756 00       		.sleb128 0
 8580 2757 00       		.byte	0
 8581 2758 2B       		.uleb128 0x2b
 8582 2759 4C000000 		.4byte	.LVL319
 8583 275d 682B0000 		.4byte	0x2b68
 8584 2761 6C270000 		.4byte	0x276c
 8585 2765 2C       		.uleb128 0x2c
 8586 2766 01       		.uleb128 0x1
 8587 2767 50       		.byte	0x50
 8588 2768 02       		.uleb128 0x2
 8589 2769 76       		.byte	0x76
 8590 276a 00       		.sleb128 0
 8591 276b 00       		.byte	0
 8592 276c 2B       		.uleb128 0x2b
 8593 276d 56000000 		.4byte	.LVL320
 8594 2771 532B0000 		.4byte	0x2b53
 8595 2775 81270000 		.4byte	0x2781
 8596 2779 2C       		.uleb128 0x2c
 8597 277a 01       		.uleb128 0x1
 8598 277b 50       		.byte	0x50
 8599 277c 03       		.uleb128 0x3
 8600 277d 0A       		.byte	0xa
 8601 277e 1450     		.2byte	0x5014
 8602 2780 00       		.byte	0
 8603 2781 2B       		.uleb128 0x2b
 8604 2782 7C000000 		.4byte	.LVL322
 8605 2786 622C0000 		.4byte	0x2c62
 8606 278a A6270000 		.4byte	0x27a6
 8607 278e 2C       		.uleb128 0x2c
 8608 278f 01       		.uleb128 0x1
 8609 2790 53       		.byte	0x53
 8610 2791 01       		.uleb128 0x1
 8611 2792 36       		.byte	0x36
 8612 2793 2C       		.uleb128 0x2c
 8613 2794 01       		.uleb128 0x1
 8614 2795 52       		.byte	0x52
 8615 2796 02       		.uleb128 0x2
 8616 2797 77       		.byte	0x77
 8617 2798 00       		.sleb128 0
ARM GAS  C:\Users\jo\AppData\Local\Temp\ccnOsBUt.s 			page 154


 8618 2799 2C       		.uleb128 0x2c
 8619 279a 01       		.uleb128 0x1
 8620 279b 51       		.byte	0x51
 8621 279c 02       		.uleb128 0x2
 8622 279d 78       		.byte	0x78
 8623 279e 00       		.sleb128 0
 8624 279f 2C       		.uleb128 0x2c
 8625 27a0 01       		.uleb128 0x1
 8626 27a1 50       		.byte	0x50
 8627 27a2 02       		.uleb128 0x2
 8628 27a3 75       		.byte	0x75
 8629 27a4 00       		.sleb128 0
 8630 27a5 00       		.byte	0
 8631 27a6 2B       		.uleb128 0x2b
 8632 27a7 9E000000 		.4byte	.LVL324
 8633 27ab 8B2C0000 		.4byte	0x2c8b
 8634 27af CC270000 		.4byte	0x27cc
 8635 27b3 2C       		.uleb128 0x2c
 8636 27b4 01       		.uleb128 0x1
 8637 27b5 53       		.byte	0x53
 8638 27b6 02       		.uleb128 0x2
 8639 27b7 09       		.byte	0x9
 8640 27b8 FF       		.byte	0xff
 8641 27b9 2C       		.uleb128 0x2c
 8642 27ba 01       		.uleb128 0x1
 8643 27bb 52       		.byte	0x52
 8644 27bc 02       		.uleb128 0x2
 8645 27bd 77       		.byte	0x77
 8646 27be 00       		.sleb128 0
 8647 27bf 2C       		.uleb128 0x2c
 8648 27c0 01       		.uleb128 0x1
 8649 27c1 51       		.byte	0x51
 8650 27c2 02       		.uleb128 0x2
 8651 27c3 78       		.byte	0x78
 8652 27c4 00       		.sleb128 0
 8653 27c5 2C       		.uleb128 0x2c
 8654 27c6 01       		.uleb128 0x1
 8655 27c7 50       		.byte	0x50
 8656 27c8 02       		.uleb128 0x2
 8657 27c9 75       		.byte	0x75
 8658 27ca 00       		.sleb128 0
 8659 27cb 00       		.byte	0
 8660 27cc 50       		.uleb128 0x50
 8661 27cd AA000000 		.4byte	.LVL326
 8662 27d1 8F2B0000 		.4byte	0x2b8f
 8663 27d5 2E       		.uleb128 0x2e
 8664 27d6 BC000000 		.4byte	.LVL328
 8665 27da FF130000 		.4byte	0x13ff
 8666 27de 2C       		.uleb128 0x2c
 8667 27df 01       		.uleb128 0x1
 8668 27e0 53       		.byte	0x53
 8669 27e1 03       		.uleb128 0x3
 8670 27e2 0A       		.byte	0xa
 8671 27e3 B704     		.2byte	0x4b7
 8672 27e5 2C       		.uleb128 0x2c
 8673 27e6 01       		.uleb128 0x1
 8674 27e7 52       		.byte	0x52
ARM GAS  C:\Users\jo\AppData\Local\Temp\ccnOsBUt.s 			page 155


 8675 27e8 05       		.uleb128 0x5
 8676 27e9 03       		.byte	0x3
 8677 27ea 28000000 		.4byte	.LC1
 8678 27ee 2C       		.uleb128 0x2c
 8679 27ef 01       		.uleb128 0x1
 8680 27f0 51       		.byte	0x51
 8681 27f1 05       		.uleb128 0x5
 8682 27f2 03       		.byte	0x3
 8683 27f3 00000000 		.4byte	.LC0
 8684 27f7 2C       		.uleb128 0x2c
 8685 27f8 02       		.uleb128 0x2
 8686 27f9 7D       		.byte	0x7d
 8687 27fa 00       		.sleb128 0
 8688 27fb 05       		.uleb128 0x5
 8689 27fc 03       		.byte	0x3
 8690 27fd 58000000 		.4byte	.LC2
 8691 2801 00       		.byte	0
 8692 2802 00       		.byte	0
 8693 2803 4F       		.uleb128 0x4f
 8694 2804 A6030000 		.4byte	.LASF303
 8695 2808 01       		.byte	0x1
 8696 2809 D704     		.2byte	0x4d7
 8697 280b 00000000 		.4byte	.LFB267
 8698 280f 30000000 		.4byte	.LFE267-.LFB267
 8699 2813 01       		.uleb128 0x1
 8700 2814 9C       		.byte	0x9c
 8701 2815 4B280000 		.4byte	0x284b
 8702 2819 3C       		.uleb128 0x3c
 8703 281a 70636200 		.ascii	"pcb\000"
 8704 281e 01       		.byte	0x1
 8705 281f D704     		.2byte	0x4d7
 8706 2821 0E0B0000 		.4byte	0xb0e
 8707 2825 BE160000 		.4byte	.LLST93
 8708 2829 3F       		.uleb128 0x3f
 8709 282a 73656700 		.ascii	"seg\000"
 8710 282e 01       		.byte	0x1
 8711 282f D904     		.2byte	0x4d9
 8712 2831 0C0F0000 		.4byte	0xf0c
 8713 2835 EA160000 		.4byte	.LLST94
 8714 2839 4B       		.uleb128 0x4b
 8715 283a 2E000000 		.4byte	.LVL336
 8716 283e 66230000 		.4byte	0x2366
 8717 2842 2C       		.uleb128 0x2c
 8718 2843 01       		.uleb128 0x1
 8719 2844 50       		.byte	0x50
 8720 2845 03       		.uleb128 0x3
 8721 2846 F3       		.byte	0xf3
 8722 2847 01       		.uleb128 0x1
 8723 2848 50       		.byte	0x50
 8724 2849 00       		.byte	0
 8725 284a 00       		.byte	0
 8726 284b 4F       		.uleb128 0x4f
 8727 284c 8B010000 		.4byte	.LASF304
 8728 2850 01       		.byte	0x1
 8729 2851 FB04     		.2byte	0x4fb
 8730 2853 00000000 		.4byte	.LFB268
 8731 2857 54000000 		.4byte	.LFE268-.LFB268
ARM GAS  C:\Users\jo\AppData\Local\Temp\ccnOsBUt.s 			page 156


 8732 285b 01       		.uleb128 0x1
 8733 285c 9C       		.byte	0x9c
 8734 285d A4280000 		.4byte	0x28a4
 8735 2861 3C       		.uleb128 0x3c
 8736 2862 70636200 		.ascii	"pcb\000"
 8737 2866 01       		.byte	0x1
 8738 2867 FB04     		.2byte	0x4fb
 8739 2869 0E0B0000 		.4byte	0xb0e
 8740 286d FD160000 		.4byte	.LLST95
 8741 2871 3F       		.uleb128 0x3f
 8742 2872 73656700 		.ascii	"seg\000"
 8743 2876 01       		.byte	0x1
 8744 2877 FD04     		.2byte	0x4fd
 8745 2879 0C0F0000 		.4byte	0xf0c
 8746 287d 34170000 		.4byte	.LLST96
 8747 2881 3E       		.uleb128 0x3e
 8748 2882 870D0000 		.4byte	.LASF301
 8749 2886 01       		.byte	0x1
 8750 2887 FE04     		.2byte	0x4fe
 8751 2889 32260000 		.4byte	0x2632
 8752 288d 52170000 		.4byte	.LLST97
 8753 2891 2D       		.uleb128 0x2d
 8754 2892 24000000 		.4byte	.LVL342
 8755 2896 E92C0000 		.4byte	0x2ce9
 8756 289a 2D       		.uleb128 0x2d
 8757 289b 2E000000 		.4byte	.LVL343
 8758 289f E92C0000 		.4byte	0x2ce9
 8759 28a3 00       		.byte	0
 8760 28a4 4F       		.uleb128 0x4f
 8761 28a5 EE0D0000 		.4byte	.LASF305
 8762 28a9 01       		.byte	0x1
 8763 28aa 2905     		.2byte	0x529
 8764 28ac 00000000 		.4byte	.LFB269
 8765 28b0 4A000000 		.4byte	.LFE269-.LFB269
 8766 28b4 01       		.uleb128 0x1
 8767 28b5 9C       		.byte	0x9c
 8768 28b6 DB280000 		.4byte	0x28db
 8769 28ba 3C       		.uleb128 0x3c
 8770 28bb 70636200 		.ascii	"pcb\000"
 8771 28bf 01       		.byte	0x1
 8772 28c0 2905     		.2byte	0x529
 8773 28c2 0E0B0000 		.4byte	0xb0e
 8774 28c6 70170000 		.4byte	.LLST98
 8775 28ca 2E       		.uleb128 0x2e
 8776 28cb 14000000 		.4byte	.LVL347
 8777 28cf 4B280000 		.4byte	0x284b
 8778 28d3 2C       		.uleb128 0x2c
 8779 28d4 01       		.uleb128 0x1
 8780 28d5 50       		.byte	0x50
 8781 28d6 02       		.uleb128 0x2
 8782 28d7 74       		.byte	0x74
 8783 28d8 00       		.sleb128 0
 8784 28d9 00       		.byte	0
 8785 28da 00       		.byte	0
 8786 28db 4F       		.uleb128 0x4f
 8787 28dc 50000000 		.4byte	.LASF306
 8788 28e0 01       		.byte	0x1
ARM GAS  C:\Users\jo\AppData\Local\Temp\ccnOsBUt.s 			page 157


 8789 28e1 5405     		.2byte	0x554
 8790 28e3 00000000 		.4byte	.LFB270
 8791 28e7 64000000 		.4byte	.LFE270-.LFB270
 8792 28eb 01       		.uleb128 0x1
 8793 28ec 9C       		.byte	0x9c
 8794 28ed 9D290000 		.4byte	0x299d
 8795 28f1 3C       		.uleb128 0x3c
 8796 28f2 70636200 		.ascii	"pcb\000"
 8797 28f6 01       		.byte	0x1
 8798 28f7 5405     		.2byte	0x554
 8799 28f9 0E0B0000 		.4byte	0xb0e
 8800 28fd 8E170000 		.4byte	.LLST99
 8801 2901 3F       		.uleb128 0x3f
 8802 2902 7000     		.ascii	"p\000"
 8803 2904 01       		.byte	0x1
 8804 2905 5605     		.2byte	0x556
 8805 2907 66090000 		.4byte	0x966
 8806 290b D3170000 		.4byte	.LLST100
 8807 290f 3E       		.uleb128 0x3e
 8808 2910 9B0A0000 		.4byte	.LASF216
 8809 2914 01       		.byte	0x1
 8810 2915 5705     		.2byte	0x557
 8811 2917 7F0F0000 		.4byte	0xf7f
 8812 291b 07180000 		.4byte	.LLST101
 8813 291f 2D       		.uleb128 0x2d
 8814 2920 0E000000 		.4byte	.LVL350
 8815 2924 682B0000 		.4byte	0x2b68
 8816 2928 2B       		.uleb128 0x2b
 8817 2929 18000000 		.4byte	.LVL351
 8818 292d 5E140000 		.4byte	0x145e
 8819 2931 41290000 		.4byte	0x2941
 8820 2935 2C       		.uleb128 0x2c
 8821 2936 01       		.uleb128 0x1
 8822 2937 51       		.byte	0x51
 8823 2938 01       		.uleb128 0x1
 8824 2939 30       		.byte	0x30
 8825 293a 2C       		.uleb128 0x2c
 8826 293b 01       		.uleb128 0x1
 8827 293c 50       		.byte	0x50
 8828 293d 02       		.uleb128 0x2
 8829 293e 74       		.byte	0x74
 8830 293f 00       		.sleb128 0
 8831 2940 00       		.byte	0
 8832 2941 2B       		.uleb128 0x2b
 8833 2942 2E000000 		.4byte	.LVL353
 8834 2946 622C0000 		.4byte	0x2c62
 8835 294a 66290000 		.4byte	0x2966
 8836 294e 2C       		.uleb128 0x2c
 8837 294f 01       		.uleb128 0x1
 8838 2950 53       		.byte	0x53
 8839 2951 01       		.uleb128 0x1
 8840 2952 36       		.byte	0x36
 8841 2953 2C       		.uleb128 0x2c
 8842 2954 01       		.uleb128 0x1
 8843 2955 52       		.byte	0x52
 8844 2956 02       		.uleb128 0x2
 8845 2957 76       		.byte	0x76
ARM GAS  C:\Users\jo\AppData\Local\Temp\ccnOsBUt.s 			page 158


 8846 2958 00       		.sleb128 0
 8847 2959 2C       		.uleb128 0x2c
 8848 295a 01       		.uleb128 0x1
 8849 295b 51       		.byte	0x51
 8850 295c 02       		.uleb128 0x2
 8851 295d 74       		.byte	0x74
 8852 295e 00       		.sleb128 0
 8853 295f 2C       		.uleb128 0x2c
 8854 2960 01       		.uleb128 0x1
 8855 2961 50       		.byte	0x50
 8856 2962 02       		.uleb128 0x2
 8857 2963 75       		.byte	0x75
 8858 2964 00       		.sleb128 0
 8859 2965 00       		.byte	0
 8860 2966 2B       		.uleb128 0x2b
 8861 2967 50000000 		.4byte	.LVL355
 8862 296b 8B2C0000 		.4byte	0x2c8b
 8863 296f 93290000 		.4byte	0x2993
 8864 2973 2C       		.uleb128 0x2c
 8865 2974 01       		.uleb128 0x1
 8866 2975 52       		.byte	0x52
 8867 2976 02       		.uleb128 0x2
 8868 2977 76       		.byte	0x76
 8869 2978 00       		.sleb128 0
 8870 2979 2C       		.uleb128 0x2c
 8871 297a 01       		.uleb128 0x1
 8872 297b 51       		.byte	0x51
 8873 297c 02       		.uleb128 0x2
 8874 297d 74       		.byte	0x74
 8875 297e 00       		.sleb128 0
 8876 297f 2C       		.uleb128 0x2c
 8877 2980 01       		.uleb128 0x1
 8878 2981 50       		.byte	0x50
 8879 2982 02       		.uleb128 0x2
 8880 2983 75       		.byte	0x75
 8881 2984 00       		.sleb128 0
 8882 2985 2C       		.uleb128 0x2c
 8883 2986 02       		.uleb128 0x2
 8884 2987 7D       		.byte	0x7d
 8885 2988 04       		.sleb128 4
 8886 2989 01       		.uleb128 0x1
 8887 298a 36       		.byte	0x36
 8888 298b 2C       		.uleb128 0x2c
 8889 298c 02       		.uleb128 0x2
 8890 298d 7D       		.byte	0x7d
 8891 298e 00       		.sleb128 0
 8892 298f 02       		.uleb128 0x2
 8893 2990 77       		.byte	0x77
 8894 2991 00       		.sleb128 0
 8895 2992 00       		.byte	0
 8896 2993 50       		.uleb128 0x50
 8897 2994 5C000000 		.4byte	.LVL357
 8898 2998 8F2B0000 		.4byte	0x2b8f
 8899 299c 00       		.byte	0
 8900 299d 4F       		.uleb128 0x4f
 8901 299e 34010000 		.4byte	.LASF307
 8902 29a2 01       		.byte	0x1
ARM GAS  C:\Users\jo\AppData\Local\Temp\ccnOsBUt.s 			page 159


 8903 29a3 8605     		.2byte	0x586
 8904 29a5 00000000 		.4byte	.LFB271
 8905 29a9 B8000000 		.4byte	.LFE271-.LFB271
 8906 29ad 01       		.uleb128 0x1
 8907 29ae 9C       		.byte	0x9c
 8908 29af DF2A0000 		.4byte	0x2adf
 8909 29b3 3C       		.uleb128 0x3c
 8910 29b4 70636200 		.ascii	"pcb\000"
 8911 29b8 01       		.byte	0x1
 8912 29b9 8605     		.2byte	0x586
 8913 29bb 0E0B0000 		.4byte	0xb0e
 8914 29bf 1A180000 		.4byte	.LLST102
 8915 29c3 3F       		.uleb128 0x3f
 8916 29c4 7000     		.ascii	"p\000"
 8917 29c6 01       		.byte	0x1
 8918 29c7 8805     		.2byte	0x588
 8919 29c9 66090000 		.4byte	0x966
 8920 29cd 6A180000 		.4byte	.LLST103
 8921 29d1 3E       		.uleb128 0x3e
 8922 29d2 9B0A0000 		.4byte	.LASF216
 8923 29d6 01       		.byte	0x1
 8924 29d7 8905     		.2byte	0x589
 8925 29d9 7F0F0000 		.4byte	0xf7f
 8926 29dd A9180000 		.4byte	.LLST104
 8927 29e1 3F       		.uleb128 0x3f
 8928 29e2 73656700 		.ascii	"seg\000"
 8929 29e6 01       		.byte	0x1
 8930 29e7 8A05     		.2byte	0x58a
 8931 29e9 0C0F0000 		.4byte	0xf0c
 8932 29ed C7180000 		.4byte	.LLST105
 8933 29f1 3F       		.uleb128 0x3f
 8934 29f2 6C656E00 		.ascii	"len\000"
 8935 29f6 01       		.byte	0x1
 8936 29f7 8B05     		.2byte	0x58b
 8937 29f9 60080000 		.4byte	0x860
 8938 29fd F0180000 		.4byte	.LLST106
 8939 2a01 3E       		.uleb128 0x3e
 8940 2a02 64030000 		.4byte	.LASF308
 8941 2a06 01       		.byte	0x1
 8942 2a07 8C05     		.2byte	0x58c
 8943 2a09 4A080000 		.4byte	0x84a
 8944 2a0d 10190000 		.4byte	.LLST107
 8945 2a11 45       		.uleb128 0x45
 8946 2a12 68010000 		.4byte	.Ldebug_ranges0+0x168
 8947 2a16 3E2A0000 		.4byte	0x2a3e
 8948 2a1a 3F       		.uleb128 0x3f
 8949 2a1b 6400     		.ascii	"d\000"
 8950 2a1d 01       		.byte	0x1
 8951 2a1e B205     		.2byte	0x5b2
 8952 2a20 11060000 		.4byte	0x611
 8953 2a24 30190000 		.4byte	.LLST108
 8954 2a28 2E       		.uleb128 0x2e
 8955 2a29 40000000 		.4byte	.LVL368
 8956 2a2d FE2C0000 		.4byte	0x2cfe
 8957 2a31 2C       		.uleb128 0x2c
 8958 2a32 01       		.uleb128 0x1
 8959 2a33 52       		.byte	0x52
ARM GAS  C:\Users\jo\AppData\Local\Temp\ccnOsBUt.s 			page 160


 8960 2a34 01       		.uleb128 0x1
 8961 2a35 31       		.byte	0x31
 8962 2a36 2C       		.uleb128 0x2c
 8963 2a37 01       		.uleb128 0x1
 8964 2a38 51       		.byte	0x51
 8965 2a39 02       		.uleb128 0x2
 8966 2a3a 77       		.byte	0x77
 8967 2a3b 14       		.sleb128 20
 8968 2a3c 00       		.byte	0
 8969 2a3d 00       		.byte	0
 8970 2a3e 2D       		.uleb128 0x2d
 8971 2a3f 14000000 		.4byte	.LVL362
 8972 2a43 4D2C0000 		.4byte	0x2c4d
 8973 2a47 2B       		.uleb128 0x2b
 8974 2a48 24000000 		.4byte	.LVL364
 8975 2a4c 5E140000 		.4byte	0x145e
 8976 2a50 602A0000 		.4byte	0x2a60
 8977 2a54 2C       		.uleb128 0x2c
 8978 2a55 01       		.uleb128 0x1
 8979 2a56 51       		.byte	0x51
 8980 2a57 01       		.uleb128 0x1
 8981 2a58 31       		.byte	0x31
 8982 2a59 2C       		.uleb128 0x2c
 8983 2a5a 01       		.uleb128 0x1
 8984 2a5b 50       		.byte	0x50
 8985 2a5c 02       		.uleb128 0x2
 8986 2a5d 74       		.byte	0x74
 8987 2a5e 00       		.sleb128 0
 8988 2a5f 00       		.byte	0
 8989 2a60 2B       		.uleb128 0x2b
 8990 2a61 52000000 		.4byte	.LVL369
 8991 2a65 622C0000 		.4byte	0x2c62
 8992 2a69 852A0000 		.4byte	0x2a85
 8993 2a6d 2C       		.uleb128 0x2c
 8994 2a6e 01       		.uleb128 0x1
 8995 2a6f 53       		.byte	0x53
 8996 2a70 01       		.uleb128 0x1
 8997 2a71 36       		.byte	0x36
 8998 2a72 2C       		.uleb128 0x2c
 8999 2a73 01       		.uleb128 0x1
 9000 2a74 52       		.byte	0x52
 9001 2a75 02       		.uleb128 0x2
 9002 2a76 76       		.byte	0x76
 9003 2a77 00       		.sleb128 0
 9004 2a78 2C       		.uleb128 0x2c
 9005 2a79 01       		.uleb128 0x1
 9006 2a7a 51       		.byte	0x51
 9007 2a7b 02       		.uleb128 0x2
 9008 2a7c 74       		.byte	0x74
 9009 2a7d 00       		.sleb128 0
 9010 2a7e 2C       		.uleb128 0x2c
 9011 2a7f 01       		.uleb128 0x1
 9012 2a80 50       		.byte	0x50
 9013 2a81 02       		.uleb128 0x2
 9014 2a82 75       		.byte	0x75
 9015 2a83 00       		.sleb128 0
 9016 2a84 00       		.byte	0
ARM GAS  C:\Users\jo\AppData\Local\Temp\ccnOsBUt.s 			page 161


 9017 2a85 2B       		.uleb128 0x2b
 9018 2a86 74000000 		.4byte	.LVL371
 9019 2a8a 8B2C0000 		.4byte	0x2c8b
 9020 2a8e B22A0000 		.4byte	0x2ab2
 9021 2a92 2C       		.uleb128 0x2c
 9022 2a93 01       		.uleb128 0x1
 9023 2a94 52       		.byte	0x52
 9024 2a95 02       		.uleb128 0x2
 9025 2a96 76       		.byte	0x76
 9026 2a97 00       		.sleb128 0
 9027 2a98 2C       		.uleb128 0x2c
 9028 2a99 01       		.uleb128 0x1
 9029 2a9a 51       		.byte	0x51
 9030 2a9b 02       		.uleb128 0x2
 9031 2a9c 74       		.byte	0x74
 9032 2a9d 00       		.sleb128 0
 9033 2a9e 2C       		.uleb128 0x2c
 9034 2a9f 01       		.uleb128 0x1
 9035 2aa0 50       		.byte	0x50
 9036 2aa1 02       		.uleb128 0x2
 9037 2aa2 75       		.byte	0x75
 9038 2aa3 00       		.sleb128 0
 9039 2aa4 2C       		.uleb128 0x2c
 9040 2aa5 02       		.uleb128 0x2
 9041 2aa6 7D       		.byte	0x7d
 9042 2aa7 04       		.sleb128 4
 9043 2aa8 01       		.uleb128 0x1
 9044 2aa9 36       		.byte	0x36
 9045 2aaa 2C       		.uleb128 0x2c
 9046 2aab 02       		.uleb128 0x2
 9047 2aac 7D       		.byte	0x7d
 9048 2aad 00       		.sleb128 0
 9049 2aae 02       		.uleb128 0x2
 9050 2aaf 77       		.byte	0x77
 9051 2ab0 00       		.sleb128 0
 9052 2ab1 00       		.byte	0
 9053 2ab2 50       		.uleb128 0x50
 9054 2ab3 80000000 		.4byte	.LVL373
 9055 2ab7 8F2B0000 		.4byte	0x2b8f
 9056 2abb 2B       		.uleb128 0x2b
 9057 2abc 90000000 		.4byte	.LVL375
 9058 2ac0 5E140000 		.4byte	0x145e
 9059 2ac4 CF2A0000 		.4byte	0x2acf
 9060 2ac8 2C       		.uleb128 0x2c
 9061 2ac9 01       		.uleb128 0x1
 9062 2aca 50       		.byte	0x50
 9063 2acb 02       		.uleb128 0x2
 9064 2acc 74       		.byte	0x74
 9065 2acd 00       		.sleb128 0
 9066 2ace 00       		.byte	0
 9067 2acf 2E       		.uleb128 0x2e
 9068 2ad0 9E000000 		.4byte	.LVL379
 9069 2ad4 532B0000 		.4byte	0x2b53
 9070 2ad8 2C       		.uleb128 0x2c
 9071 2ad9 01       		.uleb128 0x1
 9072 2ada 50       		.byte	0x50
 9073 2adb 01       		.uleb128 0x1
ARM GAS  C:\Users\jo\AppData\Local\Temp\ccnOsBUt.s 			page 162


 9074 2adc 41       		.byte	0x41
 9075 2add 00       		.byte	0
 9076 2ade 00       		.byte	0
 9077 2adf 51       		.uleb128 0x51
 9078 2ae0 EF080000 		.4byte	.LASF309
 9079 2ae4 1C       		.byte	0x1c
 9080 2ae5 A706     		.2byte	0x6a7
 9081 2ae7 10010000 		.4byte	0x110
 9082 2aeb 52       		.uleb128 0x52
 9083 2aec 636800   		.ascii	"ch\000"
 9084 2aef 09       		.byte	0x9
 9085 2af0 EB01     		.2byte	0x1eb
 9086 2af2 0B040000 		.4byte	0x40b
 9087 2af6 53       		.uleb128 0x53
 9088 2af7 19070000 		.4byte	.LASF310
 9089 2afb 12       		.byte	0x12
 9090 2afc 3B       		.byte	0x3b
 9091 2afd 34080000 		.4byte	0x834
 9092 2b01 51       		.uleb128 0x51
 9093 2b02 4E040000 		.4byte	.LASF311
 9094 2b06 19       		.byte	0x19
 9095 2b07 3201     		.2byte	0x132
 9096 2b09 0E0B0000 		.4byte	0xb0e
 9097 2b0d 51       		.uleb128 0x51
 9098 2b0e BD0E0000 		.4byte	.LASF312
 9099 2b12 19       		.byte	0x19
 9100 2b13 3301     		.2byte	0x133
 9101 2b15 76080000 		.4byte	0x876
 9102 2b19 53       		.uleb128 0x53
 9103 2b1a 67020000 		.4byte	.LASF313
 9104 2b1e 1B       		.byte	0x1b
 9105 2b1f 95       		.byte	0x95
 9106 2b20 3A110000 		.4byte	0x113a
 9107 2b24 54       		.uleb128 0x54
 9108 2b25 4B060000 		.4byte	.LASF314
 9109 2b29 1A       		.byte	0x1a
 9110 2b2a 6A       		.byte	0x6a
 9111 2b2b 3C030000 		.4byte	0x33c
 9112 2b2f 392B0000 		.4byte	0x2b39
 9113 2b33 0D       		.uleb128 0xd
 9114 2b34 E80F0000 		.4byte	0xfe8
 9115 2b38 00       		.byte	0
 9116 2b39 54       		.uleb128 0x54
 9117 2b3a FD040000 		.4byte	.LASF315
 9118 2b3e 15       		.byte	0x15
 9119 2b3f 99       		.byte	0x99
 9120 2b40 4A080000 		.4byte	0x84a
 9121 2b44 532B0000 		.4byte	0x2b53
 9122 2b48 0D       		.uleb128 0xd
 9123 2b49 66090000 		.4byte	0x966
 9124 2b4d 0D       		.uleb128 0xd
 9125 2b4e 6B080000 		.4byte	0x86b
 9126 2b52 00       		.byte	0
 9127 2b53 54       		.uleb128 0x54
 9128 2b54 3F020000 		.4byte	.LASF316
 9129 2b58 1D       		.byte	0x1d
 9130 2b59 63       		.byte	0x63
ARM GAS  C:\Users\jo\AppData\Local\Temp\ccnOsBUt.s 			page 163


 9131 2b5a 60080000 		.4byte	0x860
 9132 2b5e 682B0000 		.4byte	0x2b68
 9133 2b62 0D       		.uleb128 0xd
 9134 2b63 60080000 		.4byte	0x860
 9135 2b67 00       		.byte	0
 9136 2b68 54       		.uleb128 0x54
 9137 2b69 24020000 		.4byte	.LASF317
 9138 2b6d 1D       		.byte	0x1d
 9139 2b6e 65       		.byte	0x65
 9140 2b6f 76080000 		.4byte	0x876
 9141 2b73 7D2B0000 		.4byte	0x2b7d
 9142 2b77 0D       		.uleb128 0xd
 9143 2b78 76080000 		.4byte	0x876
 9144 2b7c 00       		.byte	0
 9145 2b7d 55       		.uleb128 0x55
 9146 2b7e 26080000 		.4byte	.LASF320
 9147 2b82 19       		.byte	0x19
 9148 2b83 A401     		.2byte	0x1a4
 9149 2b85 8F2B0000 		.4byte	0x2b8f
 9150 2b89 0D       		.uleb128 0xd
 9151 2b8a 0C0F0000 		.4byte	0xf0c
 9152 2b8e 00       		.byte	0
 9153 2b8f 54       		.uleb128 0x54
 9154 2b90 2A060000 		.4byte	.LASF318
 9155 2b94 15       		.byte	0x15
 9156 2b95 9B       		.byte	0x9b
 9157 2b96 4A080000 		.4byte	0x84a
 9158 2b9a A42B0000 		.4byte	0x2ba4
 9159 2b9e 0D       		.uleb128 0xd
 9160 2b9f 66090000 		.4byte	0x966
 9161 2ba3 00       		.byte	0
 9162 2ba4 54       		.uleb128 0x54
 9163 2ba5 6E000000 		.4byte	.LASF319
 9164 2ba9 02       		.byte	0x2
 9165 2baa 28       		.byte	0x28
 9166 2bab 25000000 		.4byte	0x25
 9167 2baf C32B0000 		.4byte	0x2bc3
 9168 2bb3 0D       		.uleb128 0xd
 9169 2bb4 83120000 		.4byte	0x1283
 9170 2bb8 0D       		.uleb128 0xd
 9171 2bb9 1E060000 		.4byte	0x61e
 9172 2bbd 0D       		.uleb128 0xd
 9173 2bbe 3F080000 		.4byte	0x83f
 9174 2bc2 00       		.byte	0
 9175 2bc3 56       		.uleb128 0x56
 9176 2bc4 E00B0000 		.4byte	.LASF321
 9177 2bc8 1E       		.byte	0x1e
 9178 2bc9 E6       		.byte	0xe6
 9179 2bca D42B0000 		.4byte	0x2bd4
 9180 2bce 0D       		.uleb128 0xd
 9181 2bcf 1E060000 		.4byte	0x61e
 9182 2bd3 00       		.byte	0
 9183 2bd4 54       		.uleb128 0x54
 9184 2bd5 40030000 		.4byte	.LASF322
 9185 2bd9 15       		.byte	0x15
 9186 2bda 92       		.byte	0x92
 9187 2bdb 66090000 		.4byte	0x966
ARM GAS  C:\Users\jo\AppData\Local\Temp\ccnOsBUt.s 			page 164


 9188 2bdf F32B0000 		.4byte	0x2bf3
 9189 2be3 0D       		.uleb128 0xd
 9190 2be4 CE080000 		.4byte	0x8ce
 9191 2be8 0D       		.uleb128 0xd
 9192 2be9 60080000 		.4byte	0x860
 9193 2bed 0D       		.uleb128 0xd
 9194 2bee FA080000 		.4byte	0x8fa
 9195 2bf2 00       		.byte	0
 9196 2bf3 54       		.uleb128 0x54
 9197 2bf4 8F000000 		.4byte	.LASF323
 9198 2bf8 15       		.byte	0x15
 9199 2bf9 9C       		.byte	0x9c
 9200 2bfa 4A080000 		.4byte	0x84a
 9201 2bfe 082C0000 		.4byte	0x2c08
 9202 2c02 0D       		.uleb128 0xd
 9203 2c03 66090000 		.4byte	0x966
 9204 2c07 00       		.byte	0
 9205 2c08 57       		.uleb128 0x57
 9206 2c09 9A0D0000 		.4byte	.LASF324
 9207 2c0d 3C030000 		.4byte	0x33c
 9208 2c11 252C0000 		.4byte	0x2c25
 9209 2c15 0D       		.uleb128 0xd
 9210 2c16 3C030000 		.4byte	0x33c
 9211 2c1a 0D       		.uleb128 0xd
 9212 2c1b E81E0000 		.4byte	0x1ee8
 9213 2c1f 0D       		.uleb128 0xd
 9214 2c20 72040000 		.4byte	0x472
 9215 2c24 00       		.byte	0
 9216 2c25 56       		.uleb128 0x56
 9217 2c26 410E0000 		.4byte	.LASF325
 9218 2c2a 15       		.byte	0x15
 9219 2c2b 9D       		.byte	0x9d
 9220 2c2c 3B2C0000 		.4byte	0x2c3b
 9221 2c30 0D       		.uleb128 0xd
 9222 2c31 66090000 		.4byte	0x966
 9223 2c35 0D       		.uleb128 0xd
 9224 2c36 66090000 		.4byte	0x966
 9225 2c3a 00       		.byte	0
 9226 2c3b 55       		.uleb128 0x55
 9227 2c3c 2A0E0000 		.4byte	.LASF326
 9228 2c40 19       		.byte	0x19
 9229 2c41 A301     		.2byte	0x1a3
 9230 2c43 4D2C0000 		.4byte	0x2c4d
 9231 2c47 0D       		.uleb128 0xd
 9232 2c48 0C0F0000 		.4byte	0xf0c
 9233 2c4c 00       		.byte	0
 9234 2c4d 54       		.uleb128 0x54
 9235 2c4e 58080000 		.4byte	.LASF327
 9236 2c52 1D       		.byte	0x1d
 9237 2c53 64       		.byte	0x64
 9238 2c54 60080000 		.4byte	0x860
 9239 2c58 622C0000 		.4byte	0x2c62
 9240 2c5c 0D       		.uleb128 0xd
 9241 2c5d 60080000 		.4byte	0x860
 9242 2c61 00       		.byte	0
 9243 2c62 54       		.uleb128 0x54
 9244 2c63 D6080000 		.4byte	.LASF328
ARM GAS  C:\Users\jo\AppData\Local\Temp\ccnOsBUt.s 			page 165


 9245 2c67 1F       		.byte	0x1f
 9246 2c68 4B       		.byte	0x4b
 9247 2c69 60080000 		.4byte	0x860
 9248 2c6d 8B2C0000 		.4byte	0x2c8b
 9249 2c71 0D       		.uleb128 0xd
 9250 2c72 66090000 		.4byte	0x966
 9251 2c76 0D       		.uleb128 0xd
 9252 2c77 990A0000 		.4byte	0xa99
 9253 2c7b 0D       		.uleb128 0xd
 9254 2c7c 990A0000 		.4byte	0xa99
 9255 2c80 0D       		.uleb128 0xd
 9256 2c81 4A080000 		.4byte	0x84a
 9257 2c85 0D       		.uleb128 0xd
 9258 2c86 60080000 		.4byte	0x860
 9259 2c8a 00       		.byte	0
 9260 2c8b 54       		.uleb128 0x54
 9261 2c8c 7F0E0000 		.4byte	.LASF329
 9262 2c90 20       		.byte	0x20
 9263 2c91 B1       		.byte	0xb1
 9264 2c92 A2080000 		.4byte	0x8a2
 9265 2c96 B92C0000 		.4byte	0x2cb9
 9266 2c9a 0D       		.uleb128 0xd
 9267 2c9b 66090000 		.4byte	0x966
 9268 2c9f 0D       		.uleb128 0xd
 9269 2ca0 990A0000 		.4byte	0xa99
 9270 2ca4 0D       		.uleb128 0xd
 9271 2ca5 990A0000 		.4byte	0xa99
 9272 2ca9 0D       		.uleb128 0xd
 9273 2caa 4A080000 		.4byte	0x84a
 9274 2cae 0D       		.uleb128 0xd
 9275 2caf 4A080000 		.4byte	0x84a
 9276 2cb3 0D       		.uleb128 0xd
 9277 2cb4 4A080000 		.4byte	0x84a
 9278 2cb8 00       		.byte	0
 9279 2cb9 58       		.uleb128 0x58
 9280 2cba B8070000 		.4byte	.LASF330
 9281 2cbe 19       		.byte	0x19
 9282 2cbf C601     		.2byte	0x1c6
 9283 2cc1 60080000 		.4byte	0x860
 9284 2cc5 D42C0000 		.4byte	0x2cd4
 9285 2cc9 0D       		.uleb128 0xd
 9286 2cca 60080000 		.4byte	0x860
 9287 2cce 0D       		.uleb128 0xd
 9288 2ccf 990A0000 		.4byte	0xa99
 9289 2cd3 00       		.byte	0
 9290 2cd4 54       		.uleb128 0x54
 9291 2cd5 210E0000 		.4byte	.LASF331
 9292 2cd9 20       		.byte	0x20
 9293 2cda AF       		.byte	0xaf
 9294 2cdb 90090000 		.4byte	0x990
 9295 2cdf E92C0000 		.4byte	0x2ce9
 9296 2ce3 0D       		.uleb128 0xd
 9297 2ce4 990A0000 		.4byte	0xa99
 9298 2ce8 00       		.byte	0
 9299 2ce9 54       		.uleb128 0x54
 9300 2cea 3B080000 		.4byte	.LASF332
 9301 2cee 1D       		.byte	0x1d
ARM GAS  C:\Users\jo\AppData\Local\Temp\ccnOsBUt.s 			page 166


 9302 2cef 66       		.byte	0x66
 9303 2cf0 76080000 		.4byte	0x876
 9304 2cf4 FE2C0000 		.4byte	0x2cfe
 9305 2cf8 0D       		.uleb128 0xd
 9306 2cf9 76080000 		.4byte	0x876
 9307 2cfd 00       		.byte	0
 9308 2cfe 59       		.uleb128 0x59
 9309 2cff B3050000 		.4byte	.LASF333
 9310 2d03 15       		.byte	0x15
 9311 2d04 A1       		.byte	0xa1
 9312 2d05 60080000 		.4byte	0x860
 9313 2d09 0D       		.uleb128 0xd
 9314 2d0a 66090000 		.4byte	0x966
 9315 2d0e 0D       		.uleb128 0xd
 9316 2d0f 3C030000 		.4byte	0x33c
 9317 2d13 0D       		.uleb128 0xd
 9318 2d14 60080000 		.4byte	0x860
 9319 2d18 0D       		.uleb128 0xd
 9320 2d19 60080000 		.4byte	0x860
 9321 2d1d 00       		.byte	0
 9322 2d1e 00       		.byte	0
 9323              		.section	.debug_abbrev,"",%progbits
 9324              	.Ldebug_abbrev0:
 9325 0000 01       		.uleb128 0x1
 9326 0001 11       		.uleb128 0x11
 9327 0002 01       		.byte	0x1
 9328 0003 25       		.uleb128 0x25
 9329 0004 0E       		.uleb128 0xe
 9330 0005 13       		.uleb128 0x13
 9331 0006 0B       		.uleb128 0xb
 9332 0007 03       		.uleb128 0x3
 9333 0008 0E       		.uleb128 0xe
 9334 0009 1B       		.uleb128 0x1b
 9335 000a 0E       		.uleb128 0xe
 9336 000b 55       		.uleb128 0x55
 9337 000c 17       		.uleb128 0x17
 9338 000d 11       		.uleb128 0x11
 9339 000e 01       		.uleb128 0x1
 9340 000f 10       		.uleb128 0x10
 9341 0010 17       		.uleb128 0x17
 9342 0011 00       		.byte	0
 9343 0012 00       		.byte	0
 9344 0013 02       		.uleb128 0x2
 9345 0014 24       		.uleb128 0x24
 9346 0015 00       		.byte	0
 9347 0016 0B       		.uleb128 0xb
 9348 0017 0B       		.uleb128 0xb
 9349 0018 3E       		.uleb128 0x3e
 9350 0019 0B       		.uleb128 0xb
 9351 001a 03       		.uleb128 0x3
 9352 001b 08       		.uleb128 0x8
 9353 001c 00       		.byte	0
 9354 001d 00       		.byte	0
 9355 001e 03       		.uleb128 0x3
 9356 001f 16       		.uleb128 0x16
 9357 0020 00       		.byte	0
 9358 0021 03       		.uleb128 0x3
ARM GAS  C:\Users\jo\AppData\Local\Temp\ccnOsBUt.s 			page 167


 9359 0022 0E       		.uleb128 0xe
 9360 0023 3A       		.uleb128 0x3a
 9361 0024 0B       		.uleb128 0xb
 9362 0025 3B       		.uleb128 0x3b
 9363 0026 0B       		.uleb128 0xb
 9364 0027 49       		.uleb128 0x49
 9365 0028 13       		.uleb128 0x13
 9366 0029 00       		.byte	0
 9367 002a 00       		.byte	0
 9368 002b 04       		.uleb128 0x4
 9369 002c 24       		.uleb128 0x24
 9370 002d 00       		.byte	0
 9371 002e 0B       		.uleb128 0xb
 9372 002f 0B       		.uleb128 0xb
 9373 0030 3E       		.uleb128 0x3e
 9374 0031 0B       		.uleb128 0xb
 9375 0032 03       		.uleb128 0x3
 9376 0033 0E       		.uleb128 0xe
 9377 0034 00       		.byte	0
 9378 0035 00       		.byte	0
 9379 0036 05       		.uleb128 0x5
 9380 0037 35       		.uleb128 0x35
 9381 0038 00       		.byte	0
 9382 0039 49       		.uleb128 0x49
 9383 003a 13       		.uleb128 0x13
 9384 003b 00       		.byte	0
 9385 003c 00       		.byte	0
 9386 003d 06       		.uleb128 0x6
 9387 003e 13       		.uleb128 0x13
 9388 003f 01       		.byte	0x1
 9389 0040 03       		.uleb128 0x3
 9390 0041 0E       		.uleb128 0xe
 9391 0042 0B       		.uleb128 0xb
 9392 0043 0B       		.uleb128 0xb
 9393 0044 3A       		.uleb128 0x3a
 9394 0045 0B       		.uleb128 0xb
 9395 0046 3B       		.uleb128 0x3b
 9396 0047 0B       		.uleb128 0xb
 9397 0048 01       		.uleb128 0x1
 9398 0049 13       		.uleb128 0x13
 9399 004a 00       		.byte	0
 9400 004b 00       		.byte	0
 9401 004c 07       		.uleb128 0x7
 9402 004d 0D       		.uleb128 0xd
 9403 004e 00       		.byte	0
 9404 004f 03       		.uleb128 0x3
 9405 0050 0E       		.uleb128 0xe
 9406 0051 3A       		.uleb128 0x3a
 9407 0052 0B       		.uleb128 0xb
 9408 0053 3B       		.uleb128 0x3b
 9409 0054 0B       		.uleb128 0xb
 9410 0055 49       		.uleb128 0x49
 9411 0056 13       		.uleb128 0x13
 9412 0057 38       		.uleb128 0x38
 9413 0058 0B       		.uleb128 0xb
 9414 0059 00       		.byte	0
 9415 005a 00       		.byte	0
ARM GAS  C:\Users\jo\AppData\Local\Temp\ccnOsBUt.s 			page 168


 9416 005b 08       		.uleb128 0x8
 9417 005c 0D       		.uleb128 0xd
 9418 005d 00       		.byte	0
 9419 005e 03       		.uleb128 0x3
 9420 005f 08       		.uleb128 0x8
 9421 0060 3A       		.uleb128 0x3a
 9422 0061 0B       		.uleb128 0xb
 9423 0062 3B       		.uleb128 0x3b
 9424 0063 05       		.uleb128 0x5
 9425 0064 49       		.uleb128 0x49
 9426 0065 13       		.uleb128 0x13
 9427 0066 38       		.uleb128 0x38
 9428 0067 0B       		.uleb128 0xb
 9429 0068 00       		.byte	0
 9430 0069 00       		.byte	0
 9431 006a 09       		.uleb128 0x9
 9432 006b 0D       		.uleb128 0xd
 9433 006c 00       		.byte	0
 9434 006d 03       		.uleb128 0x3
 9435 006e 0E       		.uleb128 0xe
 9436 006f 3A       		.uleb128 0x3a
 9437 0070 0B       		.uleb128 0xb
 9438 0071 3B       		.uleb128 0x3b
 9439 0072 05       		.uleb128 0x5
 9440 0073 49       		.uleb128 0x49
 9441 0074 13       		.uleb128 0x13
 9442 0075 38       		.uleb128 0x38
 9443 0076 0B       		.uleb128 0xb
 9444 0077 00       		.byte	0
 9445 0078 00       		.byte	0
 9446 0079 0A       		.uleb128 0xa
 9447 007a 13       		.uleb128 0x13
 9448 007b 01       		.byte	0x1
 9449 007c 03       		.uleb128 0x3
 9450 007d 0E       		.uleb128 0xe
 9451 007e 0B       		.uleb128 0xb
 9452 007f 0B       		.uleb128 0xb
 9453 0080 3A       		.uleb128 0x3a
 9454 0081 0B       		.uleb128 0xb
 9455 0082 3B       		.uleb128 0x3b
 9456 0083 05       		.uleb128 0x5
 9457 0084 01       		.uleb128 0x1
 9458 0085 13       		.uleb128 0x13
 9459 0086 00       		.byte	0
 9460 0087 00       		.byte	0
 9461 0088 0B       		.uleb128 0xb
 9462 0089 0F       		.uleb128 0xf
 9463 008a 00       		.byte	0
 9464 008b 0B       		.uleb128 0xb
 9465 008c 0B       		.uleb128 0xb
 9466 008d 49       		.uleb128 0x49
 9467 008e 13       		.uleb128 0x13
 9468 008f 00       		.byte	0
 9469 0090 00       		.byte	0
 9470 0091 0C       		.uleb128 0xc
 9471 0092 15       		.uleb128 0x15
 9472 0093 01       		.byte	0x1
ARM GAS  C:\Users\jo\AppData\Local\Temp\ccnOsBUt.s 			page 169


 9473 0094 27       		.uleb128 0x27
 9474 0095 19       		.uleb128 0x19
 9475 0096 01       		.uleb128 0x1
 9476 0097 13       		.uleb128 0x13
 9477 0098 00       		.byte	0
 9478 0099 00       		.byte	0
 9479 009a 0D       		.uleb128 0xd
 9480 009b 05       		.uleb128 0x5
 9481 009c 00       		.byte	0
 9482 009d 49       		.uleb128 0x49
 9483 009e 13       		.uleb128 0x13
 9484 009f 00       		.byte	0
 9485 00a0 00       		.byte	0
 9486 00a1 0E       		.uleb128 0xe
 9487 00a2 0F       		.uleb128 0xf
 9488 00a3 00       		.byte	0
 9489 00a4 0B       		.uleb128 0xb
 9490 00a5 0B       		.uleb128 0xb
 9491 00a6 00       		.byte	0
 9492 00a7 00       		.byte	0
 9493 00a8 0F       		.uleb128 0xf
 9494 00a9 13       		.uleb128 0x13
 9495 00aa 01       		.byte	0x1
 9496 00ab 03       		.uleb128 0x3
 9497 00ac 0E       		.uleb128 0xe
 9498 00ad 0B       		.uleb128 0xb
 9499 00ae 05       		.uleb128 0x5
 9500 00af 3A       		.uleb128 0x3a
 9501 00b0 0B       		.uleb128 0xb
 9502 00b1 3B       		.uleb128 0x3b
 9503 00b2 05       		.uleb128 0x5
 9504 00b3 01       		.uleb128 0x1
 9505 00b4 13       		.uleb128 0x13
 9506 00b5 00       		.byte	0
 9507 00b6 00       		.byte	0
 9508 00b7 10       		.uleb128 0x10
 9509 00b8 0D       		.uleb128 0xd
 9510 00b9 00       		.byte	0
 9511 00ba 03       		.uleb128 0x3
 9512 00bb 08       		.uleb128 0x8
 9513 00bc 3A       		.uleb128 0x3a
 9514 00bd 0B       		.uleb128 0xb
 9515 00be 3B       		.uleb128 0x3b
 9516 00bf 0B       		.uleb128 0xb
 9517 00c0 49       		.uleb128 0x49
 9518 00c1 13       		.uleb128 0x13
 9519 00c2 38       		.uleb128 0x38
 9520 00c3 0B       		.uleb128 0xb
 9521 00c4 00       		.byte	0
 9522 00c5 00       		.byte	0
 9523 00c6 11       		.uleb128 0x11
 9524 00c7 0D       		.uleb128 0xd
 9525 00c8 00       		.byte	0
 9526 00c9 03       		.uleb128 0x3
 9527 00ca 0E       		.uleb128 0xe
 9528 00cb 49       		.uleb128 0x49
 9529 00cc 13       		.uleb128 0x13
ARM GAS  C:\Users\jo\AppData\Local\Temp\ccnOsBUt.s 			page 170


 9530 00cd 38       		.uleb128 0x38
 9531 00ce 0B       		.uleb128 0xb
 9532 00cf 34       		.uleb128 0x34
 9533 00d0 19       		.uleb128 0x19
 9534 00d1 00       		.byte	0
 9535 00d2 00       		.byte	0
 9536 00d3 12       		.uleb128 0x12
 9537 00d4 26       		.uleb128 0x26
 9538 00d5 00       		.byte	0
 9539 00d6 49       		.uleb128 0x49
 9540 00d7 13       		.uleb128 0x13
 9541 00d8 00       		.byte	0
 9542 00d9 00       		.byte	0
 9543 00da 13       		.uleb128 0x13
 9544 00db 13       		.uleb128 0x13
 9545 00dc 01       		.byte	0x1
 9546 00dd 0B       		.uleb128 0xb
 9547 00de 0B       		.uleb128 0xb
 9548 00df 3A       		.uleb128 0x3a
 9549 00e0 0B       		.uleb128 0xb
 9550 00e1 3B       		.uleb128 0x3b
 9551 00e2 0B       		.uleb128 0xb
 9552 00e3 01       		.uleb128 0x1
 9553 00e4 13       		.uleb128 0x13
 9554 00e5 00       		.byte	0
 9555 00e6 00       		.byte	0
 9556 00e7 14       		.uleb128 0x14
 9557 00e8 17       		.uleb128 0x17
 9558 00e9 01       		.byte	0x1
 9559 00ea 0B       		.uleb128 0xb
 9560 00eb 0B       		.uleb128 0xb
 9561 00ec 3A       		.uleb128 0x3a
 9562 00ed 0B       		.uleb128 0xb
 9563 00ee 3B       		.uleb128 0x3b
 9564 00ef 0B       		.uleb128 0xb
 9565 00f0 01       		.uleb128 0x1
 9566 00f1 13       		.uleb128 0x13
 9567 00f2 00       		.byte	0
 9568 00f3 00       		.byte	0
 9569 00f4 15       		.uleb128 0x15
 9570 00f5 0D       		.uleb128 0xd
 9571 00f6 00       		.byte	0
 9572 00f7 03       		.uleb128 0x3
 9573 00f8 0E       		.uleb128 0xe
 9574 00f9 3A       		.uleb128 0x3a
 9575 00fa 0B       		.uleb128 0xb
 9576 00fb 3B       		.uleb128 0x3b
 9577 00fc 0B       		.uleb128 0xb
 9578 00fd 49       		.uleb128 0x49
 9579 00fe 13       		.uleb128 0x13
 9580 00ff 00       		.byte	0
 9581 0100 00       		.byte	0
 9582 0101 16       		.uleb128 0x16
 9583 0102 0D       		.uleb128 0xd
 9584 0103 00       		.byte	0
 9585 0104 03       		.uleb128 0x3
 9586 0105 0E       		.uleb128 0xe
ARM GAS  C:\Users\jo\AppData\Local\Temp\ccnOsBUt.s 			page 171


 9587 0106 3A       		.uleb128 0x3a
 9588 0107 0B       		.uleb128 0xb
 9589 0108 3B       		.uleb128 0x3b
 9590 0109 05       		.uleb128 0x5
 9591 010a 49       		.uleb128 0x49
 9592 010b 13       		.uleb128 0x13
 9593 010c 00       		.byte	0
 9594 010d 00       		.byte	0
 9595 010e 17       		.uleb128 0x17
 9596 010f 01       		.uleb128 0x1
 9597 0110 01       		.byte	0x1
 9598 0111 49       		.uleb128 0x49
 9599 0112 13       		.uleb128 0x13
 9600 0113 01       		.uleb128 0x1
 9601 0114 13       		.uleb128 0x13
 9602 0115 00       		.byte	0
 9603 0116 00       		.byte	0
 9604 0117 18       		.uleb128 0x18
 9605 0118 21       		.uleb128 0x21
 9606 0119 00       		.byte	0
 9607 011a 49       		.uleb128 0x49
 9608 011b 13       		.uleb128 0x13
 9609 011c 2F       		.uleb128 0x2f
 9610 011d 0B       		.uleb128 0xb
 9611 011e 00       		.byte	0
 9612 011f 00       		.byte	0
 9613 0120 19       		.uleb128 0x19
 9614 0121 15       		.uleb128 0x15
 9615 0122 01       		.byte	0x1
 9616 0123 27       		.uleb128 0x27
 9617 0124 19       		.uleb128 0x19
 9618 0125 49       		.uleb128 0x49
 9619 0126 13       		.uleb128 0x13
 9620 0127 01       		.uleb128 0x1
 9621 0128 13       		.uleb128 0x13
 9622 0129 00       		.byte	0
 9623 012a 00       		.byte	0
 9624 012b 1A       		.uleb128 0x1a
 9625 012c 04       		.uleb128 0x4
 9626 012d 01       		.byte	0x1
 9627 012e 0B       		.uleb128 0xb
 9628 012f 0B       		.uleb128 0xb
 9629 0130 3A       		.uleb128 0x3a
 9630 0131 0B       		.uleb128 0xb
 9631 0132 3B       		.uleb128 0x3b
 9632 0133 0B       		.uleb128 0xb
 9633 0134 01       		.uleb128 0x1
 9634 0135 13       		.uleb128 0x13
 9635 0136 00       		.byte	0
 9636 0137 00       		.byte	0
 9637 0138 1B       		.uleb128 0x1b
 9638 0139 28       		.uleb128 0x28
 9639 013a 00       		.byte	0
 9640 013b 03       		.uleb128 0x3
 9641 013c 0E       		.uleb128 0xe
 9642 013d 1C       		.uleb128 0x1c
 9643 013e 0D       		.uleb128 0xd
ARM GAS  C:\Users\jo\AppData\Local\Temp\ccnOsBUt.s 			page 172


 9644 013f 00       		.byte	0
 9645 0140 00       		.byte	0
 9646 0141 1C       		.uleb128 0x1c
 9647 0142 04       		.uleb128 0x4
 9648 0143 01       		.byte	0x1
 9649 0144 03       		.uleb128 0x3
 9650 0145 0E       		.uleb128 0xe
 9651 0146 0B       		.uleb128 0xb
 9652 0147 0B       		.uleb128 0xb
 9653 0148 3A       		.uleb128 0x3a
 9654 0149 0B       		.uleb128 0xb
 9655 014a 3B       		.uleb128 0x3b
 9656 014b 0B       		.uleb128 0xb
 9657 014c 01       		.uleb128 0x1
 9658 014d 13       		.uleb128 0x13
 9659 014e 00       		.byte	0
 9660 014f 00       		.byte	0
 9661 0150 1D       		.uleb128 0x1d
 9662 0151 13       		.uleb128 0x13
 9663 0152 01       		.byte	0x1
 9664 0153 03       		.uleb128 0x3
 9665 0154 0E       		.uleb128 0xe
 9666 0155 0B       		.uleb128 0xb
 9667 0156 05       		.uleb128 0x5
 9668 0157 3A       		.uleb128 0x3a
 9669 0158 0B       		.uleb128 0xb
 9670 0159 3B       		.uleb128 0x3b
 9671 015a 0B       		.uleb128 0xb
 9672 015b 01       		.uleb128 0x1
 9673 015c 13       		.uleb128 0x13
 9674 015d 00       		.byte	0
 9675 015e 00       		.byte	0
 9676 015f 1E       		.uleb128 0x1e
 9677 0160 0D       		.uleb128 0xd
 9678 0161 00       		.byte	0
 9679 0162 03       		.uleb128 0x3
 9680 0163 08       		.uleb128 0x8
 9681 0164 3A       		.uleb128 0x3a
 9682 0165 0B       		.uleb128 0xb
 9683 0166 3B       		.uleb128 0x3b
 9684 0167 0B       		.uleb128 0xb
 9685 0168 49       		.uleb128 0x49
 9686 0169 13       		.uleb128 0x13
 9687 016a 38       		.uleb128 0x38
 9688 016b 05       		.uleb128 0x5
 9689 016c 00       		.byte	0
 9690 016d 00       		.byte	0
 9691 016e 1F       		.uleb128 0x1f
 9692 016f 2E       		.uleb128 0x2e
 9693 0170 01       		.byte	0x1
 9694 0171 03       		.uleb128 0x3
 9695 0172 0E       		.uleb128 0xe
 9696 0173 3A       		.uleb128 0x3a
 9697 0174 0B       		.uleb128 0xb
 9698 0175 3B       		.uleb128 0x3b
 9699 0176 0B       		.uleb128 0xb
 9700 0177 27       		.uleb128 0x27
ARM GAS  C:\Users\jo\AppData\Local\Temp\ccnOsBUt.s 			page 173


 9701 0178 19       		.uleb128 0x19
 9702 0179 49       		.uleb128 0x49
 9703 017a 13       		.uleb128 0x13
 9704 017b 20       		.uleb128 0x20
 9705 017c 0B       		.uleb128 0xb
 9706 017d 01       		.uleb128 0x1
 9707 017e 13       		.uleb128 0x13
 9708 017f 00       		.byte	0
 9709 0180 00       		.byte	0
 9710 0181 20       		.uleb128 0x20
 9711 0182 05       		.uleb128 0x5
 9712 0183 00       		.byte	0
 9713 0184 03       		.uleb128 0x3
 9714 0185 08       		.uleb128 0x8
 9715 0186 3A       		.uleb128 0x3a
 9716 0187 0B       		.uleb128 0xb
 9717 0188 3B       		.uleb128 0x3b
 9718 0189 0B       		.uleb128 0xb
 9719 018a 49       		.uleb128 0x49
 9720 018b 13       		.uleb128 0x13
 9721 018c 00       		.byte	0
 9722 018d 00       		.byte	0
 9723 018e 21       		.uleb128 0x21
 9724 018f 05       		.uleb128 0x5
 9725 0190 00       		.byte	0
 9726 0191 03       		.uleb128 0x3
 9727 0192 0E       		.uleb128 0xe
 9728 0193 3A       		.uleb128 0x3a
 9729 0194 0B       		.uleb128 0xb
 9730 0195 3B       		.uleb128 0x3b
 9731 0196 0B       		.uleb128 0xb
 9732 0197 49       		.uleb128 0x49
 9733 0198 13       		.uleb128 0x13
 9734 0199 00       		.byte	0
 9735 019a 00       		.byte	0
 9736 019b 22       		.uleb128 0x22
 9737 019c 34       		.uleb128 0x34
 9738 019d 00       		.byte	0
 9739 019e 03       		.uleb128 0x3
 9740 019f 08       		.uleb128 0x8
 9741 01a0 3A       		.uleb128 0x3a
 9742 01a1 0B       		.uleb128 0xb
 9743 01a2 3B       		.uleb128 0x3b
 9744 01a3 0B       		.uleb128 0xb
 9745 01a4 49       		.uleb128 0x49
 9746 01a5 13       		.uleb128 0x13
 9747 01a6 00       		.byte	0
 9748 01a7 00       		.byte	0
 9749 01a8 23       		.uleb128 0x23
 9750 01a9 34       		.uleb128 0x34
 9751 01aa 00       		.byte	0
 9752 01ab 03       		.uleb128 0x3
 9753 01ac 0E       		.uleb128 0xe
 9754 01ad 3A       		.uleb128 0x3a
 9755 01ae 0B       		.uleb128 0xb
 9756 01af 3B       		.uleb128 0x3b
 9757 01b0 0B       		.uleb128 0xb
ARM GAS  C:\Users\jo\AppData\Local\Temp\ccnOsBUt.s 			page 174


 9758 01b1 49       		.uleb128 0x49
 9759 01b2 13       		.uleb128 0x13
 9760 01b3 00       		.byte	0
 9761 01b4 00       		.byte	0
 9762 01b5 24       		.uleb128 0x24
 9763 01b6 2E       		.uleb128 0x2e
 9764 01b7 01       		.byte	0x1
 9765 01b8 03       		.uleb128 0x3
 9766 01b9 0E       		.uleb128 0xe
 9767 01ba 3A       		.uleb128 0x3a
 9768 01bb 0B       		.uleb128 0xb
 9769 01bc 3B       		.uleb128 0x3b
 9770 01bd 05       		.uleb128 0x5
 9771 01be 27       		.uleb128 0x27
 9772 01bf 19       		.uleb128 0x19
 9773 01c0 20       		.uleb128 0x20
 9774 01c1 0B       		.uleb128 0xb
 9775 01c2 01       		.uleb128 0x1
 9776 01c3 13       		.uleb128 0x13
 9777 01c4 00       		.byte	0
 9778 01c5 00       		.byte	0
 9779 01c6 25       		.uleb128 0x25
 9780 01c7 05       		.uleb128 0x5
 9781 01c8 00       		.byte	0
 9782 01c9 03       		.uleb128 0x3
 9783 01ca 0E       		.uleb128 0xe
 9784 01cb 3A       		.uleb128 0x3a
 9785 01cc 0B       		.uleb128 0xb
 9786 01cd 3B       		.uleb128 0x3b
 9787 01ce 05       		.uleb128 0x5
 9788 01cf 49       		.uleb128 0x49
 9789 01d0 13       		.uleb128 0x13
 9790 01d1 00       		.byte	0
 9791 01d2 00       		.byte	0
 9792 01d3 26       		.uleb128 0x26
 9793 01d4 18       		.uleb128 0x18
 9794 01d5 00       		.byte	0
 9795 01d6 00       		.byte	0
 9796 01d7 00       		.byte	0
 9797 01d8 27       		.uleb128 0x27
 9798 01d9 2E       		.uleb128 0x2e
 9799 01da 01       		.byte	0x1
 9800 01db 31       		.uleb128 0x31
 9801 01dc 13       		.uleb128 0x13
 9802 01dd 11       		.uleb128 0x11
 9803 01de 01       		.uleb128 0x1
 9804 01df 12       		.uleb128 0x12
 9805 01e0 06       		.uleb128 0x6
 9806 01e1 40       		.uleb128 0x40
 9807 01e2 18       		.uleb128 0x18
 9808 01e3 9742     		.uleb128 0x2117
 9809 01e5 19       		.uleb128 0x19
 9810 01e6 01       		.uleb128 0x1
 9811 01e7 13       		.uleb128 0x13
 9812 01e8 00       		.byte	0
 9813 01e9 00       		.byte	0
 9814 01ea 28       		.uleb128 0x28
ARM GAS  C:\Users\jo\AppData\Local\Temp\ccnOsBUt.s 			page 175


 9815 01eb 05       		.uleb128 0x5
 9816 01ec 00       		.byte	0
 9817 01ed 31       		.uleb128 0x31
 9818 01ee 13       		.uleb128 0x13
 9819 01ef 02       		.uleb128 0x2
 9820 01f0 17       		.uleb128 0x17
 9821 01f1 00       		.byte	0
 9822 01f2 00       		.byte	0
 9823 01f3 29       		.uleb128 0x29
 9824 01f4 05       		.uleb128 0x5
 9825 01f5 00       		.byte	0
 9826 01f6 31       		.uleb128 0x31
 9827 01f7 13       		.uleb128 0x13
 9828 01f8 02       		.uleb128 0x2
 9829 01f9 18       		.uleb128 0x18
 9830 01fa 00       		.byte	0
 9831 01fb 00       		.byte	0
 9832 01fc 2A       		.uleb128 0x2a
 9833 01fd 34       		.uleb128 0x34
 9834 01fe 00       		.byte	0
 9835 01ff 31       		.uleb128 0x31
 9836 0200 13       		.uleb128 0x13
 9837 0201 02       		.uleb128 0x2
 9838 0202 17       		.uleb128 0x17
 9839 0203 00       		.byte	0
 9840 0204 00       		.byte	0
 9841 0205 2B       		.uleb128 0x2b
 9842 0206 898201   		.uleb128 0x4109
 9843 0209 01       		.byte	0x1
 9844 020a 11       		.uleb128 0x11
 9845 020b 01       		.uleb128 0x1
 9846 020c 31       		.uleb128 0x31
 9847 020d 13       		.uleb128 0x13
 9848 020e 01       		.uleb128 0x1
 9849 020f 13       		.uleb128 0x13
 9850 0210 00       		.byte	0
 9851 0211 00       		.byte	0
 9852 0212 2C       		.uleb128 0x2c
 9853 0213 8A8201   		.uleb128 0x410a
 9854 0216 00       		.byte	0
 9855 0217 02       		.uleb128 0x2
 9856 0218 18       		.uleb128 0x18
 9857 0219 9142     		.uleb128 0x2111
 9858 021b 18       		.uleb128 0x18
 9859 021c 00       		.byte	0
 9860 021d 00       		.byte	0
 9861 021e 2D       		.uleb128 0x2d
 9862 021f 898201   		.uleb128 0x4109
 9863 0222 00       		.byte	0
 9864 0223 11       		.uleb128 0x11
 9865 0224 01       		.uleb128 0x1
 9866 0225 31       		.uleb128 0x31
 9867 0226 13       		.uleb128 0x13
 9868 0227 00       		.byte	0
 9869 0228 00       		.byte	0
 9870 0229 2E       		.uleb128 0x2e
 9871 022a 898201   		.uleb128 0x4109
ARM GAS  C:\Users\jo\AppData\Local\Temp\ccnOsBUt.s 			page 176


 9872 022d 01       		.byte	0x1
 9873 022e 11       		.uleb128 0x11
 9874 022f 01       		.uleb128 0x1
 9875 0230 31       		.uleb128 0x31
 9876 0231 13       		.uleb128 0x13
 9877 0232 00       		.byte	0
 9878 0233 00       		.byte	0
 9879 0234 2F       		.uleb128 0x2f
 9880 0235 34       		.uleb128 0x34
 9881 0236 00       		.byte	0
 9882 0237 31       		.uleb128 0x31
 9883 0238 13       		.uleb128 0x13
 9884 0239 02       		.uleb128 0x2
 9885 023a 18       		.uleb128 0x18
 9886 023b 00       		.byte	0
 9887 023c 00       		.byte	0
 9888 023d 30       		.uleb128 0x30
 9889 023e 05       		.uleb128 0x5
 9890 023f 00       		.byte	0
 9891 0240 31       		.uleb128 0x31
 9892 0241 13       		.uleb128 0x13
 9893 0242 00       		.byte	0
 9894 0243 00       		.byte	0
 9895 0244 31       		.uleb128 0x31
 9896 0245 05       		.uleb128 0x5
 9897 0246 00       		.byte	0
 9898 0247 31       		.uleb128 0x31
 9899 0248 13       		.uleb128 0x13
 9900 0249 1C       		.uleb128 0x1c
 9901 024a 0B       		.uleb128 0xb
 9902 024b 00       		.byte	0
 9903 024c 00       		.byte	0
 9904 024d 32       		.uleb128 0x32
 9905 024e 1D       		.uleb128 0x1d
 9906 024f 01       		.byte	0x1
 9907 0250 31       		.uleb128 0x31
 9908 0251 13       		.uleb128 0x13
 9909 0252 11       		.uleb128 0x11
 9910 0253 01       		.uleb128 0x1
 9911 0254 12       		.uleb128 0x12
 9912 0255 06       		.uleb128 0x6
 9913 0256 58       		.uleb128 0x58
 9914 0257 0B       		.uleb128 0xb
 9915 0258 59       		.uleb128 0x59
 9916 0259 0B       		.uleb128 0xb
 9917 025a 01       		.uleb128 0x1
 9918 025b 13       		.uleb128 0x13
 9919 025c 00       		.byte	0
 9920 025d 00       		.byte	0
 9921 025e 33       		.uleb128 0x33
 9922 025f 2E       		.uleb128 0x2e
 9923 0260 01       		.byte	0x1
 9924 0261 03       		.uleb128 0x3
 9925 0262 0E       		.uleb128 0xe
 9926 0263 3A       		.uleb128 0x3a
 9927 0264 0B       		.uleb128 0xb
 9928 0265 3B       		.uleb128 0x3b
ARM GAS  C:\Users\jo\AppData\Local\Temp\ccnOsBUt.s 			page 177


 9929 0266 0B       		.uleb128 0xb
 9930 0267 27       		.uleb128 0x27
 9931 0268 19       		.uleb128 0x19
 9932 0269 49       		.uleb128 0x49
 9933 026a 13       		.uleb128 0x13
 9934 026b 11       		.uleb128 0x11
 9935 026c 01       		.uleb128 0x1
 9936 026d 12       		.uleb128 0x12
 9937 026e 06       		.uleb128 0x6
 9938 026f 40       		.uleb128 0x40
 9939 0270 18       		.uleb128 0x18
 9940 0271 9742     		.uleb128 0x2117
 9941 0273 19       		.uleb128 0x19
 9942 0274 01       		.uleb128 0x1
 9943 0275 13       		.uleb128 0x13
 9944 0276 00       		.byte	0
 9945 0277 00       		.byte	0
 9946 0278 34       		.uleb128 0x34
 9947 0279 05       		.uleb128 0x5
 9948 027a 00       		.byte	0
 9949 027b 03       		.uleb128 0x3
 9950 027c 0E       		.uleb128 0xe
 9951 027d 3A       		.uleb128 0x3a
 9952 027e 0B       		.uleb128 0xb
 9953 027f 3B       		.uleb128 0x3b
 9954 0280 0B       		.uleb128 0xb
 9955 0281 49       		.uleb128 0x49
 9956 0282 13       		.uleb128 0x13
 9957 0283 02       		.uleb128 0x2
 9958 0284 17       		.uleb128 0x17
 9959 0285 00       		.byte	0
 9960 0286 00       		.byte	0
 9961 0287 35       		.uleb128 0x35
 9962 0288 05       		.uleb128 0x5
 9963 0289 00       		.byte	0
 9964 028a 03       		.uleb128 0x3
 9965 028b 08       		.uleb128 0x8
 9966 028c 3A       		.uleb128 0x3a
 9967 028d 0B       		.uleb128 0xb
 9968 028e 3B       		.uleb128 0x3b
 9969 028f 0B       		.uleb128 0xb
 9970 0290 49       		.uleb128 0x49
 9971 0291 13       		.uleb128 0x13
 9972 0292 02       		.uleb128 0x2
 9973 0293 17       		.uleb128 0x17
 9974 0294 00       		.byte	0
 9975 0295 00       		.byte	0
 9976 0296 36       		.uleb128 0x36
 9977 0297 34       		.uleb128 0x34
 9978 0298 00       		.byte	0
 9979 0299 03       		.uleb128 0x3
 9980 029a 08       		.uleb128 0x8
 9981 029b 3A       		.uleb128 0x3a
 9982 029c 0B       		.uleb128 0xb
 9983 029d 3B       		.uleb128 0x3b
 9984 029e 0B       		.uleb128 0xb
 9985 029f 49       		.uleb128 0x49
ARM GAS  C:\Users\jo\AppData\Local\Temp\ccnOsBUt.s 			page 178


 9986 02a0 13       		.uleb128 0x13
 9987 02a1 02       		.uleb128 0x2
 9988 02a2 17       		.uleb128 0x17
 9989 02a3 00       		.byte	0
 9990 02a4 00       		.byte	0
 9991 02a5 37       		.uleb128 0x37
 9992 02a6 34       		.uleb128 0x34
 9993 02a7 00       		.byte	0
 9994 02a8 03       		.uleb128 0x3
 9995 02a9 0E       		.uleb128 0xe
 9996 02aa 3A       		.uleb128 0x3a
 9997 02ab 0B       		.uleb128 0xb
 9998 02ac 3B       		.uleb128 0x3b
 9999 02ad 0B       		.uleb128 0xb
 10000 02ae 49       		.uleb128 0x49
 10001 02af 13       		.uleb128 0x13
 10002 02b0 02       		.uleb128 0x2
 10003 02b1 17       		.uleb128 0x17
 10004 02b2 00       		.byte	0
 10005 02b3 00       		.byte	0
 10006 02b4 38       		.uleb128 0x38
 10007 02b5 1D       		.uleb128 0x1d
 10008 02b6 01       		.byte	0x1
 10009 02b7 31       		.uleb128 0x31
 10010 02b8 13       		.uleb128 0x13
 10011 02b9 11       		.uleb128 0x11
 10012 02ba 01       		.uleb128 0x1
 10013 02bb 12       		.uleb128 0x12
 10014 02bc 06       		.uleb128 0x6
 10015 02bd 58       		.uleb128 0x58
 10016 02be 0B       		.uleb128 0xb
 10017 02bf 59       		.uleb128 0x59
 10018 02c0 05       		.uleb128 0x5
 10019 02c1 01       		.uleb128 0x1
 10020 02c2 13       		.uleb128 0x13
 10021 02c3 00       		.byte	0
 10022 02c4 00       		.byte	0
 10023 02c5 39       		.uleb128 0x39
 10024 02c6 2E       		.uleb128 0x2e
 10025 02c7 01       		.byte	0x1
 10026 02c8 03       		.uleb128 0x3
 10027 02c9 0E       		.uleb128 0xe
 10028 02ca 3A       		.uleb128 0x3a
 10029 02cb 0B       		.uleb128 0xb
 10030 02cc 3B       		.uleb128 0x3b
 10031 02cd 05       		.uleb128 0x5
 10032 02ce 27       		.uleb128 0x27
 10033 02cf 19       		.uleb128 0x19
 10034 02d0 49       		.uleb128 0x49
 10035 02d1 13       		.uleb128 0x13
 10036 02d2 20       		.uleb128 0x20
 10037 02d3 0B       		.uleb128 0xb
 10038 02d4 01       		.uleb128 0x1
 10039 02d5 13       		.uleb128 0x13
 10040 02d6 00       		.byte	0
 10041 02d7 00       		.byte	0
 10042 02d8 3A       		.uleb128 0x3a
ARM GAS  C:\Users\jo\AppData\Local\Temp\ccnOsBUt.s 			page 179


 10043 02d9 05       		.uleb128 0x5
 10044 02da 00       		.byte	0
 10045 02db 03       		.uleb128 0x3
 10046 02dc 08       		.uleb128 0x8
 10047 02dd 3A       		.uleb128 0x3a
 10048 02de 0B       		.uleb128 0xb
 10049 02df 3B       		.uleb128 0x3b
 10050 02e0 05       		.uleb128 0x5
 10051 02e1 49       		.uleb128 0x49
 10052 02e2 13       		.uleb128 0x13
 10053 02e3 00       		.byte	0
 10054 02e4 00       		.byte	0
 10055 02e5 3B       		.uleb128 0x3b
 10056 02e6 2E       		.uleb128 0x2e
 10057 02e7 01       		.byte	0x1
 10058 02e8 3F       		.uleb128 0x3f
 10059 02e9 19       		.uleb128 0x19
 10060 02ea 03       		.uleb128 0x3
 10061 02eb 0E       		.uleb128 0xe
 10062 02ec 3A       		.uleb128 0x3a
 10063 02ed 0B       		.uleb128 0xb
 10064 02ee 3B       		.uleb128 0x3b
 10065 02ef 05       		.uleb128 0x5
 10066 02f0 27       		.uleb128 0x27
 10067 02f1 19       		.uleb128 0x19
 10068 02f2 49       		.uleb128 0x49
 10069 02f3 13       		.uleb128 0x13
 10070 02f4 11       		.uleb128 0x11
 10071 02f5 01       		.uleb128 0x1
 10072 02f6 12       		.uleb128 0x12
 10073 02f7 06       		.uleb128 0x6
 10074 02f8 40       		.uleb128 0x40
 10075 02f9 18       		.uleb128 0x18
 10076 02fa 9742     		.uleb128 0x2117
 10077 02fc 19       		.uleb128 0x19
 10078 02fd 01       		.uleb128 0x1
 10079 02fe 13       		.uleb128 0x13
 10080 02ff 00       		.byte	0
 10081 0300 00       		.byte	0
 10082 0301 3C       		.uleb128 0x3c
 10083 0302 05       		.uleb128 0x5
 10084 0303 00       		.byte	0
 10085 0304 03       		.uleb128 0x3
 10086 0305 08       		.uleb128 0x8
 10087 0306 3A       		.uleb128 0x3a
 10088 0307 0B       		.uleb128 0xb
 10089 0308 3B       		.uleb128 0x3b
 10090 0309 05       		.uleb128 0x5
 10091 030a 49       		.uleb128 0x49
 10092 030b 13       		.uleb128 0x13
 10093 030c 02       		.uleb128 0x2
 10094 030d 17       		.uleb128 0x17
 10095 030e 00       		.byte	0
 10096 030f 00       		.byte	0
 10097 0310 3D       		.uleb128 0x3d
 10098 0311 05       		.uleb128 0x5
 10099 0312 00       		.byte	0
ARM GAS  C:\Users\jo\AppData\Local\Temp\ccnOsBUt.s 			page 180


 10100 0313 03       		.uleb128 0x3
 10101 0314 0E       		.uleb128 0xe
 10102 0315 3A       		.uleb128 0x3a
 10103 0316 0B       		.uleb128 0xb
 10104 0317 3B       		.uleb128 0x3b
 10105 0318 05       		.uleb128 0x5
 10106 0319 49       		.uleb128 0x49
 10107 031a 13       		.uleb128 0x13
 10108 031b 02       		.uleb128 0x2
 10109 031c 17       		.uleb128 0x17
 10110 031d 00       		.byte	0
 10111 031e 00       		.byte	0
 10112 031f 3E       		.uleb128 0x3e
 10113 0320 34       		.uleb128 0x34
 10114 0321 00       		.byte	0
 10115 0322 03       		.uleb128 0x3
 10116 0323 0E       		.uleb128 0xe
 10117 0324 3A       		.uleb128 0x3a
 10118 0325 0B       		.uleb128 0xb
 10119 0326 3B       		.uleb128 0x3b
 10120 0327 05       		.uleb128 0x5
 10121 0328 49       		.uleb128 0x49
 10122 0329 13       		.uleb128 0x13
 10123 032a 02       		.uleb128 0x2
 10124 032b 17       		.uleb128 0x17
 10125 032c 00       		.byte	0
 10126 032d 00       		.byte	0
 10127 032e 3F       		.uleb128 0x3f
 10128 032f 34       		.uleb128 0x34
 10129 0330 00       		.byte	0
 10130 0331 03       		.uleb128 0x3
 10131 0332 08       		.uleb128 0x8
 10132 0333 3A       		.uleb128 0x3a
 10133 0334 0B       		.uleb128 0xb
 10134 0335 3B       		.uleb128 0x3b
 10135 0336 05       		.uleb128 0x5
 10136 0337 49       		.uleb128 0x49
 10137 0338 13       		.uleb128 0x13
 10138 0339 02       		.uleb128 0x2
 10139 033a 17       		.uleb128 0x17
 10140 033b 00       		.byte	0
 10141 033c 00       		.byte	0
 10142 033d 40       		.uleb128 0x40
 10143 033e 34       		.uleb128 0x34
 10144 033f 00       		.byte	0
 10145 0340 03       		.uleb128 0x3
 10146 0341 0E       		.uleb128 0xe
 10147 0342 3A       		.uleb128 0x3a
 10148 0343 0B       		.uleb128 0xb
 10149 0344 3B       		.uleb128 0x3b
 10150 0345 05       		.uleb128 0x5
 10151 0346 49       		.uleb128 0x49
 10152 0347 13       		.uleb128 0x13
 10153 0348 1C       		.uleb128 0x1c
 10154 0349 0B       		.uleb128 0xb
 10155 034a 00       		.byte	0
 10156 034b 00       		.byte	0
ARM GAS  C:\Users\jo\AppData\Local\Temp\ccnOsBUt.s 			page 181


 10157 034c 41       		.uleb128 0x41
 10158 034d 34       		.uleb128 0x34
 10159 034e 00       		.byte	0
 10160 034f 03       		.uleb128 0x3
 10161 0350 0E       		.uleb128 0xe
 10162 0351 3A       		.uleb128 0x3a
 10163 0352 0B       		.uleb128 0xb
 10164 0353 3B       		.uleb128 0x3b
 10165 0354 05       		.uleb128 0x5
 10166 0355 49       		.uleb128 0x49
 10167 0356 13       		.uleb128 0x13
 10168 0357 02       		.uleb128 0x2
 10169 0358 18       		.uleb128 0x18
 10170 0359 00       		.byte	0
 10171 035a 00       		.byte	0
 10172 035b 42       		.uleb128 0x42
 10173 035c 34       		.uleb128 0x34
 10174 035d 00       		.byte	0
 10175 035e 03       		.uleb128 0x3
 10176 035f 08       		.uleb128 0x8
 10177 0360 3A       		.uleb128 0x3a
 10178 0361 0B       		.uleb128 0xb
 10179 0362 3B       		.uleb128 0x3b
 10180 0363 05       		.uleb128 0x5
 10181 0364 49       		.uleb128 0x49
 10182 0365 13       		.uleb128 0x13
 10183 0366 00       		.byte	0
 10184 0367 00       		.byte	0
 10185 0368 43       		.uleb128 0x43
 10186 0369 0A       		.uleb128 0xa
 10187 036a 00       		.byte	0
 10188 036b 03       		.uleb128 0x3
 10189 036c 0E       		.uleb128 0xe
 10190 036d 3A       		.uleb128 0x3a
 10191 036e 0B       		.uleb128 0xb
 10192 036f 3B       		.uleb128 0x3b
 10193 0370 05       		.uleb128 0x5
 10194 0371 11       		.uleb128 0x11
 10195 0372 01       		.uleb128 0x1
 10196 0373 00       		.byte	0
 10197 0374 00       		.byte	0
 10198 0375 44       		.uleb128 0x44
 10199 0376 1D       		.uleb128 0x1d
 10200 0377 01       		.byte	0x1
 10201 0378 31       		.uleb128 0x31
 10202 0379 13       		.uleb128 0x13
 10203 037a 52       		.uleb128 0x52
 10204 037b 01       		.uleb128 0x1
 10205 037c 55       		.uleb128 0x55
 10206 037d 17       		.uleb128 0x17
 10207 037e 58       		.uleb128 0x58
 10208 037f 0B       		.uleb128 0xb
 10209 0380 59       		.uleb128 0x59
 10210 0381 05       		.uleb128 0x5
 10211 0382 01       		.uleb128 0x1
 10212 0383 13       		.uleb128 0x13
 10213 0384 00       		.byte	0
ARM GAS  C:\Users\jo\AppData\Local\Temp\ccnOsBUt.s 			page 182


 10214 0385 00       		.byte	0
 10215 0386 45       		.uleb128 0x45
 10216 0387 0B       		.uleb128 0xb
 10217 0388 01       		.byte	0x1
 10218 0389 55       		.uleb128 0x55
 10219 038a 17       		.uleb128 0x17
 10220 038b 01       		.uleb128 0x1
 10221 038c 13       		.uleb128 0x13
 10222 038d 00       		.byte	0
 10223 038e 00       		.byte	0
 10224 038f 46       		.uleb128 0x46
 10225 0390 34       		.uleb128 0x34
 10226 0391 00       		.byte	0
 10227 0392 03       		.uleb128 0x3
 10228 0393 0E       		.uleb128 0xe
 10229 0394 3A       		.uleb128 0x3a
 10230 0395 0B       		.uleb128 0xb
 10231 0396 3B       		.uleb128 0x3b
 10232 0397 05       		.uleb128 0x5
 10233 0398 49       		.uleb128 0x49
 10234 0399 13       		.uleb128 0x13
 10235 039a 00       		.byte	0
 10236 039b 00       		.byte	0
 10237 039c 47       		.uleb128 0x47
 10238 039d 8A8201   		.uleb128 0x410a
 10239 03a0 00       		.byte	0
 10240 03a1 31       		.uleb128 0x31
 10241 03a2 13       		.uleb128 0x13
 10242 03a3 9142     		.uleb128 0x2111
 10243 03a5 18       		.uleb128 0x18
 10244 03a6 00       		.byte	0
 10245 03a7 00       		.byte	0
 10246 03a8 48       		.uleb128 0x48
 10247 03a9 26       		.uleb128 0x26
 10248 03aa 00       		.byte	0
 10249 03ab 00       		.byte	0
 10250 03ac 00       		.byte	0
 10251 03ad 49       		.uleb128 0x49
 10252 03ae 0B       		.uleb128 0xb
 10253 03af 01       		.byte	0x1
 10254 03b0 11       		.uleb128 0x11
 10255 03b1 01       		.uleb128 0x1
 10256 03b2 12       		.uleb128 0x12
 10257 03b3 06       		.uleb128 0x6
 10258 03b4 01       		.uleb128 0x1
 10259 03b5 13       		.uleb128 0x13
 10260 03b6 00       		.byte	0
 10261 03b7 00       		.byte	0
 10262 03b8 4A       		.uleb128 0x4a
 10263 03b9 2E       		.uleb128 0x2e
 10264 03ba 01       		.byte	0x1
 10265 03bb 3F       		.uleb128 0x3f
 10266 03bc 19       		.uleb128 0x19
 10267 03bd 03       		.uleb128 0x3
 10268 03be 0E       		.uleb128 0xe
 10269 03bf 3A       		.uleb128 0x3a
 10270 03c0 0B       		.uleb128 0xb
ARM GAS  C:\Users\jo\AppData\Local\Temp\ccnOsBUt.s 			page 183


 10271 03c1 3B       		.uleb128 0x3b
 10272 03c2 0B       		.uleb128 0xb
 10273 03c3 27       		.uleb128 0x27
 10274 03c4 19       		.uleb128 0x19
 10275 03c5 49       		.uleb128 0x49
 10276 03c6 13       		.uleb128 0x13
 10277 03c7 11       		.uleb128 0x11
 10278 03c8 01       		.uleb128 0x1
 10279 03c9 12       		.uleb128 0x12
 10280 03ca 06       		.uleb128 0x6
 10281 03cb 40       		.uleb128 0x40
 10282 03cc 18       		.uleb128 0x18
 10283 03cd 9742     		.uleb128 0x2117
 10284 03cf 19       		.uleb128 0x19
 10285 03d0 01       		.uleb128 0x1
 10286 03d1 13       		.uleb128 0x13
 10287 03d2 00       		.byte	0
 10288 03d3 00       		.byte	0
 10289 03d4 4B       		.uleb128 0x4b
 10290 03d5 898201   		.uleb128 0x4109
 10291 03d8 01       		.byte	0x1
 10292 03d9 11       		.uleb128 0x11
 10293 03da 01       		.uleb128 0x1
 10294 03db 9542     		.uleb128 0x2115
 10295 03dd 19       		.uleb128 0x19
 10296 03de 31       		.uleb128 0x31
 10297 03df 13       		.uleb128 0x13
 10298 03e0 00       		.byte	0
 10299 03e1 00       		.byte	0
 10300 03e2 4C       		.uleb128 0x4c
 10301 03e3 0B       		.uleb128 0xb
 10302 03e4 01       		.byte	0x1
 10303 03e5 00       		.byte	0
 10304 03e6 00       		.byte	0
 10305 03e7 4D       		.uleb128 0x4d
 10306 03e8 0B       		.uleb128 0xb
 10307 03e9 01       		.byte	0x1
 10308 03ea 55       		.uleb128 0x55
 10309 03eb 17       		.uleb128 0x17
 10310 03ec 00       		.byte	0
 10311 03ed 00       		.byte	0
 10312 03ee 4E       		.uleb128 0x4e
 10313 03ef 898201   		.uleb128 0x4109
 10314 03f2 01       		.byte	0x1
 10315 03f3 11       		.uleb128 0x11
 10316 03f4 01       		.uleb128 0x1
 10317 03f5 9542     		.uleb128 0x2115
 10318 03f7 19       		.uleb128 0x19
 10319 03f8 31       		.uleb128 0x31
 10320 03f9 13       		.uleb128 0x13
 10321 03fa 01       		.uleb128 0x1
 10322 03fb 13       		.uleb128 0x13
 10323 03fc 00       		.byte	0
 10324 03fd 00       		.byte	0
 10325 03fe 4F       		.uleb128 0x4f
 10326 03ff 2E       		.uleb128 0x2e
 10327 0400 01       		.byte	0x1
ARM GAS  C:\Users\jo\AppData\Local\Temp\ccnOsBUt.s 			page 184


 10328 0401 3F       		.uleb128 0x3f
 10329 0402 19       		.uleb128 0x19
 10330 0403 03       		.uleb128 0x3
 10331 0404 0E       		.uleb128 0xe
 10332 0405 3A       		.uleb128 0x3a
 10333 0406 0B       		.uleb128 0xb
 10334 0407 3B       		.uleb128 0x3b
 10335 0408 05       		.uleb128 0x5
 10336 0409 27       		.uleb128 0x27
 10337 040a 19       		.uleb128 0x19
 10338 040b 11       		.uleb128 0x11
 10339 040c 01       		.uleb128 0x1
 10340 040d 12       		.uleb128 0x12
 10341 040e 06       		.uleb128 0x6
 10342 040f 40       		.uleb128 0x40
 10343 0410 18       		.uleb128 0x18
 10344 0411 9742     		.uleb128 0x2117
 10345 0413 19       		.uleb128 0x19
 10346 0414 01       		.uleb128 0x1
 10347 0415 13       		.uleb128 0x13
 10348 0416 00       		.byte	0
 10349 0417 00       		.byte	0
 10350 0418 50       		.uleb128 0x50
 10351 0419 898201   		.uleb128 0x4109
 10352 041c 00       		.byte	0
 10353 041d 11       		.uleb128 0x11
 10354 041e 01       		.uleb128 0x1
 10355 041f 9542     		.uleb128 0x2115
 10356 0421 19       		.uleb128 0x19
 10357 0422 31       		.uleb128 0x31
 10358 0423 13       		.uleb128 0x13
 10359 0424 00       		.byte	0
 10360 0425 00       		.byte	0
 10361 0426 51       		.uleb128 0x51
 10362 0427 34       		.uleb128 0x34
 10363 0428 00       		.byte	0
 10364 0429 03       		.uleb128 0x3
 10365 042a 0E       		.uleb128 0xe
 10366 042b 3A       		.uleb128 0x3a
 10367 042c 0B       		.uleb128 0xb
 10368 042d 3B       		.uleb128 0x3b
 10369 042e 05       		.uleb128 0x5
 10370 042f 49       		.uleb128 0x49
 10371 0430 13       		.uleb128 0x13
 10372 0431 3F       		.uleb128 0x3f
 10373 0432 19       		.uleb128 0x19
 10374 0433 3C       		.uleb128 0x3c
 10375 0434 19       		.uleb128 0x19
 10376 0435 00       		.byte	0
 10377 0436 00       		.byte	0
 10378 0437 52       		.uleb128 0x52
 10379 0438 34       		.uleb128 0x34
 10380 0439 00       		.byte	0
 10381 043a 03       		.uleb128 0x3
 10382 043b 08       		.uleb128 0x8
 10383 043c 3A       		.uleb128 0x3a
 10384 043d 0B       		.uleb128 0xb
ARM GAS  C:\Users\jo\AppData\Local\Temp\ccnOsBUt.s 			page 185


 10385 043e 3B       		.uleb128 0x3b
 10386 043f 05       		.uleb128 0x5
 10387 0440 49       		.uleb128 0x49
 10388 0441 13       		.uleb128 0x13
 10389 0442 3F       		.uleb128 0x3f
 10390 0443 19       		.uleb128 0x19
 10391 0444 3C       		.uleb128 0x3c
 10392 0445 19       		.uleb128 0x19
 10393 0446 00       		.byte	0
 10394 0447 00       		.byte	0
 10395 0448 53       		.uleb128 0x53
 10396 0449 34       		.uleb128 0x34
 10397 044a 00       		.byte	0
 10398 044b 03       		.uleb128 0x3
 10399 044c 0E       		.uleb128 0xe
 10400 044d 3A       		.uleb128 0x3a
 10401 044e 0B       		.uleb128 0xb
 10402 044f 3B       		.uleb128 0x3b
 10403 0450 0B       		.uleb128 0xb
 10404 0451 49       		.uleb128 0x49
 10405 0452 13       		.uleb128 0x13
 10406 0453 3F       		.uleb128 0x3f
 10407 0454 19       		.uleb128 0x19
 10408 0455 3C       		.uleb128 0x3c
 10409 0456 19       		.uleb128 0x19
 10410 0457 00       		.byte	0
 10411 0458 00       		.byte	0
 10412 0459 54       		.uleb128 0x54
 10413 045a 2E       		.uleb128 0x2e
 10414 045b 01       		.byte	0x1
 10415 045c 3F       		.uleb128 0x3f
 10416 045d 19       		.uleb128 0x19
 10417 045e 03       		.uleb128 0x3
 10418 045f 0E       		.uleb128 0xe
 10419 0460 3A       		.uleb128 0x3a
 10420 0461 0B       		.uleb128 0xb
 10421 0462 3B       		.uleb128 0x3b
 10422 0463 0B       		.uleb128 0xb
 10423 0464 27       		.uleb128 0x27
 10424 0465 19       		.uleb128 0x19
 10425 0466 49       		.uleb128 0x49
 10426 0467 13       		.uleb128 0x13
 10427 0468 3C       		.uleb128 0x3c
 10428 0469 19       		.uleb128 0x19
 10429 046a 01       		.uleb128 0x1
 10430 046b 13       		.uleb128 0x13
 10431 046c 00       		.byte	0
 10432 046d 00       		.byte	0
 10433 046e 55       		.uleb128 0x55
 10434 046f 2E       		.uleb128 0x2e
 10435 0470 01       		.byte	0x1
 10436 0471 3F       		.uleb128 0x3f
 10437 0472 19       		.uleb128 0x19
 10438 0473 03       		.uleb128 0x3
 10439 0474 0E       		.uleb128 0xe
 10440 0475 3A       		.uleb128 0x3a
 10441 0476 0B       		.uleb128 0xb
ARM GAS  C:\Users\jo\AppData\Local\Temp\ccnOsBUt.s 			page 186


 10442 0477 3B       		.uleb128 0x3b
 10443 0478 05       		.uleb128 0x5
 10444 0479 27       		.uleb128 0x27
 10445 047a 19       		.uleb128 0x19
 10446 047b 3C       		.uleb128 0x3c
 10447 047c 19       		.uleb128 0x19
 10448 047d 01       		.uleb128 0x1
 10449 047e 13       		.uleb128 0x13
 10450 047f 00       		.byte	0
 10451 0480 00       		.byte	0
 10452 0481 56       		.uleb128 0x56
 10453 0482 2E       		.uleb128 0x2e
 10454 0483 01       		.byte	0x1
 10455 0484 3F       		.uleb128 0x3f
 10456 0485 19       		.uleb128 0x19
 10457 0486 03       		.uleb128 0x3
 10458 0487 0E       		.uleb128 0xe
 10459 0488 3A       		.uleb128 0x3a
 10460 0489 0B       		.uleb128 0xb
 10461 048a 3B       		.uleb128 0x3b
 10462 048b 0B       		.uleb128 0xb
 10463 048c 27       		.uleb128 0x27
 10464 048d 19       		.uleb128 0x19
 10465 048e 3C       		.uleb128 0x3c
 10466 048f 19       		.uleb128 0x19
 10467 0490 01       		.uleb128 0x1
 10468 0491 13       		.uleb128 0x13
 10469 0492 00       		.byte	0
 10470 0493 00       		.byte	0
 10471 0494 57       		.uleb128 0x57
 10472 0495 2E       		.uleb128 0x2e
 10473 0496 01       		.byte	0x1
 10474 0497 3F       		.uleb128 0x3f
 10475 0498 19       		.uleb128 0x19
 10476 0499 03       		.uleb128 0x3
 10477 049a 0E       		.uleb128 0xe
 10478 049b 27       		.uleb128 0x27
 10479 049c 19       		.uleb128 0x19
 10480 049d 49       		.uleb128 0x49
 10481 049e 13       		.uleb128 0x13
 10482 049f 34       		.uleb128 0x34
 10483 04a0 19       		.uleb128 0x19
 10484 04a1 3C       		.uleb128 0x3c
 10485 04a2 19       		.uleb128 0x19
 10486 04a3 01       		.uleb128 0x1
 10487 04a4 13       		.uleb128 0x13
 10488 04a5 00       		.byte	0
 10489 04a6 00       		.byte	0
 10490 04a7 58       		.uleb128 0x58
 10491 04a8 2E       		.uleb128 0x2e
 10492 04a9 01       		.byte	0x1
 10493 04aa 3F       		.uleb128 0x3f
 10494 04ab 19       		.uleb128 0x19
 10495 04ac 03       		.uleb128 0x3
 10496 04ad 0E       		.uleb128 0xe
 10497 04ae 3A       		.uleb128 0x3a
 10498 04af 0B       		.uleb128 0xb
ARM GAS  C:\Users\jo\AppData\Local\Temp\ccnOsBUt.s 			page 187


 10499 04b0 3B       		.uleb128 0x3b
 10500 04b1 05       		.uleb128 0x5
 10501 04b2 27       		.uleb128 0x27
 10502 04b3 19       		.uleb128 0x19
 10503 04b4 49       		.uleb128 0x49
 10504 04b5 13       		.uleb128 0x13
 10505 04b6 3C       		.uleb128 0x3c
 10506 04b7 19       		.uleb128 0x19
 10507 04b8 01       		.uleb128 0x1
 10508 04b9 13       		.uleb128 0x13
 10509 04ba 00       		.byte	0
 10510 04bb 00       		.byte	0
 10511 04bc 59       		.uleb128 0x59
 10512 04bd 2E       		.uleb128 0x2e
 10513 04be 01       		.byte	0x1
 10514 04bf 3F       		.uleb128 0x3f
 10515 04c0 19       		.uleb128 0x19
 10516 04c1 03       		.uleb128 0x3
 10517 04c2 0E       		.uleb128 0xe
 10518 04c3 3A       		.uleb128 0x3a
 10519 04c4 0B       		.uleb128 0xb
 10520 04c5 3B       		.uleb128 0x3b
 10521 04c6 0B       		.uleb128 0xb
 10522 04c7 27       		.uleb128 0x27
 10523 04c8 19       		.uleb128 0x19
 10524 04c9 49       		.uleb128 0x49
 10525 04ca 13       		.uleb128 0x13
 10526 04cb 3C       		.uleb128 0x3c
 10527 04cc 19       		.uleb128 0x19
 10528 04cd 00       		.byte	0
 10529 04ce 00       		.byte	0
 10530 04cf 00       		.byte	0
 10531              		.section	.debug_loc,"",%progbits
 10532              	.Ldebug_loc0:
 10533              	.LLST0:
 10534 0000 00000000 		.4byte	.LVL0
 10535 0004 1F000000 		.4byte	.LVL1-1
 10536 0008 0100     		.2byte	0x1
 10537 000a 52       		.byte	0x52
 10538 000b 1F000000 		.4byte	.LVL1-1
 10539 000f 50000000 		.4byte	.LVL5
 10540 0013 0100     		.2byte	0x1
 10541 0015 5A       		.byte	0x5a
 10542 0016 50000000 		.4byte	.LVL5
 10543 001a B6000000 		.4byte	.LVL13
 10544 001e 0400     		.2byte	0x4
 10545 0020 F3       		.byte	0xf3
 10546 0021 01       		.uleb128 0x1
 10547 0022 52       		.byte	0x52
 10548 0023 9F       		.byte	0x9f
 10549 0024 B6000000 		.4byte	.LVL13
 10550 0028 C2000000 		.4byte	.LVL16
 10551 002c 0100     		.2byte	0x1
 10552 002e 5A       		.byte	0x5a
 10553 002f C2000000 		.4byte	.LVL16
 10554 0033 C8000000 		.4byte	.LFE272
 10555 0037 0400     		.2byte	0x4
ARM GAS  C:\Users\jo\AppData\Local\Temp\ccnOsBUt.s 			page 188


 10556 0039 F3       		.byte	0xf3
 10557 003a 01       		.uleb128 0x1
 10558 003b 52       		.byte	0x52
 10559 003c 9F       		.byte	0x9f
 10560 003d 00000000 		.4byte	0
 10561 0041 00000000 		.4byte	0
 10562              	.LLST1:
 10563 0045 00000000 		.4byte	.LVL0
 10564 0049 1F000000 		.4byte	.LVL1-1
 10565 004d 0100     		.2byte	0x1
 10566 004f 53       		.byte	0x53
 10567 0050 1F000000 		.4byte	.LVL1-1
 10568 0054 C8000000 		.4byte	.LFE272
 10569 0058 0400     		.2byte	0x4
 10570 005a F3       		.byte	0xf3
 10571 005b 01       		.uleb128 0x1
 10572 005c 53       		.byte	0x53
 10573 005d 9F       		.byte	0x9f
 10574 005e 00000000 		.4byte	0
 10575 0062 00000000 		.4byte	0
 10576              	.LLST2:
 10577 0066 00000000 		.4byte	.LVL0
 10578 006a 9E000000 		.4byte	.LVL11
 10579 006e 0200     		.2byte	0x2
 10580 0070 91       		.byte	0x91
 10581 0071 00       		.sleb128 0
 10582 0072 9E000000 		.4byte	.LVL11
 10583 0076 C2000000 		.4byte	.LVL16
 10584 007a 0200     		.2byte	0x2
 10585 007c 91       		.byte	0x91
 10586 007d 00       		.sleb128 0
 10587 007e C2000000 		.4byte	.LVL16
 10588 0082 C8000000 		.4byte	.LFE272
 10589 0086 0200     		.2byte	0x2
 10590 0088 7D       		.byte	0x7d
 10591 0089 00       		.sleb128 0
 10592 008a 00000000 		.4byte	0
 10593 008e 00000000 		.4byte	0
 10594              	.LLST3:
 10595 0092 00000000 		.4byte	.LVL0
 10596 0096 9E000000 		.4byte	.LVL11
 10597 009a 0200     		.2byte	0x2
 10598 009c 91       		.byte	0x91
 10599 009d 04       		.sleb128 4
 10600 009e 9E000000 		.4byte	.LVL11
 10601 00a2 C2000000 		.4byte	.LVL16
 10602 00a6 0200     		.2byte	0x2
 10603 00a8 91       		.byte	0x91
 10604 00a9 04       		.sleb128 4
 10605 00aa C2000000 		.4byte	.LVL16
 10606 00ae C8000000 		.4byte	.LFE272
 10607 00b2 0200     		.2byte	0x2
 10608 00b4 7D       		.byte	0x7d
 10609 00b5 04       		.sleb128 4
 10610 00b6 00000000 		.4byte	0
 10611 00ba 00000000 		.4byte	0
 10612              	.LLST4:
ARM GAS  C:\Users\jo\AppData\Local\Temp\ccnOsBUt.s 			page 189


 10613 00be 2E000000 		.4byte	.LVL2
 10614 00c2 48000000 		.4byte	.LVL3
 10615 00c6 0100     		.2byte	0x1
 10616 00c8 50       		.byte	0x50
 10617 00c9 48000000 		.4byte	.LVL3
 10618 00cd B6000000 		.4byte	.LVL13
 10619 00d1 0100     		.2byte	0x1
 10620 00d3 54       		.byte	0x54
 10621 00d4 B6000000 		.4byte	.LVL13
 10622 00d8 B8000000 		.4byte	.LVL14
 10623 00dc 0100     		.2byte	0x1
 10624 00de 50       		.byte	0x50
 10625 00df B8000000 		.4byte	.LVL14
 10626 00e3 C2000000 		.4byte	.LVL16
 10627 00e7 0100     		.2byte	0x1
 10628 00e9 54       		.byte	0x54
 10629 00ea C2000000 		.4byte	.LVL16
 10630 00ee C8000000 		.4byte	.LFE272
 10631 00f2 0100     		.2byte	0x1
 10632 00f4 50       		.byte	0x50
 10633 00f5 00000000 		.4byte	0
 10634 00f9 00000000 		.4byte	0
 10635              	.LLST5:
 10636 00fd 2E000000 		.4byte	.LVL2
 10637 0101 88000000 		.4byte	.LVL9
 10638 0105 0100     		.2byte	0x1
 10639 0107 55       		.byte	0x55
 10640 0108 88000000 		.4byte	.LVL9
 10641 010c 9E000000 		.4byte	.LVL11
 10642 0110 2E00     		.2byte	0x2e
 10643 0112 3C       		.byte	0x3c
 10644 0113 30       		.byte	0x30
 10645 0114 91       		.byte	0x91
 10646 0115 04       		.sleb128 4
 10647 0116 94       		.byte	0x94
 10648 0117 01       		.byte	0x1
 10649 0118 32       		.byte	0x32
 10650 0119 1A       		.byte	0x1a
 10651 011a 08       		.byte	0x8
 10652 011b FF       		.byte	0xff
 10653 011c 1A       		.byte	0x1a
 10654 011d 30       		.byte	0x30
 10655 011e 2E       		.byte	0x2e
 10656 011f 28       		.byte	0x28
 10657 0120 0100     		.2byte	0x1
 10658 0122 16       		.byte	0x16
 10659 0123 13       		.byte	0x13
 10660 0124 34       		.byte	0x34
 10661 0125 91       		.byte	0x91
 10662 0126 04       		.sleb128 4
 10663 0127 94       		.byte	0x94
 10664 0128 01       		.byte	0x1
 10665 0129 31       		.byte	0x31
 10666 012a 1A       		.byte	0x1a
 10667 012b 08       		.byte	0x8
 10668 012c FF       		.byte	0xff
 10669 012d 1A       		.byte	0x1a
ARM GAS  C:\Users\jo\AppData\Local\Temp\ccnOsBUt.s 			page 190


 10670 012e 91       		.byte	0x91
 10671 012f 04       		.sleb128 4
 10672 0130 94       		.byte	0x94
 10673 0131 01       		.byte	0x1
 10674 0132 31       		.byte	0x31
 10675 0133 1A       		.byte	0x1a
 10676 0134 08       		.byte	0x8
 10677 0135 FF       		.byte	0xff
 10678 0136 1A       		.byte	0x1a
 10679 0137 30       		.byte	0x30
 10680 0138 2E       		.byte	0x2e
 10681 0139 28       		.byte	0x28
 10682 013a 0100     		.2byte	0x1
 10683 013c 16       		.byte	0x16
 10684 013d 13       		.byte	0x13
 10685 013e 22       		.byte	0x22
 10686 013f 9F       		.byte	0x9f
 10687 0140 9E000000 		.4byte	.LVL11
 10688 0144 C2000000 		.4byte	.LVL16
 10689 0148 0100     		.2byte	0x1
 10690 014a 55       		.byte	0x55
 10691 014b C2000000 		.4byte	.LVL16
 10692 014f C8000000 		.4byte	.LFE272
 10693 0153 2E00     		.2byte	0x2e
 10694 0155 3C       		.byte	0x3c
 10695 0156 30       		.byte	0x30
 10696 0157 7D       		.byte	0x7d
 10697 0158 04       		.sleb128 4
 10698 0159 94       		.byte	0x94
 10699 015a 01       		.byte	0x1
 10700 015b 32       		.byte	0x32
 10701 015c 1A       		.byte	0x1a
 10702 015d 08       		.byte	0x8
 10703 015e FF       		.byte	0xff
 10704 015f 1A       		.byte	0x1a
 10705 0160 30       		.byte	0x30
 10706 0161 2E       		.byte	0x2e
 10707 0162 28       		.byte	0x28
 10708 0163 0100     		.2byte	0x1
 10709 0165 16       		.byte	0x16
 10710 0166 13       		.byte	0x13
 10711 0167 34       		.byte	0x34
 10712 0168 7D       		.byte	0x7d
 10713 0169 04       		.sleb128 4
 10714 016a 94       		.byte	0x94
 10715 016b 01       		.byte	0x1
 10716 016c 31       		.byte	0x31
 10717 016d 1A       		.byte	0x1a
 10718 016e 08       		.byte	0x8
 10719 016f FF       		.byte	0xff
 10720 0170 1A       		.byte	0x1a
 10721 0171 7D       		.byte	0x7d
 10722 0172 04       		.sleb128 4
 10723 0173 94       		.byte	0x94
 10724 0174 01       		.byte	0x1
 10725 0175 31       		.byte	0x31
 10726 0176 1A       		.byte	0x1a
ARM GAS  C:\Users\jo\AppData\Local\Temp\ccnOsBUt.s 			page 191


 10727 0177 08       		.byte	0x8
 10728 0178 FF       		.byte	0xff
 10729 0179 1A       		.byte	0x1a
 10730 017a 30       		.byte	0x30
 10731 017b 2E       		.byte	0x2e
 10732 017c 28       		.byte	0x28
 10733 017d 0100     		.2byte	0x1
 10734 017f 16       		.byte	0x16
 10735 0180 13       		.byte	0x13
 10736 0181 22       		.byte	0x22
 10737 0182 9F       		.byte	0x9f
 10738 0183 00000000 		.4byte	0
 10739 0187 00000000 		.4byte	0
 10740              	.LLST6:
 10741 018b 00000000 		.4byte	.LVL17
 10742 018f 0E000000 		.4byte	.LVL18
 10743 0193 0100     		.2byte	0x1
 10744 0195 50       		.byte	0x50
 10745 0196 0E000000 		.4byte	.LVL18
 10746 019a 28000000 		.4byte	.LFE273
 10747 019e 0400     		.2byte	0x4
 10748 01a0 F3       		.byte	0xf3
 10749 01a1 01       		.uleb128 0x1
 10750 01a2 50       		.byte	0x50
 10751 01a3 9F       		.byte	0x9f
 10752 01a4 00000000 		.4byte	0
 10753 01a8 00000000 		.4byte	0
 10754              	.LLST7:
 10755 01ac 00000000 		.4byte	.LVL20
 10756 01b0 0E000000 		.4byte	.LVL22
 10757 01b4 0100     		.2byte	0x1
 10758 01b6 50       		.byte	0x50
 10759 01b7 0E000000 		.4byte	.LVL22
 10760 01bb 8C000000 		.4byte	.LFE274
 10761 01bf 0100     		.2byte	0x1
 10762 01c1 55       		.byte	0x55
 10763 01c2 00000000 		.4byte	0
 10764 01c6 00000000 		.4byte	0
 10765              	.LLST8:
 10766 01ca 00000000 		.4byte	.LVL20
 10767 01ce 04000000 		.4byte	.LVL21
 10768 01d2 0100     		.2byte	0x1
 10769 01d4 51       		.byte	0x51
 10770 01d5 04000000 		.4byte	.LVL21
 10771 01d9 8C000000 		.4byte	.LFE274
 10772 01dd 0400     		.2byte	0x4
 10773 01df F3       		.byte	0xf3
 10774 01e0 01       		.uleb128 0x1
 10775 01e1 51       		.byte	0x51
 10776 01e2 9F       		.byte	0x9f
 10777 01e3 00000000 		.4byte	0
 10778 01e7 00000000 		.4byte	0
 10779              	.LLST9:
 10780 01eb 00000000 		.4byte	.LVL20
 10781 01ef 10000000 		.4byte	.LVL23
 10782 01f3 0100     		.2byte	0x1
 10783 01f5 52       		.byte	0x52
ARM GAS  C:\Users\jo\AppData\Local\Temp\ccnOsBUt.s 			page 192


 10784 01f6 10000000 		.4byte	.LVL23
 10785 01fa 8C000000 		.4byte	.LFE274
 10786 01fe 0100     		.2byte	0x1
 10787 0200 57       		.byte	0x57
 10788 0201 00000000 		.4byte	0
 10789 0205 00000000 		.4byte	0
 10790              	.LLST10:
 10791 0209 22000000 		.4byte	.LVL26
 10792 020d 5E000000 		.4byte	.LVL32
 10793 0211 0100     		.2byte	0x1
 10794 0213 54       		.byte	0x54
 10795 0214 00000000 		.4byte	0
 10796 0218 00000000 		.4byte	0
 10797              	.LLST11:
 10798 021c 14000000 		.4byte	.LVL24
 10799 0220 1E000000 		.4byte	.LVL25
 10800 0224 0100     		.2byte	0x1
 10801 0226 50       		.byte	0x50
 10802 0227 1E000000 		.4byte	.LVL25
 10803 022b 64000000 		.4byte	.LVL33
 10804 022f 0100     		.2byte	0x1
 10805 0231 56       		.byte	0x56
 10806 0232 64000000 		.4byte	.LVL33
 10807 0236 6E000000 		.4byte	.LVL34
 10808 023a 0100     		.2byte	0x1
 10809 023c 50       		.byte	0x50
 10810 023d 6E000000 		.4byte	.LVL34
 10811 0241 8C000000 		.4byte	.LFE274
 10812 0245 0100     		.2byte	0x1
 10813 0247 56       		.byte	0x56
 10814 0248 00000000 		.4byte	0
 10815 024c 00000000 		.4byte	0
 10816              	.LLST12:
 10817 0250 00000000 		.4byte	.LVL37
 10818 0254 39000000 		.4byte	.LVL45-1
 10819 0258 0100     		.2byte	0x1
 10820 025a 50       		.byte	0x50
 10821 025b 39000000 		.4byte	.LVL45-1
 10822 025f 6A000000 		.4byte	.LVL49
 10823 0263 0400     		.2byte	0x4
 10824 0265 F3       		.byte	0xf3
 10825 0266 01       		.uleb128 0x1
 10826 0267 50       		.byte	0x50
 10827 0268 9F       		.byte	0x9f
 10828 0269 6A000000 		.4byte	.LVL49
 10829 026d 90000000 		.4byte	.LFE259
 10830 0271 0100     		.2byte	0x1
 10831 0273 50       		.byte	0x50
 10832 0274 00000000 		.4byte	0
 10833 0278 00000000 		.4byte	0
 10834              	.LLST13:
 10835 027c 00000000 		.4byte	.LVL37
 10836 0280 0E000000 		.4byte	.LVL39
 10837 0284 0100     		.2byte	0x1
 10838 0286 51       		.byte	0x51
 10839 0287 0E000000 		.4byte	.LVL39
 10840 028b 90000000 		.4byte	.LFE259
ARM GAS  C:\Users\jo\AppData\Local\Temp\ccnOsBUt.s 			page 193


 10841 028f 0400     		.2byte	0x4
 10842 0291 F3       		.byte	0xf3
 10843 0292 01       		.uleb128 0x1
 10844 0293 51       		.byte	0x51
 10845 0294 9F       		.byte	0x9f
 10846 0295 00000000 		.4byte	0
 10847 0299 00000000 		.4byte	0
 10848              	.LLST14:
 10849 029d 00000000 		.4byte	.LVL37
 10850 02a1 26000000 		.4byte	.LVL41
 10851 02a5 0100     		.2byte	0x1
 10852 02a7 52       		.byte	0x52
 10853 02a8 26000000 		.4byte	.LVL41
 10854 02ac 2A000000 		.4byte	.LVL43
 10855 02b0 0400     		.2byte	0x4
 10856 02b2 F3       		.byte	0xf3
 10857 02b3 01       		.uleb128 0x1
 10858 02b4 52       		.byte	0x52
 10859 02b5 9F       		.byte	0x9f
 10860 02b6 2A000000 		.4byte	.LVL43
 10861 02ba 34000000 		.4byte	.LVL44
 10862 02be 0100     		.2byte	0x1
 10863 02c0 52       		.byte	0x52
 10864 02c1 34000000 		.4byte	.LVL44
 10865 02c5 6A000000 		.4byte	.LVL49
 10866 02c9 0400     		.2byte	0x4
 10867 02cb F3       		.byte	0xf3
 10868 02cc 01       		.uleb128 0x1
 10869 02cd 52       		.byte	0x52
 10870 02ce 9F       		.byte	0x9f
 10871 02cf 6A000000 		.4byte	.LVL49
 10872 02d3 90000000 		.4byte	.LFE259
 10873 02d7 0100     		.2byte	0x1
 10874 02d9 52       		.byte	0x52
 10875 02da 00000000 		.4byte	0
 10876 02de 00000000 		.4byte	0
 10877              	.LLST15:
 10878 02e2 00000000 		.4byte	.LVL37
 10879 02e6 12000000 		.4byte	.LVL40
 10880 02ea 0100     		.2byte	0x1
 10881 02ec 53       		.byte	0x53
 10882 02ed 12000000 		.4byte	.LVL40
 10883 02f1 90000000 		.4byte	.LFE259
 10884 02f5 0100     		.2byte	0x1
 10885 02f7 56       		.byte	0x56
 10886 02f8 00000000 		.4byte	0
 10887 02fc 00000000 		.4byte	0
 10888              	.LLST16:
 10889 0300 00000000 		.4byte	.LVL37
 10890 0304 6A000000 		.4byte	.LVL49
 10891 0308 0200     		.2byte	0x2
 10892 030a 91       		.byte	0x91
 10893 030b 00       		.sleb128 0
 10894 030c 6A000000 		.4byte	.LVL49
 10895 0310 90000000 		.4byte	.LFE259
 10896 0314 0200     		.2byte	0x2
 10897 0316 91       		.byte	0x91
ARM GAS  C:\Users\jo\AppData\Local\Temp\ccnOsBUt.s 			page 194


 10898 0317 00       		.sleb128 0
 10899 0318 00000000 		.4byte	0
 10900 031c 00000000 		.4byte	0
 10901              	.LLST17:
 10902 0320 00000000 		.4byte	.LVL37
 10903 0324 6A000000 		.4byte	.LVL49
 10904 0328 0200     		.2byte	0x2
 10905 032a 91       		.byte	0x91
 10906 032b 04       		.sleb128 4
 10907 032c 6A000000 		.4byte	.LVL49
 10908 0330 90000000 		.4byte	.LFE259
 10909 0334 0200     		.2byte	0x2
 10910 0336 91       		.byte	0x91
 10911 0337 04       		.sleb128 4
 10912 0338 00000000 		.4byte	0
 10913 033c 00000000 		.4byte	0
 10914              	.LLST18:
 10915 0340 00000000 		.4byte	.LVL37
 10916 0344 6A000000 		.4byte	.LVL49
 10917 0348 0200     		.2byte	0x2
 10918 034a 91       		.byte	0x91
 10919 034b 08       		.sleb128 8
 10920 034c 6A000000 		.4byte	.LVL49
 10921 0350 90000000 		.4byte	.LFE259
 10922 0354 0200     		.2byte	0x2
 10923 0356 91       		.byte	0x91
 10924 0357 08       		.sleb128 8
 10925 0358 00000000 		.4byte	0
 10926 035c 00000000 		.4byte	0
 10927              	.LLST19:
 10928 0360 3A000000 		.4byte	.LVL45
 10929 0364 48000000 		.4byte	.LVL46
 10930 0368 0100     		.2byte	0x1
 10931 036a 50       		.byte	0x50
 10932 036b 48000000 		.4byte	.LVL46
 10933 036f 6A000000 		.4byte	.LVL49
 10934 0373 0100     		.2byte	0x1
 10935 0375 54       		.byte	0x54
 10936 0376 00000000 		.4byte	0
 10937 037a 00000000 		.4byte	0
 10938              	.LLST20:
 10939 037e 04000000 		.4byte	.LVL38
 10940 0382 28000000 		.4byte	.LVL42
 10941 0386 0100     		.2byte	0x1
 10942 0388 55       		.byte	0x55
 10943 0389 28000000 		.4byte	.LVL42
 10944 038d 2A000000 		.4byte	.LVL43
 10945 0391 0100     		.2byte	0x1
 10946 0393 51       		.byte	0x51
 10947 0394 2A000000 		.4byte	.LVL43
 10948 0398 34000000 		.4byte	.LVL44
 10949 039c 0100     		.2byte	0x1
 10950 039e 55       		.byte	0x55
 10951 039f 34000000 		.4byte	.LVL44
 10952 03a3 39000000 		.4byte	.LVL45-1
 10953 03a7 0100     		.2byte	0x1
 10954 03a9 51       		.byte	0x51
ARM GAS  C:\Users\jo\AppData\Local\Temp\ccnOsBUt.s 			page 195


 10955 03aa 6A000000 		.4byte	.LVL49
 10956 03ae 90000000 		.4byte	.LFE259
 10957 03b2 0100     		.2byte	0x1
 10958 03b4 55       		.byte	0x55
 10959 03b5 00000000 		.4byte	0
 10960 03b9 00000000 		.4byte	0
 10961              	.LLST21:
 10962 03bd 54000000 		.4byte	.LVL47
 10963 03c1 5A000000 		.4byte	.LVL48
 10964 03c5 0600     		.2byte	0x6
 10965 03c7 03       		.byte	0x3
 10966 03c8 88000000 		.4byte	.LC3
 10967 03cc 9F       		.byte	0x9f
 10968 03cd 00000000 		.4byte	0
 10969 03d1 00000000 		.4byte	0
 10970              	.LLST22:
 10971 03d5 00000000 		.4byte	.LVL50
 10972 03d9 0A000000 		.4byte	.LVL51
 10973 03dd 0100     		.2byte	0x1
 10974 03df 50       		.byte	0x50
 10975 03e0 0A000000 		.4byte	.LVL51
 10976 03e4 04060000 		.4byte	.LFE261
 10977 03e8 0100     		.2byte	0x1
 10978 03ea 57       		.byte	0x57
 10979 03eb 00000000 		.4byte	0
 10980 03ef 00000000 		.4byte	0
 10981              	.LLST23:
 10982 03f3 00000000 		.4byte	.LVL50
 10983 03f7 3C000000 		.4byte	.LVL56
 10984 03fb 0100     		.2byte	0x1
 10985 03fd 51       		.byte	0x51
 10986 03fe 3C000000 		.4byte	.LVL56
 10987 0402 44000000 		.4byte	.LVL57
 10988 0406 0300     		.2byte	0x3
 10989 0408 91       		.byte	0x91
 10990 0409 B87F     		.sleb128 -72
 10991 040b 44000000 		.4byte	.LVL57
 10992 040f 6E000000 		.4byte	.LVL58
 10993 0413 0100     		.2byte	0x1
 10994 0415 51       		.byte	0x51
 10995 0416 6E000000 		.4byte	.LVL58
 10996 041a DC010000 		.4byte	.LVL90
 10997 041e 0300     		.2byte	0x3
 10998 0420 91       		.byte	0x91
 10999 0421 B87F     		.sleb128 -72
 11000 0423 DC010000 		.4byte	.LVL90
 11001 0427 E8010000 		.4byte	.LVL91
 11002 042b 0100     		.2byte	0x1
 11003 042d 51       		.byte	0x51
 11004 042e E8010000 		.4byte	.LVL91
 11005 0432 2C020000 		.4byte	.LVL99
 11006 0436 0300     		.2byte	0x3
 11007 0438 91       		.byte	0x91
 11008 0439 B87F     		.sleb128 -72
 11009 043b 2C020000 		.4byte	.LVL99
 11010 043f 32020000 		.4byte	.LVL100
 11011 0443 0100     		.2byte	0x1
ARM GAS  C:\Users\jo\AppData\Local\Temp\ccnOsBUt.s 			page 196


 11012 0445 51       		.byte	0x51
 11013 0446 32020000 		.4byte	.LVL100
 11014 044a 06030000 		.4byte	.LVL121
 11015 044e 0300     		.2byte	0x3
 11016 0450 91       		.byte	0x91
 11017 0451 B87F     		.sleb128 -72
 11018 0453 06030000 		.4byte	.LVL121
 11019 0457 16030000 		.4byte	.LVL123
 11020 045b 0100     		.2byte	0x1
 11021 045d 51       		.byte	0x51
 11022 045e 16030000 		.4byte	.LVL123
 11023 0462 5E040000 		.4byte	.LVL152
 11024 0466 0300     		.2byte	0x3
 11025 0468 91       		.byte	0x91
 11026 0469 B87F     		.sleb128 -72
 11027 046b 5E040000 		.4byte	.LVL152
 11028 046f 6E040000 		.4byte	.LVL153
 11029 0473 0100     		.2byte	0x1
 11030 0475 51       		.byte	0x51
 11031 0476 6E040000 		.4byte	.LVL153
 11032 047a 36050000 		.4byte	.LVL169
 11033 047e 0300     		.2byte	0x3
 11034 0480 91       		.byte	0x91
 11035 0481 B87F     		.sleb128 -72
 11036 0483 36050000 		.4byte	.LVL169
 11037 0487 4C050000 		.4byte	.LVL171
 11038 048b 0100     		.2byte	0x1
 11039 048d 51       		.byte	0x51
 11040 048e 4C050000 		.4byte	.LVL171
 11041 0492 B6050000 		.4byte	.LVL181
 11042 0496 0300     		.2byte	0x3
 11043 0498 91       		.byte	0x91
 11044 0499 B87F     		.sleb128 -72
 11045 049b B6050000 		.4byte	.LVL181
 11046 049f BC050000 		.4byte	.LVL182
 11047 04a3 0100     		.2byte	0x1
 11048 04a5 51       		.byte	0x51
 11049 04a6 BC050000 		.4byte	.LVL182
 11050 04aa 04060000 		.4byte	.LFE261
 11051 04ae 0300     		.2byte	0x3
 11052 04b0 91       		.byte	0x91
 11053 04b1 B87F     		.sleb128 -72
 11054 04b3 00000000 		.4byte	0
 11055 04b7 00000000 		.4byte	0
 11056              	.LLST24:
 11057 04bb 00000000 		.4byte	.LVL50
 11058 04bf 3C000000 		.4byte	.LVL56
 11059 04c3 0100     		.2byte	0x1
 11060 04c5 52       		.byte	0x52
 11061 04c6 3C000000 		.4byte	.LVL56
 11062 04ca 44000000 		.4byte	.LVL57
 11063 04ce 0400     		.2byte	0x4
 11064 04d0 F3       		.byte	0xf3
 11065 04d1 01       		.uleb128 0x1
 11066 04d2 52       		.byte	0x52
 11067 04d3 9F       		.byte	0x9f
 11068 04d4 44000000 		.4byte	.LVL57
ARM GAS  C:\Users\jo\AppData\Local\Temp\ccnOsBUt.s 			page 197


 11069 04d8 6E000000 		.4byte	.LVL58
 11070 04dc 0100     		.2byte	0x1
 11071 04de 52       		.byte	0x52
 11072 04df 6E000000 		.4byte	.LVL58
 11073 04e3 DC010000 		.4byte	.LVL90
 11074 04e7 0400     		.2byte	0x4
 11075 04e9 F3       		.byte	0xf3
 11076 04ea 01       		.uleb128 0x1
 11077 04eb 52       		.byte	0x52
 11078 04ec 9F       		.byte	0x9f
 11079 04ed DC010000 		.4byte	.LVL90
 11080 04f1 EA010000 		.4byte	.LVL92
 11081 04f5 0100     		.2byte	0x1
 11082 04f7 52       		.byte	0x52
 11083 04f8 EA010000 		.4byte	.LVL92
 11084 04fc 2C020000 		.4byte	.LVL99
 11085 0500 0400     		.2byte	0x4
 11086 0502 F3       		.byte	0xf3
 11087 0503 01       		.uleb128 0x1
 11088 0504 52       		.byte	0x52
 11089 0505 9F       		.byte	0x9f
 11090 0506 2C020000 		.4byte	.LVL99
 11091 050a 32020000 		.4byte	.LVL100
 11092 050e 0100     		.2byte	0x1
 11093 0510 52       		.byte	0x52
 11094 0511 32020000 		.4byte	.LVL100
 11095 0515 06030000 		.4byte	.LVL121
 11096 0519 0400     		.2byte	0x4
 11097 051b F3       		.byte	0xf3
 11098 051c 01       		.uleb128 0x1
 11099 051d 52       		.byte	0x52
 11100 051e 9F       		.byte	0x9f
 11101 051f 06030000 		.4byte	.LVL121
 11102 0523 16030000 		.4byte	.LVL123
 11103 0527 0100     		.2byte	0x1
 11104 0529 52       		.byte	0x52
 11105 052a 16030000 		.4byte	.LVL123
 11106 052e 5E040000 		.4byte	.LVL152
 11107 0532 0400     		.2byte	0x4
 11108 0534 F3       		.byte	0xf3
 11109 0535 01       		.uleb128 0x1
 11110 0536 52       		.byte	0x52
 11111 0537 9F       		.byte	0x9f
 11112 0538 5E040000 		.4byte	.LVL152
 11113 053c 70040000 		.4byte	.LVL154
 11114 0540 0100     		.2byte	0x1
 11115 0542 52       		.byte	0x52
 11116 0543 70040000 		.4byte	.LVL154
 11117 0547 36050000 		.4byte	.LVL169
 11118 054b 0400     		.2byte	0x4
 11119 054d F3       		.byte	0xf3
 11120 054e 01       		.uleb128 0x1
 11121 054f 52       		.byte	0x52
 11122 0550 9F       		.byte	0x9f
 11123 0551 36050000 		.4byte	.LVL169
 11124 0555 38050000 		.4byte	.LVL170
 11125 0559 0100     		.2byte	0x1
ARM GAS  C:\Users\jo\AppData\Local\Temp\ccnOsBUt.s 			page 198


 11126 055b 52       		.byte	0x52
 11127 055c 38050000 		.4byte	.LVL170
 11128 0560 B6050000 		.4byte	.LVL181
 11129 0564 0400     		.2byte	0x4
 11130 0566 F3       		.byte	0xf3
 11131 0567 01       		.uleb128 0x1
 11132 0568 52       		.byte	0x52
 11133 0569 9F       		.byte	0x9f
 11134 056a B6050000 		.4byte	.LVL181
 11135 056e BE050000 		.4byte	.LVL183
 11136 0572 0100     		.2byte	0x1
 11137 0574 52       		.byte	0x52
 11138 0575 BE050000 		.4byte	.LVL183
 11139 0579 04060000 		.4byte	.LFE261
 11140 057d 0400     		.2byte	0x4
 11141 057f F3       		.byte	0xf3
 11142 0580 01       		.uleb128 0x1
 11143 0581 52       		.byte	0x52
 11144 0582 9F       		.byte	0x9f
 11145 0583 00000000 		.4byte	0
 11146 0587 00000000 		.4byte	0
 11147              	.LLST25:
 11148 058b 00000000 		.4byte	.LVL50
 11149 058f 1A000000 		.4byte	.LVL52
 11150 0593 0100     		.2byte	0x1
 11151 0595 53       		.byte	0x53
 11152 0596 1A000000 		.4byte	.LVL52
 11153 059a 04060000 		.4byte	.LFE261
 11154 059e 0400     		.2byte	0x4
 11155 05a0 F3       		.byte	0xf3
 11156 05a1 01       		.uleb128 0x1
 11157 05a2 53       		.byte	0x53
 11158 05a3 9F       		.byte	0x9f
 11159 05a4 00000000 		.4byte	0
 11160 05a8 00000000 		.4byte	0
 11161              	.LLST26:
 11162 05ac 00000000 		.4byte	.LVL50
 11163 05b0 3C000000 		.4byte	.LVL56
 11164 05b4 0200     		.2byte	0x2
 11165 05b6 30       		.byte	0x30
 11166 05b7 9F       		.byte	0x9f
 11167 05b8 44000000 		.4byte	.LVL57
 11168 05bc DC000000 		.4byte	.LVL68
 11169 05c0 0200     		.2byte	0x2
 11170 05c2 30       		.byte	0x30
 11171 05c3 9F       		.byte	0x9f
 11172 05c4 DC000000 		.4byte	.LVL68
 11173 05c8 E8000000 		.4byte	.LVL69
 11174 05cc 0200     		.2byte	0x2
 11175 05ce 91       		.byte	0x91
 11176 05cf 4C       		.sleb128 -52
 11177 05d0 DC010000 		.4byte	.LVL90
 11178 05d4 62020000 		.4byte	.LVL105
 11179 05d8 0200     		.2byte	0x2
 11180 05da 30       		.byte	0x30
 11181 05db 9F       		.byte	0x9f
 11182 05dc 80020000 		.4byte	.LVL109
ARM GAS  C:\Users\jo\AppData\Local\Temp\ccnOsBUt.s 			page 199


 11183 05e0 CC020000 		.4byte	.LVL115
 11184 05e4 0200     		.2byte	0x2
 11185 05e6 30       		.byte	0x30
 11186 05e7 9F       		.byte	0x9f
 11187 05e8 CC020000 		.4byte	.LVL115
 11188 05ec DC020000 		.4byte	.LVL116
 11189 05f0 0100     		.2byte	0x1
 11190 05f2 50       		.byte	0x50
 11191 05f3 DC020000 		.4byte	.LVL116
 11192 05f7 06030000 		.4byte	.LVL121
 11193 05fb 0200     		.2byte	0x2
 11194 05fd 91       		.byte	0x91
 11195 05fe 4C       		.sleb128 -52
 11196 05ff 06030000 		.4byte	.LVL121
 11197 0603 30030000 		.4byte	.LVL126
 11198 0607 0200     		.2byte	0x2
 11199 0609 30       		.byte	0x30
 11200 060a 9F       		.byte	0x9f
 11201 060b 0A040000 		.4byte	.LVL145
 11202 060f 34040000 		.4byte	.LVL147
 11203 0613 0200     		.2byte	0x2
 11204 0615 91       		.byte	0x91
 11205 0616 4C       		.sleb128 -52
 11206 0617 5E040000 		.4byte	.LVL152
 11207 061b B4040000 		.4byte	.LVL157
 11208 061f 0200     		.2byte	0x2
 11209 0621 30       		.byte	0x30
 11210 0622 9F       		.byte	0x9f
 11211 0623 DC040000 		.4byte	.LVL161
 11212 0627 FE040000 		.4byte	.LVL163
 11213 062b 0200     		.2byte	0x2
 11214 062d 30       		.byte	0x30
 11215 062e 9F       		.byte	0x9f
 11216 062f FE040000 		.4byte	.LVL163
 11217 0633 0A050000 		.4byte	.LVL164
 11218 0637 0100     		.2byte	0x1
 11219 0639 50       		.byte	0x50
 11220 063a 0A050000 		.4byte	.LVL164
 11221 063e 14050000 		.4byte	.LVL166
 11222 0642 0200     		.2byte	0x2
 11223 0644 91       		.byte	0x91
 11224 0645 4C       		.sleb128 -52
 11225 0646 36050000 		.4byte	.LVL169
 11226 064a 4C050000 		.4byte	.LVL171
 11227 064e 0200     		.2byte	0x2
 11228 0650 30       		.byte	0x30
 11229 0651 9F       		.byte	0x9f
 11230 0652 86050000 		.4byte	.LVL177
 11231 0656 9C050000 		.4byte	.LVL178
 11232 065a 0200     		.2byte	0x2
 11233 065c 30       		.byte	0x30
 11234 065d 9F       		.byte	0x9f
 11235 065e B6050000 		.4byte	.LVL181
 11236 0662 04060000 		.4byte	.LFE261
 11237 0666 0200     		.2byte	0x2
 11238 0668 30       		.byte	0x30
 11239 0669 9F       		.byte	0x9f
ARM GAS  C:\Users\jo\AppData\Local\Temp\ccnOsBUt.s 			page 200


 11240 066a 00000000 		.4byte	0
 11241 066e 00000000 		.4byte	0
 11242              	.LLST27:
 11243 0672 00000000 		.4byte	.LVL50
 11244 0676 3C000000 		.4byte	.LVL56
 11245 067a 0200     		.2byte	0x2
 11246 067c 30       		.byte	0x30
 11247 067d 9F       		.byte	0x9f
 11248 067e 44000000 		.4byte	.LVL57
 11249 0682 7C000000 		.4byte	.LVL60
 11250 0686 0200     		.2byte	0x2
 11251 0688 30       		.byte	0x30
 11252 0689 9F       		.byte	0x9f
 11253 068a 7C000000 		.4byte	.LVL60
 11254 068e 92000000 		.4byte	.LVL62
 11255 0692 0100     		.2byte	0x1
 11256 0694 52       		.byte	0x52
 11257 0695 92000000 		.4byte	.LVL62
 11258 0699 E8000000 		.4byte	.LVL69
 11259 069d 0200     		.2byte	0x2
 11260 069f 91       		.byte	0x91
 11261 06a0 44       		.sleb128 -60
 11262 06a1 DC010000 		.4byte	.LVL90
 11263 06a5 32020000 		.4byte	.LVL100
 11264 06a9 0200     		.2byte	0x2
 11265 06ab 30       		.byte	0x30
 11266 06ac 9F       		.byte	0x9f
 11267 06ad 32020000 		.4byte	.LVL100
 11268 06b1 62020000 		.4byte	.LVL105
 11269 06b5 0200     		.2byte	0x2
 11270 06b7 91       		.byte	0x91
 11271 06b8 44       		.sleb128 -60
 11272 06b9 80020000 		.4byte	.LVL109
 11273 06bd 06030000 		.4byte	.LVL121
 11274 06c1 0200     		.2byte	0x2
 11275 06c3 91       		.byte	0x91
 11276 06c4 44       		.sleb128 -60
 11277 06c5 06030000 		.4byte	.LVL121
 11278 06c9 30030000 		.4byte	.LVL126
 11279 06cd 0200     		.2byte	0x2
 11280 06cf 30       		.byte	0x30
 11281 06d0 9F       		.byte	0x9f
 11282 06d1 5E040000 		.4byte	.LVL152
 11283 06d5 B4040000 		.4byte	.LVL157
 11284 06d9 0200     		.2byte	0x2
 11285 06db 30       		.byte	0x30
 11286 06dc 9F       		.byte	0x9f
 11287 06dd DC040000 		.4byte	.LVL161
 11288 06e1 14050000 		.4byte	.LVL166
 11289 06e5 0200     		.2byte	0x2
 11290 06e7 91       		.byte	0x91
 11291 06e8 44       		.sleb128 -60
 11292 06e9 36050000 		.4byte	.LVL169
 11293 06ed 4C050000 		.4byte	.LVL171
 11294 06f1 0200     		.2byte	0x2
 11295 06f3 30       		.byte	0x30
 11296 06f4 9F       		.byte	0x9f
ARM GAS  C:\Users\jo\AppData\Local\Temp\ccnOsBUt.s 			page 201


 11297 06f5 86050000 		.4byte	.LVL177
 11298 06f9 9C050000 		.4byte	.LVL178
 11299 06fd 0200     		.2byte	0x2
 11300 06ff 91       		.byte	0x91
 11301 0700 44       		.sleb128 -60
 11302 0701 B6050000 		.4byte	.LVL181
 11303 0705 D2050000 		.4byte	.LVL186
 11304 0709 0200     		.2byte	0x2
 11305 070b 30       		.byte	0x30
 11306 070c 9F       		.byte	0x9f
 11307 070d D2050000 		.4byte	.LVL186
 11308 0711 D8050000 		.4byte	.LVL187
 11309 0715 0200     		.2byte	0x2
 11310 0717 91       		.byte	0x91
 11311 0718 44       		.sleb128 -60
 11312 0719 D8050000 		.4byte	.LVL187
 11313 071d 04060000 		.4byte	.LFE261
 11314 0721 0200     		.2byte	0x2
 11315 0723 30       		.byte	0x30
 11316 0724 9F       		.byte	0x9f
 11317 0725 00000000 		.4byte	0
 11318 0729 00000000 		.4byte	0
 11319              	.LLST28:
 11320 072d 00000000 		.4byte	.LVL50
 11321 0731 3C000000 		.4byte	.LVL56
 11322 0735 0200     		.2byte	0x2
 11323 0737 30       		.byte	0x30
 11324 0738 9F       		.byte	0x9f
 11325 0739 44000000 		.4byte	.LVL57
 11326 073d C0000000 		.4byte	.LVL65
 11327 0741 0200     		.2byte	0x2
 11328 0743 30       		.byte	0x30
 11329 0744 9F       		.byte	0x9f
 11330 0745 CE000000 		.4byte	.LVL66
 11331 0749 DC000000 		.4byte	.LVL68
 11332 074d 0100     		.2byte	0x1
 11333 074f 59       		.byte	0x59
 11334 0750 4A010000 		.4byte	.LVL77
 11335 0754 62010000 		.4byte	.LVL79
 11336 0758 0100     		.2byte	0x1
 11337 075a 50       		.byte	0x50
 11338 075b 62010000 		.4byte	.LVL79
 11339 075f 72010000 		.4byte	.LVL82
 11340 0763 0100     		.2byte	0x1
 11341 0765 59       		.byte	0x59
 11342 0766 DC010000 		.4byte	.LVL90
 11343 076a 32020000 		.4byte	.LVL100
 11344 076e 0200     		.2byte	0x2
 11345 0770 30       		.byte	0x30
 11346 0771 9F       		.byte	0x9f
 11347 0772 32020000 		.4byte	.LVL100
 11348 0776 56020000 		.4byte	.LVL104
 11349 077a 0200     		.2byte	0x2
 11350 077c 91       		.byte	0x91
 11351 077d 44       		.sleb128 -60
 11352 077e 56020000 		.4byte	.LVL104
 11353 0782 62020000 		.4byte	.LVL105
ARM GAS  C:\Users\jo\AppData\Local\Temp\ccnOsBUt.s 			page 202


 11354 0786 0100     		.2byte	0x1
 11355 0788 59       		.byte	0x59
 11356 0789 80020000 		.4byte	.LVL109
 11357 078d 9E020000 		.4byte	.LVL113
 11358 0791 0200     		.2byte	0x2
 11359 0793 91       		.byte	0x91
 11360 0794 44       		.sleb128 -60
 11361 0795 BC020000 		.4byte	.LVL114
 11362 0799 06030000 		.4byte	.LVL121
 11363 079d 0200     		.2byte	0x2
 11364 079f 91       		.byte	0x91
 11365 07a0 44       		.sleb128 -60
 11366 07a1 06030000 		.4byte	.LVL121
 11367 07a5 30030000 		.4byte	.LVL126
 11368 07a9 0200     		.2byte	0x2
 11369 07ab 30       		.byte	0x30
 11370 07ac 9F       		.byte	0x9f
 11371 07ad 4A030000 		.4byte	.LVL129
 11372 07b1 56030000 		.4byte	.LVL132
 11373 07b5 0100     		.2byte	0x1
 11374 07b7 50       		.byte	0x50
 11375 07b8 56030000 		.4byte	.LVL132
 11376 07bc 60030000 		.4byte	.LVL133
 11377 07c0 0100     		.2byte	0x1
 11378 07c2 59       		.byte	0x59
 11379 07c3 EC030000 		.4byte	.LVL140
 11380 07c7 F6030000 		.4byte	.LVL141
 11381 07cb 0100     		.2byte	0x1
 11382 07cd 50       		.byte	0x50
 11383 07ce F6030000 		.4byte	.LVL141
 11384 07d2 06040000 		.4byte	.LVL144
 11385 07d6 0100     		.2byte	0x1
 11386 07d8 59       		.byte	0x59
 11387 07d9 5E040000 		.4byte	.LVL152
 11388 07dd B4040000 		.4byte	.LVL157
 11389 07e1 0200     		.2byte	0x2
 11390 07e3 30       		.byte	0x30
 11391 07e4 9F       		.byte	0x9f
 11392 07e5 DC040000 		.4byte	.LVL161
 11393 07e9 E6040000 		.4byte	.LVL162
 11394 07ed 0100     		.2byte	0x1
 11395 07ef 59       		.byte	0x59
 11396 07f0 E6040000 		.4byte	.LVL162
 11397 07f4 14050000 		.4byte	.LVL166
 11398 07f8 0200     		.2byte	0x2
 11399 07fa 91       		.byte	0x91
 11400 07fb 44       		.sleb128 -60
 11401 07fc 36050000 		.4byte	.LVL169
 11402 0800 4C050000 		.4byte	.LVL171
 11403 0804 0200     		.2byte	0x2
 11404 0806 30       		.byte	0x30
 11405 0807 9F       		.byte	0x9f
 11406 0808 86050000 		.4byte	.LVL177
 11407 080c 9C050000 		.4byte	.LVL178
 11408 0810 0200     		.2byte	0x2
 11409 0812 91       		.byte	0x91
 11410 0813 44       		.sleb128 -60
ARM GAS  C:\Users\jo\AppData\Local\Temp\ccnOsBUt.s 			page 203


 11411 0814 B6050000 		.4byte	.LVL181
 11412 0818 D2050000 		.4byte	.LVL186
 11413 081c 0200     		.2byte	0x2
 11414 081e 30       		.byte	0x30
 11415 081f 9F       		.byte	0x9f
 11416 0820 D2050000 		.4byte	.LVL186
 11417 0824 D8050000 		.4byte	.LVL187
 11418 0828 0200     		.2byte	0x2
 11419 082a 91       		.byte	0x91
 11420 082b 44       		.sleb128 -60
 11421 082c D8050000 		.4byte	.LVL187
 11422 0830 04060000 		.4byte	.LFE261
 11423 0834 0200     		.2byte	0x2
 11424 0836 30       		.byte	0x30
 11425 0837 9F       		.byte	0x9f
 11426 0838 00000000 		.4byte	0
 11427 083c 00000000 		.4byte	0
 11428              	.LLST29:
 11429 0840 00000000 		.4byte	.LVL50
 11430 0844 3C000000 		.4byte	.LVL56
 11431 0848 0200     		.2byte	0x2
 11432 084a 30       		.byte	0x30
 11433 084b 9F       		.byte	0x9f
 11434 084c 44000000 		.4byte	.LVL57
 11435 0850 E8000000 		.4byte	.LVL69
 11436 0854 0200     		.2byte	0x2
 11437 0856 30       		.byte	0x30
 11438 0857 9F       		.byte	0x9f
 11439 0858 E8000000 		.4byte	.LVL69
 11440 085c 6C010000 		.4byte	.LVL81
 11441 0860 0100     		.2byte	0x1
 11442 0862 5A       		.byte	0x5a
 11443 0863 6C010000 		.4byte	.LVL81
 11444 0867 72010000 		.4byte	.LVL82
 11445 086b 0100     		.2byte	0x1
 11446 086d 59       		.byte	0x59
 11447 086e 72010000 		.4byte	.LVL82
 11448 0872 DC010000 		.4byte	.LVL90
 11449 0876 0100     		.2byte	0x1
 11450 0878 5A       		.byte	0x5a
 11451 0879 DC010000 		.4byte	.LVL90
 11452 087d 62020000 		.4byte	.LVL105
 11453 0881 0200     		.2byte	0x2
 11454 0883 30       		.byte	0x30
 11455 0884 9F       		.byte	0x9f
 11456 0885 80020000 		.4byte	.LVL109
 11457 0889 30030000 		.4byte	.LVL126
 11458 088d 0200     		.2byte	0x2
 11459 088f 30       		.byte	0x30
 11460 0890 9F       		.byte	0x9f
 11461 0891 30030000 		.4byte	.LVL126
 11462 0895 52030000 		.4byte	.LVL131
 11463 0899 0100     		.2byte	0x1
 11464 089b 5A       		.byte	0x5a
 11465 089c 52030000 		.4byte	.LVL131
 11466 08a0 56030000 		.4byte	.LVL132
 11467 08a4 0100     		.2byte	0x1
ARM GAS  C:\Users\jo\AppData\Local\Temp\ccnOsBUt.s 			page 204


 11468 08a6 50       		.byte	0x50
 11469 08a7 56030000 		.4byte	.LVL132
 11470 08ab 60030000 		.4byte	.LVL133
 11471 08af 0100     		.2byte	0x1
 11472 08b1 59       		.byte	0x59
 11473 08b2 D2030000 		.4byte	.LVL136
 11474 08b6 34040000 		.4byte	.LVL147
 11475 08ba 0100     		.2byte	0x1
 11476 08bc 5A       		.byte	0x5a
 11477 08bd 50040000 		.4byte	.LVL148
 11478 08c1 5E040000 		.4byte	.LVL152
 11479 08c5 0100     		.2byte	0x1
 11480 08c7 5A       		.byte	0x5a
 11481 08c8 5E040000 		.4byte	.LVL152
 11482 08cc B4040000 		.4byte	.LVL157
 11483 08d0 0200     		.2byte	0x2
 11484 08d2 30       		.byte	0x30
 11485 08d3 9F       		.byte	0x9f
 11486 08d4 DC040000 		.4byte	.LVL161
 11487 08d8 14050000 		.4byte	.LVL166
 11488 08dc 0200     		.2byte	0x2
 11489 08de 30       		.byte	0x30
 11490 08df 9F       		.byte	0x9f
 11491 08e0 36050000 		.4byte	.LVL169
 11492 08e4 4C050000 		.4byte	.LVL171
 11493 08e8 0200     		.2byte	0x2
 11494 08ea 30       		.byte	0x30
 11495 08eb 9F       		.byte	0x9f
 11496 08ec 86050000 		.4byte	.LVL177
 11497 08f0 9C050000 		.4byte	.LVL178
 11498 08f4 0200     		.2byte	0x2
 11499 08f6 30       		.byte	0x30
 11500 08f7 9F       		.byte	0x9f
 11501 08f8 B6050000 		.4byte	.LVL181
 11502 08fc 04060000 		.4byte	.LFE261
 11503 0900 0200     		.2byte	0x2
 11504 0902 30       		.byte	0x30
 11505 0903 9F       		.byte	0x9f
 11506 0904 00000000 		.4byte	0
 11507 0908 00000000 		.4byte	0
 11508              	.LLST30:
 11509 090c 00000000 		.4byte	.LVL50
 11510 0910 3C000000 		.4byte	.LVL56
 11511 0914 0200     		.2byte	0x2
 11512 0916 30       		.byte	0x30
 11513 0917 9F       		.byte	0x9f
 11514 0918 44000000 		.4byte	.LVL57
 11515 091c E8000000 		.4byte	.LVL69
 11516 0920 0200     		.2byte	0x2
 11517 0922 30       		.byte	0x30
 11518 0923 9F       		.byte	0x9f
 11519 0924 E8000000 		.4byte	.LVL69
 11520 0928 DC010000 		.4byte	.LVL90
 11521 092c 0300     		.2byte	0x3
 11522 092e 91       		.byte	0x91
 11523 092f B07F     		.sleb128 -80
 11524 0931 DC010000 		.4byte	.LVL90
ARM GAS  C:\Users\jo\AppData\Local\Temp\ccnOsBUt.s 			page 205


 11525 0935 62020000 		.4byte	.LVL105
 11526 0939 0200     		.2byte	0x2
 11527 093b 30       		.byte	0x30
 11528 093c 9F       		.byte	0x9f
 11529 093d 80020000 		.4byte	.LVL109
 11530 0941 30030000 		.4byte	.LVL126
 11531 0945 0200     		.2byte	0x2
 11532 0947 30       		.byte	0x30
 11533 0948 9F       		.byte	0x9f
 11534 0949 30030000 		.4byte	.LVL126
 11535 094d 60030000 		.4byte	.LVL133
 11536 0951 0300     		.2byte	0x3
 11537 0953 91       		.byte	0x91
 11538 0954 B07F     		.sleb128 -80
 11539 0956 D2030000 		.4byte	.LVL136
 11540 095a 0A040000 		.4byte	.LVL145
 11541 095e 0300     		.2byte	0x3
 11542 0960 91       		.byte	0x91
 11543 0961 B07F     		.sleb128 -80
 11544 0963 0A040000 		.4byte	.LVL145
 11545 0967 34040000 		.4byte	.LVL147
 11546 096b 0100     		.2byte	0x1
 11547 096d 58       		.byte	0x58
 11548 096e 50040000 		.4byte	.LVL148
 11549 0972 5E040000 		.4byte	.LVL152
 11550 0976 0300     		.2byte	0x3
 11551 0978 91       		.byte	0x91
 11552 0979 B07F     		.sleb128 -80
 11553 097b 5E040000 		.4byte	.LVL152
 11554 097f B4040000 		.4byte	.LVL157
 11555 0983 0200     		.2byte	0x2
 11556 0985 30       		.byte	0x30
 11557 0986 9F       		.byte	0x9f
 11558 0987 DC040000 		.4byte	.LVL161
 11559 098b 14050000 		.4byte	.LVL166
 11560 098f 0200     		.2byte	0x2
 11561 0991 30       		.byte	0x30
 11562 0992 9F       		.byte	0x9f
 11563 0993 36050000 		.4byte	.LVL169
 11564 0997 4C050000 		.4byte	.LVL171
 11565 099b 0200     		.2byte	0x2
 11566 099d 30       		.byte	0x30
 11567 099e 9F       		.byte	0x9f
 11568 099f 86050000 		.4byte	.LVL177
 11569 09a3 9C050000 		.4byte	.LVL178
 11570 09a7 0200     		.2byte	0x2
 11571 09a9 30       		.byte	0x30
 11572 09aa 9F       		.byte	0x9f
 11573 09ab B6050000 		.4byte	.LVL181
 11574 09af 04060000 		.4byte	.LFE261
 11575 09b3 0200     		.2byte	0x2
 11576 09b5 30       		.byte	0x30
 11577 09b6 9F       		.byte	0x9f
 11578 09b7 00000000 		.4byte	0
 11579 09bb 00000000 		.4byte	0
 11580              	.LLST31:
 11581 09bf 00000000 		.4byte	.LVL50
ARM GAS  C:\Users\jo\AppData\Local\Temp\ccnOsBUt.s 			page 206


 11582 09c3 3C000000 		.4byte	.LVL56
 11583 09c7 0200     		.2byte	0x2
 11584 09c9 30       		.byte	0x30
 11585 09ca 9F       		.byte	0x9f
 11586 09cb 44000000 		.4byte	.LVL57
 11587 09cf C0000000 		.4byte	.LVL65
 11588 09d3 0200     		.2byte	0x2
 11589 09d5 30       		.byte	0x30
 11590 09d6 9F       		.byte	0x9f
 11591 09d7 CE000000 		.4byte	.LVL66
 11592 09db DC000000 		.4byte	.LVL68
 11593 09df 0200     		.2byte	0x2
 11594 09e1 91       		.byte	0x91
 11595 09e2 48       		.sleb128 -56
 11596 09e3 DC000000 		.4byte	.LVL68
 11597 09e7 64010000 		.4byte	.LVL80
 11598 09eb 0100     		.2byte	0x1
 11599 09ed 54       		.byte	0x54
 11600 09ee 6C010000 		.4byte	.LVL81
 11601 09f2 DC010000 		.4byte	.LVL90
 11602 09f6 0100     		.2byte	0x1
 11603 09f8 54       		.byte	0x54
 11604 09f9 DC010000 		.4byte	.LVL90
 11605 09fd 42020000 		.4byte	.LVL102
 11606 0a01 0200     		.2byte	0x2
 11607 0a03 30       		.byte	0x30
 11608 0a04 9F       		.byte	0x9f
 11609 0a05 42020000 		.4byte	.LVL102
 11610 0a09 56020000 		.4byte	.LVL104
 11611 0a0d 0100     		.2byte	0x1
 11612 0a0f 53       		.byte	0x53
 11613 0a10 80020000 		.4byte	.LVL109
 11614 0a14 82020000 		.4byte	.LVL110
 11615 0a18 0100     		.2byte	0x1
 11616 0a1a 53       		.byte	0x53
 11617 0a1b 82020000 		.4byte	.LVL110
 11618 0a1f 9E020000 		.4byte	.LVL113
 11619 0a23 0200     		.2byte	0x2
 11620 0a25 91       		.byte	0x91
 11621 0a26 48       		.sleb128 -56
 11622 0a27 E8020000 		.4byte	.LVL119
 11623 0a2b 06030000 		.4byte	.LVL121
 11624 0a2f 0100     		.2byte	0x1
 11625 0a31 54       		.byte	0x54
 11626 0a32 06030000 		.4byte	.LVL121
 11627 0a36 30030000 		.4byte	.LVL126
 11628 0a3a 0200     		.2byte	0x2
 11629 0a3c 30       		.byte	0x30
 11630 0a3d 9F       		.byte	0x9f
 11631 0a3e 30030000 		.4byte	.LVL126
 11632 0a42 4C030000 		.4byte	.LVL130
 11633 0a46 0100     		.2byte	0x1
 11634 0a48 54       		.byte	0x54
 11635 0a49 52030000 		.4byte	.LVL131
 11636 0a4d 60030000 		.4byte	.LVL133
 11637 0a51 0100     		.2byte	0x1
 11638 0a53 54       		.byte	0x54
ARM GAS  C:\Users\jo\AppData\Local\Temp\ccnOsBUt.s 			page 207


 11639 0a54 D2030000 		.4byte	.LVL136
 11640 0a58 34040000 		.4byte	.LVL147
 11641 0a5c 0100     		.2byte	0x1
 11642 0a5e 54       		.byte	0x54
 11643 0a5f 50040000 		.4byte	.LVL148
 11644 0a63 5E040000 		.4byte	.LVL152
 11645 0a67 0100     		.2byte	0x1
 11646 0a69 54       		.byte	0x54
 11647 0a6a 5E040000 		.4byte	.LVL152
 11648 0a6e B4040000 		.4byte	.LVL157
 11649 0a72 0200     		.2byte	0x2
 11650 0a74 30       		.byte	0x30
 11651 0a75 9F       		.byte	0x9f
 11652 0a76 36050000 		.4byte	.LVL169
 11653 0a7a 4C050000 		.4byte	.LVL171
 11654 0a7e 0200     		.2byte	0x2
 11655 0a80 30       		.byte	0x30
 11656 0a81 9F       		.byte	0x9f
 11657 0a82 B6050000 		.4byte	.LVL181
 11658 0a86 D2050000 		.4byte	.LVL186
 11659 0a8a 0200     		.2byte	0x2
 11660 0a8c 30       		.byte	0x30
 11661 0a8d 9F       		.byte	0x9f
 11662 0a8e D2050000 		.4byte	.LVL186
 11663 0a92 D8050000 		.4byte	.LVL187
 11664 0a96 0100     		.2byte	0x1
 11665 0a98 53       		.byte	0x53
 11666 0a99 D8050000 		.4byte	.LVL187
 11667 0a9d 04060000 		.4byte	.LFE261
 11668 0aa1 0200     		.2byte	0x2
 11669 0aa3 30       		.byte	0x30
 11670 0aa4 9F       		.byte	0x9f
 11671 0aa5 00000000 		.4byte	0
 11672 0aa9 00000000 		.4byte	0
 11673              	.LLST32:
 11674 0aad 6E000000 		.4byte	.LVL58
 11675 0ab1 78000000 		.4byte	.LVL59
 11676 0ab5 0100     		.2byte	0x1
 11677 0ab7 56       		.byte	0x56
 11678 0ab8 CE000000 		.4byte	.LVL66
 11679 0abc DC010000 		.4byte	.LVL90
 11680 0ac0 0100     		.2byte	0x1
 11681 0ac2 56       		.byte	0x56
 11682 0ac3 00020000 		.4byte	.LVL95
 11683 0ac7 2C020000 		.4byte	.LVL99
 11684 0acb 0100     		.2byte	0x1
 11685 0acd 56       		.byte	0x56
 11686 0ace 56020000 		.4byte	.LVL104
 11687 0ad2 80020000 		.4byte	.LVL109
 11688 0ad6 0100     		.2byte	0x1
 11689 0ad8 56       		.byte	0x56
 11690 0ad9 EE020000 		.4byte	.LVL120
 11691 0add 06030000 		.4byte	.LVL121
 11692 0ae1 0100     		.2byte	0x1
 11693 0ae3 56       		.byte	0x56
 11694 0ae4 0E030000 		.4byte	.LVL122
 11695 0ae8 16030000 		.4byte	.LVL123
ARM GAS  C:\Users\jo\AppData\Local\Temp\ccnOsBUt.s 			page 208


 11696 0aec 0200     		.2byte	0x2
 11697 0aee 30       		.byte	0x30
 11698 0aef 9F       		.byte	0x9f
 11699 0af0 30030000 		.4byte	.LVL126
 11700 0af4 34040000 		.4byte	.LVL147
 11701 0af8 0100     		.2byte	0x1
 11702 0afa 56       		.byte	0x56
 11703 0afb 50040000 		.4byte	.LVL148
 11704 0aff 5E040000 		.4byte	.LVL152
 11705 0b03 0100     		.2byte	0x1
 11706 0b05 56       		.byte	0x56
 11707 0b06 B4040000 		.4byte	.LVL157
 11708 0b0a E6040000 		.4byte	.LVL162
 11709 0b0e 0100     		.2byte	0x1
 11710 0b10 56       		.byte	0x56
 11711 0b11 14050000 		.4byte	.LVL166
 11712 0b15 36050000 		.4byte	.LVL169
 11713 0b19 0100     		.2byte	0x1
 11714 0b1b 56       		.byte	0x56
 11715 0b1c 4C050000 		.4byte	.LVL171
 11716 0b20 5C050000 		.4byte	.LVL173
 11717 0b24 0100     		.2byte	0x1
 11718 0b26 56       		.byte	0x56
 11719 0b27 78050000 		.4byte	.LVL176
 11720 0b2b 86050000 		.4byte	.LVL177
 11721 0b2f 0100     		.2byte	0x1
 11722 0b31 56       		.byte	0x56
 11723 0b32 9C050000 		.4byte	.LVL178
 11724 0b36 B6050000 		.4byte	.LVL181
 11725 0b3a 0100     		.2byte	0x1
 11726 0b3c 56       		.byte	0x56
 11727 0b3d D8050000 		.4byte	.LVL187
 11728 0b41 04060000 		.4byte	.LFE261
 11729 0b45 0100     		.2byte	0x1
 11730 0b47 56       		.byte	0x56
 11731 0b48 00000000 		.4byte	0
 11732 0b4c 00000000 		.4byte	0
 11733              	.LLST33:
 11734 0b50 22000000 		.4byte	.LVL53
 11735 0b54 3C000000 		.4byte	.LVL56
 11736 0b58 0200     		.2byte	0x2
 11737 0b5a 30       		.byte	0x30
 11738 0b5b 9F       		.byte	0x9f
 11739 0b5c 44000000 		.4byte	.LVL57
 11740 0b60 C0000000 		.4byte	.LVL65
 11741 0b64 0200     		.2byte	0x2
 11742 0b66 30       		.byte	0x30
 11743 0b67 9F       		.byte	0x9f
 11744 0b68 CE000000 		.4byte	.LVL66
 11745 0b6c E8000000 		.4byte	.LVL69
 11746 0b70 0200     		.2byte	0x2
 11747 0b72 91       		.byte	0x91
 11748 0b73 48       		.sleb128 -56
 11749 0b74 DC010000 		.4byte	.LVL90
 11750 0b78 42020000 		.4byte	.LVL102
 11751 0b7c 0200     		.2byte	0x2
 11752 0b7e 30       		.byte	0x30
ARM GAS  C:\Users\jo\AppData\Local\Temp\ccnOsBUt.s 			page 209


 11753 0b7f 9F       		.byte	0x9f
 11754 0b80 42020000 		.4byte	.LVL102
 11755 0b84 56020000 		.4byte	.LVL104
 11756 0b88 0100     		.2byte	0x1
 11757 0b8a 53       		.byte	0x53
 11758 0b8b 56020000 		.4byte	.LVL104
 11759 0b8f 62020000 		.4byte	.LVL105
 11760 0b93 0200     		.2byte	0x2
 11761 0b95 91       		.byte	0x91
 11762 0b96 48       		.sleb128 -56
 11763 0b97 80020000 		.4byte	.LVL109
 11764 0b9b 82020000 		.4byte	.LVL110
 11765 0b9f 0100     		.2byte	0x1
 11766 0ba1 53       		.byte	0x53
 11767 0ba2 82020000 		.4byte	.LVL110
 11768 0ba6 9E020000 		.4byte	.LVL113
 11769 0baa 0200     		.2byte	0x2
 11770 0bac 91       		.byte	0x91
 11771 0bad 48       		.sleb128 -56
 11772 0bae EE020000 		.4byte	.LVL120
 11773 0bb2 06030000 		.4byte	.LVL121
 11774 0bb6 0200     		.2byte	0x2
 11775 0bb8 91       		.byte	0x91
 11776 0bb9 48       		.sleb128 -56
 11777 0bba 06030000 		.4byte	.LVL121
 11778 0bbe 30030000 		.4byte	.LVL126
 11779 0bc2 0200     		.2byte	0x2
 11780 0bc4 30       		.byte	0x30
 11781 0bc5 9F       		.byte	0x9f
 11782 0bc6 5E040000 		.4byte	.LVL152
 11783 0bca B4040000 		.4byte	.LVL157
 11784 0bce 0200     		.2byte	0x2
 11785 0bd0 30       		.byte	0x30
 11786 0bd1 9F       		.byte	0x9f
 11787 0bd2 DC040000 		.4byte	.LVL161
 11788 0bd6 E6040000 		.4byte	.LVL162
 11789 0bda 0200     		.2byte	0x2
 11790 0bdc 91       		.byte	0x91
 11791 0bdd 48       		.sleb128 -56
 11792 0bde 36050000 		.4byte	.LVL169
 11793 0be2 4C050000 		.4byte	.LVL171
 11794 0be6 0200     		.2byte	0x2
 11795 0be8 30       		.byte	0x30
 11796 0be9 9F       		.byte	0x9f
 11797 0bea B6050000 		.4byte	.LVL181
 11798 0bee D2050000 		.4byte	.LVL186
 11799 0bf2 0200     		.2byte	0x2
 11800 0bf4 30       		.byte	0x30
 11801 0bf5 9F       		.byte	0x9f
 11802 0bf6 D2050000 		.4byte	.LVL186
 11803 0bfa D8050000 		.4byte	.LVL187
 11804 0bfe 0100     		.2byte	0x1
 11805 0c00 53       		.byte	0x53
 11806 0c01 D8050000 		.4byte	.LVL187
 11807 0c05 04060000 		.4byte	.LFE261
 11808 0c09 0200     		.2byte	0x2
 11809 0c0b 30       		.byte	0x30
ARM GAS  C:\Users\jo\AppData\Local\Temp\ccnOsBUt.s 			page 210


 11810 0c0c 9F       		.byte	0x9f
 11811 0c0d 00000000 		.4byte	0
 11812 0c11 00000000 		.4byte	0
 11813              	.LLST34:
 11814 0c15 32000000 		.4byte	.LVL55
 11815 0c19 3C000000 		.4byte	.LVL56
 11816 0c1d 0100     		.2byte	0x1
 11817 0c1f 5B       		.byte	0x5b
 11818 0c20 44000000 		.4byte	.LVL57
 11819 0c24 A2030000 		.4byte	.LVL135
 11820 0c28 0100     		.2byte	0x1
 11821 0c2a 5B       		.byte	0x5b
 11822 0c2b D2030000 		.4byte	.LVL136
 11823 0c2f 14050000 		.4byte	.LVL166
 11824 0c33 0100     		.2byte	0x1
 11825 0c35 5B       		.byte	0x5b
 11826 0c36 36050000 		.4byte	.LVL169
 11827 0c3a 4C050000 		.4byte	.LVL171
 11828 0c3e 0100     		.2byte	0x1
 11829 0c40 5B       		.byte	0x5b
 11830 0c41 5C050000 		.4byte	.LVL173
 11831 0c45 B6050000 		.4byte	.LVL181
 11832 0c49 0100     		.2byte	0x1
 11833 0c4b 5B       		.byte	0x5b
 11834 0c4c D2050000 		.4byte	.LVL186
 11835 0c50 04060000 		.4byte	.LFE261
 11836 0c54 0100     		.2byte	0x1
 11837 0c56 5B       		.byte	0x5b
 11838 0c57 00000000 		.4byte	0
 11839 0c5b 00000000 		.4byte	0
 11840              	.LLST35:
 11841 0c5f 32000000 		.4byte	.LVL55
 11842 0c63 3C000000 		.4byte	.LVL56
 11843 0c67 0100     		.2byte	0x1
 11844 0c69 57       		.byte	0x57
 11845 0c6a 44000000 		.4byte	.LVL57
 11846 0c6e B6050000 		.4byte	.LVL181
 11847 0c72 0100     		.2byte	0x1
 11848 0c74 57       		.byte	0x57
 11849 0c75 D2050000 		.4byte	.LVL186
 11850 0c79 04060000 		.4byte	.LFE261
 11851 0c7d 0100     		.2byte	0x1
 11852 0c7f 57       		.byte	0x57
 11853 0c80 00000000 		.4byte	0
 11854 0c84 00000000 		.4byte	0
 11855              	.LLST36:
 11856 0c88 F4010000 		.4byte	.LVL93
 11857 0c8c 08020000 		.4byte	.LVL96
 11858 0c90 0600     		.2byte	0x6
 11859 0c92 03       		.byte	0x3
 11860 0c93 0C010000 		.4byte	.LC6
 11861 0c97 9F       		.byte	0x9f
 11862 0c98 00000000 		.4byte	0
 11863 0c9c 00000000 		.4byte	0
 11864              	.LLST37:
 11865 0ca0 7A040000 		.4byte	.LVL155
 11866 0ca4 B4040000 		.4byte	.LVL157
ARM GAS  C:\Users\jo\AppData\Local\Temp\ccnOsBUt.s 			page 211


 11867 0ca8 0600     		.2byte	0x6
 11868 0caa 03       		.byte	0x3
 11869 0cab D0000000 		.4byte	.LC5
 11870 0caf 9F       		.byte	0x9f
 11871 0cb0 00000000 		.4byte	0
 11872 0cb4 00000000 		.4byte	0
 11873              	.LLST38:
 11874 0cb8 B0000000 		.4byte	.LVL64
 11875 0cbc D2000000 		.4byte	.LVL67
 11876 0cc0 0100     		.2byte	0x1
 11877 0cc2 54       		.byte	0x54
 11878 0cc3 32020000 		.4byte	.LVL100
 11879 0cc7 40020000 		.4byte	.LVL101
 11880 0ccb 0100     		.2byte	0x1
 11881 0ccd 54       		.byte	0x54
 11882 0cce 48020000 		.4byte	.LVL103
 11883 0cd2 62020000 		.4byte	.LVL105
 11884 0cd6 0100     		.2byte	0x1
 11885 0cd8 54       		.byte	0x54
 11886 0cd9 80020000 		.4byte	.LVL109
 11887 0cdd E2020000 		.4byte	.LVL117
 11888 0ce1 0100     		.2byte	0x1
 11889 0ce3 54       		.byte	0x54
 11890 0ce4 DC040000 		.4byte	.LVL161
 11891 0ce8 14050000 		.4byte	.LVL166
 11892 0cec 0100     		.2byte	0x1
 11893 0cee 54       		.byte	0x54
 11894 0cef 86050000 		.4byte	.LVL177
 11895 0cf3 9C050000 		.4byte	.LVL178
 11896 0cf7 0100     		.2byte	0x1
 11897 0cf9 54       		.byte	0x54
 11898 0cfa D2050000 		.4byte	.LVL186
 11899 0cfe D8050000 		.4byte	.LVL187
 11900 0d02 0100     		.2byte	0x1
 11901 0d04 54       		.byte	0x54
 11902 0d05 00000000 		.4byte	0
 11903 0d09 00000000 		.4byte	0
 11904              	.LLST39:
 11905 0d0d 92020000 		.4byte	.LVL111
 11906 0d11 9E020000 		.4byte	.LVL113
 11907 0d15 0600     		.2byte	0x6
 11908 0d17 03       		.byte	0x3
 11909 0d18 40010000 		.4byte	.LC7
 11910 0d1c 9F       		.byte	0x9f
 11911 0d1d 00000000 		.4byte	0
 11912 0d21 00000000 		.4byte	0
 11913              	.LLST40:
 11914 0d25 BC020000 		.4byte	.LVL114
 11915 0d29 06030000 		.4byte	.LVL121
 11916 0d2d 0100     		.2byte	0x1
 11917 0d2f 55       		.byte	0x55
 11918 0d30 E6040000 		.4byte	.LVL162
 11919 0d34 14050000 		.4byte	.LVL166
 11920 0d38 0100     		.2byte	0x1
 11921 0d3a 55       		.byte	0x55
 11922 0d3b 86050000 		.4byte	.LVL177
 11923 0d3f 9C050000 		.4byte	.LVL178
ARM GAS  C:\Users\jo\AppData\Local\Temp\ccnOsBUt.s 			page 212


 11924 0d43 0100     		.2byte	0x1
 11925 0d45 55       		.byte	0x55
 11926 0d46 00000000 		.4byte	0
 11927 0d4a 00000000 		.4byte	0
 11928              	.LLST41:
 11929 0d4e 16010000 		.4byte	.LVL72
 11930 0d52 23010000 		.4byte	.LVL73-1
 11931 0d56 0100     		.2byte	0x1
 11932 0d58 50       		.byte	0x50
 11933 0d59 23010000 		.4byte	.LVL73-1
 11934 0d5d 4C010000 		.4byte	.LVL78
 11935 0d61 0100     		.2byte	0x1
 11936 0d63 59       		.byte	0x59
 11937 0d64 A4010000 		.4byte	.LVL84
 11938 0d68 B4010000 		.4byte	.LVL85
 11939 0d6c 0100     		.2byte	0x1
 11940 0d6e 50       		.byte	0x50
 11941 0d6f B4010000 		.4byte	.LVL85
 11942 0d73 DC010000 		.4byte	.LVL90
 11943 0d77 0100     		.2byte	0x1
 11944 0d79 59       		.byte	0x59
 11945 0d7a D2030000 		.4byte	.LVL136
 11946 0d7e DC030000 		.4byte	.LVL137
 11947 0d82 0100     		.2byte	0x1
 11948 0d84 50       		.byte	0x50
 11949 0d85 DC030000 		.4byte	.LVL137
 11950 0d89 EC030000 		.4byte	.LVL140
 11951 0d8d 0100     		.2byte	0x1
 11952 0d8f 59       		.byte	0x59
 11953 0d90 50040000 		.4byte	.LVL148
 11954 0d94 54040000 		.4byte	.LVL149
 11955 0d98 0100     		.2byte	0x1
 11956 0d9a 50       		.byte	0x50
 11957 0d9b 54040000 		.4byte	.LVL149
 11958 0d9f 5E040000 		.4byte	.LVL152
 11959 0da3 0100     		.2byte	0x1
 11960 0da5 59       		.byte	0x59
 11961 0da6 00000000 		.4byte	0
 11962 0daa 00000000 		.4byte	0
 11963              	.LLST42:
 11964 0dae E8000000 		.4byte	.LVL69
 11965 0db2 64010000 		.4byte	.LVL80
 11966 0db6 0600     		.2byte	0x6
 11967 0db8 7B       		.byte	0x7b
 11968 0db9 00       		.sleb128 0
 11969 0dba 74       		.byte	0x74
 11970 0dbb 00       		.sleb128 0
 11971 0dbc 1C       		.byte	0x1c
 11972 0dbd 9F       		.byte	0x9f
 11973 0dbe 72010000 		.4byte	.LVL82
 11974 0dc2 DC010000 		.4byte	.LVL90
 11975 0dc6 0600     		.2byte	0x6
 11976 0dc8 7B       		.byte	0x7b
 11977 0dc9 00       		.sleb128 0
 11978 0dca 74       		.byte	0x74
 11979 0dcb 00       		.sleb128 0
 11980 0dcc 1C       		.byte	0x1c
ARM GAS  C:\Users\jo\AppData\Local\Temp\ccnOsBUt.s 			page 213


 11981 0dcd 9F       		.byte	0x9f
 11982 0dce 30030000 		.4byte	.LVL126
 11983 0dd2 4C030000 		.4byte	.LVL130
 11984 0dd6 0600     		.2byte	0x6
 11985 0dd8 7B       		.byte	0x7b
 11986 0dd9 00       		.sleb128 0
 11987 0dda 74       		.byte	0x74
 11988 0ddb 00       		.sleb128 0
 11989 0ddc 1C       		.byte	0x1c
 11990 0ddd 9F       		.byte	0x9f
 11991 0dde D2030000 		.4byte	.LVL136
 11992 0de2 34040000 		.4byte	.LVL147
 11993 0de6 0600     		.2byte	0x6
 11994 0de8 7B       		.byte	0x7b
 11995 0de9 00       		.sleb128 0
 11996 0dea 74       		.byte	0x74
 11997 0deb 00       		.sleb128 0
 11998 0dec 1C       		.byte	0x1c
 11999 0ded 9F       		.byte	0x9f
 12000 0dee 50040000 		.4byte	.LVL148
 12001 0df2 5E040000 		.4byte	.LVL152
 12002 0df6 0600     		.2byte	0x6
 12003 0df8 7B       		.byte	0x7b
 12004 0df9 00       		.sleb128 0
 12005 0dfa 74       		.byte	0x74
 12006 0dfb 00       		.sleb128 0
 12007 0dfc 1C       		.byte	0x1c
 12008 0dfd 9F       		.byte	0x9f
 12009 0dfe 00000000 		.4byte	0
 12010 0e02 00000000 		.4byte	0
 12011              	.LLST43:
 12012 0e06 E8000000 		.4byte	.LVL69
 12013 0e0a DC010000 		.4byte	.LVL90
 12014 0e0e 0300     		.2byte	0x3
 12015 0e10 91       		.byte	0x91
 12016 0e11 B47F     		.sleb128 -76
 12017 0e13 30030000 		.4byte	.LVL126
 12018 0e17 60030000 		.4byte	.LVL133
 12019 0e1b 0300     		.2byte	0x3
 12020 0e1d 91       		.byte	0x91
 12021 0e1e B47F     		.sleb128 -76
 12022 0e20 D2030000 		.4byte	.LVL136
 12023 0e24 34040000 		.4byte	.LVL147
 12024 0e28 0300     		.2byte	0x3
 12025 0e2a 91       		.byte	0x91
 12026 0e2b B47F     		.sleb128 -76
 12027 0e2d 50040000 		.4byte	.LVL148
 12028 0e31 5E040000 		.4byte	.LVL152
 12029 0e35 0300     		.2byte	0x3
 12030 0e37 91       		.byte	0x91
 12031 0e38 B47F     		.sleb128 -76
 12032 0e3a 00000000 		.4byte	0
 12033 0e3e 00000000 		.4byte	0
 12034              	.LLST44:
 12035 0e42 E8000000 		.4byte	.LVL69
 12036 0e46 72010000 		.4byte	.LVL82
 12037 0e4a 0100     		.2byte	0x1
ARM GAS  C:\Users\jo\AppData\Local\Temp\ccnOsBUt.s 			page 214


 12038 0e4c 55       		.byte	0x55
 12039 0e4d 80010000 		.4byte	.LVL83
 12040 0e51 DC010000 		.4byte	.LVL90
 12041 0e55 0100     		.2byte	0x1
 12042 0e57 55       		.byte	0x55
 12043 0e58 30030000 		.4byte	.LVL126
 12044 0e5c 60030000 		.4byte	.LVL133
 12045 0e60 0100     		.2byte	0x1
 12046 0e62 55       		.byte	0x55
 12047 0e63 D2030000 		.4byte	.LVL136
 12048 0e67 34040000 		.4byte	.LVL147
 12049 0e6b 0100     		.2byte	0x1
 12050 0e6d 55       		.byte	0x55
 12051 0e6e 50040000 		.4byte	.LVL148
 12052 0e72 5E040000 		.4byte	.LVL152
 12053 0e76 0100     		.2byte	0x1
 12054 0e78 55       		.byte	0x55
 12055 0e79 00000000 		.4byte	0
 12056 0e7d 00000000 		.4byte	0
 12057              	.LLST45:
 12058 0e81 FC000000 		.4byte	.LVL70
 12059 0e85 08010000 		.4byte	.LVL71
 12060 0e89 0100     		.2byte	0x1
 12061 0e8b 50       		.byte	0x50
 12062 0e8c 08010000 		.4byte	.LVL71
 12063 0e90 32010000 		.4byte	.LVL76
 12064 0e94 0100     		.2byte	0x1
 12065 0e96 58       		.byte	0x58
 12066 0e97 50040000 		.4byte	.LVL148
 12067 0e9b 58040000 		.4byte	.LVL150
 12068 0e9f 0100     		.2byte	0x1
 12069 0ea1 58       		.byte	0x58
 12070 0ea2 58040000 		.4byte	.LVL150
 12071 0ea6 5B040000 		.4byte	.LVL151-1
 12072 0eaa 0100     		.2byte	0x1
 12073 0eac 50       		.byte	0x50
 12074 0ead 00000000 		.4byte	0
 12075 0eb1 00000000 		.4byte	0
 12076              	.LLST46:
 12077 0eb5 42030000 		.4byte	.LVL127
 12078 0eb9 4A030000 		.4byte	.LVL129
 12079 0ebd 0600     		.2byte	0x6
 12080 0ebf 03       		.byte	0x3
 12081 0ec0 D0010000 		.4byte	.LC10
 12082 0ec4 9F       		.byte	0x9f
 12083 0ec5 00000000 		.4byte	0
 12084 0ec9 00000000 		.4byte	0
 12085              	.LLST47:
 12086 0ecd E4030000 		.4byte	.LVL138
 12087 0ed1 EC030000 		.4byte	.LVL140
 12088 0ed5 0600     		.2byte	0x6
 12089 0ed7 03       		.byte	0x3
 12090 0ed8 90010000 		.4byte	.LC9
 12091 0edc 9F       		.byte	0x9f
 12092 0edd 00000000 		.4byte	0
 12093 0ee1 00000000 		.4byte	0
 12094              	.LLST48:
ARM GAS  C:\Users\jo\AppData\Local\Temp\ccnOsBUt.s 			page 215


 12095 0ee5 FE030000 		.4byte	.LVL142
 12096 0ee9 06040000 		.4byte	.LVL144
 12097 0eed 0600     		.2byte	0x6
 12098 0eef 03       		.byte	0x3
 12099 0ef0 E0010000 		.4byte	.LC11
 12100 0ef4 9F       		.byte	0x9f
 12101 0ef5 00000000 		.4byte	0
 12102 0ef9 00000000 		.4byte	0
 12103              	.LLST49:
 12104 0efd 66020000 		.4byte	.LVL106
 12105 0f01 7C020000 		.4byte	.LVL108
 12106 0f05 0100     		.2byte	0x1
 12107 0f07 54       		.byte	0x54
 12108 0f08 B4040000 		.4byte	.LVL157
 12109 0f0c C6040000 		.4byte	.LVL159
 12110 0f10 0100     		.2byte	0x1
 12111 0f12 54       		.byte	0x54
 12112 0f13 C6040000 		.4byte	.LVL159
 12113 0f17 D0040000 		.4byte	.LVL160
 12114 0f1b 0100     		.2byte	0x1
 12115 0f1d 52       		.byte	0x52
 12116 0f1e 00000000 		.4byte	0
 12117 0f22 00000000 		.4byte	0
 12118              	.LLST50:
 12119 0f26 28030000 		.4byte	.LVL124
 12120 0f2a 30030000 		.4byte	.LVL126
 12121 0f2e 0600     		.2byte	0x6
 12122 0f30 03       		.byte	0x3
 12123 0f31 60010000 		.4byte	.LC8
 12124 0f35 9F       		.byte	0x9f
 12125 0f36 00000000 		.4byte	0
 12126 0f3a 00000000 		.4byte	0
 12127              	.LLST51:
 12128 0f3e 2E050000 		.4byte	.LVL167
 12129 0f42 36050000 		.4byte	.LVL169
 12130 0f46 0600     		.2byte	0x6
 12131 0f48 03       		.byte	0x3
 12132 0f49 2C020000 		.4byte	.LC13
 12133 0f4d 9F       		.byte	0x9f
 12134 0f4e 00000000 		.4byte	0
 12135 0f52 00000000 		.4byte	0
 12136              	.LLST52:
 12137 0f56 6E050000 		.4byte	.LVL174
 12138 0f5a 78050000 		.4byte	.LVL176
 12139 0f5e 0600     		.2byte	0x6
 12140 0f60 03       		.byte	0x3
 12141 0f61 2C020000 		.4byte	.LC13
 12142 0f65 9F       		.byte	0x9f
 12143 0f66 00000000 		.4byte	0
 12144 0f6a 00000000 		.4byte	0
 12145              	.LLST53:
 12146 0f6e AE050000 		.4byte	.LVL179
 12147 0f72 B6050000 		.4byte	.LVL181
 12148 0f76 0600     		.2byte	0x6
 12149 0f78 03       		.byte	0x3
 12150 0f79 F4010000 		.4byte	.LC12
 12151 0f7d 9F       		.byte	0x9f
ARM GAS  C:\Users\jo\AppData\Local\Temp\ccnOsBUt.s 			page 216


 12152 0f7e 00000000 		.4byte	0
 12153 0f82 00000000 		.4byte	0
 12154              	.LLST54:
 12155 0f86 C8050000 		.4byte	.LVL184
 12156 0f8a D2050000 		.4byte	.LVL186
 12157 0f8e 0600     		.2byte	0x6
 12158 0f90 03       		.byte	0x3
 12159 0f91 9C000000 		.4byte	.LC4
 12160 0f95 9F       		.byte	0x9f
 12161 0f96 00000000 		.4byte	0
 12162 0f9a 00000000 		.4byte	0
 12163              	.LLST55:
 12164 0f9e 00000000 		.4byte	.LVL188
 12165 0fa2 10000000 		.4byte	.LVL189
 12166 0fa6 0100     		.2byte	0x1
 12167 0fa8 50       		.byte	0x50
 12168 0fa9 10000000 		.4byte	.LVL189
 12169 0fad C6000000 		.4byte	.LVL200
 12170 0fb1 0100     		.2byte	0x1
 12171 0fb3 54       		.byte	0x54
 12172 0fb4 C6000000 		.4byte	.LVL200
 12173 0fb8 CE000000 		.4byte	.LVL201
 12174 0fbc 0400     		.2byte	0x4
 12175 0fbe F3       		.byte	0xf3
 12176 0fbf 01       		.uleb128 0x1
 12177 0fc0 50       		.byte	0x50
 12178 0fc1 9F       		.byte	0x9f
 12179 0fc2 CE000000 		.4byte	.LVL201
 12180 0fc6 D8000000 		.4byte	.LVL202
 12181 0fca 0100     		.2byte	0x1
 12182 0fcc 54       		.byte	0x54
 12183 0fcd D8000000 		.4byte	.LVL202
 12184 0fd1 E2000000 		.4byte	.LVL204
 12185 0fd5 0100     		.2byte	0x1
 12186 0fd7 50       		.byte	0x50
 12187 0fd8 E2000000 		.4byte	.LVL204
 12188 0fdc 4A010000 		.4byte	.LVL220
 12189 0fe0 0100     		.2byte	0x1
 12190 0fe2 54       		.byte	0x54
 12191 0fe3 4A010000 		.4byte	.LVL220
 12192 0fe7 6A010000 		.4byte	.LVL223
 12193 0feb 0400     		.2byte	0x4
 12194 0fed F3       		.byte	0xf3
 12195 0fee 01       		.uleb128 0x1
 12196 0fef 50       		.byte	0x50
 12197 0ff0 9F       		.byte	0x9f
 12198 0ff1 6A010000 		.4byte	.LVL223
 12199 0ff5 D0010000 		.4byte	.LFE262
 12200 0ff9 0100     		.2byte	0x1
 12201 0ffb 54       		.byte	0x54
 12202 0ffc 00000000 		.4byte	0
 12203 1000 00000000 		.4byte	0
 12204              	.LLST56:
 12205 1004 00000000 		.4byte	.LVL188
 12206 1008 10000000 		.4byte	.LVL189
 12207 100c 0100     		.2byte	0x1
 12208 100e 51       		.byte	0x51
ARM GAS  C:\Users\jo\AppData\Local\Temp\ccnOsBUt.s 			page 217


 12209 100f 10000000 		.4byte	.LVL189
 12210 1013 D8000000 		.4byte	.LVL202
 12211 1017 0400     		.2byte	0x4
 12212 1019 F3       		.byte	0xf3
 12213 101a 01       		.uleb128 0x1
 12214 101b 51       		.byte	0x51
 12215 101c 9F       		.byte	0x9f
 12216 101d D8000000 		.4byte	.LVL202
 12217 1021 DE000000 		.4byte	.LVL203
 12218 1025 0100     		.2byte	0x1
 12219 1027 51       		.byte	0x51
 12220 1028 DE000000 		.4byte	.LVL203
 12221 102c D0010000 		.4byte	.LFE262
 12222 1030 0400     		.2byte	0x4
 12223 1032 F3       		.byte	0xf3
 12224 1033 01       		.uleb128 0x1
 12225 1034 51       		.byte	0x51
 12226 1035 9F       		.byte	0x9f
 12227 1036 00000000 		.4byte	0
 12228 103a 00000000 		.4byte	0
 12229              	.LLST57:
 12230 103e 44000000 		.4byte	.LVL192
 12231 1042 52000000 		.4byte	.LVL193
 12232 1046 0100     		.2byte	0x1
 12233 1048 50       		.byte	0x50
 12234 1049 52000000 		.4byte	.LVL193
 12235 104d C6000000 		.4byte	.LVL200
 12236 1051 0100     		.2byte	0x1
 12237 1053 58       		.byte	0x58
 12238 1054 CE000000 		.4byte	.LVL201
 12239 1058 D8000000 		.4byte	.LVL202
 12240 105c 0100     		.2byte	0x1
 12241 105e 58       		.byte	0x58
 12242 105f F2000000 		.4byte	.LVL207
 12243 1063 FC000000 		.4byte	.LVL208
 12244 1067 0100     		.2byte	0x1
 12245 1069 50       		.byte	0x50
 12246 106a FC000000 		.4byte	.LVL208
 12247 106e 6A010000 		.4byte	.LVL223
 12248 1072 0100     		.2byte	0x1
 12249 1074 58       		.byte	0x58
 12250 1075 92010000 		.4byte	.LVL225
 12251 1079 D0010000 		.4byte	.LFE262
 12252 107d 0100     		.2byte	0x1
 12253 107f 58       		.byte	0x58
 12254 1080 00000000 		.4byte	0
 12255 1084 00000000 		.4byte	0
 12256              	.LLST58:
 12257 1088 6A000000 		.4byte	.LVL194
 12258 108c 78000000 		.4byte	.LVL195
 12259 1090 0100     		.2byte	0x1
 12260 1092 50       		.byte	0x50
 12261 1093 78000000 		.4byte	.LVL195
 12262 1097 C6000000 		.4byte	.LVL200
 12263 109b 0100     		.2byte	0x1
 12264 109d 55       		.byte	0x55
 12265 109e CE000000 		.4byte	.LVL201
ARM GAS  C:\Users\jo\AppData\Local\Temp\ccnOsBUt.s 			page 218


 12266 10a2 D8000000 		.4byte	.LVL202
 12267 10a6 0100     		.2byte	0x1
 12268 10a8 55       		.byte	0x55
 12269 10a9 0C010000 		.4byte	.LVL211
 12270 10ad 2E010000 		.4byte	.LVL215
 12271 10b1 0100     		.2byte	0x1
 12272 10b3 55       		.byte	0x55
 12273 10b4 2E010000 		.4byte	.LVL215
 12274 10b8 38010000 		.4byte	.LVL216
 12275 10bc 0100     		.2byte	0x1
 12276 10be 50       		.byte	0x50
 12277 10bf 38010000 		.4byte	.LVL216
 12278 10c3 6A010000 		.4byte	.LVL223
 12279 10c7 0100     		.2byte	0x1
 12280 10c9 55       		.byte	0x55
 12281 10ca 00000000 		.4byte	0
 12282 10ce 00000000 		.4byte	0
 12283              	.LLST59:
 12284 10d2 00000000 		.4byte	.LVL188
 12285 10d6 32000000 		.4byte	.LVL190
 12286 10da 0200     		.2byte	0x2
 12287 10dc 30       		.byte	0x30
 12288 10dd 9F       		.byte	0x9f
 12289 10de 32000000 		.4byte	.LVL190
 12290 10e2 3E000000 		.4byte	.LVL191
 12291 10e6 0100     		.2byte	0x1
 12292 10e8 51       		.byte	0x51
 12293 10e9 3E000000 		.4byte	.LVL191
 12294 10ed 43000000 		.4byte	.LVL192-1
 12295 10f1 1000     		.2byte	0x10
 12296 10f3 34       		.byte	0x34
 12297 10f4 73       		.byte	0x73
 12298 10f5 00       		.sleb128 0
 12299 10f6 08       		.byte	0x8
 12300 10f7 FF       		.byte	0xff
 12301 10f8 1A       		.byte	0x1a
 12302 10f9 73       		.byte	0x73
 12303 10fa 00       		.sleb128 0
 12304 10fb 30       		.byte	0x30
 12305 10fc 2E       		.byte	0x2e
 12306 10fd 28       		.byte	0x28
 12307 10fe 0100     		.2byte	0x1
 12308 1100 16       		.byte	0x16
 12309 1101 13       		.byte	0x13
 12310 1102 9F       		.byte	0x9f
 12311 1103 43000000 		.4byte	.LVL192-1
 12312 1107 C6000000 		.4byte	.LVL200
 12313 110b 1100     		.2byte	0x11
 12314 110d 34       		.byte	0x34
 12315 110e 76       		.byte	0x76
 12316 110f 00       		.sleb128 0
 12317 1110 32       		.byte	0x32
 12318 1111 1A       		.byte	0x1a
 12319 1112 76       		.byte	0x76
 12320 1113 00       		.sleb128 0
 12321 1114 32       		.byte	0x32
 12322 1115 1A       		.byte	0x1a
ARM GAS  C:\Users\jo\AppData\Local\Temp\ccnOsBUt.s 			page 219


 12323 1116 30       		.byte	0x30
 12324 1117 2E       		.byte	0x2e
 12325 1118 28       		.byte	0x28
 12326 1119 0100     		.2byte	0x1
 12327 111b 16       		.byte	0x16
 12328 111c 13       		.byte	0x13
 12329 111d 9F       		.byte	0x9f
 12330 111e CE000000 		.4byte	.LVL201
 12331 1122 D8000000 		.4byte	.LVL202
 12332 1126 1100     		.2byte	0x11
 12333 1128 34       		.byte	0x34
 12334 1129 76       		.byte	0x76
 12335 112a 00       		.sleb128 0
 12336 112b 32       		.byte	0x32
 12337 112c 1A       		.byte	0x1a
 12338 112d 76       		.byte	0x76
 12339 112e 00       		.sleb128 0
 12340 112f 32       		.byte	0x32
 12341 1130 1A       		.byte	0x1a
 12342 1131 30       		.byte	0x30
 12343 1132 2E       		.byte	0x2e
 12344 1133 28       		.byte	0x28
 12345 1134 0100     		.2byte	0x1
 12346 1136 16       		.byte	0x16
 12347 1137 13       		.byte	0x13
 12348 1138 9F       		.byte	0x9f
 12349 1139 D8000000 		.4byte	.LVL202
 12350 113d F2000000 		.4byte	.LVL207
 12351 1141 0200     		.2byte	0x2
 12352 1143 30       		.byte	0x30
 12353 1144 9F       		.byte	0x9f
 12354 1145 F2000000 		.4byte	.LVL207
 12355 1149 6A010000 		.4byte	.LVL223
 12356 114d 1100     		.2byte	0x11
 12357 114f 34       		.byte	0x34
 12358 1150 76       		.byte	0x76
 12359 1151 00       		.sleb128 0
 12360 1152 32       		.byte	0x32
 12361 1153 1A       		.byte	0x1a
 12362 1154 76       		.byte	0x76
 12363 1155 00       		.sleb128 0
 12364 1156 32       		.byte	0x32
 12365 1157 1A       		.byte	0x1a
 12366 1158 30       		.byte	0x30
 12367 1159 2E       		.byte	0x2e
 12368 115a 28       		.byte	0x28
 12369 115b 0100     		.2byte	0x1
 12370 115d 16       		.byte	0x16
 12371 115e 13       		.byte	0x13
 12372 115f 9F       		.byte	0x9f
 12373 1160 6A010000 		.4byte	.LVL223
 12374 1164 7A010000 		.4byte	.LVL224
 12375 1168 0100     		.2byte	0x1
 12376 116a 51       		.byte	0x51
 12377 116b 7A010000 		.4byte	.LVL224
 12378 116f 92010000 		.4byte	.LVL225
 12379 1173 0200     		.2byte	0x2
ARM GAS  C:\Users\jo\AppData\Local\Temp\ccnOsBUt.s 			page 220


 12380 1175 30       		.byte	0x30
 12381 1176 9F       		.byte	0x9f
 12382 1177 92010000 		.4byte	.LVL225
 12383 117b D0010000 		.4byte	.LFE262
 12384 117f 1100     		.2byte	0x11
 12385 1181 34       		.byte	0x34
 12386 1182 76       		.byte	0x76
 12387 1183 00       		.sleb128 0
 12388 1184 32       		.byte	0x32
 12389 1185 1A       		.byte	0x1a
 12390 1186 76       		.byte	0x76
 12391 1187 00       		.sleb128 0
 12392 1188 32       		.byte	0x32
 12393 1189 1A       		.byte	0x1a
 12394 118a 30       		.byte	0x30
 12395 118b 2E       		.byte	0x2e
 12396 118c 28       		.byte	0x28
 12397 118d 0100     		.2byte	0x1
 12398 118f 16       		.byte	0x16
 12399 1190 13       		.byte	0x13
 12400 1191 9F       		.byte	0x9f
 12401 1192 00000000 		.4byte	0
 12402 1196 00000000 		.4byte	0
 12403              	.LLST60:
 12404 119a 84000000 		.4byte	.LVL196
 12405 119e 8E000000 		.4byte	.LVL198
 12406 11a2 0100     		.2byte	0x1
 12407 11a4 52       		.byte	0x52
 12408 11a5 00000000 		.4byte	0
 12409 11a9 00000000 		.4byte	0
 12410              	.LLST61:
 12411 11ad EA000000 		.4byte	.LVL205
 12412 11b1 F2000000 		.4byte	.LVL207
 12413 11b5 0600     		.2byte	0x6
 12414 11b7 03       		.byte	0x3
 12415 11b8 4C020000 		.4byte	.LC14
 12416 11bc 9F       		.byte	0x9f
 12417 11bd 00000000 		.4byte	0
 12418 11c1 00000000 		.4byte	0
 12419              	.LLST62:
 12420 11c5 04010000 		.4byte	.LVL209
 12421 11c9 0C010000 		.4byte	.LVL211
 12422 11cd 0600     		.2byte	0x6
 12423 11cf 03       		.byte	0x3
 12424 11d0 A4020000 		.4byte	.LC15
 12425 11d4 9F       		.byte	0x9f
 12426 11d5 00000000 		.4byte	0
 12427 11d9 00000000 		.4byte	0
 12428              	.LLST63:
 12429 11dd 1E010000 		.4byte	.LVL212
 12430 11e1 2A010000 		.4byte	.LVL214
 12431 11e5 0600     		.2byte	0x6
 12432 11e7 03       		.byte	0x3
 12433 11e8 F8020000 		.4byte	.LC17
 12434 11ec 9F       		.byte	0x9f
 12435 11ed 00000000 		.4byte	0
 12436 11f1 00000000 		.4byte	0
ARM GAS  C:\Users\jo\AppData\Local\Temp\ccnOsBUt.s 			page 221


 12437              	.LLST64:
 12438 11f5 40010000 		.4byte	.LVL217
 12439 11f9 48010000 		.4byte	.LVL219
 12440 11fd 0600     		.2byte	0x6
 12441 11ff 03       		.byte	0x3
 12442 1200 E0020000 		.4byte	.LC16
 12443 1204 9F       		.byte	0x9f
 12444 1205 00000000 		.4byte	0
 12445 1209 00000000 		.4byte	0
 12446              	.LLST65:
 12447 120d 60010000 		.4byte	.LVL221
 12448 1211 6A010000 		.4byte	.LVL223
 12449 1215 0600     		.2byte	0x6
 12450 1217 03       		.byte	0x3
 12451 1218 24030000 		.4byte	.LC18
 12452 121c 9F       		.byte	0x9f
 12453 121d 00000000 		.4byte	0
 12454 1221 00000000 		.4byte	0
 12455              	.LLST66:
 12456 1225 00000000 		.4byte	.LVL226
 12457 1229 16000000 		.4byte	.LVL229
 12458 122d 0100     		.2byte	0x1
 12459 122f 50       		.byte	0x50
 12460 1230 16000000 		.4byte	.LVL229
 12461 1234 28000000 		.4byte	.LVL232
 12462 1238 0100     		.2byte	0x1
 12463 123a 55       		.byte	0x55
 12464 123b 28000000 		.4byte	.LVL232
 12465 123f 2B000000 		.4byte	.LVL233-1
 12466 1243 0100     		.2byte	0x1
 12467 1245 50       		.byte	0x50
 12468 1246 2B000000 		.4byte	.LVL233-1
 12469 124a 2C000000 		.4byte	.LVL233
 12470 124e 0400     		.2byte	0x4
 12471 1250 F3       		.byte	0xf3
 12472 1251 01       		.uleb128 0x1
 12473 1252 50       		.byte	0x50
 12474 1253 9F       		.byte	0x9f
 12475 1254 2C000000 		.4byte	.LVL233
 12476 1258 46000000 		.4byte	.LFE257
 12477 125c 0100     		.2byte	0x1
 12478 125e 55       		.byte	0x55
 12479 125f 00000000 		.4byte	0
 12480 1263 00000000 		.4byte	0
 12481              	.LLST67:
 12482 1267 0A000000 		.4byte	.LVL227
 12483 126b 20000000 		.4byte	.LVL231
 12484 126f 0100     		.2byte	0x1
 12485 1271 54       		.byte	0x54
 12486 1272 2C000000 		.4byte	.LVL233
 12487 1276 32000000 		.4byte	.LVL234
 12488 127a 0100     		.2byte	0x1
 12489 127c 54       		.byte	0x54
 12490 127d 00000000 		.4byte	0
 12491 1281 00000000 		.4byte	0
 12492              	.LLST68:
 12493 1285 00000000 		.4byte	.LVL236
ARM GAS  C:\Users\jo\AppData\Local\Temp\ccnOsBUt.s 			page 222


 12494 1289 08000000 		.4byte	.LVL237
 12495 128d 0100     		.2byte	0x1
 12496 128f 50       		.byte	0x50
 12497 1290 08000000 		.4byte	.LVL237
 12498 1294 5C000000 		.4byte	.LFE263
 12499 1298 0100     		.2byte	0x1
 12500 129a 54       		.byte	0x54
 12501 129b 00000000 		.4byte	0
 12502 129f 00000000 		.4byte	0
 12503              	.LLST69:
 12504 12a3 16000000 		.4byte	.LVL239
 12505 12a7 33000000 		.4byte	.LVL241-1
 12506 12ab 0100     		.2byte	0x1
 12507 12ad 50       		.byte	0x50
 12508 12ae 33000000 		.4byte	.LVL241-1
 12509 12b2 52000000 		.4byte	.LVL244
 12510 12b6 0100     		.2byte	0x1
 12511 12b8 55       		.byte	0x55
 12512 12b9 58000000 		.4byte	.LVL245
 12513 12bd 5A000000 		.4byte	.LVL246
 12514 12c1 0100     		.2byte	0x1
 12515 12c3 50       		.byte	0x50
 12516 12c4 00000000 		.4byte	0
 12517 12c8 00000000 		.4byte	0
 12518              	.LLST70:
 12519 12cc 1C000000 		.4byte	.LVL240
 12520 12d0 52000000 		.4byte	.LVL244
 12521 12d4 0100     		.2byte	0x1
 12522 12d6 57       		.byte	0x57
 12523 12d7 00000000 		.4byte	0
 12524 12db 00000000 		.4byte	0
 12525              	.LLST71:
 12526 12df 00000000 		.4byte	.LVL247
 12527 12e3 10000000 		.4byte	.LVL248
 12528 12e7 0100     		.2byte	0x1
 12529 12e9 50       		.byte	0x50
 12530 12ea 10000000 		.4byte	.LVL248
 12531 12ee 0C030000 		.4byte	.LVL304
 12532 12f2 0100     		.2byte	0x1
 12533 12f4 54       		.byte	0x54
 12534 12f5 0C030000 		.4byte	.LVL304
 12535 12f9 0F030000 		.4byte	.LVL305-1
 12536 12fd 0100     		.2byte	0x1
 12537 12ff 50       		.byte	0x50
 12538 1300 0F030000 		.4byte	.LVL305-1
 12539 1304 10030000 		.4byte	.LVL305
 12540 1308 0400     		.2byte	0x4
 12541 130a F3       		.byte	0xf3
 12542 130b 01       		.uleb128 0x1
 12543 130c 50       		.byte	0x50
 12544 130d 9F       		.byte	0x9f
 12545 130e 10030000 		.4byte	.LVL305
 12546 1312 1A030000 		.4byte	.LVL306
 12547 1316 0100     		.2byte	0x1
 12548 1318 50       		.byte	0x50
 12549 1319 1A030000 		.4byte	.LVL306
 12550 131d 3C030000 		.4byte	.LFE264
ARM GAS  C:\Users\jo\AppData\Local\Temp\ccnOsBUt.s 			page 223


 12551 1321 0100     		.2byte	0x1
 12552 1323 54       		.byte	0x54
 12553 1324 00000000 		.4byte	0
 12554 1328 00000000 		.4byte	0
 12555              	.LLST72:
 12556 132c 2C000000 		.4byte	.LVL249
 12557 1330 60020000 		.4byte	.LVL293
 12558 1334 0100     		.2byte	0x1
 12559 1336 55       		.byte	0x55
 12560 1337 68020000 		.4byte	.LVL294
 12561 133b 0C030000 		.4byte	.LVL304
 12562 133f 0100     		.2byte	0x1
 12563 1341 55       		.byte	0x55
 12564 1342 00000000 		.4byte	0
 12565 1346 00000000 		.4byte	0
 12566              	.LLST73:
 12567 134a 50000000 		.4byte	.LVL251
 12568 134e BA010000 		.4byte	.LVL271
 12569 1352 0100     		.2byte	0x1
 12570 1354 57       		.byte	0x57
 12571 1355 BA010000 		.4byte	.LVL271
 12572 1359 BC010000 		.4byte	.LVL272
 12573 135d 0200     		.2byte	0x2
 12574 135f 77       		.byte	0x77
 12575 1360 00       		.sleb128 0
 12576 1361 BC010000 		.4byte	.LVL272
 12577 1365 00020000 		.4byte	.LVL279
 12578 1369 0100     		.2byte	0x1
 12579 136b 57       		.byte	0x57
 12580 136c 02020000 		.4byte	.LVL280
 12581 1370 4A020000 		.4byte	.LVL289
 12582 1374 0100     		.2byte	0x1
 12583 1376 57       		.byte	0x57
 12584 1377 4A020000 		.4byte	.LVL289
 12585 137b 52020000 		.4byte	.LVL291
 12586 137f 0300     		.2byte	0x3
 12587 1381 74       		.byte	0x74
 12588 1382 F000     		.sleb128 112
 12589 1384 52020000 		.4byte	.LVL291
 12590 1388 60020000 		.4byte	.LVL293
 12591 138c 0100     		.2byte	0x1
 12592 138e 57       		.byte	0x57
 12593 138f 68020000 		.4byte	.LVL294
 12594 1393 04030000 		.4byte	.LVL303
 12595 1397 0100     		.2byte	0x1
 12596 1399 57       		.byte	0x57
 12597 139a 00000000 		.4byte	0
 12598 139e 00000000 		.4byte	0
 12599              	.LLST74:
 12600 13a2 2C000000 		.4byte	.LVL249
 12601 13a6 60020000 		.4byte	.LVL293
 12602 13aa 0100     		.2byte	0x1
 12603 13ac 58       		.byte	0x58
 12604 13ad 68020000 		.4byte	.LVL294
 12605 13b1 0C030000 		.4byte	.LVL304
 12606 13b5 0100     		.2byte	0x1
 12607 13b7 58       		.byte	0x58
ARM GAS  C:\Users\jo\AppData\Local\Temp\ccnOsBUt.s 			page 224


 12608 13b8 00000000 		.4byte	0
 12609 13bc 00000000 		.4byte	0
 12610              	.LLST75:
 12611 13c0 76010000 		.4byte	.LVL266
 12612 13c4 82010000 		.4byte	.LVL267
 12613 13c8 0100     		.2byte	0x1
 12614 13ca 50       		.byte	0x50
 12615 13cb 00000000 		.4byte	0
 12616 13cf 00000000 		.4byte	0
 12617              	.LLST76:
 12618 13d3 A8000000 		.4byte	.LVL253
 12619 13d7 C2010000 		.4byte	.LVL274
 12620 13db 0100     		.2byte	0x1
 12621 13dd 54       		.byte	0x54
 12622 13de 10020000 		.4byte	.LVL282
 12623 13e2 54020000 		.4byte	.LVL292
 12624 13e6 0100     		.2byte	0x1
 12625 13e8 54       		.byte	0x54
 12626 13e9 68020000 		.4byte	.LVL294
 12627 13ed A8020000 		.4byte	.LVL301
 12628 13f1 0100     		.2byte	0x1
 12629 13f3 54       		.byte	0x54
 12630 13f4 00000000 		.4byte	0
 12631 13f8 00000000 		.4byte	0
 12632              	.LLST77:
 12633 13fc A8000000 		.4byte	.LVL253
 12634 1400 BE010000 		.4byte	.LVL273
 12635 1404 0100     		.2byte	0x1
 12636 1406 55       		.byte	0x55
 12637 1407 10020000 		.4byte	.LVL282
 12638 140b 4E020000 		.4byte	.LVL290
 12639 140f 0100     		.2byte	0x1
 12640 1411 55       		.byte	0x55
 12641 1412 4E020000 		.4byte	.LVL290
 12642 1416 52020000 		.4byte	.LVL291
 12643 141a 0300     		.2byte	0x3
 12644 141c 74       		.byte	0x74
 12645 141d F000     		.sleb128 112
 12646 141f 68020000 		.4byte	.LVL294
 12647 1423 A8020000 		.4byte	.LVL301
 12648 1427 0100     		.2byte	0x1
 12649 1429 55       		.byte	0x55
 12650 142a 00000000 		.4byte	0
 12651 142e 00000000 		.4byte	0
 12652              	.LLST78:
 12653 1432 0E010000 		.4byte	.LVL260
 12654 1436 14010000 		.4byte	.LVL261
 12655 143a 0100     		.2byte	0x1
 12656 143c 52       		.byte	0x52
 12657 143d 00000000 		.4byte	0
 12658 1441 00000000 		.4byte	0
 12659              	.LLST79:
 12660 1445 E8000000 		.4byte	.LVL258
 12661 1449 F0000000 		.4byte	.LVL259
 12662 144d 0100     		.2byte	0x1
 12663 144f 50       		.byte	0x50
 12664 1450 00000000 		.4byte	0
ARM GAS  C:\Users\jo\AppData\Local\Temp\ccnOsBUt.s 			page 225


 12665 1454 00000000 		.4byte	0
 12666              	.LLST80:
 12667 1458 CA000000 		.4byte	.LVL256
 12668 145c DE000000 		.4byte	.LVL257
 12669 1460 0300     		.2byte	0x3
 12670 1462 7A       		.byte	0x7a
 12671 1463 14       		.sleb128 20
 12672 1464 9F       		.byte	0x9f
 12673 1465 10020000 		.4byte	.LVL282
 12674 1469 2A020000 		.4byte	.LVL286
 12675 146d 0300     		.2byte	0x3
 12676 146f 7A       		.byte	0x7a
 12677 1470 14       		.sleb128 20
 12678 1471 9F       		.byte	0x9f
 12679 1472 2A020000 		.4byte	.LVL286
 12680 1476 30020000 		.4byte	.LVL287
 12681 147a 0300     		.2byte	0x3
 12682 147c 7A       		.byte	0x7a
 12683 147d 18       		.sleb128 24
 12684 147e 9F       		.byte	0x9f
 12685 147f 00000000 		.4byte	0
 12686 1483 00000000 		.4byte	0
 12687              	.LLST81:
 12688 1487 1A020000 		.4byte	.LVL283
 12689 148b 1E020000 		.4byte	.LVL284
 12690 148f 0100     		.2byte	0x1
 12691 1491 50       		.byte	0x50
 12692 1492 00000000 		.4byte	0
 12693 1496 00000000 		.4byte	0
 12694              	.LLST82:
 12695 149a F8010000 		.4byte	.LVL277
 12696 149e 00020000 		.4byte	.LVL279
 12697 14a2 0600     		.2byte	0x6
 12698 14a4 03       		.byte	0x3
 12699 14a5 74030000 		.4byte	.LC20
 12700 14a9 9F       		.byte	0x9f
 12701 14aa 00000000 		.4byte	0
 12702 14ae 00000000 		.4byte	0
 12703              	.LLST83:
 12704 14b2 6E020000 		.4byte	.LVL295
 12705 14b6 A0020000 		.4byte	.LVL299
 12706 14ba 0100     		.2byte	0x1
 12707 14bc 5A       		.byte	0x5a
 12708 14bd 00000000 		.4byte	0
 12709 14c1 00000000 		.4byte	0
 12710              	.LLST84:
 12711 14c5 00000000 		.4byte	.LVL309
 12712 14c9 0E000000 		.4byte	.LVL310
 12713 14cd 0100     		.2byte	0x1
 12714 14cf 50       		.byte	0x50
 12715 14d0 0E000000 		.4byte	.LVL310
 12716 14d4 A6000000 		.4byte	.LVL325
 12717 14d8 0100     		.2byte	0x1
 12718 14da 59       		.byte	0x59
 12719 14db A6000000 		.4byte	.LVL325
 12720 14df AA000000 		.4byte	.LVL326
 12721 14e3 0400     		.2byte	0x4
ARM GAS  C:\Users\jo\AppData\Local\Temp\ccnOsBUt.s 			page 226


 12722 14e5 F3       		.byte	0xf3
 12723 14e6 01       		.uleb128 0x1
 12724 14e7 50       		.byte	0x50
 12725 14e8 9F       		.byte	0x9f
 12726 14e9 AA000000 		.4byte	.LVL326
 12727 14ed CA000000 		.4byte	.LVL331
 12728 14f1 0100     		.2byte	0x1
 12729 14f3 59       		.byte	0x59
 12730 14f4 CA000000 		.4byte	.LVL331
 12731 14f8 E0000000 		.4byte	.LFE266
 12732 14fc 0400     		.2byte	0x4
 12733 14fe F3       		.byte	0xf3
 12734 14ff 01       		.uleb128 0x1
 12735 1500 50       		.byte	0x50
 12736 1501 9F       		.byte	0x9f
 12737 1502 00000000 		.4byte	0
 12738 1506 00000000 		.4byte	0
 12739              	.LLST85:
 12740 150a 00000000 		.4byte	.LVL309
 12741 150e 10000000 		.4byte	.LVL311
 12742 1512 0100     		.2byte	0x1
 12743 1514 51       		.byte	0x51
 12744 1515 10000000 		.4byte	.LVL311
 12745 1519 58000000 		.4byte	.LVL321
 12746 151d 0100     		.2byte	0x1
 12747 151f 56       		.byte	0x56
 12748 1520 58000000 		.4byte	.LVL321
 12749 1524 AA000000 		.4byte	.LVL326
 12750 1528 0400     		.2byte	0x4
 12751 152a F3       		.byte	0xf3
 12752 152b 01       		.uleb128 0x1
 12753 152c 51       		.byte	0x51
 12754 152d 9F       		.byte	0x9f
 12755 152e AA000000 		.4byte	.LVL326
 12756 1532 CA000000 		.4byte	.LVL331
 12757 1536 0100     		.2byte	0x1
 12758 1538 56       		.byte	0x56
 12759 1539 CA000000 		.4byte	.LVL331
 12760 153d E0000000 		.4byte	.LFE266
 12761 1541 0400     		.2byte	0x4
 12762 1543 F3       		.byte	0xf3
 12763 1544 01       		.uleb128 0x1
 12764 1545 51       		.byte	0x51
 12765 1546 9F       		.byte	0x9f
 12766 1547 00000000 		.4byte	0
 12767 154b 00000000 		.4byte	0
 12768              	.LLST86:
 12769 154f 00000000 		.4byte	.LVL309
 12770 1553 12000000 		.4byte	.LVL312
 12771 1557 0100     		.2byte	0x1
 12772 1559 52       		.byte	0x52
 12773 155a 12000000 		.4byte	.LVL312
 12774 155e A6000000 		.4byte	.LVL325
 12775 1562 0100     		.2byte	0x1
 12776 1564 58       		.byte	0x58
 12777 1565 A6000000 		.4byte	.LVL325
 12778 1569 AA000000 		.4byte	.LVL326
ARM GAS  C:\Users\jo\AppData\Local\Temp\ccnOsBUt.s 			page 227


 12779 156d 0400     		.2byte	0x4
 12780 156f F3       		.byte	0xf3
 12781 1570 01       		.uleb128 0x1
 12782 1571 52       		.byte	0x52
 12783 1572 9F       		.byte	0x9f
 12784 1573 AA000000 		.4byte	.LVL326
 12785 1577 CA000000 		.4byte	.LVL331
 12786 157b 0100     		.2byte	0x1
 12787 157d 58       		.byte	0x58
 12788 157e CA000000 		.4byte	.LVL331
 12789 1582 E0000000 		.4byte	.LFE266
 12790 1586 0400     		.2byte	0x4
 12791 1588 F3       		.byte	0xf3
 12792 1589 01       		.uleb128 0x1
 12793 158a 52       		.byte	0x52
 12794 158b 9F       		.byte	0x9f
 12795 158c 00000000 		.4byte	0
 12796 1590 00000000 		.4byte	0
 12797              	.LLST87:
 12798 1594 00000000 		.4byte	.LVL309
 12799 1598 1F000000 		.4byte	.LVL313-1
 12800 159c 0100     		.2byte	0x1
 12801 159e 53       		.byte	0x53
 12802 159f 1F000000 		.4byte	.LVL313-1
 12803 15a3 A6000000 		.4byte	.LVL325
 12804 15a7 0100     		.2byte	0x1
 12805 15a9 57       		.byte	0x57
 12806 15aa A6000000 		.4byte	.LVL325
 12807 15ae AA000000 		.4byte	.LVL326
 12808 15b2 0400     		.2byte	0x4
 12809 15b4 F3       		.byte	0xf3
 12810 15b5 01       		.uleb128 0x1
 12811 15b6 53       		.byte	0x53
 12812 15b7 9F       		.byte	0x9f
 12813 15b8 AA000000 		.4byte	.LVL326
 12814 15bc CA000000 		.4byte	.LVL331
 12815 15c0 0100     		.2byte	0x1
 12816 15c2 57       		.byte	0x57
 12817 15c3 CA000000 		.4byte	.LVL331
 12818 15c7 E0000000 		.4byte	.LFE266
 12819 15cb 0400     		.2byte	0x4
 12820 15cd F3       		.byte	0xf3
 12821 15ce 01       		.uleb128 0x1
 12822 15cf 53       		.byte	0x53
 12823 15d0 9F       		.byte	0x9f
 12824 15d1 00000000 		.4byte	0
 12825 15d5 00000000 		.4byte	0
 12826              	.LLST88:
 12827 15d9 00000000 		.4byte	.LVL309
 12828 15dd A6000000 		.4byte	.LVL325
 12829 15e1 0200     		.2byte	0x2
 12830 15e3 91       		.byte	0x91
 12831 15e4 00       		.sleb128 0
 12832 15e5 A6000000 		.4byte	.LVL325
 12833 15e9 AA000000 		.4byte	.LVL326
 12834 15ed 0200     		.2byte	0x2
 12835 15ef 7D       		.byte	0x7d
ARM GAS  C:\Users\jo\AppData\Local\Temp\ccnOsBUt.s 			page 228


 12836 15f0 00       		.sleb128 0
 12837 15f1 AA000000 		.4byte	.LVL326
 12838 15f5 CA000000 		.4byte	.LVL331
 12839 15f9 0200     		.2byte	0x2
 12840 15fb 91       		.byte	0x91
 12841 15fc 00       		.sleb128 0
 12842 15fd CA000000 		.4byte	.LVL331
 12843 1601 E0000000 		.4byte	.LFE266
 12844 1605 0200     		.2byte	0x2
 12845 1607 7D       		.byte	0x7d
 12846 1608 00       		.sleb128 0
 12847 1609 00000000 		.4byte	0
 12848 160d 00000000 		.4byte	0
 12849              	.LLST89:
 12850 1611 00000000 		.4byte	.LVL309
 12851 1615 A6000000 		.4byte	.LVL325
 12852 1619 0200     		.2byte	0x2
 12853 161b 91       		.byte	0x91
 12854 161c 04       		.sleb128 4
 12855 161d A6000000 		.4byte	.LVL325
 12856 1621 AA000000 		.4byte	.LVL326
 12857 1625 0200     		.2byte	0x2
 12858 1627 7D       		.byte	0x7d
 12859 1628 04       		.sleb128 4
 12860 1629 AA000000 		.4byte	.LVL326
 12861 162d CA000000 		.4byte	.LVL331
 12862 1631 0200     		.2byte	0x2
 12863 1633 91       		.byte	0x91
 12864 1634 04       		.sleb128 4
 12865 1635 CA000000 		.4byte	.LVL331
 12866 1639 E0000000 		.4byte	.LFE266
 12867 163d 0200     		.2byte	0x2
 12868 163f 7D       		.byte	0x7d
 12869 1640 04       		.sleb128 4
 12870 1641 00000000 		.4byte	0
 12871 1645 00000000 		.4byte	0
 12872              	.LLST90:
 12873 1649 20000000 		.4byte	.LVL313
 12874 164d 2C000000 		.4byte	.LVL314
 12875 1651 0100     		.2byte	0x1
 12876 1653 50       		.byte	0x50
 12877 1654 2C000000 		.4byte	.LVL314
 12878 1658 A6000000 		.4byte	.LVL325
 12879 165c 0100     		.2byte	0x1
 12880 165e 55       		.byte	0x55
 12881 165f A6000000 		.4byte	.LVL325
 12882 1663 A9000000 		.4byte	.LVL326-1
 12883 1667 0100     		.2byte	0x1
 12884 1669 50       		.byte	0x50
 12885 166a AA000000 		.4byte	.LVL326
 12886 166e B4000000 		.4byte	.LVL327
 12887 1672 0100     		.2byte	0x1
 12888 1674 50       		.byte	0x50
 12889 1675 B4000000 		.4byte	.LVL327
 12890 1679 C4000000 		.4byte	.LVL330
 12891 167d 0100     		.2byte	0x1
 12892 167f 55       		.byte	0x55
ARM GAS  C:\Users\jo\AppData\Local\Temp\ccnOsBUt.s 			page 229


 12893 1680 C4000000 		.4byte	.LVL330
 12894 1684 E0000000 		.4byte	.LFE266
 12895 1688 0100     		.2byte	0x1
 12896 168a 50       		.byte	0x50
 12897 168b 00000000 		.4byte	0
 12898 168f 00000000 		.4byte	0
 12899              	.LLST91:
 12900 1693 30000000 		.4byte	.LVL315
 12901 1697 86000000 		.4byte	.LVL323
 12902 169b 0100     		.2byte	0x1
 12903 169d 54       		.byte	0x54
 12904 169e 00000000 		.4byte	0
 12905 16a2 00000000 		.4byte	0
 12906              	.LLST92:
 12907 16a6 BC000000 		.4byte	.LVL328
 12908 16aa C4000000 		.4byte	.LVL330
 12909 16ae 0600     		.2byte	0x6
 12910 16b0 03       		.byte	0x3
 12911 16b1 28000000 		.4byte	.LC1
 12912 16b5 9F       		.byte	0x9f
 12913 16b6 00000000 		.4byte	0
 12914 16ba 00000000 		.4byte	0
 12915              	.LLST93:
 12916 16be 00000000 		.4byte	.LVL332
 12917 16c2 2D000000 		.4byte	.LVL336-1
 12918 16c6 0100     		.2byte	0x1
 12919 16c8 50       		.byte	0x50
 12920 16c9 2D000000 		.4byte	.LVL336-1
 12921 16cd 2E000000 		.4byte	.LVL336
 12922 16d1 0400     		.2byte	0x4
 12923 16d3 F3       		.byte	0xf3
 12924 16d4 01       		.uleb128 0x1
 12925 16d5 50       		.byte	0x50
 12926 16d6 9F       		.byte	0x9f
 12927 16d7 2E000000 		.4byte	.LVL336
 12928 16db 30000000 		.4byte	.LFE267
 12929 16df 0100     		.2byte	0x1
 12930 16e1 50       		.byte	0x50
 12931 16e2 00000000 		.4byte	0
 12932 16e6 00000000 		.4byte	0
 12933              	.LLST94:
 12934 16ea 08000000 		.4byte	.LVL333
 12935 16ee 1A000000 		.4byte	.LVL335
 12936 16f2 0100     		.2byte	0x1
 12937 16f4 52       		.byte	0x52
 12938 16f5 00000000 		.4byte	0
 12939 16f9 00000000 		.4byte	0
 12940              	.LLST95:
 12941 16fd 00000000 		.4byte	.LVL337
 12942 1701 16000000 		.4byte	.LVL340
 12943 1705 0100     		.2byte	0x1
 12944 1707 50       		.byte	0x50
 12945 1708 16000000 		.4byte	.LVL340
 12946 170c 4C000000 		.4byte	.LVL344
 12947 1710 0100     		.2byte	0x1
 12948 1712 57       		.byte	0x57
 12949 1713 4C000000 		.4byte	.LVL344
ARM GAS  C:\Users\jo\AppData\Local\Temp\ccnOsBUt.s 			page 230


 12950 1717 4E000000 		.4byte	.LVL345
 12951 171b 0400     		.2byte	0x4
 12952 171d F3       		.byte	0xf3
 12953 171e 01       		.uleb128 0x1
 12954 171f 50       		.byte	0x50
 12955 1720 9F       		.byte	0x9f
 12956 1721 4E000000 		.4byte	.LVL345
 12957 1725 54000000 		.4byte	.LFE268
 12958 1729 0100     		.2byte	0x1
 12959 172b 57       		.byte	0x57
 12960 172c 00000000 		.4byte	0
 12961 1730 00000000 		.4byte	0
 12962              	.LLST96:
 12963 1734 06000000 		.4byte	.LVL338
 12964 1738 4C000000 		.4byte	.LVL344
 12965 173c 0100     		.2byte	0x1
 12966 173e 56       		.byte	0x56
 12967 173f 4E000000 		.4byte	.LVL345
 12968 1743 54000000 		.4byte	.LFE268
 12969 1747 0100     		.2byte	0x1
 12970 1749 56       		.byte	0x56
 12971 174a 00000000 		.4byte	0
 12972 174e 00000000 		.4byte	0
 12973              	.LLST97:
 12974 1752 12000000 		.4byte	.LVL339
 12975 1756 4C000000 		.4byte	.LVL344
 12976 175a 0100     		.2byte	0x1
 12977 175c 55       		.byte	0x55
 12978 175d 4E000000 		.4byte	.LVL345
 12979 1761 54000000 		.4byte	.LFE268
 12980 1765 0100     		.2byte	0x1
 12981 1767 55       		.byte	0x55
 12982 1768 00000000 		.4byte	0
 12983 176c 00000000 		.4byte	0
 12984              	.LLST98:
 12985 1770 00000000 		.4byte	.LVL346
 12986 1774 13000000 		.4byte	.LVL347-1
 12987 1778 0100     		.2byte	0x1
 12988 177a 50       		.byte	0x50
 12989 177b 13000000 		.4byte	.LVL347-1
 12990 177f 4A000000 		.4byte	.LFE269
 12991 1783 0100     		.2byte	0x1
 12992 1785 54       		.byte	0x54
 12993 1786 00000000 		.4byte	0
 12994 178a 00000000 		.4byte	0
 12995              	.LLST99:
 12996 178e 00000000 		.4byte	.LVL348
 12997 1792 06000000 		.4byte	.LVL349
 12998 1796 0100     		.2byte	0x1
 12999 1798 50       		.byte	0x50
 13000 1799 06000000 		.4byte	.LVL349
 13001 179d 58000000 		.4byte	.LVL356
 13002 17a1 0100     		.2byte	0x1
 13003 17a3 54       		.byte	0x54
 13004 17a4 58000000 		.4byte	.LVL356
 13005 17a8 5C000000 		.4byte	.LVL357
 13006 17ac 0400     		.2byte	0x4
ARM GAS  C:\Users\jo\AppData\Local\Temp\ccnOsBUt.s 			page 231


 13007 17ae F3       		.byte	0xf3
 13008 17af 01       		.uleb128 0x1
 13009 17b0 50       		.byte	0x50
 13010 17b1 9F       		.byte	0x9f
 13011 17b2 5C000000 		.4byte	.LVL357
 13012 17b6 60000000 		.4byte	.LVL358
 13013 17ba 0100     		.2byte	0x1
 13014 17bc 54       		.byte	0x54
 13015 17bd 60000000 		.4byte	.LVL358
 13016 17c1 64000000 		.4byte	.LFE270
 13017 17c5 0400     		.2byte	0x4
 13018 17c7 F3       		.byte	0xf3
 13019 17c8 01       		.uleb128 0x1
 13020 17c9 50       		.byte	0x50
 13021 17ca 9F       		.byte	0x9f
 13022 17cb 00000000 		.4byte	0
 13023 17cf 00000000 		.4byte	0
 13024              	.LLST100:
 13025 17d3 18000000 		.4byte	.LVL351
 13026 17d7 2D000000 		.4byte	.LVL353-1
 13027 17db 0100     		.2byte	0x1
 13028 17dd 50       		.byte	0x50
 13029 17de 2D000000 		.4byte	.LVL353-1
 13030 17e2 58000000 		.4byte	.LVL356
 13031 17e6 0100     		.2byte	0x1
 13032 17e8 55       		.byte	0x55
 13033 17e9 58000000 		.4byte	.LVL356
 13034 17ed 5B000000 		.4byte	.LVL357-1
 13035 17f1 0100     		.2byte	0x1
 13036 17f3 50       		.byte	0x50
 13037 17f4 5C000000 		.4byte	.LVL357
 13038 17f8 64000000 		.4byte	.LFE270
 13039 17fc 0100     		.2byte	0x1
 13040 17fe 50       		.byte	0x50
 13041 17ff 00000000 		.4byte	0
 13042 1803 00000000 		.4byte	0
 13043              	.LLST101:
 13044 1807 20000000 		.4byte	.LVL352
 13045 180b 3E000000 		.4byte	.LVL354
 13046 180f 0100     		.2byte	0x1
 13047 1811 57       		.byte	0x57
 13048 1812 00000000 		.4byte	0
 13049 1816 00000000 		.4byte	0
 13050              	.LLST102:
 13051 181a 00000000 		.4byte	.LVL359
 13052 181e 10000000 		.4byte	.LVL361
 13053 1822 0100     		.2byte	0x1
 13054 1824 50       		.byte	0x50
 13055 1825 10000000 		.4byte	.LVL361
 13056 1829 7C000000 		.4byte	.LVL372
 13057 182d 0100     		.2byte	0x1
 13058 182f 54       		.byte	0x54
 13059 1830 7C000000 		.4byte	.LVL372
 13060 1834 80000000 		.4byte	.LVL373
 13061 1838 0400     		.2byte	0x4
 13062 183a F3       		.byte	0xf3
 13063 183b 01       		.uleb128 0x1
ARM GAS  C:\Users\jo\AppData\Local\Temp\ccnOsBUt.s 			page 232


 13064 183c 50       		.byte	0x50
 13065 183d 9F       		.byte	0x9f
 13066 183e 80000000 		.4byte	.LVL373
 13067 1842 AA000000 		.4byte	.LVL380
 13068 1846 0100     		.2byte	0x1
 13069 1848 54       		.byte	0x54
 13070 1849 AA000000 		.4byte	.LVL380
 13071 184d B0000000 		.4byte	.LVL382
 13072 1851 0100     		.2byte	0x1
 13073 1853 50       		.byte	0x50
 13074 1854 B0000000 		.4byte	.LVL382
 13075 1858 B8000000 		.4byte	.LFE271
 13076 185c 0400     		.2byte	0x4
 13077 185e F3       		.byte	0xf3
 13078 185f 01       		.uleb128 0x1
 13079 1860 50       		.byte	0x50
 13080 1861 9F       		.byte	0x9f
 13081 1862 00000000 		.4byte	0
 13082 1866 00000000 		.4byte	0
 13083              	.LLST103:
 13084 186a 24000000 		.4byte	.LVL364
 13085 186e 2C000000 		.4byte	.LVL365
 13086 1872 0100     		.2byte	0x1
 13087 1874 50       		.byte	0x50
 13088 1875 2C000000 		.4byte	.LVL365
 13089 1879 7C000000 		.4byte	.LVL372
 13090 187d 0100     		.2byte	0x1
 13091 187f 55       		.byte	0x55
 13092 1880 7C000000 		.4byte	.LVL372
 13093 1884 7F000000 		.4byte	.LVL373-1
 13094 1888 0100     		.2byte	0x1
 13095 188a 50       		.byte	0x50
 13096 188b 90000000 		.4byte	.LVL375
 13097 188f 98000000 		.4byte	.LVL377
 13098 1893 0100     		.2byte	0x1
 13099 1895 50       		.byte	0x50
 13100 1896 98000000 		.4byte	.LVL377
 13101 189a AA000000 		.4byte	.LVL380
 13102 189e 0100     		.2byte	0x1
 13103 18a0 55       		.byte	0x55
 13104 18a1 00000000 		.4byte	0
 13105 18a5 00000000 		.4byte	0
 13106              	.LLST104:
 13107 18a9 32000000 		.4byte	.LVL366
 13108 18ad 62000000 		.4byte	.LVL370
 13109 18b1 0100     		.2byte	0x1
 13110 18b3 57       		.byte	0x57
 13111 18b4 96000000 		.4byte	.LVL376
 13112 18b8 AA000000 		.4byte	.LVL380
 13113 18bc 0100     		.2byte	0x1
 13114 18be 57       		.byte	0x57
 13115 18bf 00000000 		.4byte	0
 13116 18c3 00000000 		.4byte	0
 13117              	.LLST105:
 13118 18c7 04000000 		.4byte	.LVL360
 13119 18cb 40000000 		.4byte	.LVL368
 13120 18cf 0100     		.2byte	0x1
ARM GAS  C:\Users\jo\AppData\Local\Temp\ccnOsBUt.s 			page 233


 13121 18d1 56       		.byte	0x56
 13122 18d2 80000000 		.4byte	.LVL373
 13123 18d6 9A000000 		.4byte	.LVL378
 13124 18da 0100     		.2byte	0x1
 13125 18dc 56       		.byte	0x56
 13126 18dd AA000000 		.4byte	.LVL380
 13127 18e1 B4000000 		.4byte	.LVL383
 13128 18e5 0100     		.2byte	0x1
 13129 18e7 56       		.byte	0x56
 13130 18e8 00000000 		.4byte	0
 13131 18ec 00000000 		.4byte	0
 13132              	.LLST106:
 13133 18f0 18000000 		.4byte	.LVL363
 13134 18f4 40000000 		.4byte	.LVL368
 13135 18f8 0200     		.2byte	0x2
 13136 18fa 31       		.byte	0x31
 13137 18fb 9F       		.byte	0x9f
 13138 18fc 86000000 		.4byte	.LVL374
 13139 1900 AA000000 		.4byte	.LVL380
 13140 1904 0200     		.2byte	0x2
 13141 1906 30       		.byte	0x30
 13142 1907 9F       		.byte	0x9f
 13143 1908 00000000 		.4byte	0
 13144 190c 00000000 		.4byte	0
 13145              	.LLST107:
 13146 1910 18000000 		.4byte	.LVL363
 13147 1914 40000000 		.4byte	.LVL368
 13148 1918 0200     		.2byte	0x2
 13149 191a 30       		.byte	0x30
 13150 191b 9F       		.byte	0x9f
 13151 191c 86000000 		.4byte	.LVL374
 13152 1920 AA000000 		.4byte	.LVL380
 13153 1924 0200     		.2byte	0x2
 13154 1926 31       		.byte	0x31
 13155 1927 9F       		.byte	0x9f
 13156 1928 00000000 		.4byte	0
 13157 192c 00000000 		.4byte	0
 13158              	.LLST108:
 13159 1930 32000000 		.4byte	.LVL366
 13160 1934 3A000000 		.4byte	.LVL367
 13161 1938 0300     		.2byte	0x3
 13162 193a 77       		.byte	0x77
 13163 193b 14       		.sleb128 20
 13164 193c 9F       		.byte	0x9f
 13165 193d 3A000000 		.4byte	.LVL367
 13166 1941 3F000000 		.4byte	.LVL368-1
 13167 1945 0100     		.2byte	0x1
 13168 1947 51       		.byte	0x51
 13169 1948 3F000000 		.4byte	.LVL368-1
 13170 194c 40000000 		.4byte	.LVL368
 13171 1950 0300     		.2byte	0x3
 13172 1952 77       		.byte	0x77
 13173 1953 14       		.sleb128 20
 13174 1954 9F       		.byte	0x9f
 13175 1955 00000000 		.4byte	0
 13176 1959 00000000 		.4byte	0
 13177              		.section	.debug_aranges,"",%progbits
ARM GAS  C:\Users\jo\AppData\Local\Temp\ccnOsBUt.s 			page 234


 13178 0000 8C000000 		.4byte	0x8c
 13179 0004 0200     		.2byte	0x2
 13180 0006 00000000 		.4byte	.Ldebug_info0
 13181 000a 04       		.byte	0x4
 13182 000b 00       		.byte	0
 13183 000c 0000     		.2byte	0
 13184 000e 0000     		.2byte	0
 13185 0010 00000000 		.4byte	.LFB272
 13186 0014 C8000000 		.4byte	.LFE272-.LFB272
 13187 0018 00000000 		.4byte	.LFB273
 13188 001c 28000000 		.4byte	.LFE273-.LFB273
 13189 0020 00000000 		.4byte	.LFB274
 13190 0024 8C000000 		.4byte	.LFE274-.LFB274
 13191 0028 00000000 		.4byte	.LFB259
 13192 002c 90000000 		.4byte	.LFE259-.LFB259
 13193 0030 00000000 		.4byte	.LFB261
 13194 0034 04060000 		.4byte	.LFE261-.LFB261
 13195 0038 00000000 		.4byte	.LFB262
 13196 003c D0010000 		.4byte	.LFE262-.LFB262
 13197 0040 00000000 		.4byte	.LFB257
 13198 0044 46000000 		.4byte	.LFE257-.LFB257
 13199 0048 00000000 		.4byte	.LFB263
 13200 004c 5C000000 		.4byte	.LFE263-.LFB263
 13201 0050 00000000 		.4byte	.LFB264
 13202 0054 3C030000 		.4byte	.LFE264-.LFB264
 13203 0058 00000000 		.4byte	.LFB266
 13204 005c E0000000 		.4byte	.LFE266-.LFB266
 13205 0060 00000000 		.4byte	.LFB267
 13206 0064 30000000 		.4byte	.LFE267-.LFB267
 13207 0068 00000000 		.4byte	.LFB268
 13208 006c 54000000 		.4byte	.LFE268-.LFB268
 13209 0070 00000000 		.4byte	.LFB269
 13210 0074 4A000000 		.4byte	.LFE269-.LFB269
 13211 0078 00000000 		.4byte	.LFB270
 13212 007c 64000000 		.4byte	.LFE270-.LFB270
 13213 0080 00000000 		.4byte	.LFB271
 13214 0084 B8000000 		.4byte	.LFE271-.LFB271
 13215 0088 00000000 		.4byte	0
 13216 008c 00000000 		.4byte	0
 13217              		.section	.debug_ranges,"",%progbits
 13218              	.Ldebug_ranges0:
 13219 0000 2C000000 		.4byte	.LBB88
 13220 0004 3E000000 		.4byte	.LBE88
 13221 0008 44000000 		.4byte	.LBB100
 13222 000c 6E000000 		.4byte	.LBE100
 13223 0010 DC010000 		.4byte	.LBB120
 13224 0014 FA010000 		.4byte	.LBE120
 13225 0018 06030000 		.4byte	.LBB125
 13226 001c 0E030000 		.4byte	.LBE125
 13227 0020 46040000 		.4byte	.LBB131
 13228 0024 4A040000 		.4byte	.LBE131
 13229 0028 5E040000 		.4byte	.LBB133
 13230 002c B4040000 		.4byte	.LBE133
 13231 0030 36050000 		.4byte	.LBB138
 13232 0034 4C050000 		.4byte	.LBE138
 13233 0038 00000000 		.4byte	0
 13234 003c 00000000 		.4byte	0
ARM GAS  C:\Users\jo\AppData\Local\Temp\ccnOsBUt.s 			page 235


 13235 0040 7C000000 		.4byte	.LBB101
 13236 0044 BA000000 		.4byte	.LBE101
 13237 0048 C0000000 		.4byte	.LBB107
 13238 004c D0000000 		.4byte	.LBE107
 13239 0050 32020000 		.4byte	.LBB121
 13240 0054 56020000 		.4byte	.LBE121
 13241 0058 80020000 		.4byte	.LBB123
 13242 005c EA020000 		.4byte	.LBE123
 13243 0060 EC020000 		.4byte	.LBB124
 13244 0064 EE020000 		.4byte	.LBE124
 13245 0068 E6040000 		.4byte	.LBB135
 13246 006c 14050000 		.4byte	.LBE135
 13247 0070 D2050000 		.4byte	.LBB145
 13248 0074 D8050000 		.4byte	.LBE145
 13249 0078 00000000 		.4byte	0
 13250 007c 00000000 		.4byte	0
 13251 0080 A8020000 		.4byte	.LBB104
 13252 0084 EA020000 		.4byte	.LBE104
 13253 0088 EC020000 		.4byte	.LBB105
 13254 008c EE020000 		.4byte	.LBE105
 13255 0090 E6040000 		.4byte	.LBB106
 13256 0094 14050000 		.4byte	.LBE106
 13257 0098 00000000 		.4byte	0
 13258 009c 00000000 		.4byte	0
 13259 00a0 E8000000 		.4byte	.LBB108
 13260 00a4 66010000 		.4byte	.LBE108
 13261 00a8 68010000 		.4byte	.LBB118
 13262 00ac 6C010000 		.4byte	.LBE118
 13263 00b0 72010000 		.4byte	.LBB119
 13264 00b4 DC010000 		.4byte	.LBE119
 13265 00b8 30030000 		.4byte	.LBB128
 13266 00bc 4E030000 		.4byte	.LBE128
 13267 00c0 50030000 		.4byte	.LBB129
 13268 00c4 52030000 		.4byte	.LBE129
 13269 00c8 D2030000 		.4byte	.LBB130
 13270 00cc 0A040000 		.4byte	.LBE130
 13271 00d0 52040000 		.4byte	.LBB132
 13272 00d4 5E040000 		.4byte	.LBE132
 13273 00d8 00000000 		.4byte	0
 13274 00dc 00000000 		.4byte	0
 13275 00e0 E8000000 		.4byte	.LBB109
 13276 00e4 24010000 		.4byte	.LBE109
 13277 00e8 30030000 		.4byte	.LBB112
 13278 00ec 4A030000 		.4byte	.LBE112
 13279 00f0 52040000 		.4byte	.LBB117
 13280 00f4 5E040000 		.4byte	.LBE117
 13281 00f8 00000000 		.4byte	0
 13282 00fc 00000000 		.4byte	0
 13283 0100 62020000 		.4byte	.LBB122
 13284 0104 7C020000 		.4byte	.LBE122
 13285 0108 B4040000 		.4byte	.LBB134
 13286 010c DC040000 		.4byte	.LBE134
 13287 0110 00000000 		.4byte	0
 13288 0114 00000000 		.4byte	0
 13289 0118 0A000000 		.4byte	.LBB157
 13290 011c 20000000 		.4byte	.LBE157
 13291 0120 2C000000 		.4byte	.LBB158
ARM GAS  C:\Users\jo\AppData\Local\Temp\ccnOsBUt.s 			page 236


 13292 0124 42000000 		.4byte	.LBE158
 13293 0128 00000000 		.4byte	0
 13294 012c 00000000 		.4byte	0
 13295 0130 A8000000 		.4byte	.LBB167
 13296 0134 52010000 		.4byte	.LBE167
 13297 0138 10020000 		.4byte	.LBB175
 13298 013c 48020000 		.4byte	.LBE175
 13299 0140 00000000 		.4byte	0
 13300 0144 00000000 		.4byte	0
 13301 0148 CC000000 		.4byte	.LBB169
 13302 014c D0000000 		.4byte	.LBE169
 13303 0150 10020000 		.4byte	.LBB170
 13304 0154 22020000 		.4byte	.LBE170
 13305 0158 26020000 		.4byte	.LBB171
 13306 015c 2A020000 		.4byte	.LBE171
 13307 0160 00000000 		.4byte	0
 13308 0164 00000000 		.4byte	0
 13309 0168 2A000000 		.4byte	.LBB181
 13310 016c 30000000 		.4byte	.LBE181
 13311 0170 32000000 		.4byte	.LBB182
 13312 0174 40000000 		.4byte	.LBE182
 13313 0178 00000000 		.4byte	0
 13314 017c 00000000 		.4byte	0
 13315 0180 00000000 		.4byte	.LFB272
 13316 0184 C8000000 		.4byte	.LFE272
 13317 0188 00000000 		.4byte	.LFB273
 13318 018c 28000000 		.4byte	.LFE273
 13319 0190 00000000 		.4byte	.LFB274
 13320 0194 8C000000 		.4byte	.LFE274
 13321 0198 00000000 		.4byte	.LFB259
 13322 019c 90000000 		.4byte	.LFE259
 13323 01a0 00000000 		.4byte	.LFB261
 13324 01a4 04060000 		.4byte	.LFE261
 13325 01a8 00000000 		.4byte	.LFB262
 13326 01ac D0010000 		.4byte	.LFE262
 13327 01b0 00000000 		.4byte	.LFB257
 13328 01b4 46000000 		.4byte	.LFE257
 13329 01b8 00000000 		.4byte	.LFB263
 13330 01bc 5C000000 		.4byte	.LFE263
 13331 01c0 00000000 		.4byte	.LFB264
 13332 01c4 3C030000 		.4byte	.LFE264
 13333 01c8 00000000 		.4byte	.LFB266
 13334 01cc E0000000 		.4byte	.LFE266
 13335 01d0 00000000 		.4byte	.LFB267
 13336 01d4 30000000 		.4byte	.LFE267
 13337 01d8 00000000 		.4byte	.LFB268
 13338 01dc 54000000 		.4byte	.LFE268
 13339 01e0 00000000 		.4byte	.LFB269
 13340 01e4 4A000000 		.4byte	.LFE269
 13341 01e8 00000000 		.4byte	.LFB270
 13342 01ec 64000000 		.4byte	.LFE270
 13343 01f0 00000000 		.4byte	.LFB271
 13344 01f4 B8000000 		.4byte	.LFE271
 13345 01f8 00000000 		.4byte	0
 13346 01fc 00000000 		.4byte	0
 13347              		.section	.debug_line,"",%progbits
 13348              	.Ldebug_line0:
ARM GAS  C:\Users\jo\AppData\Local\Temp\ccnOsBUt.s 			page 237


 13349 0000 810A0000 		.section	.debug_str,"MS",%progbits,1
 13349      0200E303 
 13349      00000201 
 13349      FB0E0D00 
 13349      01010101 
 13350              	.LASF53:
 13351 0000 74687265 		.ascii	"threads_queue_t\000"
 13351      6164735F 
 13351      71756575 
 13351      655F7400 
 13352              	.LASF279:
 13353 0010 7463705F 		.ascii	"tcp_write_checks\000"
 13353      77726974 
 13353      655F6368 
 13353      65636B73 
 13353      00
 13354              	.LASF122:
 13355 0021 50425546 		.ascii	"PBUF_LINK\000"
 13355      5F4C494E 
 13355      4B00
 13356              	.LASF240:
 13357 002b 73746174 		.ascii	"stats_proto\000"
 13357      735F7072 
 13357      6F746F00 
 13358              	.LASF147:
 13359 0037 6E616D65 		.ascii	"name\000"
 13359      00
 13360              	.LASF227:
 13361 003c 4D454D50 		.ascii	"MEMP_TCP_PCB_LISTEN\000"
 13361      5F544350 
 13361      5F504342 
 13361      5F4C4953 
 13361      54454E00 
 13362              	.LASF306:
 13363 0050 7463705F 		.ascii	"tcp_keepalive\000"
 13363      6B656570 
 13363      616C6976 
 13363      6500
 13364              	.LASF155:
 13365 005e 736F5F6F 		.ascii	"so_options\000"
 13365      7074696F 
 13365      6E7300
 13366              	.LASF90:
 13367 0069 63686172 		.ascii	"char\000"
 13367      00
 13368              	.LASF319:
 13369 006e 63687670 		.ascii	"chvprintf\000"
 13369      72696E74 
 13369      6600
 13370              	.LASF142:
 13371 0078 6F757470 		.ascii	"output\000"
 13371      757400
 13372              	.LASF35:
 13373 007f 705F7072 		.ascii	"p_prio\000"
 13373      696F00
 13374              	.LASF275:
 13375 0086 6F766572 		.ascii	"oversize\000"
ARM GAS  C:\Users\jo\AppData\Local\Temp\ccnOsBUt.s 			page 238


 13375      73697A65 
 13375      00
 13376              	.LASF323:
 13377 008f 70627566 		.ascii	"pbuf_clen\000"
 13377      5F636C65 
 13377      6E00
 13378              	.LASF125:
 13379 0099 50425546 		.ascii	"PBUF_RAM\000"
 13379      5F52414D 
 13379      00
 13380              	.LASF223:
 13381 00a2 75726770 		.ascii	"urgp\000"
 13381      00
 13382              	.LASF288:
 13383 00a7 756E7365 		.ascii	"unsent_optlen\000"
 13383      6E745F6F 
 13383      70746C65 
 13383      6E00
 13384              	.LASF161:
 13385 00b5 706F6C6C 		.ascii	"polltmr\000"
 13385      746D7200 
 13386              	.LASF151:
 13387 00bd 7463705F 		.ascii	"tcp_accept_fn\000"
 13387      61636365 
 13387      70745F66 
 13387      6E00
 13388              	.LASF129:
 13389 00cb 70627566 		.ascii	"pbuf_type\000"
 13389      5F747970 
 13389      6500
 13390              	.LASF31:
 13391 00d5 73797374 		.ascii	"systime_t\000"
 13391      696D655F 
 13391      7400
 13392              	.LASF338:
 13393 00df 7463705F 		.ascii	"tcp_pbuf_prealloc\000"
 13393      70627566 
 13393      5F707265 
 13393      616C6C6F 
 13393      6300
 13394              	.LASF100:
 13395 00f1 6D5F6F77 		.ascii	"m_owner\000"
 13395      6E657200 
 13396              	.LASF214:
 13397 00f9 54494D45 		.ascii	"TIME_WAIT\000"
 13397      5F574149 
 13397      5400
 13398              	.LASF67:
 13399 0103 76745F70 		.ascii	"vt_prev\000"
 13399      72657600 
 13400              	.LASF0:
 13401 010b 756E7369 		.ascii	"unsigned int\000"
 13401      676E6564 
 13401      20696E74 
 13401      00
 13402              	.LASF203:
 13403 0118 7463705F 		.ascii	"tcp_connected_fn\000"
ARM GAS  C:\Users\jo\AppData\Local\Temp\ccnOsBUt.s 			page 239


 13403      636F6E6E 
 13403      65637465 
 13403      645F666E 
 13403      00
 13404              	.LASF131:
 13405 0129 6E657874 		.ascii	"next\000"
 13405      00
 13406              	.LASF188:
 13407 012e 6F6F7365 		.ascii	"ooseq\000"
 13407      7100
 13408              	.LASF307:
 13409 0134 7463705F 		.ascii	"tcp_zero_window_probe\000"
 13409      7A65726F 
 13409      5F77696E 
 13409      646F775F 
 13409      70726F62 
 13410              	.LASF50:
 13411 014a 74687265 		.ascii	"threads_list_t\000"
 13411      6164735F 
 13411      6C697374 
 13411      5F7400
 13412              	.LASF119:
 13413 0159 6572725F 		.ascii	"err_t\000"
 13413      7400
 13414              	.LASF43:
 13415 015f 705F7761 		.ascii	"p_waiting\000"
 13415      6974696E 
 13415      6700
 13416              	.LASF10:
 13417 0169 5F5F696E 		.ascii	"__int32_t\000"
 13417      7433325F 
 13417      7400
 13418              	.LASF103:
 13419 0173 42617365 		.ascii	"BaseSequentialStreamVMT\000"
 13419      53657175 
 13419      656E7469 
 13419      616C5374 
 13419      7265616D 
 13420              	.LASF304:
 13421 018b 7463705F 		.ascii	"tcp_rexmit\000"
 13421      7265786D 
 13421      697400
 13422              	.LASF113:
 13423 0196 7531365F 		.ascii	"u16_t\000"
 13423      7400
 13424              	.LASF80:
 13425 019c 76746C69 		.ascii	"vtlist\000"
 13425      737400
 13426              	.LASF167:
 13427 01a3 7263765F 		.ascii	"rcv_ann_right_edge\000"
 13427      616E6E5F 
 13427      72696768 
 13427      745F6564 
 13427      676500
 13428              	.LASF56:
 13429 01b6 63685F72 		.ascii	"ch_ready_list\000"
 13429      65616479 
ARM GAS  C:\Users\jo\AppData\Local\Temp\ccnOsBUt.s 			page 240


 13429      5F6C6973 
 13429      7400
 13430              	.LASF285:
 13431 01c4 6F766572 		.ascii	"oversize_used\000"
 13431      73697A65 
 13431      5F757365 
 13431      6400
 13432              	.LASF250:
 13433 01d2 73746174 		.ascii	"stats_mem\000"
 13433      735F6D65 
 13433      6D00
 13434              	.LASF336:
 13435 01dc 433A5C55 		.ascii	"C:\\Users\\jo\\Documents\\GitHub\\ChibiOS\\demos\\S"
 13435      73657273 
 13435      5C6A6F5C 
 13435      446F6375 
 13435      6D656E74 
 13436 0208 544D3332 		.ascii	"TM32\\RT-STM32F407-DISCOVERY\000"
 13436      5C52542D 
 13436      53544D33 
 13436      32463430 
 13436      372D4449 
 13437              	.LASF317:
 13438 0224 6C776970 		.ascii	"lwip_htonl\000"
 13438      5F68746F 
 13438      6E6C00
 13439              	.LASF149:
 13440 022f 6E657469 		.ascii	"netif_output_fn\000"
 13440      665F6F75 
 13440      74707574 
 13440      5F666E00 
 13441              	.LASF316:
 13442 023f 6C776970 		.ascii	"lwip_htons\000"
 13442      5F68746F 
 13442      6E7300
 13443              	.LASF198:
 13444 024a 6B656570 		.ascii	"keep_cnt_sent\000"
 13444      5F636E74 
 13444      5F73656E 
 13444      7400
 13445              	.LASF237:
 13446 0258 4D454D50 		.ascii	"MEMP_PBUF_POOL\000"
 13446      5F504255 
 13446      465F504F 
 13446      4F4C00
 13447              	.LASF313:
 13448 0267 6C776970 		.ascii	"lwip_stats\000"
 13448      5F737461 
 13448      747300
 13449              	.LASF200:
 13450 0272 7463705F 		.ascii	"tcp_sent_fn\000"
 13450      73656E74 
 13450      5F666E00 
 13451              	.LASF63:
 13452 027e 76746675 		.ascii	"vtfunc_t\000"
 13452      6E635F74 
 13452      00
ARM GAS  C:\Users\jo\AppData\Local\Temp\ccnOsBUt.s 			page 241


 13453              	.LASF96:
 13454 0287 77746F62 		.ascii	"wtobjp\000"
 13454      6A7000
 13455              	.LASF75:
 13456 028e 63685F73 		.ascii	"ch_system_debug\000"
 13456      79737465 
 13456      6D5F6465 
 13456      62756700 
 13457              	.LASF120:
 13458 029e 50425546 		.ascii	"PBUF_TRANSPORT\000"
 13458      5F545241 
 13458      4E53504F 
 13458      525400
 13459              	.LASF254:
 13460 02ad 73746174 		.ascii	"stats_syselem\000"
 13460      735F7379 
 13460      73656C65 
 13460      6D00
 13461              	.LASF219:
 13462 02bb 7365716E 		.ascii	"seqno\000"
 13462      6F00
 13463              	.LASF148:
 13464 02c1 6E657469 		.ascii	"netif_input_fn\000"
 13464      665F696E 
 13464      7075745F 
 13464      666E00
 13465              	.LASF22:
 13466 02d0 75696E74 		.ascii	"uint32_t\000"
 13466      33325F74 
 13466      00
 13467              	.LASF232:
 13468 02d9 4D454D50 		.ascii	"MEMP_NETCONN\000"
 13468      5F4E4554 
 13468      434F4E4E 
 13468      00
 13469              	.LASF174:
 13470 02e6 63776E64 		.ascii	"cwnd\000"
 13470      00
 13471              	.LASF30:
 13472 02eb 6576656E 		.ascii	"eventmask_t\000"
 13472      746D6173 
 13472      6B5F7400 
 13473              	.LASF58:
 13474 02f7 725F7072 		.ascii	"r_prio\000"
 13474      696F00
 13475              	.LASF157:
 13476 02fe 61636365 		.ascii	"accept\000"
 13476      707400
 13477              	.LASF233:
 13478 0305 4D454D50 		.ascii	"MEMP_TCPIP_MSG_API\000"
 13478      5F544350 
 13478      49505F4D 
 13478      53475F41 
 13478      504900
 13479              	.LASF248:
 13480 0318 6F707465 		.ascii	"opterr\000"
 13480      727200
ARM GAS  C:\Users\jo\AppData\Local\Temp\ccnOsBUt.s 			page 242


 13481              	.LASF159:
 13482 031f 6C6F6361 		.ascii	"local_port\000"
 13482      6C5F706F 
 13482      727400
 13483              	.LASF98:
 13484 032a 6D757465 		.ascii	"mutex\000"
 13484      7800
 13485              	.LASF260:
 13486 0330 69705F66 		.ascii	"ip_frag\000"
 13486      72616700 
 13487              	.LASF28:
 13488 0338 74707269 		.ascii	"tprio_t\000"
 13488      6F5F7400 
 13489              	.LASF322:
 13490 0340 70627566 		.ascii	"pbuf_alloc\000"
 13490      5F616C6C 
 13490      6F6300
 13491              	.LASF65:
 13492 034b 63685F76 		.ascii	"ch_virtual_timer\000"
 13492      69727475 
 13492      616C5F74 
 13492      696D6572 
 13492      00
 13493              	.LASF19:
 13494 035c 696E7431 		.ascii	"int16_t\000"
 13494      365F7400 
 13495              	.LASF308:
 13496 0364 69735F66 		.ascii	"is_fin\000"
 13496      696E00
 13497              	.LASF146:
 13498 036b 68776164 		.ascii	"hwaddr\000"
 13498      647200
 13499              	.LASF259:
 13500 0372 65746861 		.ascii	"etharp\000"
 13500      727000
 13501              	.LASF215:
 13502 0379 7463705F 		.ascii	"tcp_seg\000"
 13502      73656700 
 13503              	.LASF16:
 13504 0381 6C6F6E67 		.ascii	"long long unsigned int\000"
 13504      206C6F6E 
 13504      6720756E 
 13504      7369676E 
 13504      65642069 
 13505              	.LASF91:
 13506 0398 6F666673 		.ascii	"offset\000"
 13506      657400
 13507              	.LASF265:
 13508 039f 72656173 		.ascii	"reason\000"
 13508      6F6E00
 13509              	.LASF303:
 13510 03a6 7463705F 		.ascii	"tcp_rexmit_rto\000"
 13510      7265786D 
 13510      69745F72 
 13510      746F00
 13511              	.LASF170:
 13512 03b5 72747365 		.ascii	"rtseq\000"
ARM GAS  C:\Users\jo\AppData\Local\Temp\ccnOsBUt.s 			page 243


 13512      7100
 13513              	.LASF8:
 13514 03bb 5F5F7569 		.ascii	"__uint16_t\000"
 13514      6E743136 
 13514      5F7400
 13515              	.LASF337:
 13516 03c6 7463705F 		.ascii	"tcp_state\000"
 13516      73746174 
 13516      6500
 13517              	.LASF168:
 13518 03d0 7274696D 		.ascii	"rtime\000"
 13518      6500
 13519              	.LASF37:
 13520 03d6 705F6E65 		.ascii	"p_newer\000"
 13520      77657200 
 13521              	.LASF72:
 13522 03de 63685F76 		.ascii	"ch_virtual_timers_list\000"
 13522      69727475 
 13522      616C5F74 
 13522      696D6572 
 13522      735F6C69 
 13523              	.LASF68:
 13524 03f5 76745F64 		.ascii	"vt_delta\000"
 13524      656C7461 
 13524      00
 13525              	.LASF164:
 13526 03fe 7263765F 		.ascii	"rcv_nxt\000"
 13526      6E787400 
 13527              	.LASF234:
 13528 0406 4D454D50 		.ascii	"MEMP_TCPIP_MSG_INPKT\000"
 13528      5F544350 
 13528      49505F4D 
 13528      53475F49 
 13528      4E504B54 
 13529              	.LASF187:
 13530 041b 756E6163 		.ascii	"unacked\000"
 13530      6B656400 
 13531              	.LASF294:
 13532 0423 75736567 		.ascii	"useg\000"
 13532      00
 13533              	.LASF257:
 13534 0428 73746174 		.ascii	"stats_\000"
 13534      735F00
 13535              	.LASF32:
 13536 042f 74687265 		.ascii	"thread_t\000"
 13536      61645F74 
 13536      00
 13537              	.LASF33:
 13538 0438 705F6E65 		.ascii	"p_next\000"
 13538      787400
 13539              	.LASF88:
 13540 043f 5F5F676E 		.ascii	"__gnuc_va_list\000"
 13540      75635F76 
 13540      615F6C69 
 13540      737400
 13541              	.LASF311:
 13542 044e 7463705F 		.ascii	"tcp_input_pcb\000"
ARM GAS  C:\Users\jo\AppData\Local\Temp\ccnOsBUt.s 			page 244


 13542      696E7075 
 13542      745F7063 
 13542      6200
 13543              	.LASF222:
 13544 045c 63686B73 		.ascii	"chksum\000"
 13544      756D00
 13545              	.LASF94:
 13546 0463 7264796D 		.ascii	"rdymsg\000"
 13546      736700
 13547              	.LASF132:
 13548 046a 7061796C 		.ascii	"payload\000"
 13548      6F616400 
 13549              	.LASF121:
 13550 0472 50425546 		.ascii	"PBUF_IP\000"
 13550      5F495000 
 13551              	.LASF192:
 13552 047a 636F6E6E 		.ascii	"connected\000"
 13552      65637465 
 13552      6400
 13553              	.LASF298:
 13554 0484 7463705F 		.ascii	"tcp_output_segment\000"
 13554      6F757470 
 13554      75745F73 
 13554      65676D65 
 13554      6E7400
 13555              	.LASF107:
 13556 0497 5F426F6F 		.ascii	"_Bool\000"
 13556      6C00
 13557              	.LASF128:
 13558 049d 50425546 		.ascii	"PBUF_POOL\000"
 13558      5F504F4F 
 13558      4C00
 13559              	.LASF212:
 13560 04a7 434C4F53 		.ascii	"CLOSING\000"
 13560      494E4700 
 13561              	.LASF277:
 13562 04af 66697273 		.ascii	"first_seg\000"
 13562      745F7365 
 13562      6700
 13563              	.LASF135:
 13564 04b9 666C6167 		.ascii	"flags\000"
 13564      7300
 13565              	.LASF15:
 13566 04bf 5F5F7569 		.ascii	"__uint64_t\000"
 13566      6E743634 
 13566      5F7400
 13567              	.LASF238:
 13568 04ca 4D454D50 		.ascii	"MEMP_MAX\000"
 13568      5F4D4158 
 13568      00
 13569              	.LASF112:
 13570 04d3 73385F74 		.ascii	"s8_t\000"
 13570      00
 13571              	.LASF116:
 13572 04d8 7333325F 		.ascii	"s32_t\000"
 13572      7400
 13573              	.LASF300:
ARM GAS  C:\Users\jo\AppData\Local\Temp\ccnOsBUt.s 			page 245


 13574 04de 7463705F 		.ascii	"tcp_output\000"
 13574      6F757470 
 13574      757400
 13575              	.LASF179:
 13576 04e9 736E645F 		.ascii	"snd_lbb\000"
 13576      6C626200 
 13577              	.LASF258:
 13578 04f1 6C696E6B 		.ascii	"link\000"
 13578      00
 13579              	.LASF17:
 13580 04f6 696E7438 		.ascii	"int8_t\000"
 13580      5F7400
 13581              	.LASF315:
 13582 04fd 70627566 		.ascii	"pbuf_header\000"
 13582      5F686561 
 13582      64657200 
 13583              	.LASF106:
 13584 0509 42617365 		.ascii	"BaseSequentialStream\000"
 13584      53657175 
 13584      656E7469 
 13584      616C5374 
 13584      7265616D 
 13585              	.LASF172:
 13586 051e 64757061 		.ascii	"dupacks\000"
 13586      636B7300 
 13587              	.LASF158:
 13588 0526 7072696F 		.ascii	"prio\000"
 13588      00
 13589              	.LASF162:
 13590 052b 706F6C6C 		.ascii	"pollinterval\000"
 13590      696E7465 
 13590      7276616C 
 13590      00
 13591              	.LASF236:
 13592 0538 4D454D50 		.ascii	"MEMP_PBUF\000"
 13592      5F504255 
 13592      4600
 13593              	.LASF193:
 13594 0542 706F6C6C 		.ascii	"poll\000"
 13594      00
 13595              	.LASF267:
 13596 0547 63687072 		.ascii	"chprintf\000"
 13596      696E7466 
 13596      00
 13597              	.LASF270:
 13598 0550 64617461 		.ascii	"datalen\000"
 13598      6C656E00 
 13599              	.LASF253:
 13600 0558 696C6C65 		.ascii	"illegal\000"
 13600      67616C00 
 13601              	.LASF281:
 13602 0560 6C617374 		.ascii	"last_unsent\000"
 13602      5F756E73 
 13602      656E7400 
 13603              	.LASF118:
 13604 056c 6D656D5F 		.ascii	"mem_size_t\000"
 13604      73697A65 
ARM GAS  C:\Users\jo\AppData\Local\Temp\ccnOsBUt.s 			page 246


 13604      5F7400
 13605              	.LASF60:
 13606 0577 725F6E65 		.ascii	"r_newer\000"
 13606      77657200 
 13607              	.LASF73:
 13608 057f 76745F6C 		.ascii	"vt_lasttime\000"
 13608      61737474 
 13608      696D6500 
 13609              	.LASF182:
 13610 058b 61636B65 		.ascii	"acked\000"
 13610      6400
 13611              	.LASF211:
 13612 0591 434C4F53 		.ascii	"CLOSE_WAIT\000"
 13612      455F5741 
 13612      495400
 13613              	.LASF26:
 13614 059c 74737461 		.ascii	"tstate_t\000"
 13614      74655F74 
 13614      00
 13615              	.LASF14:
 13616 05a5 6C6F6E67 		.ascii	"long long int\000"
 13616      206C6F6E 
 13616      6720696E 
 13616      7400
 13617              	.LASF333:
 13618 05b3 70627566 		.ascii	"pbuf_copy_partial\000"
 13618      5F636F70 
 13618      795F7061 
 13618      72746961 
 13618      6C00
 13619              	.LASF38:
 13620 05c5 705F6F6C 		.ascii	"p_older\000"
 13620      64657200 
 13621              	.LASF40:
 13622 05cd 705F7374 		.ascii	"p_state\000"
 13622      61746500 
 13623              	.LASF287:
 13624 05d5 73706163 		.ascii	"space\000"
 13624      6500
 13625              	.LASF12:
 13626 05db 5F5F7569 		.ascii	"__uint32_t\000"
 13626      6E743332 
 13626      5F7400
 13627              	.LASF190:
 13628 05e6 73656E74 		.ascii	"sent\000"
 13628      00
 13629              	.LASF18:
 13630 05eb 75696E74 		.ascii	"uint8_t\000"
 13630      385F7400 
 13631              	.LASF177:
 13632 05f3 736E645F 		.ascii	"snd_wl1\000"
 13632      776C3100 
 13633              	.LASF178:
 13634 05fb 736E645F 		.ascii	"snd_wl2\000"
 13634      776C3200 
 13635              	.LASF49:
 13636 0603 705F6D70 		.ascii	"p_mpool\000"
ARM GAS  C:\Users\jo\AppData\Local\Temp\ccnOsBUt.s 			page 247


 13636      6F6F6C00 
 13637              	.LASF47:
 13638 060b 705F6D74 		.ascii	"p_mtxlist\000"
 13638      786C6973 
 13638      7400
 13639              	.LASF202:
 13640 0615 7463705F 		.ascii	"tcp_err_fn\000"
 13640      6572725F 
 13640      666E00
 13641              	.LASF51:
 13642 0620 63685F74 		.ascii	"ch_thread\000"
 13642      68726561 
 13642      6400
 13643              	.LASF318:
 13644 062a 70627566 		.ascii	"pbuf_free\000"
 13644      5F667265 
 13644      6500
 13645              	.LASF110:
 13646 0634 76615F6C 		.ascii	"va_list\000"
 13646      69737400 
 13647              	.LASF74:
 13648 063c 73797374 		.ascii	"system_debug_t\000"
 13648      656D5F64 
 13648      65627567 
 13648      5F7400
 13649              	.LASF314:
 13650 064b 6D656D70 		.ascii	"memp_malloc\000"
 13650      5F6D616C 
 13650      6C6F6300 
 13651              	.LASF231:
 13652 0657 4D454D50 		.ascii	"MEMP_NETBUF\000"
 13652      5F4E4554 
 13652      42554600 
 13653              	.LASF140:
 13654 0663 6E65746D 		.ascii	"netmask\000"
 13654      61736B00 
 13655              	.LASF54:
 13656 066b 63685F74 		.ascii	"ch_threads_queue\000"
 13656      68726561 
 13656      64735F71 
 13656      75657565 
 13656      00
 13657              	.LASF104:
 13658 067c 77726974 		.ascii	"write\000"
 13658      6500
 13659              	.LASF220:
 13660 0682 61636B6E 		.ascii	"ackno\000"
 13660      6F00
 13661              	.LASF57:
 13662 0688 725F7175 		.ascii	"r_queue\000"
 13662      65756500 
 13663              	.LASF197:
 13664 0690 70657273 		.ascii	"persist_backoff\000"
 13664      6973745F 
 13664      6261636B 
 13664      6F666600 
 13665              	.LASF29:
ARM GAS  C:\Users\jo\AppData\Local\Temp\ccnOsBUt.s 			page 248


 13666 06a0 6D73675F 		.ascii	"msg_t\000"
 13666      7400
 13667              	.LASF226:
 13668 06a6 4D454D50 		.ascii	"MEMP_TCP_PCB\000"
 13668      5F544350 
 13668      5F504342 
 13668      00
 13669              	.LASF111:
 13670 06b3 75385F74 		.ascii	"u8_t\000"
 13670      00
 13671              	.LASF41:
 13672 06b8 705F666C 		.ascii	"p_flags\000"
 13672      61677300 
 13673              	.LASF272:
 13674 06c0 6C617965 		.ascii	"layer\000"
 13674      7200
 13675              	.LASF6:
 13676 06c6 5F5F696E 		.ascii	"__int16_t\000"
 13676      7431365F 
 13676      7400
 13677              	.LASF93:
 13678 06d0 5F5F6170 		.ascii	"__ap\000"
 13678      00
 13679              	.LASF64:
 13680 06d5 76697274 		.ascii	"virtual_timer_t\000"
 13680      75616C5F 
 13680      74696D65 
 13680      725F7400 
 13681              	.LASF108:
 13682 06e5 49544D53 		.ascii	"ITMStreamVMT\000"
 13682      74726561 
 13682      6D564D54 
 13682      00
 13683              	.LASF224:
 13684 06f2 4D454D50 		.ascii	"MEMP_RAW_PCB\000"
 13684      5F524157 
 13684      5F504342 
 13684      00
 13685              	.LASF263:
 13686 06ff 6F707466 		.ascii	"optflags\000"
 13686      6C616773 
 13686      00
 13687              	.LASF160:
 13688 0708 72656D6F 		.ascii	"remote_port\000"
 13688      74655F70 
 13688      6F727400 
 13689              	.LASF252:
 13690 0714 75736564 		.ascii	"used\000"
 13690      00
 13691              	.LASF310:
 13692 0719 69746D5F 		.ascii	"itm_port\000"
 13692      706F7274 
 13692      00
 13693              	.LASF291:
 13694 0722 6D61785F 		.ascii	"max_len\000"
 13694      6C656E00 
 13695              	.LASF213:
ARM GAS  C:\Users\jo\AppData\Local\Temp\ccnOsBUt.s 			page 249


 13696 072a 4C415354 		.ascii	"LAST_ACK\000"
 13696      5F41434B 
 13696      00
 13697              	.LASF173:
 13698 0733 6C617374 		.ascii	"lastack\000"
 13698      61636B00 
 13699              	.LASF166:
 13700 073b 7263765F 		.ascii	"rcv_ann_wnd\000"
 13700      616E6E5F 
 13700      776E6400 
 13701              	.LASF243:
 13702 0747 63686B65 		.ascii	"chkerr\000"
 13702      727200
 13703              	.LASF61:
 13704 074e 725F6F6C 		.ascii	"r_older\000"
 13704      64657200 
 13705              	.LASF229:
 13706 0756 4D454D50 		.ascii	"MEMP_REASSDATA\000"
 13706      5F524541 
 13706      53534441 
 13706      544100
 13707              	.LASF199:
 13708 0765 7463705F 		.ascii	"tcp_recv_fn\000"
 13708      72656376 
 13708      5F666E00 
 13709              	.LASF109:
 13710 0771 49544D53 		.ascii	"ITMStream\000"
 13710      74726561 
 13710      6D00
 13711              	.LASF45:
 13712 077b 705F6D73 		.ascii	"p_msg\000"
 13712      6700
 13713              	.LASF97:
 13714 0781 65776D61 		.ascii	"ewmask\000"
 13714      736B00
 13715              	.LASF92:
 13716 0788 746D5F63 		.ascii	"tm_calibration_t\000"
 13716      616C6962 
 13716      72617469 
 13716      6F6E5F74 
 13716      00
 13717              	.LASF25:
 13718 0799 746D6F64 		.ascii	"tmode_t\000"
 13718      655F7400 
 13719              	.LASF81:
 13720 07a1 6D61696E 		.ascii	"mainthread\000"
 13720      74687265 
 13720      616400
 13721              	.LASF201:
 13722 07ac 7463705F 		.ascii	"tcp_poll_fn\000"
 13722      706F6C6C 
 13722      5F666E00 
 13723              	.LASF330:
 13724 07b8 7463705F 		.ascii	"tcp_eff_send_mss\000"
 13724      6566665F 
 13724      73656E64 
 13724      5F6D7373 
ARM GAS  C:\Users\jo\AppData\Local\Temp\ccnOsBUt.s 			page 250


 13724      00
 13725              	.LASF145:
 13726 07c9 68776164 		.ascii	"hwaddr_len\000"
 13726      64725F6C 
 13726      656E00
 13727              	.LASF39:
 13728 07d4 705F6E61 		.ascii	"p_name\000"
 13728      6D6500
 13729              	.LASF20:
 13730 07db 75696E74 		.ascii	"uint16_t\000"
 13730      31365F74 
 13730      00
 13731              	.LASF295:
 13732 07e4 7463705F 		.ascii	"tcp_send_fin\000"
 13732      73656E64 
 13732      5F66696E 
 13732      00
 13733              	.LASF194:
 13734 07f1 65727266 		.ascii	"errf\000"
 13734      00
 13735              	.LASF123:
 13736 07f6 50425546 		.ascii	"PBUF_RAW\000"
 13736      5F524157 
 13736      00
 13737              	.LASF1:
 13738 07ff 73697A65 		.ascii	"size_t\000"
 13738      5F7400
 13739              	.LASF269:
 13740 0806 7463705F 		.ascii	"tcp_output_alloc_header\000"
 13740      6F757470 
 13740      75745F61 
 13740      6C6C6F63 
 13740      5F686561 
 13741              	.LASF24:
 13742 081e 7274636E 		.ascii	"rtcnt_t\000"
 13742      745F7400 
 13743              	.LASF320:
 13744 0826 7463705F 		.ascii	"tcp_seg_free\000"
 13744      7365675F 
 13744      66726565 
 13744      00
 13745              	.LASF302:
 13746 0833 7463705F 		.ascii	"tcp_rst\000"
 13746      72737400 
 13747              	.LASF332:
 13748 083b 6C776970 		.ascii	"lwip_ntohl\000"
 13748      5F6E746F 
 13748      686C00
 13749              	.LASF293:
 13750 0846 7463705F 		.ascii	"tcp_enqueue_flags\000"
 13750      656E7175 
 13750      6575655F 
 13750      666C6167 
 13750      7300
 13751              	.LASF327:
 13752 0858 6C776970 		.ascii	"lwip_ntohs\000"
 13752      5F6E746F 
ARM GAS  C:\Users\jo\AppData\Local\Temp\ccnOsBUt.s 			page 251


 13752      687300
 13753              	.LASF274:
 13754 0863 6D61785F 		.ascii	"max_length\000"
 13754      6C656E67 
 13754      746800
 13755              	.LASF48:
 13756 086e 705F7265 		.ascii	"p_realprio\000"
 13756      616C7072 
 13756      696F00
 13757              	.LASF204:
 13758 0879 434C4F53 		.ascii	"CLOSED\000"
 13758      454400
 13759              	.LASF115:
 13760 0880 7533325F 		.ascii	"u32_t\000"
 13760      7400
 13761              	.LASF278:
 13762 0886 616C6C6F 		.ascii	"alloc\000"
 13762      6300
 13763              	.LASF7:
 13764 088c 73686F72 		.ascii	"short int\000"
 13764      7420696E 
 13764      7400
 13765              	.LASF261:
 13766 0896 69636D70 		.ascii	"icmp\000"
 13766      00
 13767              	.LASF62:
 13768 089b 725F6375 		.ascii	"r_current\000"
 13768      7272656E 
 13768      7400
 13769              	.LASF46:
 13770 08a5 705F6570 		.ascii	"p_epending\000"
 13770      656E6469 
 13770      6E6700
 13771              	.LASF280:
 13772 08b0 636F6E63 		.ascii	"concat_p\000"
 13772      61745F70 
 13772      00
 13773              	.LASF99:
 13774 08b9 6D5F7175 		.ascii	"m_queue\000"
 13774      65756500 
 13775              	.LASF11:
 13776 08c1 6C6F6E67 		.ascii	"long int\000"
 13776      20696E74 
 13776      00
 13777              	.LASF87:
 13778 08ca 706F7274 		.ascii	"port_intctx\000"
 13778      5F696E74 
 13778      63747800 
 13779              	.LASF328:
 13780 08d6 696E6574 		.ascii	"inet_chksum_pseudo\000"
 13780      5F63686B 
 13780      73756D5F 
 13780      70736575 
 13780      646F00
 13781              	.LASF246:
 13782 08e9 72746572 		.ascii	"rterr\000"
 13782      7200
ARM GAS  C:\Users\jo\AppData\Local\Temp\ccnOsBUt.s 			page 252


 13783              	.LASF309:
 13784 08ef 49544D5F 		.ascii	"ITM_RxBuffer\000"
 13784      52784275 
 13784      66666572 
 13784      00
 13785              	.LASF251:
 13786 08fc 61766169 		.ascii	"avail\000"
 13786      6C00
 13787              	.LASF273:
 13788 0902 6C656E67 		.ascii	"length\000"
 13788      746800
 13789              	.LASF186:
 13790 0909 756E7365 		.ascii	"unsent\000"
 13790      6E7400
 13791              	.LASF165:
 13792 0910 7263765F 		.ascii	"rcv_wnd\000"
 13792      776E6400 
 13793              	.LASF169:
 13794 0918 72747465 		.ascii	"rttest\000"
 13794      737400
 13795              	.LASF297:
 13796 091f 6F73616C 		.ascii	"osalSysHalt\000"
 13796      53797348 
 13796      616C7400 
 13797              	.LASF296:
 13798 092b 7463705F 		.ascii	"tcp_send_empty_ack\000"
 13798      73656E64 
 13798      5F656D70 
 13798      74795F61 
 13798      636B00
 13799              	.LASF78:
 13800 093e 63685F73 		.ascii	"ch_system\000"
 13800      79737465 
 13800      6D00
 13801              	.LASF266:
 13802 0948 7463705F 		.ascii	"tcp_create_segment\000"
 13802      63726561 
 13802      74655F73 
 13802      65676D65 
 13802      6E7400
 13803              	.LASF235:
 13804 095b 4D454D50 		.ascii	"MEMP_SYS_TIMEOUT\000"
 13804      5F535953 
 13804      5F54494D 
 13804      454F5554 
 13804      00
 13805              	.LASF163:
 13806 096c 6C617374 		.ascii	"last_timer\000"
 13806      5F74696D 
 13806      657200
 13807              	.LASF225:
 13808 0977 4D454D50 		.ascii	"MEMP_UDP_PCB\000"
 13808      5F554450 
 13808      5F504342 
 13808      00
 13809              	.LASF153:
 13810 0984 6C6F6361 		.ascii	"local_ip\000"
ARM GAS  C:\Users\jo\AppData\Local\Temp\ccnOsBUt.s 			page 253


 13810      6C5F6970 
 13810      00
 13811              	.LASF36:
 13812 098d 705F6374 		.ascii	"p_ctx\000"
 13812      7800
 13813              	.LASF256:
 13814 0993 6D626F78 		.ascii	"mbox\000"
 13814      00
 13815              	.LASF79:
 13816 0998 726C6973 		.ascii	"rlist\000"
 13816      7400
 13817              	.LASF185:
 13818 099e 756E7365 		.ascii	"unsent_oversize\000"
 13818      6E745F6F 
 13818      76657273 
 13818      697A6500 
 13819              	.LASF206:
 13820 09ae 53594E5F 		.ascii	"SYN_SENT\000"
 13820      53454E54 
 13820      00
 13821              	.LASF176:
 13822 09b7 736E645F 		.ascii	"snd_nxt\000"
 13822      6E787400 
 13823              	.LASF290:
 13824 09bf 6C656674 		.ascii	"left\000"
 13824      00
 13825              	.LASF117:
 13826 09c4 6D656D5F 		.ascii	"mem_ptr_t\000"
 13826      7074725F 
 13826      7400
 13827              	.LASF4:
 13828 09ce 5F5F7569 		.ascii	"__uint8_t\000"
 13828      6E74385F 
 13828      7400
 13829              	.LASF208:
 13830 09d8 45535441 		.ascii	"ESTABLISHED\000"
 13830      424C4953 
 13830      48454400 
 13831              	.LASF249:
 13832 09e4 63616368 		.ascii	"cachehit\000"
 13832      65686974 
 13832      00
 13833              	.LASF181:
 13834 09ed 736E645F 		.ascii	"snd_wnd_max\000"
 13834      776E645F 
 13834      6D617800 
 13835              	.LASF299:
 13836 09f9 6F707473 		.ascii	"opts\000"
 13836      00
 13837              	.LASF150:
 13838 09fe 6E657469 		.ascii	"netif_linkoutput_fn\000"
 13838      665F6C69 
 13838      6E6B6F75 
 13838      74707574 
 13838      5F666E00 
 13839              	.LASF230:
 13840 0a12 4D454D50 		.ascii	"MEMP_FRAG_PBUF\000"
ARM GAS  C:\Users\jo\AppData\Local\Temp\ccnOsBUt.s 			page 254


 13840      5F465241 
 13840      475F5042 
 13840      554600
 13841              	.LASF175:
 13842 0a21 73737468 		.ascii	"ssthresh\000"
 13842      72657368 
 13842      00
 13843              	.LASF183:
 13844 0a2a 736E645F 		.ascii	"snd_buf\000"
 13844      62756600 
 13845              	.LASF86:
 13846 0a32 636F6E74 		.ascii	"context\000"
 13846      65787400 
 13847              	.LASF262:
 13848 0a3a 6D656D70 		.ascii	"memp\000"
 13848      00
 13849              	.LASF221:
 13850 0a3f 5F686472 		.ascii	"_hdrlen_rsvd_flags\000"
 13850      6C656E5F 
 13850      72737664 
 13850      5F666C61 
 13850      677300
 13851              	.LASF244:
 13852 0a52 6C656E65 		.ascii	"lenerr\000"
 13852      727200
 13853              	.LASF34:
 13854 0a59 705F7072 		.ascii	"p_prev\000"
 13854      657600
 13855              	.LASF83:
 13856 0a60 73697A65 		.ascii	"sizetype\000"
 13856      74797065 
 13856      00
 13857              	.LASF27:
 13858 0a69 74726566 		.ascii	"trefs_t\000"
 13858      735F7400 
 13859              	.LASF13:
 13860 0a71 6C6F6E67 		.ascii	"long unsigned int\000"
 13860      20756E73 
 13860      69676E65 
 13860      6420696E 
 13860      7400
 13861              	.LASF44:
 13862 0a83 705F6D73 		.ascii	"p_msgqueue\000"
 13862      67717565 
 13862      756500
 13863              	.LASF55:
 13864 0a8e 72656164 		.ascii	"ready_list_t\000"
 13864      795F6C69 
 13864      73745F74 
 13864      00
 13865              	.LASF216:
 13866 0a9b 74637068 		.ascii	"tcphdr\000"
 13866      647200
 13867              	.LASF114:
 13868 0aa2 7331365F 		.ascii	"s16_t\000"
 13868      7400
 13869              	.LASF21:
ARM GAS  C:\Users\jo\AppData\Local\Temp\ccnOsBUt.s 			page 255


 13870 0aa8 696E7433 		.ascii	"int32_t\000"
 13870      325F7400 
 13871              	.LASF82:
 13872 0ab0 69646C65 		.ascii	"idle_thread_wa\000"
 13872      5F746872 
 13872      6561645F 
 13872      776100
 13873              	.LASF124:
 13874 0abf 70627566 		.ascii	"pbuf_layer\000"
 13874      5F6C6179 
 13874      657200
 13875              	.LASF276:
 13876 0aca 61706966 		.ascii	"apiflags\000"
 13876      6C616773 
 13876      00
 13877              	.LASF189:
 13878 0ad3 72656675 		.ascii	"refused_data\000"
 13878      7365645F 
 13878      64617461 
 13878      00
 13879              	.LASF283:
 13880 0ae0 71756575 		.ascii	"queue\000"
 13880      6500
 13881              	.LASF264:
 13882 0ae6 6F70746C 		.ascii	"optlen\000"
 13882      656E00
 13883              	.LASF247:
 13884 0aed 70726F74 		.ascii	"proterr\000"
 13884      65727200 
 13885              	.LASF141:
 13886 0af5 696E7075 		.ascii	"input\000"
 13886      7400
 13887              	.LASF282:
 13888 0afb 70726576 		.ascii	"prev_seg\000"
 13888      5F736567 
 13888      00
 13889              	.LASF102:
 13890 0b04 6D757465 		.ascii	"mutex_t\000"
 13890      785F7400 
 13891              	.LASF217:
 13892 0b0c 7463705F 		.ascii	"tcp_hdr\000"
 13892      68647200 
 13893              	.LASF70:
 13894 0b14 76745F70 		.ascii	"vt_par\000"
 13894      617200
 13895              	.LASF134:
 13896 0b1b 74797065 		.ascii	"type\000"
 13896      00
 13897              	.LASF255:
 13898 0b20 73746174 		.ascii	"stats_sys\000"
 13898      735F7379 
 13898      7300
 13899              	.LASF5:
 13900 0b2a 756E7369 		.ascii	"unsigned char\000"
 13900      676E6564 
 13900      20636861 
 13900      7200
ARM GAS  C:\Users\jo\AppData\Local\Temp\ccnOsBUt.s 			page 256


 13901              	.LASF84:
 13902 0b38 72656761 		.ascii	"regarm_t\000"
 13902      726D5F74 
 13902      00
 13903              	.LASF209:
 13904 0b41 46494E5F 		.ascii	"FIN_WAIT_1\000"
 13904      57414954 
 13904      5F3100
 13905              	.LASF210:
 13906 0b4c 46494E5F 		.ascii	"FIN_WAIT_2\000"
 13906      57414954 
 13906      5F3200
 13907              	.LASF71:
 13908 0b57 76697274 		.ascii	"virtual_timers_list_t\000"
 13908      75616C5F 
 13908      74696D65 
 13908      72735F6C 
 13908      6973745F 
 13909              	.LASF245:
 13910 0b6d 6D656D65 		.ascii	"memerr\000"
 13910      727200
 13911              	.LASF228:
 13912 0b74 4D454D50 		.ascii	"MEMP_TCP_SEG\000"
 13912      5F544350 
 13912      5F534547 
 13912      00
 13913              	.LASF271:
 13914 0b81 7365716E 		.ascii	"seqno_be\000"
 13914      6F5F6265 
 13914      00
 13915              	.LASF76:
 13916 0b8a 70616E69 		.ascii	"panic_msg\000"
 13916      635F6D73 
 13916      6700
 13917              	.LASF130:
 13918 0b94 70627566 		.ascii	"pbuf\000"
 13918      00
 13919              	.LASF195:
 13920 0b99 6B656570 		.ascii	"keep_idle\000"
 13920      5F69646C 
 13920      6500
 13921              	.LASF286:
 13922 0ba3 6D73735F 		.ascii	"mss_local\000"
 13922      6C6F6361 
 13922      6C00
 13923              	.LASF156:
 13924 0bad 63616C6C 		.ascii	"callback_arg\000"
 13924      6261636B 
 13924      5F617267 
 13924      00
 13925              	.LASF205:
 13926 0bba 4C495354 		.ascii	"LISTEN\000"
 13926      454E00
 13927              	.LASF137:
 13928 0bc1 61646472 		.ascii	"addr\000"
 13928      00
 13929              	.LASF42:
ARM GAS  C:\Users\jo\AppData\Local\Temp\ccnOsBUt.s 			page 257


 13930 0bc6 705F7265 		.ascii	"p_refs\000"
 13930      667300
 13931              	.LASF242:
 13932 0bcd 64726F70 		.ascii	"drop\000"
 13932      00
 13933              	.LASF144:
 13934 0bd2 73746174 		.ascii	"state\000"
 13934      6500
 13935              	.LASF133:
 13936 0bd8 746F745F 		.ascii	"tot_len\000"
 13936      6C656E00 
 13937              	.LASF321:
 13938 0be0 63685379 		.ascii	"chSysHalt\000"
 13938      7348616C 
 13938      7400
 13939              	.LASF66:
 13940 0bea 76745F6E 		.ascii	"vt_next\000"
 13940      65787400 
 13941              	.LASF23:
 13942 0bf2 75696E74 		.ascii	"uint64_t\000"
 13942      36345F74 
 13942      00
 13943              	.LASF139:
 13944 0bfb 6E657469 		.ascii	"netif\000"
 13944      6600
 13945              	.LASF184:
 13946 0c01 736E645F 		.ascii	"snd_queuelen\000"
 13946      71756575 
 13946      656C656E 
 13946      00
 13947              	.LASF77:
 13948 0c0e 63685F73 		.ascii	"ch_system_t\000"
 13948      79737465 
 13948      6D5F7400 
 13949              	.LASF292:
 13950 0c1a 7463705F 		.ascii	"tcp_write\000"
 13950      77726974 
 13950      6500
 13951              	.LASF89:
 13952 0c24 5F5F7661 		.ascii	"__va_list\000"
 13952      5F6C6973 
 13952      7400
 13953              	.LASF191:
 13954 0c2e 72656376 		.ascii	"recv\000"
 13954      00
 13955              	.LASF101:
 13956 0c33 6D5F6E65 		.ascii	"m_next\000"
 13956      787400
 13957              	.LASF334:
 13958 0c3a 474E5520 		.ascii	"GNU C 4.9.3 20141119 (release) [ARM/embedded-4_9-br"
 13958      4320342E 
 13958      392E3320 
 13958      32303134 
 13958      31313139 
 13959 0c6d 616E6368 		.ascii	"anch revision 218278] -mcpu=cortex-m4 -mfloat-abi=h"
 13959      20726576 
 13959      6973696F 
ARM GAS  C:\Users\jo\AppData\Local\Temp\ccnOsBUt.s 			page 258


 13959      6E203231 
 13959      38323738 
 13960 0ca0 61726420 		.ascii	"ard -mfpu=fpv4-sp-d16 -mno-thumb-interwork -mthumb "
 13960      2D6D6670 
 13960      753D6670 
 13960      76342D73 
 13960      702D6431 
 13961 0cd3 2D676764 		.ascii	"-ggdb -O2 -fomit-frame-pointer -falign-functions=16"
 13961      62202D4F 
 13961      32202D66 
 13961      6F6D6974 
 13961      2D667261 
 13962 0d06 202D6666 		.ascii	" -ffunction-sections -fdata-sections -fno-common -f"
 13962      756E6374 
 13962      696F6E2D 
 13962      73656374 
 13962      696F6E73 
 13963 0d39 73696E67 		.ascii	"single-precision-constant\000"
 13963      6C652D70 
 13963      72656369 
 13963      73696F6E 
 13963      2D636F6E 
 13964              	.LASF3:
 13965 0d53 7369676E 		.ascii	"signed char\000"
 13965      65642063 
 13965      68617200 
 13966              	.LASF152:
 13967 0d5f 7463705F 		.ascii	"tcp_pcb\000"
 13967      70636200 
 13968              	.LASF9:
 13969 0d67 73686F72 		.ascii	"short unsigned int\000"
 13969      7420756E 
 13969      7369676E 
 13969      65642069 
 13969      6E7400
 13970              	.LASF59:
 13971 0d7a 725F6374 		.ascii	"r_ctx\000"
 13971      7800
 13972              	.LASF289:
 13973 0d80 7365676C 		.ascii	"seglen\000"
 13973      656E00
 13974              	.LASF301:
 13975 0d87 6375725F 		.ascii	"cur_seg\000"
 13975      73656700 
 13976              	.LASF85:
 13977 0d8f 73746B61 		.ascii	"stkalign_t\000"
 13977      6C69676E 
 13977      5F7400
 13978              	.LASF324:
 13979 0d9a 6D656D63 		.ascii	"memcpy\000"
 13979      707900
 13980              	.LASF2:
 13981 0da1 5F5F696E 		.ascii	"__int8_t\000"
 13981      74385F74 
 13981      00
 13982              	.LASF284:
 13983 0daa 71756575 		.ascii	"queuelen\000"
ARM GAS  C:\Users\jo\AppData\Local\Temp\ccnOsBUt.s 			page 259


 13983      656C656E 
 13983      00
 13984              	.LASF241:
 13985 0db3 786D6974 		.ascii	"xmit\000"
 13985      00
 13986              	.LASF180:
 13987 0db8 736E645F 		.ascii	"snd_wnd\000"
 13987      776E6400 
 13988              	.LASF196:
 13989 0dc0 70657273 		.ascii	"persist_cnt\000"
 13989      6973745F 
 13989      636E7400 
 13990              	.LASF154:
 13991 0dcc 72656D6F 		.ascii	"remote_ip\000"
 13991      74655F69 
 13991      7000
 13992              	.LASF69:
 13993 0dd6 76745F66 		.ascii	"vt_func\000"
 13993      756E6300 
 13994              	.LASF52:
 13995 0dde 63685F74 		.ascii	"ch_threads_list\000"
 13995      68726561 
 13995      64735F6C 
 13995      69737400 
 13996              	.LASF305:
 13997 0dee 7463705F 		.ascii	"tcp_rexmit_fast\000"
 13997      7265786D 
 13997      69745F66 
 13997      61737400 
 13998              	.LASF268:
 13999 0dfe 666F726D 		.ascii	"formatted_bytes\000"
 13999      61747465 
 13999      645F6279 
 13999      74657300 
 14000              	.LASF126:
 14001 0e0e 50425546 		.ascii	"PBUF_ROM\000"
 14001      5F524F4D 
 14001      00
 14002              	.LASF138:
 14003 0e17 69705F61 		.ascii	"ip_addr_t\000"
 14003      6464725F 
 14003      7400
 14004              	.LASF331:
 14005 0e21 69705F72 		.ascii	"ip_route\000"
 14005      6F757465 
 14005      00
 14006              	.LASF326:
 14007 0e2a 7463705F 		.ascii	"tcp_segs_free\000"
 14007      73656773 
 14007      5F667265 
 14007      6500
 14008              	.LASF127:
 14009 0e38 50425546 		.ascii	"PBUF_REF\000"
 14009      5F524546 
 14009      00
 14010              	.LASF325:
 14011 0e41 70627566 		.ascii	"pbuf_cat\000"
ARM GAS  C:\Users\jo\AppData\Local\Temp\ccnOsBUt.s 			page 260


 14011      5F636174 
 14011      00
 14012              	.LASF239:
 14013 0e4a 6D656D70 		.ascii	"memp_t\000"
 14013      5F7400
 14014              	.LASF335:
 14015 0e51 2E2E2F2E 		.ascii	"../../../os/ext/lwip-1.4.1/src/core/tcp_out.c\000"
 14015      2E2F2E2E 
 14015      2F6F732F 
 14015      6578742F 
 14015      6C776970 
 14016              	.LASF329:
 14017 0e7f 69705F6F 		.ascii	"ip_output\000"
 14017      75747075 
 14017      7400
 14018              	.LASF171:
 14019 0e89 6E727478 		.ascii	"nrtx\000"
 14019      00
 14020              	.LASF143:
 14021 0e8e 6C696E6B 		.ascii	"linkoutput\000"
 14021      6F757470 
 14021      757400
 14022              	.LASF218:
 14023 0e99 64657374 		.ascii	"dest\000"
 14023      00
 14024              	.LASF105:
 14025 0e9e 72656164 		.ascii	"read\000"
 14025      00
 14026              	.LASF207:
 14027 0ea3 53594E5F 		.ascii	"SYN_RCVD\000"
 14027      52435644 
 14027      00
 14028              	.LASF136:
 14029 0eac 69705F61 		.ascii	"ip_addr\000"
 14029      64647200 
 14030              	.LASF95:
 14031 0eb4 65786974 		.ascii	"exitcode\000"
 14031      636F6465 
 14031      00
 14032              	.LASF312:
 14033 0ebd 7463705F 		.ascii	"tcp_ticks\000"
 14033      7469636B 
 14033      7300
 14034              		.ident	"GCC: (GNU Tools for ARM Embedded Processors) 4.9.3 20141119 (release) [ARM/embedded-4_9-br
ARM GAS  C:\Users\jo\AppData\Local\Temp\ccnOsBUt.s 			page 261


DEFINED SYMBOLS
                            *ABS*:00000000 tcp_out.c
C:\Users\jo\AppData\Local\Temp\ccnOsBUt.s:21     .text.tcp_create_segment.isra.0:00000000 $t
C:\Users\jo\AppData\Local\Temp\ccnOsBUt.s:26     .text.tcp_create_segment.isra.0:00000000 tcp_create_segment.isra.0
C:\Users\jo\AppData\Local\Temp\ccnOsBUt.s:172    .text.tcp_create_segment.isra.0:000000c4 $d
C:\Users\jo\AppData\Local\Temp\ccnOsBUt.s:177    .text.chprintf.constprop.2:00000000 $t
C:\Users\jo\AppData\Local\Temp\ccnOsBUt.s:182    .text.chprintf.constprop.2:00000000 chprintf.constprop.2
C:\Users\jo\AppData\Local\Temp\ccnOsBUt.s:228    .text.chprintf.constprop.2:00000020 $d
C:\Users\jo\AppData\Local\Temp\ccnOsBUt.s:234    .text.tcp_output_alloc_header.constprop.1:00000000 $t
C:\Users\jo\AppData\Local\Temp\ccnOsBUt.s:239    .text.tcp_output_alloc_header.constprop.1:00000000 tcp_output_alloc_header.constprop.1
C:\Users\jo\AppData\Local\Temp\ccnOsBUt.s:361    .text.tcp_output_alloc_header.constprop.1:0000007c $d
C:\Users\jo\AppData\Local\Temp\ccnOsBUt.s:371    .text.tcp_pbuf_prealloc:00000000 $t
C:\Users\jo\AppData\Local\Temp\ccnOsBUt.s:376    .text.tcp_pbuf_prealloc:00000000 tcp_pbuf_prealloc
C:\Users\jo\AppData\Local\Temp\ccnOsBUt.s:493    .text.tcp_pbuf_prealloc:00000080 $d
C:\Users\jo\AppData\Local\Temp\ccnOsBUt.s:501    .text.tcp_write:00000000 $t
C:\Users\jo\AppData\Local\Temp\ccnOsBUt.s:507    .text.tcp_write:00000000 tcp_write
C:\Users\jo\AppData\Local\Temp\ccnOsBUt.s:1371   .text.tcp_write:00000488 $d
C:\Users\jo\AppData\Local\Temp\ccnOsBUt.s:1390   .text.tcp_write:000004b4 $t
C:\Users\jo\AppData\Local\Temp\ccnOsBUt.s:1616   .text.tcp_write:000005e8 $d
C:\Users\jo\AppData\Local\Temp\ccnOsBUt.s:1627   .text.tcp_enqueue_flags:00000000 $t
C:\Users\jo\AppData\Local\Temp\ccnOsBUt.s:1633   .text.tcp_enqueue_flags:00000000 tcp_enqueue_flags
C:\Users\jo\AppData\Local\Temp\ccnOsBUt.s:1958   .text.tcp_enqueue_flags:000001ac $d
C:\Users\jo\AppData\Local\Temp\ccnOsBUt.s:1971   .text.tcp_send_fin:00000000 $t
C:\Users\jo\AppData\Local\Temp\ccnOsBUt.s:1977   .text.tcp_send_fin:00000000 tcp_send_fin
C:\Users\jo\AppData\Local\Temp\ccnOsBUt.s:2061   .text.tcp_send_empty_ack:00000000 $t
C:\Users\jo\AppData\Local\Temp\ccnOsBUt.s:2067   .text.tcp_send_empty_ack:00000000 tcp_send_empty_ack
C:\Users\jo\AppData\Local\Temp\ccnOsBUt.s:2152   .text.tcp_output:00000000 $t
C:\Users\jo\AppData\Local\Temp\ccnOsBUt.s:2158   .text.tcp_output:00000000 tcp_output
C:\Users\jo\AppData\Local\Temp\ccnOsBUt.s:2700   .text.tcp_output:000002e8 $d
C:\Users\jo\AppData\Local\Temp\ccnOsBUt.s:2710   .text.tcp_output:00000304 $t
C:\Users\jo\AppData\Local\Temp\ccnOsBUt.s:2752   .text.tcp_output:0000032c $d
C:\Users\jo\AppData\Local\Temp\ccnOsBUt.s:2762   .text.tcp_rst:00000000 $t
C:\Users\jo\AppData\Local\Temp\ccnOsBUt.s:2768   .text.tcp_rst:00000000 tcp_rst
C:\Users\jo\AppData\Local\Temp\ccnOsBUt.s:2945   .text.tcp_rst:000000cc $d
C:\Users\jo\AppData\Local\Temp\ccnOsBUt.s:2954   .text.tcp_rexmit_rto:00000000 $t
C:\Users\jo\AppData\Local\Temp\ccnOsBUt.s:2960   .text.tcp_rexmit_rto:00000000 tcp_rexmit_rto
C:\Users\jo\AppData\Local\Temp\ccnOsBUt.s:3014   .text.tcp_rexmit:00000000 $t
C:\Users\jo\AppData\Local\Temp\ccnOsBUt.s:3020   .text.tcp_rexmit:00000000 tcp_rexmit
C:\Users\jo\AppData\Local\Temp\ccnOsBUt.s:3105   .text.tcp_rexmit_fast:00000000 $t
C:\Users\jo\AppData\Local\Temp\ccnOsBUt.s:3111   .text.tcp_rexmit_fast:00000000 tcp_rexmit_fast
C:\Users\jo\AppData\Local\Temp\ccnOsBUt.s:3175   .text.tcp_keepalive:00000000 $t
C:\Users\jo\AppData\Local\Temp\ccnOsBUt.s:3181   .text.tcp_keepalive:00000000 tcp_keepalive
C:\Users\jo\AppData\Local\Temp\ccnOsBUt.s:3276   .text.tcp_keepalive:00000060 $d
C:\Users\jo\AppData\Local\Temp\ccnOsBUt.s:3281   .text.tcp_zero_window_probe:00000000 $t
C:\Users\jo\AppData\Local\Temp\ccnOsBUt.s:3287   .text.tcp_zero_window_probe:00000000 tcp_zero_window_probe
C:\Users\jo\AppData\Local\Temp\ccnOsBUt.s:3452   .text.tcp_zero_window_probe:000000b4 $d
C:\Users\jo\AppData\Local\Temp\ccnOsBUt.s:3457   .rodata.str1.4:00000000 $d
                     .debug_frame:00000010 $d
C:\Users\jo\AppData\Local\Temp\ccnOsBUt.s:176    .text.tcp_create_segment.isra.0:000000c8 $t
C:\Users\jo\AppData\Local\Temp\ccnOsBUt.s:233    .text.chprintf.constprop.2:00000028 $t
C:\Users\jo\AppData\Local\Temp\ccnOsBUt.s:370    .text.tcp_output_alloc_header.constprop.1:0000008c $t
C:\Users\jo\AppData\Local\Temp\ccnOsBUt.s:1626   .text.tcp_write:00000604 $t
C:\Users\jo\AppData\Local\Temp\ccnOsBUt.s:2761   .text.tcp_output:0000033c $t
C:\Users\jo\AppData\Local\Temp\ccnOsBUt.s:3280   .text.tcp_keepalive:00000064 $t
C:\Users\jo\AppData\Local\Temp\ccnOsBUt.s:3456   .text.tcp_zero_window_probe:000000b8 $t

UNDEFINED SYMBOLS
ARM GAS  C:\Users\jo\AppData\Local\Temp\ccnOsBUt.s 			page 262


memp_malloc
pbuf_header
lwip_htons
lwip_htonl
tcp_seg_free
pbuf_free
lwip_stats
chvprintf
itm_port
pbuf_alloc
chSysHalt
pbuf_cat
pbuf_clen
memcpy
tcp_segs_free
lwip_ntohs
inet_chksum_pseudo
ip_output
lwip_ntohl
ip_route
tcp_eff_send_mss
tcp_input_pcb
tcp_ticks
pbuf_copy_partial
