ARM GAS  C:\Users\jo\AppData\Local\Temp\ccnOsBUt.s 			page 1


   1              		.syntax unified
   2              		.cpu cortex-m4
   3              		.eabi_attribute 27, 3
   4              		.eabi_attribute 28, 1
   5              		.fpu fpv4-sp-d16
   6              		.eabi_attribute 20, 1
   7              		.eabi_attribute 21, 1
   8              		.eabi_attribute 23, 3
   9              		.eabi_attribute 24, 1
  10              		.eabi_attribute 25, 1
  11              		.eabi_attribute 26, 1
  12              		.eabi_attribute 30, 2
  13              		.eabi_attribute 34, 1
  14              		.eabi_attribute 18, 4
  15              		.thumb
  16              		.file	"tcp_out.c"
  17              		.text
  18              	.Ltext0:
  19              		.cfi_sections	.debug_frame
  20              		.section	.text.tcp_create_segment.isra.0,"ax",%progbits
  21              		.align	2
  22              		.p2align 4,,15
  23              		.thumb
  24              		.thumb_func
  25              		.type	tcp_create_segment.isra.0, %function
  26              	tcp_create_segment.isra.0:
  27              	.LFB272:
  28              		.file 1 "../../../os/ext/lwip-1.4.1/src/core/tcp_out.c"
  29              		.loc 1 159 0
  30              		.cfi_startproc
  31              		@ args = 8, pretend = 0, frame = 0
  32              		@ frame_needed = 0, uses_anonymous_args = 0
  33              	.LVL0:
  34 0000 2DE9F047 		push	{r4, r5, r6, r7, r8, r9, r10, lr}
  35              		.cfi_def_cfa_offset 32
  36              		.cfi_offset 4, -32
  37              		.cfi_offset 5, -28
  38              		.cfi_offset 6, -24
  39              		.cfi_offset 7, -20
  40              		.cfi_offset 8, -16
  41              		.cfi_offset 9, -12
  42              		.cfi_offset 10, -8
  43              		.cfi_offset 14, -4
  44              		.loc 1 159 0
  45 0004 9DF82470 		ldrb	r7, [sp, #36]	@ zero_extendqisi2
  46 0008 8046     		mov	r8, r0
  47              		.loc 1 162 0
  48 000a 17F00104 		ands	r4, r7, #1
  49              		.loc 1 164 0
  50 000e 4FF00400 		mov	r0, #4
  51              		.loc 1 162 0
  52 0012 18BF     		it	ne
  53 0014 0424     		movne	r4, #4
  54              		.loc 1 159 0
  55 0016 8946     		mov	r9, r1
  56 0018 9246     		mov	r10, r2
  57 001a 1E46     		mov	r6, r3
ARM GAS  C:\Users\jo\AppData\Local\Temp\ccnOsBUt.s 			page 2


  58              		.loc 1 164 0
  59 001c FFF7FEFF 		bl	memp_malloc
  60              	.LVL1:
  61              		.loc 1 162 0
  62 0020 07F00205 		and	r5, r7, #2
  63 0024 002D     		cmp	r5, #0
  64 0026 14BF     		ite	ne
  65 0028 0C25     		movne	r5, #12
  66 002a 0025     		moveq	r5, #0
  67 002c 2544     		add	r5, r5, r4
  68              	.LVL2:
  69              		.loc 1 164 0
  70 002e 0446     		mov	r4, r0
  71 0030 0028     		cmp	r0, #0
  72 0032 40D0     		beq	.L11
  73              		.loc 1 169 0
  74 0034 8772     		strb	r7, [r0, #10]
  75              		.loc 1 172 0
  76 0036 BAF80830 		ldrh	r3, [r10, #8]
  77              		.loc 1 171 0
  78 003a C0F804A0 		str	r10, [r0, #4]
  79              		.loc 1 172 0
  80 003e 5B1B     		subs	r3, r3, r5
  81              		.loc 1 170 0
  82 0040 0027     		movs	r7, #0
  83              		.loc 1 172 0
  84 0042 0381     		strh	r3, [r0, #8]	@ movhi
  85              		.loc 1 185 0
  86 0044 1421     		movs	r1, #20
  87 0046 5046     		mov	r0, r10
  88              	.LVL3:
  89              		.loc 1 170 0
  90 0048 2760     		str	r7, [r4]
  91              		.loc 1 185 0
  92 004a FFF7FEFF 		bl	pbuf_header
  93              	.LVL4:
  94 004e 8246     		mov	r10, r0
  95              	.LVL5:
  96 0050 28BB     		cbnz	r0, .L12
  97              		.loc 1 191 0
  98 0052 6368     		ldr	r3, [r4, #4]
  99              		.loc 1 192 0
 100 0054 B8F80000 		ldrh	r0, [r8]
 101              		.loc 1 191 0
 102 0058 5F68     		ldr	r7, [r3, #4]
 103 005a E760     		str	r7, [r4, #12]
 104              		.loc 1 192 0
 105 005c FFF7FEFF 		bl	lwip_htons
 106              	.LVL6:
 107 0060 3880     		strh	r0, [r7]	@ unaligned
 108              		.loc 1 193 0
 109 0062 B9F80000 		ldrh	r0, [r9]
 110 0066 E768     		ldr	r7, [r4, #12]
 111 0068 FFF7FEFF 		bl	lwip_htons
 112              	.LVL7:
 113 006c 7880     		strh	r0, [r7, #2]	@ unaligned
 114              		.loc 1 194 0
ARM GAS  C:\Users\jo\AppData\Local\Temp\ccnOsBUt.s 			page 3


 115 006e 0898     		ldr	r0, [sp, #32]
 116 0070 E768     		ldr	r7, [r4, #12]
 117 0072 FFF7FEFF 		bl	lwip_htonl
 118              	.LVL8:
 119              		.loc 1 196 0
 120 0076 C5F38703 		ubfx	r3, r5, #2, #8
 121 007a 0533     		adds	r3, r3, #5
 122 007c 46EA0333 		orr	r3, r6, r3, lsl #12
 123 0080 9BB2     		uxth	r3, r3
 124              		.loc 1 194 0
 125 0082 7860     		str	r0, [r7, #4]	@ unaligned
 126              		.loc 1 196 0
 127 0084 1846     		mov	r0, r3
 128 0086 E568     		ldr	r5, [r4, #12]
 129              	.LVL9:
 130 0088 FFF7FEFF 		bl	lwip_htons
 131              	.LVL10:
 132              		.loc 1 198 0
 133 008c E368     		ldr	r3, [r4, #12]
 134              		.loc 1 196 0
 135 008e A881     		strh	r0, [r5, #12]	@ unaligned
 136              		.loc 1 198 0
 137 0090 2046     		mov	r0, r4
 138 0092 83F812A0 		strb	r10, [r3, #18]
 139 0096 83F813A0 		strb	r10, [r3, #19]
 140              		.loc 1 200 0
 141 009a BDE8F087 		pop	{r4, r5, r6, r7, r8, r9, r10, pc}
 142              	.LVL11:
 143              	.L12:
 144              		.loc 1 187 0
 145 009e 094A     		ldr	r2, .L13
 146 00a0 B2F8A430 		ldrh	r3, [r2, #164]
 147              		.loc 1 188 0
 148 00a4 2046     		mov	r0, r4
 149              		.loc 1 187 0
 150 00a6 0133     		adds	r3, r3, #1
 151 00a8 A2F8A430 		strh	r3, [r2, #164]	@ movhi
 152              		.loc 1 188 0
 153 00ac FFF7FEFF 		bl	tcp_seg_free
 154              	.LVL12:
 155              		.loc 1 189 0
 156 00b0 3846     		mov	r0, r7
 157 00b2 BDE8F087 		pop	{r4, r5, r6, r7, r8, r9, r10, pc}
 158              	.LVL13:
 159              	.L11:
 160              		.loc 1 166 0
 161 00b6 5046     		mov	r0, r10
 162              	.LVL14:
 163 00b8 FFF7FEFF 		bl	pbuf_free
 164              	.LVL15:
 165              		.loc 1 167 0
 166 00bc 2046     		mov	r0, r4
 167 00be BDE8F087 		pop	{r4, r5, r6, r7, r8, r9, r10, pc}
 168              	.LVL16:
 169              	.L14:
 170 00c2 00BF     		.align	2
 171              	.L13:
ARM GAS  C:\Users\jo\AppData\Local\Temp\ccnOsBUt.s 			page 4


 172 00c4 00000000 		.word	lwip_stats
 173              		.cfi_endproc
 174              	.LFE272:
 175              		.size	tcp_create_segment.isra.0, .-tcp_create_segment.isra.0
 176 00c8 AFF30080 		.section	.text.chprintf.constprop.2,"ax",%progbits
 176      AFF30080 
 177              		.align	2
 178              		.p2align 4,,15
 179              		.thumb
 180              		.thumb_func
 181              		.type	chprintf.constprop.2, %function
 182              	chprintf.constprop.2:
 183              	.LFB273:
 184              		.file 2 "../../../os/hal/lib/streams/chprintf.h"
 185              		.loc 2 69 0
 186              		.cfi_startproc
 187              		@ args = 4, pretend = 12, frame = 8
 188              		@ frame_needed = 0, uses_anonymous_args = 1
 189              	.LVL17:
 190 0000 0EB4     		push	{r1, r2, r3}
 191              		.cfi_def_cfa_offset 12
 192              		.cfi_offset 1, -12
 193              		.cfi_offset 2, -8
 194              		.cfi_offset 3, -4
 195 0002 00B5     		push	{lr}
 196              		.cfi_def_cfa_offset 16
 197              		.cfi_offset 14, -16
 198 0004 82B0     		sub	sp, sp, #8
 199              		.cfi_def_cfa_offset 24
 200              		.loc 2 73 0
 201 0006 04AB     		add	r3, sp, #16
 202              		.loc 2 74 0
 203 0008 1A46     		mov	r2, r3
 204 000a 0549     		ldr	r1, .L17
 205 000c 0548     		ldr	r0, .L17+4
 206              	.LVL18:
 207              		.loc 2 73 0
 208 000e 0193     		str	r3, [sp, #4]
 209              		.loc 2 74 0
 210 0010 FFF7FEFF 		bl	chvprintf
 211              	.LVL19:
 212              		.loc 2 78 0
 213 0014 02B0     		add	sp, sp, #8
 214              		.cfi_def_cfa_offset 16
 215              		@ sp needed
 216 0016 5DF804EB 		ldr	lr, [sp], #4
 217              		.cfi_restore 14
 218              		.cfi_def_cfa_offset 12
 219 001a 03B0     		add	sp, sp, #12
 220              		.cfi_restore 3
 221              		.cfi_restore 2
 222              		.cfi_restore 1
 223              		.cfi_def_cfa_offset 0
 224 001c 7047     		bx	lr
 225              	.L18:
 226 001e 00BF     		.align	2
 227              	.L17:
ARM GAS  C:\Users\jo\AppData\Local\Temp\ccnOsBUt.s 			page 5


 228 0020 00000000 		.word	.LC0
 229 0024 00000000 		.word	itm_port
 230              		.cfi_endproc
 231              	.LFE273:
 232              		.size	chprintf.constprop.2, .-chprintf.constprop.2
 233 0028 AFF30080 		.section	.text.tcp_output_alloc_header.constprop.1,"ax",%progbits
 233      AFF30080 
 234              		.align	2
 235              		.p2align 4,,15
 236              		.thumb
 237              		.thumb_func
 238              		.type	tcp_output_alloc_header.constprop.1, %function
 239              	tcp_output_alloc_header.constprop.1:
 240              	.LFB274:
 241              		.loc 1 94 0
 242              		.cfi_startproc
 243              		@ args = 0, pretend = 0, frame = 0
 244              		@ frame_needed = 0, uses_anonymous_args = 0
 245              	.LVL20:
 246 0000 F0B5     		push	{r4, r5, r6, r7, lr}
 247              		.cfi_def_cfa_offset 20
 248              		.cfi_offset 4, -20
 249              		.cfi_offset 5, -16
 250              		.cfi_offset 6, -12
 251              		.cfi_offset 7, -8
 252              		.cfi_offset 14, -4
 253              		.loc 1 98 0
 254 0002 1431     		adds	r1, r1, #20
 255              	.LVL21:
 256              		.loc 1 94 0
 257 0004 83B0     		sub	sp, sp, #12
 258              		.cfi_def_cfa_offset 32
 259              		.loc 1 98 0
 260 0006 89B2     		uxth	r1, r1
 261              		.loc 1 94 0
 262 0008 0546     		mov	r5, r0
 263 000a 1746     		mov	r7, r2
 264              		.loc 1 98 0
 265 000c 0120     		movs	r0, #1
 266              	.LVL22:
 267 000e 0022     		movs	r2, #0
 268              	.LVL23:
 269 0010 FFF7FEFF 		bl	pbuf_alloc
 270              	.LVL24:
 271              		.loc 1 99 0
 272 0014 0646     		mov	r6, r0
 273 0016 10B3     		cbz	r0, .L20
 274              		.loc 1 100 0
 275 0018 4389     		ldrh	r3, [r0, #10]
 276 001a 132B     		cmp	r3, #19
 277 001c 22DD     		ble	.L26
 278              	.LVL25:
 279              	.L21:
 280              		.loc 1 103 0
 281 001e 688B     		ldrh	r0, [r5, #26]
 282              		.loc 1 102 0
 283 0020 7468     		ldr	r4, [r6, #4]
ARM GAS  C:\Users\jo\AppData\Local\Temp\ccnOsBUt.s 			page 6


 284              	.LVL26:
 285              		.loc 1 103 0
 286 0022 FFF7FEFF 		bl	lwip_htons
 287              	.LVL27:
 288 0026 2080     		strh	r0, [r4]	@ unaligned
 289              		.loc 1 104 0
 290 0028 A88B     		ldrh	r0, [r5, #28]
 291 002a FFF7FEFF 		bl	lwip_htons
 292              	.LVL28:
 293              		.loc 1 105 0
 294 002e 6760     		str	r7, [r4, #4]	@ unaligned
 295              		.loc 1 104 0
 296 0030 6080     		strh	r0, [r4, #2]	@ unaligned
 297              		.loc 1 106 0
 298 0032 A86A     		ldr	r0, [r5, #40]
 299 0034 FFF7FEFF 		bl	lwip_htonl
 300              	.LVL29:
 301 0038 A060     		str	r0, [r4, #8]	@ unaligned
 302              		.loc 1 107 0
 303 003a 45F21000 		movw	r0, #20496
 304 003e FFF7FEFF 		bl	lwip_htons
 305              	.LVL30:
 306 0042 A081     		strh	r0, [r4, #12]	@ unaligned
 307              		.loc 1 108 0
 308 0044 E88D     		ldrh	r0, [r5, #46]
 309 0046 FFF7FEFF 		bl	lwip_htons
 310              	.LVL31:
 311              		.loc 1 113 0
 312 004a E98D     		ldrh	r1, [r5, #46]
 313 004c AA6A     		ldr	r2, [r5, #40]
 314              		.loc 1 108 0
 315 004e E081     		strh	r0, [r4, #14]	@ unaligned
 316              		.loc 1 109 0
 317 0050 0023     		movs	r3, #0
 318              		.loc 1 113 0
 319 0052 0A44     		add	r2, r2, r1
 320              		.loc 1 109 0
 321 0054 2374     		strb	r3, [r4, #16]
 322 0056 6374     		strb	r3, [r4, #17]
 323              		.loc 1 110 0
 324 0058 A374     		strb	r3, [r4, #18]
 325 005a E374     		strb	r3, [r4, #19]
 326              		.loc 1 113 0
 327 005c 2A63     		str	r2, [r5, #48]
 328              	.LVL32:
 329              	.L20:
 330              		.loc 1 116 0
 331 005e 3046     		mov	r0, r6
 332 0060 03B0     		add	sp, sp, #12
 333              		.cfi_remember_state
 334              		.cfi_def_cfa_offset 20
 335              		@ sp needed
 336 0062 F0BD     		pop	{r4, r5, r6, r7, pc}
 337              	.LVL33:
 338              	.L26:
 339              		.cfi_restore_state
 340              		.loc 1 100 0
ARM GAS  C:\Users\jo\AppData\Local\Temp\ccnOsBUt.s 			page 7


 341 0064 054B     		ldr	r3, .L27
 342 0066 0093     		str	r3, [sp]
 343 0068 0549     		ldr	r1, .L27+4
 344 006a 064A     		ldr	r2, .L27+8
 345 006c 0648     		ldr	r0, .L27+12
 346              	.LVL34:
 347 006e 6523     		movs	r3, #101
 348 0070 FFF7FEFF 		bl	chprintf.constprop.2
 349              	.LVL35:
 350              	.LBB55:
 351              	.LBB56:
 352              		.file 3 "../../../os/hal/osal/rt/osal.h"
 353              		.loc 3 414 0
 354 0074 0348     		ldr	r0, .L27+8
 355 0076 FFF7FEFF 		bl	chSysHalt
 356              	.LVL36:
 357 007a D0E7     		b	.L21
 358              	.L28:
 359              		.align	2
 360              	.L27:
 361 007c 58000000 		.word	.LC2
 362 0080 00000000 		.word	.LC0
 363 0084 28000000 		.word	.LC1
 364 0088 00000000 		.word	itm_port
 365              	.LBE56:
 366              	.LBE55:
 367              		.cfi_endproc
 368              	.LFE274:
 369              		.size	tcp_output_alloc_header.constprop.1, .-tcp_output_alloc_header.constprop.1
 370 008c AFF30080 		.section	.text.tcp_pbuf_prealloc,"ax",%progbits
 371              		.align	2
 372              		.p2align 4,,15
 373              		.thumb
 374              		.thumb_func
 375              		.type	tcp_pbuf_prealloc, %function
 376              	tcp_pbuf_prealloc:
 377              	.LFB259:
 378              		.loc 1 222 0
 379              		.cfi_startproc
 380              		@ args = 12, pretend = 0, frame = 0
 381              		@ frame_needed = 0, uses_anonymous_args = 0
 382              	.LVL37:
 383 0000 70B5     		push	{r4, r5, r6, lr}
 384              		.cfi_def_cfa_offset 16
 385              		.cfi_offset 4, -16
 386              		.cfi_offset 5, -12
 387              		.cfi_offset 6, -8
 388              		.cfi_offset 14, -4
 389 0002 0D46     		mov	r5, r1
 390              	.LVL38:
 391 0004 82B0     		sub	sp, sp, #8
 392              		.cfi_def_cfa_offset 24
 393              		.loc 1 234 0
 394 0006 9542     		cmp	r5, r2
 395              		.loc 1 222 0
 396 0008 1E46     		mov	r6, r3
 397 000a 9DF82010 		ldrb	r1, [sp, #32]	@ zero_extendqisi2
ARM GAS  C:\Users\jo\AppData\Local\Temp\ccnOsBUt.s 			page 8


 398              	.LVL39:
 399 000e 9DF81C30 		ldrb	r3, [sp, #28]	@ zero_extendqisi2
 400              	.LVL40:
 401              		.loc 1 234 0
 402 0012 0ED2     		bcs	.L36
 403              		.loc 1 246 0
 404 0014 9C07     		lsls	r4, r3, #30
 405 0016 08D5     		bpl	.L46
 406              	.L31:
 407              		.loc 1 251 0
 408 0018 05F2B751 		addw	r1, r5, #1463
 409 001c 21F00301 		bic	r1, r1, #3
 410 0020 8A42     		cmp	r2, r1
 411 0022 A8BF     		it	ge
 412 0024 0A46     		movge	r2, r1
 413              	.LVL41:
 414 0026 91B2     		uxth	r1, r2
 415              	.LVL42:
 416 0028 04E0     		b	.L30
 417              	.LVL43:
 418              	.L46:
 419              		.loc 1 247 0 discriminator 1
 420 002a 069B     		ldr	r3, [sp, #24]
 421 002c 9B7F     		ldrb	r3, [r3, #30]	@ zero_extendqisi2
 422              		.loc 1 246 0 discriminator 1
 423 002e 5B06     		lsls	r3, r3, #25
 424 0030 1BD5     		bpl	.L47
 425              	.L36:
 426 0032 2946     		mov	r1, r5
 427              	.LVL44:
 428              	.L30:
 429              		.loc 1 255 0
 430 0034 0022     		movs	r2, #0
 431 0036 FFF7FEFF 		bl	pbuf_alloc
 432              	.LVL45:
 433              		.loc 1 256 0
 434 003a 0446     		mov	r4, r0
 435 003c 90B1     		cbz	r0, .L32
 436              		.loc 1 259 0
 437 003e 0368     		ldr	r3, [r0]
 438 0040 5BB1     		cbz	r3, .L33
 439              		.loc 1 259 0 is_stmt 0 discriminator 1
 440 0042 0F4B     		ldr	r3, .L48
 441 0044 0093     		str	r3, [sp]
 442 0046 0F48     		ldr	r0, .L48+4
 443              	.LVL46:
 444 0048 0F49     		ldr	r1, .L48+8
 445 004a 104A     		ldr	r2, .L48+12
 446 004c 40F20313 		movw	r3, #259
 447 0050 FFF7FEFF 		bl	chprintf.constprop.2
 448              	.LVL47:
 449              	.LBB57:
 450              	.LBB58:
 451              		.loc 3 414 0 is_stmt 1 discriminator 1
 452 0054 0D48     		ldr	r0, .L48+12
 453 0056 FFF7FEFF 		bl	chSysHalt
 454              	.LVL48:
ARM GAS  C:\Users\jo\AppData\Local\Temp\ccnOsBUt.s 			page 9


 455              	.L33:
 456              	.LBE58:
 457              	.LBE57:
 458              		.loc 1 260 0
 459 005a 6389     		ldrh	r3, [r4, #10]
 460 005c 5B1B     		subs	r3, r3, r5
 461 005e 3380     		strh	r3, [r6]	@ movhi
 462              		.loc 1 262 0
 463 0060 2581     		strh	r5, [r4, #8]	@ movhi
 464 0062 6581     		strh	r5, [r4, #10]	@ movhi
 465              	.L32:
 466              		.loc 1 264 0
 467 0064 2046     		mov	r0, r4
 468 0066 02B0     		add	sp, sp, #8
 469              		.cfi_remember_state
 470              		.cfi_def_cfa_offset 16
 471              		@ sp needed
 472 0068 70BD     		pop	{r4, r5, r6, pc}
 473              	.LVL49:
 474              	.L47:
 475              		.cfi_restore_state
 476              		.loc 1 247 0
 477 006a 0029     		cmp	r1, #0
 478 006c D4D0     		beq	.L31
 479              		.loc 1 248 0
 480 006e 069B     		ldr	r3, [sp, #24]
 481 0070 DB6E     		ldr	r3, [r3, #108]
 482 0072 002B     		cmp	r3, #0
 483 0074 D0D1     		bne	.L31
 484              		.loc 1 249 0
 485 0076 069B     		ldr	r3, [sp, #24]
 486 0078 1B6F     		ldr	r3, [r3, #112]
 487 007a 002B     		cmp	r3, #0
 488 007c CCD1     		bne	.L31
 489 007e D8E7     		b	.L36
 490              	.L49:
 491              		.align	2
 492              	.L48:
 493 0080 58000000 		.word	.LC2
 494 0084 00000000 		.word	itm_port
 495 0088 00000000 		.word	.LC0
 496 008c 88000000 		.word	.LC3
 497              		.cfi_endproc
 498              	.LFE259:
 499              		.size	tcp_pbuf_prealloc, .-tcp_pbuf_prealloc
 500              		.section	.text.tcp_write,"ax",%progbits
 501              		.align	2
 502              		.p2align 4,,15
 503              		.global	tcp_write
 504              		.thumb
 505              		.thumb_func
 506              		.type	tcp_write, %function
 507              	tcp_write:
 508              	.LFB261:
 509              		.loc 1 355 0
 510              		.cfi_startproc
 511              		@ args = 0, pretend = 0, frame = 40
ARM GAS  C:\Users\jo\AppData\Local\Temp\ccnOsBUt.s 			page 10


 512              		@ frame_needed = 0, uses_anonymous_args = 0
 513              	.LVL50:
 514 0000 2DE9F04F 		push	{r4, r5, r6, r7, r8, r9, r10, fp, lr}
 515              		.cfi_def_cfa_offset 36
 516              		.cfi_offset 4, -36
 517              		.cfi_offset 5, -32
 518              		.cfi_offset 6, -28
 519              		.cfi_offset 7, -24
 520              		.cfi_offset 8, -20
 521              		.cfi_offset 9, -16
 522              		.cfi_offset 10, -12
 523              		.cfi_offset 11, -8
 524              		.cfi_offset 14, -4
 525 0004 0746     		mov	r7, r0
 526              		.loc 1 373 0
 527 0006 B0F86200 		ldrh	r0, [r0, #98]
 528              	.LVL51:
 529 000a FC8E     		ldrh	r4, [r7, #54]
 530              		.loc 1 355 0
 531 000c 8FB0     		sub	sp, sp, #60
 532              		.cfi_def_cfa_offset 96
 533              		.loc 1 373 0
 534 000e 4008     		lsrs	r0, r0, #1
 535 0010 A042     		cmp	r0, r4
 536              		.loc 1 363 0
 537 0012 4FF00005 		mov	r5, #0
 538              		.loc 1 355 0
 539 0016 0893     		str	r3, [sp, #32]
 540              		.loc 1 373 0
 541 0018 0346     		mov	r3, r0
 542              	.LVL52:
 543 001a 28BF     		it	cs
 544 001c 2346     		movcs	r3, r4
 545              		.loc 1 363 0
 546 001e ADF83650 		strh	r5, [sp, #54]	@ movhi
 547              	.LVL53:
 548              		.loc 1 373 0
 549 0022 0593     		str	r3, [sp, #20]
 550              	.LVL54:
 551              		.loc 1 382 0
 552 0024 0691     		str	r1, [sp, #24]
 553 0026 0029     		cmp	r1, #0
 554 0028 00F0C582 		beq	.L184
 555              	.LBB88:
 556              	.LBB89:
 557              		.loc 1 297 0
 558 002c 3B7E     		ldrb	r3, [r7, #24]	@ zero_extendqisi2
 559 002e 072B     		cmp	r3, #7
 560 0030 9346     		mov	fp, r2
 561              	.LVL55:
 562 0032 07D0     		beq	.L53
 563              		.loc 1 298 0
 564 0034 023B     		subs	r3, r3, #2
 565 0036 022B     		cmp	r3, #2
 566 0038 04D9     		bls	.L53
 567              		.loc 1 302 0
 568 003a F320     		movs	r0, #243
ARM GAS  C:\Users\jo\AppData\Local\Temp\ccnOsBUt.s 			page 11


 569              	.LVL56:
 570              	.L52:
 571 003c 40B2     		sxtb	r0, r0
 572              	.LBE89:
 573              	.LBE88:
 574              		.loc 1 709 0
 575 003e 0FB0     		add	sp, sp, #60
 576              		.cfi_remember_state
 577              		.cfi_def_cfa_offset 36
 578              		@ sp needed
 579 0040 BDE8F08F 		pop	{r4, r5, r6, r7, r8, r9, r10, fp, pc}
 580              	.LVL57:
 581              	.L53:
 582              		.cfi_restore_state
 583              	.LBB100:
 584              	.LBB94:
 585              		.loc 1 303 0
 586 0044 BBF1000F 		cmp	fp, #0
 587 0048 00F0F080 		beq	.L55
 588              		.loc 1 308 0
 589 004c B7F86630 		ldrh	r3, [r7, #102]
 590 0050 5B45     		cmp	r3, fp
 591 0052 C0F07682 		bcc	.L179
 592              		.loc 1 320 0
 593 0056 B7F86860 		ldrh	r6, [r7, #104]
 594 005a 072E     		cmp	r6, #7
 595 005c 00F26B82 		bhi	.L185
 596              		.loc 1 328 0
 597 0060 3B6F     		ldr	r3, [r7, #112]
 598              		.loc 1 327 0
 599 0062 002E     		cmp	r6, #0
 600 0064 00F0BA80 		beq	.L58
 601              		.loc 1 328 0
 602 0068 002B     		cmp	r3, #0
 603 006a 00F0F881 		beq	.L186
 604              	.LVL58:
 605              	.L59:
 606              	.LBE94:
 607              	.LBE100:
 608              		.loc 1 422 0
 609 006e FB6E     		ldr	r3, [r7, #108]
 610 0070 0993     		str	r3, [sp, #36]
 611 0072 002B     		cmp	r3, #0
 612 0074 00F0C880 		beq	.L187
 613              	.LVL59:
 614              	.L177:
 615 0078 099A     		ldr	r2, [sp, #36]
 616 007a 00E0     		b	.L63
 617              	.LVL60:
 618              	.L108:
 619              	.LBB101:
 620 007c 1A46     		mov	r2, r3
 621              	.LVL61:
 622              	.L63:
 623              		.loc 1 427 0 discriminator 1
 624 007e 1368     		ldr	r3, [r2]
 625 0080 002B     		cmp	r3, #0
ARM GAS  C:\Users\jo\AppData\Local\Temp\ccnOsBUt.s 			page 12


 626 0082 FBD1     		bne	.L108
 627              		.loc 1 431 0
 628 0084 917A     		ldrb	r1, [r2, #10]	@ zero_extendqisi2
 629 0086 0598     		ldr	r0, [sp, #20]
 630 0088 0992     		str	r2, [sp, #36]
 631 008a 9846     		mov	r8, r3
 632 008c 1389     		ldrh	r3, [r2, #8]
 633              		.loc 1 447 0
 634 008e B7F86A20 		ldrh	r2, [r7, #106]
 635              	.LVL62:
 636              		.loc 1 431 0
 637 0092 11F0010F 		tst	r1, #1
 638 0096 14BF     		ite	ne
 639 0098 0424     		movne	r4, #4
 640 009a 0024     		moveq	r4, #0
 641 009c C31A     		subs	r3, r0, r3
 642 009e 11F0020F 		tst	r1, #2
 643 00a2 A3EB0403 		sub	r3, r3, r4
 644 00a6 14BF     		ite	ne
 645 00a8 0C24     		movne	r4, #12
 646 00aa 0024     		moveq	r4, #0
 647              	.LVL63:
 648              		.loc 1 432 0
 649 00ac 1C1B     		subs	r4, r3, r4
 650 00ae A4B2     		uxth	r4, r4
 651              	.LVL64:
 652              		.loc 1 448 0
 653 00b0 002A     		cmp	r2, #0
 654 00b2 40F0BE80 		bne	.L66
 655              		.loc 1 447 0
 656 00b6 ADF83680 		strh	r8, [sp, #54]	@ movhi
 657              	.LBE101:
 658              		.loc 1 357 0
 659 00ba C146     		mov	r9, r8
 660              		.loc 1 358 0
 661 00bc CDF82880 		str	r8, [sp, #40]
 662              	.LVL65:
 663              	.L67:
 664              	.LBB107:
 665              		.loc 1 467 0
 666 00c0 0A9B     		ldr	r3, [sp, #40]
 667 00c2 9B45     		cmp	fp, r3
 668 00c4 40F2C780 		bls	.L68
 669              		.loc 1 467 0 is_stmt 0 discriminator 1
 670 00c8 002C     		cmp	r4, #0
 671 00ca 40F0E880 		bne	.L188
 672              	.L69:
 673              	.LVL66:
 674 00ce 089B     		ldr	r3, [sp, #32]
 675              	.LBE107:
 676              		.loc 1 358 0 is_stmt 1
 677 00d0 0A9C     		ldr	r4, [sp, #40]
 678              	.LVL67:
 679 00d2 03F00103 		and	r3, r3, #1
 680 00d6 0793     		str	r3, [sp, #28]
 681 00d8 0023     		movs	r3, #0
 682 00da 0B93     		str	r3, [sp, #44]
ARM GAS  C:\Users\jo\AppData\Local\Temp\ccnOsBUt.s 			page 13


 683              	.LVL68:
 684              	.L73:
 685 00dc 4FF00008 		mov	r8, #0
 686 00e0 C246     		mov	r10, r8
 687 00e2 CDF81080 		str	r8, [sp, #16]
 688 00e6 44E0     		b	.L86
 689              	.LVL69:
 690              	.L76:
 691              	.LBB108:
 692              	.LBB109:
 693              		.loc 1 550 0
 694 00e8 BDF83630 		ldrh	r3, [sp, #54]
 695 00ec 002B     		cmp	r3, #0
 696 00ee 40F01F81 		bne	.L189
 697              	.L80:
 698              		.loc 1 552 0
 699 00f2 0020     		movs	r0, #0
 700 00f4 2946     		mov	r1, r5
 701 00f6 0122     		movs	r2, #1
 702 00f8 FFF7FEFF 		bl	pbuf_alloc
 703              	.LVL70:
 704 00fc 8046     		mov	r8, r0
 705 00fe 0028     		cmp	r0, #0
 706 0100 00F08181 		beq	.L174
 707              		.loc 1 561 0
 708 0104 069B     		ldr	r3, [sp, #24]
 709              		.loc 1 564 0
 710 0106 0020     		movs	r0, #0
 711              	.LVL71:
 712              		.loc 1 561 0
 713 0108 1A19     		adds	r2, r3, r4
 714 010a C8F80420 		str	r2, [r8, #4]
 715              		.loc 1 564 0
 716 010e 0146     		mov	r1, r0
 717 0110 0246     		mov	r2, r0
 718 0112 FFF7FEFF 		bl	pbuf_alloc
 719              	.LVL72:
 720 0116 8146     		mov	r9, r0
 721 0118 0028     		cmp	r0, #0
 722 011a 00F09981 		beq	.L190
 723              		.loc 1 572 0
 724 011e 4146     		mov	r1, r8
 725 0120 FFF7FEFF 		bl	pbuf_cat
 726              	.LVL73:
 727              	.LBE109:
 728              		.loc 1 575 0
 729 0124 4846     		mov	r0, r9
 730 0126 FFF7FEFF 		bl	pbuf_clen
 731              	.LVL74:
 732 012a 3044     		add	r0, r0, r6
 733 012c 86B2     		uxth	r6, r0
 734              	.LVL75:
 735              		.loc 1 580 0
 736 012e 082E     		cmp	r6, #8
 737 0130 4ED8     		bhi	.L191
 738              	.LVL76:
 739              	.L83:
ARM GAS  C:\Users\jo\AppData\Local\Temp\ccnOsBUt.s 			page 14


 740              		.loc 1 586 0
 741 0132 FA6D     		ldr	r2, [r7, #92]
 742 0134 0023     		movs	r3, #0
 743 0136 A118     		adds	r1, r4, r2
 744 0138 8DE80A00 		stmia	sp, {r1, r3}
 745 013c 4A46     		mov	r2, r9
 746 013e 07F11A00 		add	r0, r7, #26
 747 0142 07F11C01 		add	r1, r7, #28
 748 0146 FFF7FEFF 		bl	tcp_create_segment.isra.0
 749              	.LVL77:
 750 014a 8146     		mov	r9, r0
 751              	.LVL78:
 752 014c 0028     		cmp	r0, #0
 753 014e 00F05A81 		beq	.L174
 754              		.loc 1 599 0
 755 0152 049B     		ldr	r3, [sp, #16]
 756 0154 002B     		cmp	r3, #0
 757 0156 00F0F880 		beq	.L113
 758              		.loc 1 603 0
 759 015a BAF1000F 		cmp	r10, #0
 760 015e 00F04581 		beq	.L192
 761              	.LVL79:
 762              	.L85:
 763              		.loc 1 613 0
 764 0162 2C44     		add	r4, r4, r5
 765              	.LVL80:
 766 0164 A4B2     		uxth	r4, r4
 767              	.LBE108:
 768              		.loc 1 522 0
 769 0166 A345     		cmp	fp, r4
 770              	.LBB118:
 771              		.loc 1 604 0
 772 0168 CAF80090 		str	r9, [r10]
 773              	.LVL81:
 774              	.LBE118:
 775              		.loc 1 522 0
 776 016c 40F2F380 		bls	.L193
 777              	.L114:
 778 0170 CA46     		mov	r10, r9
 779              	.LVL82:
 780              	.L86:
 781              	.LBB119:
 782              		.loc 1 526 0
 783 0172 059B     		ldr	r3, [sp, #20]
 784              		.loc 1 524 0
 785 0174 C4EB0B05 		rsb	r5, r4, fp
 786              		.loc 1 526 0
 787 0178 ADB2     		uxth	r5, r5
 788 017a 9D42     		cmp	r5, r3
 789 017c 28BF     		it	cs
 790 017e 1D46     		movcs	r5, r3
 791              	.LVL83:
 792              		.loc 1 532 0
 793 0180 079B     		ldr	r3, [sp, #28]
 794 0182 002B     		cmp	r3, #0
 795 0184 B0D0     		beq	.L76
 796              		.loc 1 535 0
ARM GAS  C:\Users\jo\AppData\Local\Temp\ccnOsBUt.s 			page 15


 797 0186 089A     		ldr	r2, [sp, #32]
 798 0188 049B     		ldr	r3, [sp, #16]
 799 018a B3FA83F3 		clz	r3, r3
 800 018e 5B09     		lsrs	r3, r3, #5
 801 0190 0192     		str	r2, [sp, #4]
 802 0192 0293     		str	r3, [sp, #8]
 803 0194 0097     		str	r7, [sp]
 804 0196 0020     		movs	r0, #0
 805 0198 2946     		mov	r1, r5
 806 019a 059A     		ldr	r2, [sp, #20]
 807 019c 0DF13603 		add	r3, sp, #54
 808 01a0 FFF7FEFF 		bl	tcp_pbuf_prealloc
 809              	.LVL84:
 810 01a4 8146     		mov	r9, r0
 811 01a6 0028     		cmp	r0, #0
 812 01a8 00F02D81 		beq	.L174
 813              		.loc 1 539 0
 814 01ac 4389     		ldrh	r3, [r0, #10]
 815 01ae AB42     		cmp	r3, r5
 816 01b0 C0F00F81 		bcc	.L194
 817              	.LVL85:
 818              	.L78:
 819              		.loc 1 541 0
 820 01b4 069B     		ldr	r3, [sp, #24]
 821 01b6 D9F80400 		ldr	r0, [r9, #4]
 822 01ba 1919     		adds	r1, r3, r4
 823 01bc 2A46     		mov	r2, r5
 824 01be FFF7FEFF 		bl	memcpy
 825              	.LVL86:
 826              		.loc 1 575 0
 827 01c2 4846     		mov	r0, r9
 828 01c4 FFF7FEFF 		bl	pbuf_clen
 829              	.LVL87:
 830 01c8 3044     		add	r0, r0, r6
 831 01ca 86B2     		uxth	r6, r0
 832              	.LVL88:
 833              		.loc 1 580 0
 834 01cc 082E     		cmp	r6, #8
 835 01ce B0D9     		bls	.L83
 836              	.L191:
 837              		.loc 1 582 0
 838 01d0 4846     		mov	r0, r9
 839 01d2 DDF81080 		ldr	r8, [sp, #16]
 840 01d6 FFF7FEFF 		bl	pbuf_free
 841              	.LVL89:
 842              		.loc 1 583 0
 843 01da 16E1     		b	.L82
 844              	.LVL90:
 845              	.L58:
 846              	.LBE119:
 847              	.LBB120:
 848              	.LBB95:
 849              		.loc 1 331 0
 850 01dc 002B     		cmp	r3, #0
 851 01de 00F09280 		beq	.L195
 852              	.L61:
 853 01e2 A94B     		ldr	r3, .L204
ARM GAS  C:\Users\jo\AppData\Local\Temp\ccnOsBUt.s 			page 16


 854 01e4 0093     		str	r3, [sp]
 855 01e6 A949     		ldr	r1, .L204+4
 856              	.LVL91:
 857 01e8 A94A     		ldr	r2, .L204+8
 858              	.LVL92:
 859 01ea AA48     		ldr	r0, .L204+12
 860 01ec 4FF4A673 		mov	r3, #332
 861 01f0 FFF7FEFF 		bl	chprintf.constprop.2
 862              	.LVL93:
 863              	.LBB90:
 864              	.LBB91:
 865              		.loc 3 414 0
 866 01f4 A648     		ldr	r0, .L204+8
 867 01f6 FFF7FEFF 		bl	chSysHalt
 868              	.LVL94:
 869              	.LBE91:
 870              	.LBE90:
 871              	.LBE95:
 872              	.LBE120:
 873              		.loc 1 422 0
 874 01fa FB6E     		ldr	r3, [r7, #108]
 875 01fc B7F86860 		ldrh	r6, [r7, #104]
 876              	.LVL95:
 877 0200 0993     		str	r3, [sp, #36]
 878 0202 002B     		cmp	r3, #0
 879 0204 7FF438AF 		bne	.L177
 880              	.LVL96:
 881              	.L187:
 882              		.loc 1 511 0
 883 0208 B7F86A30 		ldrh	r3, [r7, #106]
 884 020c 002B     		cmp	r3, #0
 885 020e 40F08280 		bne	.L102
 886              	.LVL97:
 887              	.L75:
 888              		.loc 1 522 0
 889 0212 BBF1000F 		cmp	fp, #0
 890 0216 00F0DF81 		beq	.L101
 891              	.LVL98:
 892              	.L103:
 893 021a 089B     		ldr	r3, [sp, #32]
 894              		.loc 1 358 0
 895 021c 0024     		movs	r4, #0
 896 021e 03F00103 		and	r3, r3, #1
 897 0222 0A94     		str	r4, [sp, #40]
 898 0224 0994     		str	r4, [sp, #36]
 899 0226 0B94     		str	r4, [sp, #44]
 900 0228 0793     		str	r3, [sp, #28]
 901 022a 57E7     		b	.L73
 902              	.LVL99:
 903              	.L55:
 904 022c B7F86860 		ldrh	r6, [r7, #104]
 905 0230 1DE7     		b	.L59
 906              	.LVL100:
 907              	.L66:
 908              	.LBB121:
 909              		.loc 1 451 0
 910 0232 9345     		cmp	fp, r2
ARM GAS  C:\Users\jo\AppData\Local\Temp\ccnOsBUt.s 			page 17


 911 0234 5B46     		mov	r3, fp
 912 0236 28BF     		it	cs
 913 0238 1346     		movcs	r3, r2
 914              		.loc 1 453 0
 915 023a D21A     		subs	r2, r2, r3
 916 023c 92B2     		uxth	r2, r2
 917              		.loc 1 454 0
 918 023e E41A     		subs	r4, r4, r3
 919              	.LVL101:
 920              		.loc 1 451 0
 921 0240 0A93     		str	r3, [sp, #40]
 922              	.LVL102:
 923              		.loc 1 453 0
 924 0242 ADF83620 		strh	r2, [sp, #54]	@ movhi
 925              		.loc 1 454 0
 926 0246 A4B2     		uxth	r4, r4
 927              	.LVL103:
 928              		.loc 1 457 0
 929 0248 002A     		cmp	r2, #0
 930 024a 00F0C281 		beq	.L111
 931              		.loc 1 457 0 is_stmt 0 discriminator 1
 932 024e 9B45     		cmp	fp, r3
 933 0250 16D1     		bne	.L196
 934 0252 DDF82490 		ldr	r9, [sp, #36]
 935              	.LVL104:
 936              	.L68:
 937              	.LBE121:
 938              		.loc 1 626 0 is_stmt 1
 939 0256 0A9B     		ldr	r3, [sp, #40]
 940 0258 002B     		cmp	r3, #0
 941 025a 00F03F81 		beq	.L197
 942 025e 0023     		movs	r3, #0
 943 0260 0B93     		str	r3, [sp, #44]
 944              	.LVL105:
 945              	.L99:
 946              	.LBB122:
 947              		.loc 1 629 0
 948 0262 099B     		ldr	r3, [sp, #36]
 949 0264 5C68     		ldr	r4, [r3, #4]
 950              	.LVL106:
 951 0266 002C     		cmp	r4, #0
 952 0268 00F03281 		beq	.L88
 953 026c 0A9D     		ldr	r5, [sp, #40]
 954              	.LVL107:
 955              	.L89:
 956              		.loc 1 630 0
 957 026e 2389     		ldrh	r3, [r4, #8]
 958              		.loc 1 631 0
 959 0270 2268     		ldr	r2, [r4]
 960              		.loc 1 630 0
 961 0272 2B44     		add	r3, r3, r5
 962 0274 2381     		strh	r3, [r4, #8]	@ movhi
 963              		.loc 1 631 0
 964 0276 002A     		cmp	r2, #0
 965 0278 00F01C81 		beq	.L198
 966              	.LVL108:
 967              	.L90:
ARM GAS  C:\Users\jo\AppData\Local\Temp\ccnOsBUt.s 			page 18


 968              	.LBE122:
 969              		.loc 1 626 0
 970 027c 1446     		mov	r4, r2
 971 027e F6E7     		b	.L89
 972              	.LVL109:
 973              	.L196:
 974              	.LBB123:
 975              		.loc 1 457 0 discriminator 2
 976 0280 814B     		ldr	r3, .L204
 977              	.LVL110:
 978 0282 0093     		str	r3, [sp]
 979 0284 8149     		ldr	r1, .L204+4
 980 0286 844A     		ldr	r2, .L204+16
 981 0288 8248     		ldr	r0, .L204+12
 982 028a 40F2C913 		movw	r3, #457
 983 028e FFF7FEFF 		bl	chprintf.constprop.2
 984              	.LVL111:
 985              	.LBB102:
 986              	.LBB103:
 987              		.loc 3 414 0 discriminator 2
 988 0292 8148     		ldr	r0, .L204+16
 989 0294 FFF7FEFF 		bl	chSysHalt
 990              	.LVL112:
 991 0298 DDF82490 		ldr	r9, [sp, #36]
 992 029c 10E7     		b	.L67
 993              	.LVL113:
 994              	.L188:
 995              	.LBE103:
 996              	.LBE102:
 997              		.loc 1 467 0 discriminator 2
 998 029e 099B     		ldr	r3, [sp, #36]
 999 02a0 1B89     		ldrh	r3, [r3, #8]
 1000 02a2 002B     		cmp	r3, #0
 1001 02a4 3FF413AF 		beq	.L69
 1002              	.LBB104:
 1003              		.loc 1 468 0
 1004 02a8 0A9B     		ldr	r3, [sp, #40]
 1005 02aa C3EB0B05 		rsb	r5, r3, fp
 1006              		.loc 1 474 0
 1007 02ae 089B     		ldr	r3, [sp, #32]
 1008              		.loc 1 468 0
 1009 02b0 A542     		cmp	r5, r4
 1010 02b2 A8BF     		it	ge
 1011 02b4 2546     		movge	r5, r4
 1012              		.loc 1 474 0
 1013 02b6 13F00103 		ands	r3, r3, #1
 1014              		.loc 1 468 0
 1015 02ba ADB2     		uxth	r5, r5
 1016              	.LVL114:
 1017              		.loc 1 474 0
 1018 02bc 0793     		str	r3, [sp, #28]
 1019 02be 40F01281 		bne	.L199
 1020              		.loc 1 491 0
 1021 02c2 0320     		movs	r0, #3
 1022 02c4 2946     		mov	r1, r5
 1023 02c6 0122     		movs	r2, #1
 1024 02c8 FFF7FEFF 		bl	pbuf_alloc
ARM GAS  C:\Users\jo\AppData\Local\Temp\ccnOsBUt.s 			page 19


 1025              	.LVL115:
 1026 02cc 0B90     		str	r0, [sp, #44]
 1027 02ce 0028     		cmp	r0, #0
 1028 02d0 00F05981 		beq	.L71
 1029              		.loc 1 503 0
 1030 02d4 069B     		ldr	r3, [sp, #24]
 1031 02d6 0A99     		ldr	r1, [sp, #40]
 1032 02d8 0B44     		add	r3, r3, r1
 1033 02da 4360     		str	r3, [r0, #4]
 1034              	.LVL116:
 1035              	.L72:
 1036              		.loc 1 506 0
 1037 02dc 0A9B     		ldr	r3, [sp, #40]
 1038              		.loc 1 507 0
 1039 02de 0B98     		ldr	r0, [sp, #44]
 1040              		.loc 1 506 0
 1041 02e0 EC18     		adds	r4, r5, r3
 1042              	.LVL117:
 1043              		.loc 1 507 0
 1044 02e2 FFF7FEFF 		bl	pbuf_clen
 1045              	.LVL118:
 1046              		.loc 1 506 0
 1047 02e6 A4B2     		uxth	r4, r4
 1048              	.LVL119:
 1049              		.loc 1 507 0
 1050 02e8 3044     		add	r0, r0, r6
 1051              	.LBE104:
 1052              	.LBE123:
 1053              		.loc 1 522 0
 1054 02ea A345     		cmp	fp, r4
 1055              	.LBB124:
 1056              	.LBB105:
 1057              		.loc 1 507 0
 1058 02ec 86B2     		uxth	r6, r0
 1059              	.LVL120:
 1060              	.LBE105:
 1061              	.LBE124:
 1062              		.loc 1 522 0
 1063 02ee 3FF6F5AE 		bhi	.L73
 1064              		.loc 1 626 0
 1065 02f2 0A9B     		ldr	r3, [sp, #40]
 1066              		.loc 1 522 0
 1067 02f4 DDF82490 		ldr	r9, [sp, #36]
 1068              		.loc 1 626 0
 1069 02f8 002B     		cmp	r3, #0
 1070 02fa B2D1     		bne	.L99
 1071              		.loc 1 643 0
 1072 02fc BDF83630 		ldrh	r3, [sp, #54]
 1073 0300 A7F86A30 		strh	r3, [r7, #106]	@ movhi
 1074 0304 34E0     		b	.L105
 1075              	.LVL121:
 1076              	.L195:
 1077              	.LBB125:
 1078              	.LBB96:
 1079              		.loc 1 331 0
 1080 0306 FB6E     		ldr	r3, [r7, #108]
 1081 0308 002B     		cmp	r3, #0
ARM GAS  C:\Users\jo\AppData\Local\Temp\ccnOsBUt.s 			page 20


 1082 030a 7FF46AAF 		bne	.L61
 1083              	.LVL122:
 1084              	.LBE96:
 1085              	.LBE125:
 1086              		.loc 1 511 0
 1087 030e B7F86A30 		ldrh	r3, [r7, #106]
 1088 0312 002B     		cmp	r3, #0
 1089 0314 81D0     		beq	.L103
 1090              	.LVL123:
 1091              	.L102:
 1092              		.loc 1 511 0 is_stmt 0 discriminator 1
 1093 0316 5C4B     		ldr	r3, .L204
 1094 0318 0093     		str	r3, [sp]
 1095 031a 5C49     		ldr	r1, .L204+4
 1096 031c 5F4A     		ldr	r2, .L204+20
 1097 031e 5D48     		ldr	r0, .L204+12
 1098 0320 4FF40073 		mov	r3, #512
 1099 0324 FFF7FEFF 		bl	chprintf.constprop.2
 1100              	.LVL124:
 1101              	.LBB126:
 1102              	.LBB127:
 1103              		.loc 3 414 0 is_stmt 1 discriminator 1
 1104 0328 5C48     		ldr	r0, .L204+20
 1105 032a FFF7FEFF 		bl	chSysHalt
 1106              	.LVL125:
 1107 032e 70E7     		b	.L75
 1108              	.LVL126:
 1109              	.L189:
 1110              	.LBE127:
 1111              	.LBE126:
 1112              	.LBB128:
 1113              	.LBB112:
 1114              		.loc 1 550 0 discriminator 1
 1115 0330 554B     		ldr	r3, .L204
 1116 0332 0093     		str	r3, [sp]
 1117 0334 5549     		ldr	r1, .L204+4
 1118 0336 5A4A     		ldr	r2, .L204+24
 1119 0338 5648     		ldr	r0, .L204+12
 1120 033a 40F22623 		movw	r3, #550
 1121 033e FFF7FEFF 		bl	chprintf.constprop.2
 1122              	.LVL127:
 1123              	.LBB110:
 1124              	.LBB111:
 1125              		.loc 3 414 0 discriminator 1
 1126 0342 5748     		ldr	r0, .L204+24
 1127 0344 FFF7FEFF 		bl	chSysHalt
 1128              	.LVL128:
 1129 0348 D3E6     		b	.L80
 1130              	.LVL129:
 1131              	.L113:
 1132              	.LBE111:
 1133              	.LBE110:
 1134              	.LBE112:
 1135              		.loc 1 613 0
 1136 034a 2C44     		add	r4, r4, r5
 1137              	.LVL130:
 1138 034c A4B2     		uxth	r4, r4
ARM GAS  C:\Users\jo\AppData\Local\Temp\ccnOsBUt.s 			page 21


 1139              	.LBE128:
 1140              		.loc 1 522 0
 1141 034e A345     		cmp	fp, r4
 1142              	.LBB129:
 1143 0350 0490     		str	r0, [sp, #16]
 1144              	.LVL131:
 1145              	.LBE129:
 1146 0352 3FF60DAF 		bhi	.L114
 1147              	.LVL132:
 1148              	.L193:
 1149              		.loc 1 626 0
 1150 0356 0A9B     		ldr	r3, [sp, #40]
 1151 0358 DDF81080 		ldr	r8, [sp, #16]
 1152 035c 002B     		cmp	r3, #0
 1153 035e 80D1     		bne	.L99
 1154              	.LVL133:
 1155              	.L87:
 1156              		.loc 1 643 0
 1157 0360 BDF83630 		ldrh	r3, [sp, #54]
 1158 0364 A7F86A30 		strh	r3, [r7, #106]	@ movhi
 1159              		.loc 1 649 0
 1160 0368 0B9B     		ldr	r3, [sp, #44]
 1161 036a 002B     		cmp	r3, #0
 1162 036c 00F00481 		beq	.L91
 1163              	.L105:
 1164              		.loc 1 650 0
 1165 0370 099B     		ldr	r3, [sp, #36]
 1166 0372 002B     		cmp	r3, #0
 1167 0374 00F01281 		beq	.L200
 1168              	.L92:
 1169              		.loc 1 652 0
 1170 0378 099C     		ldr	r4, [sp, #36]
 1171 037a 0B9D     		ldr	r5, [sp, #44]
 1172 037c 6068     		ldr	r0, [r4, #4]
 1173 037e 2946     		mov	r1, r5
 1174 0380 FFF7FEFF 		bl	pbuf_cat
 1175              	.LVL134:
 1176              		.loc 1 653 0
 1177 0384 2A89     		ldrh	r2, [r5, #8]
 1178 0386 2389     		ldrh	r3, [r4, #8]
 1179 0388 1344     		add	r3, r3, r2
 1180 038a 2381     		strh	r3, [r4, #8]	@ movhi
 1181              	.L93:
 1182              		.loc 1 670 0
 1183 038c 099B     		ldr	r3, [sp, #36]
 1184 038e C3F80080 		str	r8, [r3]
 1185              	.L94:
 1186              		.loc 1 676 0
 1187 0392 FA6D     		ldr	r2, [r7, #92]
 1188              		.loc 1 677 0
 1189 0394 B7F86630 		ldrh	r3, [r7, #102]
 1190              		.loc 1 678 0
 1191 0398 A7F86860 		strh	r6, [r7, #104]	@ movhi
 1192              		.loc 1 676 0
 1193 039c 5A44     		add	r2, r2, fp
 1194              		.loc 1 677 0
 1195 039e CBEB030B 		rsb	fp, fp, r3
ARM GAS  C:\Users\jo\AppData\Local\Temp\ccnOsBUt.s 			page 22


 1196              	.LVL135:
 1197              		.loc 1 676 0
 1198 03a2 FA65     		str	r2, [r7, #92]
 1199              		.loc 1 677 0
 1200 03a4 A7F866B0 		strh	fp, [r7, #102]	@ movhi
 1201              		.loc 1 682 0
 1202 03a8 1EB1     		cbz	r6, .L95
 1203              		.loc 1 683 0
 1204 03aa 3B6F     		ldr	r3, [r7, #112]
 1205 03ac 002B     		cmp	r3, #0
 1206 03ae 00F0B180 		beq	.L201
 1207              	.L95:
 1208              		.loc 1 688 0
 1209 03b2 B9F1000F 		cmp	r9, #0
 1210 03b6 0AD0     		beq	.L117
 1211              		.loc 1 688 0 is_stmt 0 discriminator 1
 1212 03b8 D9F80C40 		ldr	r4, [r9, #12]
 1213 03bc 3CB1     		cbz	r4, .L117
 1214              		.loc 1 688 0 discriminator 2
 1215 03be 089B     		ldr	r3, [sp, #32]
 1216 03c0 03F00203 		and	r3, r3, #2
 1217 03c4 03F0FF09 		and	r9, r3, #255
 1218 03c8 002B     		cmp	r3, #0
 1219 03ca 00F0BF80 		beq	.L202
 1220              	.L117:
 1221              		.loc 1 692 0 is_stmt 1
 1222 03ce 0020     		movs	r0, #0
 1223 03d0 34E6     		b	.L52
 1224              	.LVL136:
 1225              	.L194:
 1226              	.LBB130:
 1227              		.loc 1 539 0 discriminator 1
 1228 03d2 2D4B     		ldr	r3, .L204
 1229 03d4 0093     		str	r3, [sp]
 1230 03d6 2D49     		ldr	r1, .L204+4
 1231 03d8 324A     		ldr	r2, .L204+28
 1232 03da 2E48     		ldr	r0, .L204+12
 1233              	.LVL137:
 1234 03dc 4FF40773 		mov	r3, #540
 1235 03e0 FFF7FEFF 		bl	chprintf.constprop.2
 1236              	.LVL138:
 1237              	.LBB113:
 1238              	.LBB114:
 1239              		.loc 3 414 0 discriminator 1
 1240 03e4 2F48     		ldr	r0, .L204+28
 1241 03e6 FFF7FEFF 		bl	chSysHalt
 1242              	.LVL139:
 1243 03ea E3E6     		b	.L78
 1244              	.LVL140:
 1245              	.L192:
 1246              	.LBE114:
 1247              	.LBE113:
 1248              		.loc 1 603 0 discriminator 1
 1249 03ec 264B     		ldr	r3, .L204
 1250 03ee 0093     		str	r3, [sp]
 1251 03f0 2649     		ldr	r1, .L204+4
 1252 03f2 2D4A     		ldr	r2, .L204+32
ARM GAS  C:\Users\jo\AppData\Local\Temp\ccnOsBUt.s 			page 23


 1253 03f4 2748     		ldr	r0, .L204+12
 1254              	.LVL141:
 1255 03f6 40F25B23 		movw	r3, #603
 1256 03fa FFF7FEFF 		bl	chprintf.constprop.2
 1257              	.LVL142:
 1258              	.LBB115:
 1259              	.LBB116:
 1260              		.loc 3 414 0 discriminator 1
 1261 03fe 2A48     		ldr	r0, .L204+32
 1262 0400 FFF7FEFF 		bl	chSysHalt
 1263              	.LVL143:
 1264 0404 ADE6     		b	.L85
 1265              	.LVL144:
 1266              	.L174:
 1267 0406 DDF81080 		ldr	r8, [sp, #16]
 1268              	.L82:
 1269              	.LVL145:
 1270              	.LBE116:
 1271              	.LBE115:
 1272              	.LBE130:
 1273              		.loc 1 694 0
 1274 040a BB7F     		ldrb	r3, [r7, #30]	@ zero_extendqisi2
 1275              		.loc 1 695 0
 1276 040c 274A     		ldr	r2, .L204+36
 1277              		.loc 1 694 0
 1278 040e 63F07F03 		orn	r3, r3, #127
 1279 0412 BB77     		strb	r3, [r7, #30]
 1280              		.loc 1 695 0
 1281 0414 B2F89C30 		ldrh	r3, [r2, #156]
 1282 0418 0133     		adds	r3, r3, #1
 1283 041a A2F89C30 		strh	r3, [r2, #156]	@ movhi
 1284              		.loc 1 697 0
 1285 041e 0B9B     		ldr	r3, [sp, #44]
 1286 0420 13B1     		cbz	r3, .L96
 1287              		.loc 1 698 0
 1288 0422 1846     		mov	r0, r3
 1289 0424 FFF7FEFF 		bl	pbuf_free
 1290              	.LVL146:
 1291              	.L96:
 1292              		.loc 1 700 0
 1293 0428 B8F1000F 		cmp	r8, #0
 1294 042c 02D0     		beq	.L97
 1295              		.loc 1 701 0
 1296 042e 4046     		mov	r0, r8
 1297 0430 FFF7FEFF 		bl	tcp_segs_free
 1298              	.LVL147:
 1299              	.L97:
 1300              		.loc 1 703 0
 1301 0434 B7F86830 		ldrh	r3, [r7, #104]
 1302 0438 2BB1     		cbz	r3, .L180
 1303              		.loc 1 704 0
 1304 043a 3B6F     		ldr	r3, [r7, #112]
 1305 043c 1BB9     		cbnz	r3, .L180
 1306              		.loc 1 704 0 is_stmt 0 discriminator 1
 1307 043e FB6E     		ldr	r3, [r7, #108]
 1308 0440 002B     		cmp	r3, #0
 1309 0442 00F08B80 		beq	.L203
ARM GAS  C:\Users\jo\AppData\Local\Temp\ccnOsBUt.s 			page 24


 1310              	.L180:
 1311              	.LBB131:
 1312              	.LBB97:
 1313              		.loc 1 325 0 is_stmt 1
 1314 0446 FF20     		movs	r0, #255
 1315 0448 40B2     		sxtb	r0, r0
 1316              	.LBE97:
 1317              	.LBE131:
 1318              		.loc 1 709 0
 1319 044a 0FB0     		add	sp, sp, #60
 1320              		.cfi_remember_state
 1321              		.cfi_def_cfa_offset 36
 1322              		@ sp needed
 1323 044c BDE8F08F 		pop	{r4, r5, r6, r7, r8, r9, r10, fp, pc}
 1324              	.LVL148:
 1325              	.L190:
 1326              		.cfi_restore_state
 1327 0450 4346     		mov	r3, r8
 1328              	.LBB132:
 1329              	.LBB117:
 1330              		.loc 1 567 0
 1331 0452 1846     		mov	r0, r3
 1332              	.LVL149:
 1333 0454 DDF81080 		ldr	r8, [sp, #16]
 1334              	.LVL150:
 1335 0458 FFF7FEFF 		bl	pbuf_free
 1336              	.LVL151:
 1337              		.loc 1 569 0
 1338 045c D5E7     		b	.L82
 1339              	.LVL152:
 1340              	.L186:
 1341              	.LBE117:
 1342              	.LBE132:
 1343              	.LBB133:
 1344              	.LBB98:
 1345              		.loc 1 328 0
 1346 045e FB6E     		ldr	r3, [r7, #108]
 1347 0460 0993     		str	r3, [sp, #36]
 1348 0462 002B     		cmp	r3, #0
 1349 0464 7FF408AE 		bne	.L177
 1350 0468 074B     		ldr	r3, .L204
 1351 046a 0093     		str	r3, [sp]
 1352 046c 0749     		ldr	r1, .L204+4
 1353              	.LVL153:
 1354 046e 104A     		ldr	r2, .L204+40
 1355              	.LVL154:
 1356 0470 0848     		ldr	r0, .L204+12
 1357 0472 40F24913 		movw	r3, #329
 1358 0476 FFF7FEFF 		bl	chprintf.constprop.2
 1359              	.LVL155:
 1360              	.LBB92:
 1361              	.LBB93:
 1362              		.loc 3 414 0
 1363 047a 0D48     		ldr	r0, .L204+40
 1364 047c FFF7FEFF 		bl	chSysHalt
 1365              	.LVL156:
 1366 0480 B7F86860 		ldrh	r6, [r7, #104]
ARM GAS  C:\Users\jo\AppData\Local\Temp\ccnOsBUt.s 			page 25


 1367 0484 F3E5     		b	.L59
 1368              	.L205:
 1369 0486 00BF     		.align	2
 1370              	.L204:
 1371 0488 58000000 		.word	.LC2
 1372 048c 00000000 		.word	.LC0
 1373 0490 0C010000 		.word	.LC6
 1374 0494 00000000 		.word	itm_port
 1375 0498 40010000 		.word	.LC7
 1376 049c 60010000 		.word	.LC8
 1377 04a0 D0010000 		.word	.LC10
 1378 04a4 90010000 		.word	.LC9
 1379 04a8 E0010000 		.word	.LC11
 1380 04ac 00000000 		.word	lwip_stats
 1381 04b0 D0000000 		.word	.LC5
 1382              	.LVL157:
 1383              	.L198:
 1384              	.LBE93:
 1385              	.LBE92:
 1386              	.LBE98:
 1387              	.LBE133:
 1388              	.LBB134:
 1389              		.loc 1 632 0
 1390 04b4 6389     		ldrh	r3, [r4, #10]
 1391 04b6 6068     		ldr	r0, [r4, #4]
 1392 04b8 0699     		ldr	r1, [sp, #24]
 1393 04ba 1844     		add	r0, r0, r3
 1394 04bc 2A46     		mov	r2, r5
 1395 04be FFF7FEFF 		bl	memcpy
 1396              	.LVL158:
 1397              		.loc 1 633 0
 1398 04c2 6389     		ldrh	r3, [r4, #10]
 1399              		.loc 1 629 0
 1400 04c4 2268     		ldr	r2, [r4]
 1401              	.LVL159:
 1402              		.loc 1 633 0
 1403 04c6 2B44     		add	r3, r3, r5
 1404 04c8 6381     		strh	r3, [r4, #10]	@ movhi
 1405              		.loc 1 629 0
 1406 04ca 002A     		cmp	r2, #0
 1407 04cc 7FF4D6AE 		bne	.L90
 1408              	.LVL160:
 1409              	.L88:
 1410              		.loc 1 636 0
 1411 04d0 099A     		ldr	r2, [sp, #36]
 1412 04d2 0A99     		ldr	r1, [sp, #40]
 1413 04d4 1389     		ldrh	r3, [r2, #8]
 1414 04d6 1944     		add	r1, r1, r3
 1415 04d8 1181     		strh	r1, [r2, #8]	@ movhi
 1416 04da 41E7     		b	.L87
 1417              	.LVL161:
 1418              	.L197:
 1419              	.LBE134:
 1420              		.loc 1 643 0
 1421 04dc BDF83630 		ldrh	r3, [sp, #54]
 1422 04e0 A7F86A30 		strh	r3, [r7, #106]	@ movhi
 1423 04e4 52E7     		b	.L93
ARM GAS  C:\Users\jo\AppData\Local\Temp\ccnOsBUt.s 			page 26


 1424              	.LVL162:
 1425              	.L199:
 1426              	.LBB135:
 1427              	.LBB106:
 1428              		.loc 1 476 0
 1429 04e6 089A     		ldr	r2, [sp, #32]
 1430 04e8 0192     		str	r2, [sp, #4]
 1431 04ea 0123     		movs	r3, #1
 1432 04ec 0293     		str	r3, [sp, #8]
 1433 04ee 0097     		str	r7, [sp]
 1434 04f0 2246     		mov	r2, r4
 1435 04f2 0320     		movs	r0, #3
 1436 04f4 2946     		mov	r1, r5
 1437 04f6 0DF13603 		add	r3, sp, #54
 1438 04fa FFF7FEFF 		bl	tcp_pbuf_prealloc
 1439              	.LVL163:
 1440 04fe 0B90     		str	r0, [sp, #44]
 1441 0500 0028     		cmp	r0, #0
 1442 0502 40D0     		beq	.L71
 1443              		.loc 1 485 0
 1444 0504 0A9A     		ldr	r2, [sp, #40]
 1445 0506 069B     		ldr	r3, [sp, #24]
 1446 0508 4068     		ldr	r0, [r0, #4]
 1447              	.LVL164:
 1448 050a 9918     		adds	r1, r3, r2
 1449 050c 2A46     		mov	r2, r5
 1450 050e FFF7FEFF 		bl	memcpy
 1451              	.LVL165:
 1452 0512 E3E6     		b	.L72
 1453              	.LVL166:
 1454              	.L201:
 1455              	.LBE106:
 1456              	.LBE135:
 1457              		.loc 1 683 0 discriminator 1
 1458 0514 FB6E     		ldr	r3, [r7, #108]
 1459 0516 002B     		cmp	r3, #0
 1460 0518 7FF44BAF 		bne	.L95
 1461              		.loc 1 683 0 is_stmt 0 discriminator 2
 1462 051c 324B     		ldr	r3, .L206
 1463 051e 0093     		str	r3, [sp]
 1464 0520 3249     		ldr	r1, .L206+4
 1465 0522 334A     		ldr	r2, .L206+8
 1466 0524 3348     		ldr	r0, .L206+12
 1467 0526 4FF42B73 		mov	r3, #684
 1468 052a FFF7FEFF 		bl	chprintf.constprop.2
 1469              	.LVL167:
 1470              	.LBB136:
 1471              	.LBB137:
 1472              		.loc 3 414 0 is_stmt 1 discriminator 2
 1473 052e 3048     		ldr	r0, .L206+8
 1474 0530 FFF7FEFF 		bl	chSysHalt
 1475              	.LVL168:
 1476 0534 3DE7     		b	.L95
 1477              	.LVL169:
 1478              	.L185:
 1479              	.LBE137:
 1480              	.LBE136:
ARM GAS  C:\Users\jo\AppData\Local\Temp\ccnOsBUt.s 			page 27


 1481              	.LBB138:
 1482              	.LBB99:
 1483              		.loc 1 323 0
 1484 0536 304A     		ldr	r2, .L206+16
 1485              	.LVL170:
 1486 0538 B2F89C30 		ldrh	r3, [r2, #156]
 1487 053c 0133     		adds	r3, r3, #1
 1488 053e A2F89C30 		strh	r3, [r2, #156]	@ movhi
 1489              	.L179:
 1490              		.loc 1 324 0
 1491 0542 BB7F     		ldrb	r3, [r7, #30]	@ zero_extendqisi2
 1492 0544 63F07F03 		orn	r3, r3, #127
 1493 0548 BB77     		strb	r3, [r7, #30]
 1494 054a 7CE7     		b	.L180
 1495              	.LVL171:
 1496              	.L202:
 1497              	.LBE99:
 1498              	.LBE138:
 1499              		.loc 1 689 0
 1500 054c 0820     		movs	r0, #8
 1501 054e A589     		ldrh	r5, [r4, #12]	@ unaligned
 1502 0550 FFF7FEFF 		bl	lwip_htons
 1503              	.LVL172:
 1504 0554 2843     		orrs	r0, r0, r5
 1505 0556 A081     		strh	r0, [r4, #12]	@ unaligned
 1506              		.loc 1 692 0
 1507 0558 4846     		mov	r0, r9
 1508 055a 6FE5     		b	.L52
 1509              	.LVL173:
 1510              	.L203:
 1511              		.loc 1 704 0 discriminator 2
 1512 055c 224B     		ldr	r3, .L206
 1513 055e 0093     		str	r3, [sp]
 1514 0560 2249     		ldr	r1, .L206+4
 1515 0562 234A     		ldr	r2, .L206+8
 1516 0564 2348     		ldr	r0, .L206+12
 1517 0566 40F2C123 		movw	r3, #705
 1518 056a FFF7FEFF 		bl	chprintf.constprop.2
 1519              	.LVL174:
 1520              	.LBB139:
 1521              	.LBB140:
 1522              		.loc 3 414 0 discriminator 2
 1523 056e 2048     		ldr	r0, .L206+8
 1524 0570 FFF7FEFF 		bl	chSysHalt
 1525              	.LVL175:
 1526              	.LBE140:
 1527              	.LBE139:
 1528              		.loc 1 708 0 discriminator 2
 1529 0574 FF20     		movs	r0, #255
 1530 0576 61E5     		b	.L52
 1531              	.LVL176:
 1532              	.L91:
 1533              		.loc 1 667 0
 1534 0578 099B     		ldr	r3, [sp, #36]
 1535 057a 002B     		cmp	r3, #0
 1536 057c 7FF406AF 		bne	.L93
 1537              	.L104:
ARM GAS  C:\Users\jo\AppData\Local\Temp\ccnOsBUt.s 			page 28


 1538              		.loc 1 668 0
 1539 0580 C7F86C80 		str	r8, [r7, #108]
 1540 0584 05E7     		b	.L94
 1541              	.LVL177:
 1542              	.L71:
 1543              		.loc 1 694 0
 1544 0586 BB7F     		ldrb	r3, [r7, #30]	@ zero_extendqisi2
 1545              		.loc 1 695 0
 1546 0588 1B4A     		ldr	r2, .L206+16
 1547              		.loc 1 694 0
 1548 058a 63F07F03 		orn	r3, r3, #127
 1549 058e BB77     		strb	r3, [r7, #30]
 1550              		.loc 1 695 0
 1551 0590 B2F89C30 		ldrh	r3, [r2, #156]
 1552 0594 0133     		adds	r3, r3, #1
 1553 0596 A2F89C30 		strh	r3, [r2, #156]	@ movhi
 1554 059a 4BE7     		b	.L97
 1555              	.LVL178:
 1556              	.L200:
 1557              		.loc 1 650 0 discriminator 1
 1558 059c 124B     		ldr	r3, .L206
 1559 059e 0093     		str	r3, [sp]
 1560 05a0 1249     		ldr	r1, .L206+4
 1561 05a2 164A     		ldr	r2, .L206+20
 1562 05a4 1348     		ldr	r0, .L206+12
 1563 05a6 40F28B23 		movw	r3, #651
 1564 05aa FFF7FEFF 		bl	chprintf.constprop.2
 1565              	.LVL179:
 1566              	.LBB141:
 1567              	.LBB142:
 1568              		.loc 3 414 0 discriminator 1
 1569 05ae 1348     		ldr	r0, .L206+20
 1570 05b0 FFF7FEFF 		bl	chSysHalt
 1571              	.LVL180:
 1572 05b4 E0E6     		b	.L92
 1573              	.LVL181:
 1574              	.L184:
 1575              	.LBE142:
 1576              	.LBE141:
 1577              		.loc 1 382 0 discriminator 1
 1578 05b6 0C4B     		ldr	r3, .L206
 1579 05b8 0093     		str	r3, [sp]
 1580 05ba 0C49     		ldr	r1, .L206+4
 1581              	.LVL182:
 1582 05bc 104A     		ldr	r2, .L206+24
 1583              	.LVL183:
 1584 05be 0D48     		ldr	r0, .L206+12
 1585 05c0 40F27F13 		movw	r3, #383
 1586 05c4 FFF7FEFF 		bl	chprintf.constprop.2
 1587              	.LVL184:
 1588              	.LBB143:
 1589              	.LBB144:
 1590              		.loc 3 414 0 discriminator 1
 1591 05c8 0D48     		ldr	r0, .L206+24
 1592 05ca FFF7FEFF 		bl	chSysHalt
 1593              	.LVL185:
 1594              	.LBE144:
ARM GAS  C:\Users\jo\AppData\Local\Temp\ccnOsBUt.s 			page 29


 1595              	.LBE143:
 1596              		.loc 1 382 0 discriminator 1
 1597 05ce F220     		movs	r0, #242
 1598 05d0 34E5     		b	.L52
 1599              	.LVL186:
 1600              	.L111:
 1601              	.LBB145:
 1602 05d2 DDF82490 		ldr	r9, [sp, #36]
 1603 05d6 73E5     		b	.L67
 1604              	.LVL187:
 1605              	.L101:
 1606              	.LBE145:
 1607              		.loc 1 643 0
 1608 05d8 BDF83630 		ldrh	r3, [sp, #54]
 1609 05dc A7F86A30 		strh	r3, [r7, #106]	@ movhi
 1610 05e0 D946     		mov	r9, fp
 1611 05e2 D846     		mov	r8, fp
 1612 05e4 CCE7     		b	.L104
 1613              	.L207:
 1614 05e6 00BF     		.align	2
 1615              	.L206:
 1616 05e8 58000000 		.word	.LC2
 1617 05ec 00000000 		.word	.LC0
 1618 05f0 2C020000 		.word	.LC13
 1619 05f4 00000000 		.word	itm_port
 1620 05f8 00000000 		.word	lwip_stats
 1621 05fc F4010000 		.word	.LC12
 1622 0600 9C000000 		.word	.LC4
 1623              		.cfi_endproc
 1624              	.LFE261:
 1625              		.size	tcp_write, .-tcp_write
 1626 0604 AFF30080 		.section	.text.tcp_enqueue_flags,"ax",%progbits
 1626      AFF30080 
 1626      AFF30080 
 1627              		.align	2
 1628              		.p2align 4,,15
 1629              		.global	tcp_enqueue_flags
 1630              		.thumb
 1631              		.thumb_func
 1632              		.type	tcp_enqueue_flags, %function
 1633              	tcp_enqueue_flags:
 1634              	.LFB262:
 1635              		.loc 1 723 0
 1636              		.cfi_startproc
 1637              		@ args = 0, pretend = 0, frame = 0
 1638              		@ frame_needed = 0, uses_anonymous_args = 0
 1639              	.LVL188:
 1640 0000 2DE9F043 		push	{r4, r5, r6, r7, r8, r9, lr}
 1641              		.cfi_def_cfa_offset 28
 1642              		.cfi_offset 4, -28
 1643              		.cfi_offset 5, -24
 1644              		.cfi_offset 6, -20
 1645              		.cfi_offset 7, -16
 1646              		.cfi_offset 8, -12
 1647              		.cfi_offset 9, -8
 1648              		.cfi_offset 14, -4
 1649              		.loc 1 731 0
ARM GAS  C:\Users\jo\AppData\Local\Temp\ccnOsBUt.s 			page 30


 1650 0004 11F00307 		ands	r7, r1, #3
 1651              		.loc 1 723 0
 1652 0008 83B0     		sub	sp, sp, #12
 1653              		.cfi_def_cfa_offset 40
 1654              		.loc 1 723 0
 1655 000a 0E46     		mov	r6, r1
 1656 000c 0446     		mov	r4, r0
 1657              		.loc 1 731 0
 1658 000e 63D0     		beq	.L243
 1659              	.LVL189:
 1660              	.L209:
 1661              		.loc 1 735 0
 1662 0010 B4F86830 		ldrh	r3, [r4, #104]
 1663 0014 072B     		cmp	r3, #7
 1664 0016 00F2B080 		bhi	.L244
 1665              		.loc 1 743 0
 1666 001a 06F00203 		and	r3, r6, #2
 1667              		.loc 1 757 0
 1668 001e B4F86620 		ldrh	r2, [r4, #102]
 1669              		.loc 1 726 0
 1670 0022 002B     		cmp	r3, #0
 1671              		.loc 1 743 0
 1672 0024 03F0FF01 		and	r1, r3, #255
 1673              		.loc 1 726 0
 1674 0028 0EBF     		itee	eq
 1675 002a 8946     		moveq	r9, r1
 1676 002c 4FF00109 		movne	r9, #1
 1677 0030 0421     		movne	r1, #4
 1678              	.LVL190:
 1679              		.loc 1 757 0
 1680 0032 002A     		cmp	r2, #0
 1681 0034 00F09980 		beq	.L245
 1682              		.loc 1 764 0
 1683 0038 0020     		movs	r0, #0
 1684 003a 8DB2     		uxth	r5, r1
 1685 003c 2946     		mov	r1, r5
 1686              	.LVL191:
 1687 003e 0246     		mov	r2, r0
 1688 0040 FFF7FEFF 		bl	pbuf_alloc
 1689              	.LVL192:
 1690 0044 8046     		mov	r8, r0
 1691 0046 0028     		cmp	r0, #0
 1692 0048 00F0A380 		beq	.L242
 1693              		.loc 1 769 0
 1694 004c 4389     		ldrh	r3, [r0, #10]
 1695 004e AB42     		cmp	r3, r5
 1696 0050 4FD3     		bcc	.L246
 1697              	.LVL193:
 1698              	.L215:
 1699              		.loc 1 773 0
 1700 0052 E36D     		ldr	r3, [r4, #92]
 1701 0054 0093     		str	r3, [sp]
 1702 0056 CDF80490 		str	r9, [sp, #4]
 1703 005a 4246     		mov	r2, r8
 1704 005c 04F11A00 		add	r0, r4, #26
 1705 0060 04F11C01 		add	r1, r4, #28
 1706 0064 3346     		mov	r3, r6
ARM GAS  C:\Users\jo\AppData\Local\Temp\ccnOsBUt.s 			page 31


 1707 0066 FFF7FEFF 		bl	tcp_create_segment.isra.0
 1708              	.LVL194:
 1709 006a 0546     		mov	r5, r0
 1710 006c 0028     		cmp	r0, #0
 1711 006e 00F09080 		beq	.L242
 1712              		.loc 1 778 0
 1713 0072 C368     		ldr	r3, [r0, #12]
 1714 0074 9A07     		lsls	r2, r3, #30
 1715 0076 5AD1     		bne	.L247
 1716              	.LVL195:
 1717              	.L217:
 1718              		.loc 1 779 0
 1719 0078 2B89     		ldrh	r3, [r5, #8]
 1720 007a 002B     		cmp	r3, #0
 1721 007c 46D1     		bne	.L248
 1722              		.loc 1 788 0
 1723 007e E26E     		ldr	r2, [r4, #108]
 1724 0080 0AB9     		cbnz	r2, .L221
 1725 0082 52E0     		b	.L249
 1726              	.LVL196:
 1727              	.L225:
 1728              	.LBB146:
 1729 0084 1A46     		mov	r2, r3
 1730              	.LVL197:
 1731              	.L221:
 1732              		.loc 1 792 0 discriminator 1
 1733 0086 1368     		ldr	r3, [r2]
 1734 0088 002B     		cmp	r3, #0
 1735 008a FBD1     		bne	.L225
 1736              		.loc 1 793 0
 1737 008c 1560     		str	r5, [r2]
 1738              	.LVL198:
 1739              	.L220:
 1740              	.LBE146:
 1741              		.loc 1 797 0
 1742 008e 0023     		movs	r3, #0
 1743 0090 A4F86A30 		strh	r3, [r4, #106]	@ movhi
 1744              		.loc 1 801 0
 1745 0094 3FB1     		cbz	r7, .L222
 1746              		.loc 1 802 0
 1747 0096 E26D     		ldr	r2, [r4, #92]
 1748              		.loc 1 804 0
 1749 0098 B4F86630 		ldrh	r3, [r4, #102]
 1750              		.loc 1 802 0
 1751 009c 0132     		adds	r2, r2, #1
 1752              		.loc 1 804 0
 1753 009e 013B     		subs	r3, r3, #1
 1754              		.loc 1 802 0
 1755 00a0 E265     		str	r2, [r4, #92]
 1756              		.loc 1 804 0
 1757 00a2 A4F86630 		strh	r3, [r4, #102]	@ movhi
 1758              	.L222:
 1759              		.loc 1 806 0
 1760 00a6 F307     		lsls	r3, r6, #31
 1761 00a8 11D4     		bmi	.L250
 1762              	.L223:
 1763              		.loc 1 811 0
ARM GAS  C:\Users\jo\AppData\Local\Temp\ccnOsBUt.s 			page 32


 1764 00aa 6868     		ldr	r0, [r5, #4]
 1765 00ac FFF7FEFF 		bl	pbuf_clen
 1766              	.LVL199:
 1767 00b0 B4F86830 		ldrh	r3, [r4, #104]
 1768 00b4 1844     		add	r0, r0, r3
 1769 00b6 80B2     		uxth	r0, r0
 1770 00b8 A4F86800 		strh	r0, [r4, #104]	@ movhi
 1771              		.loc 1 813 0
 1772 00bc 18B1     		cbz	r0, .L211
 1773              		.loc 1 814 0
 1774 00be 206F     		ldr	r0, [r4, #112]
 1775 00c0 0028     		cmp	r0, #0
 1776 00c2 41D0     		beq	.L251
 1777              		.loc 1 818 0
 1778 00c4 0020     		movs	r0, #0
 1779              	.LVL200:
 1780              	.L211:
 1781              		.loc 1 819 0
 1782 00c6 40B2     		sxtb	r0, r0
 1783 00c8 03B0     		add	sp, sp, #12
 1784              		.cfi_remember_state
 1785              		.cfi_def_cfa_offset 28
 1786              		@ sp needed
 1787 00ca BDE8F083 		pop	{r4, r5, r6, r7, r8, r9, pc}
 1788              	.LVL201:
 1789              	.L250:
 1790              		.cfi_restore_state
 1791              		.loc 1 807 0
 1792 00ce A37F     		ldrb	r3, [r4, #30]	@ zero_extendqisi2
 1793 00d0 43F02003 		orr	r3, r3, #32
 1794 00d4 A377     		strb	r3, [r4, #30]
 1795 00d6 E8E7     		b	.L223
 1796              	.LVL202:
 1797              	.L243:
 1798              		.loc 1 731 0 discriminator 1
 1799 00d8 344B     		ldr	r3, .L252
 1800 00da 0093     		str	r3, [sp]
 1801 00dc 3449     		ldr	r1, .L252+4
 1802              	.LVL203:
 1803 00de 354A     		ldr	r2, .L252+8
 1804 00e0 3548     		ldr	r0, .L252+12
 1805              	.LVL204:
 1806 00e2 4FF43773 		mov	r3, #732
 1807 00e6 FFF7FEFF 		bl	chprintf.constprop.2
 1808              	.LVL205:
 1809              	.LBB147:
 1810              	.LBB148:
 1811              		.loc 3 414 0 discriminator 1
 1812 00ea 3248     		ldr	r0, .L252+8
 1813 00ec FFF7FEFF 		bl	chSysHalt
 1814              	.LVL206:
 1815 00f0 8EE7     		b	.L209
 1816              	.LVL207:
 1817              	.L246:
 1818              	.LBE148:
 1819              	.LBE147:
 1820              		.loc 1 769 0 discriminator 1
ARM GAS  C:\Users\jo\AppData\Local\Temp\ccnOsBUt.s 			page 33


 1821 00f2 2E4B     		ldr	r3, .L252
 1822 00f4 0093     		str	r3, [sp]
 1823 00f6 2E49     		ldr	r1, .L252+4
 1824 00f8 304A     		ldr	r2, .L252+16
 1825 00fa 2F48     		ldr	r0, .L252+12
 1826              	.LVL208:
 1827 00fc 40F20233 		movw	r3, #770
 1828 0100 FFF7FEFF 		bl	chprintf.constprop.2
 1829              	.LVL209:
 1830              	.LBB149:
 1831              	.LBB150:
 1832              		.loc 3 414 0 discriminator 1
 1833 0104 2D48     		ldr	r0, .L252+16
 1834 0106 FFF7FEFF 		bl	chSysHalt
 1835              	.LVL210:
 1836 010a A2E7     		b	.L215
 1837              	.LVL211:
 1838              	.L248:
 1839              	.LBE150:
 1840              	.LBE149:
 1841              		.loc 1 779 0 discriminator 1
 1842 010c 274B     		ldr	r3, .L252
 1843 010e 2C4A     		ldr	r2, .L252+20
 1844 0110 0093     		str	r3, [sp]
 1845 0112 2749     		ldr	r1, .L252+4
 1846 0114 2848     		ldr	r0, .L252+12
 1847 0116 40F20B33 		movw	r3, #779
 1848 011a FFF7FEFF 		bl	chprintf.constprop.2
 1849              	.LVL212:
 1850              	.LBB151:
 1851              	.LBB152:
 1852              		.loc 3 414 0 discriminator 1
 1853 011e 2848     		ldr	r0, .L252+20
 1854 0120 FFF7FEFF 		bl	chSysHalt
 1855              	.LVL213:
 1856              	.LBE152:
 1857              	.LBE151:
 1858              		.loc 1 788 0 discriminator 1
 1859 0124 E26E     		ldr	r2, [r4, #108]
 1860 0126 002A     		cmp	r2, #0
 1861 0128 ADD1     		bne	.L221
 1862              	.LVL214:
 1863              	.L249:
 1864              		.loc 1 789 0
 1865 012a E566     		str	r5, [r4, #108]
 1866 012c AFE7     		b	.L220
 1867              	.LVL215:
 1868              	.L247:
 1869              		.loc 1 778 0 discriminator 1
 1870 012e 1F4B     		ldr	r3, .L252
 1871 0130 0093     		str	r3, [sp]
 1872 0132 1F49     		ldr	r1, .L252+4
 1873 0134 234A     		ldr	r2, .L252+24
 1874 0136 2048     		ldr	r0, .L252+12
 1875              	.LVL216:
 1876 0138 40F20A33 		movw	r3, #778
 1877 013c FFF7FEFF 		bl	chprintf.constprop.2
ARM GAS  C:\Users\jo\AppData\Local\Temp\ccnOsBUt.s 			page 34


 1878              	.LVL217:
 1879              	.LBB153:
 1880              	.LBB154:
 1881              		.loc 3 414 0 discriminator 1
 1882 0140 2048     		ldr	r0, .L252+24
 1883 0142 FFF7FEFF 		bl	chSysHalt
 1884              	.LVL218:
 1885 0146 97E7     		b	.L217
 1886              	.LVL219:
 1887              	.L251:
 1888              	.LBE154:
 1889              	.LBE153:
 1890              		.loc 1 814 0 discriminator 1
 1891 0148 E46E     		ldr	r4, [r4, #108]
 1892              	.LVL220:
 1893 014a 002C     		cmp	r4, #0
 1894 014c BBD1     		bne	.L211
 1895              		.loc 1 814 0 is_stmt 0 discriminator 2
 1896 014e 174B     		ldr	r3, .L252
 1897 0150 0093     		str	r3, [sp]
 1898 0152 1749     		ldr	r1, .L252+4
 1899 0154 1C4A     		ldr	r2, .L252+28
 1900 0156 1848     		ldr	r0, .L252+12
 1901 0158 40F22F33 		movw	r3, #815
 1902 015c FFF7FEFF 		bl	chprintf.constprop.2
 1903              	.LVL221:
 1904              	.LBB155:
 1905              	.LBB156:
 1906              		.loc 3 414 0 is_stmt 1 discriminator 2
 1907 0160 1948     		ldr	r0, .L252+28
 1908 0162 FFF7FEFF 		bl	chSysHalt
 1909              	.LVL222:
 1910              	.LBE156:
 1911              	.LBE155:
 1912              		.loc 1 818 0 discriminator 2
 1913 0166 2046     		mov	r0, r4
 1914 0168 ADE7     		b	.L211
 1915              	.LVL223:
 1916              	.L245:
 1917              		.loc 1 759 0
 1918 016a 184A     		ldr	r2, .L252+32
 1919 016c B2F89C30 		ldrh	r3, [r2, #156]
 1920 0170 0133     		adds	r3, r3, #1
 1921 0172 A2F89C30 		strh	r3, [r2, #156]	@ movhi
 1922              		.loc 1 760 0
 1923 0176 FF20     		movs	r0, #255
 1924 0178 A5E7     		b	.L211
 1925              	.LVL224:
 1926              	.L244:
 1927              		.loc 1 738 0
 1928 017a 144A     		ldr	r2, .L252+32
 1929 017c B2F89C30 		ldrh	r3, [r2, #156]
 1930 0180 0133     		adds	r3, r3, #1
 1931 0182 A2F89C30 		strh	r3, [r2, #156]	@ movhi
 1932              		.loc 1 739 0
 1933 0186 A37F     		ldrb	r3, [r4, #30]	@ zero_extendqisi2
 1934 0188 63F07F03 		orn	r3, r3, #127
ARM GAS  C:\Users\jo\AppData\Local\Temp\ccnOsBUt.s 			page 35


 1935 018c A377     		strb	r3, [r4, #30]
 1936              		.loc 1 740 0
 1937 018e FF20     		movs	r0, #255
 1938 0190 99E7     		b	.L211
 1939              	.LVL225:
 1940              	.L242:
 1941              		.loc 1 774 0
 1942 0192 A37F     		ldrb	r3, [r4, #30]	@ zero_extendqisi2
 1943              		.loc 1 775 0
 1944 0194 0D4A     		ldr	r2, .L252+32
 1945              		.loc 1 774 0
 1946 0196 63F07F03 		orn	r3, r3, #127
 1947 019a A377     		strb	r3, [r4, #30]
 1948              		.loc 1 775 0
 1949 019c B2F89C30 		ldrh	r3, [r2, #156]
 1950 01a0 0133     		adds	r3, r3, #1
 1951 01a2 A2F89C30 		strh	r3, [r2, #156]	@ movhi
 1952              		.loc 1 776 0
 1953 01a6 FF20     		movs	r0, #255
 1954 01a8 8DE7     		b	.L211
 1955              	.L253:
 1956 01aa 00BF     		.align	2
 1957              	.L252:
 1958 01ac 58000000 		.word	.LC2
 1959 01b0 00000000 		.word	.LC0
 1960 01b4 4C020000 		.word	.LC14
 1961 01b8 00000000 		.word	itm_port
 1962 01bc A4020000 		.word	.LC15
 1963 01c0 F8020000 		.word	.LC17
 1964 01c4 E0020000 		.word	.LC16
 1965 01c8 24030000 		.word	.LC18
 1966 01cc 00000000 		.word	lwip_stats
 1967              		.cfi_endproc
 1968              	.LFE262:
 1969              		.size	tcp_enqueue_flags, .-tcp_enqueue_flags
 1970              		.section	.text.tcp_send_fin,"ax",%progbits
 1971              		.align	2
 1972              		.p2align 4,,15
 1973              		.global	tcp_send_fin
 1974              		.thumb
 1975              		.thumb_func
 1976              		.type	tcp_send_fin, %function
 1977              	tcp_send_fin:
 1978              	.LFB257:
 1979              		.loc 1 126 0
 1980              		.cfi_startproc
 1981              		@ args = 0, pretend = 0, frame = 0
 1982              		@ frame_needed = 0, uses_anonymous_args = 0
 1983              	.LVL226:
 1984 0000 F8B5     		push	{r3, r4, r5, r6, r7, lr}
 1985              		.cfi_def_cfa_offset 24
 1986              		.cfi_offset 3, -24
 1987              		.cfi_offset 4, -20
 1988              		.cfi_offset 5, -16
 1989              		.cfi_offset 6, -12
 1990              		.cfi_offset 7, -8
 1991              		.cfi_offset 14, -4
ARM GAS  C:\Users\jo\AppData\Local\Temp\ccnOsBUt.s 			page 36


 1992              		.loc 1 128 0
 1993 0002 C46E     		ldr	r4, [r0, #108]
 1994              		.loc 1 126 0
 1995 0004 0546     		mov	r5, r0
 1996              		.loc 1 128 0
 1997 0006 0CB9     		cbnz	r4, .L256
 1998 0008 0AE0     		b	.L255
 1999              	.LVL227:
 2000              	.L258:
 2001              	.LBB157:
 2002 000a 1C46     		mov	r4, r3
 2003              	.LVL228:
 2004              	.L256:
 2005              		.loc 1 130 0 discriminator 1
 2006 000c 2368     		ldr	r3, [r4]
 2007 000e 002B     		cmp	r3, #0
 2008 0010 FBD1     		bne	.L258
 2009              		.loc 1 133 0
 2010 0012 E368     		ldr	r3, [r4, #12]
 2011 0014 9889     		ldrh	r0, [r3, #12]	@ unaligned
 2012              	.LVL229:
 2013 0016 FFF7FEFF 		bl	lwip_ntohs
 2014              	.LVL230:
 2015 001a 10F00706 		ands	r6, r0, #7
 2016 001e 05D0     		beq	.L263
 2017              	.LVL231:
 2018              	.L255:
 2019              	.LBE157:
 2020              		.loc 1 141 0
 2021 0020 2846     		mov	r0, r5
 2022 0022 0121     		movs	r1, #1
 2023              		.loc 1 142 0
 2024 0024 BDE8F840 		pop	{r3, r4, r5, r6, r7, lr}
 2025              		.cfi_remember_state
 2026              		.cfi_restore 14
 2027              		.cfi_restore 7
 2028              		.cfi_restore 6
 2029              		.cfi_restore 5
 2030              		.cfi_restore 4
 2031              		.cfi_restore 3
 2032              		.cfi_def_cfa_offset 0
 2033              	.LVL232:
 2034              		.loc 1 141 0
 2035 0028 FFF7FEBF 		b	tcp_enqueue_flags
 2036              	.LVL233:
 2037              	.L263:
 2038              		.cfi_restore_state
 2039              	.LBB158:
 2040              		.loc 1 135 0
 2041 002c E768     		ldr	r7, [r4, #12]
 2042 002e 0120     		movs	r0, #1
 2043 0030 BC89     		ldrh	r4, [r7, #12]	@ unaligned
 2044              	.LVL234:
 2045 0032 FFF7FEFF 		bl	lwip_htons
 2046              	.LVL235:
 2047 0036 2043     		orrs	r0, r0, r4
 2048 0038 B881     		strh	r0, [r7, #12]	@ unaligned
ARM GAS  C:\Users\jo\AppData\Local\Temp\ccnOsBUt.s 			page 37


 2049              		.loc 1 136 0
 2050 003a AB7F     		ldrb	r3, [r5, #30]	@ zero_extendqisi2
 2051 003c 43F02003 		orr	r3, r3, #32
 2052 0040 AB77     		strb	r3, [r5, #30]
 2053              	.LBE158:
 2054              		.loc 1 142 0
 2055 0042 3046     		mov	r0, r6
 2056 0044 F8BD     		pop	{r3, r4, r5, r6, r7, pc}
 2057              		.cfi_endproc
 2058              	.LFE257:
 2059              		.size	tcp_send_fin, .-tcp_send_fin
 2060 0046 00BFAFF3 		.section	.text.tcp_send_empty_ack,"ax",%progbits
 2060      0080AFF3 
 2060      0080
 2061              		.align	2
 2062              		.p2align 4,,15
 2063              		.global	tcp_send_empty_ack
 2064              		.thumb
 2065              		.thumb_func
 2066              		.type	tcp_send_empty_ack, %function
 2067              	tcp_send_empty_ack:
 2068              	.LFB263:
 2069              		.loc 1 843 0
 2070              		.cfi_startproc
 2071              		@ args = 0, pretend = 0, frame = 0
 2072              		@ frame_needed = 0, uses_anonymous_args = 0
 2073              	.LVL236:
 2074 0000 F0B5     		push	{r4, r5, r6, r7, lr}
 2075              		.cfi_def_cfa_offset 20
 2076              		.cfi_offset 4, -20
 2077              		.cfi_offset 5, -16
 2078              		.cfi_offset 6, -12
 2079              		.cfi_offset 7, -8
 2080              		.cfi_offset 14, -4
 2081 0002 0446     		mov	r4, r0
 2082 0004 83B0     		sub	sp, sp, #12
 2083              		.cfi_def_cfa_offset 32
 2084              		.loc 1 854 0
 2085 0006 006D     		ldr	r0, [r0, #80]
 2086              	.LVL237:
 2087 0008 FFF7FEFF 		bl	lwip_htonl
 2088              	.LVL238:
 2089 000c 0021     		movs	r1, #0
 2090 000e 0246     		mov	r2, r0
 2091 0010 2046     		mov	r0, r4
 2092 0012 FFF7FEFF 		bl	tcp_output_alloc_header.constprop.1
 2093              	.LVL239:
 2094              		.loc 1 855 0
 2095 0016 F8B1     		cbz	r0, .L267
 2096              		.loc 1 863 0
 2097 0018 A37F     		ldrb	r3, [r4, #30]	@ zero_extendqisi2
 2098              		.loc 1 859 0
 2099 001a 4768     		ldr	r7, [r0, #4]
 2100              	.LVL240:
 2101              		.loc 1 863 0
 2102 001c 23F00303 		bic	r3, r3, #3
 2103 0020 A377     		strb	r3, [r4, #30]
ARM GAS  C:\Users\jo\AppData\Local\Temp\ccnOsBUt.s 			page 38


 2104              		.loc 1 875 0
 2105 0022 0389     		ldrh	r3, [r0, #8]
 2106 0024 0093     		str	r3, [sp]
 2107 0026 261D     		adds	r6, r4, #4
 2108 0028 3246     		mov	r2, r6
 2109 002a 2146     		mov	r1, r4
 2110 002c 0623     		movs	r3, #6
 2111 002e 0546     		mov	r5, r0
 2112 0030 FFF7FEFF 		bl	inet_chksum_pseudo
 2113              	.LVL241:
 2114 0034 3882     		strh	r0, [r7, #16]	@ unaligned
 2115              		.loc 1 882 0
 2116 0036 627A     		ldrb	r2, [r4, #9]	@ zero_extendqisi2
 2117 0038 A37A     		ldrb	r3, [r4, #10]	@ zero_extendqisi2
 2118 003a 0092     		str	r2, [sp]
 2119 003c 0620     		movs	r0, #6
 2120 003e 3246     		mov	r2, r6
 2121 0040 2146     		mov	r1, r4
 2122 0042 0190     		str	r0, [sp, #4]
 2123 0044 2846     		mov	r0, r5
 2124 0046 FFF7FEFF 		bl	ip_output
 2125              	.LVL242:
 2126              		.loc 1 885 0
 2127 004a 2846     		mov	r0, r5
 2128 004c FFF7FEFF 		bl	pbuf_free
 2129              	.LVL243:
 2130              		.loc 1 887 0
 2131 0050 0020     		movs	r0, #0
 2132              	.LVL244:
 2133              	.L266:
 2134              		.loc 1 888 0
 2135 0052 40B2     		sxtb	r0, r0
 2136 0054 03B0     		add	sp, sp, #12
 2137              		.cfi_remember_state
 2138              		.cfi_def_cfa_offset 20
 2139              		@ sp needed
 2140 0056 F0BD     		pop	{r4, r5, r6, r7, pc}
 2141              	.LVL245:
 2142              	.L267:
 2143              		.cfi_restore_state
 2144              		.loc 1 857 0
 2145 0058 FE20     		movs	r0, #254
 2146              	.LVL246:
 2147 005a FAE7     		b	.L266
 2148              		.cfi_endproc
 2149              	.LFE263:
 2150              		.size	tcp_send_empty_ack, .-tcp_send_empty_ack
 2151 005c AFF30080 		.section	.text.tcp_output,"ax",%progbits
 2152              		.align	2
 2153              		.p2align 4,,15
 2154              		.global	tcp_output
 2155              		.thumb
 2156              		.thumb_func
 2157              		.type	tcp_output, %function
 2158              	tcp_output:
 2159              	.LFB264:
 2160              		.loc 1 899 0
ARM GAS  C:\Users\jo\AppData\Local\Temp\ccnOsBUt.s 			page 39


 2161              		.cfi_startproc
 2162              		@ args = 0, pretend = 0, frame = 0
 2163              		@ frame_needed = 0, uses_anonymous_args = 0
 2164              	.LVL247:
 2165 0000 2DE9F047 		push	{r4, r5, r6, r7, r8, r9, r10, lr}
 2166              		.cfi_def_cfa_offset 32
 2167              		.cfi_offset 4, -32
 2168              		.cfi_offset 5, -28
 2169              		.cfi_offset 6, -24
 2170              		.cfi_offset 7, -20
 2171              		.cfi_offset 8, -16
 2172              		.cfi_offset 9, -12
 2173              		.cfi_offset 10, -8
 2174              		.cfi_offset 14, -4
 2175              		.loc 1 907 0
 2176 0004 037E     		ldrb	r3, [r0, #24]	@ zero_extendqisi2
 2177 0006 012B     		cmp	r3, #1
 2178              		.loc 1 899 0
 2179 0008 82B0     		sub	sp, sp, #8
 2180              		.cfi_def_cfa_offset 40
 2181              		.loc 1 899 0
 2182 000a 0446     		mov	r4, r0
 2183              		.loc 1 907 0
 2184 000c 00F08081 		beq	.L338
 2185              	.LVL248:
 2186              	.L270:
 2187              		.loc 1 914 0
 2188 0010 B54B     		ldr	r3, .L346
 2189 0012 1B68     		ldr	r3, [r3]
 2190 0014 A342     		cmp	r3, r4
 2191 0016 00F02381 		beq	.L323
 2192              		.loc 1 918 0
 2193 001a B4F86080 		ldrh	r8, [r4, #96]
 2194 001e B4F84C20 		ldrh	r2, [r4, #76]
 2195              		.loc 1 928 0
 2196 0022 A37F     		ldrb	r3, [r4, #30]	@ zero_extendqisi2
 2197              		.loc 1 920 0
 2198 0024 E56E     		ldr	r5, [r4, #108]
 2199              		.loc 1 918 0
 2200 0026 9045     		cmp	r8, r2
 2201 0028 28BF     		it	cs
 2202 002a 9046     		movcs	r8, r2
 2203              	.LVL249:
 2204              		.loc 1 928 0
 2205 002c 9907     		lsls	r1, r3, #30
 2206 002e 40F1E780 		bpl	.L272
 2207              		.loc 1 928 0 is_stmt 0 discriminator 1
 2208 0032 002D     		cmp	r5, #0
 2209 0034 00F06681 		beq	.L274
 2210              		.loc 1 930 0 is_stmt 1
 2211 0038 EB68     		ldr	r3, [r5, #12]
 2212 003a 5868     		ldr	r0, [r3, #4]	@ unaligned
 2213 003c FFF7FEFF 		bl	lwip_ntohl
 2214              	.LVL250:
 2215 0040 2B89     		ldrh	r3, [r5, #8]
 2216 0042 A26C     		ldr	r2, [r4, #72]
 2217 0044 9B1A     		subs	r3, r3, r2
ARM GAS  C:\Users\jo\AppData\Local\Temp\ccnOsBUt.s 			page 40


 2218 0046 1844     		add	r0, r0, r3
 2219              		.loc 1 929 0
 2220 0048 8045     		cmp	r8, r0
 2221 004a C0F05B81 		bcc	.L274
 2222              		.loc 1 935 0
 2223 004e 276F     		ldr	r7, [r4, #112]
 2224              	.LVL251:
 2225              		.loc 1 936 0
 2226 0050 37B1     		cbz	r7, .L277
 2227              		.loc 1 937 0
 2228 0052 3B68     		ldr	r3, [r7]
 2229 0054 002B     		cmp	r3, #0
 2230 0056 40F0D680 		bne	.L308
 2231              	.L280:
 2232              		.loc 1 962 0
 2233 005a 002D     		cmp	r5, #0
 2234 005c 00F04081 		beq	.L335
 2235              	.L277:
 2236              		.loc 1 964 0 discriminator 1
 2237 0060 DFF89C92 		ldr	r9, .L346+24
 2238 0064 ADE0     		b	.L300
 2239              	.L281:
 2240              		.loc 1 973 0
 2241 0066 236F     		ldr	r3, [r4, #112]
 2242 0068 5BB1     		cbz	r3, .L282
 2243              		.loc 1 973 0 is_stmt 0 discriminator 2
 2244 006a A37F     		ldrb	r3, [r4, #30]	@ zero_extendqisi2
 2245 006c 13F0440F 		tst	r3, #68
 2246 0070 07D1     		bne	.L282
 2247              		.loc 1 973 0 discriminator 4
 2248 0072 E26E     		ldr	r2, [r4, #108]
 2249 0074 002A     		cmp	r2, #0
 2250 0076 00F01C81 		beq	.L283
 2251              		.loc 1 973 0 discriminator 5
 2252 007a 1168     		ldr	r1, [r2]
 2253 007c 0029     		cmp	r1, #0
 2254 007e 00F01381 		beq	.L339
 2255              	.L282:
 2256              		.loc 1 988 0 is_stmt 1
 2257 0082 237E     		ldrb	r3, [r4, #24]	@ zero_extendqisi2
 2258              		.loc 1 986 0
 2259 0084 2A68     		ldr	r2, [r5]
 2260 0086 E266     		str	r2, [r4, #108]
 2261              		.loc 1 988 0
 2262 0088 022B     		cmp	r3, #2
 2263 008a 0DD0     		beq	.L285
 2264              		.loc 1 989 0
 2265 008c D5F80CA0 		ldr	r10, [r5, #12]
 2266 0090 1020     		movs	r0, #16
 2267 0092 BAF80C60 		ldrh	r6, [r10, #12]	@ unaligned
 2268 0096 FFF7FEFF 		bl	lwip_htons
 2269              	.LVL252:
 2270 009a 3043     		orrs	r0, r0, r6
 2271 009c AAF80C00 		strh	r0, [r10, #12]	@ unaligned
 2272              		.loc 1 990 0
 2273 00a0 A37F     		ldrb	r3, [r4, #30]	@ zero_extendqisi2
 2274 00a2 23F00303 		bic	r3, r3, #3
ARM GAS  C:\Users\jo\AppData\Local\Temp\ccnOsBUt.s 			page 41


 2275 00a6 A377     		strb	r3, [r4, #30]
 2276              	.L285:
 2277              	.LVL253:
 2278              	.LBB167:
 2279              	.LBB168:
 2280              		.loc 1 1060 0
 2281 00a8 A06A     		ldr	r0, [r4, #40]
 2282 00aa EE68     		ldr	r6, [r5, #12]
 2283 00ac FFF7FEFF 		bl	lwip_htonl
 2284              	.LVL254:
 2285 00b0 B060     		str	r0, [r6, #8]	@ unaligned
 2286              		.loc 1 1063 0
 2287 00b2 E08D     		ldrh	r0, [r4, #46]
 2288 00b4 EE68     		ldr	r6, [r5, #12]
 2289 00b6 FFF7FEFF 		bl	lwip_htons
 2290              	.LVL255:
 2291              		.loc 1 1065 0
 2292 00ba E28D     		ldrh	r2, [r4, #46]
 2293 00bc A36A     		ldr	r3, [r4, #40]
 2294              		.loc 1 1063 0
 2295 00be F081     		strh	r0, [r6, #14]	@ unaligned
 2296              		.loc 1 1065 0
 2297 00c0 1344     		add	r3, r3, r2
 2298 00c2 2363     		str	r3, [r4, #48]
 2299              		.loc 1 1070 0
 2300 00c4 AB7A     		ldrb	r3, [r5, #10]	@ zero_extendqisi2
 2301              		.loc 1 1069 0
 2302 00c6 D5F80CA0 		ldr	r10, [r5, #12]
 2303              	.LVL256:
 2304              		.loc 1 1070 0
 2305 00ca DB07     		lsls	r3, r3, #31
 2306              	.LBB169:
 2307              		.loc 1 1073 0
 2308 00cc 04F10406 		add	r6, r4, #4
 2309              	.LBE169:
 2310              		.loc 1 1070 0
 2311 00d0 00F19E80 		bmi	.L340
 2312              		.loc 1 1091 0
 2313 00d4 B4F93430 		ldrsh	r3, [r4, #52]
 2314 00d8 0133     		adds	r3, r3, #1
 2315 00da 00F0A980 		beq	.L341
 2316              	.LVL257:
 2317              	.L304:
 2318              		.loc 1 1097 0
 2319 00de 2368     		ldr	r3, [r4]
 2320 00e0 33B9     		cbnz	r3, .L288
 2321              		.loc 1 1098 0
 2322 00e2 3046     		mov	r0, r6
 2323 00e4 FFF7FEFF 		bl	ip_route
 2324              	.LVL258:
 2325              		.loc 1 1099 0
 2326 00e8 0028     		cmp	r0, #0
 2327 00ea 32D0     		beq	.L289
 2328              		.loc 1 1102 0
 2329 00ec 4368     		ldr	r3, [r0, #4]
 2330 00ee 2360     		str	r3, [r4]
 2331              	.LVL259:
ARM GAS  C:\Users\jo\AppData\Local\Temp\ccnOsBUt.s 			page 42


 2332              	.L288:
 2333              		.loc 1 1105 0
 2334 00f0 A36B     		ldr	r3, [r4, #56]
 2335 00f2 002B     		cmp	r3, #0
 2336 00f4 00F09F80 		beq	.L342
 2337              	.L290:
 2338              		.loc 1 1115 0
 2339 00f8 6868     		ldr	r0, [r5, #4]
 2340 00fa D5F80CA0 		ldr	r10, [r5, #12]
 2341 00fe 4268     		ldr	r2, [r0, #4]
 2342              		.loc 1 1118 0
 2343 0100 0389     		ldrh	r3, [r0, #8]
 2344              		.loc 1 1117 0
 2345 0102 4189     		ldrh	r1, [r0, #10]
 2346              		.loc 1 1120 0
 2347 0104 C0F804A0 		str	r10, [r0, #4]
 2348              		.loc 1 1115 0
 2349 0108 C2EB0A02 		rsb	r2, r2, r10
 2350 010c 92B2     		uxth	r2, r2
 2351              	.LVL260:
 2352              		.loc 1 1118 0
 2353 010e 9B1A     		subs	r3, r3, r2
 2354 0110 9BB2     		uxth	r3, r3
 2355              		.loc 1 1117 0
 2356 0112 8A1A     		subs	r2, r1, r2
 2357              	.LVL261:
 2358              		.loc 1 1122 0
 2359 0114 0021     		movs	r1, #0
 2360              		.loc 1 1117 0
 2361 0116 4281     		strh	r2, [r0, #10]	@ movhi
 2362              		.loc 1 1118 0
 2363 0118 0381     		strh	r3, [r0, #8]	@ movhi
 2364              		.loc 1 1158 0
 2365 011a 3246     		mov	r2, r6
 2366              		.loc 1 1122 0
 2367 011c 8AF81010 		strb	r1, [r10, #16]
 2368 0120 8AF81110 		strb	r1, [r10, #17]
 2369              		.loc 1 1158 0
 2370 0124 2146     		mov	r1, r4
 2371 0126 0093     		str	r3, [sp]
 2372 0128 0623     		movs	r3, #6
 2373 012a FFF7FEFF 		bl	inet_chksum_pseudo
 2374              	.LVL262:
 2375              		.loc 1 1163 0
 2376 012e 6F4A     		ldr	r2, .L346+4
 2377              		.loc 1 1158 0
 2378 0130 AAF81000 		strh	r0, [r10, #16]	@ unaligned
 2379              		.loc 1 1163 0
 2380 0134 B2F89030 		ldrh	r3, [r2, #144]
 2381              		.loc 1 1169 0
 2382 0138 6868     		ldr	r0, [r5, #4]
 2383              		.loc 1 1163 0
 2384 013a 0133     		adds	r3, r3, #1
 2385 013c A2F89030 		strh	r3, [r2, #144]	@ movhi
 2386              		.loc 1 1169 0
 2387 0140 627A     		ldrb	r2, [r4, #9]	@ zero_extendqisi2
 2388 0142 A37A     		ldrb	r3, [r4, #10]	@ zero_extendqisi2
ARM GAS  C:\Users\jo\AppData\Local\Temp\ccnOsBUt.s 			page 43


 2389 0144 0092     		str	r2, [sp]
 2390 0146 0621     		movs	r1, #6
 2391 0148 0191     		str	r1, [sp, #4]
 2392 014a 3246     		mov	r2, r6
 2393 014c 2146     		mov	r1, r4
 2394 014e FFF7FEFF 		bl	ip_output
 2395              	.LVL263:
 2396              	.L289:
 2397              	.LBE168:
 2398              	.LBE167:
 2399              		.loc 1 994 0
 2400 0152 EB68     		ldr	r3, [r5, #12]
 2401 0154 5868     		ldr	r0, [r3, #4]	@ unaligned
 2402 0156 FFF7FEFF 		bl	lwip_ntohl
 2403              	.LVL264:
 2404 015a EB68     		ldr	r3, [r5, #12]
 2405 015c B5F808A0 		ldrh	r10, [r5, #8]
 2406 0160 0646     		mov	r6, r0
 2407 0162 9889     		ldrh	r0, [r3, #12]	@ unaligned
 2408 0164 FFF7FEFF 		bl	lwip_ntohs
 2409              	.LVL265:
 2410 0168 10F00300 		ands	r0, r0, #3
 2411 016c 18BF     		it	ne
 2412 016e 0120     		movne	r0, #1
 2413              		.loc 1 995 0
 2414 0170 236D     		ldr	r3, [r4, #80]
 2415              		.loc 1 994 0
 2416 0172 5044     		add	r0, r0, r10
 2417 0174 3044     		add	r0, r0, r6
 2418              	.LVL266:
 2419              		.loc 1 995 0
 2420 0176 1B1A     		subs	r3, r3, r0
 2421 0178 002B     		cmp	r3, #0
 2422              		.loc 1 999 0
 2423 017a EB68     		ldr	r3, [r5, #12]
 2424              		.loc 1 996 0
 2425 017c B8BF     		it	lt
 2426 017e 2065     		strlt	r0, [r4, #80]
 2427              		.loc 1 999 0
 2428 0180 9889     		ldrh	r0, [r3, #12]	@ unaligned
 2429              	.LVL267:
 2430 0182 2E89     		ldrh	r6, [r5, #8]
 2431 0184 FFF7FEFF 		bl	lwip_ntohs
 2432              	.LVL268:
 2433 0188 10F00300 		ands	r0, r0, #3
 2434 018c 18BF     		it	ne
 2435 018e 0120     		movne	r0, #1
 2436 0190 C642     		cmn	r6, r0
 2437 0192 00F08580 		beq	.L292
 2438              		.loc 1 1002 0
 2439 0196 236F     		ldr	r3, [r4, #112]
 2440              		.loc 1 1000 0
 2441 0198 0022     		movs	r2, #0
 2442 019a 2A60     		str	r2, [r5]
 2443              		.loc 1 1002 0
 2444 019c 002B     		cmp	r3, #0
 2445 019e 53D0     		beq	.L343
ARM GAS  C:\Users\jo\AppData\Local\Temp\ccnOsBUt.s 			page 44


 2446              		.loc 1 1010 0
 2447 01a0 EB68     		ldr	r3, [r5, #12]
 2448 01a2 5868     		ldr	r0, [r3, #4]	@ unaligned
 2449 01a4 FFF7FEFF 		bl	lwip_ntohl
 2450              	.LVL269:
 2451 01a8 FB68     		ldr	r3, [r7, #12]
 2452 01aa 0646     		mov	r6, r0
 2453 01ac 5868     		ldr	r0, [r3, #4]	@ unaligned
 2454 01ae FFF7FEFF 		bl	lwip_ntohl
 2455              	.LVL270:
 2456 01b2 301A     		subs	r0, r6, r0
 2457 01b4 0028     		cmp	r0, #0
 2458 01b6 57DB     		blt	.L344
 2459              		.loc 1 1021 0
 2460 01b8 3D60     		str	r5, [r7]
 2461              	.LVL271:
 2462 01ba 2F46     		mov	r7, r5
 2463              	.LVL272:
 2464              	.L294:
 2465              		.loc 1 1029 0
 2466 01bc E56E     		ldr	r5, [r4, #108]
 2467              	.LVL273:
 2468              		.loc 1 962 0
 2469 01be 002D     		cmp	r5, #0
 2470 01c0 47D0     		beq	.L345
 2471              	.LVL274:
 2472              	.L300:
 2473              		.loc 1 963 0 discriminator 1
 2474 01c2 EB68     		ldr	r3, [r5, #12]
 2475 01c4 5868     		ldr	r0, [r3, #4]	@ unaligned
 2476 01c6 FFF7FEFF 		bl	lwip_ntohl
 2477              	.LVL275:
 2478 01ca 2B89     		ldrh	r3, [r5, #8]
 2479 01cc A26C     		ldr	r2, [r4, #72]
 2480 01ce 9B1A     		subs	r3, r3, r2
 2481 01d0 1844     		add	r0, r0, r3
 2482              		.loc 1 962 0 discriminator 1
 2483 01d2 8045     		cmp	r8, r0
 2484 01d4 C0F08480 		bcc	.L335
 2485              		.loc 1 964 0
 2486 01d8 EB68     		ldr	r3, [r5, #12]
 2487 01da 9889     		ldrh	r0, [r3, #12]	@ unaligned
 2488 01dc FFF7FEFF 		bl	lwip_ntohs
 2489              	.LVL276:
 2490 01e0 4207     		lsls	r2, r0, #29
 2491 01e2 7FF540AF 		bpl	.L281
 2492              		.loc 1 964 0 is_stmt 0 discriminator 1
 2493 01e6 CDF80090 		str	r9, [sp]
 2494 01ea 4149     		ldr	r1, .L346+8
 2495 01ec 414A     		ldr	r2, .L346+12
 2496 01ee 4248     		ldr	r0, .L346+16
 2497 01f0 40F2C533 		movw	r3, #965
 2498 01f4 FFF7FEFF 		bl	chprintf.constprop.2
 2499              	.LVL277:
 2500              	.LBB173:
 2501              	.LBB174:
 2502              		.loc 3 414 0 is_stmt 1 discriminator 1
ARM GAS  C:\Users\jo\AppData\Local\Temp\ccnOsBUt.s 			page 45


 2503 01f8 3E48     		ldr	r0, .L346+12
 2504 01fa FFF7FEFF 		bl	chSysHalt
 2505              	.LVL278:
 2506 01fe 32E7     		b	.L281
 2507              	.LVL279:
 2508              	.L272:
 2509              	.LBE174:
 2510              	.LBE173:
 2511              		.loc 1 935 0
 2512 0200 276F     		ldr	r7, [r4, #112]
 2513              	.LVL280:
 2514              		.loc 1 936 0
 2515 0202 0FB9     		cbnz	r7, .L279
 2516 0204 29E7     		b	.L280
 2517              	.L308:
 2518 0206 1F46     		mov	r7, r3
 2519              	.LVL281:
 2520              	.L279:
 2521              		.loc 1 937 0 discriminator 1
 2522 0208 3B68     		ldr	r3, [r7]
 2523 020a 002B     		cmp	r3, #0
 2524 020c FBD1     		bne	.L308
 2525 020e 24E7     		b	.L280
 2526              	.LVL282:
 2527              	.L340:
 2528              	.LBB175:
 2529              	.LBB172:
 2530              	.LBB170:
 2531              		.loc 1 1073 0
 2532 0210 3146     		mov	r1, r6
 2533 0212 40F2B450 		movw	r0, #1460
 2534 0216 FFF7FEFF 		bl	tcp_eff_send_mss
 2535              	.LVL283:
 2536              		.loc 1 1077 0
 2537 021a 40F00170 		orr	r0, r0, #33816576
 2538              	.LVL284:
 2539 021e FFF7FEFF 		bl	lwip_htonl
 2540              	.LVL285:
 2541              	.LBE170:
 2542              		.loc 1 1091 0
 2543 0222 B4F93430 		ldrsh	r3, [r4, #52]
 2544              	.LBB171:
 2545              		.loc 1 1077 0
 2546 0226 CAF81400 		str	r0, [r10, #20]
 2547              	.LVL286:
 2548              	.LBE171:
 2549              		.loc 1 1091 0
 2550 022a 0133     		adds	r3, r3, #1
 2551 022c 7FF457AF 		bne	.L304
 2552              	.LVL287:
 2553              	.L341:
 2554              		.loc 1 1092 0
 2555 0230 0023     		movs	r3, #0
 2556 0232 A386     		strh	r3, [r4, #52]	@ movhi
 2557 0234 53E7     		b	.L304
 2558              	.L342:
 2559              		.loc 1 1106 0
ARM GAS  C:\Users\jo\AppData\Local\Temp\ccnOsBUt.s 			page 46


 2560 0236 314A     		ldr	r2, .L346+20
 2561              		.loc 1 1107 0
 2562 0238 EB68     		ldr	r3, [r5, #12]
 2563              		.loc 1 1106 0
 2564 023a 1268     		ldr	r2, [r2]
 2565 023c A263     		str	r2, [r4, #56]
 2566              		.loc 1 1107 0
 2567 023e 5868     		ldr	r0, [r3, #4]	@ unaligned
 2568 0240 FFF7FEFF 		bl	lwip_ntohl
 2569              	.LVL288:
 2570 0244 E063     		str	r0, [r4, #60]
 2571 0246 57E7     		b	.L290
 2572              	.L343:
 2573              	.LBE172:
 2574              	.LBE175:
 2575              		.loc 1 1003 0
 2576 0248 2567     		str	r5, [r4, #112]
 2577              	.LVL289:
 2578 024a 2F46     		mov	r7, r5
 2579              		.loc 1 1029 0
 2580 024c E56E     		ldr	r5, [r4, #108]
 2581              	.LVL290:
 2582              		.loc 1 962 0
 2583 024e 002D     		cmp	r5, #0
 2584 0250 B7D1     		bne	.L300
 2585              	.LVL291:
 2586              	.L345:
 2587 0252 A37F     		ldrb	r3, [r4, #30]	@ zero_extendqisi2
 2588              	.LVL292:
 2589              	.L301:
 2590              		.loc 1 1034 0
 2591 0254 0022     		movs	r2, #0
 2592              		.loc 1 1038 0
 2593 0256 03F07F03 		and	r3, r3, #127
 2594              		.loc 1 1034 0
 2595 025a A4F86A20 		strh	r2, [r4, #106]	@ movhi
 2596              		.loc 1 1038 0
 2597 025e A377     		strb	r3, [r4, #30]
 2598              	.LVL293:
 2599              	.L323:
 2600              		.loc 1 1040 0
 2601 0260 0020     		movs	r0, #0
 2602 0262 02B0     		add	sp, sp, #8
 2603              		.cfi_remember_state
 2604              		.cfi_def_cfa_offset 32
 2605              		@ sp needed
 2606 0264 BDE8F087 		pop	{r4, r5, r6, r7, r8, r9, r10, pc}
 2607              	.LVL294:
 2608              	.L344:
 2609              		.cfi_restore_state
 2610              	.LBB176:
 2611              		.loc 1 1013 0
 2612 0268 236F     		ldr	r3, [r4, #112]
 2613              		.loc 1 1012 0
 2614 026a 04F1700A 		add	r10, r4, #112
 2615              	.LVL295:
 2616              		.loc 1 1013 0
ARM GAS  C:\Users\jo\AppData\Local\Temp\ccnOsBUt.s 			page 47


 2617 026e 2BB9     		cbnz	r3, .L298
 2618 0270 12E0     		b	.L297
 2619              	.L299:
 2620              		.loc 1 1015 0
 2621 0272 DAF800A0 		ldr	r10, [r10]
 2622              	.LVL296:
 2623              		.loc 1 1013 0
 2624 0276 DAF80030 		ldr	r3, [r10]
 2625 027a 6BB1     		cbz	r3, .L297
 2626              	.L298:
 2627              		.loc 1 1014 0 discriminator 1
 2628 027c DB68     		ldr	r3, [r3, #12]
 2629 027e 5868     		ldr	r0, [r3, #4]	@ unaligned
 2630 0280 FFF7FEFF 		bl	lwip_ntohl
 2631              	.LVL297:
 2632 0284 EB68     		ldr	r3, [r5, #12]
 2633 0286 0646     		mov	r6, r0
 2634 0288 5868     		ldr	r0, [r3, #4]	@ unaligned
 2635 028a FFF7FEFF 		bl	lwip_ntohl
 2636              	.LVL298:
 2637 028e 301A     		subs	r0, r6, r0
 2638              		.loc 1 1013 0 discriminator 1
 2639 0290 0028     		cmp	r0, #0
 2640 0292 EEDB     		blt	.L299
 2641 0294 DAF80030 		ldr	r3, [r10]
 2642              	.L297:
 2643              		.loc 1 1017 0
 2644 0298 2B60     		str	r3, [r5]
 2645              		.loc 1 1018 0
 2646 029a CAF80050 		str	r5, [r10]
 2647              	.LBE176:
 2648 029e 8DE7     		b	.L294
 2649              	.LVL299:
 2650              	.L292:
 2651              		.loc 1 1027 0
 2652 02a0 2846     		mov	r0, r5
 2653 02a2 FFF7FEFF 		bl	tcp_seg_free
 2654              	.LVL300:
 2655 02a6 89E7     		b	.L294
 2656              	.LVL301:
 2657              	.L339:
 2658              		.loc 1 973 0 discriminator 8
 2659 02a8 1089     		ldrh	r0, [r2, #8]
 2660 02aa E18E     		ldrh	r1, [r4, #54]
 2661 02ac 8842     		cmp	r0, r1
 2662 02ae BFF4E8AE 		bcs	.L282
 2663              	.L283:
 2664              		.loc 1 973 0 is_stmt 0 discriminator 10
 2665 02b2 B4F86610 		ldrh	r1, [r4, #102]
 2666 02b6 0029     		cmp	r1, #0
 2667 02b8 3FF4E3AE 		beq	.L282
 2668              		.loc 1 973 0 discriminator 12
 2669 02bc B4F86810 		ldrh	r1, [r4, #104]
 2670 02c0 0729     		cmp	r1, #7
 2671 02c2 3FF6DEAE 		bhi	.L282
 2672              		.loc 1 973 0
 2673 02c6 13F0A00F 		tst	r3, #160
ARM GAS  C:\Users\jo\AppData\Local\Temp\ccnOsBUt.s 			page 48


 2674 02ca 7FF4DAAE 		bne	.L282
 2675              	.L278:
 2676              		.loc 1 1032 0 is_stmt 1
 2677 02ce 002A     		cmp	r2, #0
 2678 02d0 C0D0     		beq	.L301
 2679              		.loc 1 1038 0
 2680 02d2 03F07F03 		and	r3, r3, #127
 2681              		.loc 1 1040 0
 2682 02d6 0020     		movs	r0, #0
 2683              		.loc 1 1038 0
 2684 02d8 A377     		strb	r3, [r4, #30]
 2685              		.loc 1 1040 0
 2686 02da 02B0     		add	sp, sp, #8
 2687              		.cfi_remember_state
 2688              		.cfi_def_cfa_offset 32
 2689              		@ sp needed
 2690 02dc BDE8F087 		pop	{r4, r5, r6, r7, r8, r9, r10, pc}
 2691              	.LVL302:
 2692              	.L335:
 2693              		.cfi_restore_state
 2694 02e0 E26E     		ldr	r2, [r4, #108]
 2695 02e2 A37F     		ldrb	r3, [r4, #30]	@ zero_extendqisi2
 2696 02e4 F3E7     		b	.L278
 2697              	.L347:
 2698 02e6 00BF     		.align	2
 2699              	.L346:
 2700 02e8 00000000 		.word	tcp_input_pcb
 2701 02ec 00000000 		.word	lwip_stats
 2702 02f0 00000000 		.word	.LC0
 2703 02f4 74030000 		.word	.LC20
 2704 02f8 00000000 		.word	itm_port
 2705 02fc 00000000 		.word	tcp_ticks
 2706 0300 58000000 		.word	.LC2
 2707              	.LVL303:
 2708              	.L274:
 2709              		.loc 1 931 0
 2710 0304 2046     		mov	r0, r4
 2711              		.loc 1 1040 0
 2712 0306 02B0     		add	sp, sp, #8
 2713              		.cfi_remember_state
 2714              		.cfi_def_cfa_offset 32
 2715              		@ sp needed
 2716 0308 BDE8F047 		pop	{r4, r5, r6, r7, r8, r9, r10, lr}
 2717              		.cfi_restore 14
 2718              		.cfi_restore 10
 2719              		.cfi_restore 9
 2720              		.cfi_restore 8
 2721              		.cfi_restore 7
 2722              		.cfi_restore 6
 2723              		.cfi_restore 5
 2724              		.cfi_restore 4
 2725              		.cfi_def_cfa_offset 0
 2726              	.LVL304:
 2727              		.loc 1 931 0
 2728 030c FFF7FEBF 		b	tcp_send_empty_ack
 2729              	.LVL305:
 2730              	.L338:
ARM GAS  C:\Users\jo\AppData\Local\Temp\ccnOsBUt.s 			page 49


 2731              		.cfi_restore_state
 2732              		.loc 1 907 0 discriminator 1
 2733 0310 064B     		ldr	r3, .L348
 2734 0312 0093     		str	r3, [sp]
 2735 0314 0649     		ldr	r1, .L348+4
 2736 0316 074A     		ldr	r2, .L348+8
 2737 0318 0748     		ldr	r0, .L348+12
 2738              	.LVL306:
 2739 031a 4FF46373 		mov	r3, #908
 2740 031e FFF7FEFF 		bl	chprintf.constprop.2
 2741              	.LVL307:
 2742              	.LBB177:
 2743              	.LBB178:
 2744              		.loc 3 414 0 discriminator 1
 2745 0322 0448     		ldr	r0, .L348+8
 2746 0324 FFF7FEFF 		bl	chSysHalt
 2747              	.LVL308:
 2748 0328 72E6     		b	.L270
 2749              	.L349:
 2750 032a 00BF     		.align	2
 2751              	.L348:
 2752 032c 58000000 		.word	.LC2
 2753 0330 00000000 		.word	.LC0
 2754 0334 4C030000 		.word	.LC19
 2755 0338 00000000 		.word	itm_port
 2756              	.LBE178:
 2757              	.LBE177:
 2758              		.cfi_endproc
 2759              	.LFE264:
 2760              		.size	tcp_output, .-tcp_output
 2761 033c AFF30080 		.section	.text.tcp_rst,"ax",%progbits
 2762              		.align	2
 2763              		.p2align 4,,15
 2764              		.global	tcp_rst
 2765              		.thumb
 2766              		.thumb_func
 2767              		.type	tcp_rst, %function
 2768              	tcp_rst:
 2769              	.LFB266:
 2770              		.loc 1 1198 0
 2771              		.cfi_startproc
 2772              		@ args = 8, pretend = 0, frame = 0
 2773              		@ frame_needed = 0, uses_anonymous_args = 0
 2774              	.LVL309:
 2775 0000 2DE9F047 		push	{r4, r5, r6, r7, r8, r9, r10, lr}
 2776              		.cfi_def_cfa_offset 32
 2777              		.cfi_offset 4, -32
 2778              		.cfi_offset 5, -28
 2779              		.cfi_offset 6, -24
 2780              		.cfi_offset 7, -20
 2781              		.cfi_offset 8, -16
 2782              		.cfi_offset 9, -12
 2783              		.cfi_offset 10, -8
 2784              		.cfi_offset 14, -4
 2785 0004 82B0     		sub	sp, sp, #8
 2786              		.cfi_def_cfa_offset 40
 2787              		.loc 1 1198 0
ARM GAS  C:\Users\jo\AppData\Local\Temp\ccnOsBUt.s 			page 50


 2788 0006 8146     		mov	r9, r0
 2789 0008 0E46     		mov	r6, r1
 2790 000a 9046     		mov	r8, r2
 2791              		.loc 1 1201 0
 2792 000c 0120     		movs	r0, #1
 2793              	.LVL310:
 2794 000e 1421     		movs	r1, #20
 2795              	.LVL311:
 2796 0010 0022     		movs	r2, #0
 2797              	.LVL312:
 2798              		.loc 1 1198 0
 2799 0012 1F46     		mov	r7, r3
 2800 0014 BDF82840 		ldrh	r4, [sp, #40]
 2801 0018 BDF82CA0 		ldrh	r10, [sp, #44]
 2802              		.loc 1 1201 0
 2803 001c FFF7FEFF 		bl	pbuf_alloc
 2804              	.LVL313:
 2805              		.loc 1 1202 0
 2806 0020 0546     		mov	r5, r0
 2807 0022 0028     		cmp	r0, #0
 2808 0024 4ED0     		beq	.L350
 2809              		.loc 1 1206 0
 2810 0026 4389     		ldrh	r3, [r0, #10]
 2811 0028 132B     		cmp	r3, #19
 2812 002a 3ED9     		bls	.L354
 2813              	.LVL314:
 2814              	.L352:
 2815              		.loc 1 1210 0
 2816 002c 2046     		mov	r0, r4
 2817              		.loc 1 1209 0
 2818 002e 6C68     		ldr	r4, [r5, #4]
 2819              	.LVL315:
 2820              		.loc 1 1210 0
 2821 0030 FFF7FEFF 		bl	lwip_htons
 2822              	.LVL316:
 2823 0034 2080     		strh	r0, [r4]	@ unaligned
 2824              		.loc 1 1211 0
 2825 0036 5046     		mov	r0, r10
 2826 0038 FFF7FEFF 		bl	lwip_htons
 2827              	.LVL317:
 2828 003c 6080     		strh	r0, [r4, #2]	@ unaligned
 2829              		.loc 1 1212 0
 2830 003e 4846     		mov	r0, r9
 2831 0040 FFF7FEFF 		bl	lwip_htonl
 2832              	.LVL318:
 2833 0044 6060     		str	r0, [r4, #4]	@ unaligned
 2834              		.loc 1 1213 0
 2835 0046 3046     		mov	r0, r6
 2836 0048 FFF7FEFF 		bl	lwip_htonl
 2837              	.LVL319:
 2838 004c A060     		str	r0, [r4, #8]	@ unaligned
 2839              		.loc 1 1214 0
 2840 004e 45F21400 		movw	r0, #20500
 2841 0052 FFF7FEFF 		bl	lwip_htons
 2842              	.LVL320:
 2843              		.loc 1 1215 0
 2844 0056 0026     		movs	r6, #0
ARM GAS  C:\Users\jo\AppData\Local\Temp\ccnOsBUt.s 			page 51


 2845              	.LVL321:
 2846              		.loc 1 1220 0
 2847 0058 2B89     		ldrh	r3, [r5, #8]
 2848              		.loc 1 1214 0
 2849 005a A081     		strh	r0, [r4, #12]	@ unaligned
 2850              		.loc 1 1215 0
 2851 005c 1621     		movs	r1, #22
 2852 005e 6FF02F02 		mvn	r2, #47
 2853 0062 A173     		strb	r1, [r4, #14]
 2854 0064 E273     		strb	r2, [r4, #15]
 2855              		.loc 1 1216 0
 2856 0066 2674     		strb	r6, [r4, #16]
 2857 0068 6674     		strb	r6, [r4, #17]
 2858              		.loc 1 1217 0
 2859 006a A674     		strb	r6, [r4, #18]
 2860 006c E674     		strb	r6, [r4, #19]
 2861              		.loc 1 1220 0
 2862 006e 4146     		mov	r1, r8
 2863 0070 0093     		str	r3, [sp]
 2864 0072 3A46     		mov	r2, r7
 2865 0074 2846     		mov	r0, r5
 2866 0076 0623     		movs	r3, #6
 2867 0078 FFF7FEFF 		bl	inet_chksum_pseudo
 2868              	.LVL322:
 2869              		.loc 1 1223 0
 2870 007c DFF85CE0 		ldr	lr, .L355+16
 2871              		.loc 1 1220 0
 2872 0080 2082     		strh	r0, [r4, #16]	@ unaligned
 2873              		.loc 1 1223 0
 2874 0082 BEF89040 		ldrh	r4, [lr, #144]
 2875              	.LVL323:
 2876              		.loc 1 1226 0
 2877 0086 0096     		str	r6, [sp]
 2878 0088 0623     		movs	r3, #6
 2879              		.loc 1 1223 0
 2880 008a 0134     		adds	r4, r4, #1
 2881              		.loc 1 1226 0
 2882 008c 0193     		str	r3, [sp, #4]
 2883 008e 4146     		mov	r1, r8
 2884 0090 3A46     		mov	r2, r7
 2885 0092 2846     		mov	r0, r5
 2886 0094 FF23     		movs	r3, #255
 2887              		.loc 1 1223 0
 2888 0096 AEF89040 		strh	r4, [lr, #144]	@ movhi
 2889              		.loc 1 1226 0
 2890 009a FFF7FEFF 		bl	ip_output
 2891              	.LVL324:
 2892              		.loc 1 1227 0
 2893 009e 2846     		mov	r0, r5
 2894              		.loc 1 1229 0
 2895 00a0 02B0     		add	sp, sp, #8
 2896              		.cfi_remember_state
 2897              		.cfi_def_cfa_offset 32
 2898              		@ sp needed
 2899 00a2 BDE8F047 		pop	{r4, r5, r6, r7, r8, r9, r10, lr}
 2900              		.cfi_restore 14
 2901              		.cfi_restore 10
ARM GAS  C:\Users\jo\AppData\Local\Temp\ccnOsBUt.s 			page 52


 2902              		.cfi_restore 9
 2903              		.cfi_restore 8
 2904              		.cfi_restore 7
 2905              		.cfi_restore 6
 2906              		.cfi_restore 5
 2907              		.cfi_restore 4
 2908              		.cfi_def_cfa_offset 0
 2909              	.LVL325:
 2910              		.loc 1 1227 0
 2911 00a6 FFF7FEBF 		b	pbuf_free
 2912              	.LVL326:
 2913              	.L354:
 2914              		.cfi_restore_state
 2915              		.loc 1 1206 0 discriminator 1
 2916 00aa 084B     		ldr	r3, .L355
 2917 00ac 0093     		str	r3, [sp]
 2918 00ae 0849     		ldr	r1, .L355+4
 2919 00b0 084A     		ldr	r2, .L355+8
 2920 00b2 0948     		ldr	r0, .L355+12
 2921              	.LVL327:
 2922 00b4 40F2B743 		movw	r3, #1207
 2923 00b8 FFF7FEFF 		bl	chprintf.constprop.2
 2924              	.LVL328:
 2925              	.LBB179:
 2926              	.LBB180:
 2927              		.loc 3 414 0 discriminator 1
 2928 00bc 0548     		ldr	r0, .L355+8
 2929 00be FFF7FEFF 		bl	chSysHalt
 2930              	.LVL329:
 2931 00c2 B3E7     		b	.L352
 2932              	.LVL330:
 2933              	.L350:
 2934              	.LBE180:
 2935              	.LBE179:
 2936              		.loc 1 1229 0
 2937 00c4 02B0     		add	sp, sp, #8
 2938              		.cfi_def_cfa_offset 32
 2939              		@ sp needed
 2940 00c6 BDE8F087 		pop	{r4, r5, r6, r7, r8, r9, r10, pc}
 2941              	.LVL331:
 2942              	.L356:
 2943 00ca 00BF     		.align	2
 2944              	.L355:
 2945 00cc 58000000 		.word	.LC2
 2946 00d0 00000000 		.word	.LC0
 2947 00d4 28000000 		.word	.LC1
 2948 00d8 00000000 		.word	itm_port
 2949 00dc 00000000 		.word	lwip_stats
 2950              		.cfi_endproc
 2951              	.LFE266:
 2952              		.size	tcp_rst, .-tcp_rst
 2953              		.section	.text.tcp_rexmit_rto,"ax",%progbits
 2954              		.align	2
 2955              		.p2align 4,,15
 2956              		.global	tcp_rexmit_rto
 2957              		.thumb
 2958              		.thumb_func
ARM GAS  C:\Users\jo\AppData\Local\Temp\ccnOsBUt.s 			page 53


 2959              		.type	tcp_rexmit_rto, %function
 2960              	tcp_rexmit_rto:
 2961              	.LFB267:
 2962              		.loc 1 1240 0
 2963              		.cfi_startproc
 2964              		@ args = 0, pretend = 0, frame = 0
 2965              		@ frame_needed = 0, uses_anonymous_args = 0
 2966              		@ link register save eliminated.
 2967              	.LVL332:
 2968              		.loc 1 1243 0
 2969 0000 016F     		ldr	r1, [r0, #112]
 2970 0002 A1B1     		cbz	r1, .L362
 2971 0004 0A46     		mov	r2, r1
 2972 0006 00E0     		b	.L359
 2973              	.LVL333:
 2974              	.L360:
 2975 0008 1A46     		mov	r2, r3
 2976              	.LVL334:
 2977              	.L359:
 2978              		.loc 1 1248 0 discriminator 1
 2979 000a 1368     		ldr	r3, [r2]
 2980 000c 002B     		cmp	r3, #0
 2981 000e FBD1     		bne	.L360
 2982              		.loc 1 1240 0
 2983 0010 10B4     		push	{r4}
 2984              		.cfi_def_cfa_offset 4
 2985              		.cfi_offset 4, -4
 2986              		.loc 1 1250 0
 2987 0012 C46E     		ldr	r4, [r0, #108]
 2988 0014 1460     		str	r4, [r2]
 2989              		.loc 1 1258 0
 2990 0016 90F84620 		ldrb	r2, [r0, #70]	@ zero_extendqisi2
 2991              	.LVL335:
 2992              		.loc 1 1252 0
 2993 001a C166     		str	r1, [r0, #108]
 2994              		.loc 1 1258 0
 2995 001c 0132     		adds	r2, r2, #1
 2996 001e 80F84620 		strb	r2, [r0, #70]
 2997              		.loc 1 1254 0
 2998 0022 0367     		str	r3, [r0, #112]
 2999              		.loc 1 1261 0
 3000 0024 8363     		str	r3, [r0, #56]
 3001              		.loc 1 1265 0
 3002 0026 5DF8044B 		ldr	r4, [sp], #4
 3003              		.cfi_restore 4
 3004              		.cfi_def_cfa_offset 0
 3005              		.loc 1 1264 0
 3006 002a FFF7FEBF 		b	tcp_output
 3007              	.LVL336:
 3008              	.L362:
 3009 002e 7047     		bx	lr
 3010              		.cfi_endproc
 3011              	.LFE267:
 3012              		.size	tcp_rexmit_rto, .-tcp_rexmit_rto
 3013              		.section	.text.tcp_rexmit,"ax",%progbits
 3014              		.align	2
 3015              		.p2align 4,,15
ARM GAS  C:\Users\jo\AppData\Local\Temp\ccnOsBUt.s 			page 54


 3016              		.global	tcp_rexmit
 3017              		.thumb
 3018              		.thumb_func
 3019              		.type	tcp_rexmit, %function
 3020              	tcp_rexmit:
 3021              	.LFB268:
 3022              		.loc 1 1276 0
 3023              		.cfi_startproc
 3024              		@ args = 0, pretend = 0, frame = 0
 3025              		@ frame_needed = 0, uses_anonymous_args = 0
 3026              	.LVL337:
 3027 0000 F8B5     		push	{r3, r4, r5, r6, r7, lr}
 3028              		.cfi_def_cfa_offset 24
 3029              		.cfi_offset 3, -24
 3030              		.cfi_offset 4, -20
 3031              		.cfi_offset 5, -16
 3032              		.cfi_offset 6, -12
 3033              		.cfi_offset 7, -8
 3034              		.cfi_offset 14, -4
 3035              		.loc 1 1280 0
 3036 0002 066F     		ldr	r6, [r0, #112]
 3037 0004 16B3     		cbz	r6, .L363
 3038              	.LVL338:
 3039              		.loc 1 1290 0
 3040 0006 C36E     		ldr	r3, [r0, #108]
 3041              		.loc 1 1287 0
 3042 0008 3268     		ldr	r2, [r6]
 3043 000a 0267     		str	r2, [r0, #112]
 3044 000c 0746     		mov	r7, r0
 3045              		.loc 1 1289 0
 3046 000e 00F16C05 		add	r5, r0, #108
 3047              	.LVL339:
 3048              		.loc 1 1290 0
 3049 0012 1BB9     		cbnz	r3, .L367
 3050 0014 0FE0     		b	.L366
 3051              	.LVL340:
 3052              	.L368:
 3053              		.loc 1 1292 0
 3054 0016 2D68     		ldr	r5, [r5]
 3055              	.LVL341:
 3056              		.loc 1 1290 0
 3057 0018 2B68     		ldr	r3, [r5]
 3058 001a 63B1     		cbz	r3, .L366
 3059              	.L367:
 3060              		.loc 1 1291 0 discriminator 1
 3061 001c DB68     		ldr	r3, [r3, #12]
 3062 001e 5868     		ldr	r0, [r3, #4]	@ unaligned
 3063 0020 FFF7FEFF 		bl	lwip_ntohl
 3064              	.LVL342:
 3065 0024 F368     		ldr	r3, [r6, #12]
 3066 0026 0446     		mov	r4, r0
 3067 0028 5868     		ldr	r0, [r3, #4]	@ unaligned
 3068 002a FFF7FEFF 		bl	lwip_ntohl
 3069              	.LVL343:
 3070 002e 201A     		subs	r0, r4, r0
 3071              		.loc 1 1290 0 discriminator 1
 3072 0030 0028     		cmp	r0, #0
ARM GAS  C:\Users\jo\AppData\Local\Temp\ccnOsBUt.s 			page 55


 3073 0032 F0DB     		blt	.L368
 3074 0034 2B68     		ldr	r3, [r5]
 3075              	.L366:
 3076              		.loc 1 1294 0
 3077 0036 3360     		str	r3, [r6]
 3078              		.loc 1 1295 0
 3079 0038 2E60     		str	r6, [r5]
 3080              		.loc 1 1297 0
 3081 003a 3368     		ldr	r3, [r6]
 3082 003c 3BB1     		cbz	r3, .L375
 3083              	.L369:
 3084              		.loc 1 1303 0
 3085 003e 97F84630 		ldrb	r3, [r7, #70]	@ zero_extendqisi2
 3086              		.loc 1 1306 0
 3087 0042 0022     		movs	r2, #0
 3088              		.loc 1 1303 0
 3089 0044 0133     		adds	r3, r3, #1
 3090 0046 87F84630 		strb	r3, [r7, #70]
 3091              		.loc 1 1306 0
 3092 004a BA63     		str	r2, [r7, #56]
 3093              	.LVL344:
 3094              	.L363:
 3095 004c F8BD     		pop	{r3, r4, r5, r6, r7, pc}
 3096              	.LVL345:
 3097              	.L375:
 3098              		.loc 1 1299 0
 3099 004e A7F86A30 		strh	r3, [r7, #106]	@ movhi
 3100 0052 F4E7     		b	.L369
 3101              		.cfi_endproc
 3102              	.LFE268:
 3103              		.size	tcp_rexmit, .-tcp_rexmit
 3104 0054 AFF30080 		.section	.text.tcp_rexmit_fast,"ax",%progbits
 3104      AFF30080 
 3104      AFF30080 
 3105              		.align	2
 3106              		.p2align 4,,15
 3107              		.global	tcp_rexmit_fast
 3108              		.thumb
 3109              		.thumb_func
 3110              		.type	tcp_rexmit_fast, %function
 3111              	tcp_rexmit_fast:
 3112              	.LFB269:
 3113              		.loc 1 1322 0
 3114              		.cfi_startproc
 3115              		@ args = 0, pretend = 0, frame = 0
 3116              		@ frame_needed = 0, uses_anonymous_args = 0
 3117              	.LVL346:
 3118              		.loc 1 1323 0
 3119 0000 026F     		ldr	r2, [r0, #112]
 3120 0002 12B1     		cbz	r2, .L385
 3121              		.loc 1 1323 0 is_stmt 0 discriminator 1
 3122 0004 827F     		ldrb	r2, [r0, #30]	@ zero_extendqisi2
 3123 0006 5207     		lsls	r2, r2, #29
 3124 0008 00D5     		bpl	.L386
 3125              	.L385:
 3126 000a 7047     		bx	lr
 3127              	.L386:
ARM GAS  C:\Users\jo\AppData\Local\Temp\ccnOsBUt.s 			page 56


 3128              		.loc 1 1322 0 is_stmt 1
 3129 000c 10B5     		push	{r4, lr}
 3130              		.cfi_def_cfa_offset 8
 3131              		.cfi_offset 4, -8
 3132              		.cfi_offset 14, -4
 3133 000e 0446     		mov	r4, r0
 3134              		.loc 1 1330 0
 3135 0010 FFF7FEFF 		bl	tcp_rexmit
 3136              	.LVL347:
 3137              		.loc 1 1334 0
 3138 0014 B4F86020 		ldrh	r2, [r4, #96]
 3139 0018 B4F84C30 		ldrh	r3, [r4, #76]
 3140              		.loc 1 1341 0
 3141 001c E08E     		ldrh	r0, [r4, #54]
 3142              		.loc 1 1350 0
 3143 001e A17F     		ldrb	r1, [r4, #30]	@ zero_extendqisi2
 3144              		.loc 1 1334 0
 3145 0020 9342     		cmp	r3, r2
 3146              		.loc 1 1337 0
 3147 0022 94BF     		ite	ls
 3148 0024 5A08     		lsrls	r2, r3, #1
 3149              		.loc 1 1335 0
 3150 0026 5208     		lsrhi	r2, r2, #1
 3151              		.loc 1 1341 0
 3152 0028 4300     		lsls	r3, r0, #1
 3153 002a 9A42     		cmp	r2, r3
 3154              		.loc 1 1337 0
 3155 002c A4F84E20 		strh	r2, [r4, #78]	@ movhi
 3156              		.loc 1 1346 0
 3157 0030 B8BF     		it	lt
 3158 0032 9AB2     		uxthlt	r2, r3
 3159              		.loc 1 1349 0
 3160 0034 0344     		add	r3, r3, r0
 3161 0036 1344     		add	r3, r3, r2
 3162              		.loc 1 1346 0
 3163 0038 B8BF     		it	lt
 3164 003a A4F84E20 		strhlt	r2, [r4, #78]	@ movhi
 3165              		.loc 1 1350 0
 3166 003e 41F00402 		orr	r2, r1, #4
 3167 0042 A277     		strb	r2, [r4, #30]
 3168              		.loc 1 1349 0
 3169 0044 A4F84C30 		strh	r3, [r4, #76]	@ movhi
 3170 0048 10BD     		pop	{r4, pc}
 3171              		.cfi_endproc
 3172              	.LFE269:
 3173              		.size	tcp_rexmit_fast, .-tcp_rexmit_fast
 3174 004a 00BFAFF3 		.section	.text.tcp_keepalive,"ax",%progbits
 3174      0080
 3175              		.align	2
 3176              		.p2align 4,,15
 3177              		.global	tcp_keepalive
 3178              		.thumb
 3179              		.thumb_func
 3180              		.type	tcp_keepalive, %function
 3181              	tcp_keepalive:
 3182              	.LFB270:
 3183              		.loc 1 1365 0
ARM GAS  C:\Users\jo\AppData\Local\Temp\ccnOsBUt.s 			page 57


 3184              		.cfi_startproc
 3185              		@ args = 0, pretend = 0, frame = 0
 3186              		@ frame_needed = 0, uses_anonymous_args = 0
 3187              	.LVL348:
 3188 0000 F0B5     		push	{r4, r5, r6, r7, lr}
 3189              		.cfi_def_cfa_offset 20
 3190              		.cfi_offset 4, -20
 3191              		.cfi_offset 5, -16
 3192              		.cfi_offset 6, -12
 3193              		.cfi_offset 7, -8
 3194              		.cfi_offset 14, -4
 3195 0002 0446     		mov	r4, r0
 3196              		.loc 1 1376 0
 3197 0004 006D     		ldr	r0, [r0, #80]
 3198              	.LVL349:
 3199              		.loc 1 1365 0
 3200 0006 83B0     		sub	sp, sp, #12
 3201              		.cfi_def_cfa_offset 32
 3202              		.loc 1 1376 0
 3203 0008 0138     		subs	r0, r0, #1
 3204 000a FFF7FEFF 		bl	lwip_htonl
 3205              	.LVL350:
 3206 000e 0021     		movs	r1, #0
 3207 0010 0246     		mov	r2, r0
 3208 0012 2046     		mov	r0, r4
 3209 0014 FFF7FEFF 		bl	tcp_output_alloc_header.constprop.1
 3210              	.LVL351:
 3211              		.loc 1 1377 0
 3212 0018 00B3     		cbz	r0, .L387
 3213              		.loc 1 1385 0
 3214 001a 261D     		adds	r6, r4, #4
 3215 001c 0389     		ldrh	r3, [r0, #8]
 3216              		.loc 1 1382 0
 3217 001e 4768     		ldr	r7, [r0, #4]
 3218              	.LVL352:
 3219              		.loc 1 1385 0
 3220 0020 0093     		str	r3, [sp]
 3221 0022 3246     		mov	r2, r6
 3222 0024 2146     		mov	r1, r4
 3223 0026 0623     		movs	r3, #6
 3224 0028 0546     		mov	r5, r0
 3225 002a FFF7FEFF 		bl	inet_chksum_pseudo
 3226              	.LVL353:
 3227              		.loc 1 1388 0
 3228 002e 0C4A     		ldr	r2, .L390
 3229              		.loc 1 1385 0
 3230 0030 3882     		strh	r0, [r7, #16]	@ unaligned
 3231              		.loc 1 1388 0
 3232 0032 B2F89030 		ldrh	r3, [r2, #144]
 3233 0036 0133     		adds	r3, r3, #1
 3234 0038 A2F89030 		strh	r3, [r2, #144]	@ movhi
 3235              		.loc 1 1395 0
 3236 003c 0027     		movs	r7, #0
 3237              	.LVL354:
 3238 003e 0620     		movs	r0, #6
 3239 0040 A37A     		ldrb	r3, [r4, #10]	@ zero_extendqisi2
 3240 0042 0190     		str	r0, [sp, #4]
ARM GAS  C:\Users\jo\AppData\Local\Temp\ccnOsBUt.s 			page 58


 3241 0044 3246     		mov	r2, r6
 3242 0046 2146     		mov	r1, r4
 3243 0048 0097     		str	r7, [sp]
 3244 004a 2846     		mov	r0, r5
 3245 004c FFF7FEFF 		bl	ip_output
 3246              	.LVL355:
 3247              		.loc 1 1398 0
 3248 0050 2846     		mov	r0, r5
 3249              		.loc 1 1402 0
 3250 0052 03B0     		add	sp, sp, #12
 3251              		.cfi_remember_state
 3252              		.cfi_def_cfa_offset 20
 3253              		@ sp needed
 3254 0054 BDE8F040 		pop	{r4, r5, r6, r7, lr}
 3255              		.cfi_restore 14
 3256              		.cfi_restore 7
 3257              		.cfi_restore 6
 3258              		.cfi_restore 5
 3259              		.cfi_restore 4
 3260              		.cfi_def_cfa_offset 0
 3261              	.LVL356:
 3262              		.loc 1 1398 0
 3263 0058 FFF7FEBF 		b	pbuf_free
 3264              	.LVL357:
 3265              	.L387:
 3266              		.cfi_restore_state
 3267              		.loc 1 1402 0
 3268 005c 03B0     		add	sp, sp, #12
 3269              		.cfi_def_cfa_offset 20
 3270              		@ sp needed
 3271 005e F0BD     		pop	{r4, r5, r6, r7, pc}
 3272              	.LVL358:
 3273              	.L391:
 3274              		.align	2
 3275              	.L390:
 3276 0060 00000000 		.word	lwip_stats
 3277              		.cfi_endproc
 3278              	.LFE270:
 3279              		.size	tcp_keepalive, .-tcp_keepalive
 3280 0064 AFF30080 		.section	.text.tcp_zero_window_probe,"ax",%progbits
 3280      AFF30080 
 3280      AFF30080 
 3281              		.align	2
 3282              		.p2align 4,,15
 3283              		.global	tcp_zero_window_probe
 3284              		.thumb
 3285              		.thumb_func
 3286              		.type	tcp_zero_window_probe, %function
 3287              	tcp_zero_window_probe:
 3288              	.LFB271:
 3289              		.loc 1 1415 0
 3290              		.cfi_startproc
 3291              		@ args = 0, pretend = 0, frame = 0
 3292              		@ frame_needed = 0, uses_anonymous_args = 0
 3293              	.LVL359:
 3294 0000 F0B5     		push	{r4, r5, r6, r7, lr}
 3295              		.cfi_def_cfa_offset 20
ARM GAS  C:\Users\jo\AppData\Local\Temp\ccnOsBUt.s 			page 59


 3296              		.cfi_offset 4, -20
 3297              		.cfi_offset 5, -16
 3298              		.cfi_offset 6, -12
 3299              		.cfi_offset 7, -8
 3300              		.cfi_offset 14, -4
 3301              		.loc 1 1433 0
 3302 0002 066F     		ldr	r6, [r0, #112]
 3303              	.LVL360:
 3304              		.loc 1 1415 0
 3305 0004 83B0     		sub	sp, sp, #12
 3306              		.cfi_def_cfa_offset 32
 3307              		.loc 1 1435 0
 3308 0006 002E     		cmp	r6, #0
 3309 0008 4FD0     		beq	.L413
 3310              	.L393:
 3311              		.loc 1 1442 0
 3312 000a F368     		ldr	r3, [r6, #12]
 3313 000c 0446     		mov	r4, r0
 3314 000e 9889     		ldrh	r0, [r3, #12]	@ unaligned
 3315              	.LVL361:
 3316 0010 FFF7FEFF 		bl	lwip_ntohs
 3317              	.LVL362:
 3318 0014 C307     		lsls	r3, r0, #31
 3319 0016 33D4     		bmi	.L414
 3320              	.L395:
 3321              	.LVL363:
 3322              		.loc 1 1446 0
 3323 0018 F368     		ldr	r3, [r6, #12]
 3324 001a 2046     		mov	r0, r4
 3325 001c 5A68     		ldr	r2, [r3, #4]	@ unaligned
 3326 001e 0121     		movs	r1, #1
 3327 0020 FFF7FEFF 		bl	tcp_output_alloc_header.constprop.1
 3328              	.LVL364:
 3329              		.loc 1 1447 0
 3330 0024 0546     		mov	r5, r0
 3331 0026 0028     		cmp	r0, #0
 3332 0028 42D0     		beq	.L392
 3333              	.LBB181:
 3334              		.loc 1 1462 0
 3335 002a 7068     		ldr	r0, [r6, #4]
 3336              	.LVL365:
 3337 002c 3289     		ldrh	r2, [r6, #8]
 3338 002e 0389     		ldrh	r3, [r0, #8]
 3339              	.LBE181:
 3340              		.loc 1 1451 0
 3341 0030 6F68     		ldr	r7, [r5, #4]
 3342              	.LVL366:
 3343              	.LBB182:
 3344              		.loc 1 1462 0
 3345 0032 9B1A     		subs	r3, r3, r2
 3346 0034 9BB2     		uxth	r3, r3
 3347 0036 07F11401 		add	r1, r7, #20
 3348              	.LVL367:
 3349 003a 0122     		movs	r2, #1
 3350 003c FFF7FEFF 		bl	pbuf_copy_partial
 3351              	.LVL368:
 3352              	.L397:
ARM GAS  C:\Users\jo\AppData\Local\Temp\ccnOsBUt.s 			page 60


 3353              	.LBE182:
 3354              		.loc 1 1466 0
 3355 0040 2B89     		ldrh	r3, [r5, #8]
 3356 0042 0093     		str	r3, [sp]
 3357 0044 261D     		adds	r6, r4, #4
 3358 0046 3246     		mov	r2, r6
 3359 0048 2146     		mov	r1, r4
 3360 004a 2846     		mov	r0, r5
 3361 004c 0623     		movs	r3, #6
 3362 004e FFF7FEFF 		bl	inet_chksum_pseudo
 3363              	.LVL369:
 3364              		.loc 1 1469 0
 3365 0052 184A     		ldr	r2, .L415
 3366              		.loc 1 1466 0
 3367 0054 3882     		strh	r0, [r7, #16]	@ unaligned
 3368              		.loc 1 1469 0
 3369 0056 B2F89030 		ldrh	r3, [r2, #144]
 3370 005a 0133     		adds	r3, r3, #1
 3371 005c A2F89030 		strh	r3, [r2, #144]	@ movhi
 3372              		.loc 1 1476 0
 3373 0060 0027     		movs	r7, #0
 3374              	.LVL370:
 3375 0062 0620     		movs	r0, #6
 3376 0064 A37A     		ldrb	r3, [r4, #10]	@ zero_extendqisi2
 3377 0066 0190     		str	r0, [sp, #4]
 3378 0068 3246     		mov	r2, r6
 3379 006a 2146     		mov	r1, r4
 3380 006c 0097     		str	r7, [sp]
 3381 006e 2846     		mov	r0, r5
 3382 0070 FFF7FEFF 		bl	ip_output
 3383              	.LVL371:
 3384              		.loc 1 1479 0
 3385 0074 2846     		mov	r0, r5
 3386              		.loc 1 1484 0
 3387 0076 03B0     		add	sp, sp, #12
 3388              		.cfi_remember_state
 3389              		.cfi_def_cfa_offset 20
 3390              		@ sp needed
 3391 0078 BDE8F040 		pop	{r4, r5, r6, r7, lr}
 3392              		.cfi_restore 14
 3393              		.cfi_restore 7
 3394              		.cfi_restore 6
 3395              		.cfi_restore 5
 3396              		.cfi_restore 4
 3397              		.cfi_def_cfa_offset 0
 3398              	.LVL372:
 3399              		.loc 1 1479 0
 3400 007c FFF7FEBF 		b	pbuf_free
 3401              	.LVL373:
 3402              	.L414:
 3403              		.cfi_restore_state
 3404              		.loc 1 1442 0 discriminator 1
 3405 0080 3189     		ldrh	r1, [r6, #8]
 3406 0082 0029     		cmp	r1, #0
 3407 0084 C8D1     		bne	.L395
 3408              	.LVL374:
 3409              		.loc 1 1446 0
ARM GAS  C:\Users\jo\AppData\Local\Temp\ccnOsBUt.s 			page 61


 3410 0086 F368     		ldr	r3, [r6, #12]
 3411 0088 2046     		mov	r0, r4
 3412 008a 5A68     		ldr	r2, [r3, #4]	@ unaligned
 3413 008c FFF7FEFF 		bl	tcp_output_alloc_header.constprop.1
 3414              	.LVL375:
 3415              		.loc 1 1447 0
 3416 0090 0546     		mov	r5, r0
 3417 0092 68B1     		cbz	r0, .L392
 3418              		.loc 1 1451 0
 3419 0094 6F68     		ldr	r7, [r5, #4]
 3420              	.LVL376:
 3421              		.loc 1 1455 0
 3422 0096 1120     		movs	r0, #17
 3423              	.LVL377:
 3424 0098 BE89     		ldrh	r6, [r7, #12]	@ unaligned
 3425              	.LVL378:
 3426 009a FFF7FEFF 		bl	lwip_htons
 3427              	.LVL379:
 3428 009e 26F47C56 		bic	r6, r6, #16128
 3429 00a2 B6B2     		uxth	r6, r6
 3430 00a4 3043     		orrs	r0, r0, r6
 3431 00a6 B881     		strh	r0, [r7, #12]	@ unaligned
 3432 00a8 CAE7     		b	.L397
 3433              	.LVL380:
 3434              	.L413:
 3435              		.loc 1 1436 0
 3436 00aa C66E     		ldr	r6, [r0, #108]
 3437              	.LVL381:
 3438              		.loc 1 1438 0
 3439 00ac 002E     		cmp	r6, #0
 3440 00ae ACD1     		bne	.L393
 3441              	.LVL382:
 3442              	.L392:
 3443              		.loc 1 1484 0
 3444 00b0 03B0     		add	sp, sp, #12
 3445              		.cfi_def_cfa_offset 20
 3446              		@ sp needed
 3447 00b2 F0BD     		pop	{r4, r5, r6, r7, pc}
 3448              	.LVL383:
 3449              	.L416:
 3450              		.align	2
 3451              	.L415:
 3452 00b4 00000000 		.word	lwip_stats
 3453              		.cfi_endproc
 3454              	.LFE271:
 3455              		.size	tcp_zero_window_probe, .-tcp_zero_window_probe
 3456 00b8 AFF30080 		.section	.rodata.str1.4,"aMS",%progbits,1
 3456      AFF30080 
 3457              		.align	2
 3458              	.LC0:
 3459 0000 41737365 		.ascii	"Assertion \"%s\" failed at line %d in %s\012\000"
 3459      7274696F 
 3459      6E202225 
 3459      73222066 
 3459      61696C65 
 3460              	.LC1:
 3461 0028 63686563 		.ascii	"check that first pbuf can hold struct tcp_hdr\000"
ARM GAS  C:\Users\jo\AppData\Local\Temp\ccnOsBUt.s 			page 62


 3461      6B207468 
 3461      61742066 
 3461      69727374 
 3461      20706275 
 3462 0056 0000     		.space	2
 3463              	.LC2:
 3464 0058 2E2E2F2E 		.ascii	"../../../os/ext/lwip-1.4.1/src/core/tcp_out.c\000"
 3464      2E2F2E2E 
 3464      2F6F732F 
 3464      6578742F 
 3464      6C776970 
 3465 0086 0000     		.space	2
 3466              	.LC3:
 3467 0088 6E656564 		.ascii	"need unchained pbuf\000"
 3467      20756E63 
 3467      6861696E 
 3467      65642070 
 3467      62756600 
 3468              	.LC4:
 3469 009c 7463705F 		.ascii	"tcp_write: arg == NULL (programmer violates API)\000"
 3469      77726974 
 3469      653A2061 
 3469      7267203D 
 3469      3D204E55 
 3470 00cd 000000   		.space	3
 3471              	.LC5:
 3472 00d0 7463705F 		.ascii	"tcp_write: pbufs on queue => at least one queue non"
 3472      77726974 
 3472      653A2070 
 3472      62756673 
 3472      206F6E20 
 3473 0103 2D656D70 		.ascii	"-empty\000"
 3473      747900
 3474 010a 0000     		.space	2
 3475              	.LC6:
 3476 010c 7463705F 		.ascii	"tcp_write: no pbufs on queue => both queues empty\000"
 3476      77726974 
 3476      653A206E 
 3476      6F207062 
 3476      75667320 
 3477 013e 0000     		.space	2
 3478              	.LC7:
 3479 0140 696E636F 		.ascii	"inconsistend oversize vs. len\000"
 3479      6E736973 
 3479      74656E64 
 3479      206F7665 
 3479      7273697A 
 3480 015e 0000     		.space	2
 3481              	.LC8:
 3482 0160 756E7365 		.ascii	"unsent_oversize mismatch (pcb->unsent is NULL)\000"
 3482      6E745F6F 
 3482      76657273 
 3482      697A6520 
 3482      6D69736D 
 3483 018f 00       		.space	1
 3484              	.LC9:
 3485 0190 7463705F 		.ascii	"tcp_write: check that first pbuf can hold the compl"
ARM GAS  C:\Users\jo\AppData\Local\Temp\ccnOsBUt.s 			page 63


 3485      77726974 
 3485      653A2063 
 3485      6865636B 
 3485      20746861 
 3486 01c3 65746520 		.ascii	"ete seglen\000"
 3486      7365676C 
 3486      656E00
 3487 01ce 0000     		.space	2
 3488              	.LC10:
 3489 01d0 6F766572 		.ascii	"oversize == 0\000"
 3489      73697A65 
 3489      203D3D20 
 3489      3000
 3490 01de 0000     		.space	2
 3491              	.LC11:
 3492 01e0 70726576 		.ascii	"prev_seg != NULL\000"
 3492      5F736567 
 3492      20213D20 
 3492      4E554C4C 
 3492      00
 3493 01f1 000000   		.space	3
 3494              	.LC12:
 3495 01f4 7463705F 		.ascii	"tcp_write: cannot concatenate when pcb->unsent is e"
 3495      77726974 
 3495      653A2063 
 3495      616E6E6F 
 3495      7420636F 
 3496 0227 6D707479 		.ascii	"mpty\000"
 3496      00
 3497              	.LC13:
 3498 022c 7463705F 		.ascii	"tcp_write: valid queue length\000"
 3498      77726974 
 3498      653A2076 
 3498      616C6964 
 3498      20717565 
 3499 024a 0000     		.space	2
 3500              	.LC14:
 3501 024c 7463705F 		.ascii	"tcp_enqueue_flags: need either TCP_SYN or TCP_FIN i"
 3501      656E7175 
 3501      6575655F 
 3501      666C6167 
 3501      733A206E 
 3502 027f 6E20666C 		.ascii	"n flags (programmer violates API)\000"
 3502      61677320 
 3502      2870726F 
 3502      6772616D 
 3502      6D657220 
 3503 02a1 000000   		.space	3
 3504              	.LC15:
 3505 02a4 7463705F 		.ascii	"tcp_enqueue_flags: check that first pbuf can hold o"
 3505      656E7175 
 3505      6575655F 
 3505      666C6167 
 3505      733A2063 
 3506 02d7 70746C65 		.ascii	"ptlen\000"
 3506      6E00
 3507 02dd 000000   		.space	3
ARM GAS  C:\Users\jo\AppData\Local\Temp\ccnOsBUt.s 			page 64


 3508              	.LC16:
 3509 02e0 7365672D 		.ascii	"seg->tcphdr not aligned\000"
 3509      3E746370 
 3509      68647220 
 3509      6E6F7420 
 3509      616C6967 
 3510              	.LC17:
 3511 02f8 7463705F 		.ascii	"tcp_enqueue_flags: invalid segment length\000"
 3511      656E7175 
 3511      6575655F 
 3511      666C6167 
 3511      733A2069 
 3512 0322 0000     		.space	2
 3513              	.LC18:
 3514 0324 7463705F 		.ascii	"tcp_enqueue_flags: invalid queue length\000"
 3514      656E7175 
 3514      6575655F 
 3514      666C6167 
 3514      733A2069 
 3515              	.LC19:
 3516 034c 646F6E27 		.ascii	"don't call tcp_output for listen-pcbs\000"
 3516      74206361 
 3516      6C6C2074 
 3516      63705F6F 
 3516      75747075 
 3517 0372 0000     		.space	2
 3518              	.LC20:
 3519 0374 52535420 		.ascii	"RST not expected here!\000"
 3519      6E6F7420 
 3519      65787065 
 3519      63746564 
 3519      20686572 
 3520 038b 00       		.text
 3521              	.Letext0:
 3522              		.file 4 "c:\\program files\\gnu tools arm embedded\\4.9 2014q4\\lib\\gcc\\arm-none-eabi\\4.9.3\\in
 3523              		.file 5 "c:\\program files\\gnu tools arm embedded\\4.9 2014q4\\arm-none-eabi\\include\\machine\\_
 3524              		.file 6 "c:\\program files\\gnu tools arm embedded\\4.9 2014q4\\arm-none-eabi\\include\\stdint.h"
 3525              		.file 7 "../../../os/rt/ports/ARMCMx/compilers/GCC/chtypes.h"
 3526              		.file 8 "../../../os/rt/include/chsystypes.h"
 3527              		.file 9 "../../../os/rt/include/chschd.h"
 3528              		.file 10 "../../../os/rt/ports/ARMCMx/chcore.h"
 3529              		.file 11 "../../../os/rt/ports/ARMCMx/chcore_v7m.h"
 3530              		.file 12 "c:\\program files\\gnu tools arm embedded\\4.9 2014q4\\lib\\gcc\\arm-none-eabi\\4.9.3\\i
 3531              		.file 13 "<built-in>"
 3532              		.file 14 "../../../os/rt/include/chtm.h"
 3533              		.file 15 "../../../os/rt/include/chmtx.h"
 3534              		.file 16 "../../../os/rt/include/chstreams.h"
 3535              		.file 17 "./ITM_trace.h"
 3536              		.file 18 "../../../os/various/lwip_bindings/arch/cc.h"
 3537              		.file 19 "../../../os/ext/lwip-1.4.1/src/include/lwip/mem.h"
 3538              		.file 20 "../../../os/ext/lwip-1.4.1/src/include/lwip/err.h"
 3539              		.file 21 "../../../os/ext/lwip-1.4.1/src/include/lwip/pbuf.h"
 3540              		.file 22 "../../../os/ext/lwip-1.4.1/src/include/ipv4/lwip/ip_addr.h"
 3541              		.file 23 "../../../os/ext/lwip-1.4.1/src/include/lwip/netif.h"
 3542              		.file 24 "../../../os/ext/lwip-1.4.1/src/include/lwip/tcp.h"
 3543              		.file 25 "../../../os/ext/lwip-1.4.1/src/include/lwip/tcp_impl.h"
 3544              		.file 26 "../../../os/ext/lwip-1.4.1/src/include/lwip/memp.h"
ARM GAS  C:\Users\jo\AppData\Local\Temp\ccnOsBUt.s 			page 65


 3545              		.file 27 "../../../os/ext/lwip-1.4.1/src/include/lwip/stats.h"
 3546              		.file 28 "../../../os/ext/CMSIS/include/core_cm4.h"
 3547              		.file 29 "../../../os/ext/lwip-1.4.1/src/include/lwip/def.h"
 3548              		.file 30 "../../../os/rt/include/chsys.h"
 3549              		.file 31 "../../../os/ext/lwip-1.4.1/src/include/ipv4/lwip/inet_chksum.h"
 3550              		.file 32 "../../../os/ext/lwip-1.4.1/src/include/ipv4/lwip/ip.h"