ARM GAS  C:\Users\jo\AppData\Local\Temp\cc2cuyoe.s 			page 1


   1              		.syntax unified
   2              		.cpu cortex-m4
   3              		.eabi_attribute 27, 3
   4              		.eabi_attribute 28, 1
   5              		.fpu fpv4-sp-d16
   6              		.eabi_attribute 20, 1
   7              		.eabi_attribute 21, 1
   8              		.eabi_attribute 23, 3
   9              		.eabi_attribute 24, 1
  10              		.eabi_attribute 25, 1
  11              		.eabi_attribute 26, 1
  12              		.eabi_attribute 30, 2
  13              		.eabi_attribute 34, 1
  14              		.eabi_attribute 18, 4
  15              		.thumb
  16              		.file	"timers.c"
  17              		.text
  18              	.Ltext0:
  19              		.cfi_sections	.debug_frame
  20              		.section	.text.chprintf.constprop.0,"ax",%progbits
  21              		.align	2
  22              		.p2align 4,,15
  23              		.thumb
  24              		.thumb_func
  25              		.type	chprintf.constprop.0, %function
  26              	chprintf.constprop.0:
  27              	.LFB264:
  28              		.file 1 "../../../os/hal/lib/streams/chprintf.h"
  29              		.loc 1 69 0
  30              		.cfi_startproc
  31              		@ args = 4, pretend = 12, frame = 8
  32              		@ frame_needed = 0, uses_anonymous_args = 1
  33              	.LVL0:
  34 0000 0EB4     		push	{r1, r2, r3}
  35              		.cfi_def_cfa_offset 12
  36              		.cfi_offset 1, -12
  37              		.cfi_offset 2, -8
  38              		.cfi_offset 3, -4
  39 0002 00B5     		push	{lr}
  40              		.cfi_def_cfa_offset 16
  41              		.cfi_offset 14, -16
  42 0004 82B0     		sub	sp, sp, #8
  43              		.cfi_def_cfa_offset 24
  44              		.loc 1 73 0
  45 0006 04AB     		add	r3, sp, #16
  46              		.loc 1 74 0
  47 0008 1A46     		mov	r2, r3
  48 000a 0549     		ldr	r1, .L3
  49 000c 0548     		ldr	r0, .L3+4
  50              	.LVL1:
  51              		.loc 1 73 0
  52 000e 0193     		str	r3, [sp, #4]
  53              		.loc 1 74 0
  54 0010 FFF7FEFF 		bl	chvprintf
  55              	.LVL2:
  56              		.loc 1 78 0
  57 0014 02B0     		add	sp, sp, #8
ARM GAS  C:\Users\jo\AppData\Local\Temp\cc2cuyoe.s 			page 2


  58              		.cfi_def_cfa_offset 16
  59              		@ sp needed
  60 0016 5DF804EB 		ldr	lr, [sp], #4
  61              		.cfi_restore 14
  62              		.cfi_def_cfa_offset 12
  63 001a 03B0     		add	sp, sp, #12
  64              		.cfi_restore 3
  65              		.cfi_restore 2
  66              		.cfi_restore 1
  67              		.cfi_def_cfa_offset 0
  68 001c 7047     		bx	lr
  69              	.L4:
  70 001e 00BF     		.align	2
  71              	.L3:
  72 0020 00000000 		.word	.LC0
  73 0024 00000000 		.word	itm_port
  74              		.cfi_endproc
  75              	.LFE264:
  76              		.size	chprintf.constprop.0, .-chprintf.constprop.0
  77 0028 AFF30080 		.section	.text.sys_timeout,"ax",%progbits
  77      AFF30080 
  78              		.align	2
  79              		.p2align 4,,15
  80              		.global	sys_timeout
  81              		.thumb
  82              		.thumb_func
  83              		.type	sys_timeout, %function
  84              	sys_timeout:
  85              	.LFB261:
  86              		.file 2 "../../../os/ext/lwip-1.4.1/src/core/timers.c"
  87              		.loc 2 268 0
  88              		.cfi_startproc
  89              		@ args = 0, pretend = 0, frame = 0
  90              		@ frame_needed = 0, uses_anonymous_args = 0
  91              	.LVL3:
  92 0000 F0B5     		push	{r4, r5, r6, r7, lr}
  93              		.cfi_def_cfa_offset 20
  94              		.cfi_offset 4, -20
  95              		.cfi_offset 5, -16
  96              		.cfi_offset 6, -12
  97              		.cfi_offset 7, -8
  98              		.cfi_offset 14, -4
  99 0002 0446     		mov	r4, r0
 100 0004 83B0     		sub	sp, sp, #12
 101              		.cfi_def_cfa_offset 32
 102              		.loc 2 271 0
 103 0006 0B20     		movs	r0, #11
 104              	.LVL4:
 105              		.loc 2 268 0
 106 0008 0D46     		mov	r5, r1
 107 000a 1746     		mov	r7, r2
 108              		.loc 2 271 0
 109 000c FFF7FEFF 		bl	memp_malloc
 110              	.LVL5:
 111              		.loc 2 272 0
 112 0010 30B3     		cbz	r0, .L20
 113              		.loc 2 286 0
ARM GAS  C:\Users\jo\AppData\Local\Temp\cc2cuyoe.s 			page 3


 114 0012 1B4E     		ldr	r6, .L24
 115              		.loc 2 277 0
 116 0014 8560     		str	r5, [r0, #8]
 117              		.loc 2 286 0
 118 0016 3568     		ldr	r5, [r6]
 119              	.LVL6:
 120              		.loc 2 278 0
 121 0018 C760     		str	r7, [r0, #12]
 122              		.loc 2 276 0
 123 001a 0023     		movs	r3, #0
 124 001c 80E81800 		stmia	r0, {r3, r4}
 125              		.loc 2 286 0
 126 0020 E5B1     		cbz	r5, .L21
 127              		.loc 2 291 0
 128 0022 6968     		ldr	r1, [r5, #4]
 129 0024 8C42     		cmp	r4, r1
 130 0026 0ED3     		bcc	.L22
 131              		.loc 2 291 0 is_stmt 0 discriminator 1
 132 0028 2346     		mov	r3, r4
 133 002a 03E0     		b	.L11
 134              	.LVL7:
 135              	.L17:
 136              		.loc 2 298 0 is_stmt 1 discriminator 1
 137 002c 5168     		ldr	r1, [r2, #4]
 138 002e 8B42     		cmp	r3, r1
 139 0030 0FD3     		bcc	.L10
 140 0032 1546     		mov	r5, r2
 141              	.LVL8:
 142              	.L11:
 143 0034 2A68     		ldr	r2, [r5]
 144              		.loc 2 297 0 discriminator 1
 145 0036 5B1A     		subs	r3, r3, r1
 146 0038 4360     		str	r3, [r0, #4]
 147              		.loc 2 298 0 discriminator 1
 148 003a 002A     		cmp	r2, #0
 149 003c F6D1     		bne	.L17
 150              		.loc 2 302 0
 151 003e 0260     		str	r2, [r0]
 152              		.loc 2 303 0
 153 0040 2860     		str	r0, [r5]
 154              	.L23:
 155              		.loc 2 308 0
 156 0042 03B0     		add	sp, sp, #12
 157              		.cfi_remember_state
 158              		.cfi_def_cfa_offset 20
 159              		@ sp needed
 160 0044 F0BD     		pop	{r4, r5, r6, r7, pc}
 161              	.LVL9:
 162              	.L22:
 163              		.cfi_restore_state
 164              		.loc 2 292 0
 165 0046 0B1B     		subs	r3, r1, r4
 166 0048 6B60     		str	r3, [r5, #4]
 167              		.loc 2 294 0
 168 004a 3060     		str	r0, [r6]
 169              		.loc 2 293 0
 170 004c 0560     		str	r5, [r0]
ARM GAS  C:\Users\jo\AppData\Local\Temp\cc2cuyoe.s 			page 4


 171              	.L5:
 172              		.loc 2 308 0
 173 004e 03B0     		add	sp, sp, #12
 174              		.cfi_remember_state
 175              		.cfi_def_cfa_offset 20
 176              		@ sp needed
 177 0050 F0BD     		pop	{r4, r5, r6, r7, pc}
 178              	.LVL10:
 179              	.L10:
 180              		.cfi_restore_state
 181              		.loc 2 300 0
 182 0052 CB1A     		subs	r3, r1, r3
 183 0054 5360     		str	r3, [r2, #4]
 184              		.loc 2 302 0
 185 0056 0260     		str	r2, [r0]
 186              		.loc 2 303 0
 187 0058 2860     		str	r0, [r5]
 188 005a F2E7     		b	.L23
 189              	.LVL11:
 190              	.L21:
 191              		.loc 2 287 0
 192 005c 3060     		str	r0, [r6]
 193              		.loc 2 288 0
 194 005e F6E7     		b	.L5
 195              	.LVL12:
 196              	.L20:
 197              		.loc 2 273 0 discriminator 1
 198 0060 084B     		ldr	r3, .L24+4
 199 0062 0093     		str	r3, [sp]
 200 0064 0849     		ldr	r1, .L24+8
 201 0066 094A     		ldr	r2, .L24+12
 202 0068 0948     		ldr	r0, .L24+16
 203              	.LVL13:
 204 006a 40F21113 		movw	r3, #273
 205 006e FFF7FEFF 		bl	chprintf.constprop.0
 206              	.LVL14:
 207              	.LBB4:
 208              	.LBB5:
 209              		.file 3 "../../../os/hal/osal/rt/osal.h"
 210              		.loc 3 414 0 discriminator 1
 211 0072 0648     		ldr	r0, .L24+12
 212              	.LBE5:
 213              	.LBE4:
 214              		.loc 2 308 0 discriminator 1
 215 0074 03B0     		add	sp, sp, #12
 216              		.cfi_def_cfa_offset 20
 217              		@ sp needed
 218 0076 BDE8F040 		pop	{r4, r5, r6, r7, lr}
 219              		.cfi_restore 14
 220              		.cfi_restore 7
 221              		.cfi_restore 6
 222              		.cfi_restore 5
 223              		.cfi_restore 4
 224              		.cfi_def_cfa_offset 0
 225              	.LVL15:
 226              	.LBB7:
 227              	.LBB6:
ARM GAS  C:\Users\jo\AppData\Local\Temp\cc2cuyoe.s 			page 5


 228              		.loc 3 414 0 discriminator 1
 229 007a FFF7FEBF 		b	chSysHalt
 230              	.LVL16:
 231              	.L25:
 232 007e 00BF     		.align	2
 233              	.L24:
 234 0080 00000000 		.word	.LANCHOR0
 235 0084 68000000 		.word	.LC2
 236 0088 00000000 		.word	.LC0
 237 008c 28000000 		.word	.LC1
 238 0090 00000000 		.word	itm_port
 239              	.LBE6:
 240              	.LBE7:
 241              		.cfi_endproc
 242              	.LFE261:
 243              		.size	sys_timeout, .-sys_timeout
 244 0094 AFF30080 		.section	.text.tcp_timer_needed,"ax",%progbits
 244      AFF30080 
 244      AFF30080 
 245              		.align	2
 246              		.p2align 4,,15
 247              		.global	tcp_timer_needed
 248              		.thumb
 249              		.thumb_func
 250              		.type	tcp_timer_needed, %function
 251              	tcp_timer_needed:
 252              	.LFB257:
 253              		.loc 2 102 0
 254              		.cfi_startproc
 255              		@ args = 0, pretend = 0, frame = 0
 256              		@ frame_needed = 0, uses_anonymous_args = 0
 257              		@ link register save eliminated.
 258              		.loc 2 104 0
 259 0000 084B     		ldr	r3, .L33
 260 0002 1A68     		ldr	r2, [r3]
 261 0004 6AB9     		cbnz	r2, .L26
 262              		.loc 2 104 0 is_stmt 0 discriminator 1
 263 0006 084A     		ldr	r2, .L33+4
 264 0008 1268     		ldr	r2, [r2]
 265 000a 32B1     		cbz	r2, .L32
 266              	.L28:
 267              		.loc 2 106 0 is_stmt 1
 268 000c 0122     		movs	r2, #1
 269 000e 1A60     		str	r2, [r3]
 270              		.loc 2 107 0
 271 0010 FA20     		movs	r0, #250
 272 0012 0649     		ldr	r1, .L33+8
 273 0014 0022     		movs	r2, #0
 274 0016 FFF7FEBF 		b	sys_timeout
 275              	.LVL17:
 276              	.L32:
 277              		.loc 2 104 0 discriminator 2
 278 001a 054A     		ldr	r2, .L33+12
 279 001c 1268     		ldr	r2, [r2]
 280 001e 002A     		cmp	r2, #0
 281 0020 F4D1     		bne	.L28
 282              	.L26:
ARM GAS  C:\Users\jo\AppData\Local\Temp\cc2cuyoe.s 			page 6


 283 0022 7047     		bx	lr
 284              	.L34:
 285              		.align	2
 286              	.L33:
 287 0024 00000000 		.word	.LANCHOR1
 288 0028 00000000 		.word	tcp_active_pcbs
 289 002c 00000000 		.word	tcpip_tcp_timer
 290 0030 00000000 		.word	tcp_tw_pcbs
 291              		.cfi_endproc
 292              	.LFE257:
 293              		.size	tcp_timer_needed, .-tcp_timer_needed
 294 0034 AFF30080 		.section	.text.tcpip_tcp_timer,"ax",%progbits
 294      AFF30080 
 294      AFF30080 
 295              		.align	2
 296              		.p2align 4,,15
 297              		.thumb
 298              		.thumb_func
 299              		.type	tcpip_tcp_timer, %function
 300              	tcpip_tcp_timer:
 301              	.LFB256:
 302              		.loc 2 80 0
 303              		.cfi_startproc
 304              		@ args = 0, pretend = 0, frame = 0
 305              		@ frame_needed = 0, uses_anonymous_args = 0
 306              	.LVL18:
 307 0000 08B5     		push	{r3, lr}
 308              		.cfi_def_cfa_offset 8
 309              		.cfi_offset 3, -8
 310              		.cfi_offset 14, -4
 311              		.loc 2 84 0
 312 0002 FFF7FEFF 		bl	tcp_tmr
 313              	.LVL19:
 314              		.loc 2 86 0
 315 0006 084B     		ldr	r3, .L40
 316 0008 1B68     		ldr	r3, [r3]
 317 000a 33B1     		cbz	r3, .L39
 318              	.L36:
 319              		.loc 2 88 0
 320 000c FA20     		movs	r0, #250
 321 000e 0749     		ldr	r1, .L40+4
 322 0010 0022     		movs	r2, #0
 323              		.loc 2 93 0
 324 0012 BDE80840 		pop	{r3, lr}
 325              		.cfi_remember_state
 326              		.cfi_restore 14
 327              		.cfi_restore 3
 328              		.cfi_def_cfa_offset 0
 329              		.loc 2 88 0
 330 0016 FFF7FEBF 		b	sys_timeout
 331              	.LVL20:
 332              	.L39:
 333              		.cfi_restore_state
 334              		.loc 2 86 0 discriminator 1
 335 001a 054B     		ldr	r3, .L40+8
 336 001c 1B68     		ldr	r3, [r3]
 337 001e 002B     		cmp	r3, #0
ARM GAS  C:\Users\jo\AppData\Local\Temp\cc2cuyoe.s 			page 7


 338 0020 F4D1     		bne	.L36
 339              		.loc 2 91 0
 340 0022 044A     		ldr	r2, .L40+12
 341 0024 1360     		str	r3, [r2]
 342 0026 08BD     		pop	{r3, pc}
 343              	.L41:
 344              		.align	2
 345              	.L40:
 346 0028 00000000 		.word	tcp_active_pcbs
 347 002c 00000000 		.word	tcpip_tcp_timer
 348 0030 00000000 		.word	tcp_tw_pcbs
 349 0034 00000000 		.word	.LANCHOR1
 350              		.cfi_endproc
 351              	.LFE256:
 352              		.size	tcpip_tcp_timer, .-tcpip_tcp_timer
 353 0038 AFF30080 		.section	.text.sys_timeouts_init,"ax",%progbits
 353      AFF30080 
 354              		.align	2
 355              		.p2align 4,,15
 356              		.global	sys_timeouts_init
 357              		.thumb
 358              		.thumb_func
 359              		.type	sys_timeouts_init, %function
 360              	sys_timeouts_init:
 361              	.LFB260:
 362              		.loc 2 224 0
 363              		.cfi_startproc
 364              		@ args = 0, pretend = 0, frame = 0
 365              		@ frame_needed = 0, uses_anonymous_args = 0
 366 0000 08B5     		push	{r3, lr}
 367              		.cfi_def_cfa_offset 8
 368              		.cfi_offset 3, -8
 369              		.cfi_offset 14, -4
 370              		.loc 2 226 0
 371 0002 4FF47A70 		mov	r0, #1000
 372 0006 0649     		ldr	r1, .L44
 373 0008 0022     		movs	r2, #0
 374 000a FFF7FEFF 		bl	sys_timeout
 375              	.LVL21:
 376              		.loc 2 229 0
 377 000e 41F28830 		movw	r0, #5000
 378 0012 0449     		ldr	r1, .L44+4
 379 0014 0022     		movs	r2, #0
 380              		.loc 2 249 0
 381 0016 BDE80840 		pop	{r3, lr}
 382              		.cfi_restore 14
 383              		.cfi_restore 3
 384              		.cfi_def_cfa_offset 0
 385              		.loc 2 229 0
 386 001a FFF7FEBF 		b	sys_timeout
 387              	.LVL22:
 388              	.L45:
 389 001e 00BF     		.align	2
 390              	.L44:
 391 0020 00000000 		.word	ip_reass_timer
 392 0024 00000000 		.word	arp_timer
 393              		.cfi_endproc
ARM GAS  C:\Users\jo\AppData\Local\Temp\cc2cuyoe.s 			page 8


 394              	.LFE260:
 395              		.size	sys_timeouts_init, .-sys_timeouts_init
 396 0028 AFF30080 		.section	.text.arp_timer,"ax",%progbits
 396      AFF30080 
 397              		.align	2
 398              		.p2align 4,,15
 399              		.thumb
 400              		.thumb_func
 401              		.type	arp_timer, %function
 402              	arp_timer:
 403              	.LFB259:
 404              		.loc 2 136 0
 405              		.cfi_startproc
 406              		@ args = 0, pretend = 0, frame = 0
 407              		@ frame_needed = 0, uses_anonymous_args = 0
 408              	.LVL23:
 409 0000 08B5     		push	{r3, lr}
 410              		.cfi_def_cfa_offset 8
 411              		.cfi_offset 3, -8
 412              		.cfi_offset 14, -4
 413              		.loc 2 139 0
 414 0002 FFF7FEFF 		bl	etharp_tmr
 415              	.LVL24:
 416              		.loc 2 140 0
 417 0006 41F28830 		movw	r0, #5000
 418 000a 0349     		ldr	r1, .L48
 419 000c 0022     		movs	r2, #0
 420              		.loc 2 141 0
 421 000e BDE80840 		pop	{r3, lr}
 422              		.cfi_restore 14
 423              		.cfi_restore 3
 424              		.cfi_def_cfa_offset 0
 425              		.loc 2 140 0
 426 0012 FFF7FEBF 		b	sys_timeout
 427              	.LVL25:
 428              	.L49:
 429 0016 00BF     		.align	2
 430              	.L48:
 431 0018 00000000 		.word	arp_timer
 432              		.cfi_endproc
 433              	.LFE259:
 434              		.size	arp_timer, .-arp_timer
 435 001c AFF30080 		.section	.text.ip_reass_timer,"ax",%progbits
 436              		.align	2
 437              		.p2align 4,,15
 438              		.thumb
 439              		.thumb_func
 440              		.type	ip_reass_timer, %function
 441              	ip_reass_timer:
 442              	.LFB258:
 443              		.loc 2 120 0
 444              		.cfi_startproc
 445              		@ args = 0, pretend = 0, frame = 0
 446              		@ frame_needed = 0, uses_anonymous_args = 0
 447              	.LVL26:
 448 0000 08B5     		push	{r3, lr}
 449              		.cfi_def_cfa_offset 8
ARM GAS  C:\Users\jo\AppData\Local\Temp\cc2cuyoe.s 			page 9


 450              		.cfi_offset 3, -8
 451              		.cfi_offset 14, -4
 452              		.loc 2 123 0
 453 0002 FFF7FEFF 		bl	ip_reass_tmr
 454              	.LVL27:
 455              		.loc 2 124 0
 456 0006 4FF47A70 		mov	r0, #1000
 457 000a 0349     		ldr	r1, .L52
 458 000c 0022     		movs	r2, #0
 459              		.loc 2 125 0
 460 000e BDE80840 		pop	{r3, lr}
 461              		.cfi_restore 14
 462              		.cfi_restore 3
 463              		.cfi_def_cfa_offset 0
 464              		.loc 2 124 0
 465 0012 FFF7FEBF 		b	sys_timeout
 466              	.LVL28:
 467              	.L53:
 468 0016 00BF     		.align	2
 469              	.L52:
 470 0018 00000000 		.word	ip_reass_timer
 471              		.cfi_endproc
 472              	.LFE258:
 473              		.size	ip_reass_timer, .-ip_reass_timer
 474 001c AFF30080 		.section	.text.sys_untimeout,"ax",%progbits
 475              		.align	2
 476              		.p2align 4,,15
 477              		.global	sys_untimeout
 478              		.thumb
 479              		.thumb_func
 480              		.type	sys_untimeout, %function
 481              	sys_untimeout:
 482              	.LFB262:
 483              		.loc 2 322 0
 484              		.cfi_startproc
 485              		@ args = 0, pretend = 0, frame = 0
 486              		@ frame_needed = 0, uses_anonymous_args = 0
 487              		@ link register save eliminated.
 488              	.LVL29:
 489 0000 30B4     		push	{r4, r5}
 490              		.cfi_def_cfa_offset 8
 491              		.cfi_offset 4, -8
 492              		.cfi_offset 5, -4
 493              		.loc 2 325 0
 494 0002 104D     		ldr	r5, .L70
 495 0004 2B68     		ldr	r3, [r5]
 496 0006 CBB1     		cbz	r3, .L54
 497 0008 0024     		movs	r4, #0
 498 000a 03E0     		b	.L60
 499              	.LVL30:
 500              	.L56:
 501              		.loc 2 329 0 discriminator 2
 502 000c 1A68     		ldr	r2, [r3]
 503              	.LVL31:
 504 000e 1C46     		mov	r4, r3
 505 0010 A2B1     		cbz	r2, .L54
 506 0012 1346     		mov	r3, r2
ARM GAS  C:\Users\jo\AppData\Local\Temp\cc2cuyoe.s 			page 10


 507              	.LVL32:
 508              	.L60:
 509              		.loc 2 330 0
 510 0014 9A68     		ldr	r2, [r3, #8]
 511 0016 8242     		cmp	r2, r0
 512 0018 F8D1     		bne	.L56
 513              		.loc 2 330 0 is_stmt 0 discriminator 1
 514 001a DA68     		ldr	r2, [r3, #12]
 515 001c 8A42     		cmp	r2, r1
 516 001e F5D1     		bne	.L56
 517              		.loc 2 334 0 is_stmt 1
 518 0020 1A68     		ldr	r2, [r3]
 519              		.loc 2 333 0
 520 0022 6CB1     		cbz	r4, .L69
 521              		.loc 2 336 0
 522 0024 2260     		str	r2, [r4]
 523 0026 1A68     		ldr	r2, [r3]
 524              	.L58:
 525              		.loc 2 339 0
 526 0028 1AB1     		cbz	r2, .L59
 527              		.loc 2 340 0
 528 002a 5068     		ldr	r0, [r2, #4]
 529              	.LVL33:
 530 002c 5968     		ldr	r1, [r3, #4]
 531              	.LVL34:
 532 002e 0144     		add	r1, r1, r0
 533 0030 5160     		str	r1, [r2, #4]
 534              	.L59:
 535              		.loc 2 342 0
 536 0032 1946     		mov	r1, r3
 537 0034 0B20     		movs	r0, #11
 538              		.loc 2 347 0
 539 0036 30BC     		pop	{r4, r5}
 540              		.cfi_remember_state
 541              		.cfi_restore 5
 542              		.cfi_restore 4
 543              		.cfi_def_cfa_offset 0
 544              		.loc 2 342 0
 545 0038 FFF7FEBF 		b	memp_free
 546              	.LVL35:
 547              	.L54:
 548              		.cfi_restore_state
 549              		.loc 2 347 0
 550 003c 30BC     		pop	{r4, r5}
 551              		.cfi_remember_state
 552              		.cfi_restore 5
 553              		.cfi_restore 4
 554              		.cfi_def_cfa_offset 0
 555 003e 7047     		bx	lr
 556              	.LVL36:
 557              	.L69:
 558              		.cfi_restore_state
 559              		.loc 2 334 0
 560 0040 2A60     		str	r2, [r5]
 561 0042 F1E7     		b	.L58
 562              	.L71:
 563              		.align	2
ARM GAS  C:\Users\jo\AppData\Local\Temp\cc2cuyoe.s 			page 11


 564              	.L70:
 565 0044 00000000 		.word	.LANCHOR0
 566              		.cfi_endproc
 567              	.LFE262:
 568              		.size	sys_untimeout, .-sys_untimeout
 569 0048 AFF30080 		.section	.text.sys_timeouts_mbox_fetch,"ax",%progbits
 569      AFF30080 
 570              		.align	2
 571              		.p2align 4,,15
 572              		.global	sys_timeouts_mbox_fetch
 573              		.thumb
 574              		.thumb_func
 575              		.type	sys_timeouts_mbox_fetch, %function
 576              	sys_timeouts_mbox_fetch:
 577              	.LFB263:
 578              		.loc 2 424 0
 579              		.cfi_startproc
 580              		@ args = 0, pretend = 0, frame = 0
 581              		@ frame_needed = 0, uses_anonymous_args = 0
 582              	.LVL37:
 583 0000 2DE9F843 		push	{r3, r4, r5, r6, r7, r8, r9, lr}
 584              		.cfi_def_cfa_offset 32
 585              		.cfi_offset 3, -32
 586              		.cfi_offset 4, -28
 587              		.cfi_offset 5, -24
 588              		.cfi_offset 6, -20
 589              		.cfi_offset 7, -16
 590              		.cfi_offset 8, -12
 591              		.cfi_offset 9, -8
 592              		.cfi_offset 14, -4
 593 0004 184C     		ldr	r4, .L88
 594              		.loc 2 424 0
 595 0006 0746     		mov	r7, r0
 596 0008 0E46     		mov	r6, r1
 597              		.loc 2 431 0
 598 000a A046     		mov	r8, r4
 599 000c 09E0     		b	.L77
 600              	.LVL38:
 601              	.L75:
 602              		.loc 2 446 0
 603 000e 9D68     		ldr	r5, [r3, #8]
 604              	.LVL39:
 605              		.loc 2 445 0
 606 0010 1A68     		ldr	r2, [r3]
 607 0012 2260     		str	r2, [r4]
 608              		.loc 2 454 0
 609 0014 0B20     		movs	r0, #11
 610 0016 1946     		mov	r1, r3
 611              		.loc 2 447 0
 612 0018 D3F80C90 		ldr	r9, [r3, #12]
 613              	.LVL40:
 614              		.loc 2 454 0
 615 001c FFF7FEFF 		bl	memp_free
 616              	.LVL41:
 617              		.loc 2 455 0
 618 0020 F5B9     		cbnz	r5, .L86
 619              	.LVL42:
ARM GAS  C:\Users\jo\AppData\Local\Temp\cc2cuyoe.s 			page 12


 620              	.L77:
 621              		.loc 2 431 0
 622 0022 2368     		ldr	r3, [r4]
 623 0024 104D     		ldr	r5, .L88
 624 0026 5BB1     		cbz	r3, .L87
 625              		.loc 2 434 0
 626 0028 5A68     		ldr	r2, [r3, #4]
 627 002a 002A     		cmp	r2, #0
 628 002c EFD0     		beq	.L75
 629              		.loc 2 435 0
 630 002e 3846     		mov	r0, r7
 631 0030 3146     		mov	r1, r6
 632 0032 FFF7FEFF 		bl	sys_arch_mbox_fetch
 633              	.LVL43:
 634              		.loc 2 440 0
 635 0036 431C     		adds	r3, r0, #1
 636 0038 09D1     		bne	.L76
 637 003a D8F80030 		ldr	r3, [r8]
 638 003e E6E7     		b	.L75
 639              	.LVL44:
 640              	.L87:
 641              		.loc 2 432 0
 642 0040 3846     		mov	r0, r7
 643 0042 3146     		mov	r1, r6
 644 0044 1A46     		mov	r2, r3
 645              		.loc 2 477 0
 646 0046 BDE8F843 		pop	{r3, r4, r5, r6, r7, r8, r9, lr}
 647              		.cfi_remember_state
 648              		.cfi_restore 14
 649              		.cfi_restore 9
 650              		.cfi_restore 8
 651              		.cfi_restore 7
 652              		.cfi_restore 6
 653              		.cfi_restore 5
 654              		.cfi_restore 4
 655              		.cfi_restore 3
 656              		.cfi_def_cfa_offset 0
 657              	.LVL45:
 658              		.loc 2 432 0
 659 004a FFF7FEBF 		b	sys_arch_mbox_fetch
 660              	.LVL46:
 661              	.L76:
 662              		.cfi_restore_state
 663              		.loc 2 470 0
 664 004e 2A68     		ldr	r2, [r5]
 665 0050 5368     		ldr	r3, [r2, #4]
 666 0052 8342     		cmp	r3, r0
 667              		.loc 2 471 0
 668 0054 8CBF     		ite	hi
 669 0056 1B1A     		subhi	r3, r3, r0
 670              		.loc 2 473 0
 671 0058 0023     		movls	r3, #0
 672 005a 5360     		str	r3, [r2, #4]
 673 005c BDE8F883 		pop	{r3, r4, r5, r6, r7, r8, r9, pc}
 674              	.LVL47:
 675              	.L86:
 676              	.L73:
ARM GAS  C:\Users\jo\AppData\Local\Temp\cc2cuyoe.s 			page 13


 677              		.loc 2 459 0
 678 0060 4846     		mov	r0, r9
 679 0062 A847     		blx	r5
 680              	.LVL48:
 681 0064 DDE7     		b	.L77
 682              	.L89:
 683 0066 00BF     		.align	2
 684              	.L88:
 685 0068 00000000 		.word	.LANCHOR0
 686              		.cfi_endproc
 687              	.LFE263:
 688              		.size	sys_timeouts_mbox_fetch, .-sys_timeouts_mbox_fetch
 689 006c AFF30080 		.section	.bss.tcpip_tcp_timer_active,"aw",%nobits
 690              		.align	2
 691              		.set	.LANCHOR1,. + 0
 692              		.type	tcpip_tcp_timer_active, %object
 693              		.size	tcpip_tcp_timer_active, 4
 694              	tcpip_tcp_timer_active:
 695 0000 00000000 		.space	4
 696              		.section	.bss.next_timeout,"aw",%nobits
 697              		.align	2
 698              		.set	.LANCHOR0,. + 0
 699              		.type	next_timeout, %object
 700              		.size	next_timeout, 4
 701              	next_timeout:
 702 0000 00000000 		.space	4
 703              		.section	.rodata.str1.4,"aMS",%progbits,1
 704              		.align	2
 705              	.LC0:
 706 0000 41737365 		.ascii	"Assertion \"%s\" failed at line %d in %s\012\000"
 706      7274696F 
 706      6E202225 
 706      73222066 
 706      61696C65 
 707              	.LC1:
 708 0028 7379735F 		.ascii	"sys_timeout: timeout != NULL, pool MEMP_SYS_TIMEOUT"
 708      74696D65 
 708      6F75743A 
 708      2074696D 
 708      656F7574 
 709 005b 20697320 		.ascii	" is empty\000"
 709      656D7074 
 709      7900
 710 0065 000000   		.space	3
 711              	.LC2:
 712 0068 2E2E2F2E 		.ascii	"../../../os/ext/lwip-1.4.1/src/core/timers.c\000"
 712      2E2F2E2E 
 712      2F6F732F 
 712      6578742F 
 712      6C776970 
 713 0095 000000   		.text
 714              	.Letext0:
 715              		.file 4 "c:\\program files\\gnu tools arm embedded\\4.9 2014q4\\lib\\gcc\\arm-none-eabi\\4.9.3\\in
 716              		.file 5 "c:\\program files\\gnu tools arm embedded\\4.9 2014q4\\arm-none-eabi\\include\\machine\\_
 717              		.file 6 "c:\\program files\\gnu tools arm embedded\\4.9 2014q4\\arm-none-eabi\\include\\stdint.h"
 718              		.file 7 "../../../os/rt/ports/ARMCMx/compilers/GCC/chtypes.h"
 719              		.file 8 "../../../os/rt/include/chsystypes.h"
ARM GAS  C:\Users\jo\AppData\Local\Temp\cc2cuyoe.s 			page 14


 720              		.file 9 "../../../os/rt/include/chschd.h"
 721              		.file 10 "../../../os/rt/ports/ARMCMx/chcore.h"
 722              		.file 11 "../../../os/rt/ports/ARMCMx/chcore_v7m.h"
 723              		.file 12 "c:\\program files\\gnu tools arm embedded\\4.9 2014q4\\lib\\gcc\\arm-none-eabi\\4.9.3\\i
 724              		.file 13 "<built-in>"
 725              		.file 14 "../../../os/rt/include/chtm.h"
 726              		.file 15 "../../../os/rt/include/chmtx.h"
 727              		.file 16 "../../../os/rt/include/chsem.h"
 728              		.file 17 "../../../os/rt/include/chmboxes.h"
 729              		.file 18 "../../../os/rt/include/chstreams.h"
 730              		.file 19 "./ITM_trace.h"
 731              		.file 20 "../../../os/various/lwip_bindings/arch/cc.h"
 732              		.file 21 "../../../os/ext/lwip-1.4.1/src/include/lwip/err.h"
 733              		.file 22 "../../../os/various/lwip_bindings/arch/sys_arch.h"
 734              		.file 23 "../../../os/ext/lwip-1.4.1/src/include/lwip/timers.h"
 735              		.file 24 "../../../os/ext/lwip-1.4.1/src/include/lwip/pbuf.h"
 736              		.file 25 "../../../os/ext/lwip-1.4.1/src/include/ipv4/lwip/ip_addr.h"
 737              		.file 26 "../../../os/ext/lwip-1.4.1/src/include/lwip/tcp.h"
 738              		.file 27 "../../../os/ext/lwip-1.4.1/src/include/lwip/tcp_impl.h"
 739              		.file 28 "../../../os/ext/lwip-1.4.1/src/include/lwip/memp.h"
 740              		.file 29 "../../../os/ext/CMSIS/include/core_cm4.h"
 741              		.file 30 "../../../os/ext/lwip-1.4.1/src/include/netif/etharp.h"
 742              		.file 31 "../../../os/ext/lwip-1.4.1/src/include/ipv4/lwip/ip_frag.h"
 743              		.file 32 "../../../os/rt/include/chsys.h"
 744              		.file 33 "../../../os/ext/lwip-1.4.1/src/include/lwip/sys.h"
 745              		.section	.debug_info,"",%progbits
 746              	.Ldebug_info0:
 747 0000 4D140000 		.4byte	0x144d
 748 0004 0400     		.2byte	0x4
 749 0006 00000000 		.4byte	.Ldebug_abbrev0
 750 000a 04       		.byte	0x4
 751 000b 01       		.uleb128 0x1
 752 000c 2E0A0000 		.4byte	.LASF263
 753 0010 01       		.byte	0x1
 754 0011 07090000 		.4byte	.LASF264
 755 0015 C4000000 		.4byte	.LASF265
 756 0019 18000000 		.4byte	.Ldebug_ranges0+0x18
 757 001d 00000000 		.4byte	0
 758 0021 00000000 		.4byte	.Ldebug_line0
 759 0025 02       		.uleb128 0x2
 760 0026 04       		.byte	0x4
 761 0027 05       		.byte	0x5
 762 0028 696E7400 		.ascii	"int\000"
 763 002c 03       		.uleb128 0x3
 764 002d A2030000 		.4byte	.LASF1
 765 0031 04       		.byte	0x4
 766 0032 D4       		.byte	0xd4
 767 0033 37000000 		.4byte	0x37
 768 0037 04       		.uleb128 0x4
 769 0038 04       		.byte	0x4
 770 0039 07       		.byte	0x7
 771 003a 0C010000 		.4byte	.LASF0
 772 003e 03       		.uleb128 0x3
 773 003f 7F0B0000 		.4byte	.LASF2
 774 0043 05       		.byte	0x5
 775 0044 1B       		.byte	0x1b
 776 0045 49000000 		.4byte	0x49
ARM GAS  C:\Users\jo\AppData\Local\Temp\cc2cuyoe.s 			page 15


 777 0049 04       		.uleb128 0x4
 778 004a 01       		.byte	0x1
 779 004b 06       		.byte	0x6
 780 004c 470B0000 		.4byte	.LASF3
 781 0050 03       		.uleb128 0x3
 782 0051 10080000 		.4byte	.LASF4
 783 0055 05       		.byte	0x5
 784 0056 1D       		.byte	0x1d
 785 0057 5B000000 		.4byte	0x5b
 786 005b 04       		.uleb128 0x4
 787 005c 01       		.byte	0x1
 788 005d 08       		.byte	0x8
 789 005e 40090000 		.4byte	.LASF5
 790 0062 03       		.uleb128 0x3
 791 0063 F9050000 		.4byte	.LASF6
 792 0067 05       		.byte	0x5
 793 0068 29       		.byte	0x29
 794 0069 6D000000 		.4byte	0x6d
 795 006d 04       		.uleb128 0x4
 796 006e 02       		.byte	0x2
 797 006f 05       		.byte	0x5
 798 0070 04070000 		.4byte	.LASF7
 799 0074 03       		.uleb128 0x3
 800 0075 FD020000 		.4byte	.LASF8
 801 0079 05       		.byte	0x5
 802 007a 2B       		.byte	0x2b
 803 007b 7F000000 		.4byte	0x7f
 804 007f 04       		.uleb128 0x4
 805 0080 02       		.byte	0x2
 806 0081 07       		.byte	0x7
 807 0082 5B0B0000 		.4byte	.LASF9
 808 0086 03       		.uleb128 0x3
 809 0087 94010000 		.4byte	.LASF10
 810 008b 05       		.byte	0x5
 811 008c 3F       		.byte	0x3f
 812 008d 91000000 		.4byte	0x91
 813 0091 04       		.uleb128 0x4
 814 0092 04       		.byte	0x4
 815 0093 05       		.byte	0x5
 816 0094 34070000 		.4byte	.LASF11
 817 0098 03       		.uleb128 0x3
 818 0099 F7040000 		.4byte	.LASF12
 819 009d 05       		.byte	0x5
 820 009e 41       		.byte	0x41
 821 009f A3000000 		.4byte	0xa3
 822 00a3 04       		.uleb128 0x4
 823 00a4 04       		.byte	0x4
 824 00a5 07       		.byte	0x7
 825 00a6 A6080000 		.4byte	.LASF13
 826 00aa 04       		.uleb128 0x4
 827 00ab 08       		.byte	0x8
 828 00ac 05       		.byte	0x5
 829 00ad D7040000 		.4byte	.LASF14
 830 00b1 03       		.uleb128 0x3
 831 00b2 FE030000 		.4byte	.LASF15
 832 00b6 05       		.byte	0x5
 833 00b7 5B       		.byte	0x5b
ARM GAS  C:\Users\jo\AppData\Local\Temp\cc2cuyoe.s 			page 16


 834 00b8 BC000000 		.4byte	0xbc
 835 00bc 04       		.uleb128 0x4
 836 00bd 08       		.byte	0x8
 837 00be 07       		.byte	0x7
 838 00bf D9020000 		.4byte	.LASF16
 839 00c3 03       		.uleb128 0x3
 840 00c4 36040000 		.4byte	.LASF17
 841 00c8 06       		.byte	0x6
 842 00c9 14       		.byte	0x14
 843 00ca 3E000000 		.4byte	0x3e
 844 00ce 03       		.uleb128 0x3
 845 00cf 07050000 		.4byte	.LASF18
 846 00d3 06       		.byte	0x6
 847 00d4 15       		.byte	0x15
 848 00d5 50000000 		.4byte	0x50
 849 00d9 03       		.uleb128 0x3
 850 00da C9020000 		.4byte	.LASF19
 851 00de 06       		.byte	0x6
 852 00df 20       		.byte	0x20
 853 00e0 62000000 		.4byte	0x62
 854 00e4 03       		.uleb128 0x3
 855 00e5 B4060000 		.4byte	.LASF20
 856 00e9 06       		.byte	0x6
 857 00ea 21       		.byte	0x21
 858 00eb 74000000 		.4byte	0x74
 859 00ef 03       		.uleb128 0x3
 860 00f0 D2080000 		.4byte	.LASF21
 861 00f4 06       		.byte	0x6
 862 00f5 2C       		.byte	0x2c
 863 00f6 86000000 		.4byte	0x86
 864 00fa 03       		.uleb128 0x3
 865 00fb 47010000 		.4byte	.LASF22
 866 00ff 06       		.byte	0x6
 867 0100 2D       		.byte	0x2d
 868 0101 98000000 		.4byte	0x98
 869 0105 03       		.uleb128 0x3
 870 0106 C6070000 		.4byte	.LASF23
 871 010a 06       		.byte	0x6
 872 010b 39       		.byte	0x39
 873 010c B1000000 		.4byte	0xb1
 874 0110 05       		.uleb128 0x5
 875 0111 EF000000 		.4byte	0xef
 876 0115 03       		.uleb128 0x3
 877 0116 DE060000 		.4byte	.LASF24
 878 011a 07       		.byte	0x7
 879 011b 45       		.byte	0x45
 880 011c FA000000 		.4byte	0xfa
 881 0120 03       		.uleb128 0x3
 882 0121 90060000 		.4byte	.LASF25
 883 0125 07       		.byte	0x7
 884 0126 48       		.byte	0x48
 885 0127 CE000000 		.4byte	0xce
 886 012b 03       		.uleb128 0x3
 887 012c CE040000 		.4byte	.LASF26
 888 0130 07       		.byte	0x7
 889 0131 49       		.byte	0x49
 890 0132 CE000000 		.4byte	0xce
ARM GAS  C:\Users\jo\AppData\Local\Temp\cc2cuyoe.s 			page 17


 891 0136 03       		.uleb128 0x3
 892 0137 9E080000 		.4byte	.LASF27
 893 013b 07       		.byte	0x7
 894 013c 4A       		.byte	0x4a
 895 013d CE000000 		.4byte	0xce
 896 0141 03       		.uleb128 0x3
 897 0142 B0020000 		.4byte	.LASF28
 898 0146 07       		.byte	0x7
 899 0147 4C       		.byte	0x4c
 900 0148 FA000000 		.4byte	0xfa
 901 014c 03       		.uleb128 0x3
 902 014d D9050000 		.4byte	.LASF29
 903 0151 07       		.byte	0x7
 904 0152 4D       		.byte	0x4d
 905 0153 EF000000 		.4byte	0xef
 906 0157 03       		.uleb128 0x3
 907 0158 72020000 		.4byte	.LASF30
 908 015c 07       		.byte	0x7
 909 015d 4F       		.byte	0x4f
 910 015e FA000000 		.4byte	0xfa
 911 0162 03       		.uleb128 0x3
 912 0163 08030000 		.4byte	.LASF31
 913 0167 07       		.byte	0x7
 914 0168 51       		.byte	0x51
 915 0169 EF000000 		.4byte	0xef
 916 016d 03       		.uleb128 0x3
 917 016e A0000000 		.4byte	.LASF32
 918 0172 08       		.byte	0x8
 919 0173 33       		.byte	0x33
 920 0174 FA000000 		.4byte	0xfa
 921 0178 03       		.uleb128 0x3
 922 0179 73030000 		.4byte	.LASF33
 923 017d 08       		.byte	0x8
 924 017e 3F       		.byte	0x3f
 925 017f 83010000 		.4byte	0x183
 926 0183 06       		.uleb128 0x6
 927 0184 4F050000 		.4byte	.LASF52
 928 0188 44       		.byte	0x44
 929 0189 09       		.byte	0x9
 930 018a BE       		.byte	0xbe
 931 018b 70020000 		.4byte	0x270
 932 018f 07       		.uleb128 0x7
 933 0190 7C030000 		.4byte	.LASF34
 934 0194 09       		.byte	0x9
 935 0195 BF       		.byte	0xbf
 936 0196 4E060000 		.4byte	0x64e
 937 019a 00       		.byte	0
 938 019b 07       		.uleb128 0x7
 939 019c 8C080000 		.4byte	.LASF35
 940 01a0 09       		.byte	0x9
 941 01a1 C1       		.byte	0xc1
 942 01a2 4E060000 		.4byte	0x64e
 943 01a6 04       		.byte	0x4
 944 01a7 07       		.uleb128 0x7
 945 01a8 5E000000 		.4byte	.LASF36
 946 01ac 09       		.byte	0x9
 947 01ad C3       		.byte	0xc3
ARM GAS  C:\Users\jo\AppData\Local\Temp\cc2cuyoe.s 			page 18


 948 01ae 41010000 		.4byte	0x141
 949 01b2 08       		.byte	0x8
 950 01b3 07       		.uleb128 0x7
 951 01b4 CF070000 		.4byte	.LASF37
 952 01b8 09       		.byte	0x9
 953 01b9 C4       		.byte	0xc4
 954 01ba 9A040000 		.4byte	0x49a
 955 01be 0C       		.byte	0xc
 956 01bf 07       		.uleb128 0x7
 957 01c0 25030000 		.4byte	.LASF38
 958 01c4 09       		.byte	0x9
 959 01c5 C6       		.byte	0xc6
 960 01c6 4E060000 		.4byte	0x64e
 961 01ca 10       		.byte	0x10
 962 01cb 07       		.uleb128 0x7
 963 01cc E5040000 		.4byte	.LASF39
 964 01d0 09       		.byte	0x9
 965 01d1 C7       		.byte	0xc7
 966 01d2 4E060000 		.4byte	0x64e
 967 01d6 14       		.byte	0x14
 968 01d7 07       		.uleb128 0x7
 969 01d8 3D040000 		.4byte	.LASF40
 970 01dc 09       		.byte	0x9
 971 01dd CE       		.byte	0xce
 972 01de 23060000 		.4byte	0x623
 973 01e2 18       		.byte	0x18
 974 01e3 07       		.uleb128 0x7
 975 01e4 47050000 		.4byte	.LASF41
 976 01e8 09       		.byte	0x9
 977 01e9 D9       		.byte	0xd9
 978 01ea 2B010000 		.4byte	0x12b
 979 01ee 1C       		.byte	0x1c
 980 01ef 07       		.uleb128 0x7
 981 01f0 F1050000 		.4byte	.LASF42
 982 01f4 09       		.byte	0x9
 983 01f5 DD       		.byte	0xdd
 984 01f6 20010000 		.4byte	0x120
 985 01fa 1D       		.byte	0x1d
 986 01fb 07       		.uleb128 0x7
 987 01fc 7A090000 		.4byte	.LASF43
 988 0200 09       		.byte	0x9
 989 0201 E2       		.byte	0xe2
 990 0202 36010000 		.4byte	0x136
 991 0206 1E       		.byte	0x1e
 992 0207 08       		.uleb128 0x8
 993 0208 705F7500 		.ascii	"p_u\000"
 994 020c 09       		.byte	0x9
 995 020d 1401     		.2byte	0x114
 996 020f 54060000 		.4byte	0x654
 997 0213 20       		.byte	0x20
 998 0214 09       		.uleb128 0x9
 999 0215 8A010000 		.4byte	.LASF44
 1000 0219 09       		.byte	0x9
 1001 021a 1901     		.2byte	0x119
 1002 021c 70020000 		.4byte	0x270
 1003 0220 24       		.byte	0x24
 1004 0221 09       		.uleb128 0x9
ARM GAS  C:\Users\jo\AppData\Local\Temp\cc2cuyoe.s 			page 19


 1005 0222 880B0000 		.4byte	.LASF45
 1006 0226 09       		.byte	0x9
 1007 0227 1F01     		.2byte	0x11f
 1008 0229 94020000 		.4byte	0x294
 1009 022d 28       		.byte	0x28
 1010 022e 09       		.uleb128 0x9
 1011 022f 79060000 		.4byte	.LASF46
 1012 0233 09       		.byte	0x9
 1013 0234 2301     		.2byte	0x123
 1014 0236 4C010000 		.4byte	0x14c
 1015 023a 30       		.byte	0x30
 1016 023b 09       		.uleb128 0x9
 1017 023c 21070000 		.4byte	.LASF47
 1018 0240 09       		.byte	0x9
 1019 0241 2901     		.2byte	0x129
 1020 0243 57010000 		.4byte	0x157
 1021 0247 34       		.byte	0x34
 1022 0248 09       		.uleb128 0x9
 1023 0249 32050000 		.4byte	.LASF48
 1024 024d 09       		.byte	0x9
 1025 024e 3001     		.2byte	0x130
 1026 0250 BD060000 		.4byte	0x6bd
 1027 0254 38       		.byte	0x38
 1028 0255 09       		.uleb128 0x9
 1029 0256 EC060000 		.4byte	.LASF49
 1030 025a 09       		.byte	0x9
 1031 025b 3401     		.2byte	0x134
 1032 025d 41010000 		.4byte	0x141
 1033 0261 3C       		.byte	0x3c
 1034 0262 09       		.uleb128 0x9
 1035 0263 2A050000 		.4byte	.LASF50
 1036 0267 09       		.byte	0x9
 1037 0268 3A01     		.2byte	0x13a
 1038 026a 47030000 		.4byte	0x347
 1039 026e 40       		.byte	0x40
 1040 026f 00       		.byte	0
 1041 0270 03       		.uleb128 0x3
 1042 0271 5E010000 		.4byte	.LASF51
 1043 0275 08       		.byte	0x8
 1044 0276 44       		.byte	0x44
 1045 0277 7B020000 		.4byte	0x27b
 1046 027b 06       		.uleb128 0x6
 1047 027c 07000000 		.4byte	.LASF53
 1048 0280 04       		.byte	0x4
 1049 0281 09       		.byte	0x9
 1050 0282 AC       		.byte	0xac
 1051 0283 94020000 		.4byte	0x294
 1052 0287 07       		.uleb128 0x7
 1053 0288 7C030000 		.4byte	.LASF34
 1054 028c 09       		.byte	0x9
 1055 028d AD       		.byte	0xad
 1056 028e 4E060000 		.4byte	0x64e
 1057 0292 00       		.byte	0
 1058 0293 00       		.byte	0
 1059 0294 03       		.uleb128 0x3
 1060 0295 17000000 		.4byte	.LASF54
 1061 0299 08       		.byte	0x8
ARM GAS  C:\Users\jo\AppData\Local\Temp\cc2cuyoe.s 			page 20


 1062 029a 4B       		.byte	0x4b
 1063 029b 9F020000 		.4byte	0x29f
 1064 029f 06       		.uleb128 0x6
 1065 02a0 88050000 		.4byte	.LASF55
 1066 02a4 08       		.byte	0x8
 1067 02a5 09       		.byte	0x9
 1068 02a6 B3       		.byte	0xb3
 1069 02a7 C4020000 		.4byte	0x2c4
 1070 02ab 07       		.uleb128 0x7
 1071 02ac 7C030000 		.4byte	.LASF34
 1072 02b0 09       		.byte	0x9
 1073 02b1 B4       		.byte	0xb4
 1074 02b2 4E060000 		.4byte	0x64e
 1075 02b6 00       		.byte	0
 1076 02b7 07       		.uleb128 0x7
 1077 02b8 8C080000 		.4byte	.LASF35
 1078 02bc 09       		.byte	0x9
 1079 02bd B5       		.byte	0xb5
 1080 02be 4E060000 		.4byte	0x64e
 1081 02c2 04       		.byte	0x4
 1082 02c3 00       		.byte	0
 1083 02c4 03       		.uleb128 0x3
 1084 02c5 B8080000 		.4byte	.LASF56
 1085 02c9 08       		.byte	0x8
 1086 02ca 52       		.byte	0x52
 1087 02cb CF020000 		.4byte	0x2cf
 1088 02cf 0A       		.uleb128 0xa
 1089 02d0 D2010000 		.4byte	.LASF57
 1090 02d4 1C       		.byte	0x1c
 1091 02d5 09       		.byte	0x9
 1092 02d6 7201     		.2byte	0x172
 1093 02d8 2B030000 		.4byte	0x32b
 1094 02dc 09       		.uleb128 0x9
 1095 02dd B9050000 		.4byte	.LASF58
 1096 02e1 09       		.byte	0x9
 1097 02e2 7301     		.2byte	0x173
 1098 02e4 94020000 		.4byte	0x294
 1099 02e8 00       		.byte	0
 1100 02e9 09       		.uleb128 0x9
 1101 02ea 7E020000 		.4byte	.LASF59
 1102 02ee 09       		.byte	0x9
 1103 02ef 7401     		.2byte	0x174
 1104 02f1 41010000 		.4byte	0x141
 1105 02f5 08       		.byte	0x8
 1106 02f6 09       		.uleb128 0x9
 1107 02f7 6E0B0000 		.4byte	.LASF60
 1108 02fb 09       		.byte	0x9
 1109 02fc 7601     		.2byte	0x176
 1110 02fe 9A040000 		.4byte	0x49a
 1111 0302 0C       		.byte	0xc
 1112 0303 09       		.uleb128 0x9
 1113 0304 A9040000 		.4byte	.LASF61
 1114 0308 09       		.byte	0x9
 1115 0309 7901     		.2byte	0x179
 1116 030b 4E060000 		.4byte	0x64e
 1117 030f 10       		.byte	0x10
 1118 0310 09       		.uleb128 0x9
ARM GAS  C:\Users\jo\AppData\Local\Temp\cc2cuyoe.s 			page 21


 1119 0311 4C060000 		.4byte	.LASF62
 1120 0315 09       		.byte	0x9
 1121 0316 7A01     		.2byte	0x17a
 1122 0318 4E060000 		.4byte	0x64e
 1123 031c 14       		.byte	0x14
 1124 031d 09       		.uleb128 0x9
 1125 031e 17070000 		.4byte	.LASF63
 1126 0322 09       		.byte	0x9
 1127 0323 7D01     		.2byte	0x17d
 1128 0325 4E060000 		.4byte	0x64e
 1129 0329 18       		.byte	0x18
 1130 032a 00       		.byte	0
 1131 032b 03       		.uleb128 0x3
 1132 032c 1F020000 		.4byte	.LASF64
 1133 0330 08       		.byte	0x8
 1134 0331 57       		.byte	0x57
 1135 0332 36030000 		.4byte	0x336
 1136 0336 0B       		.uleb128 0xb
 1137 0337 04       		.byte	0x4
 1138 0338 3C030000 		.4byte	0x33c
 1139 033c 0C       		.uleb128 0xc
 1140 033d 47030000 		.4byte	0x347
 1141 0341 0D       		.uleb128 0xd
 1142 0342 47030000 		.4byte	0x347
 1143 0346 00       		.byte	0
 1144 0347 0E       		.uleb128 0xe
 1145 0348 04       		.byte	0x4
 1146 0349 03       		.uleb128 0x3
 1147 034a 08060000 		.4byte	.LASF65
 1148 034e 08       		.byte	0x8
 1149 034f 5C       		.byte	0x5c
 1150 0350 54030000 		.4byte	0x354
 1151 0354 0A       		.uleb128 0xa
 1152 0355 B8020000 		.4byte	.LASF66
 1153 0359 14       		.byte	0x14
 1154 035a 09       		.byte	0x9
 1155 035b 4D01     		.2byte	0x14d
 1156 035d A3030000 		.4byte	0x3a3
 1157 0361 09       		.uleb128 0x9
 1158 0362 EA090000 		.4byte	.LASF67
 1159 0366 09       		.byte	0x9
 1160 0367 4E01     		.2byte	0x14e
 1161 0369 C3060000 		.4byte	0x6c3
 1162 036d 00       		.byte	0
 1163 036e 09       		.uleb128 0x9
 1164 036f BD0B0000 		.4byte	.LASF68
 1165 0373 09       		.byte	0x9
 1166 0374 4F01     		.2byte	0x14f
 1167 0376 C3060000 		.4byte	0x6c3
 1168 037a 04       		.byte	0x4
 1169 037b 09       		.uleb128 0x9
 1170 037c 8B040000 		.4byte	.LASF69
 1171 0380 09       		.byte	0x9
 1172 0381 5001     		.2byte	0x150
 1173 0383 6D010000 		.4byte	0x16d
 1174 0387 08       		.byte	0x8
 1175 0388 09       		.uleb128 0x9
ARM GAS  C:\Users\jo\AppData\Local\Temp\cc2cuyoe.s 			page 22


 1176 0389 A90B0000 		.4byte	.LASF70
 1177 038d 09       		.byte	0x9
 1178 038e 5101     		.2byte	0x151
 1179 0390 2B030000 		.4byte	0x32b
 1180 0394 0C       		.byte	0xc
 1181 0395 09       		.uleb128 0x9
 1182 0396 34090000 		.4byte	.LASF71
 1183 039a 09       		.byte	0x9
 1184 039b 5301     		.2byte	0x153
 1185 039d 47030000 		.4byte	0x347
 1186 03a1 10       		.byte	0x10
 1187 03a2 00       		.byte	0
 1188 03a3 03       		.uleb128 0x3
 1189 03a4 64090000 		.4byte	.LASF72
 1190 03a8 08       		.byte	0x8
 1191 03a9 61       		.byte	0x61
 1192 03aa AE030000 		.4byte	0x3ae
 1193 03ae 0A       		.uleb128 0xa
 1194 03af 2D030000 		.4byte	.LASF73
 1195 03b3 10       		.byte	0x10
 1196 03b4 09       		.byte	0x9
 1197 03b5 5D01     		.2byte	0x15d
 1198 03b7 F0030000 		.4byte	0x3f0
 1199 03bb 09       		.uleb128 0x9
 1200 03bc EA090000 		.4byte	.LASF67
 1201 03c0 09       		.byte	0x9
 1202 03c1 5E01     		.2byte	0x15e
 1203 03c3 C3060000 		.4byte	0x6c3
 1204 03c7 00       		.byte	0
 1205 03c8 09       		.uleb128 0x9
 1206 03c9 BD0B0000 		.4byte	.LASF68
 1207 03cd 09       		.byte	0x9
 1208 03ce 6001     		.2byte	0x160
 1209 03d0 C3060000 		.4byte	0x6c3
 1210 03d4 04       		.byte	0x4
 1211 03d5 09       		.uleb128 0x9
 1212 03d6 8B040000 		.4byte	.LASF69
 1213 03da 09       		.byte	0x9
 1214 03db 6201     		.2byte	0x162
 1215 03dd 6D010000 		.4byte	0x16d
 1216 03e1 08       		.byte	0x8
 1217 03e2 09       		.uleb128 0x9
 1218 03e3 B1040000 		.4byte	.LASF74
 1219 03e7 09       		.byte	0x9
 1220 03e8 6A01     		.2byte	0x16a
 1221 03ea 6D010000 		.4byte	0x16d
 1222 03ee 0C       		.byte	0xc
 1223 03ef 00       		.byte	0
 1224 03f0 03       		.uleb128 0x3
 1225 03f1 61050000 		.4byte	.LASF75
 1226 03f5 08       		.byte	0x8
 1227 03f6 66       		.byte	0x66
 1228 03f7 FB030000 		.4byte	0x3fb
 1229 03fb 0A       		.uleb128 0xa
 1230 03fc 35020000 		.4byte	.LASF76
 1231 0400 04       		.byte	0x4
 1232 0401 09       		.byte	0x9
ARM GAS  C:\Users\jo\AppData\Local\Temp\cc2cuyoe.s 			page 23


 1233 0402 8401     		.2byte	0x184
 1234 0404 16040000 		.4byte	0x416
 1235 0408 09       		.uleb128 0x9
 1236 0409 8E090000 		.4byte	.LASF77
 1237 040d 09       		.byte	0x9
 1238 040e 8C01     		.2byte	0x18c
 1239 0410 C9060000 		.4byte	0x6c9
 1240 0414 00       		.byte	0
 1241 0415 00       		.byte	0
 1242 0416 03       		.uleb128 0x3
 1243 0417 0C0A0000 		.4byte	.LASF78
 1244 041b 08       		.byte	0x8
 1245 041c 6B       		.byte	0x6b
 1246 041d 21040000 		.4byte	0x421
 1247 0421 0F       		.uleb128 0xf
 1248 0422 8A070000 		.4byte	.LASF79
 1249 0426 D801     		.2byte	0x1d8
 1250 0428 09       		.byte	0x9
 1251 0429 A401     		.2byte	0x1a4
 1252 042b 7D040000 		.4byte	0x47d
 1253 042f 09       		.uleb128 0x9
 1254 0430 DA070000 		.4byte	.LASF80
 1255 0434 09       		.byte	0x9
 1256 0435 A801     		.2byte	0x1a8
 1257 0437 C4020000 		.4byte	0x2c4
 1258 043b 00       		.byte	0
 1259 043c 09       		.uleb128 0x9
 1260 043d B8010000 		.4byte	.LASF81
 1261 0441 09       		.byte	0x9
 1262 0442 AC01     		.2byte	0x1ac
 1263 0444 A3030000 		.4byte	0x3a3
 1264 0448 1C       		.byte	0x1c
 1265 0449 08       		.uleb128 0x8
 1266 044a 64626700 		.ascii	"dbg\000"
 1267 044e 09       		.byte	0x9
 1268 044f B001     		.2byte	0x1b0
 1269 0451 F0030000 		.4byte	0x3f0
 1270 0455 2C       		.byte	0x2c
 1271 0456 09       		.uleb128 0x9
 1272 0457 98060000 		.4byte	.LASF82
 1273 045b 09       		.byte	0x9
 1274 045c B401     		.2byte	0x1b4
 1275 045e 78010000 		.4byte	0x178
 1276 0462 30       		.byte	0x30
 1277 0463 08       		.uleb128 0x8
 1278 0464 746D00   		.ascii	"tm\000"
 1279 0467 09       		.byte	0x9
 1280 0468 B901     		.2byte	0x1b9
 1281 046a 43060000 		.4byte	0x643
 1282 046e 74       		.byte	0x74
 1283 046f 09       		.uleb128 0x9
 1284 0470 E0010000 		.4byte	.LASF83
 1285 0474 09       		.byte	0x9
 1286 0475 C501     		.2byte	0x1c5
 1287 0477 CE060000 		.4byte	0x6ce
 1288 047b 78       		.byte	0x78
 1289 047c 00       		.byte	0
ARM GAS  C:\Users\jo\AppData\Local\Temp\cc2cuyoe.s 			page 24


 1290 047d 04       		.uleb128 0x4
 1291 047e 04       		.byte	0x4
 1292 047f 07       		.byte	0x7
 1293 0480 A0040000 		.4byte	.LASF84
 1294 0484 03       		.uleb128 0x3
 1295 0485 55000000 		.4byte	.LASF85
 1296 0489 0A       		.byte	0xa
 1297 048a 85       		.byte	0x85
 1298 048b 47030000 		.4byte	0x347
 1299 048f 03       		.uleb128 0x3
 1300 0490 740B0000 		.4byte	.LASF86
 1301 0494 0A       		.byte	0xa
 1302 0495 8D       		.byte	0x8d
 1303 0496 05010000 		.4byte	0x105
 1304 049a 06       		.uleb128 0x6
 1305 049b 49070000 		.4byte	.LASF87
 1306 049f 04       		.byte	0x4
 1307 04a0 0A       		.byte	0xa
 1308 04a1 A9       		.byte	0xa9
 1309 04a2 B3040000 		.4byte	0x4b3
 1310 04a6 10       		.uleb128 0x10
 1311 04a7 72313300 		.ascii	"r13\000"
 1312 04ab 0A       		.byte	0xa
 1313 04ac AA       		.byte	0xaa
 1314 04ad F4050000 		.4byte	0x5f4
 1315 04b1 00       		.byte	0
 1316 04b2 00       		.byte	0
 1317 04b3 06       		.uleb128 0x6
 1318 04b4 3D070000 		.4byte	.LASF88
 1319 04b8 64       		.byte	0x64
 1320 04b9 0B       		.byte	0xb
 1321 04ba F4       		.byte	0xf4
 1322 04bb F4050000 		.4byte	0x5f4
 1323 04bf 10       		.uleb128 0x10
 1324 04c0 73313600 		.ascii	"s16\000"
 1325 04c4 0B       		.byte	0xb
 1326 04c5 F6       		.byte	0xf6
 1327 04c6 84040000 		.4byte	0x484
 1328 04ca 00       		.byte	0
 1329 04cb 10       		.uleb128 0x10
 1330 04cc 73313700 		.ascii	"s17\000"
 1331 04d0 0B       		.byte	0xb
 1332 04d1 F7       		.byte	0xf7
 1333 04d2 84040000 		.4byte	0x484
 1334 04d6 04       		.byte	0x4
 1335 04d7 10       		.uleb128 0x10
 1336 04d8 73313800 		.ascii	"s18\000"
 1337 04dc 0B       		.byte	0xb
 1338 04dd F8       		.byte	0xf8
 1339 04de 84040000 		.4byte	0x484
 1340 04e2 08       		.byte	0x8
 1341 04e3 10       		.uleb128 0x10
 1342 04e4 73313900 		.ascii	"s19\000"
 1343 04e8 0B       		.byte	0xb
 1344 04e9 F9       		.byte	0xf9
 1345 04ea 84040000 		.4byte	0x484
 1346 04ee 0C       		.byte	0xc
ARM GAS  C:\Users\jo\AppData\Local\Temp\cc2cuyoe.s 			page 25


 1347 04ef 10       		.uleb128 0x10
 1348 04f0 73323000 		.ascii	"s20\000"
 1349 04f4 0B       		.byte	0xb
 1350 04f5 FA       		.byte	0xfa
 1351 04f6 84040000 		.4byte	0x484
 1352 04fa 10       		.byte	0x10
 1353 04fb 10       		.uleb128 0x10
 1354 04fc 73323100 		.ascii	"s21\000"
 1355 0500 0B       		.byte	0xb
 1356 0501 FB       		.byte	0xfb
 1357 0502 84040000 		.4byte	0x484
 1358 0506 14       		.byte	0x14
 1359 0507 10       		.uleb128 0x10
 1360 0508 73323200 		.ascii	"s22\000"
 1361 050c 0B       		.byte	0xb
 1362 050d FC       		.byte	0xfc
 1363 050e 84040000 		.4byte	0x484
 1364 0512 18       		.byte	0x18
 1365 0513 10       		.uleb128 0x10
 1366 0514 73323300 		.ascii	"s23\000"
 1367 0518 0B       		.byte	0xb
 1368 0519 FD       		.byte	0xfd
 1369 051a 84040000 		.4byte	0x484
 1370 051e 1C       		.byte	0x1c
 1371 051f 10       		.uleb128 0x10
 1372 0520 73323400 		.ascii	"s24\000"
 1373 0524 0B       		.byte	0xb
 1374 0525 FE       		.byte	0xfe
 1375 0526 84040000 		.4byte	0x484
 1376 052a 20       		.byte	0x20
 1377 052b 10       		.uleb128 0x10
 1378 052c 73323500 		.ascii	"s25\000"
 1379 0530 0B       		.byte	0xb
 1380 0531 FF       		.byte	0xff
 1381 0532 84040000 		.4byte	0x484
 1382 0536 24       		.byte	0x24
 1383 0537 08       		.uleb128 0x8
 1384 0538 73323600 		.ascii	"s26\000"
 1385 053c 0B       		.byte	0xb
 1386 053d 0001     		.2byte	0x100
 1387 053f 84040000 		.4byte	0x484
 1388 0543 28       		.byte	0x28
 1389 0544 08       		.uleb128 0x8
 1390 0545 73323700 		.ascii	"s27\000"
 1391 0549 0B       		.byte	0xb
 1392 054a 0101     		.2byte	0x101
 1393 054c 84040000 		.4byte	0x484
 1394 0550 2C       		.byte	0x2c
 1395 0551 08       		.uleb128 0x8
 1396 0552 73323800 		.ascii	"s28\000"
 1397 0556 0B       		.byte	0xb
 1398 0557 0201     		.2byte	0x102
 1399 0559 84040000 		.4byte	0x484
 1400 055d 30       		.byte	0x30
 1401 055e 08       		.uleb128 0x8
 1402 055f 73323900 		.ascii	"s29\000"
 1403 0563 0B       		.byte	0xb
ARM GAS  C:\Users\jo\AppData\Local\Temp\cc2cuyoe.s 			page 26


 1404 0564 0301     		.2byte	0x103
 1405 0566 84040000 		.4byte	0x484
 1406 056a 34       		.byte	0x34
 1407 056b 08       		.uleb128 0x8
 1408 056c 73333000 		.ascii	"s30\000"
 1409 0570 0B       		.byte	0xb
 1410 0571 0401     		.2byte	0x104
 1411 0573 84040000 		.4byte	0x484
 1412 0577 38       		.byte	0x38
 1413 0578 08       		.uleb128 0x8
 1414 0579 73333100 		.ascii	"s31\000"
 1415 057d 0B       		.byte	0xb
 1416 057e 0501     		.2byte	0x105
 1417 0580 84040000 		.4byte	0x484
 1418 0584 3C       		.byte	0x3c
 1419 0585 08       		.uleb128 0x8
 1420 0586 723400   		.ascii	"r4\000"
 1421 0589 0B       		.byte	0xb
 1422 058a 0701     		.2byte	0x107
 1423 058c 84040000 		.4byte	0x484
 1424 0590 40       		.byte	0x40
 1425 0591 08       		.uleb128 0x8
 1426 0592 723500   		.ascii	"r5\000"
 1427 0595 0B       		.byte	0xb
 1428 0596 0801     		.2byte	0x108
 1429 0598 84040000 		.4byte	0x484
 1430 059c 44       		.byte	0x44
 1431 059d 08       		.uleb128 0x8
 1432 059e 723600   		.ascii	"r6\000"
 1433 05a1 0B       		.byte	0xb
 1434 05a2 0901     		.2byte	0x109
 1435 05a4 84040000 		.4byte	0x484
 1436 05a8 48       		.byte	0x48
 1437 05a9 08       		.uleb128 0x8
 1438 05aa 723700   		.ascii	"r7\000"
 1439 05ad 0B       		.byte	0xb
 1440 05ae 0A01     		.2byte	0x10a
 1441 05b0 84040000 		.4byte	0x484
 1442 05b4 4C       		.byte	0x4c
 1443 05b5 08       		.uleb128 0x8
 1444 05b6 723800   		.ascii	"r8\000"
 1445 05b9 0B       		.byte	0xb
 1446 05ba 0B01     		.2byte	0x10b
 1447 05bc 84040000 		.4byte	0x484
 1448 05c0 50       		.byte	0x50
 1449 05c1 08       		.uleb128 0x8
 1450 05c2 723900   		.ascii	"r9\000"
 1451 05c5 0B       		.byte	0xb
 1452 05c6 0C01     		.2byte	0x10c
 1453 05c8 84040000 		.4byte	0x484
 1454 05cc 54       		.byte	0x54
 1455 05cd 08       		.uleb128 0x8
 1456 05ce 72313000 		.ascii	"r10\000"
 1457 05d2 0B       		.byte	0xb
 1458 05d3 0D01     		.2byte	0x10d
 1459 05d5 84040000 		.4byte	0x484
 1460 05d9 58       		.byte	0x58
ARM GAS  C:\Users\jo\AppData\Local\Temp\cc2cuyoe.s 			page 27


 1461 05da 08       		.uleb128 0x8
 1462 05db 72313100 		.ascii	"r11\000"
 1463 05df 0B       		.byte	0xb
 1464 05e0 0E01     		.2byte	0x10e
 1465 05e2 84040000 		.4byte	0x484
 1466 05e6 5C       		.byte	0x5c
 1467 05e7 08       		.uleb128 0x8
 1468 05e8 6C7200   		.ascii	"lr\000"
 1469 05eb 0B       		.byte	0xb
 1470 05ec 0F01     		.2byte	0x10f
 1471 05ee 84040000 		.4byte	0x484
 1472 05f2 60       		.byte	0x60
 1473 05f3 00       		.byte	0
 1474 05f4 0B       		.uleb128 0xb
 1475 05f5 04       		.byte	0x4
 1476 05f6 B3040000 		.4byte	0x4b3
 1477 05fa 03       		.uleb128 0x3
 1478 05fb 83030000 		.4byte	.LASF89
 1479 05ff 0C       		.byte	0xc
 1480 0600 28       		.byte	0x28
 1481 0601 05060000 		.4byte	0x605
 1482 0605 06       		.uleb128 0x6
 1483 0606 180A0000 		.4byte	.LASF90
 1484 060a 04       		.byte	0x4
 1485 060b 0D       		.byte	0xd
 1486 060c 00       		.byte	0
 1487 060d 1C060000 		.4byte	0x61c
 1488 0611 11       		.uleb128 0x11
 1489 0612 03060000 		.4byte	.LASF94
 1490 0616 47030000 		.4byte	0x347
 1491 061a 00       		.byte	0
 1492 061b 00       		.byte	0
 1493 061c 04       		.uleb128 0x4
 1494 061d 01       		.byte	0x1
 1495 061e 08       		.byte	0x8
 1496 061f 46000000 		.4byte	.LASF91
 1497 0623 0B       		.uleb128 0xb
 1498 0624 04       		.byte	0x4
 1499 0625 29060000 		.4byte	0x629
 1500 0629 12       		.uleb128 0x12
 1501 062a 1C060000 		.4byte	0x61c
 1502 062e 13       		.uleb128 0x13
 1503 062f 04       		.byte	0x4
 1504 0630 0E       		.byte	0xe
 1505 0631 38       		.byte	0x38
 1506 0632 43060000 		.4byte	0x643
 1507 0636 07       		.uleb128 0x7
 1508 0637 C2030000 		.4byte	.LASF92
 1509 063b 0E       		.byte	0xe
 1510 063c 3C       		.byte	0x3c
 1511 063d 15010000 		.4byte	0x115
 1512 0641 00       		.byte	0
 1513 0642 00       		.byte	0
 1514 0643 03       		.uleb128 0x3
 1515 0644 7F060000 		.4byte	.LASF93
 1516 0648 0E       		.byte	0xe
 1517 0649 3D       		.byte	0x3d
ARM GAS  C:\Users\jo\AppData\Local\Temp\cc2cuyoe.s 			page 28


 1518 064a 2E060000 		.4byte	0x62e
 1519 064e 0B       		.uleb128 0xb
 1520 064f 04       		.byte	0x4
 1521 0650 78010000 		.4byte	0x178
 1522 0654 14       		.uleb128 0x14
 1523 0655 04       		.byte	0x4
 1524 0656 09       		.byte	0x9
 1525 0657 F6       		.byte	0xf6
 1526 0658 8C060000 		.4byte	0x68c
 1527 065c 15       		.uleb128 0x15
 1528 065d A9030000 		.4byte	.LASF95
 1529 0661 09       		.byte	0x9
 1530 0662 FD       		.byte	0xfd
 1531 0663 4C010000 		.4byte	0x14c
 1532 0667 16       		.uleb128 0x16
 1533 0668 060C0000 		.4byte	.LASF96
 1534 066c 09       		.byte	0x9
 1535 066d 0401     		.2byte	0x104
 1536 066f 4C010000 		.4byte	0x14c
 1537 0673 16       		.uleb128 0x16
 1538 0674 28020000 		.4byte	.LASF97
 1539 0678 09       		.byte	0x9
 1540 0679 0B01     		.2byte	0x10b
 1541 067b 47030000 		.4byte	0x347
 1542 067f 16       		.uleb128 0x16
 1543 0680 EF010000 		.4byte	.LASF98
 1544 0684 09       		.byte	0x9
 1545 0685 1201     		.2byte	0x112
 1546 0687 57010000 		.4byte	0x157
 1547 068b 00       		.byte	0
 1548 068c 06       		.uleb128 0x6
 1549 068d AA020000 		.4byte	.LASF99
 1550 0691 10       		.byte	0x10
 1551 0692 0F       		.byte	0xf
 1552 0693 39       		.byte	0x39
 1553 0694 BD060000 		.4byte	0x6bd
 1554 0698 07       		.uleb128 0x7
 1555 0699 2C070000 		.4byte	.LASF100
 1556 069d 0F       		.byte	0xf
 1557 069e 3A       		.byte	0x3a
 1558 069f 94020000 		.4byte	0x294
 1559 06a3 00       		.byte	0
 1560 06a4 07       		.uleb128 0x7
 1561 06a5 AA000000 		.4byte	.LASF101
 1562 06a9 0F       		.byte	0xf
 1563 06aa 3C       		.byte	0x3c
 1564 06ab 4E060000 		.4byte	0x64e
 1565 06af 08       		.byte	0x8
 1566 06b0 07       		.uleb128 0x7
 1567 06b1 270A0000 		.4byte	.LASF102
 1568 06b5 0F       		.byte	0xf
 1569 06b6 3E       		.byte	0x3e
 1570 06b7 2E070000 		.4byte	0x72e
 1571 06bb 0C       		.byte	0xc
 1572 06bc 00       		.byte	0
 1573 06bd 0B       		.uleb128 0xb
 1574 06be 04       		.byte	0x4
ARM GAS  C:\Users\jo\AppData\Local\Temp\cc2cuyoe.s 			page 29


 1575 06bf 8C060000 		.4byte	0x68c
 1576 06c3 0B       		.uleb128 0xb
 1577 06c4 04       		.byte	0x4
 1578 06c5 49030000 		.4byte	0x349
 1579 06c9 05       		.uleb128 0x5
 1580 06ca 23060000 		.4byte	0x623
 1581 06ce 17       		.uleb128 0x17
 1582 06cf 8F040000 		.4byte	0x48f
 1583 06d3 DE060000 		.4byte	0x6de
 1584 06d7 18       		.uleb128 0x18
 1585 06d8 7D040000 		.4byte	0x47d
 1586 06dc 2B       		.byte	0x2b
 1587 06dd 00       		.byte	0
 1588 06de 0B       		.uleb128 0xb
 1589 06df 04       		.byte	0x4
 1590 06e0 E4060000 		.4byte	0x6e4
 1591 06e4 19       		.uleb128 0x19
 1592 06e5 4C010000 		.4byte	0x14c
 1593 06e9 F3060000 		.4byte	0x6f3
 1594 06ed 0D       		.uleb128 0xd
 1595 06ee 47030000 		.4byte	0x347
 1596 06f2 00       		.byte	0
 1597 06f3 06       		.uleb128 0x6
 1598 06f4 42080000 		.4byte	.LASF103
 1599 06f8 0C       		.byte	0xc
 1600 06f9 10       		.byte	0x10
 1601 06fa 34       		.byte	0x34
 1602 06fb 18070000 		.4byte	0x718
 1603 06ff 07       		.uleb128 0x7
 1604 0700 B2000000 		.4byte	.LASF104
 1605 0704 10       		.byte	0x10
 1606 0705 35       		.byte	0x35
 1607 0706 94020000 		.4byte	0x294
 1608 070a 00       		.byte	0
 1609 070b 07       		.uleb128 0x7
 1610 070c 2F020000 		.4byte	.LASF105
 1611 0710 10       		.byte	0x10
 1612 0711 37       		.byte	0x37
 1613 0712 62010000 		.4byte	0x162
 1614 0716 08       		.byte	0x8
 1615 0717 00       		.byte	0
 1616 0718 03       		.uleb128 0x3
 1617 0719 19030000 		.4byte	.LASF106
 1618 071d 10       		.byte	0x10
 1619 071e 38       		.byte	0x38
 1620 071f F3060000 		.4byte	0x6f3
 1621 0723 03       		.uleb128 0x3
 1622 0724 F7080000 		.4byte	.LASF107
 1623 0728 0F       		.byte	0xf
 1624 0729 34       		.byte	0x34
 1625 072a 8C060000 		.4byte	0x68c
 1626 072e 0B       		.uleb128 0xb
 1627 072f 04       		.byte	0x4
 1628 0730 23070000 		.4byte	0x723
 1629 0734 13       		.uleb128 0x13
 1630 0735 28       		.byte	0x28
 1631 0736 11       		.byte	0x11
ARM GAS  C:\Users\jo\AppData\Local\Temp\cc2cuyoe.s 			page 30


 1632 0737 38       		.byte	0x38
 1633 0738 85070000 		.4byte	0x785
 1634 073c 07       		.uleb128 0x7
 1635 073d ED040000 		.4byte	.LASF108
 1636 0741 11       		.byte	0x11
 1637 0742 39       		.byte	0x39
 1638 0743 85070000 		.4byte	0x785
 1639 0747 00       		.byte	0
 1640 0748 07       		.uleb128 0x7
 1641 0749 31060000 		.4byte	.LASF109
 1642 074d 11       		.byte	0x11
 1643 074e 3B       		.byte	0x3b
 1644 074f 85070000 		.4byte	0x785
 1645 0753 04       		.byte	0x4
 1646 0754 07       		.uleb128 0x7
 1647 0755 0E070000 		.4byte	.LASF110
 1648 0759 11       		.byte	0x11
 1649 075a 3D       		.byte	0x3d
 1650 075b 85070000 		.4byte	0x785
 1651 075f 08       		.byte	0x8
 1652 0760 07       		.uleb128 0x7
 1653 0761 E3030000 		.4byte	.LASF111
 1654 0765 11       		.byte	0x11
 1655 0766 3E       		.byte	0x3e
 1656 0767 85070000 		.4byte	0x785
 1657 076b 0C       		.byte	0xc
 1658 076c 07       		.uleb128 0x7
 1659 076d 0F050000 		.4byte	.LASF112
 1660 0771 11       		.byte	0x11
 1661 0772 3F       		.byte	0x3f
 1662 0773 18070000 		.4byte	0x718
 1663 0777 10       		.byte	0x10
 1664 0778 07       		.uleb128 0x7
 1665 0779 22040000 		.4byte	.LASF113
 1666 077d 11       		.byte	0x11
 1667 077e 41       		.byte	0x41
 1668 077f 18070000 		.4byte	0x718
 1669 0783 1C       		.byte	0x1c
 1670 0784 00       		.byte	0
 1671 0785 0B       		.uleb128 0xb
 1672 0786 04       		.byte	0x4
 1673 0787 4C010000 		.4byte	0x14c
 1674 078b 03       		.uleb128 0x3
 1675 078c EC030000 		.4byte	.LASF114
 1676 0790 11       		.byte	0x11
 1677 0791 43       		.byte	0x43
 1678 0792 34070000 		.4byte	0x734
 1679 0796 0B       		.uleb128 0xb
 1680 0797 04       		.byte	0x4
 1681 0798 CE000000 		.4byte	0xce
 1682 079c 06       		.uleb128 0x6
 1683 079d 2F010000 		.4byte	.LASF115
 1684 07a1 10       		.byte	0x10
 1685 07a2 12       		.byte	0x12
 1686 07a3 40       		.byte	0x40
 1687 07a4 D9070000 		.4byte	0x7d9
 1688 07a8 07       		.uleb128 0x7
ARM GAS  C:\Users\jo\AppData\Local\Temp\cc2cuyoe.s 			page 31


 1689 07a9 AD050000 		.4byte	.LASF116
 1690 07ad 12       		.byte	0x12
 1691 07ae 41       		.byte	0x41
 1692 07af FD070000 		.4byte	0x7fd
 1693 07b3 00       		.byte	0
 1694 07b4 07       		.uleb128 0x7
 1695 07b5 3D080000 		.4byte	.LASF117
 1696 07b9 12       		.byte	0x12
 1697 07ba 41       		.byte	0x41
 1698 07bb 1C080000 		.4byte	0x81c
 1699 07bf 04       		.byte	0x4
 1700 07c0 10       		.uleb128 0x10
 1701 07c1 70757400 		.ascii	"put\000"
 1702 07c5 12       		.byte	0x12
 1703 07c6 41       		.byte	0x41
 1704 07c7 36080000 		.4byte	0x836
 1705 07cb 08       		.byte	0x8
 1706 07cc 10       		.uleb128 0x10
 1707 07cd 67657400 		.ascii	"get\000"
 1708 07d1 12       		.byte	0x12
 1709 07d2 41       		.byte	0x41
 1710 07d3 DE060000 		.4byte	0x6de
 1711 07d7 0C       		.byte	0xc
 1712 07d8 00       		.byte	0
 1713 07d9 19       		.uleb128 0x19
 1714 07da 2C000000 		.4byte	0x2c
 1715 07de F2070000 		.4byte	0x7f2
 1716 07e2 0D       		.uleb128 0xd
 1717 07e3 47030000 		.4byte	0x347
 1718 07e7 0D       		.uleb128 0xd
 1719 07e8 F2070000 		.4byte	0x7f2
 1720 07ec 0D       		.uleb128 0xd
 1721 07ed 2C000000 		.4byte	0x2c
 1722 07f1 00       		.byte	0
 1723 07f2 0B       		.uleb128 0xb
 1724 07f3 04       		.byte	0x4
 1725 07f4 F8070000 		.4byte	0x7f8
 1726 07f8 12       		.uleb128 0x12
 1727 07f9 CE000000 		.4byte	0xce
 1728 07fd 0B       		.uleb128 0xb
 1729 07fe 04       		.byte	0x4
 1730 07ff D9070000 		.4byte	0x7d9
 1731 0803 19       		.uleb128 0x19
 1732 0804 2C000000 		.4byte	0x2c
 1733 0808 1C080000 		.4byte	0x81c
 1734 080c 0D       		.uleb128 0xd
 1735 080d 47030000 		.4byte	0x347
 1736 0811 0D       		.uleb128 0xd
 1737 0812 96070000 		.4byte	0x796
 1738 0816 0D       		.uleb128 0xd
 1739 0817 2C000000 		.4byte	0x2c
 1740 081b 00       		.byte	0
 1741 081c 0B       		.uleb128 0xb
 1742 081d 04       		.byte	0x4
 1743 081e 03080000 		.4byte	0x803
 1744 0822 19       		.uleb128 0x19
 1745 0823 4C010000 		.4byte	0x14c
ARM GAS  C:\Users\jo\AppData\Local\Temp\cc2cuyoe.s 			page 32


 1746 0827 36080000 		.4byte	0x836
 1747 082b 0D       		.uleb128 0xd
 1748 082c 47030000 		.4byte	0x347
 1749 0830 0D       		.uleb128 0xd
 1750 0831 CE000000 		.4byte	0xce
 1751 0835 00       		.byte	0
 1752 0836 0B       		.uleb128 0xb
 1753 0837 04       		.byte	0x4
 1754 0838 22080000 		.4byte	0x822
 1755 083c 13       		.uleb128 0x13
 1756 083d 04       		.byte	0x4
 1757 083e 12       		.byte	0x12
 1758 083f 49       		.byte	0x49
 1759 0840 51080000 		.4byte	0x851
 1760 0844 10       		.uleb128 0x10
 1761 0845 766D7400 		.ascii	"vmt\000"
 1762 0849 12       		.byte	0x12
 1763 084a 4B       		.byte	0x4b
 1764 084b 51080000 		.4byte	0x851
 1765 084f 00       		.byte	0
 1766 0850 00       		.byte	0
 1767 0851 0B       		.uleb128 0xb
 1768 0852 04       		.byte	0x4
 1769 0853 57080000 		.4byte	0x857
 1770 0857 12       		.uleb128 0x12
 1771 0858 9C070000 		.4byte	0x79c
 1772 085c 03       		.uleb128 0x3
 1773 085d 44040000 		.4byte	.LASF118
 1774 0861 12       		.byte	0x12
 1775 0862 4D       		.byte	0x4d
 1776 0863 3C080000 		.4byte	0x83c
 1777 0867 04       		.uleb128 0x4
 1778 0868 01       		.byte	0x1
 1779 0869 02       		.byte	0x2
 1780 086a DD030000 		.4byte	.LASF119
 1781 086e 06       		.uleb128 0x6
 1782 086f 18060000 		.4byte	.LASF120
 1783 0873 10       		.byte	0x10
 1784 0874 13       		.byte	0x13
 1785 0875 2E       		.byte	0x2e
 1786 0876 AB080000 		.4byte	0x8ab
 1787 087a 07       		.uleb128 0x7
 1788 087b AD050000 		.4byte	.LASF116
 1789 087f 13       		.byte	0x13
 1790 0880 2F       		.byte	0x2f
 1791 0881 FD070000 		.4byte	0x7fd
 1792 0885 00       		.byte	0
 1793 0886 07       		.uleb128 0x7
 1794 0887 3D080000 		.4byte	.LASF117
 1795 088b 13       		.byte	0x13
 1796 088c 2F       		.byte	0x2f
 1797 088d 1C080000 		.4byte	0x81c
 1798 0891 04       		.byte	0x4
 1799 0892 10       		.uleb128 0x10
 1800 0893 70757400 		.ascii	"put\000"
 1801 0897 13       		.byte	0x13
 1802 0898 2F       		.byte	0x2f
ARM GAS  C:\Users\jo\AppData\Local\Temp\cc2cuyoe.s 			page 33


 1803 0899 36080000 		.4byte	0x836
 1804 089d 08       		.byte	0x8
 1805 089e 10       		.uleb128 0x10
 1806 089f 67657400 		.ascii	"get\000"
 1807 08a3 13       		.byte	0x13
 1808 08a4 2F       		.byte	0x2f
 1809 08a5 DE060000 		.4byte	0x6de
 1810 08a9 0C       		.byte	0xc
 1811 08aa 00       		.byte	0
 1812 08ab 13       		.uleb128 0x13
 1813 08ac 04       		.byte	0x4
 1814 08ad 13       		.byte	0x13
 1815 08ae 39       		.byte	0x39
 1816 08af C0080000 		.4byte	0x8c0
 1817 08b3 10       		.uleb128 0x10
 1818 08b4 766D7400 		.ascii	"vmt\000"
 1819 08b8 13       		.byte	0x13
 1820 08b9 3B       		.byte	0x3b
 1821 08ba C0080000 		.4byte	0x8c0
 1822 08be 00       		.byte	0
 1823 08bf 00       		.byte	0
 1824 08c0 0B       		.uleb128 0xb
 1825 08c1 04       		.byte	0x4
 1826 08c2 C6080000 		.4byte	0x8c6
 1827 08c6 12       		.uleb128 0x12
 1828 08c7 6E080000 		.4byte	0x86e
 1829 08cb 03       		.uleb128 0x3
 1830 08cc 6F060000 		.4byte	.LASF121
 1831 08d0 13       		.byte	0x13
 1832 08d1 3D       		.byte	0x3d
 1833 08d2 AB080000 		.4byte	0x8ab
 1834 08d6 03       		.uleb128 0x3
 1835 08d7 59050000 		.4byte	.LASF122
 1836 08db 0C       		.byte	0xc
 1837 08dc 62       		.byte	0x62
 1838 08dd FA050000 		.4byte	0x5fa
 1839 08e1 03       		.uleb128 0x3
 1840 08e2 EC050000 		.4byte	.LASF123
 1841 08e6 14       		.byte	0x14
 1842 08e7 3D       		.byte	0x3d
 1843 08e8 CE000000 		.4byte	0xce
 1844 08ec 03       		.uleb128 0x3
 1845 08ed 12040000 		.4byte	.LASF124
 1846 08f1 14       		.byte	0x14
 1847 08f2 3E       		.byte	0x3e
 1848 08f3 C3000000 		.4byte	0xc3
 1849 08f7 03       		.uleb128 0x3
 1850 08f8 9E010000 		.4byte	.LASF125
 1851 08fc 14       		.byte	0x14
 1852 08fd 3F       		.byte	0x3f
 1853 08fe E4000000 		.4byte	0xe4
 1854 0902 03       		.uleb128 0x3
 1855 0903 CC080000 		.4byte	.LASF126
 1856 0907 14       		.byte	0x14
 1857 0908 40       		.byte	0x40
 1858 0909 D9000000 		.4byte	0xd9
 1859 090d 03       		.uleb128 0x3
ARM GAS  C:\Users\jo\AppData\Local\Temp\cc2cuyoe.s 			page 34


 1860 090e FE060000 		.4byte	.LASF127
 1861 0912 14       		.byte	0x14
 1862 0913 41       		.byte	0x41
 1863 0914 FA000000 		.4byte	0xfa
 1864 0918 03       		.uleb128 0x3
 1865 0919 6D010000 		.4byte	.LASF128
 1866 091d 15       		.byte	0x15
 1867 091e 2F       		.byte	0x2f
 1868 091f EC080000 		.4byte	0x8ec
 1869 0923 03       		.uleb128 0x3
 1870 0924 93080000 		.4byte	.LASF129
 1871 0928 16       		.byte	0x16
 1872 0929 39       		.byte	0x39
 1873 092a 2E090000 		.4byte	0x92e
 1874 092e 0B       		.uleb128 0xb
 1875 092f 04       		.byte	0x4
 1876 0930 8B070000 		.4byte	0x78b
 1877 0934 03       		.uleb128 0x3
 1878 0935 6B000000 		.4byte	.LASF130
 1879 0939 17       		.byte	0x17
 1880 093a 41       		.byte	0x41
 1881 093b 36030000 		.4byte	0x336
 1882 093f 06       		.uleb128 0x6
 1883 0940 80070000 		.4byte	.LASF131
 1884 0944 10       		.byte	0x10
 1885 0945 17       		.byte	0x17
 1886 0946 43       		.byte	0x43
 1887 0947 7A090000 		.4byte	0x97a
 1888 094b 07       		.uleb128 0x7
 1889 094c 2A010000 		.4byte	.LASF132
 1890 0950 17       		.byte	0x17
 1891 0951 44       		.byte	0x44
 1892 0952 7A090000 		.4byte	0x97a
 1893 0956 00       		.byte	0
 1894 0957 07       		.uleb128 0x7
 1895 0958 14030000 		.4byte	.LASF133
 1896 095c 17       		.byte	0x17
 1897 095d 45       		.byte	0x45
 1898 095e 0D090000 		.4byte	0x90d
 1899 0962 04       		.byte	0x4
 1900 0963 10       		.uleb128 0x10
 1901 0964 6800     		.ascii	"h\000"
 1902 0966 17       		.byte	0x17
 1903 0967 46       		.byte	0x46
 1904 0968 34090000 		.4byte	0x934
 1905 096c 08       		.byte	0x8
 1906 096d 10       		.uleb128 0x10
 1907 096e 61726700 		.ascii	"arg\000"
 1908 0972 17       		.byte	0x17
 1909 0973 47       		.byte	0x47
 1910 0974 47030000 		.4byte	0x347
 1911 0978 0C       		.byte	0xc
 1912 0979 00       		.byte	0
 1913 097a 0B       		.uleb128 0xb
 1914 097b 04       		.byte	0x4
 1915 097c 3F090000 		.4byte	0x93f
 1916 0980 06       		.uleb128 0x6
ARM GAS  C:\Users\jo\AppData\Local\Temp\cc2cuyoe.s 			page 35


 1917 0981 98090000 		.4byte	.LASF134
 1918 0985 10       		.byte	0x10
 1919 0986 18       		.byte	0x18
 1920 0987 4F       		.byte	0x4f
 1921 0988 E1090000 		.4byte	0x9e1
 1922 098c 07       		.uleb128 0x7
 1923 098d 2A010000 		.4byte	.LASF132
 1924 0991 18       		.byte	0x18
 1925 0992 51       		.byte	0x51
 1926 0993 E1090000 		.4byte	0x9e1
 1927 0997 00       		.byte	0
 1928 0998 07       		.uleb128 0x7
 1929 0999 B0030000 		.4byte	.LASF135
 1930 099d 18       		.byte	0x18
 1931 099e 54       		.byte	0x54
 1932 099f 47030000 		.4byte	0x347
 1933 09a3 04       		.byte	0x4
 1934 09a4 07       		.uleb128 0x7
 1935 09a5 D8090000 		.4byte	.LASF136
 1936 09a9 18       		.byte	0x18
 1937 09aa 5D       		.byte	0x5d
 1938 09ab F7080000 		.4byte	0x8f7
 1939 09af 08       		.byte	0x8
 1940 09b0 10       		.uleb128 0x10
 1941 09b1 6C656E00 		.ascii	"len\000"
 1942 09b5 18       		.byte	0x18
 1943 09b6 60       		.byte	0x60
 1944 09b7 F7080000 		.4byte	0x8f7
 1945 09bb 0A       		.byte	0xa
 1946 09bc 07       		.uleb128 0x7
 1947 09bd 3B090000 		.4byte	.LASF137
 1948 09c1 18       		.byte	0x18
 1949 09c2 63       		.byte	0x63
 1950 09c3 E1080000 		.4byte	0x8e1
 1951 09c7 0C       		.byte	0xc
 1952 09c8 07       		.uleb128 0x7
 1953 09c9 9A000000 		.4byte	.LASF138
 1954 09cd 18       		.byte	0x18
 1955 09ce 66       		.byte	0x66
 1956 09cf E1080000 		.4byte	0x8e1
 1957 09d3 0D       		.byte	0xd
 1958 09d4 10       		.uleb128 0x10
 1959 09d5 72656600 		.ascii	"ref\000"
 1960 09d9 18       		.byte	0x18
 1961 09da 6D       		.byte	0x6d
 1962 09db F7080000 		.4byte	0x8f7
 1963 09df 0E       		.byte	0xe
 1964 09e0 00       		.byte	0
 1965 09e1 0B       		.uleb128 0xb
 1966 09e2 04       		.byte	0x4
 1967 09e3 80090000 		.4byte	0x980
 1968 09e7 06       		.uleb128 0x6
 1969 09e8 180C0000 		.4byte	.LASF139
 1970 09ec 04       		.byte	0x4
 1971 09ed 19       		.byte	0x19
 1972 09ee 2C       		.byte	0x2c
 1973 09ef 000A0000 		.4byte	0xa00
ARM GAS  C:\Users\jo\AppData\Local\Temp\cc2cuyoe.s 			page 36


 1974 09f3 07       		.uleb128 0x7
 1975 09f4 BB090000 		.4byte	.LASF140
 1976 09f8 19       		.byte	0x19
 1977 09f9 2D       		.byte	0x2d
 1978 09fa 0D090000 		.4byte	0x90d
 1979 09fe 00       		.byte	0
 1980 09ff 00       		.byte	0
 1981 0a00 03       		.uleb128 0x3
 1982 0a01 D50B0000 		.4byte	.LASF141
 1983 0a05 19       		.byte	0x19
 1984 0a06 40       		.byte	0x40
 1985 0a07 E7090000 		.4byte	0x9e7
 1986 0a0b 03       		.uleb128 0x3
 1987 0a0c 8C000000 		.4byte	.LASF142
 1988 0a10 1A       		.byte	0x1a
 1989 0a11 3C       		.byte	0x3c
 1990 0a12 160A0000 		.4byte	0xa16
 1991 0a16 0B       		.uleb128 0xb
 1992 0a17 04       		.byte	0x4
 1993 0a18 1C0A0000 		.4byte	0xa1c
 1994 0a1c 19       		.uleb128 0x19
 1995 0a1d 18090000 		.4byte	0x918
 1996 0a21 350A0000 		.4byte	0xa35
 1997 0a25 0D       		.uleb128 0xd
 1998 0a26 47030000 		.4byte	0x347
 1999 0a2a 0D       		.uleb128 0xd
 2000 0a2b 350A0000 		.4byte	0xa35
 2001 0a2f 0D       		.uleb128 0xd
 2002 0a30 18090000 		.4byte	0x918
 2003 0a34 00       		.byte	0
 2004 0a35 0B       		.uleb128 0xb
 2005 0a36 04       		.byte	0x4
 2006 0a37 3B0A0000 		.4byte	0xa3b
 2007 0a3b 06       		.uleb128 0x6
 2008 0a3c 530B0000 		.4byte	.LASF143
 2009 0a40 98       		.byte	0x98
 2010 0a41 1A       		.byte	0x1a
 2011 0a42 A8       		.byte	0xa8
 2012 0a43 ED0C0000 		.4byte	0xced
 2013 0a47 07       		.uleb128 0x7
 2014 0a48 BD070000 		.4byte	.LASF144
 2015 0a4c 1A       		.byte	0x1a
 2016 0a4d AA       		.byte	0xaa
 2017 0a4e 000A0000 		.4byte	0xa00
 2018 0a52 00       		.byte	0
 2019 0a53 07       		.uleb128 0x7
 2020 0a54 9F0B0000 		.4byte	.LASF145
 2021 0a58 1A       		.byte	0x1a
 2022 0a59 AA       		.byte	0xaa
 2023 0a5a 000A0000 		.4byte	0xa00
 2024 0a5e 04       		.byte	0x4
 2025 0a5f 07       		.uleb128 0x7
 2026 0a60 3B000000 		.4byte	.LASF146
 2027 0a64 1A       		.byte	0x1a
 2028 0a65 AA       		.byte	0xaa
 2029 0a66 E1080000 		.4byte	0x8e1
 2030 0a6a 08       		.byte	0x8
ARM GAS  C:\Users\jo\AppData\Local\Temp\cc2cuyoe.s 			page 37


 2031 0a6b 10       		.uleb128 0x10
 2032 0a6c 746F7300 		.ascii	"tos\000"
 2033 0a70 1A       		.byte	0x1a
 2034 0a71 AA       		.byte	0xaa
 2035 0a72 E1080000 		.4byte	0x8e1
 2036 0a76 09       		.byte	0x9
 2037 0a77 10       		.uleb128 0x10
 2038 0a78 74746C00 		.ascii	"ttl\000"
 2039 0a7c 1A       		.byte	0x1a
 2040 0a7d AA       		.byte	0xaa
 2041 0a7e E1080000 		.4byte	0x8e1
 2042 0a82 0A       		.byte	0xa
 2043 0a83 07       		.uleb128 0x7
 2044 0a84 2A010000 		.4byte	.LASF132
 2045 0a88 1A       		.byte	0x1a
 2046 0a89 AC       		.byte	0xac
 2047 0a8a 350A0000 		.4byte	0xa35
 2048 0a8e 0C       		.byte	0xc
 2049 0a8f 07       		.uleb128 0x7
 2050 0a90 A7090000 		.4byte	.LASF147
 2051 0a94 1A       		.byte	0x1a
 2052 0a95 AC       		.byte	0xac
 2053 0a96 47030000 		.4byte	0x347
 2054 0a9a 10       		.byte	0x10
 2055 0a9b 07       		.uleb128 0x7
 2056 0a9c 85020000 		.4byte	.LASF148
 2057 0aa0 1A       		.byte	0x1a
 2058 0aa1 AC       		.byte	0xac
 2059 0aa2 0B0A0000 		.4byte	0xa0b
 2060 0aa6 14       		.byte	0x14
 2061 0aa7 07       		.uleb128 0x7
 2062 0aa8 D2090000 		.4byte	.LASF149
 2063 0aac 1A       		.byte	0x1a
 2064 0aad AC       		.byte	0xac
 2065 0aae 970D0000 		.4byte	0xd97
 2066 0ab2 18       		.byte	0x18
 2067 0ab3 07       		.uleb128 0x7
 2068 0ab4 61040000 		.4byte	.LASF150
 2069 0ab8 1A       		.byte	0x1a
 2070 0ab9 AC       		.byte	0xac
 2071 0aba E1080000 		.4byte	0x8e1
 2072 0abe 19       		.byte	0x19
 2073 0abf 07       		.uleb128 0x7
 2074 0ac0 9F020000 		.4byte	.LASF151
 2075 0ac4 1A       		.byte	0x1a
 2076 0ac5 AC       		.byte	0xac
 2077 0ac6 F7080000 		.4byte	0x8f7
 2078 0aca 1A       		.byte	0x1a
 2079 0acb 07       		.uleb128 0x7
 2080 0acc 25060000 		.4byte	.LASF152
 2081 0ad0 1A       		.byte	0x1a
 2082 0ad1 AF       		.byte	0xaf
 2083 0ad2 F7080000 		.4byte	0x8f7
 2084 0ad6 1C       		.byte	0x1c
 2085 0ad7 07       		.uleb128 0x7
 2086 0ad8 9A000000 		.4byte	.LASF138
 2087 0adc 1A       		.byte	0x1a
ARM GAS  C:\Users\jo\AppData\Local\Temp\cc2cuyoe.s 			page 38


 2088 0add B1       		.byte	0xb1
 2089 0ade E1080000 		.4byte	0x8e1
 2090 0ae2 1E       		.byte	0x1e
 2091 0ae3 07       		.uleb128 0x7
 2092 0ae4 84000000 		.4byte	.LASF153
 2093 0ae8 1A       		.byte	0x1a
 2094 0ae9 BF       		.byte	0xbf
 2095 0aea E1080000 		.4byte	0x8e1
 2096 0aee 1F       		.byte	0x1f
 2097 0aef 07       		.uleb128 0x7
 2098 0af0 66040000 		.4byte	.LASF154
 2099 0af4 1A       		.byte	0x1a
 2100 0af5 BF       		.byte	0xbf
 2101 0af6 E1080000 		.4byte	0x8e1
 2102 0afa 20       		.byte	0x20
 2103 0afb 07       		.uleb128 0x7
 2104 0afc A5070000 		.4byte	.LASF155
 2105 0b00 1A       		.byte	0x1a
 2106 0b01 C0       		.byte	0xc0
 2107 0b02 E1080000 		.4byte	0x8e1
 2108 0b06 21       		.byte	0x21
 2109 0b07 10       		.uleb128 0x10
 2110 0b08 746D7200 		.ascii	"tmr\000"
 2111 0b0c 1A       		.byte	0x1a
 2112 0b0d C1       		.byte	0xc1
 2113 0b0e 0D090000 		.4byte	0x90d
 2114 0b12 24       		.byte	0x24
 2115 0b13 07       		.uleb128 0x7
 2116 0b14 44030000 		.4byte	.LASF156
 2117 0b18 1A       		.byte	0x1a
 2118 0b19 C4       		.byte	0xc4
 2119 0b1a 0D090000 		.4byte	0x90d
 2120 0b1e 28       		.byte	0x28
 2121 0b1f 07       		.uleb128 0x7
 2122 0b20 65070000 		.4byte	.LASF157
 2123 0b24 1A       		.byte	0x1a
 2124 0b25 C5       		.byte	0xc5
 2125 0b26 F7080000 		.4byte	0x8f7
 2126 0b2a 2C       		.byte	0x2c
 2127 0b2b 07       		.uleb128 0x7
 2128 0b2c 40060000 		.4byte	.LASF158
 2129 0b30 1A       		.byte	0x1a
 2130 0b31 C6       		.byte	0xc6
 2131 0b32 F7080000 		.4byte	0x8f7
 2132 0b36 2E       		.byte	0x2e
 2133 0b37 07       		.uleb128 0x7
 2134 0b38 BF010000 		.4byte	.LASF159
 2135 0b3c 1A       		.byte	0x1a
 2136 0b3d C7       		.byte	0xc7
 2137 0b3e 0D090000 		.4byte	0x90d
 2138 0b42 30       		.byte	0x30
 2139 0b43 07       		.uleb128 0x7
 2140 0b44 0E030000 		.4byte	.LASF160
 2141 0b48 1A       		.byte	0x1a
 2142 0b49 CA       		.byte	0xca
 2143 0b4a 02090000 		.4byte	0x902
 2144 0b4e 34       		.byte	0x34
ARM GAS  C:\Users\jo\AppData\Local\Temp\cc2cuyoe.s 			page 39


 2145 0b4f 10       		.uleb128 0x10
 2146 0b50 6D737300 		.ascii	"mss\000"
 2147 0b54 1A       		.byte	0x1a
 2148 0b55 CC       		.byte	0xcc
 2149 0b56 F7080000 		.4byte	0x8f7
 2150 0b5a 36       		.byte	0x36
 2151 0b5b 07       		.uleb128 0x7
 2152 0b5c 6D070000 		.4byte	.LASF161
 2153 0b60 1A       		.byte	0x1a
 2154 0b61 CF       		.byte	0xcf
 2155 0b62 0D090000 		.4byte	0x90d
 2156 0b66 38       		.byte	0x38
 2157 0b67 07       		.uleb128 0x7
 2158 0b68 F7020000 		.4byte	.LASF162
 2159 0b6c 1A       		.byte	0x1a
 2160 0b6d D0       		.byte	0xd0
 2161 0b6e 0D090000 		.4byte	0x90d
 2162 0b72 3C       		.byte	0x3c
 2163 0b73 10       		.uleb128 0x10
 2164 0b74 736100   		.ascii	"sa\000"
 2165 0b77 1A       		.byte	0x1a
 2166 0b78 D1       		.byte	0xd1
 2167 0b79 02090000 		.4byte	0x902
 2168 0b7d 40       		.byte	0x40
 2169 0b7e 10       		.uleb128 0x10
 2170 0b7f 737600   		.ascii	"sv\000"
 2171 0b82 1A       		.byte	0x1a
 2172 0b83 D1       		.byte	0xd1
 2173 0b84 02090000 		.4byte	0x902
 2174 0b88 42       		.byte	0x42
 2175 0b89 10       		.uleb128 0x10
 2176 0b8a 72746F00 		.ascii	"rto\000"
 2177 0b8e 1A       		.byte	0x1a
 2178 0b8f D3       		.byte	0xd3
 2179 0b90 02090000 		.4byte	0x902
 2180 0b94 44       		.byte	0x44
 2181 0b95 07       		.uleb128 0x7
 2182 0b96 F60B0000 		.4byte	.LASF163
 2183 0b9a 1A       		.byte	0x1a
 2184 0b9b D4       		.byte	0xd4
 2185 0b9c E1080000 		.4byte	0x8e1
 2186 0ba0 46       		.byte	0x46
 2187 0ba1 07       		.uleb128 0x7
 2188 0ba2 59040000 		.4byte	.LASF164
 2189 0ba6 1A       		.byte	0x1a
 2190 0ba7 D7       		.byte	0xd7
 2191 0ba8 E1080000 		.4byte	0x8e1
 2192 0bac 47       		.byte	0x47
 2193 0bad 07       		.uleb128 0x7
 2194 0bae 38060000 		.4byte	.LASF165
 2195 0bb2 1A       		.byte	0x1a
 2196 0bb3 D8       		.byte	0xd8
 2197 0bb4 0D090000 		.4byte	0x90d
 2198 0bb8 48       		.byte	0x48
 2199 0bb9 07       		.uleb128 0x7
 2200 0bba 6D020000 		.4byte	.LASF166
 2201 0bbe 1A       		.byte	0x1a
ARM GAS  C:\Users\jo\AppData\Local\Temp\cc2cuyoe.s 			page 40


 2202 0bbf DB       		.byte	0xdb
 2203 0bc0 F7080000 		.4byte	0x8f7
 2204 0bc4 4C       		.byte	0x4c
 2205 0bc5 07       		.uleb128 0x7
 2206 0bc6 5B080000 		.4byte	.LASF167
 2207 0bca 1A       		.byte	0x1a
 2208 0bcb DC       		.byte	0xdc
 2209 0bcc F7080000 		.4byte	0x8f7
 2210 0bd0 4E       		.byte	0x4e
 2211 0bd1 07       		.uleb128 0x7
 2212 0bd2 08080000 		.4byte	.LASF168
 2213 0bd6 1A       		.byte	0x1a
 2214 0bd7 DF       		.byte	0xdf
 2215 0bd8 0D090000 		.4byte	0x90d
 2216 0bdc 50       		.byte	0x50
 2217 0bdd 07       		.uleb128 0x7
 2218 0bde 1A050000 		.4byte	.LASF169
 2219 0be2 1A       		.byte	0x1a
 2220 0be3 E0       		.byte	0xe0
 2221 0be4 0D090000 		.4byte	0x90d
 2222 0be8 54       		.byte	0x54
 2223 0be9 07       		.uleb128 0x7
 2224 0bea 22050000 		.4byte	.LASF170
 2225 0bee 1A       		.byte	0x1a
 2226 0bef E0       		.byte	0xe0
 2227 0bf0 0D090000 		.4byte	0x90d
 2228 0bf4 58       		.byte	0x58
 2229 0bf5 07       		.uleb128 0x7
 2230 0bf6 2E040000 		.4byte	.LASF171
 2231 0bfa 1A       		.byte	0x1a
 2232 0bfb E2       		.byte	0xe2
 2233 0bfc 0D090000 		.4byte	0x90d
 2234 0c00 5C       		.byte	0x5c
 2235 0c01 07       		.uleb128 0x7
 2236 0c02 CE060000 		.4byte	.LASF172
 2237 0c06 1A       		.byte	0x1a
 2238 0c07 E3       		.byte	0xe3
 2239 0c08 F7080000 		.4byte	0x8f7
 2240 0c0c 60       		.byte	0x60
 2241 0c0d 07       		.uleb128 0x7
 2242 0c0e 31080000 		.4byte	.LASF173
 2243 0c12 1A       		.byte	0x1a
 2244 0c13 E4       		.byte	0xe4
 2245 0c14 F7080000 		.4byte	0x8f7
 2246 0c18 62       		.byte	0x62
 2247 0c19 07       		.uleb128 0x7
 2248 0c1a BD040000 		.4byte	.LASF174
 2249 0c1e 1A       		.byte	0x1a
 2250 0c1f E6       		.byte	0xe6
 2251 0c20 F7080000 		.4byte	0x8f7
 2252 0c24 64       		.byte	0x64
 2253 0c25 07       		.uleb128 0x7
 2254 0c26 64080000 		.4byte	.LASF175
 2255 0c2a 1A       		.byte	0x1a
 2256 0c2b E8       		.byte	0xe8
 2257 0c2c F7080000 		.4byte	0x8f7
 2258 0c30 66       		.byte	0x66
ARM GAS  C:\Users\jo\AppData\Local\Temp\cc2cuyoe.s 			page 41


 2259 0c31 07       		.uleb128 0x7
 2260 0c32 FF090000 		.4byte	.LASF176
 2261 0c36 1A       		.byte	0x1a
 2262 0c37 EA       		.byte	0xea
 2263 0c38 F7080000 		.4byte	0x8f7
 2264 0c3c 68       		.byte	0x68
 2265 0c3d 07       		.uleb128 0x7
 2266 0c3e E0070000 		.4byte	.LASF177
 2267 0c42 1A       		.byte	0x1a
 2268 0c43 EE       		.byte	0xee
 2269 0c44 F7080000 		.4byte	0x8f7
 2270 0c48 6A       		.byte	0x6a
 2271 0c49 07       		.uleb128 0x7
 2272 0c4a 5E070000 		.4byte	.LASF178
 2273 0c4e 1A       		.byte	0x1a
 2274 0c4f F2       		.byte	0xf2
 2275 0c50 330E0000 		.4byte	0xe33
 2276 0c54 6C       		.byte	0x6c
 2277 0c55 07       		.uleb128 0x7
 2278 0c56 6B030000 		.4byte	.LASF179
 2279 0c5a 1A       		.byte	0x1a
 2280 0c5b F3       		.byte	0xf3
 2281 0c5c 330E0000 		.4byte	0xe33
 2282 0c60 70       		.byte	0x70
 2283 0c61 07       		.uleb128 0x7
 2284 0c62 E6060000 		.4byte	.LASF180
 2285 0c66 1A       		.byte	0x1a
 2286 0c67 F5       		.byte	0xf5
 2287 0c68 330E0000 		.4byte	0xe33
 2288 0c6c 74       		.byte	0x74
 2289 0c6d 07       		.uleb128 0x7
 2290 0c6e EA080000 		.4byte	.LASF181
 2291 0c72 1A       		.byte	0x1a
 2292 0c73 F8       		.byte	0xf8
 2293 0c74 E1090000 		.4byte	0x9e1
 2294 0c78 78       		.byte	0x78
 2295 0c79 07       		.uleb128 0x7
 2296 0c7a 02050000 		.4byte	.LASF182
 2297 0c7e 1A       		.byte	0x1a
 2298 0c7f FC       		.byte	0xfc
 2299 0c80 1C0D0000 		.4byte	0xd1c
 2300 0c84 7C       		.byte	0x7c
 2301 0c85 07       		.uleb128 0x7
 2302 0c86 220A0000 		.4byte	.LASF183
 2303 0c8a 1A       		.byte	0x1a
 2304 0c8b FE       		.byte	0xfe
 2305 0c8c ED0C0000 		.4byte	0xced
 2306 0c90 80       		.byte	0x80
 2307 0c91 09       		.uleb128 0x9
 2308 0c92 D3030000 		.4byte	.LASF184
 2309 0c96 1A       		.byte	0x1a
 2310 0c97 0001     		.2byte	0x100
 2311 0c99 8C0D0000 		.4byte	0xd8c
 2312 0c9d 84       		.byte	0x84
 2313 0c9e 09       		.uleb128 0x9
 2314 0c9f 7D040000 		.4byte	.LASF185
 2315 0ca3 1A       		.byte	0x1a
ARM GAS  C:\Users\jo\AppData\Local\Temp\cc2cuyoe.s 			page 42


 2316 0ca4 0201     		.2byte	0x102
 2317 0ca6 460D0000 		.4byte	0xd46
 2318 0caa 88       		.byte	0x88
 2319 0cab 09       		.uleb128 0x9
 2320 0cac BD060000 		.4byte	.LASF186
 2321 0cb0 1A       		.byte	0x1a
 2322 0cb1 0401     		.2byte	0x104
 2323 0cb3 6B0D0000 		.4byte	0xd6b
 2324 0cb7 8C       		.byte	0x8c
 2325 0cb8 09       		.uleb128 0x9
 2326 0cb9 9D090000 		.4byte	.LASF187
 2327 0cbd 1A       		.byte	0x1a
 2328 0cbe 0D01     		.2byte	0x10d
 2329 0cc0 0D090000 		.4byte	0x90d
 2330 0cc4 90       		.byte	0x90
 2331 0cc5 09       		.uleb128 0x9
 2332 0cc6 930B0000 		.4byte	.LASF188
 2333 0cca 1A       		.byte	0x1a
 2334 0ccb 1401     		.2byte	0x114
 2335 0ccd E1080000 		.4byte	0x8e1
 2336 0cd1 94       		.byte	0x94
 2337 0cd2 09       		.uleb128 0x9
 2338 0cd3 DA080000 		.4byte	.LASF189
 2339 0cd7 1A       		.byte	0x1a
 2340 0cd8 1601     		.2byte	0x116
 2341 0cda E1080000 		.4byte	0x8e1
 2342 0cde 95       		.byte	0x95
 2343 0cdf 09       		.uleb128 0x9
 2344 0ce0 F6010000 		.4byte	.LASF190
 2345 0ce4 1A       		.byte	0x1a
 2346 0ce5 1901     		.2byte	0x119
 2347 0ce7 E1080000 		.4byte	0x8e1
 2348 0ceb 96       		.byte	0x96
 2349 0cec 00       		.byte	0
 2350 0ced 03       		.uleb128 0x3
 2351 0cee 63060000 		.4byte	.LASF191
 2352 0cf2 1A       		.byte	0x1a
 2353 0cf3 48       		.byte	0x48
 2354 0cf4 F80C0000 		.4byte	0xcf8
 2355 0cf8 0B       		.uleb128 0xb
 2356 0cf9 04       		.byte	0x4
 2357 0cfa FE0C0000 		.4byte	0xcfe
 2358 0cfe 19       		.uleb128 0x19
 2359 0cff 18090000 		.4byte	0x918
 2360 0d03 1C0D0000 		.4byte	0xd1c
 2361 0d07 0D       		.uleb128 0xd
 2362 0d08 47030000 		.4byte	0x347
 2363 0d0c 0D       		.uleb128 0xd
 2364 0d0d 350A0000 		.4byte	0xa35
 2365 0d11 0D       		.uleb128 0xd
 2366 0d12 E1090000 		.4byte	0x9e1
 2367 0d16 0D       		.uleb128 0xd
 2368 0d17 18090000 		.4byte	0x918
 2369 0d1b 00       		.byte	0
 2370 0d1c 03       		.uleb128 0x3
 2371 0d1d 13020000 		.4byte	.LASF192
 2372 0d21 1A       		.byte	0x1a
ARM GAS  C:\Users\jo\AppData\Local\Temp\cc2cuyoe.s 			page 43


 2373 0d22 56       		.byte	0x56
 2374 0d23 270D0000 		.4byte	0xd27
 2375 0d27 0B       		.uleb128 0xb
 2376 0d28 04       		.byte	0x4
 2377 0d29 2D0D0000 		.4byte	0xd2d
 2378 0d2d 19       		.uleb128 0x19
 2379 0d2e 18090000 		.4byte	0x918
 2380 0d32 460D0000 		.4byte	0xd46
 2381 0d36 0D       		.uleb128 0xd
 2382 0d37 47030000 		.4byte	0x347
 2383 0d3b 0D       		.uleb128 0xd
 2384 0d3c 350A0000 		.4byte	0xa35
 2385 0d40 0D       		.uleb128 0xd
 2386 0d41 F7080000 		.4byte	0x8f7
 2387 0d45 00       		.byte	0
 2388 0d46 03       		.uleb128 0x3
 2389 0d47 C2060000 		.4byte	.LASF193
 2390 0d4b 1A       		.byte	0x1a
 2391 0d4c 62       		.byte	0x62
 2392 0d4d 510D0000 		.4byte	0xd51
 2393 0d51 0B       		.uleb128 0xb
 2394 0d52 04       		.byte	0x4
 2395 0d53 570D0000 		.4byte	0xd57
 2396 0d57 19       		.uleb128 0x19
 2397 0d58 18090000 		.4byte	0x918
 2398 0d5c 6B0D0000 		.4byte	0xd6b
 2399 0d60 0D       		.uleb128 0xd
 2400 0d61 47030000 		.4byte	0x347
 2401 0d65 0D       		.uleb128 0xd
 2402 0d66 350A0000 		.4byte	0xa35
 2403 0d6a 00       		.byte	0
 2404 0d6b 03       		.uleb128 0x3
 2405 0d6c 3C050000 		.4byte	.LASF194
 2406 0d70 1A       		.byte	0x1a
 2407 0d71 6E       		.byte	0x6e
 2408 0d72 760D0000 		.4byte	0xd76
 2409 0d76 0B       		.uleb128 0xb
 2410 0d77 04       		.byte	0x4
 2411 0d78 7C0D0000 		.4byte	0xd7c
 2412 0d7c 0C       		.uleb128 0xc
 2413 0d7d 8C0D0000 		.4byte	0xd8c
 2414 0d81 0D       		.uleb128 0xd
 2415 0d82 47030000 		.4byte	0x347
 2416 0d86 0D       		.uleb128 0xd
 2417 0d87 18090000 		.4byte	0x918
 2418 0d8b 00       		.byte	0
 2419 0d8c 03       		.uleb128 0x3
 2420 0d8d 19010000 		.4byte	.LASF195
 2421 0d91 1A       		.byte	0x1a
 2422 0d92 7C       		.byte	0x7c
 2423 0d93 160A0000 		.4byte	0xa16
 2424 0d97 1A       		.uleb128 0x1a
 2425 0d98 C9030000 		.4byte	.LASF266
 2426 0d9c 01       		.byte	0x1
 2427 0d9d 1A       		.byte	0x1a
 2428 0d9e 7E       		.byte	0x7e
 2429 0d9f E60D0000 		.4byte	0xde6
ARM GAS  C:\Users\jo\AppData\Local\Temp\cc2cuyoe.s 			page 44


 2430 0da3 1B       		.uleb128 0x1b
 2431 0da4 F7060000 		.4byte	.LASF196
 2432 0da8 00       		.sleb128 0
 2433 0da9 1B       		.uleb128 0x1b
 2434 0daa B4090000 		.4byte	.LASF197
 2435 0dae 01       		.sleb128 1
 2436 0daf 1B       		.uleb128 0x1b
 2437 0db0 F0070000 		.4byte	.LASF198
 2438 0db4 02       		.sleb128 2
 2439 0db5 1B       		.uleb128 0x1b
 2440 0db6 0F0C0000 		.4byte	.LASF199
 2441 0dba 03       		.sleb128 3
 2442 0dbb 1B       		.uleb128 0x1b
 2443 0dbc 1A080000 		.4byte	.LASF200
 2444 0dc0 04       		.sleb128 4
 2445 0dc1 1B       		.uleb128 0x1b
 2446 0dc2 4E090000 		.4byte	.LASF201
 2447 0dc6 05       		.sleb128 5
 2448 0dc7 1B       		.uleb128 0x1b
 2449 0dc8 59090000 		.4byte	.LASF202
 2450 0dcc 06       		.sleb128 6
 2451 0dcd 1B       		.uleb128 0x1b
 2452 0dce C3040000 		.4byte	.LASF203
 2453 0dd2 07       		.sleb128 7
 2454 0dd3 1B       		.uleb128 0x1b
 2455 0dd4 F6030000 		.4byte	.LASF204
 2456 0dd8 08       		.sleb128 8
 2457 0dd9 1B       		.uleb128 0x1b
 2458 0dda 92030000 		.4byte	.LASF205
 2459 0dde 09       		.sleb128 9
 2460 0ddf 1B       		.uleb128 0x1b
 2461 0de0 BA000000 		.4byte	.LASF206
 2462 0de4 0A       		.sleb128 10
 2463 0de5 00       		.byte	0
 2464 0de6 0A       		.uleb128 0xa
 2465 0de7 D1020000 		.4byte	.LASF207
 2466 0deb 10       		.byte	0x10
 2467 0dec 1B       		.byte	0x1b
 2468 0ded 1501     		.2byte	0x115
 2469 0def 330E0000 		.4byte	0xe33
 2470 0df3 09       		.uleb128 0x9
 2471 0df4 2A010000 		.4byte	.LASF132
 2472 0df8 1B       		.byte	0x1b
 2473 0df9 1601     		.2byte	0x116
 2474 0dfb 330E0000 		.4byte	0xe33
 2475 0dff 00       		.byte	0
 2476 0e00 08       		.uleb128 0x8
 2477 0e01 7000     		.ascii	"p\000"
 2478 0e03 1B       		.byte	0x1b
 2479 0e04 1701     		.2byte	0x117
 2480 0e06 E1090000 		.4byte	0x9e1
 2481 0e0a 04       		.byte	0x4
 2482 0e0b 08       		.uleb128 0x8
 2483 0e0c 6C656E00 		.ascii	"len\000"
 2484 0e10 1B       		.byte	0x1b
 2485 0e11 1801     		.2byte	0x118
 2486 0e13 F7080000 		.4byte	0x8f7
ARM GAS  C:\Users\jo\AppData\Local\Temp\cc2cuyoe.s 			page 45


 2487 0e17 08       		.byte	0x8
 2488 0e18 09       		.uleb128 0x9
 2489 0e19 9A000000 		.4byte	.LASF138
 2490 0e1d 1B       		.byte	0x1b
 2491 0e1e 2201     		.2byte	0x122
 2492 0e20 E1080000 		.4byte	0x8e1
 2493 0e24 0A       		.byte	0xa
 2494 0e25 09       		.uleb128 0x9
 2495 0e26 C5080000 		.4byte	.LASF208
 2496 0e2a 1B       		.byte	0x1b
 2497 0e2b 2701     		.2byte	0x127
 2498 0e2d A60E0000 		.4byte	0xea6
 2499 0e31 0C       		.byte	0xc
 2500 0e32 00       		.byte	0
 2501 0e33 0B       		.uleb128 0xb
 2502 0e34 04       		.byte	0x4
 2503 0e35 E60D0000 		.4byte	0xde6
 2504 0e39 06       		.uleb128 0x6
 2505 0e3a FF080000 		.4byte	.LASF209
 2506 0e3e 14       		.byte	0x14
 2507 0e3f 1B       		.byte	0x1b
 2508 0e40 9F       		.byte	0x9f
 2509 0e41 A60E0000 		.4byte	0xea6
 2510 0e45 10       		.uleb128 0x10
 2511 0e46 73726300 		.ascii	"src\000"
 2512 0e4a 1B       		.byte	0x1b
 2513 0e4b A0       		.byte	0xa0
 2514 0e4c F7080000 		.4byte	0x8f7
 2515 0e50 00       		.byte	0
 2516 0e51 07       		.uleb128 0x7
 2517 0e52 010C0000 		.4byte	.LASF210
 2518 0e56 1B       		.byte	0x1b
 2519 0e57 A1       		.byte	0xa1
 2520 0e58 F7080000 		.4byte	0x8f7
 2521 0e5c 02       		.byte	0x2
 2522 0e5d 07       		.uleb128 0x7
 2523 0e5e 4D020000 		.4byte	.LASF211
 2524 0e62 1B       		.byte	0x1b
 2525 0e63 A2       		.byte	0xa2
 2526 0e64 0D090000 		.4byte	0x90d
 2527 0e68 04       		.byte	0x4
 2528 0e69 07       		.uleb128 0x7
 2529 0e6a B3050000 		.4byte	.LASF212
 2530 0e6e 1B       		.byte	0x1b
 2531 0e6f A3       		.byte	0xa3
 2532 0e70 0D090000 		.4byte	0x90d
 2533 0e74 08       		.byte	0x8
 2534 0e75 07       		.uleb128 0x7
 2535 0e76 79080000 		.4byte	.LASF213
 2536 0e7a 1B       		.byte	0x1b
 2537 0e7b A4       		.byte	0xa4
 2538 0e7c F7080000 		.4byte	0x8f7
 2539 0e80 0C       		.byte	0xc
 2540 0e81 10       		.uleb128 0x10
 2541 0e82 776E6400 		.ascii	"wnd\000"
 2542 0e86 1B       		.byte	0x1b
 2543 0e87 A5       		.byte	0xa5
ARM GAS  C:\Users\jo\AppData\Local\Temp\cc2cuyoe.s 			page 46


 2544 0e88 F7080000 		.4byte	0x8f7
 2545 0e8c 0E       		.byte	0xe
 2546 0e8d 07       		.uleb128 0x7
 2547 0e8e 9B030000 		.4byte	.LASF214
 2548 0e92 1B       		.byte	0x1b
 2549 0e93 A6       		.byte	0xa6
 2550 0e94 F7080000 		.4byte	0x8f7
 2551 0e98 10       		.byte	0x10
 2552 0e99 07       		.uleb128 0x7
 2553 0e9a 7F000000 		.4byte	.LASF215
 2554 0e9e 1B       		.byte	0x1b
 2555 0e9f A7       		.byte	0xa7
 2556 0ea0 F7080000 		.4byte	0x8f7
 2557 0ea4 12       		.byte	0x12
 2558 0ea5 00       		.byte	0
 2559 0ea6 0B       		.uleb128 0xb
 2560 0ea7 04       		.byte	0x4
 2561 0ea8 390E0000 		.4byte	0xe39
 2562 0eac 1C       		.uleb128 0x1c
 2563 0ead 01       		.byte	0x1
 2564 0eae 1C       		.byte	0x1c
 2565 0eaf 2B       		.byte	0x2b
 2566 0eb0 0F0F0000 		.4byte	0xf0f
 2567 0eb4 1B       		.uleb128 0x1b
 2568 0eb5 6C080000 		.4byte	.LASF216
 2569 0eb9 00       		.sleb128 0
 2570 0eba 1B       		.uleb128 0x1b
 2571 0ebb B0070000 		.4byte	.LASF217
 2572 0ebf 01       		.sleb128 1
 2573 0ec0 1B       		.uleb128 0x1b
 2574 0ec1 DF050000 		.4byte	.LASF218
 2575 0ec5 02       		.sleb128 2
 2576 0ec6 1B       		.uleb128 0x1b
 2577 0ec7 27000000 		.4byte	.LASF219
 2578 0ecb 03       		.sleb128 3
 2579 0ecc 1B       		.uleb128 0x1b
 2580 0ecd 81090000 		.4byte	.LASF220
 2581 0ed1 04       		.sleb128 4
 2582 0ed2 1B       		.uleb128 0x1b
 2583 0ed3 54060000 		.4byte	.LASF221
 2584 0ed7 05       		.sleb128 5
 2585 0ed8 1B       		.uleb128 0x1b
 2586 0ed9 4C080000 		.4byte	.LASF222
 2587 0edd 06       		.sleb128 6
 2588 0ede 1B       		.uleb128 0x1b
 2589 0edf 7C050000 		.4byte	.LASF223
 2590 0ee3 07       		.sleb128 7
 2591 0ee4 1B       		.uleb128 0x1b
 2592 0ee5 60020000 		.4byte	.LASF224
 2593 0ee9 08       		.sleb128 8
 2594 0eea 1B       		.uleb128 0x1b
 2595 0eeb 8C020000 		.4byte	.LASF225
 2596 0eef 09       		.sleb128 9
 2597 0ef0 1B       		.uleb128 0x1b
 2598 0ef1 4C030000 		.4byte	.LASF226
 2599 0ef5 0A       		.sleb128 10
 2600 0ef6 1B       		.uleb128 0x1b
ARM GAS  C:\Users\jo\AppData\Local\Temp\cc2cuyoe.s 			page 47


 2601 0ef7 94070000 		.4byte	.LASF227
 2602 0efb 0B       		.sleb128 11
 2603 0efc 1B       		.uleb128 0x1b
 2604 0efd 73040000 		.4byte	.LASF228
 2605 0f01 0C       		.sleb128 12
 2606 0f02 1B       		.uleb128 0x1b
 2607 0f03 04020000 		.4byte	.LASF229
 2608 0f07 0D       		.sleb128 13
 2609 0f08 1B       		.uleb128 0x1b
 2610 0f09 09040000 		.4byte	.LASF230
 2611 0f0d 0E       		.sleb128 14
 2612 0f0e 00       		.byte	0
 2613 0f0f 03       		.uleb128 0x3
 2614 0f10 DF0B0000 		.4byte	.LASF231
 2615 0f14 1C       		.byte	0x1c
 2616 0f15 2F       		.byte	0x2f
 2617 0f16 AC0E0000 		.4byte	0xeac
 2618 0f1a 1D       		.uleb128 0x1d
 2619 0f1b 74070000 		.4byte	.LASF267
 2620 0f1f 03       		.byte	0x3
 2621 0f20 9C01     		.2byte	0x19c
 2622 0f22 03       		.byte	0x3
 2623 0f23 340F0000 		.4byte	0xf34
 2624 0f27 1E       		.uleb128 0x1e
 2625 0f28 F0020000 		.4byte	.LASF232
 2626 0f2c 03       		.byte	0x3
 2627 0f2d 9C01     		.2byte	0x19c
 2628 0f2f 23060000 		.4byte	0x623
 2629 0f33 00       		.byte	0
 2630 0f34 1F       		.uleb128 0x1f
 2631 0f35 82040000 		.4byte	.LASF268
 2632 0f39 01       		.byte	0x1
 2633 0f3a 45       		.byte	0x45
 2634 0f3b 25000000 		.4byte	0x25
 2635 0f3f 03       		.byte	0x3
 2636 0f40 710F0000 		.4byte	0xf71
 2637 0f44 20       		.uleb128 0x20
 2638 0f45 63687000 		.ascii	"chp\000"
 2639 0f49 01       		.byte	0x1
 2640 0f4a 45       		.byte	0x45
 2641 0f4b 710F0000 		.4byte	0xf71
 2642 0f4f 20       		.uleb128 0x20
 2643 0f50 666D7400 		.ascii	"fmt\000"
 2644 0f54 01       		.byte	0x1
 2645 0f55 45       		.byte	0x45
 2646 0f56 23060000 		.4byte	0x623
 2647 0f5a 21       		.uleb128 0x21
 2648 0f5b 22       		.uleb128 0x22
 2649 0f5c 617000   		.ascii	"ap\000"
 2650 0f5f 01       		.byte	0x1
 2651 0f60 46       		.byte	0x46
 2652 0f61 D6080000 		.4byte	0x8d6
 2653 0f65 23       		.uleb128 0x23
 2654 0f66 C50B0000 		.4byte	.LASF233
 2655 0f6a 01       		.byte	0x1
 2656 0f6b 47       		.byte	0x47
 2657 0f6c 25000000 		.4byte	0x25
ARM GAS  C:\Users\jo\AppData\Local\Temp\cc2cuyoe.s 			page 48


 2658 0f70 00       		.byte	0
 2659 0f71 0B       		.uleb128 0xb
 2660 0f72 04       		.byte	0x4
 2661 0f73 5C080000 		.4byte	0x85c
 2662 0f77 24       		.uleb128 0x24
 2663 0f78 340F0000 		.4byte	0xf34
 2664 0f7c 00000000 		.4byte	.LFB264
 2665 0f80 28000000 		.4byte	.LFE264-.LFB264
 2666 0f84 01       		.uleb128 0x1
 2667 0f85 9C       		.byte	0x9c
 2668 0f86 D60F0000 		.4byte	0xfd6
 2669 0f8a 25       		.uleb128 0x25
 2670 0f8b 440F0000 		.4byte	0xf44
 2671 0f8f 00000000 		.4byte	.LLST0
 2672 0f93 26       		.uleb128 0x26
 2673 0f94 4F0F0000 		.4byte	0xf4f
 2674 0f98 02       		.uleb128 0x2
 2675 0f99 91       		.byte	0x91
 2676 0f9a 74       		.sleb128 -12
 2677 0f9b 21       		.uleb128 0x21
 2678 0f9c 27       		.uleb128 0x27
 2679 0f9d 5B0F0000 		.4byte	0xf5b
 2680 0fa1 02       		.uleb128 0x2
 2681 0fa2 91       		.byte	0x91
 2682 0fa3 6C       		.sleb128 -20
 2683 0fa4 27       		.uleb128 0x27
 2684 0fa5 650F0000 		.4byte	0xf65
 2685 0fa9 01       		.uleb128 0x1
 2686 0faa 50       		.byte	0x50
 2687 0fab 26       		.uleb128 0x26
 2688 0fac 4F0F0000 		.4byte	0xf4f
 2689 0fb0 06       		.uleb128 0x6
 2690 0fb1 03       		.byte	0x3
 2691 0fb2 00000000 		.4byte	.LC0
 2692 0fb6 9F       		.byte	0x9f
 2693 0fb7 28       		.uleb128 0x28
 2694 0fb8 440F0000 		.4byte	0xf44
 2695 0fbc 29       		.uleb128 0x29
 2696 0fbd 14000000 		.4byte	.LVL2
 2697 0fc1 C5130000 		.4byte	0x13c5
 2698 0fc5 2A       		.uleb128 0x2a
 2699 0fc6 01       		.uleb128 0x1
 2700 0fc7 52       		.byte	0x52
 2701 0fc8 02       		.uleb128 0x2
 2702 0fc9 91       		.byte	0x91
 2703 0fca 60       		.sleb128 -32
 2704 0fcb 2A       		.uleb128 0x2a
 2705 0fcc 01       		.uleb128 0x1
 2706 0fcd 51       		.byte	0x51
 2707 0fce 05       		.uleb128 0x5
 2708 0fcf 03       		.byte	0x3
 2709 0fd0 00000000 		.4byte	.LC0
 2710 0fd4 00       		.byte	0
 2711 0fd5 00       		.byte	0
 2712 0fd6 2B       		.uleb128 0x2b
 2713 0fd7 94040000 		.4byte	.LASF237
 2714 0fdb 02       		.byte	0x2
ARM GAS  C:\Users\jo\AppData\Local\Temp\cc2cuyoe.s 			page 49


 2715 0fdc 0A01     		.2byte	0x10a
 2716 0fde 00000000 		.4byte	.LFB261
 2717 0fe2 94000000 		.4byte	.LFE261-.LFB261
 2718 0fe6 01       		.uleb128 0x1
 2719 0fe7 9C       		.byte	0x9c
 2720 0fe8 AF100000 		.4byte	0x10af
 2721 0fec 2C       		.uleb128 0x2c
 2722 0fed FB0B0000 		.4byte	.LASF234
 2723 0ff1 02       		.byte	0x2
 2724 0ff2 0A01     		.2byte	0x10a
 2725 0ff4 0D090000 		.4byte	0x90d
 2726 0ff8 21000000 		.4byte	.LLST1
 2727 0ffc 2C       		.uleb128 0x2c
 2728 0ffd B0010000 		.4byte	.LASF235
 2729 1001 02       		.byte	0x2
 2730 1002 0A01     		.2byte	0x10a
 2731 1004 34090000 		.4byte	0x934
 2732 1008 4D000000 		.4byte	.LLST2
 2733 100c 2D       		.uleb128 0x2d
 2734 100d 61726700 		.ascii	"arg\000"
 2735 1011 02       		.byte	0x2
 2736 1012 0A01     		.2byte	0x10a
 2737 1014 47030000 		.4byte	0x347
 2738 1018 90000000 		.4byte	.LLST3
 2739 101c 2E       		.uleb128 0x2e
 2740 101d D6060000 		.4byte	.LASF236
 2741 1021 02       		.byte	0x2
 2742 1022 0D01     		.2byte	0x10d
 2743 1024 7A090000 		.4byte	0x97a
 2744 1028 BC000000 		.4byte	.LLST4
 2745 102c 2F       		.uleb128 0x2f
 2746 102d 7400     		.ascii	"t\000"
 2747 102f 02       		.byte	0x2
 2748 1030 0D01     		.2byte	0x10d
 2749 1032 7A090000 		.4byte	0x97a
 2750 1036 CF000000 		.4byte	.LLST5
 2751 103a 30       		.uleb128 0x30
 2752 103b 1A0F0000 		.4byte	0xf1a
 2753 103f 72000000 		.4byte	.LBB4
 2754 1043 00000000 		.4byte	.Ldebug_ranges0+0
 2755 1047 02       		.byte	0x2
 2756 1048 1101     		.2byte	0x111
 2757 104a 6E100000 		.4byte	0x106e
 2758 104e 26       		.uleb128 0x26
 2759 104f 270F0000 		.4byte	0xf27
 2760 1053 06       		.uleb128 0x6
 2761 1054 03       		.byte	0x3
 2762 1055 28000000 		.4byte	.LC1
 2763 1059 9F       		.byte	0x9f
 2764 105a 31       		.uleb128 0x31
 2765 105b 7E000000 		.4byte	.LVL16
 2766 105f E4130000 		.4byte	0x13e4
 2767 1063 2A       		.uleb128 0x2a
 2768 1064 01       		.uleb128 0x1
 2769 1065 50       		.byte	0x50
 2770 1066 05       		.uleb128 0x5
 2771 1067 03       		.byte	0x3
ARM GAS  C:\Users\jo\AppData\Local\Temp\cc2cuyoe.s 			page 50


 2772 1068 28000000 		.4byte	.LC1
 2773 106c 00       		.byte	0
 2774 106d 00       		.byte	0
 2775 106e 32       		.uleb128 0x32
 2776 106f 10000000 		.4byte	.LVL5
 2777 1073 F5130000 		.4byte	0x13f5
 2778 1077 81100000 		.4byte	0x1081
 2779 107b 2A       		.uleb128 0x2a
 2780 107c 01       		.uleb128 0x1
 2781 107d 50       		.byte	0x50
 2782 107e 01       		.uleb128 0x1
 2783 107f 3B       		.byte	0x3b
 2784 1080 00       		.byte	0
 2785 1081 29       		.uleb128 0x29
 2786 1082 72000000 		.4byte	.LVL14
 2787 1086 770F0000 		.4byte	0xf77
 2788 108a 2A       		.uleb128 0x2a
 2789 108b 01       		.uleb128 0x1
 2790 108c 53       		.byte	0x53
 2791 108d 03       		.uleb128 0x3
 2792 108e 0A       		.byte	0xa
 2793 108f 1101     		.2byte	0x111
 2794 1091 2A       		.uleb128 0x2a
 2795 1092 01       		.uleb128 0x1
 2796 1093 52       		.byte	0x52
 2797 1094 05       		.uleb128 0x5
 2798 1095 03       		.byte	0x3
 2799 1096 28000000 		.4byte	.LC1
 2800 109a 2A       		.uleb128 0x2a
 2801 109b 01       		.uleb128 0x1
 2802 109c 51       		.byte	0x51
 2803 109d 05       		.uleb128 0x5
 2804 109e 03       		.byte	0x3
 2805 109f 00000000 		.4byte	.LC0
 2806 10a3 2A       		.uleb128 0x2a
 2807 10a4 02       		.uleb128 0x2
 2808 10a5 7D       		.byte	0x7d
 2809 10a6 00       		.sleb128 0
 2810 10a7 05       		.uleb128 0x5
 2811 10a8 03       		.byte	0x3
 2812 10a9 68000000 		.4byte	.LC2
 2813 10ad 00       		.byte	0
 2814 10ae 00       		.byte	0
 2815 10af 33       		.uleb128 0x33
 2816 10b0 A3060000 		.4byte	.LASF238
 2817 10b4 02       		.byte	0x2
 2818 10b5 65       		.byte	0x65
 2819 10b6 00000000 		.4byte	.LFB257
 2820 10ba 34000000 		.4byte	.LFE257-.LFB257
 2821 10be 01       		.uleb128 0x1
 2822 10bf 9C       		.byte	0x9c
 2823 10c0 E3100000 		.4byte	0x10e3
 2824 10c4 31       		.uleb128 0x31
 2825 10c5 1A000000 		.4byte	.LVL17
 2826 10c9 D60F0000 		.4byte	0xfd6
 2827 10cd 2A       		.uleb128 0x2a
 2828 10ce 01       		.uleb128 0x1
ARM GAS  C:\Users\jo\AppData\Local\Temp\cc2cuyoe.s 			page 51


 2829 10cf 52       		.byte	0x52
 2830 10d0 01       		.uleb128 0x1
 2831 10d1 30       		.byte	0x30
 2832 10d2 2A       		.uleb128 0x2a
 2833 10d3 01       		.uleb128 0x1
 2834 10d4 51       		.byte	0x51
 2835 10d5 05       		.uleb128 0x5
 2836 10d6 03       		.byte	0x3
 2837 10d7 00000000 		.4byte	tcpip_tcp_timer
 2838 10db 2A       		.uleb128 0x2a
 2839 10dc 01       		.uleb128 0x1
 2840 10dd 50       		.byte	0x50
 2841 10de 02       		.uleb128 0x2
 2842 10df 08       		.byte	0x8
 2843 10e0 FA       		.byte	0xfa
 2844 10e1 00       		.byte	0
 2845 10e2 00       		.byte	0
 2846 10e3 34       		.uleb128 0x34
 2847 10e4 200C0000 		.4byte	.LASF240
 2848 10e8 02       		.byte	0x2
 2849 10e9 4F       		.byte	0x4f
 2850 10ea 00000000 		.4byte	.LFB256
 2851 10ee 38000000 		.4byte	.LFE256-.LFB256
 2852 10f2 01       		.uleb128 0x1
 2853 10f3 9C       		.byte	0x9c
 2854 10f4 2F110000 		.4byte	0x112f
 2855 10f8 35       		.uleb128 0x35
 2856 10f9 61726700 		.ascii	"arg\000"
 2857 10fd 02       		.byte	0x2
 2858 10fe 4F       		.byte	0x4f
 2859 10ff 47030000 		.4byte	0x347
 2860 1103 ED000000 		.4byte	.LLST6
 2861 1107 36       		.uleb128 0x36
 2862 1108 06000000 		.4byte	.LVL19
 2863 110c 0A140000 		.4byte	0x140a
 2864 1110 31       		.uleb128 0x31
 2865 1111 1A000000 		.4byte	.LVL20
 2866 1115 D60F0000 		.4byte	0xfd6
 2867 1119 2A       		.uleb128 0x2a
 2868 111a 01       		.uleb128 0x1
 2869 111b 52       		.byte	0x52
 2870 111c 01       		.uleb128 0x1
 2871 111d 30       		.byte	0x30
 2872 111e 2A       		.uleb128 0x2a
 2873 111f 01       		.uleb128 0x1
 2874 1120 51       		.byte	0x51
 2875 1121 05       		.uleb128 0x5
 2876 1122 03       		.byte	0x3
 2877 1123 00000000 		.4byte	tcpip_tcp_timer
 2878 1127 2A       		.uleb128 0x2a
 2879 1128 01       		.uleb128 0x1
 2880 1129 50       		.byte	0x50
 2881 112a 02       		.uleb128 0x2
 2882 112b 08       		.byte	0x8
 2883 112c FA       		.byte	0xfa
 2884 112d 00       		.byte	0
 2885 112e 00       		.byte	0
ARM GAS  C:\Users\jo\AppData\Local\Temp\cc2cuyoe.s 			page 52


 2886 112f 33       		.uleb128 0x33
 2887 1130 C0090000 		.4byte	.LASF239
 2888 1134 02       		.byte	0x2
 2889 1135 DF       		.byte	0xdf
 2890 1136 00000000 		.4byte	.LFB260
 2891 113a 28000000 		.4byte	.LFE260-.LFB260
 2892 113e 01       		.uleb128 0x1
 2893 113f 9C       		.byte	0x9c
 2894 1140 87110000 		.4byte	0x1187
 2895 1144 32       		.uleb128 0x32
 2896 1145 0E000000 		.4byte	.LVL21
 2897 1149 D60F0000 		.4byte	0xfd6
 2898 114d 67110000 		.4byte	0x1167
 2899 1151 2A       		.uleb128 0x2a
 2900 1152 01       		.uleb128 0x1
 2901 1153 52       		.byte	0x52
 2902 1154 01       		.uleb128 0x1
 2903 1155 30       		.byte	0x30
 2904 1156 2A       		.uleb128 0x2a
 2905 1157 01       		.uleb128 0x1
 2906 1158 51       		.byte	0x51
 2907 1159 05       		.uleb128 0x5
 2908 115a 03       		.byte	0x3
 2909 115b 00000000 		.4byte	ip_reass_timer
 2910 115f 2A       		.uleb128 0x2a
 2911 1160 01       		.uleb128 0x1
 2912 1161 50       		.byte	0x50
 2913 1162 03       		.uleb128 0x3
 2914 1163 0A       		.byte	0xa
 2915 1164 E803     		.2byte	0x3e8
 2916 1166 00       		.byte	0
 2917 1167 31       		.uleb128 0x31
 2918 1168 1E000000 		.4byte	.LVL22
 2919 116c D60F0000 		.4byte	0xfd6
 2920 1170 2A       		.uleb128 0x2a
 2921 1171 01       		.uleb128 0x1
 2922 1172 52       		.byte	0x52
 2923 1173 01       		.uleb128 0x1
 2924 1174 30       		.byte	0x30
 2925 1175 2A       		.uleb128 0x2a
 2926 1176 01       		.uleb128 0x1
 2927 1177 51       		.byte	0x51
 2928 1178 05       		.uleb128 0x5
 2929 1179 03       		.byte	0x3
 2930 117a 00000000 		.4byte	arp_timer
 2931 117e 2A       		.uleb128 0x2a
 2932 117f 01       		.uleb128 0x1
 2933 1180 50       		.byte	0x50
 2934 1181 03       		.uleb128 0x3
 2935 1182 0A       		.byte	0xa
 2936 1183 8813     		.2byte	0x1388
 2937 1185 00       		.byte	0
 2938 1186 00       		.byte	0
 2939 1187 34       		.uleb128 0x34
 2940 1188 B8030000 		.4byte	.LASF241
 2941 118c 02       		.byte	0x2
 2942 118d 87       		.byte	0x87
ARM GAS  C:\Users\jo\AppData\Local\Temp\cc2cuyoe.s 			page 53


 2943 118e 00000000 		.4byte	.LFB259
 2944 1192 1C000000 		.4byte	.LFE259-.LFB259
 2945 1196 01       		.uleb128 0x1
 2946 1197 9C       		.byte	0x9c
 2947 1198 D4110000 		.4byte	0x11d4
 2948 119c 35       		.uleb128 0x35
 2949 119d 61726700 		.ascii	"arg\000"
 2950 11a1 02       		.byte	0x2
 2951 11a2 87       		.byte	0x87
 2952 11a3 47030000 		.4byte	0x347
 2953 11a7 0E010000 		.4byte	.LLST7
 2954 11ab 36       		.uleb128 0x36
 2955 11ac 06000000 		.4byte	.LVL24
 2956 11b0 11140000 		.4byte	0x1411
 2957 11b4 31       		.uleb128 0x31
 2958 11b5 16000000 		.4byte	.LVL25
 2959 11b9 D60F0000 		.4byte	0xfd6
 2960 11bd 2A       		.uleb128 0x2a
 2961 11be 01       		.uleb128 0x1
 2962 11bf 52       		.byte	0x52
 2963 11c0 01       		.uleb128 0x1
 2964 11c1 30       		.byte	0x30
 2965 11c2 2A       		.uleb128 0x2a
 2966 11c3 01       		.uleb128 0x1
 2967 11c4 51       		.byte	0x51
 2968 11c5 05       		.uleb128 0x5
 2969 11c6 03       		.byte	0x3
 2970 11c7 00000000 		.4byte	arp_timer
 2971 11cb 2A       		.uleb128 0x2a
 2972 11cc 01       		.uleb128 0x1
 2973 11cd 50       		.byte	0x50
 2974 11ce 03       		.uleb128 0x3
 2975 11cf 0A       		.byte	0xa
 2976 11d0 8813     		.2byte	0x1388
 2977 11d2 00       		.byte	0
 2978 11d3 00       		.byte	0
 2979 11d4 34       		.uleb128 0x34
 2980 11d5 F9070000 		.4byte	.LASF242
 2981 11d9 02       		.byte	0x2
 2982 11da 77       		.byte	0x77
 2983 11db 00000000 		.4byte	.LFB258
 2984 11df 1C000000 		.4byte	.LFE258-.LFB258
 2985 11e3 01       		.uleb128 0x1
 2986 11e4 9C       		.byte	0x9c
 2987 11e5 21120000 		.4byte	0x1221
 2988 11e9 35       		.uleb128 0x35
 2989 11ea 61726700 		.ascii	"arg\000"
 2990 11ee 02       		.byte	0x2
 2991 11ef 77       		.byte	0x77
 2992 11f0 47030000 		.4byte	0x347
 2993 11f4 2F010000 		.4byte	.LLST8
 2994 11f8 36       		.uleb128 0x36
 2995 11f9 06000000 		.4byte	.LVL27
 2996 11fd 18140000 		.4byte	0x1418
 2997 1201 31       		.uleb128 0x31
 2998 1202 16000000 		.4byte	.LVL28
 2999 1206 D60F0000 		.4byte	0xfd6
ARM GAS  C:\Users\jo\AppData\Local\Temp\cc2cuyoe.s 			page 54


 3000 120a 2A       		.uleb128 0x2a
 3001 120b 01       		.uleb128 0x1
 3002 120c 52       		.byte	0x52
 3003 120d 01       		.uleb128 0x1
 3004 120e 30       		.byte	0x30
 3005 120f 2A       		.uleb128 0x2a
 3006 1210 01       		.uleb128 0x1
 3007 1211 51       		.byte	0x51
 3008 1212 05       		.uleb128 0x5
 3009 1213 03       		.byte	0x3
 3010 1214 00000000 		.4byte	ip_reass_timer
 3011 1218 2A       		.uleb128 0x2a
 3012 1219 01       		.uleb128 0x1
 3013 121a 50       		.byte	0x50
 3014 121b 03       		.uleb128 0x3
 3015 121c 0A       		.byte	0xa
 3016 121d E803     		.2byte	0x3e8
 3017 121f 00       		.byte	0
 3018 1220 00       		.byte	0
 3019 1221 2B       		.uleb128 0x2b
 3020 1222 50010000 		.4byte	.LASF243
 3021 1226 02       		.byte	0x2
 3022 1227 4101     		.2byte	0x141
 3023 1229 00000000 		.4byte	.LFB262
 3024 122d 48000000 		.4byte	.LFE262-.LFB262
 3025 1231 01       		.uleb128 0x1
 3026 1232 9C       		.byte	0x9c
 3027 1233 85120000 		.4byte	0x1285
 3028 1237 2C       		.uleb128 0x2c
 3029 1238 B0010000 		.4byte	.LASF235
 3030 123c 02       		.byte	0x2
 3031 123d 4101     		.2byte	0x141
 3032 123f 34090000 		.4byte	0x934
 3033 1243 50010000 		.4byte	.LLST9
 3034 1247 2D       		.uleb128 0x2d
 3035 1248 61726700 		.ascii	"arg\000"
 3036 124c 02       		.byte	0x2
 3037 124d 4101     		.2byte	0x141
 3038 124f 47030000 		.4byte	0x347
 3039 1253 7C010000 		.4byte	.LLST10
 3040 1257 2E       		.uleb128 0x2e
 3041 1258 00000000 		.4byte	.LASF244
 3042 125c 02       		.byte	0x2
 3043 125d 4301     		.2byte	0x143
 3044 125f 7A090000 		.4byte	0x97a
 3045 1263 A8010000 		.4byte	.LLST11
 3046 1267 2F       		.uleb128 0x2f
 3047 1268 7400     		.ascii	"t\000"
 3048 126a 02       		.byte	0x2
 3049 126b 4301     		.2byte	0x143
 3050 126d 7A090000 		.4byte	0x97a
 3051 1271 C6010000 		.4byte	.LLST12
 3052 1275 31       		.uleb128 0x31
 3053 1276 3C000000 		.4byte	.LVL35
 3054 127a 1F140000 		.4byte	0x141f
 3055 127e 2A       		.uleb128 0x2a
 3056 127f 01       		.uleb128 0x1
ARM GAS  C:\Users\jo\AppData\Local\Temp\cc2cuyoe.s 			page 55


 3057 1280 50       		.byte	0x50
 3058 1281 01       		.uleb128 0x1
 3059 1282 3B       		.byte	0x3b
 3060 1283 00       		.byte	0
 3061 1284 00       		.byte	0
 3062 1285 2B       		.uleb128 0x2b
 3063 1286 C1050000 		.4byte	.LASF245
 3064 128a 02       		.byte	0x2
 3065 128b A701     		.2byte	0x1a7
 3066 128d 00000000 		.4byte	.LFB263
 3067 1291 6C000000 		.4byte	.LFE263-.LFB263
 3068 1295 01       		.uleb128 0x1
 3069 1296 9C       		.byte	0x9c
 3070 1297 5D130000 		.4byte	0x135d
 3071 129b 2C       		.uleb128 0x2c
 3072 129c D5070000 		.4byte	.LASF246
 3073 12a0 02       		.byte	0x2
 3074 12a1 A701     		.2byte	0x1a7
 3075 12a3 5D130000 		.4byte	0x135d
 3076 12a7 FA010000 		.4byte	.LLST13
 3077 12ab 2D       		.uleb128 0x2d
 3078 12ac 6D736700 		.ascii	"msg\000"
 3079 12b0 02       		.byte	0x2
 3080 12b1 A701     		.2byte	0x1a7
 3081 12b3 63130000 		.4byte	0x1363
 3082 12b7 3C020000 		.4byte	.LLST14
 3083 12bb 2E       		.uleb128 0x2e
 3084 12bc A4010000 		.4byte	.LASF247
 3085 12c0 02       		.byte	0x2
 3086 12c1 A901     		.2byte	0x1a9
 3087 12c3 0D090000 		.4byte	0x90d
 3088 12c7 7E020000 		.4byte	.LLST15
 3089 12cb 2E       		.uleb128 0x2e
 3090 12cc 26080000 		.4byte	.LASF248
 3091 12d0 02       		.byte	0x2
 3092 12d1 AA01     		.2byte	0x1aa
 3093 12d3 7A090000 		.4byte	0x97a
 3094 12d7 9C020000 		.4byte	.LLST16
 3095 12db 2E       		.uleb128 0x2e
 3096 12dc B0010000 		.4byte	.LASF235
 3097 12e0 02       		.byte	0x2
 3098 12e1 AB01     		.2byte	0x1ab
 3099 12e3 34090000 		.4byte	0x934
 3100 12e7 AF020000 		.4byte	.LLST17
 3101 12eb 2F       		.uleb128 0x2f
 3102 12ec 61726700 		.ascii	"arg\000"
 3103 12f0 02       		.byte	0x2
 3104 12f1 AC01     		.2byte	0x1ac
 3105 12f3 47030000 		.4byte	0x347
 3106 12f7 CD020000 		.4byte	.LLST18
 3107 12fb 37       		.uleb128 0x37
 3108 12fc 65000000 		.4byte	.LASF269
 3109 1300 02       		.byte	0x2
 3110 1301 AE01     		.2byte	0x1ae
 3111 1303 60000000 		.4byte	.L73
 3112 1307 32       		.uleb128 0x32
 3113 1308 20000000 		.4byte	.LVL41
ARM GAS  C:\Users\jo\AppData\Local\Temp\cc2cuyoe.s 			page 56


 3114 130c 1F140000 		.4byte	0x141f
 3115 1310 1A130000 		.4byte	0x131a
 3116 1314 2A       		.uleb128 0x2a
 3117 1315 01       		.uleb128 0x1
 3118 1316 50       		.byte	0x50
 3119 1317 01       		.uleb128 0x1
 3120 1318 3B       		.byte	0x3b
 3121 1319 00       		.byte	0
 3122 131a 32       		.uleb128 0x32
 3123 131b 36000000 		.4byte	.LVL43
 3124 131f 35140000 		.4byte	0x1435
 3125 1323 34130000 		.4byte	0x1334
 3126 1327 2A       		.uleb128 0x2a
 3127 1328 01       		.uleb128 0x1
 3128 1329 51       		.byte	0x51
 3129 132a 02       		.uleb128 0x2
 3130 132b 76       		.byte	0x76
 3131 132c 00       		.sleb128 0
 3132 132d 2A       		.uleb128 0x2a
 3133 132e 01       		.uleb128 0x1
 3134 132f 50       		.byte	0x50
 3135 1330 02       		.uleb128 0x2
 3136 1331 77       		.byte	0x77
 3137 1332 00       		.sleb128 0
 3138 1333 00       		.byte	0
 3139 1334 38       		.uleb128 0x38
 3140 1335 4E000000 		.4byte	.LVL46
 3141 1339 35140000 		.4byte	0x1435
 3142 133d 50130000 		.4byte	0x1350
 3143 1341 2A       		.uleb128 0x2a
 3144 1342 01       		.uleb128 0x1
 3145 1343 51       		.byte	0x51
 3146 1344 03       		.uleb128 0x3
 3147 1345 F3       		.byte	0xf3
 3148 1346 01       		.uleb128 0x1
 3149 1347 51       		.byte	0x51
 3150 1348 2A       		.uleb128 0x2a
 3151 1349 01       		.uleb128 0x1
 3152 134a 50       		.byte	0x50
 3153 134b 03       		.uleb128 0x3
 3154 134c F3       		.byte	0xf3
 3155 134d 01       		.uleb128 0x1
 3156 134e 50       		.byte	0x50
 3157 134f 00       		.byte	0
 3158 1350 39       		.uleb128 0x39
 3159 1351 64000000 		.4byte	.LVL48
 3160 1355 2A       		.uleb128 0x2a
 3161 1356 01       		.uleb128 0x1
 3162 1357 50       		.byte	0x50
 3163 1358 02       		.uleb128 0x2
 3164 1359 79       		.byte	0x79
 3165 135a 00       		.sleb128 0
 3166 135b 00       		.byte	0
 3167 135c 00       		.byte	0
 3168 135d 0B       		.uleb128 0xb
 3169 135e 04       		.byte	0x4
 3170 135f 23090000 		.4byte	0x923
ARM GAS  C:\Users\jo\AppData\Local\Temp\cc2cuyoe.s 			page 57


 3171 1363 0B       		.uleb128 0xb
 3172 1364 04       		.byte	0x4
 3173 1365 47030000 		.4byte	0x347
 3174 1369 3A       		.uleb128 0x3a
 3175 136a F2090000 		.4byte	.LASF249
 3176 136e 02       		.byte	0x2
 3177 136f 40       		.byte	0x40
 3178 1370 7A090000 		.4byte	0x97a
 3179 1374 05       		.uleb128 0x5
 3180 1375 03       		.byte	0x3
 3181 1376 00000000 		.4byte	next_timeout
 3182 137a 3A       		.uleb128 0x3a
 3183 137b 73010000 		.4byte	.LASF250
 3184 137f 02       		.byte	0x2
 3185 1380 47       		.byte	0x47
 3186 1381 25000000 		.4byte	0x25
 3187 1385 05       		.uleb128 0x5
 3188 1386 03       		.byte	0x3
 3189 1387 00000000 		.4byte	tcpip_tcp_timer_active
 3190 138b 3B       		.uleb128 0x3b
 3191 138c 51070000 		.4byte	.LASF251
 3192 1390 1D       		.byte	0x1d
 3193 1391 A706     		.2byte	0x6a7
 3194 1393 10010000 		.4byte	0x110
 3195 1397 3C       		.uleb128 0x3c
 3196 1398 636800   		.ascii	"ch\000"
 3197 139b 09       		.byte	0x9
 3198 139c EB01     		.2byte	0x1eb
 3199 139e 16040000 		.4byte	0x416
 3200 13a2 3D       		.uleb128 0x3d
 3201 13a3 300C0000 		.4byte	.LASF252
 3202 13a7 14       		.byte	0x14
 3203 13a8 3B       		.byte	0x3b
 3204 13a9 CB080000 		.4byte	0x8cb
 3205 13ad 3B       		.uleb128 0x3b
 3206 13ae E60B0000 		.4byte	.LASF253
 3207 13b2 1B       		.byte	0x1b
 3208 13b3 3D01     		.2byte	0x13d
 3209 13b5 350A0000 		.4byte	0xa35
 3210 13b9 3B       		.uleb128 0x3b
 3211 13ba B10B0000 		.4byte	.LASF254
 3212 13be 1B       		.byte	0x1b
 3213 13bf 4001     		.2byte	0x140
 3214 13c1 350A0000 		.4byte	0xa35
 3215 13c5 3E       		.uleb128 0x3e
 3216 13c6 4B000000 		.4byte	.LASF255
 3217 13ca 01       		.byte	0x1
 3218 13cb 28       		.byte	0x28
 3219 13cc 25000000 		.4byte	0x25
 3220 13d0 E4130000 		.4byte	0x13e4
 3221 13d4 0D       		.uleb128 0xd
 3222 13d5 710F0000 		.4byte	0xf71
 3223 13d9 0D       		.uleb128 0xd
 3224 13da 23060000 		.4byte	0x623
 3225 13de 0D       		.uleb128 0xd
 3226 13df D6080000 		.4byte	0x8d6
 3227 13e3 00       		.byte	0
ARM GAS  C:\Users\jo\AppData\Local\Temp\cc2cuyoe.s 			page 58


 3228 13e4 3F       		.uleb128 0x3f
 3229 13e5 E0090000 		.4byte	.LASF260
 3230 13e9 20       		.byte	0x20
 3231 13ea E6       		.byte	0xe6
 3232 13eb F5130000 		.4byte	0x13f5
 3233 13ef 0D       		.uleb128 0xd
 3234 13f0 23060000 		.4byte	0x623
 3235 13f4 00       		.byte	0
 3236 13f5 3E       		.uleb128 0x3e
 3237 13f6 70050000 		.4byte	.LASF256
 3238 13fa 1C       		.byte	0x1c
 3239 13fb 6A       		.byte	0x6a
 3240 13fc 47030000 		.4byte	0x347
 3241 1400 0A140000 		.4byte	0x140a
 3242 1404 0D       		.uleb128 0xd
 3243 1405 0F0F0000 		.4byte	0xf0f
 3244 1409 00       		.byte	0
 3245 140a 40       		.uleb128 0x40
 3246 140b 45020000 		.4byte	.LASF257
 3247 140f 1B       		.byte	0x1b
 3248 1410 36       		.byte	0x36
 3249 1411 40       		.uleb128 0x40
 3250 1412 17040000 		.4byte	.LASF258
 3251 1416 1E       		.byte	0x1e
 3252 1417 B6       		.byte	0xb6
 3253 1418 40       		.uleb128 0x40
 3254 1419 53020000 		.4byte	.LASF259
 3255 141d 1F       		.byte	0x1f
 3256 141e 40       		.byte	0x40
 3257 141f 3F       		.uleb128 0x3f
 3258 1420 61030000 		.4byte	.LASF261
 3259 1424 1C       		.byte	0x1c
 3260 1425 6C       		.byte	0x6c
 3261 1426 35140000 		.4byte	0x1435
 3262 142a 0D       		.uleb128 0xd
 3263 142b 0F0F0000 		.4byte	0xf0f
 3264 142f 0D       		.uleb128 0xd
 3265 1430 47030000 		.4byte	0x347
 3266 1434 00       		.byte	0
 3267 1435 41       		.uleb128 0x41
 3268 1436 99050000 		.4byte	.LASF262
 3269 143a 21       		.byte	0x21
 3270 143b BF       		.byte	0xbf
 3271 143c 0D090000 		.4byte	0x90d
 3272 1440 0D       		.uleb128 0xd
 3273 1441 5D130000 		.4byte	0x135d
 3274 1445 0D       		.uleb128 0xd
 3275 1446 63130000 		.4byte	0x1363
 3276 144a 0D       		.uleb128 0xd
 3277 144b 0D090000 		.4byte	0x90d
 3278 144f 00       		.byte	0
 3279 1450 00       		.byte	0
 3280              		.section	.debug_abbrev,"",%progbits
 3281              	.Ldebug_abbrev0:
 3282 0000 01       		.uleb128 0x1
 3283 0001 11       		.uleb128 0x11
 3284 0002 01       		.byte	0x1
ARM GAS  C:\Users\jo\AppData\Local\Temp\cc2cuyoe.s 			page 59


 3285 0003 25       		.uleb128 0x25
 3286 0004 0E       		.uleb128 0xe
 3287 0005 13       		.uleb128 0x13
 3288 0006 0B       		.uleb128 0xb
 3289 0007 03       		.uleb128 0x3
 3290 0008 0E       		.uleb128 0xe
 3291 0009 1B       		.uleb128 0x1b
 3292 000a 0E       		.uleb128 0xe
 3293 000b 55       		.uleb128 0x55
 3294 000c 17       		.uleb128 0x17
 3295 000d 11       		.uleb128 0x11
 3296 000e 01       		.uleb128 0x1
 3297 000f 10       		.uleb128 0x10
 3298 0010 17       		.uleb128 0x17
 3299 0011 00       		.byte	0
 3300 0012 00       		.byte	0
 3301 0013 02       		.uleb128 0x2
 3302 0014 24       		.uleb128 0x24
 3303 0015 00       		.byte	0
 3304 0016 0B       		.uleb128 0xb
 3305 0017 0B       		.uleb128 0xb
 3306 0018 3E       		.uleb128 0x3e
 3307 0019 0B       		.uleb128 0xb
 3308 001a 03       		.uleb128 0x3
 3309 001b 08       		.uleb128 0x8
 3310 001c 00       		.byte	0
 3311 001d 00       		.byte	0
 3312 001e 03       		.uleb128 0x3
 3313 001f 16       		.uleb128 0x16
 3314 0020 00       		.byte	0
 3315 0021 03       		.uleb128 0x3
 3316 0022 0E       		.uleb128 0xe
 3317 0023 3A       		.uleb128 0x3a
 3318 0024 0B       		.uleb128 0xb
 3319 0025 3B       		.uleb128 0x3b
 3320 0026 0B       		.uleb128 0xb
 3321 0027 49       		.uleb128 0x49
 3322 0028 13       		.uleb128 0x13
 3323 0029 00       		.byte	0
 3324 002a 00       		.byte	0
 3325 002b 04       		.uleb128 0x4
 3326 002c 24       		.uleb128 0x24
 3327 002d 00       		.byte	0
 3328 002e 0B       		.uleb128 0xb
 3329 002f 0B       		.uleb128 0xb
 3330 0030 3E       		.uleb128 0x3e
 3331 0031 0B       		.uleb128 0xb
 3332 0032 03       		.uleb128 0x3
 3333 0033 0E       		.uleb128 0xe
 3334 0034 00       		.byte	0
 3335 0035 00       		.byte	0
 3336 0036 05       		.uleb128 0x5
 3337 0037 35       		.uleb128 0x35
 3338 0038 00       		.byte	0
 3339 0039 49       		.uleb128 0x49
 3340 003a 13       		.uleb128 0x13
 3341 003b 00       		.byte	0
ARM GAS  C:\Users\jo\AppData\Local\Temp\cc2cuyoe.s 			page 60


 3342 003c 00       		.byte	0
 3343 003d 06       		.uleb128 0x6
 3344 003e 13       		.uleb128 0x13
 3345 003f 01       		.byte	0x1
 3346 0040 03       		.uleb128 0x3
 3347 0041 0E       		.uleb128 0xe
 3348 0042 0B       		.uleb128 0xb
 3349 0043 0B       		.uleb128 0xb
 3350 0044 3A       		.uleb128 0x3a
 3351 0045 0B       		.uleb128 0xb
 3352 0046 3B       		.uleb128 0x3b
 3353 0047 0B       		.uleb128 0xb
 3354 0048 01       		.uleb128 0x1
 3355 0049 13       		.uleb128 0x13
 3356 004a 00       		.byte	0
 3357 004b 00       		.byte	0
 3358 004c 07       		.uleb128 0x7
 3359 004d 0D       		.uleb128 0xd
 3360 004e 00       		.byte	0
 3361 004f 03       		.uleb128 0x3
 3362 0050 0E       		.uleb128 0xe
 3363 0051 3A       		.uleb128 0x3a
 3364 0052 0B       		.uleb128 0xb
 3365 0053 3B       		.uleb128 0x3b
 3366 0054 0B       		.uleb128 0xb
 3367 0055 49       		.uleb128 0x49
 3368 0056 13       		.uleb128 0x13
 3369 0057 38       		.uleb128 0x38
 3370 0058 0B       		.uleb128 0xb
 3371 0059 00       		.byte	0
 3372 005a 00       		.byte	0
 3373 005b 08       		.uleb128 0x8
 3374 005c 0D       		.uleb128 0xd
 3375 005d 00       		.byte	0
 3376 005e 03       		.uleb128 0x3
 3377 005f 08       		.uleb128 0x8
 3378 0060 3A       		.uleb128 0x3a
 3379 0061 0B       		.uleb128 0xb
 3380 0062 3B       		.uleb128 0x3b
 3381 0063 05       		.uleb128 0x5
 3382 0064 49       		.uleb128 0x49
 3383 0065 13       		.uleb128 0x13
 3384 0066 38       		.uleb128 0x38
 3385 0067 0B       		.uleb128 0xb
 3386 0068 00       		.byte	0
 3387 0069 00       		.byte	0
 3388 006a 09       		.uleb128 0x9
 3389 006b 0D       		.uleb128 0xd
 3390 006c 00       		.byte	0
 3391 006d 03       		.uleb128 0x3
 3392 006e 0E       		.uleb128 0xe
 3393 006f 3A       		.uleb128 0x3a
 3394 0070 0B       		.uleb128 0xb
 3395 0071 3B       		.uleb128 0x3b
 3396 0072 05       		.uleb128 0x5
 3397 0073 49       		.uleb128 0x49
 3398 0074 13       		.uleb128 0x13
ARM GAS  C:\Users\jo\AppData\Local\Temp\cc2cuyoe.s 			page 61


 3399 0075 38       		.uleb128 0x38
 3400 0076 0B       		.uleb128 0xb
 3401 0077 00       		.byte	0
 3402 0078 00       		.byte	0
 3403 0079 0A       		.uleb128 0xa
 3404 007a 13       		.uleb128 0x13
 3405 007b 01       		.byte	0x1
 3406 007c 03       		.uleb128 0x3
 3407 007d 0E       		.uleb128 0xe
 3408 007e 0B       		.uleb128 0xb
 3409 007f 0B       		.uleb128 0xb
 3410 0080 3A       		.uleb128 0x3a
 3411 0081 0B       		.uleb128 0xb
 3412 0082 3B       		.uleb128 0x3b
 3413 0083 05       		.uleb128 0x5
 3414 0084 01       		.uleb128 0x1
 3415 0085 13       		.uleb128 0x13
 3416 0086 00       		.byte	0
 3417 0087 00       		.byte	0
 3418 0088 0B       		.uleb128 0xb
 3419 0089 0F       		.uleb128 0xf
 3420 008a 00       		.byte	0
 3421 008b 0B       		.uleb128 0xb
 3422 008c 0B       		.uleb128 0xb
 3423 008d 49       		.uleb128 0x49
 3424 008e 13       		.uleb128 0x13
 3425 008f 00       		.byte	0
 3426 0090 00       		.byte	0
 3427 0091 0C       		.uleb128 0xc
 3428 0092 15       		.uleb128 0x15
 3429 0093 01       		.byte	0x1
 3430 0094 27       		.uleb128 0x27
 3431 0095 19       		.uleb128 0x19
 3432 0096 01       		.uleb128 0x1
 3433 0097 13       		.uleb128 0x13
 3434 0098 00       		.byte	0
 3435 0099 00       		.byte	0
 3436 009a 0D       		.uleb128 0xd
 3437 009b 05       		.uleb128 0x5
 3438 009c 00       		.byte	0
 3439 009d 49       		.uleb128 0x49
 3440 009e 13       		.uleb128 0x13
 3441 009f 00       		.byte	0
 3442 00a0 00       		.byte	0
 3443 00a1 0E       		.uleb128 0xe
 3444 00a2 0F       		.uleb128 0xf
 3445 00a3 00       		.byte	0
 3446 00a4 0B       		.uleb128 0xb
 3447 00a5 0B       		.uleb128 0xb
 3448 00a6 00       		.byte	0
 3449 00a7 00       		.byte	0
 3450 00a8 0F       		.uleb128 0xf
 3451 00a9 13       		.uleb128 0x13
 3452 00aa 01       		.byte	0x1
 3453 00ab 03       		.uleb128 0x3
 3454 00ac 0E       		.uleb128 0xe
 3455 00ad 0B       		.uleb128 0xb
ARM GAS  C:\Users\jo\AppData\Local\Temp\cc2cuyoe.s 			page 62


 3456 00ae 05       		.uleb128 0x5
 3457 00af 3A       		.uleb128 0x3a
 3458 00b0 0B       		.uleb128 0xb
 3459 00b1 3B       		.uleb128 0x3b
 3460 00b2 05       		.uleb128 0x5
 3461 00b3 01       		.uleb128 0x1
 3462 00b4 13       		.uleb128 0x13
 3463 00b5 00       		.byte	0
 3464 00b6 00       		.byte	0
 3465 00b7 10       		.uleb128 0x10
 3466 00b8 0D       		.uleb128 0xd
 3467 00b9 00       		.byte	0
 3468 00ba 03       		.uleb128 0x3
 3469 00bb 08       		.uleb128 0x8
 3470 00bc 3A       		.uleb128 0x3a
 3471 00bd 0B       		.uleb128 0xb
 3472 00be 3B       		.uleb128 0x3b
 3473 00bf 0B       		.uleb128 0xb
 3474 00c0 49       		.uleb128 0x49
 3475 00c1 13       		.uleb128 0x13
 3476 00c2 38       		.uleb128 0x38
 3477 00c3 0B       		.uleb128 0xb
 3478 00c4 00       		.byte	0
 3479 00c5 00       		.byte	0
 3480 00c6 11       		.uleb128 0x11
 3481 00c7 0D       		.uleb128 0xd
 3482 00c8 00       		.byte	0
 3483 00c9 03       		.uleb128 0x3
 3484 00ca 0E       		.uleb128 0xe
 3485 00cb 49       		.uleb128 0x49
 3486 00cc 13       		.uleb128 0x13
 3487 00cd 38       		.uleb128 0x38
 3488 00ce 0B       		.uleb128 0xb
 3489 00cf 34       		.uleb128 0x34
 3490 00d0 19       		.uleb128 0x19
 3491 00d1 00       		.byte	0
 3492 00d2 00       		.byte	0
 3493 00d3 12       		.uleb128 0x12
 3494 00d4 26       		.uleb128 0x26
 3495 00d5 00       		.byte	0
 3496 00d6 49       		.uleb128 0x49
 3497 00d7 13       		.uleb128 0x13
 3498 00d8 00       		.byte	0
 3499 00d9 00       		.byte	0
 3500 00da 13       		.uleb128 0x13
 3501 00db 13       		.uleb128 0x13
 3502 00dc 01       		.byte	0x1
 3503 00dd 0B       		.uleb128 0xb
 3504 00de 0B       		.uleb128 0xb
 3505 00df 3A       		.uleb128 0x3a
 3506 00e0 0B       		.uleb128 0xb
 3507 00e1 3B       		.uleb128 0x3b
 3508 00e2 0B       		.uleb128 0xb
 3509 00e3 01       		.uleb128 0x1
 3510 00e4 13       		.uleb128 0x13
 3511 00e5 00       		.byte	0
 3512 00e6 00       		.byte	0
ARM GAS  C:\Users\jo\AppData\Local\Temp\cc2cuyoe.s 			page 63


 3513 00e7 14       		.uleb128 0x14
 3514 00e8 17       		.uleb128 0x17
 3515 00e9 01       		.byte	0x1
 3516 00ea 0B       		.uleb128 0xb
 3517 00eb 0B       		.uleb128 0xb
 3518 00ec 3A       		.uleb128 0x3a
 3519 00ed 0B       		.uleb128 0xb
 3520 00ee 3B       		.uleb128 0x3b
 3521 00ef 0B       		.uleb128 0xb
 3522 00f0 01       		.uleb128 0x1
 3523 00f1 13       		.uleb128 0x13
 3524 00f2 00       		.byte	0
 3525 00f3 00       		.byte	0
 3526 00f4 15       		.uleb128 0x15
 3527 00f5 0D       		.uleb128 0xd
 3528 00f6 00       		.byte	0
 3529 00f7 03       		.uleb128 0x3
 3530 00f8 0E       		.uleb128 0xe
 3531 00f9 3A       		.uleb128 0x3a
 3532 00fa 0B       		.uleb128 0xb
 3533 00fb 3B       		.uleb128 0x3b
 3534 00fc 0B       		.uleb128 0xb
 3535 00fd 49       		.uleb128 0x49
 3536 00fe 13       		.uleb128 0x13
 3537 00ff 00       		.byte	0
 3538 0100 00       		.byte	0
 3539 0101 16       		.uleb128 0x16
 3540 0102 0D       		.uleb128 0xd
 3541 0103 00       		.byte	0
 3542 0104 03       		.uleb128 0x3
 3543 0105 0E       		.uleb128 0xe
 3544 0106 3A       		.uleb128 0x3a
 3545 0107 0B       		.uleb128 0xb
 3546 0108 3B       		.uleb128 0x3b
 3547 0109 05       		.uleb128 0x5
 3548 010a 49       		.uleb128 0x49
 3549 010b 13       		.uleb128 0x13
 3550 010c 00       		.byte	0
 3551 010d 00       		.byte	0
 3552 010e 17       		.uleb128 0x17
 3553 010f 01       		.uleb128 0x1
 3554 0110 01       		.byte	0x1
 3555 0111 49       		.uleb128 0x49
 3556 0112 13       		.uleb128 0x13
 3557 0113 01       		.uleb128 0x1
 3558 0114 13       		.uleb128 0x13
 3559 0115 00       		.byte	0
 3560 0116 00       		.byte	0
 3561 0117 18       		.uleb128 0x18
 3562 0118 21       		.uleb128 0x21
 3563 0119 00       		.byte	0
 3564 011a 49       		.uleb128 0x49
 3565 011b 13       		.uleb128 0x13
 3566 011c 2F       		.uleb128 0x2f
 3567 011d 0B       		.uleb128 0xb
 3568 011e 00       		.byte	0
 3569 011f 00       		.byte	0
ARM GAS  C:\Users\jo\AppData\Local\Temp\cc2cuyoe.s 			page 64


 3570 0120 19       		.uleb128 0x19
 3571 0121 15       		.uleb128 0x15
 3572 0122 01       		.byte	0x1
 3573 0123 27       		.uleb128 0x27
 3574 0124 19       		.uleb128 0x19
 3575 0125 49       		.uleb128 0x49
 3576 0126 13       		.uleb128 0x13
 3577 0127 01       		.uleb128 0x1
 3578 0128 13       		.uleb128 0x13
 3579 0129 00       		.byte	0
 3580 012a 00       		.byte	0
 3581 012b 1A       		.uleb128 0x1a
 3582 012c 04       		.uleb128 0x4
 3583 012d 01       		.byte	0x1
 3584 012e 03       		.uleb128 0x3
 3585 012f 0E       		.uleb128 0xe
 3586 0130 0B       		.uleb128 0xb
 3587 0131 0B       		.uleb128 0xb
 3588 0132 3A       		.uleb128 0x3a
 3589 0133 0B       		.uleb128 0xb
 3590 0134 3B       		.uleb128 0x3b
 3591 0135 0B       		.uleb128 0xb
 3592 0136 01       		.uleb128 0x1
 3593 0137 13       		.uleb128 0x13
 3594 0138 00       		.byte	0
 3595 0139 00       		.byte	0
 3596 013a 1B       		.uleb128 0x1b
 3597 013b 28       		.uleb128 0x28
 3598 013c 00       		.byte	0
 3599 013d 03       		.uleb128 0x3
 3600 013e 0E       		.uleb128 0xe
 3601 013f 1C       		.uleb128 0x1c
 3602 0140 0D       		.uleb128 0xd
 3603 0141 00       		.byte	0
 3604 0142 00       		.byte	0
 3605 0143 1C       		.uleb128 0x1c
 3606 0144 04       		.uleb128 0x4
 3607 0145 01       		.byte	0x1
 3608 0146 0B       		.uleb128 0xb
 3609 0147 0B       		.uleb128 0xb
 3610 0148 3A       		.uleb128 0x3a
 3611 0149 0B       		.uleb128 0xb
 3612 014a 3B       		.uleb128 0x3b
 3613 014b 0B       		.uleb128 0xb
 3614 014c 01       		.uleb128 0x1
 3615 014d 13       		.uleb128 0x13
 3616 014e 00       		.byte	0
 3617 014f 00       		.byte	0
 3618 0150 1D       		.uleb128 0x1d
 3619 0151 2E       		.uleb128 0x2e
 3620 0152 01       		.byte	0x1
 3621 0153 03       		.uleb128 0x3
 3622 0154 0E       		.uleb128 0xe
 3623 0155 3A       		.uleb128 0x3a
 3624 0156 0B       		.uleb128 0xb
 3625 0157 3B       		.uleb128 0x3b
 3626 0158 05       		.uleb128 0x5
ARM GAS  C:\Users\jo\AppData\Local\Temp\cc2cuyoe.s 			page 65


 3627 0159 27       		.uleb128 0x27
 3628 015a 19       		.uleb128 0x19
 3629 015b 20       		.uleb128 0x20
 3630 015c 0B       		.uleb128 0xb
 3631 015d 01       		.uleb128 0x1
 3632 015e 13       		.uleb128 0x13
 3633 015f 00       		.byte	0
 3634 0160 00       		.byte	0
 3635 0161 1E       		.uleb128 0x1e
 3636 0162 05       		.uleb128 0x5
 3637 0163 00       		.byte	0
 3638 0164 03       		.uleb128 0x3
 3639 0165 0E       		.uleb128 0xe
 3640 0166 3A       		.uleb128 0x3a
 3641 0167 0B       		.uleb128 0xb
 3642 0168 3B       		.uleb128 0x3b
 3643 0169 05       		.uleb128 0x5
 3644 016a 49       		.uleb128 0x49
 3645 016b 13       		.uleb128 0x13
 3646 016c 00       		.byte	0
 3647 016d 00       		.byte	0
 3648 016e 1F       		.uleb128 0x1f
 3649 016f 2E       		.uleb128 0x2e
 3650 0170 01       		.byte	0x1
 3651 0171 03       		.uleb128 0x3
 3652 0172 0E       		.uleb128 0xe
 3653 0173 3A       		.uleb128 0x3a
 3654 0174 0B       		.uleb128 0xb
 3655 0175 3B       		.uleb128 0x3b
 3656 0176 0B       		.uleb128 0xb
 3657 0177 27       		.uleb128 0x27
 3658 0178 19       		.uleb128 0x19
 3659 0179 49       		.uleb128 0x49
 3660 017a 13       		.uleb128 0x13
 3661 017b 20       		.uleb128 0x20
 3662 017c 0B       		.uleb128 0xb
 3663 017d 01       		.uleb128 0x1
 3664 017e 13       		.uleb128 0x13
 3665 017f 00       		.byte	0
 3666 0180 00       		.byte	0
 3667 0181 20       		.uleb128 0x20
 3668 0182 05       		.uleb128 0x5
 3669 0183 00       		.byte	0
 3670 0184 03       		.uleb128 0x3
 3671 0185 08       		.uleb128 0x8
 3672 0186 3A       		.uleb128 0x3a
 3673 0187 0B       		.uleb128 0xb
 3674 0188 3B       		.uleb128 0x3b
 3675 0189 0B       		.uleb128 0xb
 3676 018a 49       		.uleb128 0x49
 3677 018b 13       		.uleb128 0x13
 3678 018c 00       		.byte	0
 3679 018d 00       		.byte	0
 3680 018e 21       		.uleb128 0x21
 3681 018f 18       		.uleb128 0x18
 3682 0190 00       		.byte	0
 3683 0191 00       		.byte	0
ARM GAS  C:\Users\jo\AppData\Local\Temp\cc2cuyoe.s 			page 66


 3684 0192 00       		.byte	0
 3685 0193 22       		.uleb128 0x22
 3686 0194 34       		.uleb128 0x34
 3687 0195 00       		.byte	0
 3688 0196 03       		.uleb128 0x3
 3689 0197 08       		.uleb128 0x8
 3690 0198 3A       		.uleb128 0x3a
 3691 0199 0B       		.uleb128 0xb
 3692 019a 3B       		.uleb128 0x3b
 3693 019b 0B       		.uleb128 0xb
 3694 019c 49       		.uleb128 0x49
 3695 019d 13       		.uleb128 0x13
 3696 019e 00       		.byte	0
 3697 019f 00       		.byte	0
 3698 01a0 23       		.uleb128 0x23
 3699 01a1 34       		.uleb128 0x34
 3700 01a2 00       		.byte	0
 3701 01a3 03       		.uleb128 0x3
 3702 01a4 0E       		.uleb128 0xe
 3703 01a5 3A       		.uleb128 0x3a
 3704 01a6 0B       		.uleb128 0xb
 3705 01a7 3B       		.uleb128 0x3b
 3706 01a8 0B       		.uleb128 0xb
 3707 01a9 49       		.uleb128 0x49
 3708 01aa 13       		.uleb128 0x13
 3709 01ab 00       		.byte	0
 3710 01ac 00       		.byte	0
 3711 01ad 24       		.uleb128 0x24
 3712 01ae 2E       		.uleb128 0x2e
 3713 01af 01       		.byte	0x1
 3714 01b0 31       		.uleb128 0x31
 3715 01b1 13       		.uleb128 0x13
 3716 01b2 11       		.uleb128 0x11
 3717 01b3 01       		.uleb128 0x1
 3718 01b4 12       		.uleb128 0x12
 3719 01b5 06       		.uleb128 0x6
 3720 01b6 40       		.uleb128 0x40
 3721 01b7 18       		.uleb128 0x18
 3722 01b8 9742     		.uleb128 0x2117
 3723 01ba 19       		.uleb128 0x19
 3724 01bb 01       		.uleb128 0x1
 3725 01bc 13       		.uleb128 0x13
 3726 01bd 00       		.byte	0
 3727 01be 00       		.byte	0
 3728 01bf 25       		.uleb128 0x25
 3729 01c0 05       		.uleb128 0x5
 3730 01c1 00       		.byte	0
 3731 01c2 31       		.uleb128 0x31
 3732 01c3 13       		.uleb128 0x13
 3733 01c4 02       		.uleb128 0x2
 3734 01c5 17       		.uleb128 0x17
 3735 01c6 00       		.byte	0
 3736 01c7 00       		.byte	0
 3737 01c8 26       		.uleb128 0x26
 3738 01c9 05       		.uleb128 0x5
 3739 01ca 00       		.byte	0
 3740 01cb 31       		.uleb128 0x31
ARM GAS  C:\Users\jo\AppData\Local\Temp\cc2cuyoe.s 			page 67


 3741 01cc 13       		.uleb128 0x13
 3742 01cd 02       		.uleb128 0x2
 3743 01ce 18       		.uleb128 0x18
 3744 01cf 00       		.byte	0
 3745 01d0 00       		.byte	0
 3746 01d1 27       		.uleb128 0x27
 3747 01d2 34       		.uleb128 0x34
 3748 01d3 00       		.byte	0
 3749 01d4 31       		.uleb128 0x31
 3750 01d5 13       		.uleb128 0x13
 3751 01d6 02       		.uleb128 0x2
 3752 01d7 18       		.uleb128 0x18
 3753 01d8 00       		.byte	0
 3754 01d9 00       		.byte	0
 3755 01da 28       		.uleb128 0x28
 3756 01db 05       		.uleb128 0x5
 3757 01dc 00       		.byte	0
 3758 01dd 31       		.uleb128 0x31
 3759 01de 13       		.uleb128 0x13
 3760 01df 00       		.byte	0
 3761 01e0 00       		.byte	0
 3762 01e1 29       		.uleb128 0x29
 3763 01e2 898201   		.uleb128 0x4109
 3764 01e5 01       		.byte	0x1
 3765 01e6 11       		.uleb128 0x11
 3766 01e7 01       		.uleb128 0x1
 3767 01e8 31       		.uleb128 0x31
 3768 01e9 13       		.uleb128 0x13
 3769 01ea 00       		.byte	0
 3770 01eb 00       		.byte	0
 3771 01ec 2A       		.uleb128 0x2a
 3772 01ed 8A8201   		.uleb128 0x410a
 3773 01f0 00       		.byte	0
 3774 01f1 02       		.uleb128 0x2
 3775 01f2 18       		.uleb128 0x18
 3776 01f3 9142     		.uleb128 0x2111
 3777 01f5 18       		.uleb128 0x18
 3778 01f6 00       		.byte	0
 3779 01f7 00       		.byte	0
 3780 01f8 2B       		.uleb128 0x2b
 3781 01f9 2E       		.uleb128 0x2e
 3782 01fa 01       		.byte	0x1
 3783 01fb 3F       		.uleb128 0x3f
 3784 01fc 19       		.uleb128 0x19
 3785 01fd 03       		.uleb128 0x3
 3786 01fe 0E       		.uleb128 0xe
 3787 01ff 3A       		.uleb128 0x3a
 3788 0200 0B       		.uleb128 0xb
 3789 0201 3B       		.uleb128 0x3b
 3790 0202 05       		.uleb128 0x5
 3791 0203 27       		.uleb128 0x27
 3792 0204 19       		.uleb128 0x19
 3793 0205 11       		.uleb128 0x11
 3794 0206 01       		.uleb128 0x1
 3795 0207 12       		.uleb128 0x12
 3796 0208 06       		.uleb128 0x6
 3797 0209 40       		.uleb128 0x40
ARM GAS  C:\Users\jo\AppData\Local\Temp\cc2cuyoe.s 			page 68


 3798 020a 18       		.uleb128 0x18
 3799 020b 9742     		.uleb128 0x2117
 3800 020d 19       		.uleb128 0x19
 3801 020e 01       		.uleb128 0x1
 3802 020f 13       		.uleb128 0x13
 3803 0210 00       		.byte	0
 3804 0211 00       		.byte	0
 3805 0212 2C       		.uleb128 0x2c
 3806 0213 05       		.uleb128 0x5
 3807 0214 00       		.byte	0
 3808 0215 03       		.uleb128 0x3
 3809 0216 0E       		.uleb128 0xe
 3810 0217 3A       		.uleb128 0x3a
 3811 0218 0B       		.uleb128 0xb
 3812 0219 3B       		.uleb128 0x3b
 3813 021a 05       		.uleb128 0x5
 3814 021b 49       		.uleb128 0x49
 3815 021c 13       		.uleb128 0x13
 3816 021d 02       		.uleb128 0x2
 3817 021e 17       		.uleb128 0x17
 3818 021f 00       		.byte	0
 3819 0220 00       		.byte	0
 3820 0221 2D       		.uleb128 0x2d
 3821 0222 05       		.uleb128 0x5
 3822 0223 00       		.byte	0
 3823 0224 03       		.uleb128 0x3
 3824 0225 08       		.uleb128 0x8
 3825 0226 3A       		.uleb128 0x3a
 3826 0227 0B       		.uleb128 0xb
 3827 0228 3B       		.uleb128 0x3b
 3828 0229 05       		.uleb128 0x5
 3829 022a 49       		.uleb128 0x49
 3830 022b 13       		.uleb128 0x13
 3831 022c 02       		.uleb128 0x2
 3832 022d 17       		.uleb128 0x17
 3833 022e 00       		.byte	0
 3834 022f 00       		.byte	0
 3835 0230 2E       		.uleb128 0x2e
 3836 0231 34       		.uleb128 0x34
 3837 0232 00       		.byte	0
 3838 0233 03       		.uleb128 0x3
 3839 0234 0E       		.uleb128 0xe
 3840 0235 3A       		.uleb128 0x3a
 3841 0236 0B       		.uleb128 0xb
 3842 0237 3B       		.uleb128 0x3b
 3843 0238 05       		.uleb128 0x5
 3844 0239 49       		.uleb128 0x49
 3845 023a 13       		.uleb128 0x13
 3846 023b 02       		.uleb128 0x2
 3847 023c 17       		.uleb128 0x17
 3848 023d 00       		.byte	0
 3849 023e 00       		.byte	0
 3850 023f 2F       		.uleb128 0x2f
 3851 0240 34       		.uleb128 0x34
 3852 0241 00       		.byte	0
 3853 0242 03       		.uleb128 0x3
 3854 0243 08       		.uleb128 0x8
ARM GAS  C:\Users\jo\AppData\Local\Temp\cc2cuyoe.s 			page 69


 3855 0244 3A       		.uleb128 0x3a
 3856 0245 0B       		.uleb128 0xb
 3857 0246 3B       		.uleb128 0x3b
 3858 0247 05       		.uleb128 0x5
 3859 0248 49       		.uleb128 0x49
 3860 0249 13       		.uleb128 0x13
 3861 024a 02       		.uleb128 0x2
 3862 024b 17       		.uleb128 0x17
 3863 024c 00       		.byte	0
 3864 024d 00       		.byte	0
 3865 024e 30       		.uleb128 0x30
 3866 024f 1D       		.uleb128 0x1d
 3867 0250 01       		.byte	0x1
 3868 0251 31       		.uleb128 0x31
 3869 0252 13       		.uleb128 0x13
 3870 0253 52       		.uleb128 0x52
 3871 0254 01       		.uleb128 0x1
 3872 0255 55       		.uleb128 0x55
 3873 0256 17       		.uleb128 0x17
 3874 0257 58       		.uleb128 0x58
 3875 0258 0B       		.uleb128 0xb
 3876 0259 59       		.uleb128 0x59
 3877 025a 05       		.uleb128 0x5
 3878 025b 01       		.uleb128 0x1
 3879 025c 13       		.uleb128 0x13
 3880 025d 00       		.byte	0
 3881 025e 00       		.byte	0
 3882 025f 31       		.uleb128 0x31
 3883 0260 898201   		.uleb128 0x4109
 3884 0263 01       		.byte	0x1
 3885 0264 11       		.uleb128 0x11
 3886 0265 01       		.uleb128 0x1
 3887 0266 9542     		.uleb128 0x2115
 3888 0268 19       		.uleb128 0x19
 3889 0269 31       		.uleb128 0x31
 3890 026a 13       		.uleb128 0x13
 3891 026b 00       		.byte	0
 3892 026c 00       		.byte	0
 3893 026d 32       		.uleb128 0x32
 3894 026e 898201   		.uleb128 0x4109
 3895 0271 01       		.byte	0x1
 3896 0272 11       		.uleb128 0x11
 3897 0273 01       		.uleb128 0x1
 3898 0274 31       		.uleb128 0x31
 3899 0275 13       		.uleb128 0x13
 3900 0276 01       		.uleb128 0x1
 3901 0277 13       		.uleb128 0x13
 3902 0278 00       		.byte	0
 3903 0279 00       		.byte	0
 3904 027a 33       		.uleb128 0x33
 3905 027b 2E       		.uleb128 0x2e
 3906 027c 01       		.byte	0x1
 3907 027d 3F       		.uleb128 0x3f
 3908 027e 19       		.uleb128 0x19
 3909 027f 03       		.uleb128 0x3
 3910 0280 0E       		.uleb128 0xe
 3911 0281 3A       		.uleb128 0x3a
ARM GAS  C:\Users\jo\AppData\Local\Temp\cc2cuyoe.s 			page 70


 3912 0282 0B       		.uleb128 0xb
 3913 0283 3B       		.uleb128 0x3b
 3914 0284 0B       		.uleb128 0xb
 3915 0285 27       		.uleb128 0x27
 3916 0286 19       		.uleb128 0x19
 3917 0287 11       		.uleb128 0x11
 3918 0288 01       		.uleb128 0x1
 3919 0289 12       		.uleb128 0x12
 3920 028a 06       		.uleb128 0x6
 3921 028b 40       		.uleb128 0x40
 3922 028c 18       		.uleb128 0x18
 3923 028d 9742     		.uleb128 0x2117
 3924 028f 19       		.uleb128 0x19
 3925 0290 01       		.uleb128 0x1
 3926 0291 13       		.uleb128 0x13
 3927 0292 00       		.byte	0
 3928 0293 00       		.byte	0
 3929 0294 34       		.uleb128 0x34
 3930 0295 2E       		.uleb128 0x2e
 3931 0296 01       		.byte	0x1
 3932 0297 03       		.uleb128 0x3
 3933 0298 0E       		.uleb128 0xe
 3934 0299 3A       		.uleb128 0x3a
 3935 029a 0B       		.uleb128 0xb
 3936 029b 3B       		.uleb128 0x3b
 3937 029c 0B       		.uleb128 0xb
 3938 029d 27       		.uleb128 0x27
 3939 029e 19       		.uleb128 0x19
 3940 029f 11       		.uleb128 0x11
 3941 02a0 01       		.uleb128 0x1
 3942 02a1 12       		.uleb128 0x12
 3943 02a2 06       		.uleb128 0x6
 3944 02a3 40       		.uleb128 0x40
 3945 02a4 18       		.uleb128 0x18
 3946 02a5 9742     		.uleb128 0x2117
 3947 02a7 19       		.uleb128 0x19
 3948 02a8 01       		.uleb128 0x1
 3949 02a9 13       		.uleb128 0x13
 3950 02aa 00       		.byte	0
 3951 02ab 00       		.byte	0
 3952 02ac 35       		.uleb128 0x35
 3953 02ad 05       		.uleb128 0x5
 3954 02ae 00       		.byte	0
 3955 02af 03       		.uleb128 0x3
 3956 02b0 08       		.uleb128 0x8
 3957 02b1 3A       		.uleb128 0x3a
 3958 02b2 0B       		.uleb128 0xb
 3959 02b3 3B       		.uleb128 0x3b
 3960 02b4 0B       		.uleb128 0xb
 3961 02b5 49       		.uleb128 0x49
 3962 02b6 13       		.uleb128 0x13
 3963 02b7 02       		.uleb128 0x2
 3964 02b8 17       		.uleb128 0x17
 3965 02b9 00       		.byte	0
 3966 02ba 00       		.byte	0
 3967 02bb 36       		.uleb128 0x36
 3968 02bc 898201   		.uleb128 0x4109
ARM GAS  C:\Users\jo\AppData\Local\Temp\cc2cuyoe.s 			page 71


 3969 02bf 00       		.byte	0
 3970 02c0 11       		.uleb128 0x11
 3971 02c1 01       		.uleb128 0x1
 3972 02c2 31       		.uleb128 0x31
 3973 02c3 13       		.uleb128 0x13
 3974 02c4 00       		.byte	0
 3975 02c5 00       		.byte	0
 3976 02c6 37       		.uleb128 0x37
 3977 02c7 0A       		.uleb128 0xa
 3978 02c8 00       		.byte	0
 3979 02c9 03       		.uleb128 0x3
 3980 02ca 0E       		.uleb128 0xe
 3981 02cb 3A       		.uleb128 0x3a
 3982 02cc 0B       		.uleb128 0xb
 3983 02cd 3B       		.uleb128 0x3b
 3984 02ce 05       		.uleb128 0x5
 3985 02cf 11       		.uleb128 0x11
 3986 02d0 01       		.uleb128 0x1
 3987 02d1 00       		.byte	0
 3988 02d2 00       		.byte	0
 3989 02d3 38       		.uleb128 0x38
 3990 02d4 898201   		.uleb128 0x4109
 3991 02d7 01       		.byte	0x1
 3992 02d8 11       		.uleb128 0x11
 3993 02d9 01       		.uleb128 0x1
 3994 02da 9542     		.uleb128 0x2115
 3995 02dc 19       		.uleb128 0x19
 3996 02dd 31       		.uleb128 0x31
 3997 02de 13       		.uleb128 0x13
 3998 02df 01       		.uleb128 0x1
 3999 02e0 13       		.uleb128 0x13
 4000 02e1 00       		.byte	0
 4001 02e2 00       		.byte	0
 4002 02e3 39       		.uleb128 0x39
 4003 02e4 898201   		.uleb128 0x4109
 4004 02e7 01       		.byte	0x1
 4005 02e8 11       		.uleb128 0x11
 4006 02e9 01       		.uleb128 0x1
 4007 02ea 00       		.byte	0
 4008 02eb 00       		.byte	0
 4009 02ec 3A       		.uleb128 0x3a
 4010 02ed 34       		.uleb128 0x34
 4011 02ee 00       		.byte	0
 4012 02ef 03       		.uleb128 0x3
 4013 02f0 0E       		.uleb128 0xe
 4014 02f1 3A       		.uleb128 0x3a
 4015 02f2 0B       		.uleb128 0xb
 4016 02f3 3B       		.uleb128 0x3b
 4017 02f4 0B       		.uleb128 0xb
 4018 02f5 49       		.uleb128 0x49
 4019 02f6 13       		.uleb128 0x13
 4020 02f7 02       		.uleb128 0x2
 4021 02f8 18       		.uleb128 0x18
 4022 02f9 00       		.byte	0
 4023 02fa 00       		.byte	0
 4024 02fb 3B       		.uleb128 0x3b
 4025 02fc 34       		.uleb128 0x34
ARM GAS  C:\Users\jo\AppData\Local\Temp\cc2cuyoe.s 			page 72


 4026 02fd 00       		.byte	0
 4027 02fe 03       		.uleb128 0x3
 4028 02ff 0E       		.uleb128 0xe
 4029 0300 3A       		.uleb128 0x3a
 4030 0301 0B       		.uleb128 0xb
 4031 0302 3B       		.uleb128 0x3b
 4032 0303 05       		.uleb128 0x5
 4033 0304 49       		.uleb128 0x49
 4034 0305 13       		.uleb128 0x13
 4035 0306 3F       		.uleb128 0x3f
 4036 0307 19       		.uleb128 0x19
 4037 0308 3C       		.uleb128 0x3c
 4038 0309 19       		.uleb128 0x19
 4039 030a 00       		.byte	0
 4040 030b 00       		.byte	0
 4041 030c 3C       		.uleb128 0x3c
 4042 030d 34       		.uleb128 0x34
 4043 030e 00       		.byte	0
 4044 030f 03       		.uleb128 0x3
 4045 0310 08       		.uleb128 0x8
 4046 0311 3A       		.uleb128 0x3a
 4047 0312 0B       		.uleb128 0xb
 4048 0313 3B       		.uleb128 0x3b
 4049 0314 05       		.uleb128 0x5
 4050 0315 49       		.uleb128 0x49
 4051 0316 13       		.uleb128 0x13
 4052 0317 3F       		.uleb128 0x3f
 4053 0318 19       		.uleb128 0x19
 4054 0319 3C       		.uleb128 0x3c
 4055 031a 19       		.uleb128 0x19
 4056 031b 00       		.byte	0
 4057 031c 00       		.byte	0
 4058 031d 3D       		.uleb128 0x3d
 4059 031e 34       		.uleb128 0x34
 4060 031f 00       		.byte	0
 4061 0320 03       		.uleb128 0x3
 4062 0321 0E       		.uleb128 0xe
 4063 0322 3A       		.uleb128 0x3a
 4064 0323 0B       		.uleb128 0xb
 4065 0324 3B       		.uleb128 0x3b
 4066 0325 0B       		.uleb128 0xb
 4067 0326 49       		.uleb128 0x49
 4068 0327 13       		.uleb128 0x13
 4069 0328 3F       		.uleb128 0x3f
 4070 0329 19       		.uleb128 0x19
 4071 032a 3C       		.uleb128 0x3c
 4072 032b 19       		.uleb128 0x19
 4073 032c 00       		.byte	0
 4074 032d 00       		.byte	0
 4075 032e 3E       		.uleb128 0x3e
 4076 032f 2E       		.uleb128 0x2e
 4077 0330 01       		.byte	0x1
 4078 0331 3F       		.uleb128 0x3f
 4079 0332 19       		.uleb128 0x19
 4080 0333 03       		.uleb128 0x3
 4081 0334 0E       		.uleb128 0xe
 4082 0335 3A       		.uleb128 0x3a
ARM GAS  C:\Users\jo\AppData\Local\Temp\cc2cuyoe.s 			page 73


 4083 0336 0B       		.uleb128 0xb
 4084 0337 3B       		.uleb128 0x3b
 4085 0338 0B       		.uleb128 0xb
 4086 0339 27       		.uleb128 0x27
 4087 033a 19       		.uleb128 0x19
 4088 033b 49       		.uleb128 0x49
 4089 033c 13       		.uleb128 0x13
 4090 033d 3C       		.uleb128 0x3c
 4091 033e 19       		.uleb128 0x19
 4092 033f 01       		.uleb128 0x1
 4093 0340 13       		.uleb128 0x13
 4094 0341 00       		.byte	0
 4095 0342 00       		.byte	0
 4096 0343 3F       		.uleb128 0x3f
 4097 0344 2E       		.uleb128 0x2e
 4098 0345 01       		.byte	0x1
 4099 0346 3F       		.uleb128 0x3f
 4100 0347 19       		.uleb128 0x19
 4101 0348 03       		.uleb128 0x3
 4102 0349 0E       		.uleb128 0xe
 4103 034a 3A       		.uleb128 0x3a
 4104 034b 0B       		.uleb128 0xb
 4105 034c 3B       		.uleb128 0x3b
 4106 034d 0B       		.uleb128 0xb
 4107 034e 27       		.uleb128 0x27
 4108 034f 19       		.uleb128 0x19
 4109 0350 3C       		.uleb128 0x3c
 4110 0351 19       		.uleb128 0x19
 4111 0352 01       		.uleb128 0x1
 4112 0353 13       		.uleb128 0x13
 4113 0354 00       		.byte	0
 4114 0355 00       		.byte	0
 4115 0356 40       		.uleb128 0x40
 4116 0357 2E       		.uleb128 0x2e
 4117 0358 00       		.byte	0
 4118 0359 3F       		.uleb128 0x3f
 4119 035a 19       		.uleb128 0x19
 4120 035b 03       		.uleb128 0x3
 4121 035c 0E       		.uleb128 0xe
 4122 035d 3A       		.uleb128 0x3a
 4123 035e 0B       		.uleb128 0xb
 4124 035f 3B       		.uleb128 0x3b
 4125 0360 0B       		.uleb128 0xb
 4126 0361 27       		.uleb128 0x27
 4127 0362 19       		.uleb128 0x19
 4128 0363 3C       		.uleb128 0x3c
 4129 0364 19       		.uleb128 0x19
 4130 0365 00       		.byte	0
 4131 0366 00       		.byte	0
 4132 0367 41       		.uleb128 0x41
 4133 0368 2E       		.uleb128 0x2e
 4134 0369 01       		.byte	0x1
 4135 036a 3F       		.uleb128 0x3f
 4136 036b 19       		.uleb128 0x19
 4137 036c 03       		.uleb128 0x3
 4138 036d 0E       		.uleb128 0xe
 4139 036e 3A       		.uleb128 0x3a
ARM GAS  C:\Users\jo\AppData\Local\Temp\cc2cuyoe.s 			page 74


 4140 036f 0B       		.uleb128 0xb
 4141 0370 3B       		.uleb128 0x3b
 4142 0371 0B       		.uleb128 0xb
 4143 0372 27       		.uleb128 0x27
 4144 0373 19       		.uleb128 0x19
 4145 0374 49       		.uleb128 0x49
 4146 0375 13       		.uleb128 0x13
 4147 0376 3C       		.uleb128 0x3c
 4148 0377 19       		.uleb128 0x19
 4149 0378 00       		.byte	0
 4150 0379 00       		.byte	0
 4151 037a 00       		.byte	0
 4152              		.section	.debug_loc,"",%progbits
 4153              	.Ldebug_loc0:
 4154              	.LLST0:
 4155 0000 00000000 		.4byte	.LVL0
 4156 0004 0E000000 		.4byte	.LVL1
 4157 0008 0100     		.2byte	0x1
 4158 000a 50       		.byte	0x50
 4159 000b 0E000000 		.4byte	.LVL1
 4160 000f 28000000 		.4byte	.LFE264
 4161 0013 0400     		.2byte	0x4
 4162 0015 F3       		.byte	0xf3
 4163 0016 01       		.uleb128 0x1
 4164 0017 50       		.byte	0x50
 4165 0018 9F       		.byte	0x9f
 4166 0019 00000000 		.4byte	0
 4167 001d 00000000 		.4byte	0
 4168              	.LLST1:
 4169 0021 00000000 		.4byte	.LVL3
 4170 0025 08000000 		.4byte	.LVL4
 4171 0029 0100     		.2byte	0x1
 4172 002b 50       		.byte	0x50
 4173 002c 08000000 		.4byte	.LVL4
 4174 0030 7A000000 		.4byte	.LVL15
 4175 0034 0100     		.2byte	0x1
 4176 0036 54       		.byte	0x54
 4177 0037 7A000000 		.4byte	.LVL15
 4178 003b 94000000 		.4byte	.LFE261
 4179 003f 0400     		.2byte	0x4
 4180 0041 F3       		.byte	0xf3
 4181 0042 01       		.uleb128 0x1
 4182 0043 50       		.byte	0x50
 4183 0044 9F       		.byte	0x9f
 4184 0045 00000000 		.4byte	0
 4185 0049 00000000 		.4byte	0
 4186              	.LLST2:
 4187 004d 00000000 		.4byte	.LVL3
 4188 0051 0F000000 		.4byte	.LVL5-1
 4189 0055 0100     		.2byte	0x1
 4190 0057 51       		.byte	0x51
 4191 0058 0F000000 		.4byte	.LVL5-1
 4192 005c 18000000 		.4byte	.LVL6
 4193 0060 0100     		.2byte	0x1
 4194 0062 55       		.byte	0x55
 4195 0063 18000000 		.4byte	.LVL6
 4196 0067 60000000 		.4byte	.LVL12
ARM GAS  C:\Users\jo\AppData\Local\Temp\cc2cuyoe.s 			page 75


 4197 006b 0200     		.2byte	0x2
 4198 006d 70       		.byte	0x70
 4199 006e 08       		.sleb128 8
 4200 006f 60000000 		.4byte	.LVL12
 4201 0073 7A000000 		.4byte	.LVL15
 4202 0077 0100     		.2byte	0x1
 4203 0079 55       		.byte	0x55
 4204 007a 7A000000 		.4byte	.LVL15
 4205 007e 94000000 		.4byte	.LFE261
 4206 0082 0400     		.2byte	0x4
 4207 0084 F3       		.byte	0xf3
 4208 0085 01       		.uleb128 0x1
 4209 0086 51       		.byte	0x51
 4210 0087 9F       		.byte	0x9f
 4211 0088 00000000 		.4byte	0
 4212 008c 00000000 		.4byte	0
 4213              	.LLST3:
 4214 0090 00000000 		.4byte	.LVL3
 4215 0094 0F000000 		.4byte	.LVL5-1
 4216 0098 0100     		.2byte	0x1
 4217 009a 52       		.byte	0x52
 4218 009b 0F000000 		.4byte	.LVL5-1
 4219 009f 7A000000 		.4byte	.LVL15
 4220 00a3 0100     		.2byte	0x1
 4221 00a5 57       		.byte	0x57
 4222 00a6 7A000000 		.4byte	.LVL15
 4223 00aa 94000000 		.4byte	.LFE261
 4224 00ae 0400     		.2byte	0x4
 4225 00b0 F3       		.byte	0xf3
 4226 00b1 01       		.uleb128 0x1
 4227 00b2 52       		.byte	0x52
 4228 00b3 9F       		.byte	0x9f
 4229 00b4 00000000 		.4byte	0
 4230 00b8 00000000 		.4byte	0
 4231              	.LLST4:
 4232 00bc 10000000 		.4byte	.LVL5
 4233 00c0 6A000000 		.4byte	.LVL13
 4234 00c4 0100     		.2byte	0x1
 4235 00c6 50       		.byte	0x50
 4236 00c7 00000000 		.4byte	0
 4237 00cb 00000000 		.4byte	0
 4238              	.LLST5:
 4239 00cf 2C000000 		.4byte	.LVL7
 4240 00d3 46000000 		.4byte	.LVL9
 4241 00d7 0100     		.2byte	0x1
 4242 00d9 55       		.byte	0x55
 4243 00da 52000000 		.4byte	.LVL10
 4244 00de 5C000000 		.4byte	.LVL11
 4245 00e2 0100     		.2byte	0x1
 4246 00e4 55       		.byte	0x55
 4247 00e5 00000000 		.4byte	0
 4248 00e9 00000000 		.4byte	0
 4249              	.LLST6:
 4250 00ed 00000000 		.4byte	.LVL18
 4251 00f1 05000000 		.4byte	.LVL19-1
 4252 00f5 0100     		.2byte	0x1
 4253 00f7 50       		.byte	0x50
ARM GAS  C:\Users\jo\AppData\Local\Temp\cc2cuyoe.s 			page 76


 4254 00f8 05000000 		.4byte	.LVL19-1
 4255 00fc 38000000 		.4byte	.LFE256
 4256 0100 0400     		.2byte	0x4
 4257 0102 F3       		.byte	0xf3
 4258 0103 01       		.uleb128 0x1
 4259 0104 50       		.byte	0x50
 4260 0105 9F       		.byte	0x9f
 4261 0106 00000000 		.4byte	0
 4262 010a 00000000 		.4byte	0
 4263              	.LLST7:
 4264 010e 00000000 		.4byte	.LVL23
 4265 0112 05000000 		.4byte	.LVL24-1
 4266 0116 0100     		.2byte	0x1
 4267 0118 50       		.byte	0x50
 4268 0119 05000000 		.4byte	.LVL24-1
 4269 011d 1C000000 		.4byte	.LFE259
 4270 0121 0400     		.2byte	0x4
 4271 0123 F3       		.byte	0xf3
 4272 0124 01       		.uleb128 0x1
 4273 0125 50       		.byte	0x50
 4274 0126 9F       		.byte	0x9f
 4275 0127 00000000 		.4byte	0
 4276 012b 00000000 		.4byte	0
 4277              	.LLST8:
 4278 012f 00000000 		.4byte	.LVL26
 4279 0133 05000000 		.4byte	.LVL27-1
 4280 0137 0100     		.2byte	0x1
 4281 0139 50       		.byte	0x50
 4282 013a 05000000 		.4byte	.LVL27-1
 4283 013e 1C000000 		.4byte	.LFE258
 4284 0142 0400     		.2byte	0x4
 4285 0144 F3       		.byte	0xf3
 4286 0145 01       		.uleb128 0x1
 4287 0146 50       		.byte	0x50
 4288 0147 9F       		.byte	0x9f
 4289 0148 00000000 		.4byte	0
 4290 014c 00000000 		.4byte	0
 4291              	.LLST9:
 4292 0150 00000000 		.4byte	.LVL29
 4293 0154 2C000000 		.4byte	.LVL33
 4294 0158 0100     		.2byte	0x1
 4295 015a 50       		.byte	0x50
 4296 015b 2C000000 		.4byte	.LVL33
 4297 015f 3C000000 		.4byte	.LVL35
 4298 0163 0400     		.2byte	0x4
 4299 0165 F3       		.byte	0xf3
 4300 0166 01       		.uleb128 0x1
 4301 0167 50       		.byte	0x50
 4302 0168 9F       		.byte	0x9f
 4303 0169 3C000000 		.4byte	.LVL35
 4304 016d 48000000 		.4byte	.LFE262
 4305 0171 0100     		.2byte	0x1
 4306 0173 50       		.byte	0x50
 4307 0174 00000000 		.4byte	0
 4308 0178 00000000 		.4byte	0
 4309              	.LLST10:
 4310 017c 00000000 		.4byte	.LVL29
ARM GAS  C:\Users\jo\AppData\Local\Temp\cc2cuyoe.s 			page 77


 4311 0180 2E000000 		.4byte	.LVL34
 4312 0184 0100     		.2byte	0x1
 4313 0186 51       		.byte	0x51
 4314 0187 2E000000 		.4byte	.LVL34
 4315 018b 3C000000 		.4byte	.LVL35
 4316 018f 0400     		.2byte	0x4
 4317 0191 F3       		.byte	0xf3
 4318 0192 01       		.uleb128 0x1
 4319 0193 51       		.byte	0x51
 4320 0194 9F       		.byte	0x9f
 4321 0195 3C000000 		.4byte	.LVL35
 4322 0199 48000000 		.4byte	.LFE262
 4323 019d 0100     		.2byte	0x1
 4324 019f 51       		.byte	0x51
 4325 01a0 00000000 		.4byte	0
 4326 01a4 00000000 		.4byte	0
 4327              	.LLST11:
 4328 01a8 0C000000 		.4byte	.LVL30
 4329 01ac 3B000000 		.4byte	.LVL35-1
 4330 01b0 0100     		.2byte	0x1
 4331 01b2 53       		.byte	0x53
 4332 01b3 40000000 		.4byte	.LVL36
 4333 01b7 48000000 		.4byte	.LFE262
 4334 01bb 0100     		.2byte	0x1
 4335 01bd 53       		.byte	0x53
 4336 01be 00000000 		.4byte	0
 4337 01c2 00000000 		.4byte	0
 4338              	.LLST12:
 4339 01c6 0C000000 		.4byte	.LVL30
 4340 01ca 0E000000 		.4byte	.LVL31
 4341 01ce 0100     		.2byte	0x1
 4342 01d0 53       		.byte	0x53
 4343 01d1 0E000000 		.4byte	.LVL31
 4344 01d5 14000000 		.4byte	.LVL32
 4345 01d9 0100     		.2byte	0x1
 4346 01db 52       		.byte	0x52
 4347 01dc 14000000 		.4byte	.LVL32
 4348 01e0 3B000000 		.4byte	.LVL35-1
 4349 01e4 0100     		.2byte	0x1
 4350 01e6 53       		.byte	0x53
 4351 01e7 40000000 		.4byte	.LVL36
 4352 01eb 48000000 		.4byte	.LFE262
 4353 01ef 0100     		.2byte	0x1
 4354 01f1 53       		.byte	0x53
 4355 01f2 00000000 		.4byte	0
 4356 01f6 00000000 		.4byte	0
 4357              	.LLST13:
 4358 01fa 00000000 		.4byte	.LVL37
 4359 01fe 0E000000 		.4byte	.LVL38
 4360 0202 0100     		.2byte	0x1
 4361 0204 50       		.byte	0x50
 4362 0205 0E000000 		.4byte	.LVL38
 4363 0209 4A000000 		.4byte	.LVL45
 4364 020d 0100     		.2byte	0x1
 4365 020f 57       		.byte	0x57
 4366 0210 4A000000 		.4byte	.LVL45
 4367 0214 4D000000 		.4byte	.LVL46-1
ARM GAS  C:\Users\jo\AppData\Local\Temp\cc2cuyoe.s 			page 78


 4368 0218 0100     		.2byte	0x1
 4369 021a 50       		.byte	0x50
 4370 021b 4D000000 		.4byte	.LVL46-1
 4371 021f 4E000000 		.4byte	.LVL46
 4372 0223 0400     		.2byte	0x4
 4373 0225 F3       		.byte	0xf3
 4374 0226 01       		.uleb128 0x1
 4375 0227 50       		.byte	0x50
 4376 0228 9F       		.byte	0x9f
 4377 0229 4E000000 		.4byte	.LVL46
 4378 022d 6C000000 		.4byte	.LFE263
 4379 0231 0100     		.2byte	0x1
 4380 0233 57       		.byte	0x57
 4381 0234 00000000 		.4byte	0
 4382 0238 00000000 		.4byte	0
 4383              	.LLST14:
 4384 023c 00000000 		.4byte	.LVL37
 4385 0240 0E000000 		.4byte	.LVL38
 4386 0244 0100     		.2byte	0x1
 4387 0246 51       		.byte	0x51
 4388 0247 0E000000 		.4byte	.LVL38
 4389 024b 4A000000 		.4byte	.LVL45
 4390 024f 0100     		.2byte	0x1
 4391 0251 56       		.byte	0x56
 4392 0252 4A000000 		.4byte	.LVL45
 4393 0256 4D000000 		.4byte	.LVL46-1
 4394 025a 0100     		.2byte	0x1
 4395 025c 51       		.byte	0x51
 4396 025d 4D000000 		.4byte	.LVL46-1
 4397 0261 4E000000 		.4byte	.LVL46
 4398 0265 0400     		.2byte	0x4
 4399 0267 F3       		.byte	0xf3
 4400 0268 01       		.uleb128 0x1
 4401 0269 51       		.byte	0x51
 4402 026a 9F       		.byte	0x9f
 4403 026b 4E000000 		.4byte	.LVL46
 4404 026f 6C000000 		.4byte	.LFE263
 4405 0273 0100     		.2byte	0x1
 4406 0275 56       		.byte	0x56
 4407 0276 00000000 		.4byte	0
 4408 027a 00000000 		.4byte	0
 4409              	.LLST15:
 4410 027e 36000000 		.4byte	.LVL43
 4411 0282 40000000 		.4byte	.LVL44
 4412 0286 0100     		.2byte	0x1
 4413 0288 50       		.byte	0x50
 4414 0289 4E000000 		.4byte	.LVL46
 4415 028d 60000000 		.4byte	.LVL47
 4416 0291 0100     		.2byte	0x1
 4417 0293 50       		.byte	0x50
 4418 0294 00000000 		.4byte	0
 4419 0298 00000000 		.4byte	0
 4420              	.LLST16:
 4421 029c 0E000000 		.4byte	.LVL38
 4422 02a0 1F000000 		.4byte	.LVL41-1
 4423 02a4 0100     		.2byte	0x1
 4424 02a6 53       		.byte	0x53
ARM GAS  C:\Users\jo\AppData\Local\Temp\cc2cuyoe.s 			page 79


 4425 02a7 00000000 		.4byte	0
 4426 02ab 00000000 		.4byte	0
 4427              	.LLST17:
 4428 02af 10000000 		.4byte	.LVL39
 4429 02b3 22000000 		.4byte	.LVL42
 4430 02b7 0100     		.2byte	0x1
 4431 02b9 55       		.byte	0x55
 4432 02ba 60000000 		.4byte	.LVL47
 4433 02be 6C000000 		.4byte	.LFE263
 4434 02c2 0100     		.2byte	0x1
 4435 02c4 55       		.byte	0x55
 4436 02c5 00000000 		.4byte	0
 4437 02c9 00000000 		.4byte	0
 4438              	.LLST18:
 4439 02cd 1C000000 		.4byte	.LVL40
 4440 02d1 22000000 		.4byte	.LVL42
 4441 02d5 0100     		.2byte	0x1
 4442 02d7 59       		.byte	0x59
 4443 02d8 60000000 		.4byte	.LVL47
 4444 02dc 6C000000 		.4byte	.LFE263
 4445 02e0 0100     		.2byte	0x1
 4446 02e2 59       		.byte	0x59
 4447 02e3 00000000 		.4byte	0
 4448 02e7 00000000 		.4byte	0
 4449              		.section	.debug_aranges,"",%progbits
 4450 0000 5C000000 		.4byte	0x5c
 4451 0004 0200     		.2byte	0x2
 4452 0006 00000000 		.4byte	.Ldebug_info0
 4453 000a 04       		.byte	0x4
 4454 000b 00       		.byte	0
 4455 000c 0000     		.2byte	0
 4456 000e 0000     		.2byte	0
 4457 0010 00000000 		.4byte	.LFB264
 4458 0014 28000000 		.4byte	.LFE264-.LFB264
 4459 0018 00000000 		.4byte	.LFB261
 4460 001c 94000000 		.4byte	.LFE261-.LFB261
 4461 0020 00000000 		.4byte	.LFB257
 4462 0024 34000000 		.4byte	.LFE257-.LFB257
 4463 0028 00000000 		.4byte	.LFB256
 4464 002c 38000000 		.4byte	.LFE256-.LFB256
 4465 0030 00000000 		.4byte	.LFB260
 4466 0034 28000000 		.4byte	.LFE260-.LFB260
 4467 0038 00000000 		.4byte	.LFB259
 4468 003c 1C000000 		.4byte	.LFE259-.LFB259
 4469 0040 00000000 		.4byte	.LFB258
 4470 0044 1C000000 		.4byte	.LFE258-.LFB258
 4471 0048 00000000 		.4byte	.LFB262
 4472 004c 48000000 		.4byte	.LFE262-.LFB262
 4473 0050 00000000 		.4byte	.LFB263
 4474 0054 6C000000 		.4byte	.LFE263-.LFB263
 4475 0058 00000000 		.4byte	0
 4476 005c 00000000 		.4byte	0
 4477              		.section	.debug_ranges,"",%progbits
 4478              	.Ldebug_ranges0:
 4479 0000 72000000 		.4byte	.LBB4
 4480 0004 74000000 		.4byte	.LBE4
 4481 0008 7A000000 		.4byte	.LBB7
ARM GAS  C:\Users\jo\AppData\Local\Temp\cc2cuyoe.s 			page 80


 4482 000c 94000000 		.4byte	.LBE7
 4483 0010 00000000 		.4byte	0
 4484 0014 00000000 		.4byte	0
 4485 0018 00000000 		.4byte	.LFB264
 4486 001c 28000000 		.4byte	.LFE264
 4487 0020 00000000 		.4byte	.LFB261
 4488 0024 94000000 		.4byte	.LFE261
 4489 0028 00000000 		.4byte	.LFB257
 4490 002c 34000000 		.4byte	.LFE257
 4491 0030 00000000 		.4byte	.LFB256
 4492 0034 38000000 		.4byte	.LFE256
 4493 0038 00000000 		.4byte	.LFB260
 4494 003c 28000000 		.4byte	.LFE260
 4495 0040 00000000 		.4byte	.LFB259
 4496 0044 1C000000 		.4byte	.LFE259
 4497 0048 00000000 		.4byte	.LFB258
 4498 004c 1C000000 		.4byte	.LFE258
 4499 0050 00000000 		.4byte	.LFB262
 4500 0054 48000000 		.4byte	.LFE262
 4501 0058 00000000 		.4byte	.LFB263
 4502 005c 6C000000 		.4byte	.LFE263
 4503 0060 00000000 		.4byte	0
 4504 0064 00000000 		.4byte	0
 4505              		.section	.debug_line,"",%progbits
 4506              	.Ldebug_line0:
 4507 0000 9B050000 		.section	.debug_str,"MS",%progbits,1
 4507      02002304 
 4507      00000201 
 4507      FB0E0D00 
 4507      01010101 
 4508              	.LASF244:
 4509 0000 70726576 		.ascii	"prev_t\000"
 4509      5F7400
 4510              	.LASF53:
 4511 0007 63685F74 		.ascii	"ch_threads_list\000"
 4511      68726561 
 4511      64735F6C 
 4511      69737400 
 4512              	.LASF54:
 4513 0017 74687265 		.ascii	"threads_queue_t\000"
 4513      6164735F 
 4513      71756575 
 4513      655F7400 
 4514              	.LASF219:
 4515 0027 4D454D50 		.ascii	"MEMP_TCP_PCB_LISTEN\000"
 4515      5F544350 
 4515      5F504342 
 4515      5F4C4953 
 4515      54454E00 
 4516              	.LASF146:
 4517 003b 736F5F6F 		.ascii	"so_options\000"
 4517      7074696F 
 4517      6E7300
 4518              	.LASF91:
 4519 0046 63686172 		.ascii	"char\000"
 4519      00
 4520              	.LASF255:
ARM GAS  C:\Users\jo\AppData\Local\Temp\cc2cuyoe.s 			page 81


 4521 004b 63687670 		.ascii	"chvprintf\000"
 4521      72696E74 
 4521      6600
 4522              	.LASF85:
 4523 0055 72656761 		.ascii	"regarm_t\000"
 4523      726D5F74 
 4523      00
 4524              	.LASF36:
 4525 005e 705F7072 		.ascii	"p_prio\000"
 4525      696F00
 4526              	.LASF269:
 4527 0065 61676169 		.ascii	"again\000"
 4527      6E00
 4528              	.LASF130:
 4529 006b 7379735F 		.ascii	"sys_timeout_handler\000"
 4529      74696D65 
 4529      6F75745F 
 4529      68616E64 
 4529      6C657200 
 4530              	.LASF215:
 4531 007f 75726770 		.ascii	"urgp\000"
 4531      00
 4532              	.LASF153:
 4533 0084 706F6C6C 		.ascii	"polltmr\000"
 4533      746D7200 
 4534              	.LASF142:
 4535 008c 7463705F 		.ascii	"tcp_accept_fn\000"
 4535      61636365 
 4535      70745F66 
 4535      6E00
 4536              	.LASF138:
 4537 009a 666C6167 		.ascii	"flags\000"
 4537      7300
 4538              	.LASF32:
 4539 00a0 73797374 		.ascii	"systime_t\000"
 4539      696D655F 
 4539      7400
 4540              	.LASF101:
 4541 00aa 6D5F6F77 		.ascii	"m_owner\000"
 4541      6E657200 
 4542              	.LASF104:
 4543 00b2 735F7175 		.ascii	"s_queue\000"
 4543      65756500 
 4544              	.LASF206:
 4545 00ba 54494D45 		.ascii	"TIME_WAIT\000"
 4545      5F574149 
 4545      5400
 4546              	.LASF265:
 4547 00c4 433A5C55 		.ascii	"C:\\Users\\jo\\Documents\\GitHub\\ChibiOS\\demos\\S"
 4547      73657273 
 4547      5C6A6F5C 
 4547      446F6375 
 4547      6D656E74 
 4548 00f0 544D3332 		.ascii	"TM32\\RT-STM32F407-DISCOVERY\000"
 4548      5C52542D 
 4548      53544D33 
 4548      32463430 
ARM GAS  C:\Users\jo\AppData\Local\Temp\cc2cuyoe.s 			page 82


 4548      372D4449 
 4549              	.LASF0:
 4550 010c 756E7369 		.ascii	"unsigned int\000"
 4550      676E6564 
 4550      20696E74 
 4550      00
 4551              	.LASF195:
 4552 0119 7463705F 		.ascii	"tcp_connected_fn\000"
 4552      636F6E6E 
 4552      65637465 
 4552      645F666E 
 4552      00
 4553              	.LASF132:
 4554 012a 6E657874 		.ascii	"next\000"
 4554      00
 4555              	.LASF115:
 4556 012f 42617365 		.ascii	"BaseSequentialStreamVMT\000"
 4556      53657175 
 4556      656E7469 
 4556      616C5374 
 4556      7265616D 
 4557              	.LASF22:
 4558 0147 75696E74 		.ascii	"uint32_t\000"
 4558      33325F74 
 4558      00
 4559              	.LASF243:
 4560 0150 7379735F 		.ascii	"sys_untimeout\000"
 4560      756E7469 
 4560      6D656F75 
 4560      7400
 4561              	.LASF51:
 4562 015e 74687265 		.ascii	"threads_list_t\000"
 4562      6164735F 
 4562      6C697374 
 4562      5F7400
 4563              	.LASF128:
 4564 016d 6572725F 		.ascii	"err_t\000"
 4564      7400
 4565              	.LASF250:
 4566 0173 74637069 		.ascii	"tcpip_tcp_timer_active\000"
 4566      705F7463 
 4566      705F7469 
 4566      6D65725F 
 4566      61637469 
 4567              	.LASF44:
 4568 018a 705F7761 		.ascii	"p_waiting\000"
 4568      6974696E 
 4568      6700
 4569              	.LASF10:
 4570 0194 5F5F696E 		.ascii	"__int32_t\000"
 4570      7433325F 
 4570      7400
 4571              	.LASF125:
 4572 019e 7531365F 		.ascii	"u16_t\000"
 4572      7400
 4573              	.LASF247:
 4574 01a4 74696D65 		.ascii	"time_needed\000"
ARM GAS  C:\Users\jo\AppData\Local\Temp\cc2cuyoe.s 			page 83


 4574      5F6E6565 
 4574      64656400 
 4575              	.LASF235:
 4576 01b0 68616E64 		.ascii	"handler\000"
 4576      6C657200 
 4577              	.LASF81:
 4578 01b8 76746C69 		.ascii	"vtlist\000"
 4578      737400
 4579              	.LASF159:
 4580 01bf 7263765F 		.ascii	"rcv_ann_right_edge\000"
 4580      616E6E5F 
 4580      72696768 
 4580      745F6564 
 4580      676500
 4581              	.LASF57:
 4582 01d2 63685F72 		.ascii	"ch_ready_list\000"
 4582      65616479 
 4582      5F6C6973 
 4582      7400
 4583              	.LASF83:
 4584 01e0 69646C65 		.ascii	"idle_thread_wa\000"
 4584      5F746872 
 4584      6561645F 
 4584      776100
 4585              	.LASF98:
 4586 01ef 65776D61 		.ascii	"ewmask\000"
 4586      736B00
 4587              	.LASF190:
 4588 01f6 6B656570 		.ascii	"keep_cnt_sent\000"
 4588      5F636E74 
 4588      5F73656E 
 4588      7400
 4589              	.LASF229:
 4590 0204 4D454D50 		.ascii	"MEMP_PBUF_POOL\000"
 4590      5F504255 
 4590      465F504F 
 4590      4F4C00
 4591              	.LASF192:
 4592 0213 7463705F 		.ascii	"tcp_sent_fn\000"
 4592      73656E74 
 4592      5F666E00 
 4593              	.LASF64:
 4594 021f 76746675 		.ascii	"vtfunc_t\000"
 4594      6E635F74 
 4594      00
 4595              	.LASF97:
 4596 0228 77746F62 		.ascii	"wtobjp\000"
 4596      6A7000
 4597              	.LASF105:
 4598 022f 735F636E 		.ascii	"s_cnt\000"
 4598      7400
 4599              	.LASF76:
 4600 0235 63685F73 		.ascii	"ch_system_debug\000"
 4600      79737465 
 4600      6D5F6465 
 4600      62756700 
 4601              	.LASF257:
ARM GAS  C:\Users\jo\AppData\Local\Temp\cc2cuyoe.s 			page 84


 4602 0245 7463705F 		.ascii	"tcp_tmr\000"
 4602      746D7200 
 4603              	.LASF211:
 4604 024d 7365716E 		.ascii	"seqno\000"
 4604      6F00
 4605              	.LASF259:
 4606 0253 69705F72 		.ascii	"ip_reass_tmr\000"
 4606      65617373 
 4606      5F746D72 
 4606      00
 4607              	.LASF224:
 4608 0260 4D454D50 		.ascii	"MEMP_NETCONN\000"
 4608      5F4E4554 
 4608      434F4E4E 
 4608      00
 4609              	.LASF166:
 4610 026d 63776E64 		.ascii	"cwnd\000"
 4610      00
 4611              	.LASF30:
 4612 0272 6576656E 		.ascii	"eventmask_t\000"
 4612      746D6173 
 4612      6B5F7400 
 4613              	.LASF59:
 4614 027e 725F7072 		.ascii	"r_prio\000"
 4614      696F00
 4615              	.LASF148:
 4616 0285 61636365 		.ascii	"accept\000"
 4616      707400
 4617              	.LASF225:
 4618 028c 4D454D50 		.ascii	"MEMP_TCPIP_MSG_API\000"
 4618      5F544350 
 4618      49505F4D 
 4618      53475F41 
 4618      504900
 4619              	.LASF151:
 4620 029f 6C6F6361 		.ascii	"local_port\000"
 4620      6C5F706F 
 4620      727400
 4621              	.LASF99:
 4622 02aa 6D757465 		.ascii	"mutex\000"
 4622      7800
 4623              	.LASF28:
 4624 02b0 74707269 		.ascii	"tprio_t\000"
 4624      6F5F7400 
 4625              	.LASF66:
 4626 02b8 63685F76 		.ascii	"ch_virtual_timer\000"
 4626      69727475 
 4626      616C5F74 
 4626      696D6572 
 4626      00
 4627              	.LASF19:
 4628 02c9 696E7431 		.ascii	"int16_t\000"
 4628      365F7400 
 4629              	.LASF207:
 4630 02d1 7463705F 		.ascii	"tcp_seg\000"
 4630      73656700 
 4631              	.LASF16:
ARM GAS  C:\Users\jo\AppData\Local\Temp\cc2cuyoe.s 			page 85


 4632 02d9 6C6F6E67 		.ascii	"long long unsigned int\000"
 4632      206C6F6E 
 4632      6720756E 
 4632      7369676E 
 4632      65642069 
 4633              	.LASF232:
 4634 02f0 72656173 		.ascii	"reason\000"
 4634      6F6E00
 4635              	.LASF162:
 4636 02f7 72747365 		.ascii	"rtseq\000"
 4636      7100
 4637              	.LASF8:
 4638 02fd 5F5F7569 		.ascii	"__uint16_t\000"
 4638      6E743136 
 4638      5F7400
 4639              	.LASF31:
 4640 0308 636E745F 		.ascii	"cnt_t\000"
 4640      7400
 4641              	.LASF160:
 4642 030e 7274696D 		.ascii	"rtime\000"
 4642      6500
 4643              	.LASF133:
 4644 0314 74696D65 		.ascii	"time\000"
 4644      00
 4645              	.LASF106:
 4646 0319 73656D61 		.ascii	"semaphore_t\000"
 4646      70686F72 
 4646      655F7400 
 4647              	.LASF38:
 4648 0325 705F6E65 		.ascii	"p_newer\000"
 4648      77657200 
 4649              	.LASF73:
 4650 032d 63685F76 		.ascii	"ch_virtual_timers_list\000"
 4650      69727475 
 4650      616C5F74 
 4650      696D6572 
 4650      735F6C69 
 4651              	.LASF156:
 4652 0344 7263765F 		.ascii	"rcv_nxt\000"
 4652      6E787400 
 4653              	.LASF226:
 4654 034c 4D454D50 		.ascii	"MEMP_TCPIP_MSG_INPKT\000"
 4654      5F544350 
 4654      49505F4D 
 4654      53475F49 
 4654      4E504B54 
 4655              	.LASF261:
 4656 0361 6D656D70 		.ascii	"memp_free\000"
 4656      5F667265 
 4656      6500
 4657              	.LASF179:
 4658 036b 756E6163 		.ascii	"unacked\000"
 4658      6B656400 
 4659              	.LASF33:
 4660 0373 74687265 		.ascii	"thread_t\000"
 4660      61645F74 
 4660      00
ARM GAS  C:\Users\jo\AppData\Local\Temp\cc2cuyoe.s 			page 86


 4661              	.LASF34:
 4662 037c 705F6E65 		.ascii	"p_next\000"
 4662      787400
 4663              	.LASF89:
 4664 0383 5F5F676E 		.ascii	"__gnuc_va_list\000"
 4664      75635F76 
 4664      615F6C69 
 4664      737400
 4665              	.LASF205:
 4666 0392 4C415354 		.ascii	"LAST_ACK\000"
 4666      5F41434B 
 4666      00
 4667              	.LASF214:
 4668 039b 63686B73 		.ascii	"chksum\000"
 4668      756D00
 4669              	.LASF1:
 4670 03a2 73697A65 		.ascii	"size_t\000"
 4670      5F7400
 4671              	.LASF95:
 4672 03a9 7264796D 		.ascii	"rdymsg\000"
 4672      736700
 4673              	.LASF135:
 4674 03b0 7061796C 		.ascii	"payload\000"
 4674      6F616400 
 4675              	.LASF241:
 4676 03b8 6172705F 		.ascii	"arp_timer\000"
 4676      74696D65 
 4676      7200
 4677              	.LASF92:
 4678 03c2 6F666673 		.ascii	"offset\000"
 4678      657400
 4679              	.LASF266:
 4680 03c9 7463705F 		.ascii	"tcp_state\000"
 4680      73746174 
 4680      6500
 4681              	.LASF184:
 4682 03d3 636F6E6E 		.ascii	"connected\000"
 4682      65637465 
 4682      6400
 4683              	.LASF119:
 4684 03dd 5F426F6F 		.ascii	"_Bool\000"
 4684      6C00
 4685              	.LASF111:
 4686 03e3 6D625F72 		.ascii	"mb_rdptr\000"
 4686      64707472 
 4686      00
 4687              	.LASF114:
 4688 03ec 6D61696C 		.ascii	"mailbox_t\000"
 4688      626F785F 
 4688      7400
 4689              	.LASF204:
 4690 03f6 434C4F53 		.ascii	"CLOSING\000"
 4690      494E4700 
 4691              	.LASF15:
 4692 03fe 5F5F7569 		.ascii	"__uint64_t\000"
 4692      6E743634 
 4692      5F7400
ARM GAS  C:\Users\jo\AppData\Local\Temp\cc2cuyoe.s 			page 87


 4693              	.LASF230:
 4694 0409 4D454D50 		.ascii	"MEMP_MAX\000"
 4694      5F4D4158 
 4694      00
 4695              	.LASF124:
 4696 0412 73385F74 		.ascii	"s8_t\000"
 4696      00
 4697              	.LASF258:
 4698 0417 65746861 		.ascii	"etharp_tmr\000"
 4698      72705F74 
 4698      6D7200
 4699              	.LASF113:
 4700 0422 6D625F65 		.ascii	"mb_emptysem\000"
 4700      6D707479 
 4700      73656D00 
 4701              	.LASF171:
 4702 042e 736E645F 		.ascii	"snd_lbb\000"
 4702      6C626200 
 4703              	.LASF17:
 4704 0436 696E7438 		.ascii	"int8_t\000"
 4704      5F7400
 4705              	.LASF40:
 4706 043d 705F6E61 		.ascii	"p_name\000"
 4706      6D6500
 4707              	.LASF118:
 4708 0444 42617365 		.ascii	"BaseSequentialStream\000"
 4708      53657175 
 4708      656E7469 
 4708      616C5374 
 4708      7265616D 
 4709              	.LASF164:
 4710 0459 64757061 		.ascii	"dupacks\000"
 4710      636B7300 
 4711              	.LASF150:
 4712 0461 7072696F 		.ascii	"prio\000"
 4712      00
 4713              	.LASF154:
 4714 0466 706F6C6C 		.ascii	"pollinterval\000"
 4714      696E7465 
 4714      7276616C 
 4714      00
 4715              	.LASF228:
 4716 0473 4D454D50 		.ascii	"MEMP_PBUF\000"
 4716      5F504255 
 4716      4600
 4717              	.LASF185:
 4718 047d 706F6C6C 		.ascii	"poll\000"
 4718      00
 4719              	.LASF268:
 4720 0482 63687072 		.ascii	"chprintf\000"
 4720      696E7466 
 4720      00
 4721              	.LASF69:
 4722 048b 76745F64 		.ascii	"vt_delta\000"
 4722      656C7461 
 4722      00
 4723              	.LASF237:
ARM GAS  C:\Users\jo\AppData\Local\Temp\cc2cuyoe.s 			page 88


 4724 0494 7379735F 		.ascii	"sys_timeout\000"
 4724      74696D65 
 4724      6F757400 
 4725              	.LASF84:
 4726 04a0 73697A65 		.ascii	"sizetype\000"
 4726      74797065 
 4726      00
 4727              	.LASF61:
 4728 04a9 725F6E65 		.ascii	"r_newer\000"
 4728      77657200 
 4729              	.LASF74:
 4730 04b1 76745F6C 		.ascii	"vt_lasttime\000"
 4730      61737474 
 4730      696D6500 
 4731              	.LASF174:
 4732 04bd 61636B65 		.ascii	"acked\000"
 4732      6400
 4733              	.LASF203:
 4734 04c3 434C4F53 		.ascii	"CLOSE_WAIT\000"
 4734      455F5741 
 4734      495400
 4735              	.LASF26:
 4736 04ce 74737461 		.ascii	"tstate_t\000"
 4736      74655F74 
 4736      00
 4737              	.LASF14:
 4738 04d7 6C6F6E67 		.ascii	"long long int\000"
 4738      206C6F6E 
 4738      6720696E 
 4738      7400
 4739              	.LASF39:
 4740 04e5 705F6F6C 		.ascii	"p_older\000"
 4740      64657200 
 4741              	.LASF108:
 4742 04ed 6D625F62 		.ascii	"mb_buffer\000"
 4742      75666665 
 4742      7200
 4743              	.LASF12:
 4744 04f7 5F5F7569 		.ascii	"__uint32_t\000"
 4744      6E743332 
 4744      5F7400
 4745              	.LASF182:
 4746 0502 73656E74 		.ascii	"sent\000"
 4746      00
 4747              	.LASF18:
 4748 0507 75696E74 		.ascii	"uint8_t\000"
 4748      385F7400 
 4749              	.LASF112:
 4750 050f 6D625F66 		.ascii	"mb_fullsem\000"
 4750      756C6C73 
 4750      656D00
 4751              	.LASF169:
 4752 051a 736E645F 		.ascii	"snd_wl1\000"
 4752      776C3100 
 4753              	.LASF170:
 4754 0522 736E645F 		.ascii	"snd_wl2\000"
 4754      776C3200 
ARM GAS  C:\Users\jo\AppData\Local\Temp\cc2cuyoe.s 			page 89


 4755              	.LASF50:
 4756 052a 705F6D70 		.ascii	"p_mpool\000"
 4756      6F6F6C00 
 4757              	.LASF48:
 4758 0532 705F6D74 		.ascii	"p_mtxlist\000"
 4758      786C6973 
 4758      7400
 4759              	.LASF194:
 4760 053c 7463705F 		.ascii	"tcp_err_fn\000"
 4760      6572725F 
 4760      666E00
 4761              	.LASF41:
 4762 0547 705F7374 		.ascii	"p_state\000"
 4762      61746500 
 4763              	.LASF52:
 4764 054f 63685F74 		.ascii	"ch_thread\000"
 4764      68726561 
 4764      6400
 4765              	.LASF122:
 4766 0559 76615F6C 		.ascii	"va_list\000"
 4766      69737400 
 4767              	.LASF75:
 4768 0561 73797374 		.ascii	"system_debug_t\000"
 4768      656D5F64 
 4768      65627567 
 4768      5F7400
 4769              	.LASF256:
 4770 0570 6D656D70 		.ascii	"memp_malloc\000"
 4770      5F6D616C 
 4770      6C6F6300 
 4771              	.LASF223:
 4772 057c 4D454D50 		.ascii	"MEMP_NETBUF\000"
 4772      5F4E4554 
 4772      42554600 
 4773              	.LASF55:
 4774 0588 63685F74 		.ascii	"ch_threads_queue\000"
 4774      68726561 
 4774      64735F71 
 4774      75657565 
 4774      00
 4775              	.LASF262:
 4776 0599 7379735F 		.ascii	"sys_arch_mbox_fetch\000"
 4776      61726368 
 4776      5F6D626F 
 4776      785F6665 
 4776      74636800 
 4777              	.LASF116:
 4778 05ad 77726974 		.ascii	"write\000"
 4778      6500
 4779              	.LASF212:
 4780 05b3 61636B6E 		.ascii	"ackno\000"
 4780      6F00
 4781              	.LASF58:
 4782 05b9 725F7175 		.ascii	"r_queue\000"
 4782      65756500 
 4783              	.LASF245:
 4784 05c1 7379735F 		.ascii	"sys_timeouts_mbox_fetch\000"
ARM GAS  C:\Users\jo\AppData\Local\Temp\cc2cuyoe.s 			page 90


 4784      74696D65 
 4784      6F757473 
 4784      5F6D626F 
 4784      785F6665 
 4785              	.LASF29:
 4786 05d9 6D73675F 		.ascii	"msg_t\000"
 4786      7400
 4787              	.LASF218:
 4788 05df 4D454D50 		.ascii	"MEMP_TCP_PCB\000"
 4788      5F544350 
 4788      5F504342 
 4788      00
 4789              	.LASF123:
 4790 05ec 75385F74 		.ascii	"u8_t\000"
 4790      00
 4791              	.LASF42:
 4792 05f1 705F666C 		.ascii	"p_flags\000"
 4792      61677300 
 4793              	.LASF6:
 4794 05f9 5F5F696E 		.ascii	"__int16_t\000"
 4794      7431365F 
 4794      7400
 4795              	.LASF94:
 4796 0603 5F5F6170 		.ascii	"__ap\000"
 4796      00
 4797              	.LASF65:
 4798 0608 76697274 		.ascii	"virtual_timer_t\000"
 4798      75616C5F 
 4798      74696D65 
 4798      725F7400 
 4799              	.LASF120:
 4800 0618 49544D53 		.ascii	"ITMStreamVMT\000"
 4800      74726561 
 4800      6D564D54 
 4800      00
 4801              	.LASF152:
 4802 0625 72656D6F 		.ascii	"remote_port\000"
 4802      74655F70 
 4802      6F727400 
 4803              	.LASF109:
 4804 0631 6D625F74 		.ascii	"mb_top\000"
 4804      6F7000
 4805              	.LASF165:
 4806 0638 6C617374 		.ascii	"lastack\000"
 4806      61636B00 
 4807              	.LASF158:
 4808 0640 7263765F 		.ascii	"rcv_ann_wnd\000"
 4808      616E6E5F 
 4808      776E6400 
 4809              	.LASF62:
 4810 064c 725F6F6C 		.ascii	"r_older\000"
 4810      64657200 
 4811              	.LASF221:
 4812 0654 4D454D50 		.ascii	"MEMP_REASSDATA\000"
 4812      5F524541 
 4812      53534441 
 4812      544100
ARM GAS  C:\Users\jo\AppData\Local\Temp\cc2cuyoe.s 			page 91


 4813              	.LASF191:
 4814 0663 7463705F 		.ascii	"tcp_recv_fn\000"
 4814      72656376 
 4814      5F666E00 
 4815              	.LASF121:
 4816 066f 49544D53 		.ascii	"ITMStream\000"
 4816      74726561 
 4816      6D00
 4817              	.LASF46:
 4818 0679 705F6D73 		.ascii	"p_msg\000"
 4818      6700
 4819              	.LASF93:
 4820 067f 746D5F63 		.ascii	"tm_calibration_t\000"
 4820      616C6962 
 4820      72617469 
 4820      6F6E5F74 
 4820      00
 4821              	.LASF25:
 4822 0690 746D6F64 		.ascii	"tmode_t\000"
 4822      655F7400 
 4823              	.LASF82:
 4824 0698 6D61696E 		.ascii	"mainthread\000"
 4824      74687265 
 4824      616400
 4825              	.LASF238:
 4826 06a3 7463705F 		.ascii	"tcp_timer_needed\000"
 4826      74696D65 
 4826      725F6E65 
 4826      65646564 
 4826      00
 4827              	.LASF20:
 4828 06b4 75696E74 		.ascii	"uint16_t\000"
 4828      31365F74 
 4828      00
 4829              	.LASF186:
 4830 06bd 65727266 		.ascii	"errf\000"
 4830      00
 4831              	.LASF193:
 4832 06c2 7463705F 		.ascii	"tcp_poll_fn\000"
 4832      706F6C6C 
 4832      5F666E00 
 4833              	.LASF172:
 4834 06ce 736E645F 		.ascii	"snd_wnd\000"
 4834      776E6400 
 4835              	.LASF236:
 4836 06d6 74696D65 		.ascii	"timeout\000"
 4836      6F757400 
 4837              	.LASF24:
 4838 06de 7274636E 		.ascii	"rtcnt_t\000"
 4838      745F7400 
 4839              	.LASF180:
 4840 06e6 6F6F7365 		.ascii	"ooseq\000"
 4840      7100
 4841              	.LASF49:
 4842 06ec 705F7265 		.ascii	"p_realprio\000"
 4842      616C7072 
 4842      696F00
ARM GAS  C:\Users\jo\AppData\Local\Temp\cc2cuyoe.s 			page 92


 4843              	.LASF196:
 4844 06f7 434C4F53 		.ascii	"CLOSED\000"
 4844      454400
 4845              	.LASF127:
 4846 06fe 7533325F 		.ascii	"u32_t\000"
 4846      7400
 4847              	.LASF7:
 4848 0704 73686F72 		.ascii	"short int\000"
 4848      7420696E 
 4848      7400
 4849              	.LASF110:
 4850 070e 6D625F77 		.ascii	"mb_wrptr\000"
 4850      72707472 
 4850      00
 4851              	.LASF63:
 4852 0717 725F6375 		.ascii	"r_current\000"
 4852      7272656E 
 4852      7400
 4853              	.LASF47:
 4854 0721 705F6570 		.ascii	"p_epending\000"
 4854      656E6469 
 4854      6E6700
 4855              	.LASF100:
 4856 072c 6D5F7175 		.ascii	"m_queue\000"
 4856      65756500 
 4857              	.LASF11:
 4858 0734 6C6F6E67 		.ascii	"long int\000"
 4858      20696E74 
 4858      00
 4859              	.LASF88:
 4860 073d 706F7274 		.ascii	"port_intctx\000"
 4860      5F696E74 
 4860      63747800 
 4861              	.LASF87:
 4862 0749 636F6E74 		.ascii	"context\000"
 4862      65787400 
 4863              	.LASF251:
 4864 0751 49544D5F 		.ascii	"ITM_RxBuffer\000"
 4864      52784275 
 4864      66666572 
 4864      00
 4865              	.LASF178:
 4866 075e 756E7365 		.ascii	"unsent\000"
 4866      6E7400
 4867              	.LASF157:
 4868 0765 7263765F 		.ascii	"rcv_wnd\000"
 4868      776E6400 
 4869              	.LASF161:
 4870 076d 72747465 		.ascii	"rttest\000"
 4870      737400
 4871              	.LASF267:
 4872 0774 6F73616C 		.ascii	"osalSysHalt\000"
 4872      53797348 
 4872      616C7400 
 4873              	.LASF131:
 4874 0780 7379735F 		.ascii	"sys_timeo\000"
 4874      74696D65 
ARM GAS  C:\Users\jo\AppData\Local\Temp\cc2cuyoe.s 			page 93


 4874      6F00
 4875              	.LASF79:
 4876 078a 63685F73 		.ascii	"ch_system\000"
 4876      79737465 
 4876      6D00
 4877              	.LASF227:
 4878 0794 4D454D50 		.ascii	"MEMP_SYS_TIMEOUT\000"
 4878      5F535953 
 4878      5F54494D 
 4878      454F5554 
 4878      00
 4879              	.LASF155:
 4880 07a5 6C617374 		.ascii	"last_timer\000"
 4880      5F74696D 
 4880      657200
 4881              	.LASF217:
 4882 07b0 4D454D50 		.ascii	"MEMP_UDP_PCB\000"
 4882      5F554450 
 4882      5F504342 
 4882      00
 4883              	.LASF144:
 4884 07bd 6C6F6361 		.ascii	"local_ip\000"
 4884      6C5F6970 
 4884      00
 4885              	.LASF23:
 4886 07c6 75696E74 		.ascii	"uint64_t\000"
 4886      36345F74 
 4886      00
 4887              	.LASF37:
 4888 07cf 705F6374 		.ascii	"p_ctx\000"
 4888      7800
 4889              	.LASF246:
 4890 07d5 6D626F78 		.ascii	"mbox\000"
 4890      00
 4891              	.LASF80:
 4892 07da 726C6973 		.ascii	"rlist\000"
 4892      7400
 4893              	.LASF177:
 4894 07e0 756E7365 		.ascii	"unsent_oversize\000"
 4894      6E745F6F 
 4894      76657273 
 4894      697A6500 
 4895              	.LASF198:
 4896 07f0 53594E5F 		.ascii	"SYN_SENT\000"
 4896      53454E54 
 4896      00
 4897              	.LASF242:
 4898 07f9 69705F72 		.ascii	"ip_reass_timer\000"
 4898      65617373 
 4898      5F74696D 
 4898      657200
 4899              	.LASF168:
 4900 0808 736E645F 		.ascii	"snd_nxt\000"
 4900      6E787400 
 4901              	.LASF4:
 4902 0810 5F5F7569 		.ascii	"__uint8_t\000"
 4902      6E74385F 
ARM GAS  C:\Users\jo\AppData\Local\Temp\cc2cuyoe.s 			page 94


 4902      7400
 4903              	.LASF200:
 4904 081a 45535441 		.ascii	"ESTABLISHED\000"
 4904      424C4953 
 4904      48454400 
 4905              	.LASF248:
 4906 0826 746D7074 		.ascii	"tmptimeout\000"
 4906      696D656F 
 4906      757400
 4907              	.LASF173:
 4908 0831 736E645F 		.ascii	"snd_wnd_max\000"
 4908      776E645F 
 4908      6D617800 
 4909              	.LASF117:
 4910 083d 72656164 		.ascii	"read\000"
 4910      00
 4911              	.LASF103:
 4912 0842 73656D61 		.ascii	"semaphore\000"
 4912      70686F72 
 4912      6500
 4913              	.LASF222:
 4914 084c 4D454D50 		.ascii	"MEMP_FRAG_PBUF\000"
 4914      5F465241 
 4914      475F5042 
 4914      554600
 4915              	.LASF167:
 4916 085b 73737468 		.ascii	"ssthresh\000"
 4916      72657368 
 4916      00
 4917              	.LASF175:
 4918 0864 736E645F 		.ascii	"snd_buf\000"
 4918      62756600 
 4919              	.LASF216:
 4920 086c 4D454D50 		.ascii	"MEMP_RAW_PCB\000"
 4920      5F524157 
 4920      5F504342 
 4920      00
 4921              	.LASF213:
 4922 0879 5F686472 		.ascii	"_hdrlen_rsvd_flags\000"
 4922      6C656E5F 
 4922      72737664 
 4922      5F666C61 
 4922      677300
 4923              	.LASF35:
 4924 088c 705F7072 		.ascii	"p_prev\000"
 4924      657600
 4925              	.LASF129:
 4926 0893 7379735F 		.ascii	"sys_mbox_t\000"
 4926      6D626F78 
 4926      5F7400
 4927              	.LASF27:
 4928 089e 74726566 		.ascii	"trefs_t\000"
 4928      735F7400 
 4929              	.LASF13:
 4930 08a6 6C6F6E67 		.ascii	"long unsigned int\000"
 4930      20756E73 
 4930      69676E65 
ARM GAS  C:\Users\jo\AppData\Local\Temp\cc2cuyoe.s 			page 95


 4930      6420696E 
 4930      7400
 4931              	.LASF56:
 4932 08b8 72656164 		.ascii	"ready_list_t\000"
 4932      795F6C69 
 4932      73745F74 
 4932      00
 4933              	.LASF208:
 4934 08c5 74637068 		.ascii	"tcphdr\000"
 4934      647200
 4935              	.LASF126:
 4936 08cc 7331365F 		.ascii	"s16_t\000"
 4936      7400
 4937              	.LASF21:
 4938 08d2 696E7433 		.ascii	"int32_t\000"
 4938      325F7400 
 4939              	.LASF189:
 4940 08da 70657273 		.ascii	"persist_backoff\000"
 4940      6973745F 
 4940      6261636B 
 4940      6F666600 
 4941              	.LASF181:
 4942 08ea 72656675 		.ascii	"refused_data\000"
 4942      7365645F 
 4942      64617461 
 4942      00
 4943              	.LASF107:
 4944 08f7 6D757465 		.ascii	"mutex_t\000"
 4944      785F7400 
 4945              	.LASF209:
 4946 08ff 7463705F 		.ascii	"tcp_hdr\000"
 4946      68647200 
 4947              	.LASF264:
 4948 0907 2E2E2F2E 		.ascii	"../../../os/ext/lwip-1.4.1/src/core/timers.c\000"
 4948      2E2F2E2E 
 4948      2F6F732F 
 4948      6578742F 
 4948      6C776970 
 4949              	.LASF71:
 4950 0934 76745F70 		.ascii	"vt_par\000"
 4950      617200
 4951              	.LASF137:
 4952 093b 74797065 		.ascii	"type\000"
 4952      00
 4953              	.LASF5:
 4954 0940 756E7369 		.ascii	"unsigned char\000"
 4954      676E6564 
 4954      20636861 
 4954      7200
 4955              	.LASF201:
 4956 094e 46494E5F 		.ascii	"FIN_WAIT_1\000"
 4956      57414954 
 4956      5F3100
 4957              	.LASF202:
 4958 0959 46494E5F 		.ascii	"FIN_WAIT_2\000"
 4958      57414954 
 4958      5F3200
ARM GAS  C:\Users\jo\AppData\Local\Temp\cc2cuyoe.s 			page 96


 4959              	.LASF72:
 4960 0964 76697274 		.ascii	"virtual_timers_list_t\000"
 4960      75616C5F 
 4960      74696D65 
 4960      72735F6C 
 4960      6973745F 
 4961              	.LASF43:
 4962 097a 705F7265 		.ascii	"p_refs\000"
 4962      667300
 4963              	.LASF220:
 4964 0981 4D454D50 		.ascii	"MEMP_TCP_SEG\000"
 4964      5F544350 
 4964      5F534547 
 4964      00
 4965              	.LASF77:
 4966 098e 70616E69 		.ascii	"panic_msg\000"
 4966      635F6D73 
 4966      6700
 4967              	.LASF134:
 4968 0998 70627566 		.ascii	"pbuf\000"
 4968      00
 4969              	.LASF187:
 4970 099d 6B656570 		.ascii	"keep_idle\000"
 4970      5F69646C 
 4970      6500
 4971              	.LASF147:
 4972 09a7 63616C6C 		.ascii	"callback_arg\000"
 4972      6261636B 
 4972      5F617267 
 4972      00
 4973              	.LASF197:
 4974 09b4 4C495354 		.ascii	"LISTEN\000"
 4974      454E00
 4975              	.LASF140:
 4976 09bb 61646472 		.ascii	"addr\000"
 4976      00
 4977              	.LASF239:
 4978 09c0 7379735F 		.ascii	"sys_timeouts_init\000"
 4978      74696D65 
 4978      6F757473 
 4978      5F696E69 
 4978      7400
 4979              	.LASF149:
 4980 09d2 73746174 		.ascii	"state\000"
 4980      6500
 4981              	.LASF136:
 4982 09d8 746F745F 		.ascii	"tot_len\000"
 4982      6C656E00 
 4983              	.LASF260:
 4984 09e0 63685379 		.ascii	"chSysHalt\000"
 4984      7348616C 
 4984      7400
 4985              	.LASF67:
 4986 09ea 76745F6E 		.ascii	"vt_next\000"
 4986      65787400 
 4987              	.LASF249:
 4988 09f2 6E657874 		.ascii	"next_timeout\000"
ARM GAS  C:\Users\jo\AppData\Local\Temp\cc2cuyoe.s 			page 97


 4988      5F74696D 
 4988      656F7574 
 4988      00
 4989              	.LASF176:
 4990 09ff 736E645F 		.ascii	"snd_queuelen\000"
 4990      71756575 
 4990      656C656E 
 4990      00
 4991              	.LASF78:
 4992 0a0c 63685F73 		.ascii	"ch_system_t\000"
 4992      79737465 
 4992      6D5F7400 
 4993              	.LASF90:
 4994 0a18 5F5F7661 		.ascii	"__va_list\000"
 4994      5F6C6973 
 4994      7400
 4995              	.LASF183:
 4996 0a22 72656376 		.ascii	"recv\000"
 4996      00
 4997              	.LASF102:
 4998 0a27 6D5F6E65 		.ascii	"m_next\000"
 4998      787400
 4999              	.LASF263:
 5000 0a2e 474E5520 		.ascii	"GNU C 4.9.3 20141119 (release) [ARM/embedded-4_9-br"
 5000      4320342E 
 5000      392E3320 
 5000      32303134 
 5000      31313139 
 5001 0a61 616E6368 		.ascii	"anch revision 218278] -mcpu=cortex-m4 -mfloat-abi=h"
 5001      20726576 
 5001      6973696F 
 5001      6E203231 
 5001      38323738 
 5002 0a94 61726420 		.ascii	"ard -mfpu=fpv4-sp-d16 -mno-thumb-interwork -mthumb "
 5002      2D6D6670 
 5002      753D6670 
 5002      76342D73 
 5002      702D6431 
 5003 0ac7 2D676764 		.ascii	"-ggdb -O2 -fomit-frame-pointer -falign-functions=16"
 5003      62202D4F 
 5003      32202D66 
 5003      6F6D6974 
 5003      2D667261 
 5004 0afa 202D6666 		.ascii	" -ffunction-sections -fdata-sections -fno-common -f"
 5004      756E6374 
 5004      696F6E2D 
 5004      73656374 
 5004      696F6E73 
 5005 0b2d 73696E67 		.ascii	"single-precision-constant\000"
 5005      6C652D70 
 5005      72656369 
 5005      73696F6E 
 5005      2D636F6E 
 5006              	.LASF3:
 5007 0b47 7369676E 		.ascii	"signed char\000"
 5007      65642063 
 5007      68617200 
ARM GAS  C:\Users\jo\AppData\Local\Temp\cc2cuyoe.s 			page 98


 5008              	.LASF143:
 5009 0b53 7463705F 		.ascii	"tcp_pcb\000"
 5009      70636200 
 5010              	.LASF9:
 5011 0b5b 73686F72 		.ascii	"short unsigned int\000"
 5011      7420756E 
 5011      7369676E 
 5011      65642069 
 5011      6E7400
 5012              	.LASF60:
 5013 0b6e 725F6374 		.ascii	"r_ctx\000"
 5013      7800
 5014              	.LASF86:
 5015 0b74 73746B61 		.ascii	"stkalign_t\000"
 5015      6C69676E 
 5015      5F7400
 5016              	.LASF2:
 5017 0b7f 5F5F696E 		.ascii	"__int8_t\000"
 5017      74385F74 
 5017      00
 5018              	.LASF45:
 5019 0b88 705F6D73 		.ascii	"p_msgqueue\000"
 5019      67717565 
 5019      756500
 5020              	.LASF188:
 5021 0b93 70657273 		.ascii	"persist_cnt\000"
 5021      6973745F 
 5021      636E7400 
 5022              	.LASF145:
 5023 0b9f 72656D6F 		.ascii	"remote_ip\000"
 5023      74655F69 
 5023      7000
 5024              	.LASF70:
 5025 0ba9 76745F66 		.ascii	"vt_func\000"
 5025      756E6300 
 5026              	.LASF254:
 5027 0bb1 7463705F 		.ascii	"tcp_tw_pcbs\000"
 5027      74775F70 
 5027      63627300 
 5028              	.LASF68:
 5029 0bbd 76745F70 		.ascii	"vt_prev\000"
 5029      72657600 
 5030              	.LASF233:
 5031 0bc5 666F726D 		.ascii	"formatted_bytes\000"
 5031      61747465 
 5031      645F6279 
 5031      74657300 
 5032              	.LASF141:
 5033 0bd5 69705F61 		.ascii	"ip_addr_t\000"
 5033      6464725F 
 5033      7400
 5034              	.LASF231:
 5035 0bdf 6D656D70 		.ascii	"memp_t\000"
 5035      5F7400
 5036              	.LASF253:
 5037 0be6 7463705F 		.ascii	"tcp_active_pcbs\000"
 5037      61637469 
ARM GAS  C:\Users\jo\AppData\Local\Temp\cc2cuyoe.s 			page 99


 5037      76655F70 
 5037      63627300 
 5038              	.LASF163:
 5039 0bf6 6E727478 		.ascii	"nrtx\000"
 5039      00
 5040              	.LASF234:
 5041 0bfb 6D736563 		.ascii	"msecs\000"
 5041      7300
 5042              	.LASF210:
 5043 0c01 64657374 		.ascii	"dest\000"
 5043      00
 5044              	.LASF96:
 5045 0c06 65786974 		.ascii	"exitcode\000"
 5045      636F6465 
 5045      00
 5046              	.LASF199:
 5047 0c0f 53594E5F 		.ascii	"SYN_RCVD\000"
 5047      52435644 
 5047      00
 5048              	.LASF139:
 5049 0c18 69705F61 		.ascii	"ip_addr\000"
 5049      64647200 
 5050              	.LASF240:
 5051 0c20 74637069 		.ascii	"tcpip_tcp_timer\000"
 5051      705F7463 
 5051      705F7469 
 5051      6D657200 
 5052              	.LASF252:
 5053 0c30 69746D5F 		.ascii	"itm_port\000"
 5053      706F7274 
 5053      00
 5054              		.ident	"GCC: (GNU Tools for ARM Embedded Processors) 4.9.3 20141119 (release) [ARM/embedded-4_9-br
ARM GAS  C:\Users\jo\AppData\Local\Temp\cc2cuyoe.s 			page 100


DEFINED SYMBOLS
                            *ABS*:00000000 timers.c
C:\Users\jo\AppData\Local\Temp\cc2cuyoe.s:21     .text.chprintf.constprop.0:00000000 $t
C:\Users\jo\AppData\Local\Temp\cc2cuyoe.s:26     .text.chprintf.constprop.0:00000000 chprintf.constprop.0
C:\Users\jo\AppData\Local\Temp\cc2cuyoe.s:72     .text.chprintf.constprop.0:00000020 $d
C:\Users\jo\AppData\Local\Temp\cc2cuyoe.s:78     .text.sys_timeout:00000000 $t
C:\Users\jo\AppData\Local\Temp\cc2cuyoe.s:84     .text.sys_timeout:00000000 sys_timeout
C:\Users\jo\AppData\Local\Temp\cc2cuyoe.s:234    .text.sys_timeout:00000080 $d
C:\Users\jo\AppData\Local\Temp\cc2cuyoe.s:245    .text.tcp_timer_needed:00000000 $t
C:\Users\jo\AppData\Local\Temp\cc2cuyoe.s:251    .text.tcp_timer_needed:00000000 tcp_timer_needed
C:\Users\jo\AppData\Local\Temp\cc2cuyoe.s:287    .text.tcp_timer_needed:00000024 $d
C:\Users\jo\AppData\Local\Temp\cc2cuyoe.s:300    .text.tcpip_tcp_timer:00000000 tcpip_tcp_timer
C:\Users\jo\AppData\Local\Temp\cc2cuyoe.s:295    .text.tcpip_tcp_timer:00000000 $t
C:\Users\jo\AppData\Local\Temp\cc2cuyoe.s:346    .text.tcpip_tcp_timer:00000028 $d
C:\Users\jo\AppData\Local\Temp\cc2cuyoe.s:354    .text.sys_timeouts_init:00000000 $t
C:\Users\jo\AppData\Local\Temp\cc2cuyoe.s:360    .text.sys_timeouts_init:00000000 sys_timeouts_init
C:\Users\jo\AppData\Local\Temp\cc2cuyoe.s:391    .text.sys_timeouts_init:00000020 $d
C:\Users\jo\AppData\Local\Temp\cc2cuyoe.s:441    .text.ip_reass_timer:00000000 ip_reass_timer
C:\Users\jo\AppData\Local\Temp\cc2cuyoe.s:402    .text.arp_timer:00000000 arp_timer
C:\Users\jo\AppData\Local\Temp\cc2cuyoe.s:397    .text.arp_timer:00000000 $t
C:\Users\jo\AppData\Local\Temp\cc2cuyoe.s:431    .text.arp_timer:00000018 $d
C:\Users\jo\AppData\Local\Temp\cc2cuyoe.s:436    .text.ip_reass_timer:00000000 $t
C:\Users\jo\AppData\Local\Temp\cc2cuyoe.s:470    .text.ip_reass_timer:00000018 $d
C:\Users\jo\AppData\Local\Temp\cc2cuyoe.s:475    .text.sys_untimeout:00000000 $t
C:\Users\jo\AppData\Local\Temp\cc2cuyoe.s:481    .text.sys_untimeout:00000000 sys_untimeout
C:\Users\jo\AppData\Local\Temp\cc2cuyoe.s:565    .text.sys_untimeout:00000044 $d
C:\Users\jo\AppData\Local\Temp\cc2cuyoe.s:570    .text.sys_timeouts_mbox_fetch:00000000 $t
C:\Users\jo\AppData\Local\Temp\cc2cuyoe.s:576    .text.sys_timeouts_mbox_fetch:00000000 sys_timeouts_mbox_fetch
C:\Users\jo\AppData\Local\Temp\cc2cuyoe.s:685    .text.sys_timeouts_mbox_fetch:00000068 $d
C:\Users\jo\AppData\Local\Temp\cc2cuyoe.s:690    .bss.tcpip_tcp_timer_active:00000000 $d
C:\Users\jo\AppData\Local\Temp\cc2cuyoe.s:694    .bss.tcpip_tcp_timer_active:00000000 tcpip_tcp_timer_active
C:\Users\jo\AppData\Local\Temp\cc2cuyoe.s:697    .bss.next_timeout:00000000 $d
C:\Users\jo\AppData\Local\Temp\cc2cuyoe.s:701    .bss.next_timeout:00000000 next_timeout
C:\Users\jo\AppData\Local\Temp\cc2cuyoe.s:704    .rodata.str1.4:00000000 $d
                     .debug_frame:00000010 $d
C:\Users\jo\AppData\Local\Temp\cc2cuyoe.s:77     .text.chprintf.constprop.0:00000028 $t
C:\Users\jo\AppData\Local\Temp\cc2cuyoe.s:244    .text.sys_timeout:00000094 $t
C:\Users\jo\AppData\Local\Temp\cc2cuyoe.s:294    .text.tcp_timer_needed:00000034 $t
C:\Users\jo\AppData\Local\Temp\cc2cuyoe.s:353    .text.tcpip_tcp_timer:00000038 $t
C:\Users\jo\AppData\Local\Temp\cc2cuyoe.s:396    .text.sys_timeouts_init:00000028 $t
C:\Users\jo\AppData\Local\Temp\cc2cuyoe.s:435    .text.arp_timer:0000001c $t
C:\Users\jo\AppData\Local\Temp\cc2cuyoe.s:474    .text.ip_reass_timer:0000001c $t
C:\Users\jo\AppData\Local\Temp\cc2cuyoe.s:569    .text.sys_untimeout:00000048 $t
C:\Users\jo\AppData\Local\Temp\cc2cuyoe.s:689    .text.sys_timeouts_mbox_fetch:0000006c $t

UNDEFINED SYMBOLS
chvprintf
itm_port
memp_malloc
chSysHalt
tcp_active_pcbs
tcp_tw_pcbs
tcp_tmr
etharp_tmr
ip_reass_tmr
memp_free
sys_arch_mbox_fetch
ARM GAS  C:\Users\jo\AppData\Local\Temp\cc2cuyoe.s 			page 101


