ARM GAS  C:\Users\jo\AppData\Local\Temp\cc2cuyoe.s 			page 1


   1              		.syntax unified
   2              		.cpu cortex-m4
   3              		.eabi_attribute 27, 3
   4              		.eabi_attribute 28, 1
   5              		.fpu fpv4-sp-d16
   6              		.eabi_attribute 20, 1
   7              		.eabi_attribute 21, 1
   8              		.eabi_attribute 23, 3
   9              		.eabi_attribute 24, 1
  10              		.eabi_attribute 25, 1
  11              		.eabi_attribute 26, 1
  12              		.eabi_attribute 30, 2
  13              		.eabi_attribute 34, 1
  14              		.eabi_attribute 18, 4
  15              		.thumb
  16              		.file	"timers.c"
  17              		.text
  18              	.Ltext0:
  19              		.cfi_sections	.debug_frame
  20              		.section	.text.chprintf.constprop.0,"ax",%progbits
  21              		.align	2
  22              		.p2align 4,,15
  23              		.thumb
  24              		.thumb_func
  25              		.type	chprintf.constprop.0, %function
  26              	chprintf.constprop.0:
  27              	.LFB264:
  28              		.file 1 "../../../os/hal/lib/streams/chprintf.h"
  29              		.loc 1 69 0
  30              		.cfi_startproc
  31              		@ args = 4, pretend = 12, frame = 8
  32              		@ frame_needed = 0, uses_anonymous_args = 1
  33              	.LVL0:
  34 0000 0EB4     		push	{r1, r2, r3}
  35              		.cfi_def_cfa_offset 12
  36              		.cfi_offset 1, -12
  37              		.cfi_offset 2, -8
  38              		.cfi_offset 3, -4
  39 0002 00B5     		push	{lr}
  40              		.cfi_def_cfa_offset 16
  41              		.cfi_offset 14, -16
  42 0004 82B0     		sub	sp, sp, #8
  43              		.cfi_def_cfa_offset 24
  44              		.loc 1 73 0
  45 0006 04AB     		add	r3, sp, #16
  46              		.loc 1 74 0
  47 0008 1A46     		mov	r2, r3
  48 000a 0549     		ldr	r1, .L3
  49 000c 0548     		ldr	r0, .L3+4
  50              	.LVL1:
  51              		.loc 1 73 0
  52 000e 0193     		str	r3, [sp, #4]
  53              		.loc 1 74 0
  54 0010 FFF7FEFF 		bl	chvprintf
  55              	.LVL2:
  56              		.loc 1 78 0
  57 0014 02B0     		add	sp, sp, #8
ARM GAS  C:\Users\jo\AppData\Local\Temp\cc2cuyoe.s 			page 2


  58              		.cfi_def_cfa_offset 16
  59              		@ sp needed
  60 0016 5DF804EB 		ldr	lr, [sp], #4
  61              		.cfi_restore 14
  62              		.cfi_def_cfa_offset 12
  63 001a 03B0     		add	sp, sp, #12
  64              		.cfi_restore 3
  65              		.cfi_restore 2
  66              		.cfi_restore 1
  67              		.cfi_def_cfa_offset 0
  68 001c 7047     		bx	lr
  69              	.L4:
  70 001e 00BF     		.align	2
  71              	.L3:
  72 0020 00000000 		.word	.LC0
  73 0024 00000000 		.word	itm_port
  74              		.cfi_endproc
  75              	.LFE264:
  76              		.size	chprintf.constprop.0, .-chprintf.constprop.0
  77 0028 AFF30080 		.section	.text.sys_timeout,"ax",%progbits
  77      AFF30080 
  78              		.align	2
  79              		.p2align 4,,15
  80              		.global	sys_timeout
  81              		.thumb
  82              		.thumb_func
  83              		.type	sys_timeout, %function
  84              	sys_timeout:
  85              	.LFB261:
  86              		.file 2 "../../../os/ext/lwip-1.4.1/src/core/timers.c"
  87              		.loc 2 268 0
  88              		.cfi_startproc
  89              		@ args = 0, pretend = 0, frame = 0
  90              		@ frame_needed = 0, uses_anonymous_args = 0
  91              	.LVL3:
  92 0000 F0B5     		push	{r4, r5, r6, r7, lr}
  93              		.cfi_def_cfa_offset 20
  94              		.cfi_offset 4, -20
  95              		.cfi_offset 5, -16
  96              		.cfi_offset 6, -12
  97              		.cfi_offset 7, -8
  98              		.cfi_offset 14, -4
  99 0002 0446     		mov	r4, r0
 100 0004 83B0     		sub	sp, sp, #12
 101              		.cfi_def_cfa_offset 32
 102              		.loc 2 271 0
 103 0006 0B20     		movs	r0, #11
 104              	.LVL4:
 105              		.loc 2 268 0
 106 0008 0D46     		mov	r5, r1
 107 000a 1746     		mov	r7, r2
 108              		.loc 2 271 0
 109 000c FFF7FEFF 		bl	memp_malloc
 110              	.LVL5:
 111              		.loc 2 272 0
 112 0010 30B3     		cbz	r0, .L20
 113              		.loc 2 286 0
ARM GAS  C:\Users\jo\AppData\Local\Temp\cc2cuyoe.s 			page 3


 114 0012 1B4E     		ldr	r6, .L24
 115              		.loc 2 277 0
 116 0014 8560     		str	r5, [r0, #8]
 117              		.loc 2 286 0
 118 0016 3568     		ldr	r5, [r6]
 119              	.LVL6:
 120              		.loc 2 278 0
 121 0018 C760     		str	r7, [r0, #12]
 122              		.loc 2 276 0
 123 001a 0023     		movs	r3, #0
 124 001c 80E81800 		stmia	r0, {r3, r4}
 125              		.loc 2 286 0
 126 0020 E5B1     		cbz	r5, .L21
 127              		.loc 2 291 0
 128 0022 6968     		ldr	r1, [r5, #4]
 129 0024 8C42     		cmp	r4, r1
 130 0026 0ED3     		bcc	.L22
 131              		.loc 2 291 0 is_stmt 0 discriminator 1
 132 0028 2346     		mov	r3, r4
 133 002a 03E0     		b	.L11
 134              	.LVL7:
 135              	.L17:
 136              		.loc 2 298 0 is_stmt 1 discriminator 1
 137 002c 5168     		ldr	r1, [r2, #4]
 138 002e 8B42     		cmp	r3, r1
 139 0030 0FD3     		bcc	.L10
 140 0032 1546     		mov	r5, r2
 141              	.LVL8:
 142              	.L11:
 143 0034 2A68     		ldr	r2, [r5]
 144              		.loc 2 297 0 discriminator 1
 145 0036 5B1A     		subs	r3, r3, r1
 146 0038 4360     		str	r3, [r0, #4]
 147              		.loc 2 298 0 discriminator 1
 148 003a 002A     		cmp	r2, #0
 149 003c F6D1     		bne	.L17
 150              		.loc 2 302 0
 151 003e 0260     		str	r2, [r0]
 152              		.loc 2 303 0
 153 0040 2860     		str	r0, [r5]
 154              	.L23:
 155              		.loc 2 308 0
 156 0042 03B0     		add	sp, sp, #12
 157              		.cfi_remember_state
 158              		.cfi_def_cfa_offset 20
 159              		@ sp needed
 160 0044 F0BD     		pop	{r4, r5, r6, r7, pc}
 161              	.LVL9:
 162              	.L22:
 163              		.cfi_restore_state
 164              		.loc 2 292 0
 165 0046 0B1B     		subs	r3, r1, r4
 166 0048 6B60     		str	r3, [r5, #4]
 167              		.loc 2 294 0
 168 004a 3060     		str	r0, [r6]
 169              		.loc 2 293 0
 170 004c 0560     		str	r5, [r0]
ARM GAS  C:\Users\jo\AppData\Local\Temp\cc2cuyoe.s 			page 4


 171              	.L5:
 172              		.loc 2 308 0
 173 004e 03B0     		add	sp, sp, #12
 174              		.cfi_remember_state
 175              		.cfi_def_cfa_offset 20
 176              		@ sp needed
 177 0050 F0BD     		pop	{r4, r5, r6, r7, pc}
 178              	.LVL10:
 179              	.L10:
 180              		.cfi_restore_state
 181              		.loc 2 300 0
 182 0052 CB1A     		subs	r3, r1, r3
 183 0054 5360     		str	r3, [r2, #4]
 184              		.loc 2 302 0
 185 0056 0260     		str	r2, [r0]
 186              		.loc 2 303 0
 187 0058 2860     		str	r0, [r5]
 188 005a F2E7     		b	.L23
 189              	.LVL11:
 190              	.L21:
 191              		.loc 2 287 0
 192 005c 3060     		str	r0, [r6]
 193              		.loc 2 288 0
 194 005e F6E7     		b	.L5
 195              	.LVL12:
 196              	.L20:
 197              		.loc 2 273 0 discriminator 1
 198 0060 084B     		ldr	r3, .L24+4
 199 0062 0093     		str	r3, [sp]
 200 0064 0849     		ldr	r1, .L24+8
 201 0066 094A     		ldr	r2, .L24+12
 202 0068 0948     		ldr	r0, .L24+16
 203              	.LVL13:
 204 006a 40F21113 		movw	r3, #273
 205 006e FFF7FEFF 		bl	chprintf.constprop.0
 206              	.LVL14:
 207              	.LBB4:
 208              	.LBB5:
 209              		.file 3 "../../../os/hal/osal/rt/osal.h"
 210              		.loc 3 414 0 discriminator 1
 211 0072 0648     		ldr	r0, .L24+12
 212              	.LBE5:
 213              	.LBE4:
 214              		.loc 2 308 0 discriminator 1
 215 0074 03B0     		add	sp, sp, #12
 216              		.cfi_def_cfa_offset 20
 217              		@ sp needed
 218 0076 BDE8F040 		pop	{r4, r5, r6, r7, lr}
 219              		.cfi_restore 14
 220              		.cfi_restore 7
 221              		.cfi_restore 6
 222              		.cfi_restore 5
 223              		.cfi_restore 4
 224              		.cfi_def_cfa_offset 0
 225              	.LVL15:
 226              	.LBB7:
 227              	.LBB6:
ARM GAS  C:\Users\jo\AppData\Local\Temp\cc2cuyoe.s 			page 5


 228              		.loc 3 414 0 discriminator 1
 229 007a FFF7FEBF 		b	chSysHalt
 230              	.LVL16:
 231              	.L25:
 232 007e 00BF     		.align	2
 233              	.L24:
 234 0080 00000000 		.word	.LANCHOR0
 235 0084 68000000 		.word	.LC2
 236 0088 00000000 		.word	.LC0
 237 008c 28000000 		.word	.LC1
 238 0090 00000000 		.word	itm_port
 239              	.LBE6:
 240              	.LBE7:
 241              		.cfi_endproc
 242              	.LFE261:
 243              		.size	sys_timeout, .-sys_timeout
 244 0094 AFF30080 		.section	.text.tcp_timer_needed,"ax",%progbits
 244      AFF30080 
 244      AFF30080 
 245              		.align	2
 246              		.p2align 4,,15
 247              		.global	tcp_timer_needed
 248              		.thumb
 249              		.thumb_func
 250              		.type	tcp_timer_needed, %function
 251              	tcp_timer_needed:
 252              	.LFB257:
 253              		.loc 2 102 0
 254              		.cfi_startproc
 255              		@ args = 0, pretend = 0, frame = 0
 256              		@ frame_needed = 0, uses_anonymous_args = 0
 257              		@ link register save eliminated.
 258              		.loc 2 104 0
 259 0000 084B     		ldr	r3, .L33
 260 0002 1A68     		ldr	r2, [r3]
 261 0004 6AB9     		cbnz	r2, .L26
 262              		.loc 2 104 0 is_stmt 0 discriminator 1
 263 0006 084A     		ldr	r2, .L33+4
 264 0008 1268     		ldr	r2, [r2]
 265 000a 32B1     		cbz	r2, .L32
 266              	.L28:
 267              		.loc 2 106 0 is_stmt 1
 268 000c 0122     		movs	r2, #1
 269 000e 1A60     		str	r2, [r3]
 270              		.loc 2 107 0
 271 0010 FA20     		movs	r0, #250
 272 0012 0649     		ldr	r1, .L33+8
 273 0014 0022     		movs	r2, #0
 274 0016 FFF7FEBF 		b	sys_timeout
 275              	.LVL17:
 276              	.L32:
 277              		.loc 2 104 0 discriminator 2
 278 001a 054A     		ldr	r2, .L33+12
 279 001c 1268     		ldr	r2, [r2]
 280 001e 002A     		cmp	r2, #0
 281 0020 F4D1     		bne	.L28
 282              	.L26:
ARM GAS  C:\Users\jo\AppData\Local\Temp\cc2cuyoe.s 			page 6


 283 0022 7047     		bx	lr
 284              	.L34:
 285              		.align	2
 286              	.L33:
 287 0024 00000000 		.word	.LANCHOR1
 288 0028 00000000 		.word	tcp_active_pcbs
 289 002c 00000000 		.word	tcpip_tcp_timer
 290 0030 00000000 		.word	tcp_tw_pcbs
 291              		.cfi_endproc
 292              	.LFE257:
 293              		.size	tcp_timer_needed, .-tcp_timer_needed
 294 0034 AFF30080 		.section	.text.tcpip_tcp_timer,"ax",%progbits
 294      AFF30080 
 294      AFF30080 
 295              		.align	2
 296              		.p2align 4,,15
 297              		.thumb
 298              		.thumb_func
 299              		.type	tcpip_tcp_timer, %function
 300              	tcpip_tcp_timer:
 301              	.LFB256:
 302              		.loc 2 80 0
 303              		.cfi_startproc
 304              		@ args = 0, pretend = 0, frame = 0
 305              		@ frame_needed = 0, uses_anonymous_args = 0
 306              	.LVL18:
 307 0000 08B5     		push	{r3, lr}
 308              		.cfi_def_cfa_offset 8
 309              		.cfi_offset 3, -8
 310              		.cfi_offset 14, -4
 311              		.loc 2 84 0
 312 0002 FFF7FEFF 		bl	tcp_tmr
 313              	.LVL19:
 314              		.loc 2 86 0
 315 0006 084B     		ldr	r3, .L40
 316 0008 1B68     		ldr	r3, [r3]
 317 000a 33B1     		cbz	r3, .L39
 318              	.L36:
 319              		.loc 2 88 0
 320 000c FA20     		movs	r0, #250
 321 000e 0749     		ldr	r1, .L40+4
 322 0010 0022     		movs	r2, #0
 323              		.loc 2 93 0
 324 0012 BDE80840 		pop	{r3, lr}
 325              		.cfi_remember_state
 326              		.cfi_restore 14
 327              		.cfi_restore 3
 328              		.cfi_def_cfa_offset 0
 329              		.loc 2 88 0
 330 0016 FFF7FEBF 		b	sys_timeout
 331              	.LVL20:
 332              	.L39:
 333              		.cfi_restore_state
 334              		.loc 2 86 0 discriminator 1
 335 001a 054B     		ldr	r3, .L40+8
 336 001c 1B68     		ldr	r3, [r3]
 337 001e 002B     		cmp	r3, #0
ARM GAS  C:\Users\jo\AppData\Local\Temp\cc2cuyoe.s 			page 7


 338 0020 F4D1     		bne	.L36
 339              		.loc 2 91 0
 340 0022 044A     		ldr	r2, .L40+12
 341 0024 1360     		str	r3, [r2]
 342 0026 08BD     		pop	{r3, pc}
 343              	.L41:
 344              		.align	2
 345              	.L40:
 346 0028 00000000 		.word	tcp_active_pcbs
 347 002c 00000000 		.word	tcpip_tcp_timer
 348 0030 00000000 		.word	tcp_tw_pcbs
 349 0034 00000000 		.word	.LANCHOR1
 350              		.cfi_endproc
 351              	.LFE256:
 352              		.size	tcpip_tcp_timer, .-tcpip_tcp_timer
 353 0038 AFF30080 		.section	.text.sys_timeouts_init,"ax",%progbits
 353      AFF30080 
 354              		.align	2
 355              		.p2align 4,,15
 356              		.global	sys_timeouts_init
 357              		.thumb
 358              		.thumb_func
 359              		.type	sys_timeouts_init, %function
 360              	sys_timeouts_init:
 361              	.LFB260:
 362              		.loc 2 224 0
 363              		.cfi_startproc
 364              		@ args = 0, pretend = 0, frame = 0
 365              		@ frame_needed = 0, uses_anonymous_args = 0
 366 0000 08B5     		push	{r3, lr}
 367              		.cfi_def_cfa_offset 8
 368              		.cfi_offset 3, -8
 369              		.cfi_offset 14, -4
 370              		.loc 2 226 0
 371 0002 4FF47A70 		mov	r0, #1000
 372 0006 0649     		ldr	r1, .L44
 373 0008 0022     		movs	r2, #0
 374 000a FFF7FEFF 		bl	sys_timeout
 375              	.LVL21:
 376              		.loc 2 229 0
 377 000e 41F28830 		movw	r0, #5000
 378 0012 0449     		ldr	r1, .L44+4
 379 0014 0022     		movs	r2, #0
 380              		.loc 2 249 0
 381 0016 BDE80840 		pop	{r3, lr}
 382              		.cfi_restore 14
 383              		.cfi_restore 3
 384              		.cfi_def_cfa_offset 0
 385              		.loc 2 229 0
 386 001a FFF7FEBF 		b	sys_timeout
 387              	.LVL22:
 388              	.L45:
 389 001e 00BF     		.align	2
 390              	.L44:
 391 0020 00000000 		.word	ip_reass_timer
 392 0024 00000000 		.word	arp_timer
 393              		.cfi_endproc
ARM GAS  C:\Users\jo\AppData\Local\Temp\cc2cuyoe.s 			page 8


 394              	.LFE260:
 395              		.size	sys_timeouts_init, .-sys_timeouts_init
 396 0028 AFF30080 		.section	.text.arp_timer,"ax",%progbits
 396      AFF30080 
 397              		.align	2
 398              		.p2align 4,,15
 399              		.thumb
 400              		.thumb_func
 401              		.type	arp_timer, %function
 402              	arp_timer:
 403              	.LFB259:
 404              		.loc 2 136 0
 405              		.cfi_startproc
 406              		@ args = 0, pretend = 0, frame = 0
 407              		@ frame_needed = 0, uses_anonymous_args = 0
 408              	.LVL23:
 409 0000 08B5     		push	{r3, lr}
 410              		.cfi_def_cfa_offset 8
 411              		.cfi_offset 3, -8
 412              		.cfi_offset 14, -4
 413              		.loc 2 139 0
 414 0002 FFF7FEFF 		bl	etharp_tmr
 415              	.LVL24:
 416              		.loc 2 140 0
 417 0006 41F28830 		movw	r0, #5000
 418 000a 0349     		ldr	r1, .L48
 419 000c 0022     		movs	r2, #0
 420              		.loc 2 141 0
 421 000e BDE80840 		pop	{r3, lr}
 422              		.cfi_restore 14
 423              		.cfi_restore 3
 424              		.cfi_def_cfa_offset 0
 425              		.loc 2 140 0
 426 0012 FFF7FEBF 		b	sys_timeout
 427              	.LVL25:
 428              	.L49:
 429 0016 00BF     		.align	2
 430              	.L48:
 431 0018 00000000 		.word	arp_timer
 432              		.cfi_endproc
 433              	.LFE259:
 434              		.size	arp_timer, .-arp_timer
 435 001c AFF30080 		.section	.text.ip_reass_timer,"ax",%progbits
 436              		.align	2
 437              		.p2align 4,,15
 438              		.thumb
 439              		.thumb_func
 440              		.type	ip_reass_timer, %function
 441              	ip_reass_timer:
 442              	.LFB258:
 443              		.loc 2 120 0
 444              		.cfi_startproc
 445              		@ args = 0, pretend = 0, frame = 0
 446              		@ frame_needed = 0, uses_anonymous_args = 0
 447              	.LVL26:
 448 0000 08B5     		push	{r3, lr}
 449              		.cfi_def_cfa_offset 8
ARM GAS  C:\Users\jo\AppData\Local\Temp\cc2cuyoe.s 			page 9


 450              		.cfi_offset 3, -8
 451              		.cfi_offset 14, -4
 452              		.loc 2 123 0
 453 0002 FFF7FEFF 		bl	ip_reass_tmr
 454              	.LVL27:
 455              		.loc 2 124 0
 456 0006 4FF47A70 		mov	r0, #1000
 457 000a 0349     		ldr	r1, .L52
 458 000c 0022     		movs	r2, #0
 459              		.loc 2 125 0
 460 000e BDE80840 		pop	{r3, lr}
 461              		.cfi_restore 14
 462              		.cfi_restore 3
 463              		.cfi_def_cfa_offset 0
 464              		.loc 2 124 0
 465 0012 FFF7FEBF 		b	sys_timeout
 466              	.LVL28:
 467              	.L53:
 468 0016 00BF     		.align	2
 469              	.L52:
 470 0018 00000000 		.word	ip_reass_timer
 471              		.cfi_endproc
 472              	.LFE258:
 473              		.size	ip_reass_timer, .-ip_reass_timer
 474 001c AFF30080 		.section	.text.sys_untimeout,"ax",%progbits
 475              		.align	2
 476              		.p2align 4,,15
 477              		.global	sys_untimeout
 478              		.thumb
 479              		.thumb_func
 480              		.type	sys_untimeout, %function
 481              	sys_untimeout:
 482              	.LFB262:
 483              		.loc 2 322 0
 484              		.cfi_startproc
 485              		@ args = 0, pretend = 0, frame = 0
 486              		@ frame_needed = 0, uses_anonymous_args = 0
 487              		@ link register save eliminated.
 488              	.LVL29:
 489 0000 30B4     		push	{r4, r5}
 490              		.cfi_def_cfa_offset 8
 491              		.cfi_offset 4, -8
 492              		.cfi_offset 5, -4
 493              		.loc 2 325 0
 494 0002 104D     		ldr	r5, .L70
 495 0004 2B68     		ldr	r3, [r5]
 496 0006 CBB1     		cbz	r3, .L54
 497 0008 0024     		movs	r4, #0
 498 000a 03E0     		b	.L60
 499              	.LVL30:
 500              	.L56:
 501              		.loc 2 329 0 discriminator 2
 502 000c 1A68     		ldr	r2, [r3]
 503              	.LVL31:
 504 000e 1C46     		mov	r4, r3
 505 0010 A2B1     		cbz	r2, .L54
 506 0012 1346     		mov	r3, r2
ARM GAS  C:\Users\jo\AppData\Local\Temp\cc2cuyoe.s 			page 10


 507              	.LVL32:
 508              	.L60:
 509              		.loc 2 330 0
 510 0014 9A68     		ldr	r2, [r3, #8]
 511 0016 8242     		cmp	r2, r0
 512 0018 F8D1     		bne	.L56
 513              		.loc 2 330 0 is_stmt 0 discriminator 1
 514 001a DA68     		ldr	r2, [r3, #12]
 515 001c 8A42     		cmp	r2, r1
 516 001e F5D1     		bne	.L56
 517              		.loc 2 334 0 is_stmt 1
 518 0020 1A68     		ldr	r2, [r3]
 519              		.loc 2 333 0
 520 0022 6CB1     		cbz	r4, .L69
 521              		.loc 2 336 0
 522 0024 2260     		str	r2, [r4]
 523 0026 1A68     		ldr	r2, [r3]
 524              	.L58:
 525              		.loc 2 339 0
 526 0028 1AB1     		cbz	r2, .L59
 527              		.loc 2 340 0
 528 002a 5068     		ldr	r0, [r2, #4]
 529              	.LVL33:
 530 002c 5968     		ldr	r1, [r3, #4]
 531              	.LVL34:
 532 002e 0144     		add	r1, r1, r0
 533 0030 5160     		str	r1, [r2, #4]
 534              	.L59:
 535              		.loc 2 342 0
 536 0032 1946     		mov	r1, r3
 537 0034 0B20     		movs	r0, #11
 538              		.loc 2 347 0
 539 0036 30BC     		pop	{r4, r5}
 540              		.cfi_remember_state
 541              		.cfi_restore 5
 542              		.cfi_restore 4
 543              		.cfi_def_cfa_offset 0
 544              		.loc 2 342 0
 545 0038 FFF7FEBF 		b	memp_free
 546              	.LVL35:
 547              	.L54:
 548              		.cfi_restore_state
 549              		.loc 2 347 0
 550 003c 30BC     		pop	{r4, r5}
 551              		.cfi_remember_state
 552              		.cfi_restore 5
 553              		.cfi_restore 4
 554              		.cfi_def_cfa_offset 0
 555 003e 7047     		bx	lr
 556              	.LVL36:
 557              	.L69:
 558              		.cfi_restore_state
 559              		.loc 2 334 0
 560 0040 2A60     		str	r2, [r5]
 561 0042 F1E7     		b	.L58
 562              	.L71:
 563              		.align	2
ARM GAS  C:\Users\jo\AppData\Local\Temp\cc2cuyoe.s 			page 11


 564              	.L70:
 565 0044 00000000 		.word	.LANCHOR0
 566              		.cfi_endproc
 567              	.LFE262:
 568              		.size	sys_untimeout, .-sys_untimeout
 569 0048 AFF30080 		.section	.text.sys_timeouts_mbox_fetch,"ax",%progbits
 569      AFF30080 
 570              		.align	2
 571              		.p2align 4,,15
 572              		.global	sys_timeouts_mbox_fetch
 573              		.thumb
 574              		.thumb_func
 575              		.type	sys_timeouts_mbox_fetch, %function
 576              	sys_timeouts_mbox_fetch:
 577              	.LFB263:
 578              		.loc 2 424 0
 579              		.cfi_startproc
 580              		@ args = 0, pretend = 0, frame = 0
 581              		@ frame_needed = 0, uses_anonymous_args = 0
 582              	.LVL37:
 583 0000 2DE9F843 		push	{r3, r4, r5, r6, r7, r8, r9, lr}
 584              		.cfi_def_cfa_offset 32
 585              		.cfi_offset 3, -32
 586              		.cfi_offset 4, -28
 587              		.cfi_offset 5, -24
 588              		.cfi_offset 6, -20
 589              		.cfi_offset 7, -16
 590              		.cfi_offset 8, -12
 591              		.cfi_offset 9, -8
 592              		.cfi_offset 14, -4
 593 0004 184C     		ldr	r4, .L88
 594              		.loc 2 424 0
 595 0006 0746     		mov	r7, r0
 596 0008 0E46     		mov	r6, r1
 597              		.loc 2 431 0
 598 000a A046     		mov	r8, r4
 599 000c 09E0     		b	.L77
 600              	.LVL38:
 601              	.L75:
 602              		.loc 2 446 0
 603 000e 9D68     		ldr	r5, [r3, #8]
 604              	.LVL39:
 605              		.loc 2 445 0
 606 0010 1A68     		ldr	r2, [r3]
 607 0012 2260     		str	r2, [r4]
 608              		.loc 2 454 0
 609 0014 0B20     		movs	r0, #11
 610 0016 1946     		mov	r1, r3
 611              		.loc 2 447 0
 612 0018 D3F80C90 		ldr	r9, [r3, #12]
 613              	.LVL40:
 614              		.loc 2 454 0
 615 001c FFF7FEFF 		bl	memp_free
 616              	.LVL41:
 617              		.loc 2 455 0
 618 0020 F5B9     		cbnz	r5, .L86
 619              	.LVL42:
ARM GAS  C:\Users\jo\AppData\Local\Temp\cc2cuyoe.s 			page 12


 620              	.L77:
 621              		.loc 2 431 0
 622 0022 2368     		ldr	r3, [r4]
 623 0024 104D     		ldr	r5, .L88
 624 0026 5BB1     		cbz	r3, .L87
 625              		.loc 2 434 0
 626 0028 5A68     		ldr	r2, [r3, #4]
 627 002a 002A     		cmp	r2, #0
 628 002c EFD0     		beq	.L75
 629              		.loc 2 435 0
 630 002e 3846     		mov	r0, r7
 631 0030 3146     		mov	r1, r6
 632 0032 FFF7FEFF 		bl	sys_arch_mbox_fetch
 633              	.LVL43:
 634              		.loc 2 440 0
 635 0036 431C     		adds	r3, r0, #1
 636 0038 09D1     		bne	.L76
 637 003a D8F80030 		ldr	r3, [r8]
 638 003e E6E7     		b	.L75
 639              	.LVL44:
 640              	.L87:
 641              		.loc 2 432 0
 642 0040 3846     		mov	r0, r7
 643 0042 3146     		mov	r1, r6
 644 0044 1A46     		mov	r2, r3
 645              		.loc 2 477 0
 646 0046 BDE8F843 		pop	{r3, r4, r5, r6, r7, r8, r9, lr}
 647              		.cfi_remember_state
 648              		.cfi_restore 14
 649              		.cfi_restore 9
 650              		.cfi_restore 8
 651              		.cfi_restore 7
 652              		.cfi_restore 6
 653              		.cfi_restore 5
 654              		.cfi_restore 4
 655              		.cfi_restore 3
 656              		.cfi_def_cfa_offset 0
 657              	.LVL45:
 658              		.loc 2 432 0
 659 004a FFF7FEBF 		b	sys_arch_mbox_fetch
 660              	.LVL46:
 661              	.L76:
 662              		.cfi_restore_state
 663              		.loc 2 470 0
 664 004e 2A68     		ldr	r2, [r5]
 665 0050 5368     		ldr	r3, [r2, #4]
 666 0052 8342     		cmp	r3, r0
 667              		.loc 2 471 0
 668 0054 8CBF     		ite	hi
 669 0056 1B1A     		subhi	r3, r3, r0
 670              		.loc 2 473 0
 671 0058 0023     		movls	r3, #0
 672 005a 5360     		str	r3, [r2, #4]
 673 005c BDE8F883 		pop	{r3, r4, r5, r6, r7, r8, r9, pc}
 674              	.LVL47:
 675              	.L86:
 676              	.L73:
ARM GAS  C:\Users\jo\AppData\Local\Temp\cc2cuyoe.s 			page 13


 677              		.loc 2 459 0
 678 0060 4846     		mov	r0, r9
 679 0062 A847     		blx	r5
 680              	.LVL48:
 681 0064 DDE7     		b	.L77
 682              	.L89:
 683 0066 00BF     		.align	2
 684              	.L88:
 685 0068 00000000 		.word	.LANCHOR0
 686              		.cfi_endproc
 687              	.LFE263:
 688              		.size	sys_timeouts_mbox_fetch, .-sys_timeouts_mbox_fetch
 689 006c AFF30080 		.section	.bss.tcpip_tcp_timer_active,"aw",%nobits
 690              		.align	2
 691              		.set	.LANCHOR1,. + 0
 692              		.type	tcpip_tcp_timer_active, %object
 693              		.size	tcpip_tcp_timer_active, 4
 694              	tcpip_tcp_timer_active:
 695 0000 00000000 		.space	4
 696              		.section	.bss.next_timeout,"aw",%nobits
 697              		.align	2
 698              		.set	.LANCHOR0,. + 0
 699              		.type	next_timeout, %object
 700              		.size	next_timeout, 4
 701              	next_timeout:
 702 0000 00000000 		.space	4
 703              		.section	.rodata.str1.4,"aMS",%progbits,1
 704              		.align	2
 705              	.LC0:
 706 0000 41737365 		.ascii	"Assertion \"%s\" failed at line %d in %s\012\000"
 706      7274696F 
 706      6E202225 
 706      73222066 
 706      61696C65 
 707              	.LC1:
 708 0028 7379735F 		.ascii	"sys_timeout: timeout != NULL, pool MEMP_SYS_TIMEOUT"
 708      74696D65 
 708      6F75743A 
 708      2074696D 
 708      656F7574 
 709 005b 20697320 		.ascii	" is empty\000"
 709      656D7074 
 709      7900
 710 0065 000000   		.space	3
 711              	.LC2:
 712 0068 2E2E2F2E 		.ascii	"../../../os/ext/lwip-1.4.1/src/core/timers.c\000"
 712      2E2F2E2E 
 712      2F6F732F 
 712      6578742F 
 712      6C776970 
 713 0095 000000   		.text
 714              	.Letext0:
 715              		.file 4 "c:\\program files\\gnu tools arm embedded\\4.9 2014q4\\lib\\gcc\\arm-none-eabi\\4.9.3\\in
 716              		.file 5 "c:\\program files\\gnu tools arm embedded\\4.9 2014q4\\arm-none-eabi\\include\\machine\\_
 717              		.file 6 "c:\\program files\\gnu tools arm embedded\\4.9 2014q4\\arm-none-eabi\\include\\stdint.h"
 718              		.file 7 "../../../os/rt/ports/ARMCMx/compilers/GCC/chtypes.h"
 719              		.file 8 "../../../os/rt/include/chsystypes.h"
ARM GAS  C:\Users\jo\AppData\Local\Temp\cc2cuyoe.s 			page 14


 720              		.file 9 "../../../os/rt/include/chschd.h"
 721              		.file 10 "../../../os/rt/ports/ARMCMx/chcore.h"
 722              		.file 11 "../../../os/rt/ports/ARMCMx/chcore_v7m.h"
 723              		.file 12 "c:\\program files\\gnu tools arm embedded\\4.9 2014q4\\lib\\gcc\\arm-none-eabi\\4.9.3\\i
 724              		.file 13 "<built-in>"
 725              		.file 14 "../../../os/rt/include/chtm.h"
 726              		.file 15 "../../../os/rt/include/chmtx.h"
 727              		.file 16 "../../../os/rt/include/chsem.h"
 728              		.file 17 "../../../os/rt/include/chmboxes.h"
 729              		.file 18 "../../../os/rt/include/chstreams.h"
 730              		.file 19 "./ITM_trace.h"
 731              		.file 20 "../../../os/various/lwip_bindings/arch/cc.h"
 732              		.file 21 "../../../os/ext/lwip-1.4.1/src/include/lwip/err.h"
 733              		.file 22 "../../../os/various/lwip_bindings/arch/sys_arch.h"
 734              		.file 23 "../../../os/ext/lwip-1.4.1/src/include/lwip/timers.h"
 735              		.file 24 "../../../os/ext/lwip-1.4.1/src/include/lwip/pbuf.h"
 736              		.file 25 "../../../os/ext/lwip-1.4.1/src/include/ipv4/lwip/ip_addr.h"
 737              		.file 26 "../../../os/ext/lwip-1.4.1/src/include/lwip/tcp.h"
 738              		.file 27 "../../../os/ext/lwip-1.4.1/src/include/lwip/tcp_impl.h"
 739              		.file 28 "../../../os/ext/lwip-1.4.1/src/include/lwip/memp.h"
 740              		.file 29 "../../../os/ext/CMSIS/include/core_cm4.h"
 741              		.file 30 "../../../os/ext/lwip-1.4.1/src/include/netif/etharp.h"
 742              		.file 31 "../../../os/ext/lwip-1.4.1/src/include/ipv4/lwip/ip_frag.h"
 743              		.file 32 "../../../os/rt/include/chsys.h"
 744              		.file 33 "../../../os/ext/lwip-1.4.1/src/include/lwip/sys.h"