ARM GAS  C:\Users\jo\AppData\Local\Temp\ccTM2V0a.s 			page 1


   1              		.syntax unified
   2              		.cpu cortex-m4
   3              		.eabi_attribute 27, 3
   4              		.eabi_attribute 28, 1
   5              		.fpu fpv4-sp-d16
   6              		.eabi_attribute 20, 1
   7              		.eabi_attribute 21, 1
   8              		.eabi_attribute 23, 3
   9              		.eabi_attribute 24, 1
  10              		.eabi_attribute 25, 1
  11              		.eabi_attribute 26, 1
  12              		.eabi_attribute 30, 2
  13              		.eabi_attribute 34, 1
  14              		.eabi_attribute 18, 4
  15              		.thumb
  16              		.file	"uart.c"
  17              		.text
  18              	.Ltext0:
  19              		.cfi_sections	.debug_frame
  20              		.section	.text.uartInit,"ax",%progbits
  21              		.align	2
  22              		.p2align 4,,15
  23              		.global	uartInit
  24              		.thumb
  25              		.thumb_func
  26              		.type	uartInit, %function
  27              	uartInit:
  28              	.LFB255:
  29              		.file 1 "../../../os/hal/src/uart.c"
  30              		.loc 1 59 0
  31              		.cfi_startproc
  32              		@ args = 0, pretend = 0, frame = 0
  33              		@ frame_needed = 0, uses_anonymous_args = 0
  34              		@ link register save eliminated.
  35              		.loc 1 61 0
  36 0000 FFF7FEBF 		b	uart_lld_init
  37              	.LVL0:
  38              		.cfi_endproc
  39              	.LFE255:
  40              		.size	uartInit, .-uartInit
  41 0004 AFF30080 		.section	.text.uartObjectInit,"ax",%progbits
  41      AFF30080 
  41      AFF30080 
  42              		.align	2
  43              		.p2align 4,,15
  44              		.global	uartObjectInit
  45              		.thumb
  46              		.thumb_func
  47              		.type	uartObjectInit, %function
  48              	uartObjectInit:
  49              	.LFB256:
  50              		.loc 1 71 0
  51              		.cfi_startproc
  52              		@ args = 0, pretend = 0, frame = 0
  53              		@ frame_needed = 0, uses_anonymous_args = 0
  54              		@ link register save eliminated.
  55              	.LVL1:
ARM GAS  C:\Users\jo\AppData\Local\Temp\ccTM2V0a.s 			page 2


  56              		.loc 1 74 0
  57 0000 0023     		movs	r3, #0
  58              		.loc 1 73 0
  59 0002 0122     		movs	r2, #1
  60 0004 0270     		strb	r2, [r0]
  61              		.loc 1 74 0
  62 0006 4370     		strb	r3, [r0, #1]
  63              		.loc 1 75 0
  64 0008 8370     		strb	r3, [r0, #2]
  65              		.loc 1 76 0
  66 000a 4360     		str	r3, [r0, #4]
  67 000c 7047     		bx	lr
  68              		.cfi_endproc
  69              	.LFE256:
  70              		.size	uartObjectInit, .-uartObjectInit
  71 000e 00BF     		.section	.text.uartStart,"ax",%progbits
  72              		.align	2
  73              		.p2align 4,,15
  74              		.global	uartStart
  75              		.thumb
  76              		.thumb_func
  77              		.type	uartStart, %function
  78              	uartStart:
  79              	.LFB257:
  80              		.loc 1 91 0
  81              		.cfi_startproc
  82              		@ args = 0, pretend = 0, frame = 0
  83              		@ frame_needed = 0, uses_anonymous_args = 0
  84              	.LVL2:
  85 0000 10B5     		push	{r4, lr}
  86              		.cfi_def_cfa_offset 8
  87              		.cfi_offset 4, -8
  88              		.cfi_offset 14, -4
  89              	.LBB102:
  90              	.LBB103:
  91              	.LBB104:
  92              	.LBB105:
  93              	.LBB106:
  94              		.file 2 "../../../os/ext/CMSIS/include/core_cmFunc.h"
  95              		.loc 2 546 0
  96 0002 2023     		movs	r3, #32
  97              	.LBE106:
  98              	.LBE105:
  99              	.LBE104:
 100              	.LBE103:
 101              	.LBE102:
 102              		.loc 1 91 0
 103 0004 0446     		mov	r4, r0
 104              	.LBB111:
 105              	.LBB110:
 106              	.LBB109:
 107              	.LBB108:
 108              	.LBB107:
 109              		.loc 2 546 0
 110              	@ 546 "../../../os/ext/CMSIS/include/core_cmFunc.h" 1
 111 0006 83F31188 		MSR basepri, r3
 112              	@ 0 "" 2
ARM GAS  C:\Users\jo\AppData\Local\Temp\ccTM2V0a.s 			page 3


 113              		.thumb
 114              	.LBE107:
 115              	.LBE108:
 116              	.LBE109:
 117              	.LBE110:
 118              	.LBE111:
 119              		.loc 1 99 0
 120 000a 4160     		str	r1, [r0, #4]
 121              		.loc 1 100 0
 122 000c FFF7FEFF 		bl	uart_lld_start
 123              	.LVL3:
 124              		.loc 1 101 0
 125 0010 0223     		movs	r3, #2
 126 0012 2370     		strb	r3, [r4]
 127              	.LVL4:
 128              	.LBB112:
 129              	.LBB113:
 130              	.LBB114:
 131              	.LBB115:
 132              	.LBB116:
 133              	.LBB117:
 134              		.loc 2 546 0
 135 0014 0023     		movs	r3, #0
 136              	@ 546 "../../../os/ext/CMSIS/include/core_cmFunc.h" 1
 137 0016 83F31188 		MSR basepri, r3
 138              	@ 0 "" 2
 139              		.thumb
 140 001a 10BD     		pop	{r4, pc}
 141              	.LBE117:
 142              	.LBE116:
 143              	.LBE115:
 144              	.LBE114:
 145              	.LBE113:
 146              	.LBE112:
 147              		.cfi_endproc
 148              	.LFE257:
 149              		.size	uartStart, .-uartStart
 150 001c AFF30080 		.section	.text.uartStop,"ax",%progbits
 151              		.align	2
 152              		.p2align 4,,15
 153              		.global	uartStop
 154              		.thumb
 155              		.thumb_func
 156              		.type	uartStop, %function
 157              	uartStop:
 158              	.LFB258:
 159              		.loc 1 112 0
 160              		.cfi_startproc
 161              		@ args = 0, pretend = 0, frame = 0
 162              		@ frame_needed = 0, uses_anonymous_args = 0
 163              	.LVL5:
 164 0000 10B5     		push	{r4, lr}
 165              		.cfi_def_cfa_offset 8
 166              		.cfi_offset 4, -8
 167              		.cfi_offset 14, -4
 168              	.LBB118:
 169              	.LBB119:
ARM GAS  C:\Users\jo\AppData\Local\Temp\ccTM2V0a.s 			page 4


 170              	.LBB120:
 171              	.LBB121:
 172              	.LBB122:
 173              		.loc 2 546 0
 174 0002 2023     		movs	r3, #32
 175              	.LBE122:
 176              	.LBE121:
 177              	.LBE120:
 178              	.LBE119:
 179              	.LBE118:
 180              		.loc 1 112 0
 181 0004 0446     		mov	r4, r0
 182              	.LBB127:
 183              	.LBB126:
 184              	.LBB125:
 185              	.LBB124:
 186              	.LBB123:
 187              		.loc 2 546 0
 188              	@ 546 "../../../os/ext/CMSIS/include/core_cmFunc.h" 1
 189 0006 83F31188 		MSR basepri, r3
 190              	@ 0 "" 2
 191              		.thumb
 192              	.LBE123:
 193              	.LBE124:
 194              	.LBE125:
 195              	.LBE126:
 196              	.LBE127:
 197              		.loc 1 120 0
 198 000a FFF7FEFF 		bl	uart_lld_stop
 199              	.LVL6:
 200              		.loc 1 122 0
 201 000e 0023     		movs	r3, #0
 202              		.loc 1 121 0
 203 0010 0122     		movs	r2, #1
 204 0012 2270     		strb	r2, [r4]
 205              		.loc 1 122 0
 206 0014 6370     		strb	r3, [r4, #1]
 207              		.loc 1 123 0
 208 0016 A370     		strb	r3, [r4, #2]
 209              	.LVL7:
 210              	.LBB128:
 211              	.LBB129:
 212              	.LBB130:
 213              	.LBB131:
 214              	.LBB132:
 215              	.LBB133:
 216              		.loc 2 546 0
 217              	@ 546 "../../../os/ext/CMSIS/include/core_cmFunc.h" 1
 218 0018 83F31188 		MSR basepri, r3
 219              	@ 0 "" 2
 220              		.thumb
 221 001c 10BD     		pop	{r4, pc}
 222              	.LBE133:
 223              	.LBE132:
 224              	.LBE131:
 225              	.LBE130:
 226              	.LBE129:
ARM GAS  C:\Users\jo\AppData\Local\Temp\ccTM2V0a.s 			page 5


 227              	.LBE128:
 228              		.cfi_endproc
 229              	.LFE258:
 230              		.size	uartStop, .-uartStop
 231 001e 00BF     		.section	.text.uartStartSend,"ax",%progbits
 232              		.align	2
 233              		.p2align 4,,15
 234              		.global	uartStartSend
 235              		.thumb
 236              		.thumb_func
 237              		.type	uartStartSend, %function
 238              	uartStartSend:
 239              	.LFB259:
 240              		.loc 1 138 0
 241              		.cfi_startproc
 242              		@ args = 0, pretend = 0, frame = 0
 243              		@ frame_needed = 0, uses_anonymous_args = 0
 244              	.LVL8:
 245 0000 10B5     		push	{r4, lr}
 246              		.cfi_def_cfa_offset 8
 247              		.cfi_offset 4, -8
 248              		.cfi_offset 14, -4
 249              	.LBB134:
 250              	.LBB135:
 251              	.LBB136:
 252              	.LBB137:
 253              	.LBB138:
 254              		.loc 2 546 0
 255 0002 2023     		movs	r3, #32
 256              	.LBE138:
 257              	.LBE137:
 258              	.LBE136:
 259              	.LBE135:
 260              	.LBE134:
 261              		.loc 1 138 0
 262 0004 0446     		mov	r4, r0
 263              	.LBB143:
 264              	.LBB142:
 265              	.LBB141:
 266              	.LBB140:
 267              	.LBB139:
 268              		.loc 2 546 0
 269              	@ 546 "../../../os/ext/CMSIS/include/core_cmFunc.h" 1
 270 0006 83F31188 		MSR basepri, r3
 271              	@ 0 "" 2
 272              		.thumb
 273              	.LBE139:
 274              	.LBE140:
 275              	.LBE141:
 276              	.LBE142:
 277              	.LBE143:
 278              		.loc 1 146 0
 279 000a FFF7FEFF 		bl	uart_lld_start_send
 280              	.LVL9:
 281              		.loc 1 147 0
 282 000e 0123     		movs	r3, #1
 283 0010 6370     		strb	r3, [r4, #1]
ARM GAS  C:\Users\jo\AppData\Local\Temp\ccTM2V0a.s 			page 6


 284              	.LVL10:
 285              	.LBB144:
 286              	.LBB145:
 287              	.LBB146:
 288              	.LBB147:
 289              	.LBB148:
 290              	.LBB149:
 291              		.loc 2 546 0
 292 0012 0023     		movs	r3, #0
 293              	@ 546 "../../../os/ext/CMSIS/include/core_cmFunc.h" 1
 294 0014 83F31188 		MSR basepri, r3
 295              	@ 0 "" 2
 296              		.thumb
 297 0018 10BD     		pop	{r4, pc}
 298              	.LBE149:
 299              	.LBE148:
 300              	.LBE147:
 301              	.LBE146:
 302              	.LBE145:
 303              	.LBE144:
 304              		.cfi_endproc
 305              	.LFE259:
 306              		.size	uartStartSend, .-uartStartSend
 307 001a 00BFAFF3 		.section	.text.uartStartSendI,"ax",%progbits
 307      0080
 308              		.align	2
 309              		.p2align 4,,15
 310              		.global	uartStartSendI
 311              		.thumb
 312              		.thumb_func
 313              		.type	uartStartSendI, %function
 314              	uartStartSendI:
 315              	.LFB260:
 316              		.loc 1 163 0
 317              		.cfi_startproc
 318              		@ args = 0, pretend = 0, frame = 0
 319              		@ frame_needed = 0, uses_anonymous_args = 0
 320              	.LVL11:
 321 0000 10B5     		push	{r4, lr}
 322              		.cfi_def_cfa_offset 8
 323              		.cfi_offset 4, -8
 324              		.cfi_offset 14, -4
 325              		.loc 1 163 0
 326 0002 0446     		mov	r4, r0
 327              		.loc 1 170 0
 328 0004 FFF7FEFF 		bl	uart_lld_start_send
 329              	.LVL12:
 330              		.loc 1 171 0
 331 0008 0123     		movs	r3, #1
 332 000a 6370     		strb	r3, [r4, #1]
 333 000c 10BD     		pop	{r4, pc}
 334              		.cfi_endproc
 335              	.LFE260:
 336              		.size	uartStartSendI, .-uartStartSendI
 337 000e 00BF     		.section	.text.uartStopSend,"ax",%progbits
 338              		.align	2
 339              		.p2align 4,,15
ARM GAS  C:\Users\jo\AppData\Local\Temp\ccTM2V0a.s 			page 7


 340              		.global	uartStopSend
 341              		.thumb
 342              		.thumb_func
 343              		.type	uartStopSend, %function
 344              	uartStopSend:
 345              	.LFB261:
 346              		.loc 1 186 0
 347              		.cfi_startproc
 348              		@ args = 0, pretend = 0, frame = 0
 349              		@ frame_needed = 0, uses_anonymous_args = 0
 350              	.LVL13:
 351              	.LBB150:
 352              	.LBB151:
 353              	.LBB152:
 354              	.LBB153:
 355              	.LBB154:
 356              		.loc 2 546 0
 357 0000 2022     		movs	r2, #32
 358              	@ 546 "../../../os/ext/CMSIS/include/core_cmFunc.h" 1
 359 0002 82F31188 		MSR basepri, r2
 360              	@ 0 "" 2
 361              		.thumb
 362              	.LBE154:
 363              	.LBE153:
 364              	.LBE152:
 365              	.LBE151:
 366              	.LBE150:
 367              		.loc 1 194 0
 368 0006 4278     		ldrb	r2, [r0, #1]	@ zero_extendqisi2
 369 0008 012A     		cmp	r2, #1
 370 000a 04D0     		beq	.L17
 371              		.loc 1 199 0
 372 000c 0020     		movs	r0, #0
 373              	.LVL14:
 374              	.LBB155:
 375              	.LBB156:
 376              	.LBB157:
 377              	.LBB158:
 378              	.LBB159:
 379              	.LBB160:
 380              		.loc 2 546 0
 381 000e 0023     		movs	r3, #0
 382              	@ 546 "../../../os/ext/CMSIS/include/core_cmFunc.h" 1
 383 0010 83F31188 		MSR basepri, r3
 384              	@ 0 "" 2
 385              		.thumb
 386              	.LBE160:
 387              	.LBE159:
 388              	.LBE158:
 389              	.LBE157:
 390              	.LBE156:
 391              	.LBE155:
 392              		.loc 1 202 0
 393 0014 7047     		bx	lr
 394              	.LVL15:
 395              	.L17:
 396              		.loc 1 186 0
ARM GAS  C:\Users\jo\AppData\Local\Temp\ccTM2V0a.s 			page 8


 397 0016 10B5     		push	{r4, lr}
 398              		.cfi_def_cfa_offset 8
 399              		.cfi_offset 4, -8
 400              		.cfi_offset 14, -4
 401 0018 0446     		mov	r4, r0
 402              		.loc 1 195 0
 403 001a FFF7FEFF 		bl	uart_lld_stop_send
 404              	.LVL16:
 405              		.loc 1 196 0
 406 001e 0023     		movs	r3, #0
 407 0020 6370     		strb	r3, [r4, #1]
 408              	.LVL17:
 409              	.LBB166:
 410              	.LBB165:
 411              	.LBB164:
 412              	.LBB163:
 413              	.LBB162:
 414              	.LBB161:
 415              		.loc 2 546 0
 416 0022 0023     		movs	r3, #0
 417              	@ 546 "../../../os/ext/CMSIS/include/core_cmFunc.h" 1
 418 0024 83F31188 		MSR basepri, r3
 419              	@ 0 "" 2
 420              		.thumb
 421              	.LBE161:
 422              	.LBE162:
 423              	.LBE163:
 424              	.LBE164:
 425              	.LBE165:
 426              	.LBE166:
 427              		.loc 1 202 0
 428 0028 10BD     		pop	{r4, pc}
 429              		.cfi_endproc
 430              	.LFE261:
 431              		.size	uartStopSend, .-uartStopSend
 432 002a 00BFAFF3 		.section	.text.uartStopSendI,"ax",%progbits
 432      0080
 433              		.align	2
 434              		.p2align 4,,15
 435              		.global	uartStopSendI
 436              		.thumb
 437              		.thumb_func
 438              		.type	uartStopSendI, %function
 439              	uartStopSendI:
 440              	.LFB262:
 441              		.loc 1 217 0
 442              		.cfi_startproc
 443              		@ args = 0, pretend = 0, frame = 0
 444              		@ frame_needed = 0, uses_anonymous_args = 0
 445              	.LVL18:
 446              		.loc 1 223 0
 447 0000 4278     		ldrb	r2, [r0, #1]	@ zero_extendqisi2
 448 0002 012A     		cmp	r2, #1
 449 0004 01D0     		beq	.L23
 450              		.loc 1 228 0
 451 0006 0020     		movs	r0, #0
 452              	.LVL19:
ARM GAS  C:\Users\jo\AppData\Local\Temp\ccTM2V0a.s 			page 9


 453 0008 7047     		bx	lr
 454              	.LVL20:
 455              	.L23:
 456              		.loc 1 217 0
 457 000a 10B5     		push	{r4, lr}
 458              		.cfi_def_cfa_offset 8
 459              		.cfi_offset 4, -8
 460              		.cfi_offset 14, -4
 461 000c 0446     		mov	r4, r0
 462              	.LBB167:
 463              		.loc 1 224 0
 464 000e FFF7FEFF 		bl	uart_lld_stop_send
 465              	.LVL21:
 466              		.loc 1 225 0
 467 0012 0023     		movs	r3, #0
 468 0014 6370     		strb	r3, [r4, #1]
 469              		.loc 1 226 0
 470 0016 10BD     		pop	{r4, pc}
 471              	.LBE167:
 472              		.cfi_endproc
 473              	.LFE262:
 474              		.size	uartStopSendI, .-uartStopSendI
 475 0018 AFF30080 		.section	.text.uartStartReceive,"ax",%progbits
 475      AFF30080 
 476              		.align	2
 477              		.p2align 4,,15
 478              		.global	uartStartReceive
 479              		.thumb
 480              		.thumb_func
 481              		.type	uartStartReceive, %function
 482              	uartStartReceive:
 483              	.LFB263:
 484              		.loc 1 242 0
 485              		.cfi_startproc
 486              		@ args = 0, pretend = 0, frame = 0
 487              		@ frame_needed = 0, uses_anonymous_args = 0
 488              	.LVL22:
 489 0000 10B5     		push	{r4, lr}
 490              		.cfi_def_cfa_offset 8
 491              		.cfi_offset 4, -8
 492              		.cfi_offset 14, -4
 493              	.LBB168:
 494              	.LBB169:
 495              	.LBB170:
 496              	.LBB171:
 497              	.LBB172:
 498              		.loc 2 546 0
 499 0002 2023     		movs	r3, #32
 500              	.LBE172:
 501              	.LBE171:
 502              	.LBE170:
 503              	.LBE169:
 504              	.LBE168:
 505              		.loc 1 242 0
 506 0004 0446     		mov	r4, r0
 507              	.LBB177:
 508              	.LBB176:
ARM GAS  C:\Users\jo\AppData\Local\Temp\ccTM2V0a.s 			page 10


 509              	.LBB175:
 510              	.LBB174:
 511              	.LBB173:
 512              		.loc 2 546 0
 513              	@ 546 "../../../os/ext/CMSIS/include/core_cmFunc.h" 1
 514 0006 83F31188 		MSR basepri, r3
 515              	@ 0 "" 2
 516              		.thumb
 517              	.LBE173:
 518              	.LBE174:
 519              	.LBE175:
 520              	.LBE176:
 521              	.LBE177:
 522              		.loc 1 250 0
 523 000a FFF7FEFF 		bl	uart_lld_start_receive
 524              	.LVL23:
 525              		.loc 1 251 0
 526 000e 0123     		movs	r3, #1
 527 0010 A370     		strb	r3, [r4, #2]
 528              	.LVL24:
 529              	.LBB178:
 530              	.LBB179:
 531              	.LBB180:
 532              	.LBB181:
 533              	.LBB182:
 534              	.LBB183:
 535              		.loc 2 546 0
 536 0012 0023     		movs	r3, #0
 537              	@ 546 "../../../os/ext/CMSIS/include/core_cmFunc.h" 1
 538 0014 83F31188 		MSR basepri, r3
 539              	@ 0 "" 2
 540              		.thumb
 541 0018 10BD     		pop	{r4, pc}
 542              	.LBE183:
 543              	.LBE182:
 544              	.LBE181:
 545              	.LBE180:
 546              	.LBE179:
 547              	.LBE178:
 548              		.cfi_endproc
 549              	.LFE263:
 550              		.size	uartStartReceive, .-uartStartReceive
 551 001a 00BFAFF3 		.section	.text.uartStartReceiveI,"ax",%progbits
 551      0080
 552              		.align	2
 553              		.p2align 4,,15
 554              		.global	uartStartReceiveI
 555              		.thumb
 556              		.thumb_func
 557              		.type	uartStartReceiveI, %function
 558              	uartStartReceiveI:
 559              	.LFB264:
 560              		.loc 1 267 0
 561              		.cfi_startproc
 562              		@ args = 0, pretend = 0, frame = 0
 563              		@ frame_needed = 0, uses_anonymous_args = 0
 564              	.LVL25:
ARM GAS  C:\Users\jo\AppData\Local\Temp\ccTM2V0a.s 			page 11


 565 0000 10B5     		push	{r4, lr}
 566              		.cfi_def_cfa_offset 8
 567              		.cfi_offset 4, -8
 568              		.cfi_offset 14, -4
 569              		.loc 1 267 0
 570 0002 0446     		mov	r4, r0
 571              		.loc 1 274 0
 572 0004 FFF7FEFF 		bl	uart_lld_start_receive
 573              	.LVL26:
 574              		.loc 1 275 0
 575 0008 0123     		movs	r3, #1
 576 000a A370     		strb	r3, [r4, #2]
 577 000c 10BD     		pop	{r4, pc}
 578              		.cfi_endproc
 579              	.LFE264:
 580              		.size	uartStartReceiveI, .-uartStartReceiveI
 581 000e 00BF     		.section	.text.uartStopReceive,"ax",%progbits
 582              		.align	2
 583              		.p2align 4,,15
 584              		.global	uartStopReceive
 585              		.thumb
 586              		.thumb_func
 587              		.type	uartStopReceive, %function
 588              	uartStopReceive:
 589              	.LFB265:
 590              		.loc 1 290 0
 591              		.cfi_startproc
 592              		@ args = 0, pretend = 0, frame = 0
 593              		@ frame_needed = 0, uses_anonymous_args = 0
 594              	.LVL27:
 595              	.LBB184:
 596              	.LBB185:
 597              	.LBB186:
 598              	.LBB187:
 599              	.LBB188:
 600              		.loc 2 546 0
 601 0000 2022     		movs	r2, #32
 602              	@ 546 "../../../os/ext/CMSIS/include/core_cmFunc.h" 1
 603 0002 82F31188 		MSR basepri, r2
 604              	@ 0 "" 2
 605              		.thumb
 606              	.LBE188:
 607              	.LBE187:
 608              	.LBE186:
 609              	.LBE185:
 610              	.LBE184:
 611              		.loc 1 298 0
 612 0006 8278     		ldrb	r2, [r0, #2]	@ zero_extendqisi2
 613 0008 012A     		cmp	r2, #1
 614 000a 04D0     		beq	.L33
 615              		.loc 1 303 0
 616 000c 0020     		movs	r0, #0
 617              	.LVL28:
 618              	.LBB189:
 619              	.LBB190:
 620              	.LBB191:
 621              	.LBB192:
ARM GAS  C:\Users\jo\AppData\Local\Temp\ccTM2V0a.s 			page 12


 622              	.LBB193:
 623              	.LBB194:
 624              		.loc 2 546 0
 625 000e 0023     		movs	r3, #0
 626              	@ 546 "../../../os/ext/CMSIS/include/core_cmFunc.h" 1
 627 0010 83F31188 		MSR basepri, r3
 628              	@ 0 "" 2
 629              		.thumb
 630              	.LBE194:
 631              	.LBE193:
 632              	.LBE192:
 633              	.LBE191:
 634              	.LBE190:
 635              	.LBE189:
 636              		.loc 1 306 0
 637 0014 7047     		bx	lr
 638              	.LVL29:
 639              	.L33:
 640              		.loc 1 290 0
 641 0016 10B5     		push	{r4, lr}
 642              		.cfi_def_cfa_offset 8
 643              		.cfi_offset 4, -8
 644              		.cfi_offset 14, -4
 645 0018 0446     		mov	r4, r0
 646              		.loc 1 299 0
 647 001a FFF7FEFF 		bl	uart_lld_stop_receive
 648              	.LVL30:
 649              		.loc 1 300 0
 650 001e 0023     		movs	r3, #0
 651 0020 A370     		strb	r3, [r4, #2]
 652              	.LVL31:
 653              	.LBB200:
 654              	.LBB199:
 655              	.LBB198:
 656              	.LBB197:
 657              	.LBB196:
 658              	.LBB195:
 659              		.loc 2 546 0
 660 0022 0023     		movs	r3, #0
 661              	@ 546 "../../../os/ext/CMSIS/include/core_cmFunc.h" 1
 662 0024 83F31188 		MSR basepri, r3
 663              	@ 0 "" 2
 664              		.thumb
 665              	.LBE195:
 666              	.LBE196:
 667              	.LBE197:
 668              	.LBE198:
 669              	.LBE199:
 670              	.LBE200:
 671              		.loc 1 306 0
 672 0028 10BD     		pop	{r4, pc}
 673              		.cfi_endproc
 674              	.LFE265:
 675              		.size	uartStopReceive, .-uartStopReceive
 676 002a 00BFAFF3 		.section	.text.uartStopReceiveI,"ax",%progbits
 676      0080
 677              		.align	2
ARM GAS  C:\Users\jo\AppData\Local\Temp\ccTM2V0a.s 			page 13


 678              		.p2align 4,,15
 679              		.global	uartStopReceiveI
 680              		.thumb
 681              		.thumb_func
 682              		.type	uartStopReceiveI, %function
 683              	uartStopReceiveI:
 684              	.LFB266:
 685              		.loc 1 321 0
 686              		.cfi_startproc
 687              		@ args = 0, pretend = 0, frame = 0
 688              		@ frame_needed = 0, uses_anonymous_args = 0
 689              	.LVL32:
 690              		.loc 1 327 0
 691 0000 8278     		ldrb	r2, [r0, #2]	@ zero_extendqisi2
 692 0002 012A     		cmp	r2, #1
 693 0004 01D0     		beq	.L39
 694              		.loc 1 332 0
 695 0006 0020     		movs	r0, #0
 696              	.LVL33:
 697 0008 7047     		bx	lr
 698              	.LVL34:
 699              	.L39:
 700              		.loc 1 321 0
 701 000a 10B5     		push	{r4, lr}
 702              		.cfi_def_cfa_offset 8
 703              		.cfi_offset 4, -8
 704              		.cfi_offset 14, -4
 705 000c 0446     		mov	r4, r0
 706              	.LBB201:
 707              		.loc 1 328 0
 708 000e FFF7FEFF 		bl	uart_lld_stop_receive
 709              	.LVL35:
 710              		.loc 1 329 0
 711 0012 0023     		movs	r3, #0
 712 0014 A370     		strb	r3, [r4, #2]
 713              		.loc 1 330 0
 714 0016 10BD     		pop	{r4, pc}
 715              	.LBE201:
 716              		.cfi_endproc
 717              	.LFE266:
 718              		.size	uartStopReceiveI, .-uartStopReceiveI
 719 0018 AFF30080 		.text
 719      AFF30080 
 720              	.Letext0:
 721              		.file 3 "c:\\program files\\gnu tools arm embedded\\4.9 2014q4\\lib\\gcc\\arm-none-eabi\\4.9.3\\in
 722              		.file 4 "c:\\program files\\gnu tools arm embedded\\4.9 2014q4\\arm-none-eabi\\include\\machine\\_
 723              		.file 5 "c:\\program files\\gnu tools arm embedded\\4.9 2014q4\\arm-none-eabi\\include\\stdint.h"
 724              		.file 6 "../../../os/rt/ports/ARMCMx/compilers/GCC/chtypes.h"
 725              		.file 7 "../../../os/rt/include/chsystypes.h"
 726              		.file 8 "../../../os/rt/include/chschd.h"
 727              		.file 9 "../../../os/ext/CMSIS/ST/stm32f407xx.h"
 728              		.file 10 "../../../os/rt/ports/ARMCMx/chcore.h"
 729              		.file 11 "../../../os/rt/ports/ARMCMx/chcore_v7m.h"
 730              		.file 12 "../../../os/rt/include/chtm.h"
 731              		.file 13 "../../../os/rt/include/chmtx.h"
 732              		.file 14 "../../../os/hal/include/uart.h"
 733              		.file 15 "../../../os/hal/ports/STM32/LLD/USARTv1/uart_lld.h"
ARM GAS  C:\Users\jo\AppData\Local\Temp\ccTM2V0a.s 			page 14


 734              		.file 16 "../../../os/rt/include/chsys.h"
 735              		.file 17 "../../../os/hal/osal/rt/osal.h"
 736              		.file 18 "../../../os/ext/CMSIS/include/core_cm4.h"
 737              		.section	.debug_info,"",%progbits
 738              	.Ldebug_info0:
 739 0000 C7120000 		.4byte	0x12c7
 740 0004 0400     		.2byte	0x4
 741 0006 00000000 		.4byte	.Ldebug_abbrev0
 742 000a 04       		.byte	0x4
 743 000b 01       		.uleb128 0x1
 744 000c 1E040000 		.4byte	.LASF161
 745 0010 01       		.byte	0x1
 746 0011 35030000 		.4byte	.LASF162
 747 0015 B7060000 		.4byte	.LASF163
 748 0019 90000000 		.4byte	.Ldebug_ranges0+0x90
 749 001d 00000000 		.4byte	0
 750 0021 00000000 		.4byte	.Ldebug_line0
 751 0025 02       		.uleb128 0x2
 752 0026 04       		.byte	0x4
 753 0027 05       		.byte	0x5
 754 0028 696E7400 		.ascii	"int\000"
 755 002c 03       		.uleb128 0x3
 756 002d 32000000 		.4byte	.LASF2
 757 0031 03       		.byte	0x3
 758 0032 D4       		.byte	0xd4
 759 0033 37000000 		.4byte	0x37
 760 0037 04       		.uleb128 0x4
 761 0038 04       		.byte	0x4
 762 0039 07       		.byte	0x7
 763 003a 45020000 		.4byte	.LASF0
 764 003e 04       		.uleb128 0x4
 765 003f 01       		.byte	0x1
 766 0040 06       		.byte	0x6
 767 0041 2C010000 		.4byte	.LASF1
 768 0045 03       		.uleb128 0x3
 769 0046 53000000 		.4byte	.LASF3
 770 004a 04       		.byte	0x4
 771 004b 1D       		.byte	0x1d
 772 004c 50000000 		.4byte	0x50
 773 0050 04       		.uleb128 0x4
 774 0051 01       		.byte	0x1
 775 0052 08       		.byte	0x8
 776 0053 A9050000 		.4byte	.LASF4
 777 0057 04       		.uleb128 0x4
 778 0058 02       		.byte	0x2
 779 0059 05       		.byte	0x5
 780 005a C1050000 		.4byte	.LASF5
 781 005e 03       		.uleb128 0x3
 782 005f FF060000 		.4byte	.LASF6
 783 0063 04       		.byte	0x4
 784 0064 2B       		.byte	0x2b
 785 0065 69000000 		.4byte	0x69
 786 0069 04       		.uleb128 0x4
 787 006a 02       		.byte	0x2
 788 006b 07       		.byte	0x7
 789 006c 91020000 		.4byte	.LASF7
 790 0070 03       		.uleb128 0x3
ARM GAS  C:\Users\jo\AppData\Local\Temp\ccTM2V0a.s 			page 15


 791 0071 15030000 		.4byte	.LASF8
 792 0075 04       		.byte	0x4
 793 0076 3F       		.byte	0x3f
 794 0077 7B000000 		.4byte	0x7b
 795 007b 04       		.uleb128 0x4
 796 007c 04       		.byte	0x4
 797 007d 05       		.byte	0x5
 798 007e 85010000 		.4byte	.LASF9
 799 0082 03       		.uleb128 0x3
 800 0083 38070000 		.4byte	.LASF10
 801 0087 04       		.byte	0x4
 802 0088 41       		.byte	0x41
 803 0089 8D000000 		.4byte	0x8d
 804 008d 04       		.uleb128 0x4
 805 008e 04       		.byte	0x4
 806 008f 07       		.byte	0x7
 807 0090 7D060000 		.4byte	.LASF11
 808 0094 04       		.uleb128 0x4
 809 0095 08       		.byte	0x8
 810 0096 05       		.byte	0x5
 811 0097 1E010000 		.4byte	.LASF12
 812 009b 03       		.uleb128 0x3
 813 009c 37050000 		.4byte	.LASF13
 814 00a0 04       		.byte	0x4
 815 00a1 5B       		.byte	0x5b
 816 00a2 A6000000 		.4byte	0xa6
 817 00a6 04       		.uleb128 0x4
 818 00a7 08       		.byte	0x8
 819 00a8 07       		.byte	0x7
 820 00a9 97000000 		.4byte	.LASF14
 821 00ad 03       		.uleb128 0x3
 822 00ae D4070000 		.4byte	.LASF15
 823 00b2 05       		.byte	0x5
 824 00b3 15       		.byte	0x15
 825 00b4 45000000 		.4byte	0x45
 826 00b8 03       		.uleb128 0x3
 827 00b9 F2020000 		.4byte	.LASF16
 828 00bd 05       		.byte	0x5
 829 00be 21       		.byte	0x21
 830 00bf 5E000000 		.4byte	0x5e
 831 00c3 03       		.uleb128 0x3
 832 00c4 A1050000 		.4byte	.LASF17
 833 00c8 05       		.byte	0x5
 834 00c9 2C       		.byte	0x2c
 835 00ca 70000000 		.4byte	0x70
 836 00ce 03       		.uleb128 0x3
 837 00cf 43060000 		.4byte	.LASF18
 838 00d3 05       		.byte	0x5
 839 00d4 2D       		.byte	0x2d
 840 00d5 82000000 		.4byte	0x82
 841 00d9 03       		.uleb128 0x3
 842 00da 4A000000 		.4byte	.LASF19
 843 00de 05       		.byte	0x5
 844 00df 39       		.byte	0x39
 845 00e0 9B000000 		.4byte	0x9b
 846 00e4 05       		.uleb128 0x5
 847 00e5 AD000000 		.4byte	0xad
ARM GAS  C:\Users\jo\AppData\Local\Temp\ccTM2V0a.s 			page 16


 848 00e9 05       		.uleb128 0x5
 849 00ea B8000000 		.4byte	0xb8
 850 00ee 05       		.uleb128 0x5
 851 00ef C3000000 		.4byte	0xc3
 852 00f3 05       		.uleb128 0x5
 853 00f4 CE000000 		.4byte	0xce
 854 00f8 03       		.uleb128 0x3
 855 00f9 88070000 		.4byte	.LASF20
 856 00fd 06       		.byte	0x6
 857 00fe 45       		.byte	0x45
 858 00ff CE000000 		.4byte	0xce
 859 0103 03       		.uleb128 0x3
 860 0104 EA020000 		.4byte	.LASF21
 861 0108 06       		.byte	0x6
 862 0109 48       		.byte	0x48
 863 010a AD000000 		.4byte	0xad
 864 010e 03       		.uleb128 0x3
 865 010f 9F010000 		.4byte	.LASF22
 866 0113 06       		.byte	0x6
 867 0114 49       		.byte	0x49
 868 0115 AD000000 		.4byte	0xad
 869 0119 03       		.uleb128 0x3
 870 011a 42050000 		.4byte	.LASF23
 871 011e 06       		.byte	0x6
 872 011f 4A       		.byte	0x4a
 873 0120 AD000000 		.4byte	0xad
 874 0124 03       		.uleb128 0x3
 875 0125 6B050000 		.4byte	.LASF24
 876 0129 06       		.byte	0x6
 877 012a 4C       		.byte	0x4c
 878 012b CE000000 		.4byte	0xce
 879 012f 03       		.uleb128 0x3
 880 0130 CA020000 		.4byte	.LASF25
 881 0134 06       		.byte	0x6
 882 0135 4D       		.byte	0x4d
 883 0136 C3000000 		.4byte	0xc3
 884 013a 03       		.uleb128 0x3
 885 013b 09030000 		.4byte	.LASF26
 886 013f 06       		.byte	0x6
 887 0140 4F       		.byte	0x4f
 888 0141 CE000000 		.4byte	0xce
 889 0145 03       		.uleb128 0x3
 890 0146 1A070000 		.4byte	.LASF27
 891 014a 07       		.byte	0x7
 892 014b 33       		.byte	0x33
 893 014c CE000000 		.4byte	0xce
 894 0150 03       		.uleb128 0x3
 895 0151 0A070000 		.4byte	.LASF28
 896 0155 07       		.byte	0x7
 897 0156 3F       		.byte	0x3f
 898 0157 5B010000 		.4byte	0x15b
 899 015b 06       		.uleb128 0x6
 900 015c BA020000 		.4byte	.LASF47
 901 0160 44       		.byte	0x44
 902 0161 08       		.byte	0x8
 903 0162 BE       		.byte	0xbe
 904 0163 48020000 		.4byte	0x248
ARM GAS  C:\Users\jo\AppData\Local\Temp\ccTM2V0a.s 			page 17


 905 0167 07       		.uleb128 0x7
 906 0168 E1050000 		.4byte	.LASF29
 907 016c 08       		.byte	0x8
 908 016d BF       		.byte	0xbf
 909 016e 73060000 		.4byte	0x673
 910 0172 00       		.byte	0
 911 0173 07       		.uleb128 0x7
 912 0174 5A050000 		.4byte	.LASF30
 913 0178 08       		.byte	0x8
 914 0179 C1       		.byte	0xc1
 915 017a 73060000 		.4byte	0x673
 916 017e 04       		.byte	0x4
 917 017f 07       		.uleb128 0x7
 918 0180 01010000 		.4byte	.LASF31
 919 0184 08       		.byte	0x8
 920 0185 C3       		.byte	0xc3
 921 0186 24010000 		.4byte	0x124
 922 018a 08       		.byte	0x8
 923 018b 07       		.uleb128 0x7
 924 018c 64080000 		.4byte	.LASF32
 925 0190 08       		.byte	0x8
 926 0191 C4       		.byte	0xc4
 927 0192 E1040000 		.4byte	0x4e1
 928 0196 0C       		.byte	0xc
 929 0197 07       		.uleb128 0x7
 930 0198 C6010000 		.4byte	.LASF33
 931 019c 08       		.byte	0x8
 932 019d C6       		.byte	0xc6
 933 019e 73060000 		.4byte	0x673
 934 01a2 10       		.byte	0x10
 935 01a3 07       		.uleb128 0x7
 936 01a4 BB030000 		.4byte	.LASF34
 937 01a8 08       		.byte	0x8
 938 01a9 C7       		.byte	0xc7
 939 01aa 73060000 		.4byte	0x673
 940 01ae 14       		.byte	0x14
 941 01af 07       		.uleb128 0x7
 942 01b0 A7070000 		.4byte	.LASF35
 943 01b4 08       		.byte	0x8
 944 01b5 CE       		.byte	0xce
 945 01b6 48060000 		.4byte	0x648
 946 01ba 18       		.byte	0x18
 947 01bb 07       		.uleb128 0x7
 948 01bc CB050000 		.4byte	.LASF36
 949 01c0 08       		.byte	0x8
 950 01c1 D9       		.byte	0xd9
 951 01c2 0E010000 		.4byte	0x10e
 952 01c6 1C       		.byte	0x1c
 953 01c7 07       		.uleb128 0x7
 954 01c8 F4050000 		.4byte	.LASF37
 955 01cc 08       		.byte	0x8
 956 01cd DD       		.byte	0xdd
 957 01ce 03010000 		.4byte	0x103
 958 01d2 1D       		.byte	0x1d
 959 01d3 07       		.uleb128 0x7
 960 01d4 AE070000 		.4byte	.LASF38
 961 01d8 08       		.byte	0x8
ARM GAS  C:\Users\jo\AppData\Local\Temp\ccTM2V0a.s 			page 18


 962 01d9 E2       		.byte	0xe2
 963 01da 19010000 		.4byte	0x119
 964 01de 1E       		.byte	0x1e
 965 01df 08       		.uleb128 0x8
 966 01e0 705F7500 		.ascii	"p_u\000"
 967 01e4 08       		.byte	0x8
 968 01e5 1401     		.2byte	0x114
 969 01e7 79060000 		.4byte	0x679
 970 01eb 20       		.byte	0x20
 971 01ec 09       		.uleb128 0x9
 972 01ed 5E030000 		.4byte	.LASF39
 973 01f1 08       		.byte	0x8
 974 01f2 1901     		.2byte	0x119
 975 01f4 48020000 		.4byte	0x248
 976 01f8 24       		.byte	0x24
 977 01f9 09       		.uleb128 0x9
 978 01fa 7C020000 		.4byte	.LASF40
 979 01fe 08       		.byte	0x8
 980 01ff 1F01     		.2byte	0x11f
 981 0201 6C020000 		.4byte	0x26c
 982 0205 28       		.byte	0x28
 983 0206 09       		.uleb128 0x9
 984 0207 20080000 		.4byte	.LASF41
 985 020b 08       		.byte	0x8
 986 020c 2301     		.2byte	0x123
 987 020e 2F010000 		.4byte	0x12f
 988 0212 30       		.byte	0x30
 989 0213 09       		.uleb128 0x9
 990 0214 38060000 		.4byte	.LASF42
 991 0218 08       		.byte	0x8
 992 0219 2901     		.2byte	0x129
 993 021b 3A010000 		.4byte	0x13a
 994 021f 34       		.byte	0x34
 995 0220 09       		.uleb128 0x9
 996 0221 B7050000 		.4byte	.LASF43
 997 0225 08       		.byte	0x8
 998 0226 3001     		.2byte	0x130
 999 0228 E2060000 		.4byte	0x6e2
 1000 022c 38       		.byte	0x38
 1001 022d 09       		.uleb128 0x9
 1002 022e 24070000 		.4byte	.LASF44
 1003 0232 08       		.byte	0x8
 1004 0233 3401     		.2byte	0x134
 1005 0235 24010000 		.4byte	0x124
 1006 0239 3C       		.byte	0x3c
 1007 023a 09       		.uleb128 0x9
 1008 023b 4A010000 		.4byte	.LASF45
 1009 023f 08       		.byte	0x8
 1010 0240 3A01     		.2byte	0x13a
 1011 0242 1F030000 		.4byte	0x31f
 1012 0246 40       		.byte	0x40
 1013 0247 00       		.byte	0
 1014 0248 03       		.uleb128 0x3
 1015 0249 F1070000 		.4byte	.LASF46
 1016 024d 07       		.byte	0x7
 1017 024e 44       		.byte	0x44
 1018 024f 53020000 		.4byte	0x253
ARM GAS  C:\Users\jo\AppData\Local\Temp\ccTM2V0a.s 			page 19


 1019 0253 06       		.uleb128 0x6
 1020 0254 54060000 		.4byte	.LASF48
 1021 0258 04       		.byte	0x4
 1022 0259 08       		.byte	0x8
 1023 025a AC       		.byte	0xac
 1024 025b 6C020000 		.4byte	0x26c
 1025 025f 07       		.uleb128 0x7
 1026 0260 E1050000 		.4byte	.LASF29
 1027 0264 08       		.byte	0x8
 1028 0265 AD       		.byte	0xad
 1029 0266 73060000 		.4byte	0x673
 1030 026a 00       		.byte	0
 1031 026b 00       		.byte	0
 1032 026c 03       		.uleb128 0x3
 1033 026d 97070000 		.4byte	.LASF49
 1034 0271 07       		.byte	0x7
 1035 0272 4B       		.byte	0x4b
 1036 0273 77020000 		.4byte	0x277
 1037 0277 06       		.uleb128 0x6
 1038 0278 F0000000 		.4byte	.LASF50
 1039 027c 08       		.byte	0x8
 1040 027d 08       		.byte	0x8
 1041 027e B3       		.byte	0xb3
 1042 027f 9C020000 		.4byte	0x29c
 1043 0283 07       		.uleb128 0x7
 1044 0284 E1050000 		.4byte	.LASF29
 1045 0288 08       		.byte	0x8
 1046 0289 B4       		.byte	0xb4
 1047 028a 73060000 		.4byte	0x673
 1048 028e 00       		.byte	0
 1049 028f 07       		.uleb128 0x7
 1050 0290 5A050000 		.4byte	.LASF30
 1051 0294 08       		.byte	0x8
 1052 0295 B5       		.byte	0xb5
 1053 0296 73060000 		.4byte	0x673
 1054 029a 04       		.byte	0x4
 1055 029b 00       		.byte	0
 1056 029c 03       		.uleb128 0x3
 1057 029d 17000000 		.4byte	.LASF51
 1058 02a1 07       		.byte	0x7
 1059 02a2 52       		.byte	0x52
 1060 02a3 A7020000 		.4byte	0x2a7
 1061 02a7 0A       		.uleb128 0xa
 1062 02a8 FB020000 		.4byte	.LASF52
 1063 02ac 1C       		.byte	0x1c
 1064 02ad 08       		.byte	0x8
 1065 02ae 7201     		.2byte	0x172
 1066 02b0 03030000 		.4byte	0x303
 1067 02b4 09       		.uleb128 0x9
 1068 02b5 4C060000 		.4byte	.LASF53
 1069 02b9 08       		.byte	0x8
 1070 02ba 7301     		.2byte	0x173
 1071 02bc 6C020000 		.4byte	0x26c
 1072 02c0 00       		.byte	0
 1073 02c1 09       		.uleb128 0x9
 1074 02c2 D3050000 		.4byte	.LASF54
 1075 02c6 08       		.byte	0x8
ARM GAS  C:\Users\jo\AppData\Local\Temp\ccTM2V0a.s 			page 20


 1076 02c7 7401     		.2byte	0x174
 1077 02c9 24010000 		.4byte	0x124
 1078 02cd 08       		.byte	0x8
 1079 02ce 09       		.uleb128 0x9
 1080 02cf C3030000 		.4byte	.LASF55
 1081 02d3 08       		.byte	0x8
 1082 02d4 7601     		.2byte	0x176
 1083 02d6 E1040000 		.4byte	0x4e1
 1084 02da 0C       		.byte	0xc
 1085 02db 09       		.uleb128 0x9
 1086 02dc E7010000 		.4byte	.LASF56
 1087 02e0 08       		.byte	0x8
 1088 02e1 7901     		.2byte	0x179
 1089 02e3 73060000 		.4byte	0x673
 1090 02e7 10       		.byte	0x10
 1091 02e8 09       		.uleb128 0x9
 1092 02e9 11040000 		.4byte	.LASF57
 1093 02ed 08       		.byte	0x8
 1094 02ee 7A01     		.2byte	0x17a
 1095 02f0 73060000 		.4byte	0x673
 1096 02f4 14       		.byte	0x14
 1097 02f5 09       		.uleb128 0x9
 1098 02f6 07040000 		.4byte	.LASF58
 1099 02fa 08       		.byte	0x8
 1100 02fb 7D01     		.2byte	0x17d
 1101 02fd 73060000 		.4byte	0x673
 1102 0301 18       		.byte	0x18
 1103 0302 00       		.byte	0
 1104 0303 03       		.uleb128 0x3
 1105 0304 2F070000 		.4byte	.LASF59
 1106 0308 07       		.byte	0x7
 1107 0309 57       		.byte	0x57
 1108 030a 0E030000 		.4byte	0x30e
 1109 030e 0B       		.uleb128 0xb
 1110 030f 04       		.byte	0x4
 1111 0310 14030000 		.4byte	0x314
 1112 0314 0C       		.uleb128 0xc
 1113 0315 1F030000 		.4byte	0x31f
 1114 0319 0D       		.uleb128 0xd
 1115 031a 1F030000 		.4byte	0x31f
 1116 031e 00       		.byte	0
 1117 031f 0E       		.uleb128 0xe
 1118 0320 04       		.byte	0x4
 1119 0321 03       		.uleb128 0x3
 1120 0322 4A050000 		.4byte	.LASF60
 1121 0326 07       		.byte	0x7
 1122 0327 5C       		.byte	0x5c
 1123 0328 2C030000 		.4byte	0x32c
 1124 032c 0A       		.uleb128 0xa
 1125 032d 77070000 		.4byte	.LASF61
 1126 0331 14       		.byte	0x14
 1127 0332 08       		.byte	0x8
 1128 0333 4D01     		.2byte	0x14d
 1129 0335 7B030000 		.4byte	0x37b
 1130 0339 09       		.uleb128 0x9
 1131 033a 52020000 		.4byte	.LASF62
 1132 033e 08       		.byte	0x8
ARM GAS  C:\Users\jo\AppData\Local\Temp\ccTM2V0a.s 			page 21


 1133 033f 4E01     		.2byte	0x14e
 1134 0341 E8060000 		.4byte	0x6e8
 1135 0345 00       		.byte	0
 1136 0346 09       		.uleb128 0x9
 1137 0347 F8010000 		.4byte	.LASF63
 1138 034b 08       		.byte	0x8
 1139 034c 4F01     		.2byte	0x14f
 1140 034e E8060000 		.4byte	0x6e8
 1141 0352 04       		.byte	0x4
 1142 0353 09       		.uleb128 0x9
 1143 0354 60020000 		.4byte	.LASF64
 1144 0358 08       		.byte	0x8
 1145 0359 5001     		.2byte	0x150
 1146 035b 45010000 		.4byte	0x145
 1147 035f 08       		.byte	0x8
 1148 0360 09       		.uleb128 0x9
 1149 0361 6A080000 		.4byte	.LASF65
 1150 0365 08       		.byte	0x8
 1151 0366 5101     		.2byte	0x151
 1152 0368 03030000 		.4byte	0x303
 1153 036c 0C       		.byte	0xc
 1154 036d 09       		.uleb128 0x9
 1155 036e 90070000 		.4byte	.LASF66
 1156 0372 08       		.byte	0x8
 1157 0373 5301     		.2byte	0x153
 1158 0375 1F030000 		.4byte	0x31f
 1159 0379 10       		.byte	0x10
 1160 037a 00       		.byte	0
 1161 037b 03       		.uleb128 0x3
 1162 037c C2000000 		.4byte	.LASF67
 1163 0380 07       		.byte	0x7
 1164 0381 61       		.byte	0x61
 1165 0382 86030000 		.4byte	0x386
 1166 0386 0A       		.uleb128 0xa
 1167 0387 71030000 		.4byte	.LASF68
 1168 038b 10       		.byte	0x10
 1169 038c 08       		.byte	0x8
 1170 038d 5D01     		.2byte	0x15d
 1171 038f C8030000 		.4byte	0x3c8
 1172 0393 09       		.uleb128 0x9
 1173 0394 52020000 		.4byte	.LASF62
 1174 0398 08       		.byte	0x8
 1175 0399 5E01     		.2byte	0x15e
 1176 039b E8060000 		.4byte	0x6e8
 1177 039f 00       		.byte	0
 1178 03a0 09       		.uleb128 0x9
 1179 03a1 F8010000 		.4byte	.LASF63
 1180 03a5 08       		.byte	0x8
 1181 03a6 6001     		.2byte	0x160
 1182 03a8 E8060000 		.4byte	0x6e8
 1183 03ac 04       		.byte	0x4
 1184 03ad 09       		.uleb128 0x9
 1185 03ae 60020000 		.4byte	.LASF64
 1186 03b2 08       		.byte	0x8
 1187 03b3 6201     		.2byte	0x162
 1188 03b5 45010000 		.4byte	0x145
 1189 03b9 08       		.byte	0x8
ARM GAS  C:\Users\jo\AppData\Local\Temp\ccTM2V0a.s 			page 22


 1190 03ba 09       		.uleb128 0x9
 1191 03bb AF030000 		.4byte	.LASF69
 1192 03bf 08       		.byte	0x8
 1193 03c0 6A01     		.2byte	0x16a
 1194 03c2 45010000 		.4byte	0x145
 1195 03c6 0C       		.byte	0xc
 1196 03c7 00       		.byte	0
 1197 03c8 03       		.uleb128 0x3
 1198 03c9 78000000 		.4byte	.LASF70
 1199 03cd 07       		.byte	0x7
 1200 03ce 66       		.byte	0x66
 1201 03cf D3030000 		.4byte	0x3d3
 1202 03d3 0A       		.uleb128 0xa
 1203 03d4 8B050000 		.4byte	.LASF71
 1204 03d8 04       		.byte	0x4
 1205 03d9 08       		.byte	0x8
 1206 03da 8401     		.2byte	0x184
 1207 03dc EE030000 		.4byte	0x3ee
 1208 03e0 09       		.uleb128 0x9
 1209 03e1 5E070000 		.4byte	.LASF72
 1210 03e5 08       		.byte	0x8
 1211 03e6 8C01     		.2byte	0x18c
 1212 03e8 EE060000 		.4byte	0x6ee
 1213 03ec 00       		.byte	0
 1214 03ed 00       		.byte	0
 1215 03ee 03       		.uleb128 0x3
 1216 03ef D0020000 		.4byte	.LASF73
 1217 03f3 07       		.byte	0x7
 1218 03f4 6B       		.byte	0x6b
 1219 03f5 F9030000 		.4byte	0x3f9
 1220 03f9 0F       		.uleb128 0xf
 1221 03fa 0F060000 		.4byte	.LASF74
 1222 03fe D801     		.2byte	0x1d8
 1223 0400 08       		.byte	0x8
 1224 0401 A401     		.2byte	0x1a4
 1225 0403 55040000 		.4byte	0x455
 1226 0407 09       		.uleb128 0x9
 1227 0408 CE070000 		.4byte	.LASF75
 1228 040c 08       		.byte	0x8
 1229 040d A801     		.2byte	0x1a8
 1230 040f 9C020000 		.4byte	0x29c
 1231 0413 00       		.byte	0
 1232 0414 09       		.uleb128 0x9
 1233 0415 00020000 		.4byte	.LASF76
 1234 0419 08       		.byte	0x8
 1235 041a AC01     		.2byte	0x1ac
 1236 041c 7B030000 		.4byte	0x37b
 1237 0420 1C       		.byte	0x1c
 1238 0421 08       		.uleb128 0x8
 1239 0422 64626700 		.ascii	"dbg\000"
 1240 0426 08       		.byte	0x8
 1241 0427 B001     		.2byte	0x1b0
 1242 0429 C8030000 		.4byte	0x3c8
 1243 042d 2C       		.byte	0x2c
 1244 042e 09       		.uleb128 0x9
 1245 042f B7000000 		.4byte	.LASF77
 1246 0433 08       		.byte	0x8
ARM GAS  C:\Users\jo\AppData\Local\Temp\ccTM2V0a.s 			page 23


 1247 0434 B401     		.2byte	0x1b4
 1248 0436 50010000 		.4byte	0x150
 1249 043a 30       		.byte	0x30
 1250 043b 08       		.uleb128 0x8
 1251 043c 746D00   		.ascii	"tm\000"
 1252 043f 08       		.byte	0x8
 1253 0440 B901     		.2byte	0x1b9
 1254 0442 68060000 		.4byte	0x668
 1255 0446 74       		.byte	0x74
 1256 0447 09       		.uleb128 0x9
 1257 0448 21020000 		.4byte	.LASF78
 1258 044c 08       		.byte	0x8
 1259 044d C501     		.2byte	0x1c5
 1260 044f F3060000 		.4byte	0x6f3
 1261 0453 78       		.byte	0x78
 1262 0454 00       		.byte	0
 1263 0455 04       		.uleb128 0x4
 1264 0456 04       		.byte	0x4
 1265 0457 07       		.byte	0x7
 1266 0458 68030000 		.4byte	.LASF79
 1267 045c 10       		.uleb128 0x10
 1268 045d 1C       		.byte	0x1c
 1269 045e 09       		.byte	0x9
 1270 045f 0903     		.2byte	0x309
 1271 0461 BF040000 		.4byte	0x4bf
 1272 0465 08       		.uleb128 0x8
 1273 0466 535200   		.ascii	"SR\000"
 1274 0469 09       		.byte	0x9
 1275 046a 0B03     		.2byte	0x30b
 1276 046c F3000000 		.4byte	0xf3
 1277 0470 00       		.byte	0
 1278 0471 08       		.uleb128 0x8
 1279 0472 445200   		.ascii	"DR\000"
 1280 0475 09       		.byte	0x9
 1281 0476 0C03     		.2byte	0x30c
 1282 0478 F3000000 		.4byte	0xf3
 1283 047c 04       		.byte	0x4
 1284 047d 08       		.uleb128 0x8
 1285 047e 42525200 		.ascii	"BRR\000"
 1286 0482 09       		.byte	0x9
 1287 0483 0D03     		.2byte	0x30d
 1288 0485 F3000000 		.4byte	0xf3
 1289 0489 08       		.byte	0x8
 1290 048a 08       		.uleb128 0x8
 1291 048b 43523100 		.ascii	"CR1\000"
 1292 048f 09       		.byte	0x9
 1293 0490 0E03     		.2byte	0x30e
 1294 0492 F3000000 		.4byte	0xf3
 1295 0496 0C       		.byte	0xc
 1296 0497 08       		.uleb128 0x8
 1297 0498 43523200 		.ascii	"CR2\000"
 1298 049c 09       		.byte	0x9
 1299 049d 0F03     		.2byte	0x30f
 1300 049f F3000000 		.4byte	0xf3
 1301 04a3 10       		.byte	0x10
 1302 04a4 08       		.uleb128 0x8
 1303 04a5 43523300 		.ascii	"CR3\000"
ARM GAS  C:\Users\jo\AppData\Local\Temp\ccTM2V0a.s 			page 24


 1304 04a9 09       		.byte	0x9
 1305 04aa 1003     		.2byte	0x310
 1306 04ac F3000000 		.4byte	0xf3
 1307 04b0 14       		.byte	0x14
 1308 04b1 09       		.uleb128 0x9
 1309 04b2 19040000 		.4byte	.LASF80
 1310 04b6 09       		.byte	0x9
 1311 04b7 1103     		.2byte	0x311
 1312 04b9 F3000000 		.4byte	0xf3
 1313 04bd 18       		.byte	0x18
 1314 04be 00       		.byte	0
 1315 04bf 11       		.uleb128 0x11
 1316 04c0 DC020000 		.4byte	.LASF81
 1317 04c4 09       		.byte	0x9
 1318 04c5 1203     		.2byte	0x312
 1319 04c7 5C040000 		.4byte	0x45c
 1320 04cb 03       		.uleb128 0x3
 1321 04cc EF010000 		.4byte	.LASF82
 1322 04d0 0A       		.byte	0xa
 1323 04d1 85       		.byte	0x85
 1324 04d2 1F030000 		.4byte	0x31f
 1325 04d6 03       		.uleb128 0x3
 1326 04d7 1F030000 		.4byte	.LASF83
 1327 04db 0A       		.byte	0xa
 1328 04dc 8D       		.byte	0x8d
 1329 04dd D9000000 		.4byte	0xd9
 1330 04e1 06       		.uleb128 0x6
 1331 04e2 6F070000 		.4byte	.LASF84
 1332 04e6 04       		.byte	0x4
 1333 04e7 0A       		.byte	0xa
 1334 04e8 A9       		.byte	0xa9
 1335 04e9 FA040000 		.4byte	0x4fa
 1336 04ed 12       		.uleb128 0x12
 1337 04ee 72313300 		.ascii	"r13\000"
 1338 04f2 0A       		.byte	0xa
 1339 04f3 AA       		.byte	0xaa
 1340 04f4 3B060000 		.4byte	0x63b
 1341 04f8 00       		.byte	0
 1342 04f9 00       		.byte	0
 1343 04fa 06       		.uleb128 0x6
 1344 04fb 6C000000 		.4byte	.LASF85
 1345 04ff 64       		.byte	0x64
 1346 0500 0B       		.byte	0xb
 1347 0501 F4       		.byte	0xf4
 1348 0502 3B060000 		.4byte	0x63b
 1349 0506 12       		.uleb128 0x12
 1350 0507 73313600 		.ascii	"s16\000"
 1351 050b 0B       		.byte	0xb
 1352 050c F6       		.byte	0xf6
 1353 050d CB040000 		.4byte	0x4cb
 1354 0511 00       		.byte	0
 1355 0512 12       		.uleb128 0x12
 1356 0513 73313700 		.ascii	"s17\000"
 1357 0517 0B       		.byte	0xb
 1358 0518 F7       		.byte	0xf7
 1359 0519 CB040000 		.4byte	0x4cb
 1360 051d 04       		.byte	0x4
ARM GAS  C:\Users\jo\AppData\Local\Temp\ccTM2V0a.s 			page 25


 1361 051e 12       		.uleb128 0x12
 1362 051f 73313800 		.ascii	"s18\000"
 1363 0523 0B       		.byte	0xb
 1364 0524 F8       		.byte	0xf8
 1365 0525 CB040000 		.4byte	0x4cb
 1366 0529 08       		.byte	0x8
 1367 052a 12       		.uleb128 0x12
 1368 052b 73313900 		.ascii	"s19\000"
 1369 052f 0B       		.byte	0xb
 1370 0530 F9       		.byte	0xf9
 1371 0531 CB040000 		.4byte	0x4cb
 1372 0535 0C       		.byte	0xc
 1373 0536 12       		.uleb128 0x12
 1374 0537 73323000 		.ascii	"s20\000"
 1375 053b 0B       		.byte	0xb
 1376 053c FA       		.byte	0xfa
 1377 053d CB040000 		.4byte	0x4cb
 1378 0541 10       		.byte	0x10
 1379 0542 12       		.uleb128 0x12
 1380 0543 73323100 		.ascii	"s21\000"
 1381 0547 0B       		.byte	0xb
 1382 0548 FB       		.byte	0xfb
 1383 0549 CB040000 		.4byte	0x4cb
 1384 054d 14       		.byte	0x14
 1385 054e 12       		.uleb128 0x12
 1386 054f 73323200 		.ascii	"s22\000"
 1387 0553 0B       		.byte	0xb
 1388 0554 FC       		.byte	0xfc
 1389 0555 CB040000 		.4byte	0x4cb
 1390 0559 18       		.byte	0x18
 1391 055a 12       		.uleb128 0x12
 1392 055b 73323300 		.ascii	"s23\000"
 1393 055f 0B       		.byte	0xb
 1394 0560 FD       		.byte	0xfd
 1395 0561 CB040000 		.4byte	0x4cb
 1396 0565 1C       		.byte	0x1c
 1397 0566 12       		.uleb128 0x12
 1398 0567 73323400 		.ascii	"s24\000"
 1399 056b 0B       		.byte	0xb
 1400 056c FE       		.byte	0xfe
 1401 056d CB040000 		.4byte	0x4cb
 1402 0571 20       		.byte	0x20
 1403 0572 12       		.uleb128 0x12
 1404 0573 73323500 		.ascii	"s25\000"
 1405 0577 0B       		.byte	0xb
 1406 0578 FF       		.byte	0xff
 1407 0579 CB040000 		.4byte	0x4cb
 1408 057d 24       		.byte	0x24
 1409 057e 08       		.uleb128 0x8
 1410 057f 73323600 		.ascii	"s26\000"
 1411 0583 0B       		.byte	0xb
 1412 0584 0001     		.2byte	0x100
 1413 0586 CB040000 		.4byte	0x4cb
 1414 058a 28       		.byte	0x28
 1415 058b 08       		.uleb128 0x8
 1416 058c 73323700 		.ascii	"s27\000"
 1417 0590 0B       		.byte	0xb
ARM GAS  C:\Users\jo\AppData\Local\Temp\ccTM2V0a.s 			page 26


 1418 0591 0101     		.2byte	0x101
 1419 0593 CB040000 		.4byte	0x4cb
 1420 0597 2C       		.byte	0x2c
 1421 0598 08       		.uleb128 0x8
 1422 0599 73323800 		.ascii	"s28\000"
 1423 059d 0B       		.byte	0xb
 1424 059e 0201     		.2byte	0x102
 1425 05a0 CB040000 		.4byte	0x4cb
 1426 05a4 30       		.byte	0x30
 1427 05a5 08       		.uleb128 0x8
 1428 05a6 73323900 		.ascii	"s29\000"
 1429 05aa 0B       		.byte	0xb
 1430 05ab 0301     		.2byte	0x103
 1431 05ad CB040000 		.4byte	0x4cb
 1432 05b1 34       		.byte	0x34
 1433 05b2 08       		.uleb128 0x8
 1434 05b3 73333000 		.ascii	"s30\000"
 1435 05b7 0B       		.byte	0xb
 1436 05b8 0401     		.2byte	0x104
 1437 05ba CB040000 		.4byte	0x4cb
 1438 05be 38       		.byte	0x38
 1439 05bf 08       		.uleb128 0x8
 1440 05c0 73333100 		.ascii	"s31\000"
 1441 05c4 0B       		.byte	0xb
 1442 05c5 0501     		.2byte	0x105
 1443 05c7 CB040000 		.4byte	0x4cb
 1444 05cb 3C       		.byte	0x3c
 1445 05cc 08       		.uleb128 0x8
 1446 05cd 723400   		.ascii	"r4\000"
 1447 05d0 0B       		.byte	0xb
 1448 05d1 0701     		.2byte	0x107
 1449 05d3 CB040000 		.4byte	0x4cb
 1450 05d7 40       		.byte	0x40
 1451 05d8 08       		.uleb128 0x8
 1452 05d9 723500   		.ascii	"r5\000"
 1453 05dc 0B       		.byte	0xb
 1454 05dd 0801     		.2byte	0x108
 1455 05df CB040000 		.4byte	0x4cb
 1456 05e3 44       		.byte	0x44
 1457 05e4 08       		.uleb128 0x8
 1458 05e5 723600   		.ascii	"r6\000"
 1459 05e8 0B       		.byte	0xb
 1460 05e9 0901     		.2byte	0x109
 1461 05eb CB040000 		.4byte	0x4cb
 1462 05ef 48       		.byte	0x48
 1463 05f0 08       		.uleb128 0x8
 1464 05f1 723700   		.ascii	"r7\000"
 1465 05f4 0B       		.byte	0xb
 1466 05f5 0A01     		.2byte	0x10a
 1467 05f7 CB040000 		.4byte	0x4cb
 1468 05fb 4C       		.byte	0x4c
 1469 05fc 08       		.uleb128 0x8
 1470 05fd 723800   		.ascii	"r8\000"
 1471 0600 0B       		.byte	0xb
 1472 0601 0B01     		.2byte	0x10b
 1473 0603 CB040000 		.4byte	0x4cb
 1474 0607 50       		.byte	0x50
ARM GAS  C:\Users\jo\AppData\Local\Temp\ccTM2V0a.s 			page 27


 1475 0608 08       		.uleb128 0x8
 1476 0609 723900   		.ascii	"r9\000"
 1477 060c 0B       		.byte	0xb
 1478 060d 0C01     		.2byte	0x10c
 1479 060f CB040000 		.4byte	0x4cb
 1480 0613 54       		.byte	0x54
 1481 0614 08       		.uleb128 0x8
 1482 0615 72313000 		.ascii	"r10\000"
 1483 0619 0B       		.byte	0xb
 1484 061a 0D01     		.2byte	0x10d
 1485 061c CB040000 		.4byte	0x4cb
 1486 0620 58       		.byte	0x58
 1487 0621 08       		.uleb128 0x8
 1488 0622 72313100 		.ascii	"r11\000"
 1489 0626 0B       		.byte	0xb
 1490 0627 0E01     		.2byte	0x10e
 1491 0629 CB040000 		.4byte	0x4cb
 1492 062d 5C       		.byte	0x5c
 1493 062e 08       		.uleb128 0x8
 1494 062f 6C7200   		.ascii	"lr\000"
 1495 0632 0B       		.byte	0xb
 1496 0633 0F01     		.2byte	0x10f
 1497 0635 CB040000 		.4byte	0x4cb
 1498 0639 60       		.byte	0x60
 1499 063a 00       		.byte	0
 1500 063b 0B       		.uleb128 0xb
 1501 063c 04       		.byte	0x4
 1502 063d FA040000 		.4byte	0x4fa
 1503 0641 04       		.uleb128 0x4
 1504 0642 01       		.byte	0x1
 1505 0643 08       		.byte	0x8
 1506 0644 9E060000 		.4byte	.LASF86
 1507 0648 0B       		.uleb128 0xb
 1508 0649 04       		.byte	0x4
 1509 064a 4E060000 		.4byte	0x64e
 1510 064e 13       		.uleb128 0x13
 1511 064f 41060000 		.4byte	0x641
 1512 0653 14       		.uleb128 0x14
 1513 0654 04       		.byte	0x4
 1514 0655 0C       		.byte	0xc
 1515 0656 38       		.byte	0x38
 1516 0657 68060000 		.4byte	0x668
 1517 065b 07       		.uleb128 0x7
 1518 065c 68070000 		.4byte	.LASF87
 1519 0660 0C       		.byte	0xc
 1520 0661 3C       		.byte	0x3c
 1521 0662 F8000000 		.4byte	0xf8
 1522 0666 00       		.byte	0
 1523 0667 00       		.byte	0
 1524 0668 03       		.uleb128 0x3
 1525 0669 E8030000 		.4byte	.LASF88
 1526 066d 0C       		.byte	0xc
 1527 066e 3D       		.byte	0x3d
 1528 066f 53060000 		.4byte	0x653
 1529 0673 0B       		.uleb128 0xb
 1530 0674 04       		.byte	0x4
 1531 0675 50010000 		.4byte	0x150
ARM GAS  C:\Users\jo\AppData\Local\Temp\ccTM2V0a.s 			page 28


 1532 0679 15       		.uleb128 0x15
 1533 067a 04       		.byte	0x4
 1534 067b 08       		.byte	0x8
 1535 067c F6       		.byte	0xf6
 1536 067d B1060000 		.4byte	0x6b1
 1537 0681 16       		.uleb128 0x16
 1538 0682 43000000 		.4byte	.LASF89
 1539 0686 08       		.byte	0x8
 1540 0687 FD       		.byte	0xfd
 1541 0688 2F010000 		.4byte	0x12f
 1542 068c 17       		.uleb128 0x17
 1543 068d AE000000 		.4byte	.LASF90
 1544 0691 08       		.byte	0x8
 1545 0692 0401     		.2byte	0x104
 1546 0694 2F010000 		.4byte	0x12f
 1547 0698 17       		.uleb128 0x17
 1548 0699 E4070000 		.4byte	.LASF91
 1549 069d 08       		.byte	0x8
 1550 069e 0B01     		.2byte	0x10b
 1551 06a0 1F030000 		.4byte	0x31f
 1552 06a4 17       		.uleb128 0x17
 1553 06a5 DA050000 		.4byte	.LASF92
 1554 06a9 08       		.byte	0x8
 1555 06aa 1201     		.2byte	0x112
 1556 06ac 3A010000 		.4byte	0x13a
 1557 06b0 00       		.byte	0
 1558 06b1 06       		.uleb128 0x6
 1559 06b2 85050000 		.4byte	.LASF93
 1560 06b6 10       		.byte	0x10
 1561 06b7 0D       		.byte	0xd
 1562 06b8 39       		.byte	0x39
 1563 06b9 E2060000 		.4byte	0x6e2
 1564 06bd 07       		.uleb128 0x7
 1565 06be 5A010000 		.4byte	.LASF94
 1566 06c2 0D       		.byte	0xd
 1567 06c3 3A       		.byte	0x3a
 1568 06c4 6C020000 		.4byte	0x26c
 1569 06c8 00       		.byte	0
 1570 06c9 07       		.uleb128 0x7
 1571 06ca 4D080000 		.4byte	.LASF95
 1572 06ce 0D       		.byte	0xd
 1573 06cf 3C       		.byte	0x3c
 1574 06d0 73060000 		.4byte	0x673
 1575 06d4 08       		.byte	0x8
 1576 06d5 07       		.uleb128 0x7
 1577 06d6 13070000 		.4byte	.LASF96
 1578 06da 0D       		.byte	0xd
 1579 06db 3E       		.byte	0x3e
 1580 06dc 0E070000 		.4byte	0x70e
 1581 06e0 0C       		.byte	0xc
 1582 06e1 00       		.byte	0
 1583 06e2 0B       		.uleb128 0xb
 1584 06e3 04       		.byte	0x4
 1585 06e4 B1060000 		.4byte	0x6b1
 1586 06e8 0B       		.uleb128 0xb
 1587 06e9 04       		.byte	0x4
 1588 06ea 21030000 		.4byte	0x321
ARM GAS  C:\Users\jo\AppData\Local\Temp\ccTM2V0a.s 			page 29


 1589 06ee 05       		.uleb128 0x5
 1590 06ef 48060000 		.4byte	0x648
 1591 06f3 18       		.uleb128 0x18
 1592 06f4 D6040000 		.4byte	0x4d6
 1593 06f8 03070000 		.4byte	0x703
 1594 06fc 19       		.uleb128 0x19
 1595 06fd 55040000 		.4byte	0x455
 1596 0701 2B       		.byte	0x2b
 1597 0702 00       		.byte	0
 1598 0703 03       		.uleb128 0x3
 1599 0704 13020000 		.4byte	.LASF97
 1600 0708 0D       		.byte	0xd
 1601 0709 34       		.byte	0x34
 1602 070a B1060000 		.4byte	0x6b1
 1603 070e 0B       		.uleb128 0xb
 1604 070f 04       		.byte	0x4
 1605 0710 03070000 		.4byte	0x703
 1606 0714 04       		.uleb128 0x4
 1607 0715 01       		.byte	0x1
 1608 0716 02       		.byte	0x2
 1609 0717 9B050000 		.4byte	.LASF98
 1610 071b 0B       		.uleb128 0xb
 1611 071c 04       		.byte	0x4
 1612 071d BF040000 		.4byte	0x4bf
 1613 0721 1A       		.uleb128 0x1a
 1614 0722 01       		.byte	0x1
 1615 0723 0E       		.byte	0xe
 1616 0724 40       		.byte	0x40
 1617 0725 3C070000 		.4byte	0x73c
 1618 0729 1B       		.uleb128 0x1b
 1619 072a A4020000 		.4byte	.LASF99
 1620 072e 00       		.sleb128 0
 1621 072f 1B       		.uleb128 0x1b
 1622 0730 B0020000 		.4byte	.LASF100
 1623 0734 01       		.sleb128 1
 1624 0735 1B       		.uleb128 0x1b
 1625 0736 2A030000 		.4byte	.LASF101
 1626 073a 02       		.sleb128 2
 1627 073b 00       		.byte	0
 1628 073c 03       		.uleb128 0x3
 1629 073d E8050000 		.4byte	.LASF102
 1630 0741 0E       		.byte	0xe
 1631 0742 44       		.byte	0x44
 1632 0743 21070000 		.4byte	0x721
 1633 0747 1A       		.uleb128 0x1a
 1634 0748 01       		.byte	0x1
 1635 0749 0E       		.byte	0xe
 1636 074a 49       		.byte	0x49
 1637 074b 62070000 		.4byte	0x762
 1638 074f 1B       		.uleb128 0x1b
 1639 0750 51070000 		.4byte	.LASF103
 1640 0754 00       		.sleb128 0
 1641 0755 1B       		.uleb128 0x1b
 1642 0756 30020000 		.4byte	.LASF104
 1643 075a 01       		.sleb128 1
 1644 075b 1B       		.uleb128 0x1b
 1645 075c 27060000 		.4byte	.LASF105
ARM GAS  C:\Users\jo\AppData\Local\Temp\ccTM2V0a.s 			page 30


 1646 0760 02       		.sleb128 2
 1647 0761 00       		.byte	0
 1648 0762 03       		.uleb128 0x3
 1649 0763 F9030000 		.4byte	.LASF106
 1650 0767 0E       		.byte	0xe
 1651 0768 4D       		.byte	0x4d
 1652 0769 47070000 		.4byte	0x747
 1653 076d 1A       		.uleb128 0x1a
 1654 076e 01       		.byte	0x1
 1655 076f 0E       		.byte	0xe
 1656 0770 52       		.byte	0x52
 1657 0771 88070000 		.4byte	0x788
 1658 0775 1B       		.uleb128 0x1b
 1659 0776 AA060000 		.4byte	.LASF107
 1660 077a 00       		.sleb128 0
 1661 077b 1B       		.uleb128 0x1b
 1662 077c 55080000 		.4byte	.LASF108
 1663 0780 01       		.sleb128 1
 1664 0781 1B       		.uleb128 0x1b
 1665 0782 88030000 		.4byte	.LASF109
 1666 0786 02       		.sleb128 2
 1667 0787 00       		.byte	0
 1668 0788 03       		.uleb128 0x3
 1669 0789 CE010000 		.4byte	.LASF110
 1670 078d 0E       		.byte	0xe
 1671 078e 56       		.byte	0x56
 1672 078f 6D070000 		.4byte	0x76d
 1673 0793 11       		.uleb128 0x11
 1674 0794 C9030000 		.4byte	.LASF111
 1675 0798 0F       		.byte	0xf
 1676 0799 2D01     		.2byte	0x12d
 1677 079b CE000000 		.4byte	0xce
 1678 079f 11       		.uleb128 0x11
 1679 07a0 DC010000 		.4byte	.LASF112
 1680 07a4 0F       		.byte	0xf
 1681 07a5 3201     		.2byte	0x132
 1682 07a7 AB070000 		.4byte	0x7ab
 1683 07ab 0A       		.uleb128 0xa
 1684 07ac DC010000 		.4byte	.LASF112
 1685 07b0 1C       		.byte	0x1c
 1686 07b1 0F       		.byte	0xf
 1687 07b2 7A01     		.2byte	0x17a
 1688 07b4 3B080000 		.4byte	0x83b
 1689 07b8 09       		.uleb128 0x9
 1690 07b9 77010000 		.4byte	.LASF113
 1691 07bd 0F       		.byte	0xf
 1692 07be 7E01     		.2byte	0x17e
 1693 07c0 3C070000 		.4byte	0x73c
 1694 07c4 00       		.byte	0
 1695 07c5 09       		.uleb128 0x9
 1696 07c6 7D010000 		.4byte	.LASF114
 1697 07ca 0F       		.byte	0xf
 1698 07cb 8201     		.2byte	0x182
 1699 07cd 62070000 		.4byte	0x762
 1700 07d1 01       		.byte	0x1
 1701 07d2 09       		.uleb128 0x9
 1702 07d3 52010000 		.4byte	.LASF115
ARM GAS  C:\Users\jo\AppData\Local\Temp\ccTM2V0a.s 			page 31


 1703 07d7 0F       		.byte	0xf
 1704 07d8 8601     		.2byte	0x186
 1705 07da 88070000 		.4byte	0x788
 1706 07de 02       		.byte	0x2
 1707 07df 09       		.uleb128 0x9
 1708 07e0 A3060000 		.4byte	.LASF116
 1709 07e4 0F       		.byte	0xf
 1710 07e5 8A01     		.2byte	0x18a
 1711 07e7 2D090000 		.4byte	0x92d
 1712 07eb 04       		.byte	0x4
 1713 07ec 09       		.uleb128 0x9
 1714 07ed 3F020000 		.4byte	.LASF117
 1715 07f1 0F       		.byte	0xf
 1716 07f2 9201     		.2byte	0x192
 1717 07f4 1B070000 		.4byte	0x71b
 1718 07f8 08       		.byte	0x8
 1719 07f9 09       		.uleb128 0x9
 1720 07fa 87000000 		.4byte	.LASF118
 1721 07fe 0F       		.byte	0xf
 1722 07ff A501     		.2byte	0x1a5
 1723 0801 E9000000 		.4byte	0xe9
 1724 0805 0C       		.byte	0xc
 1725 0806 09       		.uleb128 0x9
 1726 0807 DC070000 		.4byte	.LASF119
 1727 080b 0F       		.byte	0xf
 1728 080c A701     		.2byte	0x1a7
 1729 080e E9000000 		.4byte	0xe9
 1730 0812 0E       		.byte	0xe
 1731 0813 09       		.uleb128 0x9
 1732 0814 64060000 		.4byte	.LASF120
 1733 0818 0F       		.byte	0xf
 1734 0819 A801     		.2byte	0x1a8
 1735 081b 38090000 		.4byte	0x938
 1736 081f 10       		.byte	0x10
 1737 0820 09       		.uleb128 0x9
 1738 0821 34080000 		.4byte	.LASF121
 1739 0825 0F       		.byte	0xf
 1740 0826 A901     		.2byte	0x1a9
 1741 0828 E9000000 		.4byte	0xe9
 1742 082c 14       		.byte	0x14
 1743 082d 09       		.uleb128 0x9
 1744 082e 62010000 		.4byte	.LASF122
 1745 0832 0F       		.byte	0xf
 1746 0833 AA01     		.2byte	0x1aa
 1747 0835 38090000 		.4byte	0x938
 1748 0839 18       		.byte	0x18
 1749 083a 00       		.byte	0
 1750 083b 11       		.uleb128 0x11
 1751 083c 38010000 		.4byte	.LASF123
 1752 0840 0F       		.byte	0xf
 1753 0841 3901     		.2byte	0x139
 1754 0843 47080000 		.4byte	0x847
 1755 0847 0B       		.uleb128 0xb
 1756 0848 04       		.byte	0x4
 1757 0849 4D080000 		.4byte	0x84d
 1758 084d 0C       		.uleb128 0xc
 1759 084e 58080000 		.4byte	0x858
ARM GAS  C:\Users\jo\AppData\Local\Temp\ccTM2V0a.s 			page 32


 1760 0852 0D       		.uleb128 0xd
 1761 0853 58080000 		.4byte	0x858
 1762 0857 00       		.byte	0
 1763 0858 0B       		.uleb128 0xb
 1764 0859 04       		.byte	0x4
 1765 085a 9F070000 		.4byte	0x79f
 1766 085e 11       		.uleb128 0x11
 1767 085f 6A060000 		.4byte	.LASF124
 1768 0863 0F       		.byte	0xf
 1769 0864 4101     		.2byte	0x141
 1770 0866 6A080000 		.4byte	0x86a
 1771 086a 0B       		.uleb128 0xb
 1772 086b 04       		.byte	0x4
 1773 086c 70080000 		.4byte	0x870
 1774 0870 0C       		.uleb128 0xc
 1775 0871 80080000 		.4byte	0x880
 1776 0875 0D       		.uleb128 0xd
 1777 0876 58080000 		.4byte	0x858
 1778 087a 0D       		.uleb128 0xd
 1779 087b B8000000 		.4byte	0xb8
 1780 087f 00       		.byte	0
 1781 0880 11       		.uleb128 0x11
 1782 0881 87020000 		.4byte	.LASF125
 1783 0885 0F       		.byte	0xf
 1784 0886 4901     		.2byte	0x149
 1785 0888 8C080000 		.4byte	0x88c
 1786 088c 0B       		.uleb128 0xb
 1787 088d 04       		.byte	0x4
 1788 088e 92080000 		.4byte	0x892
 1789 0892 0C       		.uleb128 0xc
 1790 0893 A2080000 		.4byte	0x8a2
 1791 0897 0D       		.uleb128 0xd
 1792 0898 58080000 		.4byte	0x858
 1793 089c 0D       		.uleb128 0xd
 1794 089d 93070000 		.4byte	0x793
 1795 08a1 00       		.byte	0
 1796 08a2 10       		.uleb128 0x10
 1797 08a3 24       		.byte	0x24
 1798 08a4 0F       		.byte	0xf
 1799 08a5 4F01     		.2byte	0x14f
 1800 08a7 21090000 		.4byte	0x921
 1801 08ab 09       		.uleb128 0x9
 1802 08ac B5070000 		.4byte	.LASF126
 1803 08b0 0F       		.byte	0xf
 1804 08b1 5301     		.2byte	0x153
 1805 08b3 3B080000 		.4byte	0x83b
 1806 08b7 00       		.byte	0
 1807 08b8 09       		.uleb128 0x9
 1808 08b9 61050000 		.4byte	.LASF127
 1809 08bd 0F       		.byte	0xf
 1810 08be 5701     		.2byte	0x157
 1811 08c0 3B080000 		.4byte	0x83b
 1812 08c4 04       		.byte	0x4
 1813 08c5 09       		.uleb128 0x9
 1814 08c6 DF030000 		.4byte	.LASF128
 1815 08ca 0F       		.byte	0xf
 1816 08cb 5B01     		.2byte	0x15b
ARM GAS  C:\Users\jo\AppData\Local\Temp\ccTM2V0a.s 			page 33


 1817 08cd 3B080000 		.4byte	0x83b
 1818 08d1 08       		.byte	0x8
 1819 08d2 09       		.uleb128 0x9
 1820 08d3 39000000 		.4byte	.LASF129
 1821 08d7 0F       		.byte	0xf
 1822 08d8 5F01     		.2byte	0x15f
 1823 08da 5E080000 		.4byte	0x85e
 1824 08de 0C       		.byte	0xc
 1825 08df 09       		.uleb128 0x9
 1826 08e0 A6030000 		.4byte	.LASF130
 1827 08e4 0F       		.byte	0xf
 1828 08e5 6301     		.2byte	0x163
 1829 08e7 80080000 		.4byte	0x880
 1830 08eb 10       		.byte	0x10
 1831 08ec 09       		.uleb128 0x9
 1832 08ed EB070000 		.4byte	.LASF131
 1833 08f1 0F       		.byte	0xf
 1834 08f2 6801     		.2byte	0x168
 1835 08f4 CE000000 		.4byte	0xce
 1836 08f8 14       		.byte	0x14
 1837 08f9 08       		.uleb128 0x8
 1838 08fa 63723100 		.ascii	"cr1\000"
 1839 08fe 0F       		.byte	0xf
 1840 08ff 6C01     		.2byte	0x16c
 1841 0901 CE000000 		.4byte	0xce
 1842 0905 18       		.byte	0x18
 1843 0906 08       		.uleb128 0x8
 1844 0907 63723200 		.ascii	"cr2\000"
 1845 090b 0F       		.byte	0xf
 1846 090c 7001     		.2byte	0x170
 1847 090e CE000000 		.4byte	0xce
 1848 0912 1C       		.byte	0x1c
 1849 0913 08       		.uleb128 0x8
 1850 0914 63723300 		.ascii	"cr3\000"
 1851 0918 0F       		.byte	0xf
 1852 0919 7401     		.2byte	0x174
 1853 091b CE000000 		.4byte	0xce
 1854 091f 20       		.byte	0x20
 1855 0920 00       		.byte	0
 1856 0921 11       		.uleb128 0x11
 1857 0922 D8000000 		.4byte	.LASF132
 1858 0926 0F       		.byte	0xf
 1859 0927 7501     		.2byte	0x175
 1860 0929 A2080000 		.4byte	0x8a2
 1861 092d 0B       		.uleb128 0xb
 1862 092e 04       		.byte	0x4
 1863 092f 33090000 		.4byte	0x933
 1864 0933 13       		.uleb128 0x13
 1865 0934 21090000 		.4byte	0x921
 1866 0938 0B       		.uleb128 0xb
 1867 0939 04       		.byte	0x4
 1868 093a E4000000 		.4byte	0xe4
 1869 093e 1C       		.uleb128 0x1c
 1870 093f 43070000 		.4byte	.LASF136
 1871 0943 02       		.byte	0x2
 1872 0944 2002     		.2byte	0x220
 1873 0946 03       		.byte	0x3
ARM GAS  C:\Users\jo\AppData\Local\Temp\ccTM2V0a.s 			page 34


 1874 0947 58090000 		.4byte	0x958
 1875 094b 1D       		.uleb128 0x1d
 1876 094c 1B020000 		.4byte	.LASF164
 1877 0950 02       		.byte	0x2
 1878 0951 2002     		.2byte	0x220
 1879 0953 CE000000 		.4byte	0xce
 1880 0957 00       		.byte	0
 1881 0958 1E       		.uleb128 0x1e
 1882 0959 8D000000 		.4byte	.LASF133
 1883 095d 0B       		.byte	0xb
 1884 095e BB01     		.2byte	0x1bb
 1885 0960 03       		.byte	0x3
 1886 0961 1E       		.uleb128 0x1e
 1887 0962 6B010000 		.4byte	.LASF134
 1888 0966 0B       		.byte	0xb
 1889 0967 C901     		.2byte	0x1c9
 1890 0969 03       		.byte	0x3
 1891 096a 1E       		.uleb128 0x1e
 1892 096b 05060000 		.4byte	.LASF135
 1893 096f 10       		.byte	0x10
 1894 0970 2901     		.2byte	0x129
 1895 0972 03       		.byte	0x3
 1896 0973 1C       		.uleb128 0x1c
 1897 0974 14080000 		.4byte	.LASF137
 1898 0978 10       		.byte	0x10
 1899 0979 3501     		.2byte	0x135
 1900 097b 03       		.byte	0x3
 1901 097c 8E090000 		.4byte	0x98e
 1902 0980 1F       		.uleb128 0x1f
 1903 0981 FC050000 		.4byte	.LASF145
 1904 0985 9E090000 		.4byte	0x99e
 1905 0989 14080000 		.4byte	.LASF137
 1906 098d 00       		.byte	0
 1907 098e 18       		.uleb128 0x18
 1908 098f 41060000 		.4byte	0x641
 1909 0993 9E090000 		.4byte	0x99e
 1910 0997 19       		.uleb128 0x19
 1911 0998 55040000 		.4byte	0x455
 1912 099c 0B       		.byte	0xb
 1913 099d 00       		.byte	0
 1914 099e 13       		.uleb128 0x13
 1915 099f 8E090000 		.4byte	0x98e
 1916 09a3 1E       		.uleb128 0x1e
 1917 09a4 07020000 		.4byte	.LASF138
 1918 09a8 11       		.byte	0x11
 1919 09a9 A701     		.2byte	0x1a7
 1920 09ab 03       		.byte	0x3
 1921 09ac 1E       		.uleb128 0x1e
 1922 09ad 19060000 		.4byte	.LASF139
 1923 09b1 11       		.byte	0x11
 1924 09b2 B201     		.2byte	0x1b2
 1925 09b4 03       		.byte	0x3
 1926 09b5 20       		.uleb128 0x20
 1927 09b6 41010000 		.4byte	.LASF140
 1928 09ba 01       		.byte	0x1
 1929 09bb 3B       		.byte	0x3b
 1930 09bc 00000000 		.4byte	.LFB255
ARM GAS  C:\Users\jo\AppData\Local\Temp\ccTM2V0a.s 			page 35


 1931 09c0 04000000 		.4byte	.LFE255-.LFB255
 1932 09c4 01       		.uleb128 0x1
 1933 09c5 9C       		.byte	0x9c
 1934 09c6 D4090000 		.4byte	0x9d4
 1935 09ca 21       		.uleb128 0x21
 1936 09cb 04000000 		.4byte	.LVL0
 1937 09cf 3E120000 		.4byte	0x123e
 1938 09d3 00       		.byte	0
 1939 09d4 20       		.uleb128 0x20
 1940 09d5 5D000000 		.4byte	.LASF141
 1941 09d9 01       		.byte	0x1
 1942 09da 47       		.byte	0x47
 1943 09db 00000000 		.4byte	.LFB256
 1944 09df 0E000000 		.4byte	.LFE256-.LFB256
 1945 09e3 01       		.uleb128 0x1
 1946 09e4 9C       		.byte	0x9c
 1947 09e5 F7090000 		.4byte	0x9f7
 1948 09e9 22       		.uleb128 0x22
 1949 09ea C4020000 		.4byte	.LASF143
 1950 09ee 01       		.byte	0x1
 1951 09ef 47       		.byte	0x47
 1952 09f0 58080000 		.4byte	0x858
 1953 09f4 01       		.uleb128 0x1
 1954 09f5 50       		.byte	0x50
 1955 09f6 00       		.byte	0
 1956 09f7 20       		.uleb128 0x20
 1957 09f8 D5030000 		.4byte	.LASF142
 1958 09fc 01       		.byte	0x1
 1959 09fd 5B       		.byte	0x5b
 1960 09fe 00000000 		.4byte	.LFB257
 1961 0a02 1C000000 		.4byte	.LFE257-.LFB257
 1962 0a06 01       		.uleb128 0x1
 1963 0a07 9C       		.byte	0x9c
 1964 0a08 ED0A0000 		.4byte	0xaed
 1965 0a0c 23       		.uleb128 0x23
 1966 0a0d C4020000 		.4byte	.LASF143
 1967 0a11 01       		.byte	0x1
 1968 0a12 5B       		.byte	0x5b
 1969 0a13 58080000 		.4byte	0x858
 1970 0a17 00000000 		.4byte	.LLST0
 1971 0a1b 23       		.uleb128 0x23
 1972 0a1c A3060000 		.4byte	.LASF116
 1973 0a20 01       		.byte	0x1
 1974 0a21 5B       		.byte	0x5b
 1975 0a22 2D090000 		.4byte	0x92d
 1976 0a26 1E000000 		.4byte	.LLST1
 1977 0a2a 24       		.uleb128 0x24
 1978 0a2b FC050000 		.4byte	.LASF145
 1979 0a2f FD0A0000 		.4byte	0xafd
 1980 0a33 25       		.uleb128 0x25
 1981 0a34 A3090000 		.4byte	0x9a3
 1982 0a38 02000000 		.4byte	.LBB102
 1983 0a3c 00000000 		.4byte	.Ldebug_ranges0+0
 1984 0a40 01       		.byte	0x1
 1985 0a41 5F       		.byte	0x5f
 1986 0a42 800A0000 		.4byte	0xa80
 1987 0a46 26       		.uleb128 0x26
ARM GAS  C:\Users\jo\AppData\Local\Temp\ccTM2V0a.s 			page 36


 1988 0a47 6A090000 		.4byte	0x96a
 1989 0a4b 02000000 		.4byte	.LBB103
 1990 0a4f 00000000 		.4byte	.Ldebug_ranges0+0
 1991 0a53 11       		.byte	0x11
 1992 0a54 A901     		.2byte	0x1a9
 1993 0a56 26       		.uleb128 0x26
 1994 0a57 58090000 		.4byte	0x958
 1995 0a5b 02000000 		.4byte	.LBB104
 1996 0a5f 00000000 		.4byte	.Ldebug_ranges0+0
 1997 0a63 10       		.byte	0x10
 1998 0a64 2B01     		.2byte	0x12b
 1999 0a66 26       		.uleb128 0x26
 2000 0a67 3E090000 		.4byte	0x93e
 2001 0a6b 02000000 		.4byte	.LBB105
 2002 0a6f 00000000 		.4byte	.Ldebug_ranges0+0
 2003 0a73 0B       		.byte	0xb
 2004 0a74 BE01     		.2byte	0x1be
 2005 0a76 27       		.uleb128 0x27
 2006 0a77 4B090000 		.4byte	0x94b
 2007 0a7b 20       		.byte	0x20
 2008 0a7c 00       		.byte	0
 2009 0a7d 00       		.byte	0
 2010 0a7e 00       		.byte	0
 2011 0a7f 00       		.byte	0
 2012 0a80 28       		.uleb128 0x28
 2013 0a81 AC090000 		.4byte	0x9ac
 2014 0a85 14000000 		.4byte	.LBB112
 2015 0a89 08000000 		.4byte	.LBE112-.LBB112
 2016 0a8d 01       		.byte	0x1
 2017 0a8e 66       		.byte	0x66
 2018 0a8f DC0A0000 		.4byte	0xadc
 2019 0a93 29       		.uleb128 0x29
 2020 0a94 73090000 		.4byte	0x973
 2021 0a98 14000000 		.4byte	.LBB113
 2022 0a9c 08000000 		.4byte	.LBE113-.LBB113
 2023 0aa0 11       		.byte	0x11
 2024 0aa1 B401     		.2byte	0x1b4
 2025 0aa3 2A       		.uleb128 0x2a
 2026 0aa4 14000000 		.4byte	.LBB114
 2027 0aa8 08000000 		.4byte	.LBE114-.LBB114
 2028 0aac 2B       		.uleb128 0x2b
 2029 0aad 80090000 		.4byte	0x980
 2030 0ab1 29       		.uleb128 0x29
 2031 0ab2 61090000 		.4byte	0x961
 2032 0ab6 14000000 		.4byte	.LBB115
 2033 0aba 08000000 		.4byte	.LBE115-.LBB115
 2034 0abe 10       		.byte	0x10
 2035 0abf 4101     		.2byte	0x141
 2036 0ac1 29       		.uleb128 0x29
 2037 0ac2 3E090000 		.4byte	0x93e
 2038 0ac6 14000000 		.4byte	.LBB116
 2039 0aca 08000000 		.4byte	.LBE116-.LBB116
 2040 0ace 0B       		.byte	0xb
 2041 0acf CC01     		.2byte	0x1cc
 2042 0ad1 27       		.uleb128 0x27
 2043 0ad2 4B090000 		.4byte	0x94b
 2044 0ad6 00       		.byte	0
ARM GAS  C:\Users\jo\AppData\Local\Temp\ccTM2V0a.s 			page 37


 2045 0ad7 00       		.byte	0
 2046 0ad8 00       		.byte	0
 2047 0ad9 00       		.byte	0
 2048 0ada 00       		.byte	0
 2049 0adb 00       		.byte	0
 2050 0adc 2C       		.uleb128 0x2c
 2051 0add 10000000 		.4byte	.LVL3
 2052 0ae1 46120000 		.4byte	0x1246
 2053 0ae5 2D       		.uleb128 0x2d
 2054 0ae6 01       		.uleb128 0x1
 2055 0ae7 50       		.byte	0x50
 2056 0ae8 02       		.uleb128 0x2
 2057 0ae9 74       		.byte	0x74
 2058 0aea 00       		.sleb128 0
 2059 0aeb 00       		.byte	0
 2060 0aec 00       		.byte	0
 2061 0aed 18       		.uleb128 0x18
 2062 0aee 41060000 		.4byte	0x641
 2063 0af2 FD0A0000 		.4byte	0xafd
 2064 0af6 19       		.uleb128 0x19
 2065 0af7 55040000 		.4byte	0x455
 2066 0afb 09       		.byte	0x9
 2067 0afc 00       		.byte	0
 2068 0afd 13       		.uleb128 0x13
 2069 0afe ED0A0000 		.4byte	0xaed
 2070 0b02 20       		.uleb128 0x20
 2071 0b03 74060000 		.4byte	.LASF144
 2072 0b07 01       		.byte	0x1
 2073 0b08 70       		.byte	0x70
 2074 0b09 00000000 		.4byte	.LFB258
 2075 0b0d 1E000000 		.4byte	.LFE258-.LFB258
 2076 0b11 01       		.uleb128 0x1
 2077 0b12 9C       		.byte	0x9c
 2078 0b13 E90B0000 		.4byte	0xbe9
 2079 0b17 23       		.uleb128 0x23
 2080 0b18 C4020000 		.4byte	.LASF143
 2081 0b1c 01       		.byte	0x1
 2082 0b1d 70       		.byte	0x70
 2083 0b1e 58080000 		.4byte	0x858
 2084 0b22 3F000000 		.4byte	.LLST2
 2085 0b26 24       		.uleb128 0x24
 2086 0b27 FC050000 		.4byte	.LASF145
 2087 0b2b F90B0000 		.4byte	0xbf9
 2088 0b2f 25       		.uleb128 0x25
 2089 0b30 A3090000 		.4byte	0x9a3
 2090 0b34 02000000 		.4byte	.LBB118
 2091 0b38 18000000 		.4byte	.Ldebug_ranges0+0x18
 2092 0b3c 01       		.byte	0x1
 2093 0b3d 74       		.byte	0x74
 2094 0b3e 7C0B0000 		.4byte	0xb7c
 2095 0b42 26       		.uleb128 0x26
 2096 0b43 6A090000 		.4byte	0x96a
 2097 0b47 02000000 		.4byte	.LBB119
 2098 0b4b 18000000 		.4byte	.Ldebug_ranges0+0x18
 2099 0b4f 11       		.byte	0x11
 2100 0b50 A901     		.2byte	0x1a9
 2101 0b52 26       		.uleb128 0x26
ARM GAS  C:\Users\jo\AppData\Local\Temp\ccTM2V0a.s 			page 38


 2102 0b53 58090000 		.4byte	0x958
 2103 0b57 02000000 		.4byte	.LBB120
 2104 0b5b 18000000 		.4byte	.Ldebug_ranges0+0x18
 2105 0b5f 10       		.byte	0x10
 2106 0b60 2B01     		.2byte	0x12b
 2107 0b62 26       		.uleb128 0x26
 2108 0b63 3E090000 		.4byte	0x93e
 2109 0b67 02000000 		.4byte	.LBB121
 2110 0b6b 18000000 		.4byte	.Ldebug_ranges0+0x18
 2111 0b6f 0B       		.byte	0xb
 2112 0b70 BE01     		.2byte	0x1be
 2113 0b72 27       		.uleb128 0x27
 2114 0b73 4B090000 		.4byte	0x94b
 2115 0b77 20       		.byte	0x20
 2116 0b78 00       		.byte	0
 2117 0b79 00       		.byte	0
 2118 0b7a 00       		.byte	0
 2119 0b7b 00       		.byte	0
 2120 0b7c 28       		.uleb128 0x28
 2121 0b7d AC090000 		.4byte	0x9ac
 2122 0b81 18000000 		.4byte	.LBB128
 2123 0b85 06000000 		.4byte	.LBE128-.LBB128
 2124 0b89 01       		.byte	0x1
 2125 0b8a 7C       		.byte	0x7c
 2126 0b8b D80B0000 		.4byte	0xbd8
 2127 0b8f 29       		.uleb128 0x29
 2128 0b90 73090000 		.4byte	0x973
 2129 0b94 18000000 		.4byte	.LBB129
 2130 0b98 06000000 		.4byte	.LBE129-.LBB129
 2131 0b9c 11       		.byte	0x11
 2132 0b9d B401     		.2byte	0x1b4
 2133 0b9f 2A       		.uleb128 0x2a
 2134 0ba0 18000000 		.4byte	.LBB130
 2135 0ba4 06000000 		.4byte	.LBE130-.LBB130
 2136 0ba8 2B       		.uleb128 0x2b
 2137 0ba9 80090000 		.4byte	0x980
 2138 0bad 29       		.uleb128 0x29
 2139 0bae 61090000 		.4byte	0x961
 2140 0bb2 18000000 		.4byte	.LBB131
 2141 0bb6 06000000 		.4byte	.LBE131-.LBB131
 2142 0bba 10       		.byte	0x10
 2143 0bbb 4101     		.2byte	0x141
 2144 0bbd 29       		.uleb128 0x29
 2145 0bbe 3E090000 		.4byte	0x93e
 2146 0bc2 18000000 		.4byte	.LBB132
 2147 0bc6 06000000 		.4byte	.LBE132-.LBB132
 2148 0bca 0B       		.byte	0xb
 2149 0bcb CC01     		.2byte	0x1cc
 2150 0bcd 27       		.uleb128 0x27
 2151 0bce 4B090000 		.4byte	0x94b
 2152 0bd2 00       		.byte	0
 2153 0bd3 00       		.byte	0
 2154 0bd4 00       		.byte	0
 2155 0bd5 00       		.byte	0
 2156 0bd6 00       		.byte	0
 2157 0bd7 00       		.byte	0
 2158 0bd8 2C       		.uleb128 0x2c
ARM GAS  C:\Users\jo\AppData\Local\Temp\ccTM2V0a.s 			page 39


 2159 0bd9 0E000000 		.4byte	.LVL6
 2160 0bdd 58120000 		.4byte	0x1258
 2161 0be1 2D       		.uleb128 0x2d
 2162 0be2 01       		.uleb128 0x1
 2163 0be3 50       		.byte	0x50
 2164 0be4 02       		.uleb128 0x2
 2165 0be5 74       		.byte	0x74
 2166 0be6 00       		.sleb128 0
 2167 0be7 00       		.byte	0
 2168 0be8 00       		.byte	0
 2169 0be9 18       		.uleb128 0x18
 2170 0bea 41060000 		.4byte	0x641
 2171 0bee F90B0000 		.4byte	0xbf9
 2172 0bf2 19       		.uleb128 0x19
 2173 0bf3 55040000 		.4byte	0x455
 2174 0bf7 08       		.byte	0x8
 2175 0bf8 00       		.byte	0
 2176 0bf9 13       		.uleb128 0x13
 2177 0bfa E90B0000 		.4byte	0xbe9
 2178 0bfe 20       		.uleb128 0x20
 2179 0bff B8010000 		.4byte	.LASF146
 2180 0c03 01       		.byte	0x1
 2181 0c04 8A       		.byte	0x8a
 2182 0c05 00000000 		.4byte	.LFB259
 2183 0c09 1A000000 		.4byte	.LFE259-.LFB259
 2184 0c0d 01       		.uleb128 0x1
 2185 0c0e 9C       		.byte	0x9c
 2186 0c0f 0F0D0000 		.4byte	0xd0f
 2187 0c13 23       		.uleb128 0x23
 2188 0c14 C4020000 		.4byte	.LASF143
 2189 0c18 01       		.byte	0x1
 2190 0c19 8A       		.byte	0x8a
 2191 0c1a 58080000 		.4byte	0x858
 2192 0c1e 5D000000 		.4byte	.LLST3
 2193 0c22 2E       		.uleb128 0x2e
 2194 0c23 6E00     		.ascii	"n\000"
 2195 0c25 01       		.byte	0x1
 2196 0c26 8A       		.byte	0x8a
 2197 0c27 2C000000 		.4byte	0x2c
 2198 0c2b 7B000000 		.4byte	.LLST4
 2199 0c2f 23       		.uleb128 0x23
 2200 0c30 5A020000 		.4byte	.LASF147
 2201 0c34 01       		.byte	0x1
 2202 0c35 8A       		.byte	0x8a
 2203 0c36 0F0D0000 		.4byte	0xd0f
 2204 0c3a 9C000000 		.4byte	.LLST5
 2205 0c3e 24       		.uleb128 0x24
 2206 0c3f FC050000 		.4byte	.LASF145
 2207 0c43 260D0000 		.4byte	0xd26
 2208 0c47 25       		.uleb128 0x25
 2209 0c48 A3090000 		.4byte	0x9a3
 2210 0c4c 02000000 		.4byte	.LBB134
 2211 0c50 30000000 		.4byte	.Ldebug_ranges0+0x30
 2212 0c54 01       		.byte	0x1
 2213 0c55 8E       		.byte	0x8e
 2214 0c56 940C0000 		.4byte	0xc94
 2215 0c5a 26       		.uleb128 0x26
ARM GAS  C:\Users\jo\AppData\Local\Temp\ccTM2V0a.s 			page 40


 2216 0c5b 6A090000 		.4byte	0x96a
 2217 0c5f 02000000 		.4byte	.LBB135
 2218 0c63 30000000 		.4byte	.Ldebug_ranges0+0x30
 2219 0c67 11       		.byte	0x11
 2220 0c68 A901     		.2byte	0x1a9
 2221 0c6a 26       		.uleb128 0x26
 2222 0c6b 58090000 		.4byte	0x958
 2223 0c6f 02000000 		.4byte	.LBB136
 2224 0c73 30000000 		.4byte	.Ldebug_ranges0+0x30
 2225 0c77 10       		.byte	0x10
 2226 0c78 2B01     		.2byte	0x12b
 2227 0c7a 26       		.uleb128 0x26
 2228 0c7b 3E090000 		.4byte	0x93e
 2229 0c7f 02000000 		.4byte	.LBB137
 2230 0c83 30000000 		.4byte	.Ldebug_ranges0+0x30
 2231 0c87 0B       		.byte	0xb
 2232 0c88 BE01     		.2byte	0x1be
 2233 0c8a 27       		.uleb128 0x27
 2234 0c8b 4B090000 		.4byte	0x94b
 2235 0c8f 20       		.byte	0x20
 2236 0c90 00       		.byte	0
 2237 0c91 00       		.byte	0
 2238 0c92 00       		.byte	0
 2239 0c93 00       		.byte	0
 2240 0c94 28       		.uleb128 0x28
 2241 0c95 AC090000 		.4byte	0x9ac
 2242 0c99 12000000 		.4byte	.LBB144
 2243 0c9d 08000000 		.4byte	.LBE144-.LBB144
 2244 0ca1 01       		.byte	0x1
 2245 0ca2 94       		.byte	0x94
 2246 0ca3 F00C0000 		.4byte	0xcf0
 2247 0ca7 29       		.uleb128 0x29
 2248 0ca8 73090000 		.4byte	0x973
 2249 0cac 12000000 		.4byte	.LBB145
 2250 0cb0 08000000 		.4byte	.LBE145-.LBB145
 2251 0cb4 11       		.byte	0x11
 2252 0cb5 B401     		.2byte	0x1b4
 2253 0cb7 2A       		.uleb128 0x2a
 2254 0cb8 12000000 		.4byte	.LBB146
 2255 0cbc 08000000 		.4byte	.LBE146-.LBB146
 2256 0cc0 2B       		.uleb128 0x2b
 2257 0cc1 80090000 		.4byte	0x980
 2258 0cc5 29       		.uleb128 0x29
 2259 0cc6 61090000 		.4byte	0x961
 2260 0cca 12000000 		.4byte	.LBB147
 2261 0cce 08000000 		.4byte	.LBE147-.LBB147
 2262 0cd2 10       		.byte	0x10
 2263 0cd3 4101     		.2byte	0x141
 2264 0cd5 29       		.uleb128 0x29
 2265 0cd6 3E090000 		.4byte	0x93e
 2266 0cda 12000000 		.4byte	.LBB148
 2267 0cde 08000000 		.4byte	.LBE148-.LBB148
 2268 0ce2 0B       		.byte	0xb
 2269 0ce3 CC01     		.2byte	0x1cc
 2270 0ce5 27       		.uleb128 0x27
 2271 0ce6 4B090000 		.4byte	0x94b
 2272 0cea 00       		.byte	0
ARM GAS  C:\Users\jo\AppData\Local\Temp\ccTM2V0a.s 			page 41


 2273 0ceb 00       		.byte	0
 2274 0cec 00       		.byte	0
 2275 0ced 00       		.byte	0
 2276 0cee 00       		.byte	0
 2277 0cef 00       		.byte	0
 2278 0cf0 2C       		.uleb128 0x2c
 2279 0cf1 0E000000 		.4byte	.LVL9
 2280 0cf5 6A120000 		.4byte	0x126a
 2281 0cf9 2D       		.uleb128 0x2d
 2282 0cfa 01       		.uleb128 0x1
 2283 0cfb 52       		.byte	0x52
 2284 0cfc 03       		.uleb128 0x3
 2285 0cfd F3       		.byte	0xf3
 2286 0cfe 01       		.uleb128 0x1
 2287 0cff 52       		.byte	0x52
 2288 0d00 2D       		.uleb128 0x2d
 2289 0d01 01       		.uleb128 0x1
 2290 0d02 51       		.byte	0x51
 2291 0d03 03       		.uleb128 0x3
 2292 0d04 F3       		.byte	0xf3
 2293 0d05 01       		.uleb128 0x1
 2294 0d06 51       		.byte	0x51
 2295 0d07 2D       		.uleb128 0x2d
 2296 0d08 01       		.uleb128 0x1
 2297 0d09 50       		.byte	0x50
 2298 0d0a 02       		.uleb128 0x2
 2299 0d0b 74       		.byte	0x74
 2300 0d0c 00       		.sleb128 0
 2301 0d0d 00       		.byte	0
 2302 0d0e 00       		.byte	0
 2303 0d0f 0B       		.uleb128 0xb
 2304 0d10 04       		.byte	0x4
 2305 0d11 150D0000 		.4byte	0xd15
 2306 0d15 2F       		.uleb128 0x2f
 2307 0d16 18       		.uleb128 0x18
 2308 0d17 41060000 		.4byte	0x641
 2309 0d1b 260D0000 		.4byte	0xd26
 2310 0d1f 19       		.uleb128 0x19
 2311 0d20 55040000 		.4byte	0x455
 2312 0d24 0D       		.byte	0xd
 2313 0d25 00       		.byte	0
 2314 0d26 13       		.uleb128 0x13
 2315 0d27 160D0000 		.4byte	0xd16
 2316 0d2b 20       		.uleb128 0x20
 2317 0d2c BF070000 		.4byte	.LASF148
 2318 0d30 01       		.byte	0x1
 2319 0d31 A3       		.byte	0xa3
 2320 0d32 00000000 		.4byte	.LFB260
 2321 0d36 0E000000 		.4byte	.LFE260-.LFB260
 2322 0d3a 01       		.uleb128 0x1
 2323 0d3b 9C       		.byte	0x9c
 2324 0d3c 930D0000 		.4byte	0xd93
 2325 0d40 23       		.uleb128 0x23
 2326 0d41 C4020000 		.4byte	.LASF143
 2327 0d45 01       		.byte	0x1
 2328 0d46 A3       		.byte	0xa3
 2329 0d47 58080000 		.4byte	0x858
ARM GAS  C:\Users\jo\AppData\Local\Temp\ccTM2V0a.s 			page 42


 2330 0d4b BD000000 		.4byte	.LLST6
 2331 0d4f 2E       		.uleb128 0x2e
 2332 0d50 6E00     		.ascii	"n\000"
 2333 0d52 01       		.byte	0x1
 2334 0d53 A3       		.byte	0xa3
 2335 0d54 2C000000 		.4byte	0x2c
 2336 0d58 DB000000 		.4byte	.LLST7
 2337 0d5c 23       		.uleb128 0x23
 2338 0d5d 5A020000 		.4byte	.LASF147
 2339 0d61 01       		.byte	0x1
 2340 0d62 A3       		.byte	0xa3
 2341 0d63 0F0D0000 		.4byte	0xd0f
 2342 0d67 FC000000 		.4byte	.LLST8
 2343 0d6b 24       		.uleb128 0x24
 2344 0d6c FC050000 		.4byte	.LASF145
 2345 0d70 A30D0000 		.4byte	0xda3
 2346 0d74 2C       		.uleb128 0x2c
 2347 0d75 08000000 		.4byte	.LVL12
 2348 0d79 6A120000 		.4byte	0x126a
 2349 0d7d 2D       		.uleb128 0x2d
 2350 0d7e 01       		.uleb128 0x1
 2351 0d7f 52       		.byte	0x52
 2352 0d80 03       		.uleb128 0x3
 2353 0d81 F3       		.byte	0xf3
 2354 0d82 01       		.uleb128 0x1
 2355 0d83 52       		.byte	0x52
 2356 0d84 2D       		.uleb128 0x2d
 2357 0d85 01       		.uleb128 0x1
 2358 0d86 51       		.byte	0x51
 2359 0d87 03       		.uleb128 0x3
 2360 0d88 F3       		.byte	0xf3
 2361 0d89 01       		.uleb128 0x1
 2362 0d8a 51       		.byte	0x51
 2363 0d8b 2D       		.uleb128 0x2d
 2364 0d8c 01       		.uleb128 0x1
 2365 0d8d 50       		.byte	0x50
 2366 0d8e 02       		.uleb128 0x2
 2367 0d8f 74       		.byte	0x74
 2368 0d90 00       		.sleb128 0
 2369 0d91 00       		.byte	0
 2370 0d92 00       		.byte	0
 2371 0d93 18       		.uleb128 0x18
 2372 0d94 41060000 		.4byte	0x641
 2373 0d98 A30D0000 		.4byte	0xda3
 2374 0d9c 19       		.uleb128 0x19
 2375 0d9d 55040000 		.4byte	0x455
 2376 0da1 0E       		.byte	0xe
 2377 0da2 00       		.byte	0
 2378 0da3 13       		.uleb128 0x13
 2379 0da4 930D0000 		.4byte	0xd93
 2380 0da8 30       		.uleb128 0x30
 2381 0da9 99030000 		.4byte	.LASF149
 2382 0dad 01       		.byte	0x1
 2383 0dae BA       		.byte	0xba
 2384 0daf 2C000000 		.4byte	0x2c
 2385 0db3 00000000 		.4byte	.LFB261
 2386 0db7 2A000000 		.4byte	.LFE261-.LFB261
ARM GAS  C:\Users\jo\AppData\Local\Temp\ccTM2V0a.s 			page 43


 2387 0dbb 01       		.uleb128 0x1
 2388 0dbc 9C       		.byte	0x9c
 2389 0dbd 9F0E0000 		.4byte	0xe9f
 2390 0dc1 23       		.uleb128 0x23
 2391 0dc2 C4020000 		.4byte	.LASF143
 2392 0dc6 01       		.byte	0x1
 2393 0dc7 BA       		.byte	0xba
 2394 0dc8 58080000 		.4byte	0x858
 2395 0dcc 1D010000 		.4byte	.LLST9
 2396 0dd0 31       		.uleb128 0x31
 2397 0dd1 6E00     		.ascii	"n\000"
 2398 0dd3 01       		.byte	0x1
 2399 0dd4 BB       		.byte	0xbb
 2400 0dd5 2C000000 		.4byte	0x2c
 2401 0dd9 54010000 		.4byte	.LLST10
 2402 0ddd 24       		.uleb128 0x24
 2403 0dde FC050000 		.4byte	.LASF145
 2404 0de2 AF0E0000 		.4byte	0xeaf
 2405 0de6 28       		.uleb128 0x28
 2406 0de7 A3090000 		.4byte	0x9a3
 2407 0deb 00000000 		.4byte	.LBB150
 2408 0def 06000000 		.4byte	.LBE150-.LBB150
 2409 0df3 01       		.byte	0x1
 2410 0df4 BF       		.byte	0xbf
 2411 0df5 330E0000 		.4byte	0xe33
 2412 0df9 29       		.uleb128 0x29
 2413 0dfa 6A090000 		.4byte	0x96a
 2414 0dfe 00000000 		.4byte	.LBB151
 2415 0e02 06000000 		.4byte	.LBE151-.LBB151
 2416 0e06 11       		.byte	0x11
 2417 0e07 A901     		.2byte	0x1a9
 2418 0e09 29       		.uleb128 0x29
 2419 0e0a 58090000 		.4byte	0x958
 2420 0e0e 00000000 		.4byte	.LBB152
 2421 0e12 06000000 		.4byte	.LBE152-.LBB152
 2422 0e16 10       		.byte	0x10
 2423 0e17 2B01     		.2byte	0x12b
 2424 0e19 29       		.uleb128 0x29
 2425 0e1a 3E090000 		.4byte	0x93e
 2426 0e1e 00000000 		.4byte	.LBB153
 2427 0e22 06000000 		.4byte	.LBE153-.LBB153
 2428 0e26 0B       		.byte	0xb
 2429 0e27 BE01     		.2byte	0x1be
 2430 0e29 27       		.uleb128 0x27
 2431 0e2a 4B090000 		.4byte	0x94b
 2432 0e2e 20       		.byte	0x20
 2433 0e2f 00       		.byte	0
 2434 0e30 00       		.byte	0
 2435 0e31 00       		.byte	0
 2436 0e32 00       		.byte	0
 2437 0e33 25       		.uleb128 0x25
 2438 0e34 AC090000 		.4byte	0x9ac
 2439 0e38 0E000000 		.4byte	.LBB155
 2440 0e3c 48000000 		.4byte	.Ldebug_ranges0+0x48
 2441 0e40 01       		.byte	0x1
 2442 0e41 C8       		.byte	0xc8
 2443 0e42 8E0E0000 		.4byte	0xe8e
ARM GAS  C:\Users\jo\AppData\Local\Temp\ccTM2V0a.s 			page 44


 2444 0e46 26       		.uleb128 0x26
 2445 0e47 73090000 		.4byte	0x973
 2446 0e4b 0E000000 		.4byte	.LBB156
 2447 0e4f 48000000 		.4byte	.Ldebug_ranges0+0x48
 2448 0e53 11       		.byte	0x11
 2449 0e54 B401     		.2byte	0x1b4
 2450 0e56 32       		.uleb128 0x32
 2451 0e57 48000000 		.4byte	.Ldebug_ranges0+0x48
 2452 0e5b 2B       		.uleb128 0x2b
 2453 0e5c 80090000 		.4byte	0x980
 2454 0e60 26       		.uleb128 0x26
 2455 0e61 61090000 		.4byte	0x961
 2456 0e65 0E000000 		.4byte	.LBB158
 2457 0e69 48000000 		.4byte	.Ldebug_ranges0+0x48
 2458 0e6d 10       		.byte	0x10
 2459 0e6e 4101     		.2byte	0x141
 2460 0e70 26       		.uleb128 0x26
 2461 0e71 3E090000 		.4byte	0x93e
 2462 0e75 0E000000 		.4byte	.LBB159
 2463 0e79 48000000 		.4byte	.Ldebug_ranges0+0x48
 2464 0e7d 0B       		.byte	0xb
 2465 0e7e CC01     		.2byte	0x1cc
 2466 0e80 33       		.uleb128 0x33
 2467 0e81 4B090000 		.4byte	0x94b
 2468 0e85 72010000 		.4byte	.LLST11
 2469 0e89 00       		.byte	0
 2470 0e8a 00       		.byte	0
 2471 0e8b 00       		.byte	0
 2472 0e8c 00       		.byte	0
 2473 0e8d 00       		.byte	0
 2474 0e8e 2C       		.uleb128 0x2c
 2475 0e8f 1E000000 		.4byte	.LVL16
 2476 0e93 86120000 		.4byte	0x1286
 2477 0e97 2D       		.uleb128 0x2d
 2478 0e98 01       		.uleb128 0x1
 2479 0e99 50       		.byte	0x50
 2480 0e9a 02       		.uleb128 0x2
 2481 0e9b 74       		.byte	0x74
 2482 0e9c 00       		.sleb128 0
 2483 0e9d 00       		.byte	0
 2484 0e9e 00       		.byte	0
 2485 0e9f 18       		.uleb128 0x18
 2486 0ea0 41060000 		.4byte	0x641
 2487 0ea4 AF0E0000 		.4byte	0xeaf
 2488 0ea8 19       		.uleb128 0x19
 2489 0ea9 55040000 		.4byte	0x455
 2490 0ead 0C       		.byte	0xc
 2491 0eae 00       		.byte	0
 2492 0eaf 13       		.uleb128 0x13
 2493 0eb0 9F0E0000 		.4byte	0xe9f
 2494 0eb4 30       		.uleb128 0x30
 2495 0eb5 50030000 		.4byte	.LASF150
 2496 0eb9 01       		.byte	0x1
 2497 0eba D9       		.byte	0xd9
 2498 0ebb 2C000000 		.4byte	0x2c
 2499 0ebf 00000000 		.4byte	.LFB262
 2500 0ec3 18000000 		.4byte	.LFE262-.LFB262
ARM GAS  C:\Users\jo\AppData\Local\Temp\ccTM2V0a.s 			page 45


 2501 0ec7 01       		.uleb128 0x1
 2502 0ec8 9C       		.byte	0x9c
 2503 0ec9 0B0F0000 		.4byte	0xf0b
 2504 0ecd 23       		.uleb128 0x23
 2505 0ece C4020000 		.4byte	.LASF143
 2506 0ed2 01       		.byte	0x1
 2507 0ed3 D9       		.byte	0xd9
 2508 0ed4 58080000 		.4byte	0x858
 2509 0ed8 92010000 		.4byte	.LLST12
 2510 0edc 24       		.uleb128 0x24
 2511 0edd FC050000 		.4byte	.LASF145
 2512 0ee1 0B0F0000 		.4byte	0xf0b
 2513 0ee5 2A       		.uleb128 0x2a
 2514 0ee6 0E000000 		.4byte	.LBB167
 2515 0eea 0A000000 		.4byte	.LBE167-.LBB167
 2516 0eee 34       		.uleb128 0x34
 2517 0eef 6E00     		.ascii	"n\000"
 2518 0ef1 01       		.byte	0x1
 2519 0ef2 E0       		.byte	0xe0
 2520 0ef3 2C000000 		.4byte	0x2c
 2521 0ef7 01       		.uleb128 0x1
 2522 0ef8 50       		.byte	0x50
 2523 0ef9 2C       		.uleb128 0x2c
 2524 0efa 12000000 		.4byte	.LVL21
 2525 0efe 86120000 		.4byte	0x1286
 2526 0f02 2D       		.uleb128 0x2d
 2527 0f03 01       		.uleb128 0x1
 2528 0f04 50       		.byte	0x50
 2529 0f05 02       		.uleb128 0x2
 2530 0f06 74       		.byte	0x74
 2531 0f07 00       		.sleb128 0
 2532 0f08 00       		.byte	0
 2533 0f09 00       		.byte	0
 2534 0f0a 00       		.byte	0
 2535 0f0b 13       		.uleb128 0x13
 2536 0f0c 160D0000 		.4byte	0xd16
 2537 0f10 20       		.uleb128 0x20
 2538 0f11 3C080000 		.4byte	.LASF151
 2539 0f15 01       		.byte	0x1
 2540 0f16 F2       		.byte	0xf2
 2541 0f17 00000000 		.4byte	.LFB263
 2542 0f1b 1A000000 		.4byte	.LFE263-.LFB263
 2543 0f1f 01       		.uleb128 0x1
 2544 0f20 9C       		.byte	0x9c
 2545 0f21 21100000 		.4byte	0x1021
 2546 0f25 23       		.uleb128 0x23
 2547 0f26 C4020000 		.4byte	.LASF143
 2548 0f2a 01       		.byte	0x1
 2549 0f2b F2       		.byte	0xf2
 2550 0f2c 58080000 		.4byte	0x858
 2551 0f30 C9010000 		.4byte	.LLST13
 2552 0f34 2E       		.uleb128 0x2e
 2553 0f35 6E00     		.ascii	"n\000"
 2554 0f37 01       		.byte	0x1
 2555 0f38 F2       		.byte	0xf2
 2556 0f39 2C000000 		.4byte	0x2c
 2557 0f3d E7010000 		.4byte	.LLST14
ARM GAS  C:\Users\jo\AppData\Local\Temp\ccTM2V0a.s 			page 46


 2558 0f41 23       		.uleb128 0x23
 2559 0f42 87000000 		.4byte	.LASF118
 2560 0f46 01       		.byte	0x1
 2561 0f47 F2       		.byte	0xf2
 2562 0f48 1F030000 		.4byte	0x31f
 2563 0f4c 08020000 		.4byte	.LLST15
 2564 0f50 24       		.uleb128 0x24
 2565 0f51 FC050000 		.4byte	.LASF145
 2566 0f55 31100000 		.4byte	0x1031
 2567 0f59 25       		.uleb128 0x25
 2568 0f5a A3090000 		.4byte	0x9a3
 2569 0f5e 02000000 		.4byte	.LBB168
 2570 0f62 60000000 		.4byte	.Ldebug_ranges0+0x60
 2571 0f66 01       		.byte	0x1
 2572 0f67 F6       		.byte	0xf6
 2573 0f68 A60F0000 		.4byte	0xfa6
 2574 0f6c 26       		.uleb128 0x26
 2575 0f6d 6A090000 		.4byte	0x96a
 2576 0f71 02000000 		.4byte	.LBB169
 2577 0f75 60000000 		.4byte	.Ldebug_ranges0+0x60
 2578 0f79 11       		.byte	0x11
 2579 0f7a A901     		.2byte	0x1a9
 2580 0f7c 26       		.uleb128 0x26
 2581 0f7d 58090000 		.4byte	0x958
 2582 0f81 02000000 		.4byte	.LBB170
 2583 0f85 60000000 		.4byte	.Ldebug_ranges0+0x60
 2584 0f89 10       		.byte	0x10
 2585 0f8a 2B01     		.2byte	0x12b
 2586 0f8c 26       		.uleb128 0x26
 2587 0f8d 3E090000 		.4byte	0x93e
 2588 0f91 02000000 		.4byte	.LBB171
 2589 0f95 60000000 		.4byte	.Ldebug_ranges0+0x60
 2590 0f99 0B       		.byte	0xb
 2591 0f9a BE01     		.2byte	0x1be
 2592 0f9c 27       		.uleb128 0x27
 2593 0f9d 4B090000 		.4byte	0x94b
 2594 0fa1 20       		.byte	0x20
 2595 0fa2 00       		.byte	0
 2596 0fa3 00       		.byte	0
 2597 0fa4 00       		.byte	0
 2598 0fa5 00       		.byte	0
 2599 0fa6 28       		.uleb128 0x28
 2600 0fa7 AC090000 		.4byte	0x9ac
 2601 0fab 12000000 		.4byte	.LBB178
 2602 0faf 08000000 		.4byte	.LBE178-.LBB178
 2603 0fb3 01       		.byte	0x1
 2604 0fb4 FC       		.byte	0xfc
 2605 0fb5 02100000 		.4byte	0x1002
 2606 0fb9 29       		.uleb128 0x29
 2607 0fba 73090000 		.4byte	0x973
 2608 0fbe 12000000 		.4byte	.LBB179
 2609 0fc2 08000000 		.4byte	.LBE179-.LBB179
 2610 0fc6 11       		.byte	0x11
 2611 0fc7 B401     		.2byte	0x1b4
 2612 0fc9 2A       		.uleb128 0x2a
 2613 0fca 12000000 		.4byte	.LBB180
 2614 0fce 08000000 		.4byte	.LBE180-.LBB180
ARM GAS  C:\Users\jo\AppData\Local\Temp\ccTM2V0a.s 			page 47


 2615 0fd2 2B       		.uleb128 0x2b
 2616 0fd3 80090000 		.4byte	0x980
 2617 0fd7 29       		.uleb128 0x29
 2618 0fd8 61090000 		.4byte	0x961
 2619 0fdc 12000000 		.4byte	.LBB181
 2620 0fe0 08000000 		.4byte	.LBE181-.LBB181
 2621 0fe4 10       		.byte	0x10
 2622 0fe5 4101     		.2byte	0x141
 2623 0fe7 29       		.uleb128 0x29
 2624 0fe8 3E090000 		.4byte	0x93e
 2625 0fec 12000000 		.4byte	.LBB182
 2626 0ff0 08000000 		.4byte	.LBE182-.LBB182
 2627 0ff4 0B       		.byte	0xb
 2628 0ff5 CC01     		.2byte	0x1cc
 2629 0ff7 27       		.uleb128 0x27
 2630 0ff8 4B090000 		.4byte	0x94b
 2631 0ffc 00       		.byte	0
 2632 0ffd 00       		.byte	0
 2633 0ffe 00       		.byte	0
 2634 0fff 00       		.byte	0
 2635 1000 00       		.byte	0
 2636 1001 00       		.byte	0
 2637 1002 2C       		.uleb128 0x2c
 2638 1003 0E000000 		.4byte	.LVL23
 2639 1007 9C120000 		.4byte	0x129c
 2640 100b 2D       		.uleb128 0x2d
 2641 100c 01       		.uleb128 0x1
 2642 100d 52       		.byte	0x52
 2643 100e 03       		.uleb128 0x3
 2644 100f F3       		.byte	0xf3
 2645 1010 01       		.uleb128 0x1
 2646 1011 52       		.byte	0x52
 2647 1012 2D       		.uleb128 0x2d
 2648 1013 01       		.uleb128 0x1
 2649 1014 51       		.byte	0x51
 2650 1015 03       		.uleb128 0x3
 2651 1016 F3       		.byte	0xf3
 2652 1017 01       		.uleb128 0x1
 2653 1018 51       		.byte	0x51
 2654 1019 2D       		.uleb128 0x2d
 2655 101a 01       		.uleb128 0x1
 2656 101b 50       		.byte	0x50
 2657 101c 02       		.uleb128 0x2
 2658 101d 74       		.byte	0x74
 2659 101e 00       		.sleb128 0
 2660 101f 00       		.byte	0
 2661 1020 00       		.byte	0
 2662 1021 18       		.uleb128 0x18
 2663 1022 41060000 		.4byte	0x641
 2664 1026 31100000 		.4byte	0x1031
 2665 102a 19       		.uleb128 0x19
 2666 102b 55040000 		.4byte	0x455
 2667 102f 10       		.byte	0x10
 2668 1030 00       		.byte	0
 2669 1031 13       		.uleb128 0x13
 2670 1032 21100000 		.4byte	0x1021
 2671 1036 35       		.uleb128 0x35
ARM GAS  C:\Users\jo\AppData\Local\Temp\ccTM2V0a.s 			page 48


 2672 1037 73050000 		.4byte	.LASF152
 2673 103b 01       		.byte	0x1
 2674 103c 0B01     		.2byte	0x10b
 2675 103e 00000000 		.4byte	.LFB264
 2676 1042 0E000000 		.4byte	.LFE264-.LFB264
 2677 1046 01       		.uleb128 0x1
 2678 1047 9C       		.byte	0x9c
 2679 1048 A2100000 		.4byte	0x10a2
 2680 104c 36       		.uleb128 0x36
 2681 104d C4020000 		.4byte	.LASF143
 2682 1051 01       		.byte	0x1
 2683 1052 0B01     		.2byte	0x10b
 2684 1054 58080000 		.4byte	0x858
 2685 1058 29020000 		.4byte	.LLST16
 2686 105c 37       		.uleb128 0x37
 2687 105d 6E00     		.ascii	"n\000"
 2688 105f 01       		.byte	0x1
 2689 1060 0B01     		.2byte	0x10b
 2690 1062 2C000000 		.4byte	0x2c
 2691 1066 47020000 		.4byte	.LLST17
 2692 106a 36       		.uleb128 0x36
 2693 106b 87000000 		.4byte	.LASF118
 2694 106f 01       		.byte	0x1
 2695 1070 0B01     		.2byte	0x10b
 2696 1072 1F030000 		.4byte	0x31f
 2697 1076 68020000 		.4byte	.LLST18
 2698 107a 24       		.uleb128 0x24
 2699 107b FC050000 		.4byte	.LASF145
 2700 107f B2100000 		.4byte	0x10b2
 2701 1083 2C       		.uleb128 0x2c
 2702 1084 08000000 		.4byte	.LVL26
 2703 1088 9C120000 		.4byte	0x129c
 2704 108c 2D       		.uleb128 0x2d
 2705 108d 01       		.uleb128 0x1
 2706 108e 52       		.byte	0x52
 2707 108f 03       		.uleb128 0x3
 2708 1090 F3       		.byte	0xf3
 2709 1091 01       		.uleb128 0x1
 2710 1092 52       		.byte	0x52
 2711 1093 2D       		.uleb128 0x2d
 2712 1094 01       		.uleb128 0x1
 2713 1095 51       		.byte	0x51
 2714 1096 03       		.uleb128 0x3
 2715 1097 F3       		.byte	0xf3
 2716 1098 01       		.uleb128 0x1
 2717 1099 51       		.byte	0x51
 2718 109a 2D       		.uleb128 0x2d
 2719 109b 01       		.uleb128 0x1
 2720 109c 50       		.byte	0x50
 2721 109d 02       		.uleb128 0x2
 2722 109e 74       		.byte	0x74
 2723 109f 00       		.sleb128 0
 2724 10a0 00       		.byte	0
 2725 10a1 00       		.byte	0
 2726 10a2 18       		.uleb128 0x18
 2727 10a3 41060000 		.4byte	0x641
 2728 10a7 B2100000 		.4byte	0x10b2
ARM GAS  C:\Users\jo\AppData\Local\Temp\ccTM2V0a.s 			page 49


 2729 10ab 19       		.uleb128 0x19
 2730 10ac 55040000 		.4byte	0x455
 2731 10b0 11       		.byte	0x11
 2732 10b1 00       		.byte	0
 2733 10b2 13       		.uleb128 0x13
 2734 10b3 A2100000 		.4byte	0x10a2
 2735 10b7 38       		.uleb128 0x38
 2736 10b8 A8010000 		.4byte	.LASF153
 2737 10bc 01       		.byte	0x1
 2738 10bd 2201     		.2byte	0x122
 2739 10bf 2C000000 		.4byte	0x2c
 2740 10c3 00000000 		.4byte	.LFB265
 2741 10c7 2A000000 		.4byte	.LFE265-.LFB265
 2742 10cb 01       		.uleb128 0x1
 2743 10cc 9C       		.byte	0x9c
 2744 10cd B3110000 		.4byte	0x11b3
 2745 10d1 36       		.uleb128 0x36
 2746 10d2 C4020000 		.4byte	.LASF143
 2747 10d6 01       		.byte	0x1
 2748 10d7 2201     		.2byte	0x122
 2749 10d9 58080000 		.4byte	0x858
 2750 10dd 89020000 		.4byte	.LLST19
 2751 10e1 39       		.uleb128 0x39
 2752 10e2 6E00     		.ascii	"n\000"
 2753 10e4 01       		.byte	0x1
 2754 10e5 2301     		.2byte	0x123
 2755 10e7 2C000000 		.4byte	0x2c
 2756 10eb C0020000 		.4byte	.LLST20
 2757 10ef 24       		.uleb128 0x24
 2758 10f0 FC050000 		.4byte	.LASF145
 2759 10f4 C3110000 		.4byte	0x11c3
 2760 10f8 3A       		.uleb128 0x3a
 2761 10f9 A3090000 		.4byte	0x9a3
 2762 10fd 00000000 		.4byte	.LBB184
 2763 1101 06000000 		.4byte	.LBE184-.LBB184
 2764 1105 01       		.byte	0x1
 2765 1106 2701     		.2byte	0x127
 2766 1108 46110000 		.4byte	0x1146
 2767 110c 29       		.uleb128 0x29
 2768 110d 6A090000 		.4byte	0x96a
 2769 1111 00000000 		.4byte	.LBB185
 2770 1115 06000000 		.4byte	.LBE185-.LBB185
 2771 1119 11       		.byte	0x11
 2772 111a A901     		.2byte	0x1a9
 2773 111c 29       		.uleb128 0x29
 2774 111d 58090000 		.4byte	0x958
 2775 1121 00000000 		.4byte	.LBB186
 2776 1125 06000000 		.4byte	.LBE186-.LBB186
 2777 1129 10       		.byte	0x10
 2778 112a 2B01     		.2byte	0x12b
 2779 112c 29       		.uleb128 0x29
 2780 112d 3E090000 		.4byte	0x93e
 2781 1131 00000000 		.4byte	.LBB187
 2782 1135 06000000 		.4byte	.LBE187-.LBB187
 2783 1139 0B       		.byte	0xb
 2784 113a BE01     		.2byte	0x1be
 2785 113c 27       		.uleb128 0x27
ARM GAS  C:\Users\jo\AppData\Local\Temp\ccTM2V0a.s 			page 50


 2786 113d 4B090000 		.4byte	0x94b
 2787 1141 20       		.byte	0x20
 2788 1142 00       		.byte	0
 2789 1143 00       		.byte	0
 2790 1144 00       		.byte	0
 2791 1145 00       		.byte	0
 2792 1146 3B       		.uleb128 0x3b
 2793 1147 AC090000 		.4byte	0x9ac
 2794 114b 0E000000 		.4byte	.LBB189
 2795 114f 78000000 		.4byte	.Ldebug_ranges0+0x78
 2796 1153 01       		.byte	0x1
 2797 1154 3001     		.2byte	0x130
 2798 1156 A2110000 		.4byte	0x11a2
 2799 115a 26       		.uleb128 0x26
 2800 115b 73090000 		.4byte	0x973
 2801 115f 0E000000 		.4byte	.LBB190
 2802 1163 78000000 		.4byte	.Ldebug_ranges0+0x78
 2803 1167 11       		.byte	0x11
 2804 1168 B401     		.2byte	0x1b4
 2805 116a 32       		.uleb128 0x32
 2806 116b 78000000 		.4byte	.Ldebug_ranges0+0x78
 2807 116f 2B       		.uleb128 0x2b
 2808 1170 80090000 		.4byte	0x980
 2809 1174 26       		.uleb128 0x26
 2810 1175 61090000 		.4byte	0x961
 2811 1179 0E000000 		.4byte	.LBB192
 2812 117d 78000000 		.4byte	.Ldebug_ranges0+0x78
 2813 1181 10       		.byte	0x10
 2814 1182 4101     		.2byte	0x141
 2815 1184 26       		.uleb128 0x26
 2816 1185 3E090000 		.4byte	0x93e
 2817 1189 0E000000 		.4byte	.LBB193
 2818 118d 78000000 		.4byte	.Ldebug_ranges0+0x78
 2819 1191 0B       		.byte	0xb
 2820 1192 CC01     		.2byte	0x1cc
 2821 1194 33       		.uleb128 0x33
 2822 1195 4B090000 		.4byte	0x94b
 2823 1199 DE020000 		.4byte	.LLST21
 2824 119d 00       		.byte	0
 2825 119e 00       		.byte	0
 2826 119f 00       		.byte	0
 2827 11a0 00       		.byte	0
 2828 11a1 00       		.byte	0
 2829 11a2 2C       		.uleb128 0x2c
 2830 11a3 1E000000 		.4byte	.LVL30
 2831 11a7 B8120000 		.4byte	0x12b8
 2832 11ab 2D       		.uleb128 0x2d
 2833 11ac 01       		.uleb128 0x1
 2834 11ad 50       		.byte	0x50
 2835 11ae 02       		.uleb128 0x2
 2836 11af 74       		.byte	0x74
 2837 11b0 00       		.sleb128 0
 2838 11b1 00       		.byte	0
 2839 11b2 00       		.byte	0
 2840 11b3 18       		.uleb128 0x18
 2841 11b4 41060000 		.4byte	0x641
 2842 11b8 C3110000 		.4byte	0x11c3
ARM GAS  C:\Users\jo\AppData\Local\Temp\ccTM2V0a.s 			page 51


 2843 11bc 19       		.uleb128 0x19
 2844 11bd 55040000 		.4byte	0x455
 2845 11c1 0F       		.byte	0xf
 2846 11c2 00       		.byte	0
 2847 11c3 13       		.uleb128 0x13
 2848 11c4 B3110000 		.4byte	0x11b3
 2849 11c8 38       		.uleb128 0x38
 2850 11c9 8E010000 		.4byte	.LASF154
 2851 11cd 01       		.byte	0x1
 2852 11ce 4101     		.2byte	0x141
 2853 11d0 2C000000 		.4byte	0x2c
 2854 11d4 00000000 		.4byte	.LFB266
 2855 11d8 18000000 		.4byte	.LFE266-.LFB266
 2856 11dc 01       		.uleb128 0x1
 2857 11dd 9C       		.byte	0x9c
 2858 11de 22120000 		.4byte	0x1222
 2859 11e2 36       		.uleb128 0x36
 2860 11e3 C4020000 		.4byte	.LASF143
 2861 11e7 01       		.byte	0x1
 2862 11e8 4101     		.2byte	0x141
 2863 11ea 58080000 		.4byte	0x858
 2864 11ee FE020000 		.4byte	.LLST22
 2865 11f2 24       		.uleb128 0x24
 2866 11f3 FC050000 		.4byte	.LASF145
 2867 11f7 22120000 		.4byte	0x1222
 2868 11fb 2A       		.uleb128 0x2a
 2869 11fc 0E000000 		.4byte	.LBB201
 2870 1200 0A000000 		.4byte	.LBE201-.LBB201
 2871 1204 3C       		.uleb128 0x3c
 2872 1205 6E00     		.ascii	"n\000"
 2873 1207 01       		.byte	0x1
 2874 1208 4801     		.2byte	0x148
 2875 120a 2C000000 		.4byte	0x2c
 2876 120e 01       		.uleb128 0x1
 2877 120f 50       		.byte	0x50
 2878 1210 2C       		.uleb128 0x2c
 2879 1211 12000000 		.4byte	.LVL35
 2880 1215 B8120000 		.4byte	0x12b8
 2881 1219 2D       		.uleb128 0x2d
 2882 121a 01       		.uleb128 0x1
 2883 121b 50       		.byte	0x50
 2884 121c 02       		.uleb128 0x2
 2885 121d 74       		.byte	0x74
 2886 121e 00       		.sleb128 0
 2887 121f 00       		.byte	0
 2888 1220 00       		.byte	0
 2889 1221 00       		.byte	0
 2890 1222 13       		.uleb128 0x13
 2891 1223 21100000 		.4byte	0x1021
 2892 1227 3D       		.uleb128 0x3d
 2893 1228 E3000000 		.4byte	.LASF155
 2894 122c 12       		.byte	0x12
 2895 122d A706     		.2byte	0x6a7
 2896 122f EE000000 		.4byte	0xee
 2897 1233 3E       		.uleb128 0x3e
 2898 1234 636800   		.ascii	"ch\000"
 2899 1237 08       		.byte	0x8
ARM GAS  C:\Users\jo\AppData\Local\Temp\ccTM2V0a.s 			page 52


 2900 1238 EB01     		.2byte	0x1eb
 2901 123a EE030000 		.4byte	0x3ee
 2902 123e 3F       		.uleb128 0x3f
 2903 123f 24000000 		.4byte	.LASF165
 2904 1243 0F       		.byte	0xf
 2905 1244 C501     		.2byte	0x1c5
 2906 1246 40       		.uleb128 0x40
 2907 1247 8F060000 		.4byte	.LASF156
 2908 124b 0F       		.byte	0xf
 2909 124c C601     		.2byte	0x1c6
 2910 124e 58120000 		.4byte	0x1258
 2911 1252 0D       		.uleb128 0xd
 2912 1253 58080000 		.4byte	0x858
 2913 1257 00       		.byte	0
 2914 1258 40       		.uleb128 0x40
 2915 1259 26080000 		.4byte	.LASF157
 2916 125d 0F       		.byte	0xf
 2917 125e C701     		.2byte	0x1c7
 2918 1260 6A120000 		.4byte	0x126a
 2919 1264 0D       		.uleb128 0xd
 2920 1265 58080000 		.4byte	0x858
 2921 1269 00       		.byte	0
 2922 126a 40       		.uleb128 0x40
 2923 126b 00080000 		.4byte	.LASF158
 2924 126f 0F       		.byte	0xf
 2925 1270 C801     		.2byte	0x1c8
 2926 1272 86120000 		.4byte	0x1286
 2927 1276 0D       		.uleb128 0xd
 2928 1277 58080000 		.4byte	0x858
 2929 127b 0D       		.uleb128 0xd
 2930 127c 2C000000 		.4byte	0x2c
 2931 1280 0D       		.uleb128 0xd
 2932 1281 0F0D0000 		.4byte	0xd0f
 2933 1285 00       		.byte	0
 2934 1286 41       		.uleb128 0x41
 2935 1287 69020000 		.4byte	.LASF166
 2936 128b 0F       		.byte	0xf
 2937 128c C901     		.2byte	0x1c9
 2938 128e 2C000000 		.4byte	0x2c
 2939 1292 9C120000 		.4byte	0x129c
 2940 1296 0D       		.uleb128 0xd
 2941 1297 58080000 		.4byte	0x858
 2942 129b 00       		.byte	0
 2943 129c 40       		.uleb128 0x40
 2944 129d 00000000 		.4byte	.LASF159
 2945 12a1 0F       		.byte	0xf
 2946 12a2 CA01     		.2byte	0x1ca
 2947 12a4 B8120000 		.4byte	0x12b8
 2948 12a8 0D       		.uleb128 0xd
 2949 12a9 58080000 		.4byte	0x858
 2950 12ad 0D       		.uleb128 0xd
 2951 12ae 2C000000 		.4byte	0x2c
 2952 12b2 0D       		.uleb128 0xd
 2953 12b3 1F030000 		.4byte	0x31f
 2954 12b7 00       		.byte	0
 2955 12b8 42       		.uleb128 0x42
 2956 12b9 08010000 		.4byte	.LASF160
ARM GAS  C:\Users\jo\AppData\Local\Temp\ccTM2V0a.s 			page 53


 2957 12bd 0F       		.byte	0xf
 2958 12be CB01     		.2byte	0x1cb
 2959 12c0 2C000000 		.4byte	0x2c
 2960 12c4 0D       		.uleb128 0xd
 2961 12c5 58080000 		.4byte	0x858
 2962 12c9 00       		.byte	0
 2963 12ca 00       		.byte	0
 2964              		.section	.debug_abbrev,"",%progbits
 2965              	.Ldebug_abbrev0:
 2966 0000 01       		.uleb128 0x1
 2967 0001 11       		.uleb128 0x11
 2968 0002 01       		.byte	0x1
 2969 0003 25       		.uleb128 0x25
 2970 0004 0E       		.uleb128 0xe
 2971 0005 13       		.uleb128 0x13
 2972 0006 0B       		.uleb128 0xb
 2973 0007 03       		.uleb128 0x3
 2974 0008 0E       		.uleb128 0xe
 2975 0009 1B       		.uleb128 0x1b
 2976 000a 0E       		.uleb128 0xe
 2977 000b 55       		.uleb128 0x55
 2978 000c 17       		.uleb128 0x17
 2979 000d 11       		.uleb128 0x11
 2980 000e 01       		.uleb128 0x1
 2981 000f 10       		.uleb128 0x10
 2982 0010 17       		.uleb128 0x17
 2983 0011 00       		.byte	0
 2984 0012 00       		.byte	0
 2985 0013 02       		.uleb128 0x2
 2986 0014 24       		.uleb128 0x24
 2987 0015 00       		.byte	0
 2988 0016 0B       		.uleb128 0xb
 2989 0017 0B       		.uleb128 0xb
 2990 0018 3E       		.uleb128 0x3e
 2991 0019 0B       		.uleb128 0xb
 2992 001a 03       		.uleb128 0x3
 2993 001b 08       		.uleb128 0x8
 2994 001c 00       		.byte	0
 2995 001d 00       		.byte	0
 2996 001e 03       		.uleb128 0x3
 2997 001f 16       		.uleb128 0x16
 2998 0020 00       		.byte	0
 2999 0021 03       		.uleb128 0x3
 3000 0022 0E       		.uleb128 0xe
 3001 0023 3A       		.uleb128 0x3a
 3002 0024 0B       		.uleb128 0xb
 3003 0025 3B       		.uleb128 0x3b
 3004 0026 0B       		.uleb128 0xb
 3005 0027 49       		.uleb128 0x49
 3006 0028 13       		.uleb128 0x13
 3007 0029 00       		.byte	0
 3008 002a 00       		.byte	0
 3009 002b 04       		.uleb128 0x4
 3010 002c 24       		.uleb128 0x24
 3011 002d 00       		.byte	0
 3012 002e 0B       		.uleb128 0xb
 3013 002f 0B       		.uleb128 0xb
ARM GAS  C:\Users\jo\AppData\Local\Temp\ccTM2V0a.s 			page 54


 3014 0030 3E       		.uleb128 0x3e
 3015 0031 0B       		.uleb128 0xb
 3016 0032 03       		.uleb128 0x3
 3017 0033 0E       		.uleb128 0xe
 3018 0034 00       		.byte	0
 3019 0035 00       		.byte	0
 3020 0036 05       		.uleb128 0x5
 3021 0037 35       		.uleb128 0x35
 3022 0038 00       		.byte	0
 3023 0039 49       		.uleb128 0x49
 3024 003a 13       		.uleb128 0x13
 3025 003b 00       		.byte	0
 3026 003c 00       		.byte	0
 3027 003d 06       		.uleb128 0x6
 3028 003e 13       		.uleb128 0x13
 3029 003f 01       		.byte	0x1
 3030 0040 03       		.uleb128 0x3
 3031 0041 0E       		.uleb128 0xe
 3032 0042 0B       		.uleb128 0xb
 3033 0043 0B       		.uleb128 0xb
 3034 0044 3A       		.uleb128 0x3a
 3035 0045 0B       		.uleb128 0xb
 3036 0046 3B       		.uleb128 0x3b
 3037 0047 0B       		.uleb128 0xb
 3038 0048 01       		.uleb128 0x1
 3039 0049 13       		.uleb128 0x13
 3040 004a 00       		.byte	0
 3041 004b 00       		.byte	0
 3042 004c 07       		.uleb128 0x7
 3043 004d 0D       		.uleb128 0xd
 3044 004e 00       		.byte	0
 3045 004f 03       		.uleb128 0x3
 3046 0050 0E       		.uleb128 0xe
 3047 0051 3A       		.uleb128 0x3a
 3048 0052 0B       		.uleb128 0xb
 3049 0053 3B       		.uleb128 0x3b
 3050 0054 0B       		.uleb128 0xb
 3051 0055 49       		.uleb128 0x49
 3052 0056 13       		.uleb128 0x13
 3053 0057 38       		.uleb128 0x38
 3054 0058 0B       		.uleb128 0xb
 3055 0059 00       		.byte	0
 3056 005a 00       		.byte	0
 3057 005b 08       		.uleb128 0x8
 3058 005c 0D       		.uleb128 0xd
 3059 005d 00       		.byte	0
 3060 005e 03       		.uleb128 0x3
 3061 005f 08       		.uleb128 0x8
 3062 0060 3A       		.uleb128 0x3a
 3063 0061 0B       		.uleb128 0xb
 3064 0062 3B       		.uleb128 0x3b
 3065 0063 05       		.uleb128 0x5
 3066 0064 49       		.uleb128 0x49
 3067 0065 13       		.uleb128 0x13
 3068 0066 38       		.uleb128 0x38
 3069 0067 0B       		.uleb128 0xb
 3070 0068 00       		.byte	0
ARM GAS  C:\Users\jo\AppData\Local\Temp\ccTM2V0a.s 			page 55


 3071 0069 00       		.byte	0
 3072 006a 09       		.uleb128 0x9
 3073 006b 0D       		.uleb128 0xd
 3074 006c 00       		.byte	0
 3075 006d 03       		.uleb128 0x3
 3076 006e 0E       		.uleb128 0xe
 3077 006f 3A       		.uleb128 0x3a
 3078 0070 0B       		.uleb128 0xb
 3079 0071 3B       		.uleb128 0x3b
 3080 0072 05       		.uleb128 0x5
 3081 0073 49       		.uleb128 0x49
 3082 0074 13       		.uleb128 0x13
 3083 0075 38       		.uleb128 0x38
 3084 0076 0B       		.uleb128 0xb
 3085 0077 00       		.byte	0
 3086 0078 00       		.byte	0
 3087 0079 0A       		.uleb128 0xa
 3088 007a 13       		.uleb128 0x13
 3089 007b 01       		.byte	0x1
 3090 007c 03       		.uleb128 0x3
 3091 007d 0E       		.uleb128 0xe
 3092 007e 0B       		.uleb128 0xb
 3093 007f 0B       		.uleb128 0xb
 3094 0080 3A       		.uleb128 0x3a
 3095 0081 0B       		.uleb128 0xb
 3096 0082 3B       		.uleb128 0x3b
 3097 0083 05       		.uleb128 0x5
 3098 0084 01       		.uleb128 0x1
 3099 0085 13       		.uleb128 0x13
 3100 0086 00       		.byte	0
 3101 0087 00       		.byte	0
 3102 0088 0B       		.uleb128 0xb
 3103 0089 0F       		.uleb128 0xf
 3104 008a 00       		.byte	0
 3105 008b 0B       		.uleb128 0xb
 3106 008c 0B       		.uleb128 0xb
 3107 008d 49       		.uleb128 0x49
 3108 008e 13       		.uleb128 0x13
 3109 008f 00       		.byte	0
 3110 0090 00       		.byte	0
 3111 0091 0C       		.uleb128 0xc
 3112 0092 15       		.uleb128 0x15
 3113 0093 01       		.byte	0x1
 3114 0094 27       		.uleb128 0x27
 3115 0095 19       		.uleb128 0x19
 3116 0096 01       		.uleb128 0x1
 3117 0097 13       		.uleb128 0x13
 3118 0098 00       		.byte	0
 3119 0099 00       		.byte	0
 3120 009a 0D       		.uleb128 0xd
 3121 009b 05       		.uleb128 0x5
 3122 009c 00       		.byte	0
 3123 009d 49       		.uleb128 0x49
 3124 009e 13       		.uleb128 0x13
 3125 009f 00       		.byte	0
 3126 00a0 00       		.byte	0
 3127 00a1 0E       		.uleb128 0xe
ARM GAS  C:\Users\jo\AppData\Local\Temp\ccTM2V0a.s 			page 56


 3128 00a2 0F       		.uleb128 0xf
 3129 00a3 00       		.byte	0
 3130 00a4 0B       		.uleb128 0xb
 3131 00a5 0B       		.uleb128 0xb
 3132 00a6 00       		.byte	0
 3133 00a7 00       		.byte	0
 3134 00a8 0F       		.uleb128 0xf
 3135 00a9 13       		.uleb128 0x13
 3136 00aa 01       		.byte	0x1
 3137 00ab 03       		.uleb128 0x3
 3138 00ac 0E       		.uleb128 0xe
 3139 00ad 0B       		.uleb128 0xb
 3140 00ae 05       		.uleb128 0x5
 3141 00af 3A       		.uleb128 0x3a
 3142 00b0 0B       		.uleb128 0xb
 3143 00b1 3B       		.uleb128 0x3b
 3144 00b2 05       		.uleb128 0x5
 3145 00b3 01       		.uleb128 0x1
 3146 00b4 13       		.uleb128 0x13
 3147 00b5 00       		.byte	0
 3148 00b6 00       		.byte	0
 3149 00b7 10       		.uleb128 0x10
 3150 00b8 13       		.uleb128 0x13
 3151 00b9 01       		.byte	0x1
 3152 00ba 0B       		.uleb128 0xb
 3153 00bb 0B       		.uleb128 0xb
 3154 00bc 3A       		.uleb128 0x3a
 3155 00bd 0B       		.uleb128 0xb
 3156 00be 3B       		.uleb128 0x3b
 3157 00bf 05       		.uleb128 0x5
 3158 00c0 01       		.uleb128 0x1
 3159 00c1 13       		.uleb128 0x13
 3160 00c2 00       		.byte	0
 3161 00c3 00       		.byte	0
 3162 00c4 11       		.uleb128 0x11
 3163 00c5 16       		.uleb128 0x16
 3164 00c6 00       		.byte	0
 3165 00c7 03       		.uleb128 0x3
 3166 00c8 0E       		.uleb128 0xe
 3167 00c9 3A       		.uleb128 0x3a
 3168 00ca 0B       		.uleb128 0xb
 3169 00cb 3B       		.uleb128 0x3b
 3170 00cc 05       		.uleb128 0x5
 3171 00cd 49       		.uleb128 0x49
 3172 00ce 13       		.uleb128 0x13
 3173 00cf 00       		.byte	0
 3174 00d0 00       		.byte	0
 3175 00d1 12       		.uleb128 0x12
 3176 00d2 0D       		.uleb128 0xd
 3177 00d3 00       		.byte	0
 3178 00d4 03       		.uleb128 0x3
 3179 00d5 08       		.uleb128 0x8
 3180 00d6 3A       		.uleb128 0x3a
 3181 00d7 0B       		.uleb128 0xb
 3182 00d8 3B       		.uleb128 0x3b
 3183 00d9 0B       		.uleb128 0xb
 3184 00da 49       		.uleb128 0x49
ARM GAS  C:\Users\jo\AppData\Local\Temp\ccTM2V0a.s 			page 57


 3185 00db 13       		.uleb128 0x13
 3186 00dc 38       		.uleb128 0x38
 3187 00dd 0B       		.uleb128 0xb
 3188 00de 00       		.byte	0
 3189 00df 00       		.byte	0
 3190 00e0 13       		.uleb128 0x13
 3191 00e1 26       		.uleb128 0x26
 3192 00e2 00       		.byte	0
 3193 00e3 49       		.uleb128 0x49
 3194 00e4 13       		.uleb128 0x13
 3195 00e5 00       		.byte	0
 3196 00e6 00       		.byte	0
 3197 00e7 14       		.uleb128 0x14
 3198 00e8 13       		.uleb128 0x13
 3199 00e9 01       		.byte	0x1
 3200 00ea 0B       		.uleb128 0xb
 3201 00eb 0B       		.uleb128 0xb
 3202 00ec 3A       		.uleb128 0x3a
 3203 00ed 0B       		.uleb128 0xb
 3204 00ee 3B       		.uleb128 0x3b
 3205 00ef 0B       		.uleb128 0xb
 3206 00f0 01       		.uleb128 0x1
 3207 00f1 13       		.uleb128 0x13
 3208 00f2 00       		.byte	0
 3209 00f3 00       		.byte	0
 3210 00f4 15       		.uleb128 0x15
 3211 00f5 17       		.uleb128 0x17
 3212 00f6 01       		.byte	0x1
 3213 00f7 0B       		.uleb128 0xb
 3214 00f8 0B       		.uleb128 0xb
 3215 00f9 3A       		.uleb128 0x3a
 3216 00fa 0B       		.uleb128 0xb
 3217 00fb 3B       		.uleb128 0x3b
 3218 00fc 0B       		.uleb128 0xb
 3219 00fd 01       		.uleb128 0x1
 3220 00fe 13       		.uleb128 0x13
 3221 00ff 00       		.byte	0
 3222 0100 00       		.byte	0
 3223 0101 16       		.uleb128 0x16
 3224 0102 0D       		.uleb128 0xd
 3225 0103 00       		.byte	0
 3226 0104 03       		.uleb128 0x3
 3227 0105 0E       		.uleb128 0xe
 3228 0106 3A       		.uleb128 0x3a
 3229 0107 0B       		.uleb128 0xb
 3230 0108 3B       		.uleb128 0x3b
 3231 0109 0B       		.uleb128 0xb
 3232 010a 49       		.uleb128 0x49
 3233 010b 13       		.uleb128 0x13
 3234 010c 00       		.byte	0
 3235 010d 00       		.byte	0
 3236 010e 17       		.uleb128 0x17
 3237 010f 0D       		.uleb128 0xd
 3238 0110 00       		.byte	0
 3239 0111 03       		.uleb128 0x3
 3240 0112 0E       		.uleb128 0xe
 3241 0113 3A       		.uleb128 0x3a
ARM GAS  C:\Users\jo\AppData\Local\Temp\ccTM2V0a.s 			page 58


 3242 0114 0B       		.uleb128 0xb
 3243 0115 3B       		.uleb128 0x3b
 3244 0116 05       		.uleb128 0x5
 3245 0117 49       		.uleb128 0x49
 3246 0118 13       		.uleb128 0x13
 3247 0119 00       		.byte	0
 3248 011a 00       		.byte	0
 3249 011b 18       		.uleb128 0x18
 3250 011c 01       		.uleb128 0x1
 3251 011d 01       		.byte	0x1
 3252 011e 49       		.uleb128 0x49
 3253 011f 13       		.uleb128 0x13
 3254 0120 01       		.uleb128 0x1
 3255 0121 13       		.uleb128 0x13
 3256 0122 00       		.byte	0
 3257 0123 00       		.byte	0
 3258 0124 19       		.uleb128 0x19
 3259 0125 21       		.uleb128 0x21
 3260 0126 00       		.byte	0
 3261 0127 49       		.uleb128 0x49
 3262 0128 13       		.uleb128 0x13
 3263 0129 2F       		.uleb128 0x2f
 3264 012a 0B       		.uleb128 0xb
 3265 012b 00       		.byte	0
 3266 012c 00       		.byte	0
 3267 012d 1A       		.uleb128 0x1a
 3268 012e 04       		.uleb128 0x4
 3269 012f 01       		.byte	0x1
 3270 0130 0B       		.uleb128 0xb
 3271 0131 0B       		.uleb128 0xb
 3272 0132 3A       		.uleb128 0x3a
 3273 0133 0B       		.uleb128 0xb
 3274 0134 3B       		.uleb128 0x3b
 3275 0135 0B       		.uleb128 0xb
 3276 0136 01       		.uleb128 0x1
 3277 0137 13       		.uleb128 0x13
 3278 0138 00       		.byte	0
 3279 0139 00       		.byte	0
 3280 013a 1B       		.uleb128 0x1b
 3281 013b 28       		.uleb128 0x28
 3282 013c 00       		.byte	0
 3283 013d 03       		.uleb128 0x3
 3284 013e 0E       		.uleb128 0xe
 3285 013f 1C       		.uleb128 0x1c
 3286 0140 0D       		.uleb128 0xd
 3287 0141 00       		.byte	0
 3288 0142 00       		.byte	0
 3289 0143 1C       		.uleb128 0x1c
 3290 0144 2E       		.uleb128 0x2e
 3291 0145 01       		.byte	0x1
 3292 0146 03       		.uleb128 0x3
 3293 0147 0E       		.uleb128 0xe
 3294 0148 3A       		.uleb128 0x3a
 3295 0149 0B       		.uleb128 0xb
 3296 014a 3B       		.uleb128 0x3b
 3297 014b 05       		.uleb128 0x5
 3298 014c 27       		.uleb128 0x27
ARM GAS  C:\Users\jo\AppData\Local\Temp\ccTM2V0a.s 			page 59


 3299 014d 19       		.uleb128 0x19
 3300 014e 20       		.uleb128 0x20
 3301 014f 0B       		.uleb128 0xb
 3302 0150 01       		.uleb128 0x1
 3303 0151 13       		.uleb128 0x13
 3304 0152 00       		.byte	0
 3305 0153 00       		.byte	0
 3306 0154 1D       		.uleb128 0x1d
 3307 0155 05       		.uleb128 0x5
 3308 0156 00       		.byte	0
 3309 0157 03       		.uleb128 0x3
 3310 0158 0E       		.uleb128 0xe
 3311 0159 3A       		.uleb128 0x3a
 3312 015a 0B       		.uleb128 0xb
 3313 015b 3B       		.uleb128 0x3b
 3314 015c 05       		.uleb128 0x5
 3315 015d 49       		.uleb128 0x49
 3316 015e 13       		.uleb128 0x13
 3317 015f 00       		.byte	0
 3318 0160 00       		.byte	0
 3319 0161 1E       		.uleb128 0x1e
 3320 0162 2E       		.uleb128 0x2e
 3321 0163 00       		.byte	0
 3322 0164 03       		.uleb128 0x3
 3323 0165 0E       		.uleb128 0xe
 3324 0166 3A       		.uleb128 0x3a
 3325 0167 0B       		.uleb128 0xb
 3326 0168 3B       		.uleb128 0x3b
 3327 0169 05       		.uleb128 0x5
 3328 016a 27       		.uleb128 0x27
 3329 016b 19       		.uleb128 0x19
 3330 016c 20       		.uleb128 0x20
 3331 016d 0B       		.uleb128 0xb
 3332 016e 00       		.byte	0
 3333 016f 00       		.byte	0
 3334 0170 1F       		.uleb128 0x1f
 3335 0171 34       		.uleb128 0x34
 3336 0172 00       		.byte	0
 3337 0173 03       		.uleb128 0x3
 3338 0174 0E       		.uleb128 0xe
 3339 0175 49       		.uleb128 0x49
 3340 0176 13       		.uleb128 0x13
 3341 0177 34       		.uleb128 0x34
 3342 0178 19       		.uleb128 0x19
 3343 0179 1C       		.uleb128 0x1c
 3344 017a 0E       		.uleb128 0xe
 3345 017b 00       		.byte	0
 3346 017c 00       		.byte	0
 3347 017d 20       		.uleb128 0x20
 3348 017e 2E       		.uleb128 0x2e
 3349 017f 01       		.byte	0x1
 3350 0180 3F       		.uleb128 0x3f
 3351 0181 19       		.uleb128 0x19
 3352 0182 03       		.uleb128 0x3
 3353 0183 0E       		.uleb128 0xe
 3354 0184 3A       		.uleb128 0x3a
 3355 0185 0B       		.uleb128 0xb
ARM GAS  C:\Users\jo\AppData\Local\Temp\ccTM2V0a.s 			page 60


 3356 0186 3B       		.uleb128 0x3b
 3357 0187 0B       		.uleb128 0xb
 3358 0188 27       		.uleb128 0x27
 3359 0189 19       		.uleb128 0x19
 3360 018a 11       		.uleb128 0x11
 3361 018b 01       		.uleb128 0x1
 3362 018c 12       		.uleb128 0x12
 3363 018d 06       		.uleb128 0x6
 3364 018e 40       		.uleb128 0x40
 3365 018f 18       		.uleb128 0x18
 3366 0190 9742     		.uleb128 0x2117
 3367 0192 19       		.uleb128 0x19
 3368 0193 01       		.uleb128 0x1
 3369 0194 13       		.uleb128 0x13
 3370 0195 00       		.byte	0
 3371 0196 00       		.byte	0
 3372 0197 21       		.uleb128 0x21
 3373 0198 898201   		.uleb128 0x4109
 3374 019b 00       		.byte	0
 3375 019c 11       		.uleb128 0x11
 3376 019d 01       		.uleb128 0x1
 3377 019e 9542     		.uleb128 0x2115
 3378 01a0 19       		.uleb128 0x19
 3379 01a1 31       		.uleb128 0x31
 3380 01a2 13       		.uleb128 0x13
 3381 01a3 00       		.byte	0
 3382 01a4 00       		.byte	0
 3383 01a5 22       		.uleb128 0x22
 3384 01a6 05       		.uleb128 0x5
 3385 01a7 00       		.byte	0
 3386 01a8 03       		.uleb128 0x3
 3387 01a9 0E       		.uleb128 0xe
 3388 01aa 3A       		.uleb128 0x3a
 3389 01ab 0B       		.uleb128 0xb
 3390 01ac 3B       		.uleb128 0x3b
 3391 01ad 0B       		.uleb128 0xb
 3392 01ae 49       		.uleb128 0x49
 3393 01af 13       		.uleb128 0x13
 3394 01b0 02       		.uleb128 0x2
 3395 01b1 18       		.uleb128 0x18
 3396 01b2 00       		.byte	0
 3397 01b3 00       		.byte	0
 3398 01b4 23       		.uleb128 0x23
 3399 01b5 05       		.uleb128 0x5
 3400 01b6 00       		.byte	0
 3401 01b7 03       		.uleb128 0x3
 3402 01b8 0E       		.uleb128 0xe
 3403 01b9 3A       		.uleb128 0x3a
 3404 01ba 0B       		.uleb128 0xb
 3405 01bb 3B       		.uleb128 0x3b
 3406 01bc 0B       		.uleb128 0xb
 3407 01bd 49       		.uleb128 0x49
 3408 01be 13       		.uleb128 0x13
 3409 01bf 02       		.uleb128 0x2
 3410 01c0 17       		.uleb128 0x17
 3411 01c1 00       		.byte	0
 3412 01c2 00       		.byte	0
ARM GAS  C:\Users\jo\AppData\Local\Temp\ccTM2V0a.s 			page 61


 3413 01c3 24       		.uleb128 0x24
 3414 01c4 34       		.uleb128 0x34
 3415 01c5 00       		.byte	0
 3416 01c6 03       		.uleb128 0x3
 3417 01c7 0E       		.uleb128 0xe
 3418 01c8 49       		.uleb128 0x49
 3419 01c9 13       		.uleb128 0x13
 3420 01ca 34       		.uleb128 0x34
 3421 01cb 19       		.uleb128 0x19
 3422 01cc 00       		.byte	0
 3423 01cd 00       		.byte	0
 3424 01ce 25       		.uleb128 0x25
 3425 01cf 1D       		.uleb128 0x1d
 3426 01d0 01       		.byte	0x1
 3427 01d1 31       		.uleb128 0x31
 3428 01d2 13       		.uleb128 0x13
 3429 01d3 52       		.uleb128 0x52
 3430 01d4 01       		.uleb128 0x1
 3431 01d5 55       		.uleb128 0x55
 3432 01d6 17       		.uleb128 0x17
 3433 01d7 58       		.uleb128 0x58
 3434 01d8 0B       		.uleb128 0xb
 3435 01d9 59       		.uleb128 0x59
 3436 01da 0B       		.uleb128 0xb
 3437 01db 01       		.uleb128 0x1
 3438 01dc 13       		.uleb128 0x13
 3439 01dd 00       		.byte	0
 3440 01de 00       		.byte	0
 3441 01df 26       		.uleb128 0x26
 3442 01e0 1D       		.uleb128 0x1d
 3443 01e1 01       		.byte	0x1
 3444 01e2 31       		.uleb128 0x31
 3445 01e3 13       		.uleb128 0x13
 3446 01e4 52       		.uleb128 0x52
 3447 01e5 01       		.uleb128 0x1
 3448 01e6 55       		.uleb128 0x55
 3449 01e7 17       		.uleb128 0x17
 3450 01e8 58       		.uleb128 0x58
 3451 01e9 0B       		.uleb128 0xb
 3452 01ea 59       		.uleb128 0x59
 3453 01eb 05       		.uleb128 0x5
 3454 01ec 00       		.byte	0
 3455 01ed 00       		.byte	0
 3456 01ee 27       		.uleb128 0x27
 3457 01ef 05       		.uleb128 0x5
 3458 01f0 00       		.byte	0
 3459 01f1 31       		.uleb128 0x31
 3460 01f2 13       		.uleb128 0x13
 3461 01f3 1C       		.uleb128 0x1c
 3462 01f4 0B       		.uleb128 0xb
 3463 01f5 00       		.byte	0
 3464 01f6 00       		.byte	0
 3465 01f7 28       		.uleb128 0x28
 3466 01f8 1D       		.uleb128 0x1d
 3467 01f9 01       		.byte	0x1
 3468 01fa 31       		.uleb128 0x31
 3469 01fb 13       		.uleb128 0x13
ARM GAS  C:\Users\jo\AppData\Local\Temp\ccTM2V0a.s 			page 62


 3470 01fc 11       		.uleb128 0x11
 3471 01fd 01       		.uleb128 0x1
 3472 01fe 12       		.uleb128 0x12
 3473 01ff 06       		.uleb128 0x6
 3474 0200 58       		.uleb128 0x58
 3475 0201 0B       		.uleb128 0xb
 3476 0202 59       		.uleb128 0x59
 3477 0203 0B       		.uleb128 0xb
 3478 0204 01       		.uleb128 0x1
 3479 0205 13       		.uleb128 0x13
 3480 0206 00       		.byte	0
 3481 0207 00       		.byte	0
 3482 0208 29       		.uleb128 0x29
 3483 0209 1D       		.uleb128 0x1d
 3484 020a 01       		.byte	0x1
 3485 020b 31       		.uleb128 0x31
 3486 020c 13       		.uleb128 0x13
 3487 020d 11       		.uleb128 0x11
 3488 020e 01       		.uleb128 0x1
 3489 020f 12       		.uleb128 0x12
 3490 0210 06       		.uleb128 0x6
 3491 0211 58       		.uleb128 0x58
 3492 0212 0B       		.uleb128 0xb
 3493 0213 59       		.uleb128 0x59
 3494 0214 05       		.uleb128 0x5
 3495 0215 00       		.byte	0
 3496 0216 00       		.byte	0
 3497 0217 2A       		.uleb128 0x2a
 3498 0218 0B       		.uleb128 0xb
 3499 0219 01       		.byte	0x1
 3500 021a 11       		.uleb128 0x11
 3501 021b 01       		.uleb128 0x1
 3502 021c 12       		.uleb128 0x12
 3503 021d 06       		.uleb128 0x6
 3504 021e 00       		.byte	0
 3505 021f 00       		.byte	0
 3506 0220 2B       		.uleb128 0x2b
 3507 0221 34       		.uleb128 0x34
 3508 0222 00       		.byte	0
 3509 0223 31       		.uleb128 0x31
 3510 0224 13       		.uleb128 0x13
 3511 0225 00       		.byte	0
 3512 0226 00       		.byte	0
 3513 0227 2C       		.uleb128 0x2c
 3514 0228 898201   		.uleb128 0x4109
 3515 022b 01       		.byte	0x1
 3516 022c 11       		.uleb128 0x11
 3517 022d 01       		.uleb128 0x1
 3518 022e 31       		.uleb128 0x31
 3519 022f 13       		.uleb128 0x13
 3520 0230 00       		.byte	0
 3521 0231 00       		.byte	0
 3522 0232 2D       		.uleb128 0x2d
 3523 0233 8A8201   		.uleb128 0x410a
 3524 0236 00       		.byte	0
 3525 0237 02       		.uleb128 0x2
 3526 0238 18       		.uleb128 0x18
ARM GAS  C:\Users\jo\AppData\Local\Temp\ccTM2V0a.s 			page 63


 3527 0239 9142     		.uleb128 0x2111
 3528 023b 18       		.uleb128 0x18
 3529 023c 00       		.byte	0
 3530 023d 00       		.byte	0
 3531 023e 2E       		.uleb128 0x2e
 3532 023f 05       		.uleb128 0x5
 3533 0240 00       		.byte	0
 3534 0241 03       		.uleb128 0x3
 3535 0242 08       		.uleb128 0x8
 3536 0243 3A       		.uleb128 0x3a
 3537 0244 0B       		.uleb128 0xb
 3538 0245 3B       		.uleb128 0x3b
 3539 0246 0B       		.uleb128 0xb
 3540 0247 49       		.uleb128 0x49
 3541 0248 13       		.uleb128 0x13
 3542 0249 02       		.uleb128 0x2
 3543 024a 17       		.uleb128 0x17
 3544 024b 00       		.byte	0
 3545 024c 00       		.byte	0
 3546 024d 2F       		.uleb128 0x2f
 3547 024e 26       		.uleb128 0x26
 3548 024f 00       		.byte	0
 3549 0250 00       		.byte	0
 3550 0251 00       		.byte	0
 3551 0252 30       		.uleb128 0x30
 3552 0253 2E       		.uleb128 0x2e
 3553 0254 01       		.byte	0x1
 3554 0255 3F       		.uleb128 0x3f
 3555 0256 19       		.uleb128 0x19
 3556 0257 03       		.uleb128 0x3
 3557 0258 0E       		.uleb128 0xe
 3558 0259 3A       		.uleb128 0x3a
 3559 025a 0B       		.uleb128 0xb
 3560 025b 3B       		.uleb128 0x3b
 3561 025c 0B       		.uleb128 0xb
 3562 025d 27       		.uleb128 0x27
 3563 025e 19       		.uleb128 0x19
 3564 025f 49       		.uleb128 0x49
 3565 0260 13       		.uleb128 0x13
 3566 0261 11       		.uleb128 0x11
 3567 0262 01       		.uleb128 0x1
 3568 0263 12       		.uleb128 0x12
 3569 0264 06       		.uleb128 0x6
 3570 0265 40       		.uleb128 0x40
 3571 0266 18       		.uleb128 0x18
 3572 0267 9742     		.uleb128 0x2117
 3573 0269 19       		.uleb128 0x19
 3574 026a 01       		.uleb128 0x1
 3575 026b 13       		.uleb128 0x13
 3576 026c 00       		.byte	0
 3577 026d 00       		.byte	0
 3578 026e 31       		.uleb128 0x31
 3579 026f 34       		.uleb128 0x34
 3580 0270 00       		.byte	0
 3581 0271 03       		.uleb128 0x3
 3582 0272 08       		.uleb128 0x8
 3583 0273 3A       		.uleb128 0x3a
ARM GAS  C:\Users\jo\AppData\Local\Temp\ccTM2V0a.s 			page 64


 3584 0274 0B       		.uleb128 0xb
 3585 0275 3B       		.uleb128 0x3b
 3586 0276 0B       		.uleb128 0xb
 3587 0277 49       		.uleb128 0x49
 3588 0278 13       		.uleb128 0x13
 3589 0279 02       		.uleb128 0x2
 3590 027a 17       		.uleb128 0x17
 3591 027b 00       		.byte	0
 3592 027c 00       		.byte	0
 3593 027d 32       		.uleb128 0x32
 3594 027e 0B       		.uleb128 0xb
 3595 027f 01       		.byte	0x1
 3596 0280 55       		.uleb128 0x55
 3597 0281 17       		.uleb128 0x17
 3598 0282 00       		.byte	0
 3599 0283 00       		.byte	0
 3600 0284 33       		.uleb128 0x33
 3601 0285 05       		.uleb128 0x5
 3602 0286 00       		.byte	0
 3603 0287 31       		.uleb128 0x31
 3604 0288 13       		.uleb128 0x13
 3605 0289 02       		.uleb128 0x2
 3606 028a 17       		.uleb128 0x17
 3607 028b 00       		.byte	0
 3608 028c 00       		.byte	0
 3609 028d 34       		.uleb128 0x34
 3610 028e 34       		.uleb128 0x34
 3611 028f 00       		.byte	0
 3612 0290 03       		.uleb128 0x3
 3613 0291 08       		.uleb128 0x8
 3614 0292 3A       		.uleb128 0x3a
 3615 0293 0B       		.uleb128 0xb
 3616 0294 3B       		.uleb128 0x3b
 3617 0295 0B       		.uleb128 0xb
 3618 0296 49       		.uleb128 0x49
 3619 0297 13       		.uleb128 0x13
 3620 0298 02       		.uleb128 0x2
 3621 0299 18       		.uleb128 0x18
 3622 029a 00       		.byte	0
 3623 029b 00       		.byte	0
 3624 029c 35       		.uleb128 0x35
 3625 029d 2E       		.uleb128 0x2e
 3626 029e 01       		.byte	0x1
 3627 029f 3F       		.uleb128 0x3f
 3628 02a0 19       		.uleb128 0x19
 3629 02a1 03       		.uleb128 0x3
 3630 02a2 0E       		.uleb128 0xe
 3631 02a3 3A       		.uleb128 0x3a
 3632 02a4 0B       		.uleb128 0xb
 3633 02a5 3B       		.uleb128 0x3b
 3634 02a6 05       		.uleb128 0x5
 3635 02a7 27       		.uleb128 0x27
 3636 02a8 19       		.uleb128 0x19
 3637 02a9 11       		.uleb128 0x11
 3638 02aa 01       		.uleb128 0x1
 3639 02ab 12       		.uleb128 0x12
 3640 02ac 06       		.uleb128 0x6
ARM GAS  C:\Users\jo\AppData\Local\Temp\ccTM2V0a.s 			page 65


 3641 02ad 40       		.uleb128 0x40
 3642 02ae 18       		.uleb128 0x18
 3643 02af 9742     		.uleb128 0x2117
 3644 02b1 19       		.uleb128 0x19
 3645 02b2 01       		.uleb128 0x1
 3646 02b3 13       		.uleb128 0x13
 3647 02b4 00       		.byte	0
 3648 02b5 00       		.byte	0
 3649 02b6 36       		.uleb128 0x36
 3650 02b7 05       		.uleb128 0x5
 3651 02b8 00       		.byte	0
 3652 02b9 03       		.uleb128 0x3
 3653 02ba 0E       		.uleb128 0xe
 3654 02bb 3A       		.uleb128 0x3a
 3655 02bc 0B       		.uleb128 0xb
 3656 02bd 3B       		.uleb128 0x3b
 3657 02be 05       		.uleb128 0x5
 3658 02bf 49       		.uleb128 0x49
 3659 02c0 13       		.uleb128 0x13
 3660 02c1 02       		.uleb128 0x2
 3661 02c2 17       		.uleb128 0x17
 3662 02c3 00       		.byte	0
 3663 02c4 00       		.byte	0
 3664 02c5 37       		.uleb128 0x37
 3665 02c6 05       		.uleb128 0x5
 3666 02c7 00       		.byte	0
 3667 02c8 03       		.uleb128 0x3
 3668 02c9 08       		.uleb128 0x8
 3669 02ca 3A       		.uleb128 0x3a
 3670 02cb 0B       		.uleb128 0xb
 3671 02cc 3B       		.uleb128 0x3b
 3672 02cd 05       		.uleb128 0x5
 3673 02ce 49       		.uleb128 0x49
 3674 02cf 13       		.uleb128 0x13
 3675 02d0 02       		.uleb128 0x2
 3676 02d1 17       		.uleb128 0x17
 3677 02d2 00       		.byte	0
 3678 02d3 00       		.byte	0
 3679 02d4 38       		.uleb128 0x38
 3680 02d5 2E       		.uleb128 0x2e
 3681 02d6 01       		.byte	0x1
 3682 02d7 3F       		.uleb128 0x3f
 3683 02d8 19       		.uleb128 0x19
 3684 02d9 03       		.uleb128 0x3
 3685 02da 0E       		.uleb128 0xe
 3686 02db 3A       		.uleb128 0x3a
 3687 02dc 0B       		.uleb128 0xb
 3688 02dd 3B       		.uleb128 0x3b
 3689 02de 05       		.uleb128 0x5
 3690 02df 27       		.uleb128 0x27
 3691 02e0 19       		.uleb128 0x19
 3692 02e1 49       		.uleb128 0x49
 3693 02e2 13       		.uleb128 0x13
 3694 02e3 11       		.uleb128 0x11
 3695 02e4 01       		.uleb128 0x1
 3696 02e5 12       		.uleb128 0x12
 3697 02e6 06       		.uleb128 0x6
ARM GAS  C:\Users\jo\AppData\Local\Temp\ccTM2V0a.s 			page 66


 3698 02e7 40       		.uleb128 0x40
 3699 02e8 18       		.uleb128 0x18
 3700 02e9 9742     		.uleb128 0x2117
 3701 02eb 19       		.uleb128 0x19
 3702 02ec 01       		.uleb128 0x1
 3703 02ed 13       		.uleb128 0x13
 3704 02ee 00       		.byte	0
 3705 02ef 00       		.byte	0
 3706 02f0 39       		.uleb128 0x39
 3707 02f1 34       		.uleb128 0x34
 3708 02f2 00       		.byte	0
 3709 02f3 03       		.uleb128 0x3
 3710 02f4 08       		.uleb128 0x8
 3711 02f5 3A       		.uleb128 0x3a
 3712 02f6 0B       		.uleb128 0xb
 3713 02f7 3B       		.uleb128 0x3b
 3714 02f8 05       		.uleb128 0x5
 3715 02f9 49       		.uleb128 0x49
 3716 02fa 13       		.uleb128 0x13
 3717 02fb 02       		.uleb128 0x2
 3718 02fc 17       		.uleb128 0x17
 3719 02fd 00       		.byte	0
 3720 02fe 00       		.byte	0
 3721 02ff 3A       		.uleb128 0x3a
 3722 0300 1D       		.uleb128 0x1d
 3723 0301 01       		.byte	0x1
 3724 0302 31       		.uleb128 0x31
 3725 0303 13       		.uleb128 0x13
 3726 0304 11       		.uleb128 0x11
 3727 0305 01       		.uleb128 0x1
 3728 0306 12       		.uleb128 0x12
 3729 0307 06       		.uleb128 0x6
 3730 0308 58       		.uleb128 0x58
 3731 0309 0B       		.uleb128 0xb
 3732 030a 59       		.uleb128 0x59
 3733 030b 05       		.uleb128 0x5
 3734 030c 01       		.uleb128 0x1
 3735 030d 13       		.uleb128 0x13
 3736 030e 00       		.byte	0
 3737 030f 00       		.byte	0
 3738 0310 3B       		.uleb128 0x3b
 3739 0311 1D       		.uleb128 0x1d
 3740 0312 01       		.byte	0x1
 3741 0313 31       		.uleb128 0x31
 3742 0314 13       		.uleb128 0x13
 3743 0315 52       		.uleb128 0x52
 3744 0316 01       		.uleb128 0x1
 3745 0317 55       		.uleb128 0x55
 3746 0318 17       		.uleb128 0x17
 3747 0319 58       		.uleb128 0x58
 3748 031a 0B       		.uleb128 0xb
 3749 031b 59       		.uleb128 0x59
 3750 031c 05       		.uleb128 0x5
 3751 031d 01       		.uleb128 0x1
 3752 031e 13       		.uleb128 0x13
 3753 031f 00       		.byte	0
 3754 0320 00       		.byte	0
ARM GAS  C:\Users\jo\AppData\Local\Temp\ccTM2V0a.s 			page 67


 3755 0321 3C       		.uleb128 0x3c
 3756 0322 34       		.uleb128 0x34
 3757 0323 00       		.byte	0
 3758 0324 03       		.uleb128 0x3
 3759 0325 08       		.uleb128 0x8
 3760 0326 3A       		.uleb128 0x3a
 3761 0327 0B       		.uleb128 0xb
 3762 0328 3B       		.uleb128 0x3b
 3763 0329 05       		.uleb128 0x5
 3764 032a 49       		.uleb128 0x49
 3765 032b 13       		.uleb128 0x13
 3766 032c 02       		.uleb128 0x2
 3767 032d 18       		.uleb128 0x18
 3768 032e 00       		.byte	0
 3769 032f 00       		.byte	0
 3770 0330 3D       		.uleb128 0x3d
 3771 0331 34       		.uleb128 0x34
 3772 0332 00       		.byte	0
 3773 0333 03       		.uleb128 0x3
 3774 0334 0E       		.uleb128 0xe
 3775 0335 3A       		.uleb128 0x3a
 3776 0336 0B       		.uleb128 0xb
 3777 0337 3B       		.uleb128 0x3b
 3778 0338 05       		.uleb128 0x5
 3779 0339 49       		.uleb128 0x49
 3780 033a 13       		.uleb128 0x13
 3781 033b 3F       		.uleb128 0x3f
 3782 033c 19       		.uleb128 0x19
 3783 033d 3C       		.uleb128 0x3c
 3784 033e 19       		.uleb128 0x19
 3785 033f 00       		.byte	0
 3786 0340 00       		.byte	0
 3787 0341 3E       		.uleb128 0x3e
 3788 0342 34       		.uleb128 0x34
 3789 0343 00       		.byte	0
 3790 0344 03       		.uleb128 0x3
 3791 0345 08       		.uleb128 0x8
 3792 0346 3A       		.uleb128 0x3a
 3793 0347 0B       		.uleb128 0xb
 3794 0348 3B       		.uleb128 0x3b
 3795 0349 05       		.uleb128 0x5
 3796 034a 49       		.uleb128 0x49
 3797 034b 13       		.uleb128 0x13
 3798 034c 3F       		.uleb128 0x3f
 3799 034d 19       		.uleb128 0x19
 3800 034e 3C       		.uleb128 0x3c
 3801 034f 19       		.uleb128 0x19
 3802 0350 00       		.byte	0
 3803 0351 00       		.byte	0
 3804 0352 3F       		.uleb128 0x3f
 3805 0353 2E       		.uleb128 0x2e
 3806 0354 00       		.byte	0
 3807 0355 3F       		.uleb128 0x3f
 3808 0356 19       		.uleb128 0x19
 3809 0357 03       		.uleb128 0x3
 3810 0358 0E       		.uleb128 0xe
 3811 0359 3A       		.uleb128 0x3a
ARM GAS  C:\Users\jo\AppData\Local\Temp\ccTM2V0a.s 			page 68


 3812 035a 0B       		.uleb128 0xb
 3813 035b 3B       		.uleb128 0x3b
 3814 035c 05       		.uleb128 0x5
 3815 035d 27       		.uleb128 0x27
 3816 035e 19       		.uleb128 0x19
 3817 035f 3C       		.uleb128 0x3c
 3818 0360 19       		.uleb128 0x19
 3819 0361 00       		.byte	0
 3820 0362 00       		.byte	0
 3821 0363 40       		.uleb128 0x40
 3822 0364 2E       		.uleb128 0x2e
 3823 0365 01       		.byte	0x1
 3824 0366 3F       		.uleb128 0x3f
 3825 0367 19       		.uleb128 0x19
 3826 0368 03       		.uleb128 0x3
 3827 0369 0E       		.uleb128 0xe
 3828 036a 3A       		.uleb128 0x3a
 3829 036b 0B       		.uleb128 0xb
 3830 036c 3B       		.uleb128 0x3b
 3831 036d 05       		.uleb128 0x5
 3832 036e 27       		.uleb128 0x27
 3833 036f 19       		.uleb128 0x19
 3834 0370 3C       		.uleb128 0x3c
 3835 0371 19       		.uleb128 0x19
 3836 0372 01       		.uleb128 0x1
 3837 0373 13       		.uleb128 0x13
 3838 0374 00       		.byte	0
 3839 0375 00       		.byte	0
 3840 0376 41       		.uleb128 0x41
 3841 0377 2E       		.uleb128 0x2e
 3842 0378 01       		.byte	0x1
 3843 0379 3F       		.uleb128 0x3f
 3844 037a 19       		.uleb128 0x19
 3845 037b 03       		.uleb128 0x3
 3846 037c 0E       		.uleb128 0xe
 3847 037d 3A       		.uleb128 0x3a
 3848 037e 0B       		.uleb128 0xb
 3849 037f 3B       		.uleb128 0x3b
 3850 0380 05       		.uleb128 0x5
 3851 0381 27       		.uleb128 0x27
 3852 0382 19       		.uleb128 0x19
 3853 0383 49       		.uleb128 0x49
 3854 0384 13       		.uleb128 0x13
 3855 0385 3C       		.uleb128 0x3c
 3856 0386 19       		.uleb128 0x19
 3857 0387 01       		.uleb128 0x1
 3858 0388 13       		.uleb128 0x13
 3859 0389 00       		.byte	0
 3860 038a 00       		.byte	0
 3861 038b 42       		.uleb128 0x42
 3862 038c 2E       		.uleb128 0x2e
 3863 038d 01       		.byte	0x1
 3864 038e 3F       		.uleb128 0x3f
 3865 038f 19       		.uleb128 0x19
 3866 0390 03       		.uleb128 0x3
 3867 0391 0E       		.uleb128 0xe
 3868 0392 3A       		.uleb128 0x3a
ARM GAS  C:\Users\jo\AppData\Local\Temp\ccTM2V0a.s 			page 69


 3869 0393 0B       		.uleb128 0xb
 3870 0394 3B       		.uleb128 0x3b
 3871 0395 05       		.uleb128 0x5
 3872 0396 27       		.uleb128 0x27
 3873 0397 19       		.uleb128 0x19
 3874 0398 49       		.uleb128 0x49
 3875 0399 13       		.uleb128 0x13
 3876 039a 3C       		.uleb128 0x3c
 3877 039b 19       		.uleb128 0x19
 3878 039c 00       		.byte	0
 3879 039d 00       		.byte	0
 3880 039e 00       		.byte	0
 3881              		.section	.debug_loc,"",%progbits
 3882              	.Ldebug_loc0:
 3883              	.LLST0:
 3884 0000 00000000 		.4byte	.LVL2
 3885 0004 0F000000 		.4byte	.LVL3-1
 3886 0008 0100     		.2byte	0x1
 3887 000a 50       		.byte	0x50
 3888 000b 0F000000 		.4byte	.LVL3-1
 3889 000f 1C000000 		.4byte	.LFE257
 3890 0013 0100     		.2byte	0x1
 3891 0015 54       		.byte	0x54
 3892 0016 00000000 		.4byte	0
 3893 001a 00000000 		.4byte	0
 3894              	.LLST1:
 3895 001e 00000000 		.4byte	.LVL2
 3896 0022 0F000000 		.4byte	.LVL3-1
 3897 0026 0100     		.2byte	0x1
 3898 0028 51       		.byte	0x51
 3899 0029 0F000000 		.4byte	.LVL3-1
 3900 002d 1C000000 		.4byte	.LFE257
 3901 0031 0400     		.2byte	0x4
 3902 0033 F3       		.byte	0xf3
 3903 0034 01       		.uleb128 0x1
 3904 0035 51       		.byte	0x51
 3905 0036 9F       		.byte	0x9f
 3906 0037 00000000 		.4byte	0
 3907 003b 00000000 		.4byte	0
 3908              	.LLST2:
 3909 003f 00000000 		.4byte	.LVL5
 3910 0043 0D000000 		.4byte	.LVL6-1
 3911 0047 0100     		.2byte	0x1
 3912 0049 50       		.byte	0x50
 3913 004a 0D000000 		.4byte	.LVL6-1
 3914 004e 1E000000 		.4byte	.LFE258
 3915 0052 0100     		.2byte	0x1
 3916 0054 54       		.byte	0x54
 3917 0055 00000000 		.4byte	0
 3918 0059 00000000 		.4byte	0
 3919              	.LLST3:
 3920 005d 00000000 		.4byte	.LVL8
 3921 0061 0D000000 		.4byte	.LVL9-1
 3922 0065 0100     		.2byte	0x1
 3923 0067 50       		.byte	0x50
 3924 0068 0D000000 		.4byte	.LVL9-1
 3925 006c 1A000000 		.4byte	.LFE259
ARM GAS  C:\Users\jo\AppData\Local\Temp\ccTM2V0a.s 			page 70


 3926 0070 0100     		.2byte	0x1
 3927 0072 54       		.byte	0x54
 3928 0073 00000000 		.4byte	0
 3929 0077 00000000 		.4byte	0
 3930              	.LLST4:
 3931 007b 00000000 		.4byte	.LVL8
 3932 007f 0D000000 		.4byte	.LVL9-1
 3933 0083 0100     		.2byte	0x1
 3934 0085 51       		.byte	0x51
 3935 0086 0D000000 		.4byte	.LVL9-1
 3936 008a 1A000000 		.4byte	.LFE259
 3937 008e 0400     		.2byte	0x4
 3938 0090 F3       		.byte	0xf3
 3939 0091 01       		.uleb128 0x1
 3940 0092 51       		.byte	0x51
 3941 0093 9F       		.byte	0x9f
 3942 0094 00000000 		.4byte	0
 3943 0098 00000000 		.4byte	0
 3944              	.LLST5:
 3945 009c 00000000 		.4byte	.LVL8
 3946 00a0 0D000000 		.4byte	.LVL9-1
 3947 00a4 0100     		.2byte	0x1
 3948 00a6 52       		.byte	0x52
 3949 00a7 0D000000 		.4byte	.LVL9-1
 3950 00ab 1A000000 		.4byte	.LFE259
 3951 00af 0400     		.2byte	0x4
 3952 00b1 F3       		.byte	0xf3
 3953 00b2 01       		.uleb128 0x1
 3954 00b3 52       		.byte	0x52
 3955 00b4 9F       		.byte	0x9f
 3956 00b5 00000000 		.4byte	0
 3957 00b9 00000000 		.4byte	0
 3958              	.LLST6:
 3959 00bd 00000000 		.4byte	.LVL11
 3960 00c1 07000000 		.4byte	.LVL12-1
 3961 00c5 0100     		.2byte	0x1
 3962 00c7 50       		.byte	0x50
 3963 00c8 07000000 		.4byte	.LVL12-1
 3964 00cc 0E000000 		.4byte	.LFE260
 3965 00d0 0100     		.2byte	0x1
 3966 00d2 54       		.byte	0x54
 3967 00d3 00000000 		.4byte	0
 3968 00d7 00000000 		.4byte	0
 3969              	.LLST7:
 3970 00db 00000000 		.4byte	.LVL11
 3971 00df 07000000 		.4byte	.LVL12-1
 3972 00e3 0100     		.2byte	0x1
 3973 00e5 51       		.byte	0x51
 3974 00e6 07000000 		.4byte	.LVL12-1
 3975 00ea 0E000000 		.4byte	.LFE260
 3976 00ee 0400     		.2byte	0x4
 3977 00f0 F3       		.byte	0xf3
 3978 00f1 01       		.uleb128 0x1
 3979 00f2 51       		.byte	0x51
 3980 00f3 9F       		.byte	0x9f
 3981 00f4 00000000 		.4byte	0
 3982 00f8 00000000 		.4byte	0
ARM GAS  C:\Users\jo\AppData\Local\Temp\ccTM2V0a.s 			page 71


 3983              	.LLST8:
 3984 00fc 00000000 		.4byte	.LVL11
 3985 0100 07000000 		.4byte	.LVL12-1
 3986 0104 0100     		.2byte	0x1
 3987 0106 52       		.byte	0x52
 3988 0107 07000000 		.4byte	.LVL12-1
 3989 010b 0E000000 		.4byte	.LFE260
 3990 010f 0400     		.2byte	0x4
 3991 0111 F3       		.byte	0xf3
 3992 0112 01       		.uleb128 0x1
 3993 0113 52       		.byte	0x52
 3994 0114 9F       		.byte	0x9f
 3995 0115 00000000 		.4byte	0
 3996 0119 00000000 		.4byte	0
 3997              	.LLST9:
 3998 011d 00000000 		.4byte	.LVL13
 3999 0121 0E000000 		.4byte	.LVL14
 4000 0125 0100     		.2byte	0x1
 4001 0127 50       		.byte	0x50
 4002 0128 0E000000 		.4byte	.LVL14
 4003 012c 16000000 		.4byte	.LVL15
 4004 0130 0400     		.2byte	0x4
 4005 0132 F3       		.byte	0xf3
 4006 0133 01       		.uleb128 0x1
 4007 0134 50       		.byte	0x50
 4008 0135 9F       		.byte	0x9f
 4009 0136 16000000 		.4byte	.LVL15
 4010 013a 1D000000 		.4byte	.LVL16-1
 4011 013e 0100     		.2byte	0x1
 4012 0140 50       		.byte	0x50
 4013 0141 1D000000 		.4byte	.LVL16-1
 4014 0145 2A000000 		.4byte	.LFE261
 4015 0149 0100     		.2byte	0x1
 4016 014b 54       		.byte	0x54
 4017 014c 00000000 		.4byte	0
 4018 0150 00000000 		.4byte	0
 4019              	.LLST10:
 4020 0154 0E000000 		.4byte	.LVL14
 4021 0158 16000000 		.4byte	.LVL15
 4022 015c 0100     		.2byte	0x1
 4023 015e 50       		.byte	0x50
 4024 015f 1E000000 		.4byte	.LVL16
 4025 0163 2A000000 		.4byte	.LFE261
 4026 0167 0100     		.2byte	0x1
 4027 0169 50       		.byte	0x50
 4028 016a 00000000 		.4byte	0
 4029 016e 00000000 		.4byte	0
 4030              	.LLST11:
 4031 0172 0E000000 		.4byte	.LVL14
 4032 0176 16000000 		.4byte	.LVL15
 4033 017a 0200     		.2byte	0x2
 4034 017c 30       		.byte	0x30
 4035 017d 9F       		.byte	0x9f
 4036 017e 22000000 		.4byte	.LVL17
 4037 0182 2A000000 		.4byte	.LFE261
 4038 0186 0200     		.2byte	0x2
 4039 0188 30       		.byte	0x30
ARM GAS  C:\Users\jo\AppData\Local\Temp\ccTM2V0a.s 			page 72


 4040 0189 9F       		.byte	0x9f
 4041 018a 00000000 		.4byte	0
 4042 018e 00000000 		.4byte	0
 4043              	.LLST12:
 4044 0192 00000000 		.4byte	.LVL18
 4045 0196 08000000 		.4byte	.LVL19
 4046 019a 0100     		.2byte	0x1
 4047 019c 50       		.byte	0x50
 4048 019d 08000000 		.4byte	.LVL19
 4049 01a1 0A000000 		.4byte	.LVL20
 4050 01a5 0400     		.2byte	0x4
 4051 01a7 F3       		.byte	0xf3
 4052 01a8 01       		.uleb128 0x1
 4053 01a9 50       		.byte	0x50
 4054 01aa 9F       		.byte	0x9f
 4055 01ab 0A000000 		.4byte	.LVL20
 4056 01af 11000000 		.4byte	.LVL21-1
 4057 01b3 0100     		.2byte	0x1
 4058 01b5 50       		.byte	0x50
 4059 01b6 11000000 		.4byte	.LVL21-1
 4060 01ba 18000000 		.4byte	.LFE262
 4061 01be 0100     		.2byte	0x1
 4062 01c0 54       		.byte	0x54
 4063 01c1 00000000 		.4byte	0
 4064 01c5 00000000 		.4byte	0
 4065              	.LLST13:
 4066 01c9 00000000 		.4byte	.LVL22
 4067 01cd 0D000000 		.4byte	.LVL23-1
 4068 01d1 0100     		.2byte	0x1
 4069 01d3 50       		.byte	0x50
 4070 01d4 0D000000 		.4byte	.LVL23-1
 4071 01d8 1A000000 		.4byte	.LFE263
 4072 01dc 0100     		.2byte	0x1
 4073 01de 54       		.byte	0x54
 4074 01df 00000000 		.4byte	0
 4075 01e3 00000000 		.4byte	0
 4076              	.LLST14:
 4077 01e7 00000000 		.4byte	.LVL22
 4078 01eb 0D000000 		.4byte	.LVL23-1
 4079 01ef 0100     		.2byte	0x1
 4080 01f1 51       		.byte	0x51
 4081 01f2 0D000000 		.4byte	.LVL23-1
 4082 01f6 1A000000 		.4byte	.LFE263
 4083 01fa 0400     		.2byte	0x4
 4084 01fc F3       		.byte	0xf3
 4085 01fd 01       		.uleb128 0x1
 4086 01fe 51       		.byte	0x51
 4087 01ff 9F       		.byte	0x9f
 4088 0200 00000000 		.4byte	0
 4089 0204 00000000 		.4byte	0
 4090              	.LLST15:
 4091 0208 00000000 		.4byte	.LVL22
 4092 020c 0D000000 		.4byte	.LVL23-1
 4093 0210 0100     		.2byte	0x1
 4094 0212 52       		.byte	0x52
 4095 0213 0D000000 		.4byte	.LVL23-1
 4096 0217 1A000000 		.4byte	.LFE263
ARM GAS  C:\Users\jo\AppData\Local\Temp\ccTM2V0a.s 			page 73


 4097 021b 0400     		.2byte	0x4
 4098 021d F3       		.byte	0xf3
 4099 021e 01       		.uleb128 0x1
 4100 021f 52       		.byte	0x52
 4101 0220 9F       		.byte	0x9f
 4102 0221 00000000 		.4byte	0
 4103 0225 00000000 		.4byte	0
 4104              	.LLST16:
 4105 0229 00000000 		.4byte	.LVL25
 4106 022d 07000000 		.4byte	.LVL26-1
 4107 0231 0100     		.2byte	0x1
 4108 0233 50       		.byte	0x50
 4109 0234 07000000 		.4byte	.LVL26-1
 4110 0238 0E000000 		.4byte	.LFE264
 4111 023c 0100     		.2byte	0x1
 4112 023e 54       		.byte	0x54
 4113 023f 00000000 		.4byte	0
 4114 0243 00000000 		.4byte	0
 4115              	.LLST17:
 4116 0247 00000000 		.4byte	.LVL25
 4117 024b 07000000 		.4byte	.LVL26-1
 4118 024f 0100     		.2byte	0x1
 4119 0251 51       		.byte	0x51
 4120 0252 07000000 		.4byte	.LVL26-1
 4121 0256 0E000000 		.4byte	.LFE264
 4122 025a 0400     		.2byte	0x4
 4123 025c F3       		.byte	0xf3
 4124 025d 01       		.uleb128 0x1
 4125 025e 51       		.byte	0x51
 4126 025f 9F       		.byte	0x9f
 4127 0260 00000000 		.4byte	0
 4128 0264 00000000 		.4byte	0
 4129              	.LLST18:
 4130 0268 00000000 		.4byte	.LVL25
 4131 026c 07000000 		.4byte	.LVL26-1
 4132 0270 0100     		.2byte	0x1
 4133 0272 52       		.byte	0x52
 4134 0273 07000000 		.4byte	.LVL26-1
 4135 0277 0E000000 		.4byte	.LFE264
 4136 027b 0400     		.2byte	0x4
 4137 027d F3       		.byte	0xf3
 4138 027e 01       		.uleb128 0x1
 4139 027f 52       		.byte	0x52
 4140 0280 9F       		.byte	0x9f
 4141 0281 00000000 		.4byte	0
 4142 0285 00000000 		.4byte	0
 4143              	.LLST19:
 4144 0289 00000000 		.4byte	.LVL27
 4145 028d 0E000000 		.4byte	.LVL28
 4146 0291 0100     		.2byte	0x1
 4147 0293 50       		.byte	0x50
 4148 0294 0E000000 		.4byte	.LVL28
 4149 0298 16000000 		.4byte	.LVL29
 4150 029c 0400     		.2byte	0x4
 4151 029e F3       		.byte	0xf3
 4152 029f 01       		.uleb128 0x1
 4153 02a0 50       		.byte	0x50
ARM GAS  C:\Users\jo\AppData\Local\Temp\ccTM2V0a.s 			page 74


 4154 02a1 9F       		.byte	0x9f
 4155 02a2 16000000 		.4byte	.LVL29
 4156 02a6 1D000000 		.4byte	.LVL30-1
 4157 02aa 0100     		.2byte	0x1
 4158 02ac 50       		.byte	0x50
 4159 02ad 1D000000 		.4byte	.LVL30-1
 4160 02b1 2A000000 		.4byte	.LFE265
 4161 02b5 0100     		.2byte	0x1
 4162 02b7 54       		.byte	0x54
 4163 02b8 00000000 		.4byte	0
 4164 02bc 00000000 		.4byte	0
 4165              	.LLST20:
 4166 02c0 0E000000 		.4byte	.LVL28
 4167 02c4 16000000 		.4byte	.LVL29
 4168 02c8 0100     		.2byte	0x1
 4169 02ca 50       		.byte	0x50
 4170 02cb 1E000000 		.4byte	.LVL30
 4171 02cf 2A000000 		.4byte	.LFE265
 4172 02d3 0100     		.2byte	0x1
 4173 02d5 50       		.byte	0x50
 4174 02d6 00000000 		.4byte	0
 4175 02da 00000000 		.4byte	0
 4176              	.LLST21:
 4177 02de 0E000000 		.4byte	.LVL28
 4178 02e2 16000000 		.4byte	.LVL29
 4179 02e6 0200     		.2byte	0x2
 4180 02e8 30       		.byte	0x30
 4181 02e9 9F       		.byte	0x9f
 4182 02ea 22000000 		.4byte	.LVL31
 4183 02ee 2A000000 		.4byte	.LFE265
 4184 02f2 0200     		.2byte	0x2
 4185 02f4 30       		.byte	0x30
 4186 02f5 9F       		.byte	0x9f
 4187 02f6 00000000 		.4byte	0
 4188 02fa 00000000 		.4byte	0
 4189              	.LLST22:
 4190 02fe 00000000 		.4byte	.LVL32
 4191 0302 08000000 		.4byte	.LVL33
 4192 0306 0100     		.2byte	0x1
 4193 0308 50       		.byte	0x50
 4194 0309 08000000 		.4byte	.LVL33
 4195 030d 0A000000 		.4byte	.LVL34
 4196 0311 0400     		.2byte	0x4
 4197 0313 F3       		.byte	0xf3
 4198 0314 01       		.uleb128 0x1
 4199 0315 50       		.byte	0x50
 4200 0316 9F       		.byte	0x9f
 4201 0317 0A000000 		.4byte	.LVL34
 4202 031b 11000000 		.4byte	.LVL35-1
 4203 031f 0100     		.2byte	0x1
 4204 0321 50       		.byte	0x50
 4205 0322 11000000 		.4byte	.LVL35-1
 4206 0326 18000000 		.4byte	.LFE266
 4207 032a 0100     		.2byte	0x1
 4208 032c 54       		.byte	0x54
 4209 032d 00000000 		.4byte	0
 4210 0331 00000000 		.4byte	0
ARM GAS  C:\Users\jo\AppData\Local\Temp\ccTM2V0a.s 			page 75


 4211              		.section	.debug_aranges,"",%progbits
 4212 0000 74000000 		.4byte	0x74
 4213 0004 0200     		.2byte	0x2
 4214 0006 00000000 		.4byte	.Ldebug_info0
 4215 000a 04       		.byte	0x4
 4216 000b 00       		.byte	0
 4217 000c 0000     		.2byte	0
 4218 000e 0000     		.2byte	0
 4219 0010 00000000 		.4byte	.LFB255
 4220 0014 04000000 		.4byte	.LFE255-.LFB255
 4221 0018 00000000 		.4byte	.LFB256
 4222 001c 0E000000 		.4byte	.LFE256-.LFB256
 4223 0020 00000000 		.4byte	.LFB257
 4224 0024 1C000000 		.4byte	.LFE257-.LFB257
 4225 0028 00000000 		.4byte	.LFB258
 4226 002c 1E000000 		.4byte	.LFE258-.LFB258
 4227 0030 00000000 		.4byte	.LFB259
 4228 0034 1A000000 		.4byte	.LFE259-.LFB259
 4229 0038 00000000 		.4byte	.LFB260
 4230 003c 0E000000 		.4byte	.LFE260-.LFB260
 4231 0040 00000000 		.4byte	.LFB261
 4232 0044 2A000000 		.4byte	.LFE261-.LFB261
 4233 0048 00000000 		.4byte	.LFB262
 4234 004c 18000000 		.4byte	.LFE262-.LFB262
 4235 0050 00000000 		.4byte	.LFB263
 4236 0054 1A000000 		.4byte	.LFE263-.LFB263
 4237 0058 00000000 		.4byte	.LFB264
 4238 005c 0E000000 		.4byte	.LFE264-.LFB264
 4239 0060 00000000 		.4byte	.LFB265
 4240 0064 2A000000 		.4byte	.LFE265-.LFB265
 4241 0068 00000000 		.4byte	.LFB266
 4242 006c 18000000 		.4byte	.LFE266-.LFB266
 4243 0070 00000000 		.4byte	0
 4244 0074 00000000 		.4byte	0
 4245              		.section	.debug_ranges,"",%progbits
 4246              	.Ldebug_ranges0:
 4247 0000 02000000 		.4byte	.LBB102
 4248 0004 04000000 		.4byte	.LBE102
 4249 0008 06000000 		.4byte	.LBB111
 4250 000c 0A000000 		.4byte	.LBE111
 4251 0010 00000000 		.4byte	0
 4252 0014 00000000 		.4byte	0
 4253 0018 02000000 		.4byte	.LBB118
 4254 001c 04000000 		.4byte	.LBE118
 4255 0020 06000000 		.4byte	.LBB127
 4256 0024 0A000000 		.4byte	.LBE127
 4257 0028 00000000 		.4byte	0
 4258 002c 00000000 		.4byte	0
 4259 0030 02000000 		.4byte	.LBB134
 4260 0034 04000000 		.4byte	.LBE134
 4261 0038 06000000 		.4byte	.LBB143
 4262 003c 0A000000 		.4byte	.LBE143
 4263 0040 00000000 		.4byte	0
 4264 0044 00000000 		.4byte	0
 4265 0048 0E000000 		.4byte	.LBB155
 4266 004c 14000000 		.4byte	.LBE155
 4267 0050 22000000 		.4byte	.LBB166
ARM GAS  C:\Users\jo\AppData\Local\Temp\ccTM2V0a.s 			page 76


 4268 0054 28000000 		.4byte	.LBE166
 4269 0058 00000000 		.4byte	0
 4270 005c 00000000 		.4byte	0
 4271 0060 02000000 		.4byte	.LBB168
 4272 0064 04000000 		.4byte	.LBE168
 4273 0068 06000000 		.4byte	.LBB177
 4274 006c 0A000000 		.4byte	.LBE177
 4275 0070 00000000 		.4byte	0
 4276 0074 00000000 		.4byte	0
 4277 0078 0E000000 		.4byte	.LBB189
 4278 007c 14000000 		.4byte	.LBE189
 4279 0080 22000000 		.4byte	.LBB200
 4280 0084 28000000 		.4byte	.LBE200
 4281 0088 00000000 		.4byte	0
 4282 008c 00000000 		.4byte	0
 4283 0090 00000000 		.4byte	.LFB255
 4284 0094 04000000 		.4byte	.LFE255
 4285 0098 00000000 		.4byte	.LFB256
 4286 009c 0E000000 		.4byte	.LFE256
 4287 00a0 00000000 		.4byte	.LFB257
 4288 00a4 1C000000 		.4byte	.LFE257
 4289 00a8 00000000 		.4byte	.LFB258
 4290 00ac 1E000000 		.4byte	.LFE258
 4291 00b0 00000000 		.4byte	.LFB259
 4292 00b4 1A000000 		.4byte	.LFE259
 4293 00b8 00000000 		.4byte	.LFB260
 4294 00bc 0E000000 		.4byte	.LFE260
 4295 00c0 00000000 		.4byte	.LFB261
 4296 00c4 2A000000 		.4byte	.LFE261
 4297 00c8 00000000 		.4byte	.LFB262
 4298 00cc 18000000 		.4byte	.LFE262
 4299 00d0 00000000 		.4byte	.LFB263
 4300 00d4 1A000000 		.4byte	.LFE263
 4301 00d8 00000000 		.4byte	.LFB264
 4302 00dc 0E000000 		.4byte	.LFE264
 4303 00e0 00000000 		.4byte	.LFB265
 4304 00e4 2A000000 		.4byte	.LFE265
 4305 00e8 00000000 		.4byte	.LFB266
 4306 00ec 18000000 		.4byte	.LFE266
 4307 00f0 00000000 		.4byte	0
 4308 00f4 00000000 		.4byte	0
 4309              		.section	.debug_line,"",%progbits
 4310              	.Ldebug_line0:
 4311 0000 AA040000 		.section	.debug_str,"MS",%progbits,1
 4311      0200F102 
 4311      00000201 
 4311      FB0E0D00 
 4311      01010101 
 4312              	.LASF159:
 4313 0000 75617274 		.ascii	"uart_lld_start_receive\000"
 4313      5F6C6C64 
 4313      5F737461 
 4313      72745F72 
 4313      65636569 
 4314              	.LASF51:
 4315 0017 72656164 		.ascii	"ready_list_t\000"
 4315      795F6C69 
ARM GAS  C:\Users\jo\AppData\Local\Temp\ccTM2V0a.s 			page 77


 4315      73745F74 
 4315      00
 4316              	.LASF165:
 4317 0024 75617274 		.ascii	"uart_lld_init\000"
 4317      5F6C6C64 
 4317      5F696E69 
 4317      7400
 4318              	.LASF2:
 4319 0032 73697A65 		.ascii	"size_t\000"
 4319      5F7400
 4320              	.LASF129:
 4321 0039 72786368 		.ascii	"rxchar_cb\000"
 4321      61725F63 
 4321      6200
 4322              	.LASF89:
 4323 0043 7264796D 		.ascii	"rdymsg\000"
 4323      736700
 4324              	.LASF19:
 4325 004a 75696E74 		.ascii	"uint64_t\000"
 4325      36345F74 
 4325      00
 4326              	.LASF3:
 4327 0053 5F5F7569 		.ascii	"__uint8_t\000"
 4327      6E74385F 
 4327      7400
 4328              	.LASF141:
 4329 005d 75617274 		.ascii	"uartObjectInit\000"
 4329      4F626A65 
 4329      6374496E 
 4329      697400
 4330              	.LASF85:
 4331 006c 706F7274 		.ascii	"port_intctx\000"
 4331      5F696E74 
 4331      63747800 
 4332              	.LASF70:
 4333 0078 73797374 		.ascii	"system_debug_t\000"
 4333      656D5F64 
 4333      65627567 
 4333      5F7400
 4334              	.LASF118:
 4335 0087 72786275 		.ascii	"rxbuf\000"
 4335      6600
 4336              	.LASF133:
 4337 008d 706F7274 		.ascii	"port_lock\000"
 4337      5F6C6F63 
 4337      6B00
 4338              	.LASF14:
 4339 0097 6C6F6E67 		.ascii	"long long unsigned int\000"
 4339      206C6F6E 
 4339      6720756E 
 4339      7369676E 
 4339      65642069 
 4340              	.LASF90:
 4341 00ae 65786974 		.ascii	"exitcode\000"
 4341      636F6465 
 4341      00
 4342              	.LASF77:
ARM GAS  C:\Users\jo\AppData\Local\Temp\ccTM2V0a.s 			page 78


 4343 00b7 6D61696E 		.ascii	"mainthread\000"
 4343      74687265 
 4343      616400
 4344              	.LASF67:
 4345 00c2 76697274 		.ascii	"virtual_timers_list_t\000"
 4345      75616C5F 
 4345      74696D65 
 4345      72735F6C 
 4345      6973745F 
 4346              	.LASF132:
 4347 00d8 55415254 		.ascii	"UARTConfig\000"
 4347      436F6E66 
 4347      696700
 4348              	.LASF155:
 4349 00e3 49544D5F 		.ascii	"ITM_RxBuffer\000"
 4349      52784275 
 4349      66666572 
 4349      00
 4350              	.LASF50:
 4351 00f0 63685F74 		.ascii	"ch_threads_queue\000"
 4351      68726561 
 4351      64735F71 
 4351      75657565 
 4351      00
 4352              	.LASF31:
 4353 0101 705F7072 		.ascii	"p_prio\000"
 4353      696F00
 4354              	.LASF160:
 4355 0108 75617274 		.ascii	"uart_lld_stop_receive\000"
 4355      5F6C6C64 
 4355      5F73746F 
 4355      705F7265 
 4355      63656976 
 4356              	.LASF12:
 4357 011e 6C6F6E67 		.ascii	"long long int\000"
 4357      206C6F6E 
 4357      6720696E 
 4357      7400
 4358              	.LASF1:
 4359 012c 7369676E 		.ascii	"signed char\000"
 4359      65642063 
 4359      68617200 
 4360              	.LASF123:
 4361 0138 75617274 		.ascii	"uartcb_t\000"
 4361      63625F74 
 4361      00
 4362              	.LASF140:
 4363 0141 75617274 		.ascii	"uartInit\000"
 4363      496E6974 
 4363      00
 4364              	.LASF45:
 4365 014a 705F6D70 		.ascii	"p_mpool\000"
 4365      6F6F6C00 
 4366              	.LASF115:
 4367 0152 72787374 		.ascii	"rxstate\000"
 4367      61746500 
 4368              	.LASF94:
ARM GAS  C:\Users\jo\AppData\Local\Temp\ccTM2V0a.s 			page 79


 4369 015a 6D5F7175 		.ascii	"m_queue\000"
 4369      65756500 
 4370              	.LASF122:
 4371 0162 72784275 		.ascii	"rxBuffer\000"
 4371      66666572 
 4371      00
 4372              	.LASF134:
 4373 016b 706F7274 		.ascii	"port_unlock\000"
 4373      5F756E6C 
 4373      6F636B00 
 4374              	.LASF113:
 4375 0177 73746174 		.ascii	"state\000"
 4375      6500
 4376              	.LASF114:
 4377 017d 74787374 		.ascii	"txstate\000"
 4377      61746500 
 4378              	.LASF9:
 4379 0185 6C6F6E67 		.ascii	"long int\000"
 4379      20696E74 
 4379      00
 4380              	.LASF154:
 4381 018e 75617274 		.ascii	"uartStopReceiveI\000"
 4381      53746F70 
 4381      52656365 
 4381      69766549 
 4381      00
 4382              	.LASF22:
 4383 019f 74737461 		.ascii	"tstate_t\000"
 4383      74655F74 
 4383      00
 4384              	.LASF153:
 4385 01a8 75617274 		.ascii	"uartStopReceive\000"
 4385      53746F70 
 4385      52656365 
 4385      69766500 
 4386              	.LASF146:
 4387 01b8 75617274 		.ascii	"uartStartSend\000"
 4387      53746172 
 4387      7453656E 
 4387      6400
 4388              	.LASF33:
 4389 01c6 705F6E65 		.ascii	"p_newer\000"
 4389      77657200 
 4390              	.LASF110:
 4391 01ce 75617274 		.ascii	"uartrxstate_t\000"
 4391      72787374 
 4391      6174655F 
 4391      7400
 4392              	.LASF112:
 4393 01dc 55415254 		.ascii	"UARTDriver\000"
 4393      44726976 
 4393      657200
 4394              	.LASF56:
 4395 01e7 725F6E65 		.ascii	"r_newer\000"
 4395      77657200 
 4396              	.LASF82:
 4397 01ef 72656761 		.ascii	"regarm_t\000"
ARM GAS  C:\Users\jo\AppData\Local\Temp\ccTM2V0a.s 			page 80


 4397      726D5F74 
 4397      00
 4398              	.LASF63:
 4399 01f8 76745F70 		.ascii	"vt_prev\000"
 4399      72657600 
 4400              	.LASF76:
 4401 0200 76746C69 		.ascii	"vtlist\000"
 4401      737400
 4402              	.LASF138:
 4403 0207 6F73616C 		.ascii	"osalSysLock\000"
 4403      5379734C 
 4403      6F636B00 
 4404              	.LASF97:
 4405 0213 6D757465 		.ascii	"mutex_t\000"
 4405      785F7400 
 4406              	.LASF164:
 4407 021b 76616C75 		.ascii	"value\000"
 4407      6500
 4408              	.LASF78:
 4409 0221 69646C65 		.ascii	"idle_thread_wa\000"
 4409      5F746872 
 4409      6561645F 
 4409      776100
 4410              	.LASF104:
 4411 0230 55415254 		.ascii	"UART_TX_ACTIVE\000"
 4411      5F54585F 
 4411      41435449 
 4411      564500
 4412              	.LASF117:
 4413 023f 75736172 		.ascii	"usart\000"
 4413      7400
 4414              	.LASF0:
 4415 0245 756E7369 		.ascii	"unsigned int\000"
 4415      676E6564 
 4415      20696E74 
 4415      00
 4416              	.LASF62:
 4417 0252 76745F6E 		.ascii	"vt_next\000"
 4417      65787400 
 4418              	.LASF147:
 4419 025a 74786275 		.ascii	"txbuf\000"
 4419      6600
 4420              	.LASF64:
 4421 0260 76745F64 		.ascii	"vt_delta\000"
 4421      656C7461 
 4421      00
 4422              	.LASF166:
 4423 0269 75617274 		.ascii	"uart_lld_stop_send\000"
 4423      5F6C6C64 
 4423      5F73746F 
 4423      705F7365 
 4423      6E6400
 4424              	.LASF40:
 4425 027c 705F6D73 		.ascii	"p_msgqueue\000"
 4425      67717565 
 4425      756500
 4426              	.LASF125:
ARM GAS  C:\Users\jo\AppData\Local\Temp\ccTM2V0a.s 			page 81


 4427 0287 75617274 		.ascii	"uartecb_t\000"
 4427      6563625F 
 4427      7400
 4428              	.LASF7:
 4429 0291 73686F72 		.ascii	"short unsigned int\000"
 4429      7420756E 
 4429      7369676E 
 4429      65642069 
 4429      6E7400
 4430              	.LASF99:
 4431 02a4 55415254 		.ascii	"UART_UNINIT\000"
 4431      5F554E49 
 4431      4E495400 
 4432              	.LASF100:
 4433 02b0 55415254 		.ascii	"UART_STOP\000"
 4433      5F53544F 
 4433      5000
 4434              	.LASF47:
 4435 02ba 63685F74 		.ascii	"ch_thread\000"
 4435      68726561 
 4435      6400
 4436              	.LASF143:
 4437 02c4 75617274 		.ascii	"uartp\000"
 4437      7000
 4438              	.LASF25:
 4439 02ca 6D73675F 		.ascii	"msg_t\000"
 4439      7400
 4440              	.LASF73:
 4441 02d0 63685F73 		.ascii	"ch_system_t\000"
 4441      79737465 
 4441      6D5F7400 
 4442              	.LASF81:
 4443 02dc 55534152 		.ascii	"USART_TypeDef\000"
 4443      545F5479 
 4443      70654465 
 4443      6600
 4444              	.LASF21:
 4445 02ea 746D6F64 		.ascii	"tmode_t\000"
 4445      655F7400 
 4446              	.LASF16:
 4447 02f2 75696E74 		.ascii	"uint16_t\000"
 4447      31365F74 
 4447      00
 4448              	.LASF52:
 4449 02fb 63685F72 		.ascii	"ch_ready_list\000"
 4449      65616479 
 4449      5F6C6973 
 4449      7400
 4450              	.LASF26:
 4451 0309 6576656E 		.ascii	"eventmask_t\000"
 4451      746D6173 
 4451      6B5F7400 
 4452              	.LASF8:
 4453 0315 5F5F696E 		.ascii	"__int32_t\000"
 4453      7433325F 
 4453      7400
 4454              	.LASF83:
ARM GAS  C:\Users\jo\AppData\Local\Temp\ccTM2V0a.s 			page 82


 4455 031f 73746B61 		.ascii	"stkalign_t\000"
 4455      6C69676E 
 4455      5F7400
 4456              	.LASF101:
 4457 032a 55415254 		.ascii	"UART_READY\000"
 4457      5F524541 
 4457      445900
 4458              	.LASF162:
 4459 0335 2E2E2F2E 		.ascii	"../../../os/hal/src/uart.c\000"
 4459      2E2F2E2E 
 4459      2F6F732F 
 4459      68616C2F 
 4459      7372632F 
 4460              	.LASF150:
 4461 0350 75617274 		.ascii	"uartStopSendI\000"
 4461      53746F70 
 4461      53656E64 
 4461      4900
 4462              	.LASF39:
 4463 035e 705F7761 		.ascii	"p_waiting\000"
 4463      6974696E 
 4463      6700
 4464              	.LASF79:
 4465 0368 73697A65 		.ascii	"sizetype\000"
 4465      74797065 
 4465      00
 4466              	.LASF68:
 4467 0371 63685F76 		.ascii	"ch_virtual_timers_list\000"
 4467      69727475 
 4467      616C5F74 
 4467      696D6572 
 4467      735F6C69 
 4468              	.LASF109:
 4469 0388 55415254 		.ascii	"UART_RX_COMPLETE\000"
 4469      5F52585F 
 4469      434F4D50 
 4469      4C455445 
 4469      00
 4470              	.LASF149:
 4471 0399 75617274 		.ascii	"uartStopSend\000"
 4471      53746F70 
 4471      53656E64 
 4471      00
 4472              	.LASF130:
 4473 03a6 72786572 		.ascii	"rxerr_cb\000"
 4473      725F6362 
 4473      00
 4474              	.LASF69:
 4475 03af 76745F6C 		.ascii	"vt_lasttime\000"
 4475      61737474 
 4475      696D6500 
 4476              	.LASF34:
 4477 03bb 705F6F6C 		.ascii	"p_older\000"
 4477      64657200 
 4478              	.LASF55:
 4479 03c3 725F6374 		.ascii	"r_ctx\000"
 4479      7800
ARM GAS  C:\Users\jo\AppData\Local\Temp\ccTM2V0a.s 			page 83


 4480              	.LASF111:
 4481 03c9 75617274 		.ascii	"uartflags_t\000"
 4481      666C6167 
 4481      735F7400 
 4482              	.LASF142:
 4483 03d5 75617274 		.ascii	"uartStart\000"
 4483      53746172 
 4483      7400
 4484              	.LASF128:
 4485 03df 7278656E 		.ascii	"rxend_cb\000"
 4485      645F6362 
 4485      00
 4486              	.LASF88:
 4487 03e8 746D5F63 		.ascii	"tm_calibration_t\000"
 4487      616C6962 
 4487      72617469 
 4487      6F6E5F74 
 4487      00
 4488              	.LASF106:
 4489 03f9 75617274 		.ascii	"uarttxstate_t\000"
 4489      74787374 
 4489      6174655F 
 4489      7400
 4490              	.LASF58:
 4491 0407 725F6375 		.ascii	"r_current\000"
 4491      7272656E 
 4491      7400
 4492              	.LASF57:
 4493 0411 725F6F6C 		.ascii	"r_older\000"
 4493      64657200 
 4494              	.LASF80:
 4495 0419 47545052 		.ascii	"GTPR\000"
 4495      00
 4496              	.LASF161:
 4497 041e 474E5520 		.ascii	"GNU C 4.9.3 20141119 (release) [ARM/embedded-4_9-br"
 4497      4320342E 
 4497      392E3320 
 4497      32303134 
 4497      31313139 
 4498 0451 616E6368 		.ascii	"anch revision 218278] -mcpu=cortex-m4 -mfloat-abi=h"
 4498      20726576 
 4498      6973696F 
 4498      6E203231 
 4498      38323738 
 4499 0484 61726420 		.ascii	"ard -mfpu=fpv4-sp-d16 -mno-thumb-interwork -mthumb "
 4499      2D6D6670 
 4499      753D6670 
 4499      76342D73 
 4499      702D6431 
 4500 04b7 2D676764 		.ascii	"-ggdb -O2 -fomit-frame-pointer -falign-functions=16"
 4500      62202D4F 
 4500      32202D66 
 4500      6F6D6974 
 4500      2D667261 
 4501 04ea 202D6666 		.ascii	" -ffunction-sections -fdata-sections -fno-common -f"
 4501      756E6374 
 4501      696F6E2D 
ARM GAS  C:\Users\jo\AppData\Local\Temp\ccTM2V0a.s 			page 84


 4501      73656374 
 4501      696F6E73 
 4502 051d 73696E67 		.ascii	"single-precision-constant\000"
 4502      6C652D70 
 4502      72656369 
 4502      73696F6E 
 4502      2D636F6E 
 4503              	.LASF13:
 4504 0537 5F5F7569 		.ascii	"__uint64_t\000"
 4504      6E743634 
 4504      5F7400
 4505              	.LASF23:
 4506 0542 74726566 		.ascii	"trefs_t\000"
 4506      735F7400 
 4507              	.LASF60:
 4508 054a 76697274 		.ascii	"virtual_timer_t\000"
 4508      75616C5F 
 4508      74696D65 
 4508      725F7400 
 4509              	.LASF30:
 4510 055a 705F7072 		.ascii	"p_prev\000"
 4510      657600
 4511              	.LASF127:
 4512 0561 7478656E 		.ascii	"txend2_cb\000"
 4512      64325F63 
 4512      6200
 4513              	.LASF24:
 4514 056b 74707269 		.ascii	"tprio_t\000"
 4514      6F5F7400 
 4515              	.LASF152:
 4516 0573 75617274 		.ascii	"uartStartReceiveI\000"
 4516      53746172 
 4516      74526563 
 4516      65697665 
 4516      4900
 4517              	.LASF93:
 4518 0585 6D757465 		.ascii	"mutex\000"
 4518      7800
 4519              	.LASF71:
 4520 058b 63685F73 		.ascii	"ch_system_debug\000"
 4520      79737465 
 4520      6D5F6465 
 4520      62756700 
 4521              	.LASF98:
 4522 059b 5F426F6F 		.ascii	"_Bool\000"
 4522      6C00
 4523              	.LASF17:
 4524 05a1 696E7433 		.ascii	"int32_t\000"
 4524      325F7400 
 4525              	.LASF4:
 4526 05a9 756E7369 		.ascii	"unsigned char\000"
 4526      676E6564 
 4526      20636861 
 4526      7200
 4527              	.LASF43:
 4528 05b7 705F6D74 		.ascii	"p_mtxlist\000"
 4528      786C6973 
ARM GAS  C:\Users\jo\AppData\Local\Temp\ccTM2V0a.s 			page 85


 4528      7400
 4529              	.LASF5:
 4530 05c1 73686F72 		.ascii	"short int\000"
 4530      7420696E 
 4530      7400
 4531              	.LASF36:
 4532 05cb 705F7374 		.ascii	"p_state\000"
 4532      61746500 
 4533              	.LASF54:
 4534 05d3 725F7072 		.ascii	"r_prio\000"
 4534      696F00
 4535              	.LASF92:
 4536 05da 65776D61 		.ascii	"ewmask\000"
 4536      736B00
 4537              	.LASF29:
 4538 05e1 705F6E65 		.ascii	"p_next\000"
 4538      787400
 4539              	.LASF102:
 4540 05e8 75617274 		.ascii	"uartstate_t\000"
 4540      73746174 
 4540      655F7400 
 4541              	.LASF37:
 4542 05f4 705F666C 		.ascii	"p_flags\000"
 4542      61677300 
 4543              	.LASF145:
 4544 05fc 5F5F6675 		.ascii	"__func__\000"
 4544      6E635F5F 
 4544      00
 4545              	.LASF135:
 4546 0605 63685379 		.ascii	"chSysLock\000"
 4546      734C6F63 
 4546      6B00
 4547              	.LASF74:
 4548 060f 63685F73 		.ascii	"ch_system\000"
 4548      79737465 
 4548      6D00
 4549              	.LASF139:
 4550 0619 6F73616C 		.ascii	"osalSysUnlock\000"
 4550      53797355 
 4550      6E6C6F63 
 4550      6B00
 4551              	.LASF105:
 4552 0627 55415254 		.ascii	"UART_TX_COMPLETE\000"
 4552      5F54585F 
 4552      434F4D50 
 4552      4C455445 
 4552      00
 4553              	.LASF42:
 4554 0638 705F6570 		.ascii	"p_epending\000"
 4554      656E6469 
 4554      6E6700
 4555              	.LASF18:
 4556 0643 75696E74 		.ascii	"uint32_t\000"
 4556      33325F74 
 4556      00
 4557              	.LASF53:
 4558 064c 725F7175 		.ascii	"r_queue\000"
ARM GAS  C:\Users\jo\AppData\Local\Temp\ccTM2V0a.s 			page 86


 4558      65756500 
 4559              	.LASF48:
 4560 0654 63685F74 		.ascii	"ch_threads_list\000"
 4560      68726561 
 4560      64735F6C 
 4560      69737400 
 4561              	.LASF120:
 4562 0664 74784275 		.ascii	"txBuf\000"
 4562      6600
 4563              	.LASF124:
 4564 066a 75617274 		.ascii	"uartccb_t\000"
 4564      6363625F 
 4564      7400
 4565              	.LASF144:
 4566 0674 75617274 		.ascii	"uartStop\000"
 4566      53746F70 
 4566      00
 4567              	.LASF11:
 4568 067d 6C6F6E67 		.ascii	"long unsigned int\000"
 4568      20756E73 
 4568      69676E65 
 4568      6420696E 
 4568      7400
 4569              	.LASF156:
 4570 068f 75617274 		.ascii	"uart_lld_start\000"
 4570      5F6C6C64 
 4570      5F737461 
 4570      727400
 4571              	.LASF86:
 4572 069e 63686172 		.ascii	"char\000"
 4572      00
 4573              	.LASF116:
 4574 06a3 636F6E66 		.ascii	"config\000"
 4574      696700
 4575              	.LASF107:
 4576 06aa 55415254 		.ascii	"UART_RX_IDLE\000"
 4576      5F52585F 
 4576      49444C45 
 4576      00
 4577              	.LASF163:
 4578 06b7 433A5C55 		.ascii	"C:\\Users\\jo\\Documents\\GitHub\\ChibiOS\\demos\\S"
 4578      73657273 
 4578      5C6A6F5C 
 4578      446F6375 
 4578      6D656E74 
 4579 06e3 544D3332 		.ascii	"TM32\\RT-STM32F407-DISCOVERY\000"
 4579      5C52542D 
 4579      53544D33 
 4579      32463430 
 4579      372D4449 
 4580              	.LASF6:
 4581 06ff 5F5F7569 		.ascii	"__uint16_t\000"
 4581      6E743136 
 4581      5F7400
 4582              	.LASF28:
 4583 070a 74687265 		.ascii	"thread_t\000"
 4583      61645F74 
ARM GAS  C:\Users\jo\AppData\Local\Temp\ccTM2V0a.s 			page 87


 4583      00
 4584              	.LASF96:
 4585 0713 6D5F6E65 		.ascii	"m_next\000"
 4585      787400
 4586              	.LASF27:
 4587 071a 73797374 		.ascii	"systime_t\000"
 4587      696D655F 
 4587      7400
 4588              	.LASF44:
 4589 0724 705F7265 		.ascii	"p_realprio\000"
 4589      616C7072 
 4589      696F00
 4590              	.LASF59:
 4591 072f 76746675 		.ascii	"vtfunc_t\000"
 4591      6E635F74 
 4591      00
 4592              	.LASF10:
 4593 0738 5F5F7569 		.ascii	"__uint32_t\000"
 4593      6E743332 
 4593      5F7400
 4594              	.LASF136:
 4595 0743 5F5F7365 		.ascii	"__set_BASEPRI\000"
 4595      745F4241 
 4595      53455052 
 4595      4900
 4596              	.LASF103:
 4597 0751 55415254 		.ascii	"UART_TX_IDLE\000"
 4597      5F54585F 
 4597      49444C45 
 4597      00
 4598              	.LASF72:
 4599 075e 70616E69 		.ascii	"panic_msg\000"
 4599      635F6D73 
 4599      6700
 4600              	.LASF87:
 4601 0768 6F666673 		.ascii	"offset\000"
 4601      657400
 4602              	.LASF84:
 4603 076f 636F6E74 		.ascii	"context\000"
 4603      65787400 
 4604              	.LASF61:
 4605 0777 63685F76 		.ascii	"ch_virtual_timer\000"
 4605      69727475 
 4605      616C5F74 
 4605      696D6572 
 4605      00
 4606              	.LASF20:
 4607 0788 7274636E 		.ascii	"rtcnt_t\000"
 4607      745F7400 
 4608              	.LASF66:
 4609 0790 76745F70 		.ascii	"vt_par\000"
 4609      617200
 4610              	.LASF49:
 4611 0797 74687265 		.ascii	"threads_queue_t\000"
 4611      6164735F 
 4611      71756575 
 4611      655F7400 
ARM GAS  C:\Users\jo\AppData\Local\Temp\ccTM2V0a.s 			page 88


 4612              	.LASF35:
 4613 07a7 705F6E61 		.ascii	"p_name\000"
 4613      6D6500
 4614              	.LASF38:
 4615 07ae 705F7265 		.ascii	"p_refs\000"
 4615      667300
 4616              	.LASF126:
 4617 07b5 7478656E 		.ascii	"txend1_cb\000"
 4617      64315F63 
 4617      6200
 4618              	.LASF148:
 4619 07bf 75617274 		.ascii	"uartStartSendI\000"
 4619      53746172 
 4619      7453656E 
 4619      644900
 4620              	.LASF75:
 4621 07ce 726C6973 		.ascii	"rlist\000"
 4621      7400
 4622              	.LASF15:
 4623 07d4 75696E74 		.ascii	"uint8_t\000"
 4623      385F7400 
 4624              	.LASF119:
 4625 07dc 7478436F 		.ascii	"txCount\000"
 4625      756E7400 
 4626              	.LASF91:
 4627 07e4 77746F62 		.ascii	"wtobjp\000"
 4627      6A7000
 4628              	.LASF131:
 4629 07eb 73706565 		.ascii	"speed\000"
 4629      6400
 4630              	.LASF46:
 4631 07f1 74687265 		.ascii	"threads_list_t\000"
 4631      6164735F 
 4631      6C697374 
 4631      5F7400
 4632              	.LASF158:
 4633 0800 75617274 		.ascii	"uart_lld_start_send\000"
 4633      5F6C6C64 
 4633      5F737461 
 4633      72745F73 
 4633      656E6400 
 4634              	.LASF137:
 4635 0814 63685379 		.ascii	"chSysUnlock\000"
 4635      73556E6C 
 4635      6F636B00 
 4636              	.LASF41:
 4637 0820 705F6D73 		.ascii	"p_msg\000"
 4637      6700
 4638              	.LASF157:
 4639 0826 75617274 		.ascii	"uart_lld_stop\000"
 4639      5F6C6C64 
 4639      5F73746F 
 4639      7000
 4640              	.LASF121:
 4641 0834 7278436F 		.ascii	"rxCount\000"
 4641      756E7400 
 4642              	.LASF151:
ARM GAS  C:\Users\jo\AppData\Local\Temp\ccTM2V0a.s 			page 89


 4643 083c 75617274 		.ascii	"uartStartReceive\000"
 4643      53746172 
 4643      74526563 
 4643      65697665 
 4643      00
 4644              	.LASF95:
 4645 084d 6D5F6F77 		.ascii	"m_owner\000"
 4645      6E657200 
 4646              	.LASF108:
 4647 0855 55415254 		.ascii	"UART_RX_ACTIVE\000"
 4647      5F52585F 
 4647      41435449 
 4647      564500
 4648              	.LASF32:
 4649 0864 705F6374 		.ascii	"p_ctx\000"
 4649      7800
 4650              	.LASF65:
 4651 086a 76745F66 		.ascii	"vt_func\000"
 4651      756E6300 
 4652              		.ident	"GCC: (GNU Tools for ARM Embedded Processors) 4.9.3 20141119 (release) [ARM/embedded-4_9-br
ARM GAS  C:\Users\jo\AppData\Local\Temp\ccTM2V0a.s 			page 90


DEFINED SYMBOLS
                            *ABS*:00000000 uart.c
C:\Users\jo\AppData\Local\Temp\ccTM2V0a.s:21     .text.uartInit:00000000 $t
C:\Users\jo\AppData\Local\Temp\ccTM2V0a.s:27     .text.uartInit:00000000 uartInit
C:\Users\jo\AppData\Local\Temp\ccTM2V0a.s:42     .text.uartObjectInit:00000000 $t
C:\Users\jo\AppData\Local\Temp\ccTM2V0a.s:48     .text.uartObjectInit:00000000 uartObjectInit
C:\Users\jo\AppData\Local\Temp\ccTM2V0a.s:72     .text.uartStart:00000000 $t
C:\Users\jo\AppData\Local\Temp\ccTM2V0a.s:78     .text.uartStart:00000000 uartStart
C:\Users\jo\AppData\Local\Temp\ccTM2V0a.s:151    .text.uartStop:00000000 $t
C:\Users\jo\AppData\Local\Temp\ccTM2V0a.s:157    .text.uartStop:00000000 uartStop
C:\Users\jo\AppData\Local\Temp\ccTM2V0a.s:232    .text.uartStartSend:00000000 $t
C:\Users\jo\AppData\Local\Temp\ccTM2V0a.s:238    .text.uartStartSend:00000000 uartStartSend
C:\Users\jo\AppData\Local\Temp\ccTM2V0a.s:308    .text.uartStartSendI:00000000 $t
C:\Users\jo\AppData\Local\Temp\ccTM2V0a.s:314    .text.uartStartSendI:00000000 uartStartSendI
C:\Users\jo\AppData\Local\Temp\ccTM2V0a.s:338    .text.uartStopSend:00000000 $t
C:\Users\jo\AppData\Local\Temp\ccTM2V0a.s:344    .text.uartStopSend:00000000 uartStopSend
C:\Users\jo\AppData\Local\Temp\ccTM2V0a.s:433    .text.uartStopSendI:00000000 $t
C:\Users\jo\AppData\Local\Temp\ccTM2V0a.s:439    .text.uartStopSendI:00000000 uartStopSendI
C:\Users\jo\AppData\Local\Temp\ccTM2V0a.s:476    .text.uartStartReceive:00000000 $t
C:\Users\jo\AppData\Local\Temp\ccTM2V0a.s:482    .text.uartStartReceive:00000000 uartStartReceive
C:\Users\jo\AppData\Local\Temp\ccTM2V0a.s:552    .text.uartStartReceiveI:00000000 $t
C:\Users\jo\AppData\Local\Temp\ccTM2V0a.s:558    .text.uartStartReceiveI:00000000 uartStartReceiveI
C:\Users\jo\AppData\Local\Temp\ccTM2V0a.s:582    .text.uartStopReceive:00000000 $t
C:\Users\jo\AppData\Local\Temp\ccTM2V0a.s:588    .text.uartStopReceive:00000000 uartStopReceive
C:\Users\jo\AppData\Local\Temp\ccTM2V0a.s:677    .text.uartStopReceiveI:00000000 $t
C:\Users\jo\AppData\Local\Temp\ccTM2V0a.s:683    .text.uartStopReceiveI:00000000 uartStopReceiveI
                     .debug_frame:00000010 $d

UNDEFINED SYMBOLS
uart_lld_init
uart_lld_start
uart_lld_stop
uart_lld_start_send
uart_lld_stop_send
uart_lld_start_receive
uart_lld_stop_receive
