ARM GAS  C:\Users\jo\AppData\Local\Temp\cc2IHt9i.s 			page 1


   1              		.syntax unified
   2              		.cpu cortex-m4
   3              		.eabi_attribute 27, 3
   4              		.eabi_attribute 28, 1
   5              		.fpu fpv4-sp-d16
   6              		.eabi_attribute 20, 1
   7              		.eabi_attribute 21, 1
   8              		.eabi_attribute 23, 3
   9              		.eabi_attribute 24, 1
  10              		.eabi_attribute 25, 1
  11              		.eabi_attribute 26, 1
  12              		.eabi_attribute 30, 2
  13              		.eabi_attribute 34, 1
  14              		.eabi_attribute 18, 4
  15              		.thumb
  16              		.file	"udp.c"
  17              		.text
  18              	.Ltext0:
  19              		.cfi_sections	.debug_frame
  20              		.section	.text.chprintf.constprop.1,"ax",%progbits
  21              		.align	2
  22              		.p2align 4,,15
  23              		.thumb
  24              		.thumb_func
  25              		.type	chprintf.constprop.1, %function
  26              	chprintf.constprop.1:
  27              	.LFB269:
  28              		.file 1 "../../../os/hal/lib/streams/chprintf.h"
  29              		.loc 1 69 0
  30              		.cfi_startproc
  31              		@ args = 4, pretend = 12, frame = 8
  32              		@ frame_needed = 0, uses_anonymous_args = 1
  33              	.LVL0:
  34 0000 0EB4     		push	{r1, r2, r3}
  35              		.cfi_def_cfa_offset 12
  36              		.cfi_offset 1, -12
  37              		.cfi_offset 2, -8
  38              		.cfi_offset 3, -4
  39 0002 00B5     		push	{lr}
  40              		.cfi_def_cfa_offset 16
  41              		.cfi_offset 14, -16
  42 0004 82B0     		sub	sp, sp, #8
  43              		.cfi_def_cfa_offset 24
  44              		.loc 1 73 0
  45 0006 04AB     		add	r3, sp, #16
  46              		.loc 1 74 0
  47 0008 1A46     		mov	r2, r3
  48 000a 0549     		ldr	r1, .L3
  49 000c 0548     		ldr	r0, .L3+4
  50              	.LVL1:
  51              		.loc 1 73 0
  52 000e 0193     		str	r3, [sp, #4]
  53              		.loc 1 74 0
  54 0010 FFF7FEFF 		bl	chvprintf
  55              	.LVL2:
  56              		.loc 1 78 0
  57 0014 02B0     		add	sp, sp, #8
ARM GAS  C:\Users\jo\AppData\Local\Temp\cc2IHt9i.s 			page 2


  58              		.cfi_def_cfa_offset 16
  59              		@ sp needed
  60 0016 5DF804EB 		ldr	lr, [sp], #4
  61              		.cfi_restore 14
  62              		.cfi_def_cfa_offset 12
  63 001a 03B0     		add	sp, sp, #12
  64              		.cfi_restore 3
  65              		.cfi_restore 2
  66              		.cfi_restore 1
  67              		.cfi_def_cfa_offset 0
  68 001c 7047     		bx	lr
  69              	.L4:
  70 001e 00BF     		.align	2
  71              	.L3:
  72 0020 00000000 		.word	.LC0
  73 0024 00000000 		.word	itm_port
  74              		.cfi_endproc
  75              	.LFE269:
  76              		.size	chprintf.constprop.1, .-chprintf.constprop.1
  77 0028 AFF30080 		.section	.text.udp_init,"ax",%progbits
  77      AFF30080 
  78              		.align	2
  79              		.p2align 4,,15
  80              		.global	udp_init
  81              		.thumb
  82              		.thumb_func
  83              		.type	udp_init, %function
  84              	udp_init:
  85              	.LFB256:
  86              		.file 2 "../../../os/ext/lwip-1.4.1/src/core/udp.c"
  87              		.loc 2 87 0
  88              		.cfi_startproc
  89              		@ args = 0, pretend = 0, frame = 0
  90              		@ frame_needed = 0, uses_anonymous_args = 0
  91              		@ link register save eliminated.
  92 0000 7047     		bx	lr
  93              		.cfi_endproc
  94              	.LFE256:
  95              		.size	udp_init, .-udp_init
  96 0002 00BFAFF3 		.section	.text.udp_input,"ax",%progbits
  96      0080AFF3 
  96      0080AFF3 
  96      0080
  97              		.align	2
  98              		.p2align 4,,15
  99              		.global	udp_input
 100              		.thumb
 101              		.thumb_func
 102              		.type	udp_input, %function
 103              	udp_input:
 104              	.LFB258:
 105              		.loc 2 152 0
 106              		.cfi_startproc
 107              		@ args = 0, pretend = 0, frame = 8
 108              		@ frame_needed = 0, uses_anonymous_args = 0
 109              	.LVL3:
 110              		.loc 2 152 0
ARM GAS  C:\Users\jo\AppData\Local\Temp\cc2IHt9i.s 			page 3


 111 0000 2DE9F04F 		push	{r4, r5, r6, r7, r8, r9, r10, fp, lr}
 112              		.cfi_def_cfa_offset 36
 113              		.cfi_offset 4, -36
 114              		.cfi_offset 5, -32
 115              		.cfi_offset 6, -28
 116              		.cfi_offset 7, -24
 117              		.cfi_offset 8, -20
 118              		.cfi_offset 9, -16
 119              		.cfi_offset 10, -12
 120              		.cfi_offset 11, -8
 121              		.cfi_offset 14, -4
 122              		.loc 2 163 0
 123 0004 7D4D     		ldr	r5, .L74
 124              		.loc 2 165 0
 125 0006 D0F80480 		ldr	r8, [r0, #4]
 126              	.LVL4:
 127              		.loc 2 163 0
 128 000a B5F87A30 		ldrh	r3, [r5, #122]
 129              		.loc 2 169 0
 130 000e 0289     		ldrh	r2, [r0, #8]
 131              		.loc 2 163 0
 132 0010 0133     		adds	r3, r3, #1
 133 0012 A5F87A30 		strh	r3, [r5, #122]	@ movhi
 134              		.loc 2 169 0
 135 0016 98F80030 		ldrb	r3, [r8]	@ zero_extendqisi2
 136 001a 03F00F03 		and	r3, r3, #15
 137 001e 9C1C     		adds	r4, r3, #2
 138 0020 B2EB840F 		cmp	r2, r4, lsl #2
 139              		.loc 2 152 0
 140 0024 85B0     		sub	sp, sp, #20
 141              		.cfi_def_cfa_offset 56
 142              		.loc 2 152 0
 143 0026 0646     		mov	r6, r0
 144              		.loc 2 169 0
 145 0028 06DB     		blt	.L8
 146 002a 8A46     		mov	r10, r1
 147              		.loc 2 169 0 is_stmt 0 discriminator 1
 148 002c 9900     		lsls	r1, r3, #2
 149              	.LVL5:
 150 002e 4942     		negs	r1, r1
 151 0030 FFF7FEFF 		bl	pbuf_header
 152              	.LVL6:
 153 0034 0446     		mov	r4, r0
 154 0036 78B1     		cbz	r0, .L67
 155              	.LVL7:
 156              	.L8:
 157              		.loc 2 173 0 is_stmt 1
 158 0038 B5F88220 		ldrh	r2, [r5, #130]
 159              		.loc 2 174 0
 160 003c B5F87E30 		ldrh	r3, [r5, #126]
 161              		.loc 2 173 0
 162 0040 0132     		adds	r2, r2, #1
 163              		.loc 2 176 0
 164 0042 3046     		mov	r0, r6
 165              		.loc 2 174 0
 166 0044 0133     		adds	r3, r3, #1
 167              		.loc 2 173 0
ARM GAS  C:\Users\jo\AppData\Local\Temp\cc2IHt9i.s 			page 4


 168 0046 A5F88220 		strh	r2, [r5, #130]	@ movhi
 169              	.LVL8:
 170              	.L61:
 171              		.loc 2 424 0
 172 004a A5F87E30 		strh	r3, [r5, #126]	@ movhi
 173              	.L62:
 174              		.loc 2 433 0
 175 004e 05B0     		add	sp, sp, #20
 176              		.cfi_remember_state
 177              		.cfi_def_cfa_offset 36
 178              		@ sp needed
 179 0050 BDE8F04F 		pop	{r4, r5, r6, r7, r8, r9, r10, fp, lr}
 180              		.cfi_restore 14
 181              		.cfi_restore 11
 182              		.cfi_restore 10
 183              		.cfi_restore 9
 184              		.cfi_restore 8
 185              		.cfi_restore 7
 186              		.cfi_restore 6
 187              		.cfi_restore 5
 188              		.cfi_restore 4
 189              		.cfi_def_cfa_offset 0
 190              	.LVL9:
 191              		.loc 2 426 0
 192 0054 FFF7FEBF 		b	pbuf_free
 193              	.LVL10:
 194              	.L67:
 195              		.cfi_restore_state
 196              		.loc 2 183 0
 197 0058 6949     		ldr	r1, .L74+4
 198              		.loc 2 180 0
 199 005a 7368     		ldr	r3, [r6, #4]
 200              		.loc 2 183 0
 201 005c 0868     		ldr	r0, [r1]
 202              		.loc 2 180 0
 203 005e 0293     		str	r3, [sp, #8]
 204              	.LVL11:
 205              		.loc 2 183 0
 206 0060 5146     		mov	r1, r10
 207 0062 FFF7FEFF 		bl	ip4_addr_isbroadcast
 208              	.LVL12:
 209              		.loc 2 188 0
 210 0066 029A     		ldr	r2, [sp, #8]
 211              		.loc 2 183 0
 212 0068 0746     		mov	r7, r0
 213              	.LVL13:
 214              		.loc 2 188 0
 215 006a 1088     		ldrh	r0, [r2]	@ unaligned
 216 006c FFF7FEFF 		bl	lwip_ntohs
 217              	.LVL14:
 218              		.loc 2 189 0
 219 0070 029A     		ldr	r2, [sp, #8]
 220              		.loc 2 188 0
 221 0072 8146     		mov	r9, r0
 222              	.LVL15:
 223              		.loc 2 189 0
 224 0074 5088     		ldrh	r0, [r2, #2]	@ unaligned
ARM GAS  C:\Users\jo\AppData\Local\Temp\cc2IHt9i.s 			page 5


 225 0076 FFF7FEFF 		bl	lwip_ntohs
 226              	.LVL16:
 227              		.loc 2 229 0
 228 007a 624B     		ldr	r3, .L74+8
 229 007c 1B68     		ldr	r3, [r3]
 230 007e 0393     		str	r3, [sp, #12]
 231              	.LVL17:
 232 0080 1946     		mov	r1, r3
 233 0082 002B     		cmp	r3, #0
 234 0084 5FD0     		beq	.L9
 235              		.loc 2 269 0
 236 0086 604B     		ldr	r3, .L74+12
 237              	.LVL18:
 238              		.loc 2 244 0
 239 0088 5D4A     		ldr	r2, .L74+4
 240              		.loc 2 269 0
 241 008a D3F800B0 		ldr	fp, [r3]
 242              		.loc 2 244 0
 243 008e D2F800C0 		ldr	ip, [r2]
 244              		.loc 2 269 0
 245 0092 2346     		mov	r3, r4
 246 0094 2246     		mov	r2, r4
 247 0096 0C46     		mov	r4, r1
 248 0098 04E0     		b	.L20
 249              	.LVL19:
 250              	.L10:
 251              		.loc 2 229 0 discriminator 2
 252 009a E168     		ldr	r1, [r4, #12]
 253              	.LVL20:
 254 009c 2346     		mov	r3, r4
 255 009e 0029     		cmp	r1, #0
 256 00a0 4FD0     		beq	.L68
 257              	.LVL21:
 258 00a2 0C46     		mov	r4, r1
 259              	.LVL22:
 260              	.L20:
 261              		.loc 2 241 0
 262 00a4 618A     		ldrh	r1, [r4, #18]
 263              	.LVL23:
 264 00a6 8142     		cmp	r1, r0
 265 00a8 F7D1     		bne	.L10
 266              		.loc 2 243 0
 267 00aa 2168     		ldr	r1, [r4]
 268              		.loc 2 242 0
 269 00ac 002F     		cmp	r7, #0
 270 00ae 35D1     		bne	.L11
 271              		.loc 2 243 0
 272 00b0 09B1     		cbz	r1, .L12
 273 00b2 8C45     		cmp	ip, r1
 274 00b4 F1D1     		bne	.L10
 275              	.L12:
 276              	.LVL24:
 277              		.loc 2 258 0
 278 00b6 002A     		cmp	r2, #0
 279 00b8 3DD0     		beq	.L69
 280              	.L26:
 281              	.LVL25:
ARM GAS  C:\Users\jo\AppData\Local\Temp\cc2IHt9i.s 			page 6


 282              	.L14:
 283              		.loc 2 266 0
 284 00ba A18A     		ldrh	r1, [r4, #20]
 285 00bc 4945     		cmp	r1, r9
 286 00be ECD1     		bne	.L10
 287              		.loc 2 268 0
 288 00c0 6168     		ldr	r1, [r4, #4]
 289 00c2 09B1     		cbz	r1, .L18
 290              		.loc 2 268 0 is_stmt 0 discriminator 1
 291 00c4 5945     		cmp	r1, fp
 292 00c6 E8D1     		bne	.L10
 293              	.L18:
 294              		.loc 2 271 0 is_stmt 1
 295 00c8 002B     		cmp	r3, #0
 296 00ca 00F08E80 		beq	.L70
 297              		.loc 2 274 0
 298 00ce E268     		ldr	r2, [r4, #12]
 299              	.LVL26:
 300              		.loc 2 276 0
 301 00d0 4C49     		ldr	r1, .L74+8
 302              		.loc 2 274 0
 303 00d2 DA60     		str	r2, [r3, #12]
 304              		.loc 2 275 0
 305 00d4 039B     		ldr	r3, [sp, #12]
 306              		.loc 2 276 0
 307 00d6 0C60     		str	r4, [r1]
 308              		.loc 2 275 0
 309 00d8 E360     		str	r3, [r4, #12]
 310              	.LVL27:
 311              	.L30:
 312              		.loc 2 328 0
 313 00da 029B     		ldr	r3, [sp, #8]
 314 00dc DB88     		ldrh	r3, [r3, #6]	@ unaligned
 315 00de 4BB1     		cbz	r3, .L23
 316              		.loc 2 329 0
 317 00e0 3389     		ldrh	r3, [r6, #8]
 318 00e2 0093     		str	r3, [sp]
 319 00e4 3046     		mov	r0, r6
 320              	.LVL28:
 321 00e6 4849     		ldr	r1, .L74+12
 322 00e8 454A     		ldr	r2, .L74+4
 323 00ea 1123     		movs	r3, #17
 324 00ec FFF7FEFF 		bl	inet_chksum_pseudo
 325              	.LVL29:
 326 00f0 0028     		cmp	r0, #0
 327 00f2 70D1     		bne	.L71
 328              	.L23:
 329              		.loc 2 342 0
 330 00f4 3046     		mov	r0, r6
 331 00f6 6FF00701 		mvn	r1, #7
 332 00fa FFF7FEFF 		bl	pbuf_header
 333              	.LVL30:
 334 00fe 60BB     		cbnz	r0, .L72
 335              		.loc 2 350 0
 336 0100 002C     		cmp	r4, #0
 337 0102 3BD0     		beq	.L25
 338              		.loc 2 401 0
ARM GAS  C:\Users\jo\AppData\Local\Temp\cc2IHt9i.s 			page 7


 339 0104 A569     		ldr	r5, [r4, #24]
 340 0106 25B3     		cbz	r5, .L22
 341              		.loc 2 403 0
 342 0108 E069     		ldr	r0, [r4, #28]
 343 010a 3F4B     		ldr	r3, .L74+12
 344 010c CDF80090 		str	r9, [sp]
 345 0110 3246     		mov	r2, r6
 346 0112 2146     		mov	r1, r4
 347 0114 A847     		blx	r5
 348              	.LVL31:
 349              		.loc 2 433 0
 350 0116 05B0     		add	sp, sp, #20
 351              		.cfi_remember_state
 352              		.cfi_def_cfa_offset 36
 353              		@ sp needed
 354 0118 BDE8F08F 		pop	{r4, r5, r6, r7, r8, r9, r10, fp, pc}
 355              	.LVL32:
 356              	.L11:
 357              		.cfi_restore_state
 358              		.loc 2 243 0
 359 011c 6145     		cmp	r1, ip
 360 011e CAD0     		beq	.L12
 361              		.loc 2 254 0
 362 0120 0029     		cmp	r1, #0
 363 0122 C8D0     		beq	.L12
 364              		.loc 2 255 0 discriminator 1
 365 0124 81EA0C0E 		eor	lr, r1, ip
 366              		.loc 2 254 0 discriminator 1
 367 0128 DAF80810 		ldr	r1, [r10, #8]
 368 012c 1EEA010F 		tst	lr, r1
 369 0130 B3D1     		bne	.L10
 370              	.LVL33:
 371              		.loc 2 258 0
 372 0132 002A     		cmp	r2, #0
 373 0134 C1D1     		bne	.L14
 374              	.L69:
 375              		.loc 2 259 0 discriminator 1
 376 0136 217C     		ldrb	r1, [r4, #16]	@ zero_extendqisi2
 377              		.loc 2 258 0 discriminator 1
 378 0138 11F0040F 		tst	r1, #4
 379 013c 08BF     		it	eq
 380 013e 2246     		moveq	r2, r4
 381              	.LVL34:
 382 0140 BBE7     		b	.L14
 383              	.LVL35:
 384              	.L68:
 385              		.loc 2 291 0
 386 0142 002A     		cmp	r2, #0
 387 0144 57D1     		bne	.L34
 388              	.LVL36:
 389              	.L9:
 390              		.loc 2 291 0 is_stmt 0 discriminator 1
 391 0146 2E4B     		ldr	r3, .L74+4
 392 0148 DAF80420 		ldr	r2, [r10, #4]
 393 014c 1B68     		ldr	r3, [r3]
 394 014e 9A42     		cmp	r2, r3
 395 0150 01D0     		beq	.L73
ARM GAS  C:\Users\jo\AppData\Local\Temp\cc2IHt9i.s 			page 8


 396              	.LVL37:
 397              	.L22:
 398              		.loc 2 406 0 is_stmt 1
 399 0152 3046     		mov	r0, r6
 400 0154 7BE7     		b	.L62
 401              	.LVL38:
 402              	.L73:
 403 0156 0024     		movs	r4, #0
 404 0158 BFE7     		b	.L30
 405              	.LVL39:
 406              	.L72:
 407              		.loc 2 344 0 discriminator 1
 408 015a 2C4B     		ldr	r3, .L74+16
 409 015c 0093     		str	r3, [sp]
 410 015e 2C49     		ldr	r1, .L74+20
 411 0160 2C4A     		ldr	r2, .L74+24
 412 0162 2D48     		ldr	r0, .L74+28
 413 0164 4FF4AC73 		mov	r3, #344
 414 0168 FFF7FEFF 		bl	chprintf.constprop.1
 415              	.LVL40:
 416              	.LBB11:
 417              	.LBB12:
 418              		.file 3 "../../../os/hal/osal/rt/osal.h"
 419              		.loc 3 414 0 discriminator 1
 420 016c 2948     		ldr	r0, .L74+24
 421 016e FFF7FEFF 		bl	chSysHalt
 422              	.LVL41:
 423              	.LBE12:
 424              	.LBE11:
 425              		.loc 2 345 0 discriminator 1
 426 0172 B5F87E30 		ldrh	r3, [r5, #126]
 427              		.loc 2 347 0 discriminator 1
 428 0176 3046     		mov	r0, r6
 429              		.loc 2 345 0 discriminator 1
 430 0178 0133     		adds	r3, r3, #1
 431 017a 66E7     		b	.L61
 432              	.LVL42:
 433              	.L25:
 434              		.loc 2 415 0
 435 017c 0FBB     		cbnz	r7, .L27
 436              		.loc 2 416 0 discriminator 1
 437 017e 204B     		ldr	r3, .L74+4
 438 0180 1B68     		ldr	r3, [r3]
 439 0182 03F0F003 		and	r3, r3, #240
 440              		.loc 2 415 0 discriminator 1
 441 0186 E02B     		cmp	r3, #224
 442 0188 1BD0     		beq	.L27
 443              		.loc 2 418 0
 444 018a 98F80010 		ldrb	r1, [r8]	@ zero_extendqisi2
 445 018e 01F00F01 		and	r1, r1, #15
 446 0192 0231     		adds	r1, r1, #2
 447 0194 8900     		lsls	r1, r1, #2
 448 0196 3046     		mov	r0, r6
 449 0198 FFF7FEFF 		bl	pbuf_header
 450              	.LVL43:
 451              		.loc 2 419 0
 452 019c 7368     		ldr	r3, [r6, #4]
ARM GAS  C:\Users\jo\AppData\Local\Temp\cc2IHt9i.s 			page 9


 453 019e 4345     		cmp	r3, r8
 454 01a0 0BD0     		beq	.L28
 455              		.loc 2 419 0 is_stmt 0 discriminator 1
 456 01a2 1A4B     		ldr	r3, .L74+16
 457 01a4 0093     		str	r3, [sp]
 458 01a6 1C48     		ldr	r0, .L74+28
 459 01a8 1949     		ldr	r1, .L74+20
 460 01aa 1C4A     		ldr	r2, .L74+32
 461 01ac 40F2A313 		movw	r3, #419
 462 01b0 FFF7FEFF 		bl	chprintf.constprop.1
 463              	.LVL44:
 464              	.LBB13:
 465              	.LBB14:
 466              		.loc 3 414 0 is_stmt 1 discriminator 1
 467 01b4 1948     		ldr	r0, .L74+32
 468 01b6 FFF7FEFF 		bl	chSysHalt
 469              	.LVL45:
 470              	.L28:
 471              	.LBE14:
 472              	.LBE13:
 473              		.loc 2 420 0
 474 01ba 3046     		mov	r0, r6
 475 01bc 0321     		movs	r1, #3
 476 01be FFF7FEFF 		bl	icmp_dest_unreach
 477              	.LVL46:
 478              	.L27:
 479              		.loc 2 423 0
 480 01c2 B5F88820 		ldrh	r2, [r5, #136]
 481              		.loc 2 424 0
 482 01c6 B5F87E30 		ldrh	r3, [r5, #126]
 483              		.loc 2 423 0
 484 01ca 0132     		adds	r2, r2, #1
 485              		.loc 2 426 0
 486 01cc 3046     		mov	r0, r6
 487              		.loc 2 424 0
 488 01ce 0133     		adds	r3, r3, #1
 489              		.loc 2 423 0
 490 01d0 A5F88820 		strh	r2, [r5, #136]	@ movhi
 491 01d4 39E7     		b	.L61
 492              	.L71:
 493              		.loc 2 333 0
 494 01d6 B5F88020 		ldrh	r2, [r5, #128]
 495              		.loc 2 334 0
 496 01da B5F87E30 		ldrh	r3, [r5, #126]
 497              		.loc 2 333 0
 498 01de 0132     		adds	r2, r2, #1
 499              		.loc 2 336 0
 500 01e0 3046     		mov	r0, r6
 501              		.loc 2 334 0
 502 01e2 0133     		adds	r3, r3, #1
 503              		.loc 2 333 0
 504 01e4 A5F88020 		strh	r2, [r5, #128]	@ movhi
 505 01e8 2FE7     		b	.L61
 506              	.LVL47:
 507              	.L70:
 508              		.loc 2 278 0
 509 01ea B5F88E30 		ldrh	r3, [r5, #142]
ARM GAS  C:\Users\jo\AppData\Local\Temp\cc2IHt9i.s 			page 10


 510 01ee 0133     		adds	r3, r3, #1
 511 01f0 A5F88E30 		strh	r3, [r5, #142]	@ movhi
 512 01f4 71E7     		b	.L30
 513              	.LVL48:
 514              	.L34:
 515 01f6 1446     		mov	r4, r2
 516 01f8 6FE7     		b	.L30
 517              	.L75:
 518 01fa 00BF     		.align	2
 519              	.L74:
 520 01fc 00000000 		.word	lwip_stats
 521 0200 00000000 		.word	current_iphdr_dest
 522 0204 00000000 		.word	.LANCHOR0
 523 0208 00000000 		.word	current_iphdr_src
 524 020c 3C000000 		.word	.LC2
 525 0210 00000000 		.word	.LC0
 526 0214 28000000 		.word	.LC1
 527 0218 00000000 		.word	itm_port
 528 021c 68000000 		.word	.LC3
 529              		.cfi_endproc
 530              	.LFE258:
 531              		.size	udp_input, .-udp_input
 532              		.section	.text.udp_bind,"ax",%progbits
 533              		.align	2
 534              		.p2align 4,,15
 535              		.global	udp_bind
 536              		.thumb
 537              		.thumb_func
 538              		.type	udp_bind, %function
 539              	udp_bind:
 540              	.LFB262:
 541              		.loc 2 767 0
 542              		.cfi_startproc
 543              		@ args = 0, pretend = 0, frame = 0
 544              		@ frame_needed = 0, uses_anonymous_args = 0
 545              	.LVL49:
 546 0000 2DE9F043 		push	{r4, r5, r6, r7, r8, r9, lr}
 547              		.cfi_def_cfa_offset 28
 548              		.cfi_offset 4, -28
 549              		.cfi_offset 5, -24
 550              		.cfi_offset 6, -20
 551              		.cfi_offset 7, -16
 552              		.cfi_offset 8, -12
 553              		.cfi_offset 9, -8
 554              		.cfi_offset 14, -4
 555              		.loc 2 777 0
 556 0004 DFF8E490 		ldr	r9, .L113+16
 557 0008 D9F80040 		ldr	r4, [r9]
 558              	.LVL50:
 559              		.loc 2 767 0
 560 000c 83B0     		sub	sp, sp, #12
 561              		.cfi_def_cfa_offset 40
 562              		.loc 2 767 0
 563 000e 0646     		mov	r6, r0
 564 0010 0F46     		mov	r7, r1
 565 0012 1546     		mov	r5, r2
 566              		.loc 2 777 0
ARM GAS  C:\Users\jo\AppData\Local\Temp\cc2IHt9i.s 			page 11


 567 0014 002C     		cmp	r4, #0
 568 0016 5FD0     		beq	.L94
 569              		.loc 2 781 0
 570 0018 DFF8D480 		ldr	r8, .L113+20
 571              		.loc 2 777 0
 572 001c 0020     		movs	r0, #0
 573              	.LVL51:
 574 001e 01E0     		b	.L83
 575              	.LVL52:
 576              	.L79:
 577              		.loc 2 777 0 is_stmt 0 discriminator 2
 578 0020 E468     		ldr	r4, [r4, #12]
 579              	.LVL53:
 580 0022 ACB1     		cbz	r4, .L77
 581              	.LVL54:
 582              	.L83:
 583              		.loc 2 779 0 is_stmt 1
 584 0024 A642     		cmp	r6, r4
 585 0026 0ED0     		beq	.L110
 586              		.loc 2 796 0
 587 0028 638A     		ldrh	r3, [r4, #18]
 588 002a AB42     		cmp	r3, r5
 589 002c F8D1     		bne	.L79
 590              		.loc 2 798 0 discriminator 1
 591 002e 2368     		ldr	r3, [r4]
 592 0030 23B1     		cbz	r3, .L82
 593 0032 1FB1     		cbz	r7, .L82
 594              		.loc 2 799 0
 595 0034 3A68     		ldr	r2, [r7]
 596 0036 0AB1     		cbz	r2, .L82
 597              		.loc 2 799 0 is_stmt 0 discriminator 1
 598 0038 9342     		cmp	r3, r2
 599 003a F1D1     		bne	.L79
 600              	.LVL55:
 601              	.L82:
 602              		.loc 2 804 0 is_stmt 1
 603 003c F820     		movs	r0, #248
 604              		.loc 2 834 0
 605 003e 40B2     		sxtb	r0, r0
 606 0040 03B0     		add	sp, sp, #12
 607              		.cfi_remember_state
 608              		.cfi_def_cfa_offset 28
 609              		@ sp needed
 610 0042 BDE8F083 		pop	{r4, r5, r6, r7, r8, r9, pc}
 611              	.LVL56:
 612              	.L110:
 613              		.cfi_restore_state
 614              		.loc 2 781 0
 615 0046 90B9     		cbnz	r0, .L111
 616              		.loc 2 777 0
 617 0048 E468     		ldr	r4, [r4, #12]
 618              	.LVL57:
 619              		.loc 2 783 0
 620 004a 0120     		movs	r0, #1
 621              	.LVL58:
 622              		.loc 2 777 0
 623 004c 002C     		cmp	r4, #0
ARM GAS  C:\Users\jo\AppData\Local\Temp\cc2IHt9i.s 			page 12


 624 004e E9D1     		bne	.L83
 625              	.LVL59:
 626              	.L77:
 627              		.loc 2 809 0
 628 0050 07B1     		cbz	r7, .L84
 629              		.loc 2 809 0 is_stmt 0 discriminator 1
 630 0052 3F68     		ldr	r7, [r7]
 631              	.LVL60:
 632              	.L84:
 633              		.loc 2 809 0 discriminator 4
 634 0054 3760     		str	r7, [r6]
 635              		.loc 2 812 0 is_stmt 1 discriminator 4
 636 0056 EDB1     		cbz	r5, .L112
 637              	.LVL61:
 638              	.L85:
 639              		.loc 2 820 0
 640 0058 7582     		strh	r5, [r6, #18]	@ movhi
 641              		.loc 2 823 0
 642 005a B0B9     		cbnz	r0, .L98
 643              		.loc 2 825 0
 644 005c D9F80030 		ldr	r3, [r9]
 645 0060 F360     		str	r3, [r6, #12]
 646              		.loc 2 834 0
 647 0062 40B2     		sxtb	r0, r0
 648              		.loc 2 826 0
 649 0064 C9F80060 		str	r6, [r9]
 650              		.loc 2 834 0
 651 0068 03B0     		add	sp, sp, #12
 652              		.cfi_remember_state
 653              		.cfi_def_cfa_offset 28
 654              		@ sp needed
 655 006a BDE8F083 		pop	{r4, r5, r6, r7, r8, r9, pc}
 656              	.LVL62:
 657              	.L111:
 658              		.cfi_restore_state
 659              		.loc 2 781 0 discriminator 1
 660 006e 1B49     		ldr	r1, .L113
 661 0070 1B4A     		ldr	r2, .L113+4
 662 0072 CDF80080 		str	r8, [sp]
 663 0076 40F20D33 		movw	r3, #781
 664 007a 1A48     		ldr	r0, .L113+8
 665              	.LVL63:
 666 007c FFF7FEFF 		bl	chprintf.constprop.1
 667              	.LVL64:
 668              	.LBB19:
 669              	.LBB20:
 670              		.loc 3 414 0 discriminator 1
 671 0080 1748     		ldr	r0, .L113+4
 672 0082 FFF7FEFF 		bl	chSysHalt
 673              	.LVL65:
 674              	.LBE20:
 675              	.LBE19:
 676              		.loc 2 783 0 discriminator 1
 677 0086 0120     		movs	r0, #1
 678 0088 CAE7     		b	.L79
 679              	.LVL66:
 680              	.L98:
ARM GAS  C:\Users\jo\AppData\Local\Temp\cc2IHt9i.s 			page 13


 681              		.loc 2 833 0
 682 008a 0020     		movs	r0, #0
 683              		.loc 2 834 0
 684 008c 40B2     		sxtb	r0, r0
 685 008e 03B0     		add	sp, sp, #12
 686              		.cfi_remember_state
 687              		.cfi_def_cfa_offset 28
 688              		@ sp needed
 689 0090 BDE8F083 		pop	{r4, r5, r6, r7, r8, r9, pc}
 690              	.LVL67:
 691              	.L112:
 692              		.cfi_restore_state
 693 0094 144F     		ldr	r7, .L113+12
 694 0096 D9F80010 		ldr	r1, [r9]
 695 009a 3D88     		ldrh	r5, [r7]
 696              		.loc 2 812 0
 697 009c 4FF48044 		mov	r4, #16384
 698              	.LVL68:
 699              	.LBB21:
 700              	.LBB22:
 701              		.loc 2 105 0
 702 00a0 4FF6FF7E 		movw	lr, #65535
 703              	.L86:
 704              	.LVL69:
 705 00a4 7545     		cmp	r5, lr
 706 00a6 1ABF     		itte	ne
 707 00a8 0135     		addne	r5, r5, #1
 708 00aa ADB2     		uxthne	r5, r5
 709 00ac 4FF44045 		moveq	r5, #49152
 710              		.loc 2 109 0
 711 00b0 51B1     		cbz	r1, .L109
 712              		.loc 2 110 0
 713 00b2 4B8A     		ldrh	r3, [r1, #18]
 714 00b4 AB42     		cmp	r3, r5
 715 00b6 09D0     		beq	.L90
 716 00b8 0B46     		mov	r3, r1
 717 00ba 02E0     		b	.L92
 718              	.LVL70:
 719              	.L93:
 720 00bc 5A8A     		ldrh	r2, [r3, #18]
 721 00be AA42     		cmp	r2, r5
 722 00c0 04D0     		beq	.L90
 723              	.L92:
 724              		.loc 2 109 0
 725 00c2 DB68     		ldr	r3, [r3, #12]
 726              	.LVL71:
 727 00c4 002B     		cmp	r3, #0
 728 00c6 F9D1     		bne	.L93
 729              	.LVL72:
 730              	.L109:
 731 00c8 3D80     		strh	r5, [r7]	@ movhi
 732 00ca C5E7     		b	.L85
 733              	.L90:
 734              	.LVL73:
 735 00cc 013C     		subs	r4, r4, #1
 736              	.LVL74:
 737 00ce A4B2     		uxth	r4, r4
ARM GAS  C:\Users\jo\AppData\Local\Temp\cc2IHt9i.s 			page 14


 738              		.loc 2 111 0
 739 00d0 002C     		cmp	r4, #0
 740 00d2 E7D1     		bne	.L86
 741 00d4 3D80     		strh	r5, [r7]	@ movhi
 742 00d6 B1E7     		b	.L82
 743              	.LVL75:
 744              	.L94:
 745              	.LBE22:
 746              	.LBE21:
 747              		.loc 2 775 0
 748 00d8 2046     		mov	r0, r4
 749              	.LVL76:
 750 00da B9E7     		b	.L77
 751              	.L114:
 752              		.align	2
 753              	.L113:
 754 00dc 00000000 		.word	.LC0
 755 00e0 7C000000 		.word	.LC4
 756 00e4 00000000 		.word	itm_port
 757 00e8 00000000 		.word	.LANCHOR1
 758 00ec 00000000 		.word	.LANCHOR0
 759 00f0 3C000000 		.word	.LC2
 760              		.cfi_endproc
 761              	.LFE262:
 762              		.size	udp_bind, .-udp_bind
 763 00f4 AFF30080 		.section	.text.udp_sendto_if,"ax",%progbits
 763      AFF30080 
 763      AFF30080 
 764              		.align	2
 765              		.p2align 4,,15
 766              		.global	udp_sendto_if
 767              		.thumb
 768              		.thumb_func
 769              		.type	udp_sendto_if, %function
 770              	udp_sendto_if:
 771              	.LFB261:
 772              		.loc 2 551 0
 773              		.cfi_startproc
 774              		@ args = 4, pretend = 0, frame = 0
 775              		@ frame_needed = 0, uses_anonymous_args = 0
 776              	.LVL77:
 777 0000 2DE9F047 		push	{r4, r5, r6, r7, r8, r9, r10, lr}
 778              		.cfi_def_cfa_offset 32
 779              		.cfi_offset 4, -32
 780              		.cfi_offset 5, -28
 781              		.cfi_offset 6, -24
 782              		.cfi_offset 7, -20
 783              		.cfi_offset 8, -16
 784              		.cfi_offset 9, -12
 785              		.cfi_offset 10, -8
 786              		.cfi_offset 14, -4
 787 0004 0F46     		mov	r7, r1
 788 0006 84B0     		sub	sp, sp, #16
 789              		.cfi_def_cfa_offset 48
 790              		.loc 2 578 0
 791 0008 418A     		ldrh	r1, [r0, #18]
 792              	.LVL78:
ARM GAS  C:\Users\jo\AppData\Local\Temp\cc2IHt9i.s 			page 15


 793              		.loc 2 551 0
 794 000a DDF83080 		ldr	r8, [sp, #48]
 795 000e 0446     		mov	r4, r0
 796 0010 9246     		mov	r10, r2
 797 0012 9946     		mov	r9, r3
 798              		.loc 2 578 0
 799 0014 29B9     		cbnz	r1, .L120
 800              		.loc 2 580 0
 801 0016 0A46     		mov	r2, r1
 802              	.LVL79:
 803 0018 0146     		mov	r1, r0
 804 001a FFF7FEFF 		bl	udp_bind
 805              	.LVL80:
 806              		.loc 2 581 0
 807 001e 0028     		cmp	r0, #0
 808 0020 39D1     		bne	.L119
 809              	.LVL81:
 810              	.L120:
 811              		.loc 2 588 0
 812 0022 3846     		mov	r0, r7
 813 0024 0821     		movs	r1, #8
 814 0026 FFF7FEFF 		bl	pbuf_header
 815              	.LVL82:
 816 002a 0028     		cmp	r0, #0
 817 002c 45D1     		bne	.L117
 818 002e 3D46     		mov	r5, r7
 819              	.L118:
 820              	.LVL83:
 821              		.loc 2 609 0
 822 0030 6B89     		ldrh	r3, [r5, #10]
 823 0032 072B     		cmp	r3, #7
 824 0034 4FD9     		bls	.L135
 825              	.L121:
 826              		.loc 2 613 0
 827 0036 608A     		ldrh	r0, [r4, #18]
 828              		.loc 2 612 0
 829 0038 6E68     		ldr	r6, [r5, #4]
 830              	.LVL84:
 831              		.loc 2 613 0
 832 003a FFF7FEFF 		bl	lwip_htons
 833              	.LVL85:
 834 003e 3080     		strh	r0, [r6]	@ unaligned
 835              		.loc 2 614 0
 836 0040 4846     		mov	r0, r9
 837 0042 FFF7FEFF 		bl	lwip_htons
 838              	.LVL86:
 839              		.loc 2 627 0
 840 0046 2268     		ldr	r2, [r4]
 841              		.loc 2 614 0
 842 0048 7080     		strh	r0, [r6, #2]	@ unaligned
 843              		.loc 2 616 0
 844 004a 0023     		movs	r3, #0
 845 004c B371     		strb	r3, [r6, #6]
 846 004e F371     		strb	r3, [r6, #7]
 847              		.loc 2 627 0
 848 0050 2ABB     		cbnz	r2, .L122
 849              		.loc 2 629 0
ARM GAS  C:\Users\jo\AppData\Local\Temp\cc2IHt9i.s 			page 16


 850 0052 08F10409 		add	r9, r8, #4
 851              	.LVL87:
 852              	.L123:
 853              		.loc 2 699 0
 854 0056 2889     		ldrh	r0, [r5, #8]
 855 0058 FFF7FEFF 		bl	lwip_htons
 856              	.LVL88:
 857 005c B080     		strh	r0, [r6, #4]	@ unaligned
 858              		.loc 2 702 0
 859 005e 237C     		ldrb	r3, [r4, #16]	@ zero_extendqisi2
 860 0060 DB07     		lsls	r3, r3, #31
 861 0062 47D5     		bpl	.L136
 862              	.L125:
 863              		.loc 2 728 0
 864 0064 A37A     		ldrb	r3, [r4, #10]	@ zero_extendqisi2
 865 0066 647A     		ldrb	r4, [r4, #9]	@ zero_extendqisi2
 866              	.LVL89:
 867 0068 0094     		str	r4, [sp]
 868 006a 1120     		movs	r0, #17
 869 006c 0190     		str	r0, [sp, #4]
 870 006e CDF80880 		str	r8, [sp, #8]
 871 0072 4946     		mov	r1, r9
 872 0074 5246     		mov	r2, r10
 873 0076 2846     		mov	r0, r5
 874 0078 FFF7FEFF 		bl	ip_output_if
 875              	.LVL90:
 876              		.loc 2 735 0
 877 007c BD42     		cmp	r5, r7
 878              		.loc 2 728 0
 879 007e 0446     		mov	r4, r0
 880              	.LVL91:
 881              		.loc 2 735 0
 882 0080 02D0     		beq	.L127
 883              		.loc 2 737 0
 884 0082 2846     		mov	r0, r5
 885 0084 FFF7FEFF 		bl	pbuf_free
 886              	.LVL92:
 887              	.L127:
 888              		.loc 2 742 0
 889 0088 244A     		ldr	r2, .L137
 890 008a B2F87830 		ldrh	r3, [r2, #120]
 891 008e 0133     		adds	r3, r3, #1
 892              		.loc 2 743 0
 893 0090 2046     		mov	r0, r4
 894              		.loc 2 742 0
 895 0092 A2F87830 		strh	r3, [r2, #120]	@ movhi
 896              	.LVL93:
 897              	.L119:
 898              		.loc 2 744 0
 899 0096 40B2     		sxtb	r0, r0
 900 0098 04B0     		add	sp, sp, #16
 901              		.cfi_remember_state
 902              		.cfi_def_cfa_offset 32
 903              		@ sp needed
 904 009a BDE8F087 		pop	{r4, r5, r6, r7, r8, r9, r10, pc}
 905              	.LVL94:
 906              	.L122:
ARM GAS  C:\Users\jo\AppData\Local\Temp\cc2IHt9i.s 			page 17


 907              		.cfi_restore_state
 908              		.loc 2 633 0
 909 009e D8F80430 		ldr	r3, [r8, #4]
 910 00a2 9A42     		cmp	r2, r3
 911 00a4 35D0     		beq	.L124
 912              		.loc 2 635 0
 913 00a6 BD42     		cmp	r5, r7
 914 00a8 22D0     		beq	.L130
 915              		.loc 2 637 0
 916 00aa 2846     		mov	r0, r5
 917 00ac FFF7FEFF 		bl	pbuf_free
 918              	.LVL95:
 919              		.loc 2 641 0
 920 00b0 FA20     		movs	r0, #250
 921              		.loc 2 744 0
 922 00b2 40B2     		sxtb	r0, r0
 923 00b4 04B0     		add	sp, sp, #16
 924              		.cfi_remember_state
 925              		.cfi_def_cfa_offset 32
 926              		@ sp needed
 927 00b6 BDE8F087 		pop	{r4, r5, r6, r7, r8, r9, r10, pc}
 928              	.LVL96:
 929              	.L117:
 930              		.cfi_restore_state
 931              		.loc 2 590 0
 932 00ba 0120     		movs	r0, #1
 933 00bc 0821     		movs	r1, #8
 934 00be 0022     		movs	r2, #0
 935 00c0 FFF7FEFF 		bl	pbuf_alloc
 936              	.LVL97:
 937              		.loc 2 592 0
 938 00c4 0546     		mov	r5, r0
 939 00c6 30B3     		cbz	r0, .L129
 940              		.loc 2 596 0
 941 00c8 3B89     		ldrh	r3, [r7, #8]
 942 00ca 002B     		cmp	r3, #0
 943 00cc B0D0     		beq	.L118
 944              		.loc 2 598 0
 945 00ce 3946     		mov	r1, r7
 946 00d0 FFF7FEFF 		bl	pbuf_chain
 947              	.LVL98:
 948 00d4 ACE7     		b	.L118
 949              	.L135:
 950              		.loc 2 609 0 discriminator 1
 951 00d6 124B     		ldr	r3, .L137+4
 952 00d8 0093     		str	r3, [sp]
 953 00da 1249     		ldr	r1, .L137+8
 954 00dc 124A     		ldr	r2, .L137+12
 955 00de 1348     		ldr	r0, .L137+16
 956 00e0 40F26223 		movw	r3, #610
 957 00e4 FFF7FEFF 		bl	chprintf.constprop.1
 958              	.LVL99:
 959              	.LBB23:
 960              	.LBB24:
 961              		.loc 3 414 0 discriminator 1
 962 00e8 0F48     		ldr	r0, .L137+12
 963 00ea FFF7FEFF 		bl	chSysHalt
ARM GAS  C:\Users\jo\AppData\Local\Temp\cc2IHt9i.s 			page 18


 964              	.LVL100:
 965 00ee A2E7     		b	.L121
 966              	.LVL101:
 967              	.L130:
 968              	.LBE24:
 969              	.LBE23:
 970              		.loc 2 641 0
 971 00f0 FA20     		movs	r0, #250
 972 00f2 D0E7     		b	.L119
 973              	.LVL102:
 974              	.L136:
 975              	.LBB25:
 976              		.loc 2 714 0
 977 00f4 2B89     		ldrh	r3, [r5, #8]
 978 00f6 0093     		str	r3, [sp]
 979 00f8 2846     		mov	r0, r5
 980 00fa 1123     		movs	r3, #17
 981 00fc 4946     		mov	r1, r9
 982 00fe 5246     		mov	r2, r10
 983 0100 FFF7FEFF 		bl	inet_chksum_pseudo
 984              	.LVL103:
 985              		.loc 2 719 0
 986 0104 4FF6FF73 		movw	r3, #65535
 987              	.LVL104:
 988              		.loc 2 721 0
 989 0108 0028     		cmp	r0, #0
 990 010a 08BF     		it	eq
 991 010c 1846     		moveq	r0, r3
 992              	.LVL105:
 993 010e F080     		strh	r0, [r6, #6]	@ unaligned
 994 0110 A8E7     		b	.L125
 995              	.LVL106:
 996              	.L124:
 997              	.LBE25:
 998              		.loc 2 627 0
 999 0112 A146     		mov	r9, r4
 1000 0114 9FE7     		b	.L123
 1001              	.LVL107:
 1002              	.L129:
 1003              		.loc 2 594 0
 1004 0116 FF20     		movs	r0, #255
 1005              	.LVL108:
 1006 0118 BDE7     		b	.L119
 1007              	.L138:
 1008 011a 00BF     		.align	2
 1009              	.L137:
 1010 011c 00000000 		.word	lwip_stats
 1011 0120 3C000000 		.word	.LC2
 1012 0124 00000000 		.word	.LC0
 1013 0128 88000000 		.word	.LC5
 1014 012c 00000000 		.word	itm_port
 1015              		.cfi_endproc
 1016              	.LFE261:
 1017              		.size	udp_sendto_if, .-udp_sendto_if
 1018              		.section	.text.udp_sendto,"ax",%progbits
 1019              		.align	2
 1020              		.p2align 4,,15
ARM GAS  C:\Users\jo\AppData\Local\Temp\cc2IHt9i.s 			page 19


 1021              		.global	udp_sendto
 1022              		.thumb
 1023              		.thumb_func
 1024              		.type	udp_sendto, %function
 1025              	udp_sendto:
 1026              	.LFB260:
 1027              		.loc 2 493 0
 1028              		.cfi_startproc
 1029              		@ args = 0, pretend = 0, frame = 0
 1030              		@ frame_needed = 0, uses_anonymous_args = 0
 1031              	.LVL109:
 1032 0000 F0B5     		push	{r4, r5, r6, r7, lr}
 1033              		.cfi_def_cfa_offset 20
 1034              		.cfi_offset 4, -20
 1035              		.cfi_offset 5, -16
 1036              		.cfi_offset 6, -12
 1037              		.cfi_offset 7, -8
 1038              		.cfi_offset 14, -4
 1039 0002 0746     		mov	r7, r0
 1040 0004 83B0     		sub	sp, sp, #12
 1041              		.cfi_def_cfa_offset 32
 1042              		.loc 2 512 0
 1043 0006 1046     		mov	r0, r2
 1044              	.LVL110:
 1045              		.loc 2 493 0
 1046 0008 1446     		mov	r4, r2
 1047 000a 0E46     		mov	r6, r1
 1048 000c 1D46     		mov	r5, r3
 1049              		.loc 2 512 0
 1050 000e FFF7FEFF 		bl	ip_route
 1051              	.LVL111:
 1052              		.loc 2 516 0
 1053 0012 48B1     		cbz	r0, .L143
 1054              		.loc 2 525 0
 1055 0014 0090     		str	r0, [sp]
 1056 0016 3146     		mov	r1, r6
 1057 0018 3846     		mov	r0, r7
 1058              	.LVL112:
 1059 001a 2246     		mov	r2, r4
 1060 001c 2B46     		mov	r3, r5
 1061 001e FFF7FEFF 		bl	udp_sendto_if
 1062              	.LVL113:
 1063              	.L141:
 1064              		.loc 2 527 0
 1065 0022 40B2     		sxtb	r0, r0
 1066 0024 03B0     		add	sp, sp, #12
 1067              		.cfi_remember_state
 1068              		.cfi_def_cfa_offset 20
 1069              		@ sp needed
 1070 0026 F0BD     		pop	{r4, r5, r6, r7, pc}
 1071              	.LVL114:
 1072              	.L143:
 1073              		.cfi_restore_state
 1074              	.LBB28:
 1075              	.LBB29:
 1076              		.loc 2 519 0
 1077 0028 034A     		ldr	r2, .L144
ARM GAS  C:\Users\jo\AppData\Local\Temp\cc2IHt9i.s 			page 20


 1078 002a B2F88630 		ldrh	r3, [r2, #134]
 1079 002e 0133     		adds	r3, r3, #1
 1080 0030 A2F88630 		strh	r3, [r2, #134]	@ movhi
 1081 0034 FC20     		movs	r0, #252
 1082              	.LVL115:
 1083 0036 F4E7     		b	.L141
 1084              	.L145:
 1085              		.align	2
 1086              	.L144:
 1087 0038 00000000 		.word	lwip_stats
 1088              	.LBE29:
 1089              	.LBE28:
 1090              		.cfi_endproc
 1091              	.LFE260:
 1092              		.size	udp_sendto, .-udp_sendto
 1093 003c AFF30080 		.section	.text.udp_send,"ax",%progbits
 1094              		.align	2
 1095              		.p2align 4,,15
 1096              		.global	udp_send
 1097              		.thumb
 1098              		.thumb_func
 1099              		.type	udp_send, %function
 1100              	udp_send:
 1101              	.LFB259:
 1102              		.loc 2 455 0
 1103              		.cfi_startproc
 1104              		@ args = 0, pretend = 0, frame = 0
 1105              		@ frame_needed = 0, uses_anonymous_args = 0
 1106              		@ link register save eliminated.
 1107              	.LVL116:
 1108              		.loc 2 457 0
 1109 0000 021D     		adds	r2, r0, #4
 1110 0002 838A     		ldrh	r3, [r0, #20]
 1111 0004 FFF7FEBF 		b	udp_sendto
 1112              	.LVL117:
 1113              		.cfi_endproc
 1114              	.LFE259:
 1115              		.size	udp_send, .-udp_send
 1116 0008 AFF30080 		.section	.text.udp_connect,"ax",%progbits
 1116      AFF30080 
 1117              		.align	2
 1118              		.p2align 4,,15
 1119              		.global	udp_connect
 1120              		.thumb
 1121              		.thumb_func
 1122              		.type	udp_connect, %function
 1123              	udp_connect:
 1124              	.LFB263:
 1125              		.loc 2 854 0
 1126              		.cfi_startproc
 1127              		@ args = 0, pretend = 0, frame = 0
 1128              		@ frame_needed = 0, uses_anonymous_args = 0
 1129              	.LVL118:
 1130              		.loc 2 857 0
 1131 0000 438A     		ldrh	r3, [r0, #18]
 1132              		.loc 2 854 0
 1133 0002 70B5     		push	{r4, r5, r6, lr}
ARM GAS  C:\Users\jo\AppData\Local\Temp\cc2IHt9i.s 			page 21


 1134              		.cfi_def_cfa_offset 16
 1135              		.cfi_offset 4, -16
 1136              		.cfi_offset 5, -12
 1137              		.cfi_offset 6, -8
 1138              		.cfi_offset 14, -4
 1139              		.loc 2 854 0
 1140 0004 0446     		mov	r4, r0
 1141 0006 0D46     		mov	r5, r1
 1142 0008 1646     		mov	r6, r2
 1143              		.loc 2 857 0
 1144 000a C3B1     		cbz	r3, .L148
 1145              	.LVL119:
 1146              	.L152:
 1147              		.loc 2 864 0
 1148 000c 05B1     		cbz	r5, .L150
 1149              		.loc 2 864 0 is_stmt 0 discriminator 1
 1150 000e 2D68     		ldr	r5, [r5]
 1151              	.LVL120:
 1152              	.L150:
 1153              		.loc 2 893 0 is_stmt 1 discriminator 4
 1154 0010 1049     		ldr	r1, .L164
 1155              		.loc 2 866 0 discriminator 4
 1156 0012 237C     		ldrb	r3, [r4, #16]	@ zero_extendqisi2
 1157              		.loc 2 893 0 discriminator 4
 1158 0014 0A68     		ldr	r2, [r1]
 1159              	.LVL121:
 1160              		.loc 2 864 0 discriminator 4
 1161 0016 6560     		str	r5, [r4, #4]
 1162              		.loc 2 866 0 discriminator 4
 1163 0018 43F00403 		orr	r3, r3, #4
 1164              		.loc 2 865 0 discriminator 4
 1165 001c A682     		strh	r6, [r4, #20]	@ movhi
 1166              		.loc 2 866 0 discriminator 4
 1167 001e 2374     		strb	r3, [r4, #16]
 1168              		.loc 2 893 0 discriminator 4
 1169 0020 42B1     		cbz	r2, .L153
 1170              		.loc 2 894 0
 1171 0022 9442     		cmp	r4, r2
 1172 0024 13D0     		beq	.L159
 1173 0026 1346     		mov	r3, r2
 1174 0028 01E0     		b	.L155
 1175              	.LVL122:
 1176              	.L156:
 1177 002a 9C42     		cmp	r4, r3
 1178 002c 0FD0     		beq	.L159
 1179              	.L155:
 1180              		.loc 2 893 0 discriminator 2
 1181 002e DB68     		ldr	r3, [r3, #12]
 1182              	.LVL123:
 1183 0030 002B     		cmp	r3, #0
 1184 0032 FAD1     		bne	.L156
 1185              	.LVL124:
 1186              	.L153:
 1187              		.loc 2 902 0
 1188 0034 0020     		movs	r0, #0
 1189              		.loc 2 900 0
 1190 0036 E260     		str	r2, [r4, #12]
ARM GAS  C:\Users\jo\AppData\Local\Temp\cc2IHt9i.s 			page 22


 1191              		.loc 2 901 0
 1192 0038 0C60     		str	r4, [r1]
 1193              		.loc 2 903 0
 1194 003a 40B2     		sxtb	r0, r0
 1195 003c 70BD     		pop	{r4, r5, r6, pc}
 1196              	.LVL125:
 1197              	.L148:
 1198              	.LBB30:
 1199              		.loc 2 858 0
 1200 003e 1A46     		mov	r2, r3
 1201              	.LVL126:
 1202 0040 0146     		mov	r1, r0
 1203              	.LVL127:
 1204 0042 FFF7FEFF 		bl	udp_bind
 1205              	.LVL128:
 1206              		.loc 2 859 0
 1207 0046 0028     		cmp	r0, #0
 1208 0048 E0D0     		beq	.L152
 1209              	.LBE30:
 1210              		.loc 2 903 0
 1211 004a 40B2     		sxtb	r0, r0
 1212 004c 70BD     		pop	{r4, r5, r6, pc}
 1213              	.LVL129:
 1214              	.L159:
 1215              		.loc 2 896 0
 1216 004e 0020     		movs	r0, #0
 1217              		.loc 2 903 0
 1218 0050 40B2     		sxtb	r0, r0
 1219 0052 70BD     		pop	{r4, r5, r6, pc}
 1220              	.LVL130:
 1221              	.L165:
 1222              		.align	2
 1223              	.L164:
 1224 0054 00000000 		.word	.LANCHOR0
 1225              		.cfi_endproc
 1226              	.LFE263:
 1227              		.size	udp_connect, .-udp_connect
 1228 0058 AFF30080 		.section	.text.udp_disconnect,"ax",%progbits
 1228      AFF30080 
 1229              		.align	2
 1230              		.p2align 4,,15
 1231              		.global	udp_disconnect
 1232              		.thumb
 1233              		.thumb_func
 1234              		.type	udp_disconnect, %function
 1235              	udp_disconnect:
 1236              	.LFB264:
 1237              		.loc 2 912 0
 1238              		.cfi_startproc
 1239              		@ args = 0, pretend = 0, frame = 0
 1240              		@ frame_needed = 0, uses_anonymous_args = 0
 1241              		@ link register save eliminated.
 1242              	.LVL131:
 1243              		.loc 2 917 0
 1244 0000 037C     		ldrb	r3, [r0, #16]	@ zero_extendqisi2
 1245              		.loc 2 914 0
 1246 0002 0022     		movs	r2, #0
ARM GAS  C:\Users\jo\AppData\Local\Temp\cc2IHt9i.s 			page 23


 1247              		.loc 2 917 0
 1248 0004 23F00403 		bic	r3, r3, #4
 1249              		.loc 2 914 0
 1250 0008 4260     		str	r2, [r0, #4]
 1251              		.loc 2 917 0
 1252 000a 0374     		strb	r3, [r0, #16]
 1253              		.loc 2 915 0
 1254 000c 8282     		strh	r2, [r0, #20]	@ movhi
 1255 000e 7047     		bx	lr
 1256              		.cfi_endproc
 1257              	.LFE264:
 1258              		.size	udp_disconnect, .-udp_disconnect
 1259              		.section	.text.udp_recv,"ax",%progbits
 1260              		.align	2
 1261              		.p2align 4,,15
 1262              		.global	udp_recv
 1263              		.thumb
 1264              		.thumb_func
 1265              		.type	udp_recv, %function
 1266              	udp_recv:
 1267              	.LFB265:
 1268              		.loc 2 931 0
 1269              		.cfi_startproc
 1270              		@ args = 0, pretend = 0, frame = 0
 1271              		@ frame_needed = 0, uses_anonymous_args = 0
 1272              		@ link register save eliminated.
 1273              	.LVL132:
 1274              		.loc 2 933 0
 1275 0000 8161     		str	r1, [r0, #24]
 1276              		.loc 2 934 0
 1277 0002 C261     		str	r2, [r0, #28]
 1278 0004 7047     		bx	lr
 1279              		.cfi_endproc
 1280              	.LFE265:
 1281              		.size	udp_recv, .-udp_recv
 1282              		.section	.text.udp_remove,"ax",%progbits
 1283              		.align	2
 1284              		.p2align 4,,15
 1285              		.global	udp_remove
 1286              		.thumb
 1287              		.thumb_func
 1288              		.type	udp_remove, %function
 1289              	udp_remove:
 1290              	.LFB266:
 1291              		.loc 2 947 0
 1292              		.cfi_startproc
 1293              		@ args = 0, pretend = 0, frame = 0
 1294              		@ frame_needed = 0, uses_anonymous_args = 0
 1295              		@ link register save eliminated.
 1296              	.LVL133:
 1297              		.loc 2 952 0
 1298 0000 0D4B     		ldr	r3, .L184
 1299 0002 1A68     		ldr	r2, [r3]
 1300 0004 8242     		cmp	r2, r0
 1301              		.loc 2 947 0
 1302 0006 0146     		mov	r1, r0
 1303              		.loc 2 952 0
ARM GAS  C:\Users\jo\AppData\Local\Temp\cc2IHt9i.s 			page 24


 1304 0008 11D0     		beq	.L169
 1305              	.LVL134:
 1306              		.loc 2 957 0 discriminator 1
 1307 000a 3AB1     		cbz	r2, .L172
 1308              		.loc 2 959 0
 1309 000c D368     		ldr	r3, [r2, #12]
 1310 000e 2BB1     		cbz	r3, .L172
 1311              	.L182:
 1312              		.loc 2 959 0 is_stmt 0 discriminator 1
 1313 0010 9942     		cmp	r1, r3
 1314 0012 06D0     		beq	.L181
 1315              		.loc 2 947 0 is_stmt 1
 1316 0014 1A46     		mov	r2, r3
 1317              	.LVL135:
 1318              	.L183:
 1319              		.loc 2 959 0
 1320 0016 D368     		ldr	r3, [r2, #12]
 1321 0018 002B     		cmp	r3, #0
 1322 001a F9D1     		bne	.L182
 1323              	.LVL136:
 1324              	.L172:
 1325              		.loc 2 965 0
 1326 001c 0120     		movs	r0, #1
 1327              	.LVL137:
 1328 001e FFF7FEBF 		b	memp_free
 1329              	.LVL138:
 1330              	.L181:
 1331              		.loc 2 961 0
 1332 0022 CB68     		ldr	r3, [r1, #12]
 1333 0024 D360     		str	r3, [r2, #12]
 1334              	.LVL139:
 1335              		.loc 2 957 0
 1336 0026 002B     		cmp	r3, #0
 1337 0028 F8D0     		beq	.L172
 1338              		.loc 2 947 0
 1339 002a 1A46     		mov	r2, r3
 1340 002c F3E7     		b	.L183
 1341              	.LVL140:
 1342              	.L169:
 1343              		.loc 2 954 0
 1344 002e C268     		ldr	r2, [r0, #12]
 1345 0030 1A60     		str	r2, [r3]
 1346              		.loc 2 965 0
 1347 0032 0120     		movs	r0, #1
 1348              	.LVL141:
 1349 0034 FFF7FEBF 		b	memp_free
 1350              	.LVL142:
 1351              	.L185:
 1352              		.align	2
 1353              	.L184:
 1354 0038 00000000 		.word	.LANCHOR0
 1355              		.cfi_endproc
 1356              	.LFE266:
 1357              		.size	udp_remove, .-udp_remove
 1358 003c AFF30080 		.section	.text.udp_new,"ax",%progbits
 1359              		.align	2
 1360              		.p2align 4,,15
ARM GAS  C:\Users\jo\AppData\Local\Temp\cc2IHt9i.s 			page 25


 1361              		.global	udp_new
 1362              		.thumb
 1363              		.thumb_func
 1364              		.type	udp_new, %function
 1365              	udp_new:
 1366              	.LFB267:
 1367              		.loc 2 978 0
 1368              		.cfi_startproc
 1369              		@ args = 0, pretend = 0, frame = 0
 1370              		@ frame_needed = 0, uses_anonymous_args = 0
 1371 0000 10B5     		push	{r4, lr}
 1372              		.cfi_def_cfa_offset 8
 1373              		.cfi_offset 4, -8
 1374              		.cfi_offset 14, -4
 1375              		.loc 2 980 0
 1376 0002 0120     		movs	r0, #1
 1377 0004 FFF7FEFF 		bl	memp_malloc
 1378              	.LVL143:
 1379              		.loc 2 982 0
 1380 0008 0446     		mov	r4, r0
 1381 000a 28B1     		cbz	r0, .L187
 1382              		.loc 2 987 0
 1383 000c 0021     		movs	r1, #0
 1384 000e 2022     		movs	r2, #32
 1385 0010 FFF7FEFF 		bl	memset
 1386              	.LVL144:
 1387              		.loc 2 988 0
 1388 0014 FF23     		movs	r3, #255
 1389 0016 A372     		strb	r3, [r4, #10]
 1390              	.L187:
 1391              		.loc 2 991 0
 1392 0018 2046     		mov	r0, r4
 1393 001a 10BD     		pop	{r4, pc}
 1394              		.cfi_endproc
 1395              	.LFE267:
 1396              		.size	udp_new, .-udp_new
 1397              		.global	udp_pcbs
 1398 001c AFF30080 		.section	.bss.udp_pcbs,"aw",%nobits
 1399              		.align	2
 1400              		.set	.LANCHOR0,. + 0
 1401              		.type	udp_pcbs, %object
 1402              		.size	udp_pcbs, 4
 1403              	udp_pcbs:
 1404 0000 00000000 		.space	4
 1405              		.section	.rodata.str1.4,"aMS",%progbits,1
 1406              		.align	2
 1407              	.LC0:
 1408 0000 41737365 		.ascii	"Assertion \"%s\" failed at line %d in %s\012\000"
 1408      7274696F 
 1408      6E202225 
 1408      73222066 
 1408      61696C65 
 1409              	.LC1:
 1410 0028 70627566 		.ascii	"pbuf_header failed\012\000"
 1410      5F686561 
 1410      64657220 
 1410      6661696C 
ARM GAS  C:\Users\jo\AppData\Local\Temp\cc2IHt9i.s 			page 26


 1410      65640A00 
 1411              	.LC2:
 1412 003c 2E2E2F2E 		.ascii	"../../../os/ext/lwip-1.4.1/src/core/udp.c\000"
 1412      2E2F2E2E 
 1412      2F6F732F 
 1412      6578742F 
 1412      6C776970 
 1413 0066 0000     		.space	2
 1414              	.LC3:
 1415 0068 702D3E70 		.ascii	"p->payload == iphdr\000"
 1415      61796C6F 
 1415      6164203D 
 1415      3D206970 
 1415      68647200 
 1416              	.LC4:
 1417 007c 72656269 		.ascii	"rebind == 0\000"
 1417      6E64203D 
 1417      3D203000 
 1418              	.LC5:
 1419 0088 63686563 		.ascii	"check that first pbuf can hold struct udp_hdr\000"
 1419      6B207468 
 1419      61742066 
 1419      69727374 
 1419      20706275 
 1420 00b6 0000     		.section	.data.udp_port,"aw",%progbits
 1421              		.align	1
 1422              		.set	.LANCHOR1,. + 0
 1423              		.type	udp_port, %object
 1424              		.size	udp_port, 2
 1425              	udp_port:
 1426 0000 00C0     		.short	-16384
 1427              		.text
 1428              	.Letext0:
 1429              		.file 4 "c:\\program files\\gnu tools arm embedded\\4.9 2014q4\\lib\\gcc\\arm-none-eabi\\4.9.3\\in
 1430              		.file 5 "c:\\program files\\gnu tools arm embedded\\4.9 2014q4\\arm-none-eabi\\include\\machine\\_
 1431              		.file 6 "c:\\program files\\gnu tools arm embedded\\4.9 2014q4\\arm-none-eabi\\include\\stdint.h"
 1432              		.file 7 "../../../os/rt/ports/ARMCMx/compilers/GCC/chtypes.h"
 1433              		.file 8 "../../../os/rt/include/chsystypes.h"
 1434              		.file 9 "../../../os/rt/include/chschd.h"
 1435              		.file 10 "../../../os/rt/ports/ARMCMx/chcore.h"
 1436              		.file 11 "../../../os/rt/ports/ARMCMx/chcore_v7m.h"
 1437              		.file 12 "c:\\program files\\gnu tools arm embedded\\4.9 2014q4\\lib\\gcc\\arm-none-eabi\\4.9.3\\i
 1438              		.file 13 "<built-in>"
 1439              		.file 14 "../../../os/rt/include/chtm.h"
 1440              		.file 15 "../../../os/rt/include/chmtx.h"
 1441              		.file 16 "../../../os/rt/include/chstreams.h"
 1442              		.file 17 "./ITM_trace.h"
 1443              		.file 18 "../../../os/various/lwip_bindings/arch/cc.h"
 1444              		.file 19 "../../../os/ext/lwip-1.4.1/src/include/lwip/err.h"
 1445              		.file 20 "../../../os/ext/lwip-1.4.1/src/include/lwip/pbuf.h"
 1446              		.file 21 "../../../os/ext/lwip-1.4.1/src/include/ipv4/lwip/ip_addr.h"
 1447              		.file 22 "../../../os/ext/lwip-1.4.1/src/include/lwip/netif.h"
 1448              		.file 23 "../../../os/ext/lwip-1.4.1/src/include/ipv4/lwip/ip.h"
 1449              		.file 24 "../../../os/ext/lwip-1.4.1/src/include/lwip/udp.h"
 1450              		.file 25 "../../../os/ext/lwip-1.4.1/src/include/lwip/memp.h"
 1451              		.file 26 "../../../os/ext/lwip-1.4.1/src/include/lwip/mem.h"
 1452              		.file 27 "../../../os/ext/lwip-1.4.1/src/include/lwip/stats.h"
ARM GAS  C:\Users\jo\AppData\Local\Temp\cc2IHt9i.s 			page 27


 1453              		.file 28 "../../../os/ext/CMSIS/include/core_cm4.h"
 1454              		.file 29 "../../../os/ext/lwip-1.4.1/src/include/lwip/def.h"
 1455              		.file 30 "../../../os/ext/lwip-1.4.1/src/include/ipv4/lwip/inet_chksum.h"
 1456              		.file 31 "../../../os/rt/include/chsys.h"
 1457              		.file 32 "../../../os/ext/lwip-1.4.1/src/include/ipv4/lwip/icmp.h"