ARM GAS  C:\Users\jo\AppData\Local\Temp\cccBxJSN.s 			page 1


   1              		.syntax unified
   2              		.cpu cortex-m4
   3              		.eabi_attribute 27, 3
   4              		.eabi_attribute 28, 1
   5              		.fpu fpv4-sp-d16
   6              		.eabi_attribute 20, 1
   7              		.eabi_attribute 21, 1
   8              		.eabi_attribute 23, 3
   9              		.eabi_attribute 24, 1
  10              		.eabi_attribute 25, 1
  11              		.eabi_attribute 26, 1
  12              		.eabi_attribute 30, 2
  13              		.eabi_attribute 34, 1
  14              		.eabi_attribute 18, 4
  15              		.thumb
  16              		.file	"user_mb_app_m.c"
  17              		.text
  18              	.Ltext0:
  19              		.cfi_sections	.debug_frame
  20              		.section	.text.chprintf.constprop.0,"ax",%progbits
  21              		.align	2
  22              		.p2align 4,,15
  23              		.thumb
  24              		.thumb_func
  25              		.type	chprintf.constprop.0, %function
  26              	chprintf.constprop.0:
  27              	.LFB261:
  28              		.file 1 "../../../os/hal/lib/streams/chprintf.h"
  29              		.loc 1 69 0
  30              		.cfi_startproc
  31              		@ args = 4, pretend = 12, frame = 8
  32              		@ frame_needed = 0, uses_anonymous_args = 1
  33              	.LVL0:
  34 0000 0EB4     		push	{r1, r2, r3}
  35              		.cfi_def_cfa_offset 12
  36              		.cfi_offset 1, -12
  37              		.cfi_offset 2, -8
  38              		.cfi_offset 3, -4
  39 0002 00B5     		push	{lr}
  40              		.cfi_def_cfa_offset 16
  41              		.cfi_offset 14, -16
  42 0004 82B0     		sub	sp, sp, #8
  43              		.cfi_def_cfa_offset 24
  44              		.loc 1 69 0
  45 0006 03AA     		add	r2, sp, #12
  46              		.loc 1 74 0
  47 0008 0548     		ldr	r0, .L3
  48              	.LVL1:
  49              		.loc 1 69 0
  50 000a 52F8041B 		ldr	r1, [r2], #4
  51              		.loc 1 73 0
  52 000e 0192     		str	r2, [sp, #4]
  53              		.loc 1 74 0
  54 0010 FFF7FEFF 		bl	chvprintf
  55              	.LVL2:
  56              		.loc 1 78 0
  57 0014 02B0     		add	sp, sp, #8
ARM GAS  C:\Users\jo\AppData\Local\Temp\cccBxJSN.s 			page 2


  58              		.cfi_def_cfa_offset 16
  59              		@ sp needed
  60 0016 5DF804EB 		ldr	lr, [sp], #4
  61              		.cfi_restore 14
  62              		.cfi_def_cfa_offset 12
  63 001a 03B0     		add	sp, sp, #12
  64              		.cfi_restore 3
  65              		.cfi_restore 2
  66              		.cfi_restore 1
  67              		.cfi_def_cfa_offset 0
  68 001c 7047     		bx	lr
  69              	.L4:
  70 001e 00BF     		.align	2
  71              	.L3:
  72 0020 00000000 		.word	itm_port
  73              		.cfi_endproc
  74              	.LFE261:
  75              		.size	chprintf.constprop.0, .-chprintf.constprop.0
  76 0024 AFF30080 		.section	.text.display_holding,"ax",%progbits
  76      AFF30080 
  76      AFF30080 
  77              		.align	2
  78              		.p2align 4,,15
  79              		.global	display_holding
  80              		.thumb
  81              		.thumb_func
  82              		.type	display_holding, %function
  83              	display_holding:
  84              	.LFB256:
  85              		.file 2 "FreeModbus/port/user_mb_app_m.c"
  86              		.loc 2 55 0
  87              		.cfi_startproc
  88              		@ args = 0, pretend = 0, frame = 0
  89              		@ frame_needed = 0, uses_anonymous_args = 0
  90              	.LVL3:
  91 0000 2DE9F041 		push	{r4, r5, r6, r7, r8, lr}
  92              		.cfi_def_cfa_offset 24
  93              		.cfi_offset 4, -24
  94              		.cfi_offset 5, -20
  95              		.cfi_offset 6, -16
  96              		.cfi_offset 7, -12
  97              		.cfi_offset 8, -8
  98              		.cfi_offset 14, -4
  99 0004 DFF8C080 		ldr	r8, .L14+44
 100 0008 244F     		ldr	r7, .L14
 101 000a 254E     		ldr	r6, .L14+4
 102              		.loc 2 58 0
 103 000c 0024     		movs	r4, #0
 104              		.loc 2 59 0
 105 000e 4FF41675 		mov	r5, #600
 106              	.LVL4:
 107              	.L6:
 108              		.loc 2 59 0 is_stmt 0 discriminator 3
 109 0012 FFF7FEFF 		bl	ucMBMasterGetDestAddress
 110              	.LVL5:
 111 0016 B8F80020 		ldrh	r2, [r8]
 112 001a 2249     		ldr	r1, .L14+8
ARM GAS  C:\Users\jo\AppData\Local\Temp\cccBxJSN.s 			page 3


 113 001c 2244     		add	r2, r2, r4
 114 001e 0138     		subs	r0, r0, #1
 115 0020 05FB0020 		mla	r0, r5, r0, r2
 116              		.loc 2 58 0 is_stmt 1 discriminator 3
 117 0024 0134     		adds	r4, r4, #1
 118              	.LVL6:
 119              		.loc 2 59 0 discriminator 3
 120 0026 37F81030 		ldrh	r3, [r7, r0, lsl #1]
 121 002a 1F48     		ldr	r0, .L14+12
 122 002c FFF7FEFF 		bl	chprintf.constprop.0
 123              	.LVL7:
 124              		.loc 2 58 0 discriminator 3
 125 0030 3388     		ldrh	r3, [r6]
 126 0032 A4B2     		uxth	r4, r4
 127              	.LVL8:
 128 0034 A342     		cmp	r3, r4
 129 0036 ECD2     		bcs	.L6
 130 0038 DFF89080 		ldr	r8, .L14+48
 131 003c 1B4F     		ldr	r7, .L14+16
 132 003e 1C4E     		ldr	r6, .L14+20
 133 0040 0024     		movs	r4, #0
 134              	.LVL9:
 135              		.loc 2 62 0
 136 0042 4FF41675 		mov	r5, #600
 137              	.L7:
 138              	.LVL10:
 139              		.loc 2 62 0 is_stmt 0 discriminator 3
 140 0046 FFF7FEFF 		bl	ucMBMasterGetDestAddress
 141              	.LVL11:
 142 004a B8F80020 		ldrh	r2, [r8]
 143 004e 1949     		ldr	r1, .L14+24
 144 0050 2244     		add	r2, r2, r4
 145 0052 0138     		subs	r0, r0, #1
 146 0054 05FB0020 		mla	r0, r5, r0, r2
 147              		.loc 2 61 0 is_stmt 1 discriminator 3
 148 0058 0134     		adds	r4, r4, #1
 149              	.LVL12:
 150              		.loc 2 62 0 discriminator 3
 151 005a 37F81030 		ldrh	r3, [r7, r0, lsl #1]
 152 005e 1248     		ldr	r0, .L14+12
 153 0060 FFF7FEFF 		bl	chprintf.constprop.0
 154              	.LVL13:
 155              		.loc 2 61 0 discriminator 3
 156 0064 3388     		ldrh	r3, [r6]
 157 0066 A4B2     		uxth	r4, r4
 158              	.LVL14:
 159 0068 A342     		cmp	r3, r4
 160 006a ECD2     		bcs	.L7
 161 006c 124F     		ldr	r7, .L14+28
 162 006e 134E     		ldr	r6, .L14+32
 163 0070 134D     		ldr	r5, .L14+36
 164 0072 0024     		movs	r4, #0
 165              	.LVL15:
 166              	.L8:
 167              		.loc 2 65 0 discriminator 3
 168 0074 FFF7FEFF 		bl	ucMBMasterGetDestAddress
 169              	.LVL16:
ARM GAS  C:\Users\jo\AppData\Local\Temp\cccBxJSN.s 			page 4


 170 0078 3A88     		ldrh	r2, [r7]
 171 007a 1249     		ldr	r1, .L14+40
 172 007c 0138     		subs	r0, r0, #1
 173 007e 2244     		add	r2, r2, r4
 174 0080 C0EB8010 		rsb	r0, r0, r0, lsl #6
 175 0084 1044     		add	r0, r0, r2
 176              		.loc 2 64 0 discriminator 3
 177 0086 0134     		adds	r4, r4, #1
 178              	.LVL17:
 179              		.loc 2 65 0 discriminator 3
 180 0088 335C     		ldrb	r3, [r6, r0]	@ zero_extendqisi2
 181 008a 0748     		ldr	r0, .L14+12
 182 008c FFF7FEFF 		bl	chprintf.constprop.0
 183              	.LVL18:
 184              		.loc 2 64 0 discriminator 3
 185 0090 2B88     		ldrh	r3, [r5]
 186 0092 A4B2     		uxth	r4, r4
 187              	.LVL19:
 188 0094 A342     		cmp	r3, r4
 189 0096 EDD2     		bcs	.L8
 190              		.loc 2 67 0
 191 0098 BDE8F081 		pop	{r4, r5, r6, r7, r8, pc}
 192              	.LVL20:
 193              	.L15:
 194              		.align	2
 195              	.L14:
 196 009c 00000000 		.word	.LANCHOR1
 197 00a0 00000000 		.word	.LANCHOR2
 198 00a4 00000000 		.word	.LC0
 199 00a8 00000000 		.word	itm_port
 200 00ac 00000000 		.word	.LANCHOR4
 201 00b0 00000000 		.word	.LANCHOR5
 202 00b4 18000000 		.word	.LC1
 203 00b8 00000000 		.word	.LANCHOR6
 204 00bc 00000000 		.word	.LANCHOR7
 205 00c0 00000000 		.word	.LANCHOR8
 206 00c4 30000000 		.word	.LC2
 207 00c8 00000000 		.word	.LANCHOR0
 208 00cc 00000000 		.word	.LANCHOR3
 209              		.cfi_endproc
 210              	.LFE256:
 211              		.size	display_holding, .-display_holding
 212              		.section	.text.eMBMasterRegInputCB,"ax",%progbits
 213              		.align	2
 214              		.p2align 4,,15
 215              		.global	eMBMasterRegInputCB
 216              		.thumb
 217              		.thumb_func
 218              		.type	eMBMasterRegInputCB, %function
 219              	eMBMasterRegInputCB:
 220              	.LFB257:
 221              		.loc 2 79 0
 222              		.cfi_startproc
 223              		@ args = 0, pretend = 0, frame = 0
 224              		@ frame_needed = 0, uses_anonymous_args = 0
 225              	.LVL21:
 226 0000 F8B5     		push	{r3, r4, r5, r6, r7, lr}
ARM GAS  C:\Users\jo\AppData\Local\Temp\cccBxJSN.s 			page 5


 227              		.cfi_def_cfa_offset 24
 228              		.cfi_offset 3, -24
 229              		.cfi_offset 4, -20
 230              		.cfi_offset 5, -16
 231              		.cfi_offset 6, -12
 232              		.cfi_offset 7, -8
 233              		.cfi_offset 14, -4
 234              		.loc 2 87 0
 235 0002 164B     		ldr	r3, .L24
 236              		.loc 2 79 0
 237 0004 0C46     		mov	r4, r1
 238 0006 1746     		mov	r7, r2
 239 0008 0546     		mov	r5, r0
 240              	.LVL22:
 241              		.loc 2 87 0
 242 000a 1A80     		strh	r2, [r3]	@ movhi
 243              		.loc 2 89 0
 244 000c FFF7FEFF 		bl	ucMBMasterGetDestAddress
 245              	.LVL23:
 246              		.loc 2 95 0
 247 0010 611E     		subs	r1, r4, #1
 248 0012 89B2     		uxth	r1, r1
 249              	.LVL24:
 250              		.loc 2 98 0
 251 0014 CE19     		adds	r6, r1, r7
 252 0016 B6F5167F 		cmp	r6, #600
 253 001a 1CDC     		bgt	.L21
 254              	.LVL25:
 255              		.loc 2 101 0
 256 001c 104B     		ldr	r3, .L24+4
 257 001e 1980     		strh	r1, [r3]	@ movhi
 258              	.LVL26:
 259              		.loc 2 102 0
 260 0020 BFB1     		cbz	r7, .L20
 261 0022 104B     		ldr	r3, .L24+8
 262 0024 0138     		subs	r0, r0, #1
 263              	.LVL27:
 264              		.loc 2 89 0
 265 0026 4FF49664 		mov	r4, #1200
 266 002a AA1C     		adds	r2, r5, #2
 267 002c B6B2     		uxth	r6, r6
 268 002e 04FB0030 		mla	r0, r4, r0, r3
 269              	.LVL28:
 270              	.L19:
 271              		.loc 2 104 0
 272 0032 12F8023C 		ldrb	r3, [r2, #-2]	@ zero_extendqisi2
 273 0036 1B02     		lsls	r3, r3, #8
 274 0038 20F81130 		strh	r3, [r0, r1, lsl #1]	@ movhi
 275              	.LVL29:
 276              		.loc 2 105 0
 277 003c 12F8014C 		ldrb	r4, [r2, #-1]	@ zero_extendqisi2
 278              		.loc 2 106 0
 279 0040 4D1C     		adds	r5, r1, #1
 280              		.loc 2 105 0
 281 0042 2343     		orrs	r3, r3, r4
 282 0044 20F81130 		strh	r3, [r0, r1, lsl #1]	@ movhi
 283              		.loc 2 106 0
ARM GAS  C:\Users\jo\AppData\Local\Temp\cccBxJSN.s 			page 6


 284 0048 A9B2     		uxth	r1, r5
 285              	.LVL30:
 286              		.loc 2 102 0
 287 004a B142     		cmp	r1, r6
 288 004c 02F10202 		add	r2, r2, #2
 289              	.LVL31:
 290 0050 EFD1     		bne	.L19
 291              	.LVL32:
 292              	.L20:
 293              		.loc 2 80 0
 294 0052 0020     		movs	r0, #0
 295 0054 F8BD     		pop	{r3, r4, r5, r6, r7, pc}
 296              	.LVL33:
 297              	.L21:
 298              		.loc 2 112 0
 299 0056 0120     		movs	r0, #1
 300              	.LVL34:
 301              		.loc 2 116 0
 302 0058 F8BD     		pop	{r3, r4, r5, r6, r7, pc}
 303              	.LVL35:
 304              	.L25:
 305 005a 00BF     		.align	2
 306              	.L24:
 307 005c 00000000 		.word	.LANCHOR5
 308 0060 00000000 		.word	.LANCHOR3
 309 0064 00000000 		.word	.LANCHOR4
 310              		.cfi_endproc
 311              	.LFE257:
 312              		.size	eMBMasterRegInputCB, .-eMBMasterRegInputCB
 313 0068 AFF30080 		.section	.text.eMBMasterRegHoldingCB,"ax",%progbits
 313      AFF30080 
 314              		.align	2
 315              		.p2align 4,,15
 316              		.global	eMBMasterRegHoldingCB
 317              		.thumb
 318              		.thumb_func
 319              		.type	eMBMasterRegHoldingCB, %function
 320              	eMBMasterRegHoldingCB:
 321              	.LFB258:
 322              		.loc 2 130 0
 323              		.cfi_startproc
 324              		@ args = 0, pretend = 0, frame = 0
 325              		@ frame_needed = 0, uses_anonymous_args = 0
 326              	.LVL36:
 327 0000 F8B5     		push	{r3, r4, r5, r6, r7, lr}
 328              		.cfi_def_cfa_offset 24
 329              		.cfi_offset 3, -24
 330              		.cfi_offset 4, -20
 331              		.cfi_offset 5, -16
 332              		.cfi_offset 6, -12
 333              		.cfi_offset 7, -8
 334              		.cfi_offset 14, -4
 335              		.loc 2 138 0
 336 0002 164B     		ldr	r3, .L34
 337              	.LVL37:
 338              		.loc 2 130 0
 339 0004 0C46     		mov	r4, r1
ARM GAS  C:\Users\jo\AppData\Local\Temp\cccBxJSN.s 			page 7


 340 0006 1746     		mov	r7, r2
 341 0008 0546     		mov	r5, r0
 342              	.LVL38:
 343              		.loc 2 138 0
 344 000a 1A80     		strh	r2, [r3]	@ movhi
 345              		.loc 2 140 0
 346 000c FFF7FEFF 		bl	ucMBMasterGetDestAddress
 347              	.LVL39:
 348              		.loc 2 148 0
 349 0010 611E     		subs	r1, r4, #1
 350 0012 89B2     		uxth	r1, r1
 351              	.LVL40:
 352              		.loc 2 152 0
 353 0014 CE19     		adds	r6, r1, r7
 354 0016 B6F5167F 		cmp	r6, #600
 355 001a 1CDC     		bgt	.L31
 356              	.LVL41:
 357              		.loc 2 155 0
 358 001c 104B     		ldr	r3, .L34+4
 359 001e 1980     		strh	r1, [r3]	@ movhi
 360              	.LVL42:
 361              		.loc 2 170 0
 362 0020 BFB1     		cbz	r7, .L30
 363 0022 104B     		ldr	r3, .L34+8
 364 0024 0138     		subs	r0, r0, #1
 365              	.LVL43:
 366              		.loc 2 140 0
 367 0026 4FF49664 		mov	r4, #1200
 368 002a AA1C     		adds	r2, r5, #2
 369 002c B6B2     		uxth	r6, r6
 370 002e 04FB0030 		mla	r0, r4, r0, r3
 371              	.LVL44:
 372              	.L29:
 373              		.loc 2 172 0
 374 0032 12F8023C 		ldrb	r3, [r2, #-2]	@ zero_extendqisi2
 375 0036 1B02     		lsls	r3, r3, #8
 376 0038 20F81130 		strh	r3, [r0, r1, lsl #1]	@ movhi
 377              	.LVL45:
 378              		.loc 2 173 0
 379 003c 12F8014C 		ldrb	r4, [r2, #-1]	@ zero_extendqisi2
 380              		.loc 2 174 0
 381 0040 4D1C     		adds	r5, r1, #1
 382              		.loc 2 173 0
 383 0042 2343     		orrs	r3, r3, r4
 384 0044 20F81130 		strh	r3, [r0, r1, lsl #1]	@ movhi
 385              		.loc 2 174 0
 386 0048 A9B2     		uxth	r1, r5
 387              	.LVL46:
 388              		.loc 2 170 0
 389 004a B142     		cmp	r1, r6
 390 004c 02F10202 		add	r2, r2, #2
 391              	.LVL47:
 392 0050 EFD1     		bne	.L29
 393              	.LVL48:
 394              	.L30:
 395              		.loc 2 131 0
 396 0052 0020     		movs	r0, #0
ARM GAS  C:\Users\jo\AppData\Local\Temp\cccBxJSN.s 			page 8


 397 0054 F8BD     		pop	{r3, r4, r5, r6, r7, pc}
 398              	.LVL49:
 399              	.L31:
 400              		.loc 2 182 0
 401 0056 0120     		movs	r0, #1
 402              	.LVL50:
 403              		.loc 2 185 0
 404 0058 F8BD     		pop	{r3, r4, r5, r6, r7, pc}
 405              	.LVL51:
 406              	.L35:
 407 005a 00BF     		.align	2
 408              	.L34:
 409 005c 00000000 		.word	.LANCHOR2
 410 0060 00000000 		.word	.LANCHOR0
 411 0064 00000000 		.word	.LANCHOR1
 412              		.cfi_endproc
 413              	.LFE258:
 414              		.size	eMBMasterRegHoldingCB, .-eMBMasterRegHoldingCB
 415 0068 AFF30080 		.section	.text.eMBMasterRegCoilsCB,"ax",%progbits
 415      AFF30080 
 416              		.align	2
 417              		.p2align 4,,15
 418              		.global	eMBMasterRegCoilsCB
 419              		.thumb
 420              		.thumb_func
 421              		.type	eMBMasterRegCoilsCB, %function
 422              	eMBMasterRegCoilsCB:
 423              	.LFB259:
 424              		.loc 2 199 0
 425              		.cfi_startproc
 426              		@ args = 0, pretend = 0, frame = 8
 427              		@ frame_needed = 0, uses_anonymous_args = 0
 428              	.LVL52:
 429 0000 2DE9F04F 		push	{r4, r5, r6, r7, r8, r9, r10, fp, lr}
 430              		.cfi_def_cfa_offset 36
 431              		.cfi_offset 4, -36
 432              		.cfi_offset 5, -32
 433              		.cfi_offset 6, -28
 434              		.cfi_offset 7, -24
 435              		.cfi_offset 8, -20
 436              		.cfi_offset 9, -16
 437              		.cfi_offset 10, -12
 438              		.cfi_offset 11, -8
 439              		.cfi_offset 14, -4
 440 0004 83B0     		sub	sp, sp, #12
 441              		.cfi_def_cfa_offset 48
 442              		.loc 2 206 0
 443 0006 D308     		lsrs	r3, r2, #3
 444              	.LVL53:
 445              		.loc 2 199 0
 446 0008 0D46     		mov	r5, r1
 447              		.loc 2 206 0
 448 000a 5C1C     		adds	r4, r3, #1
 449              	.LVL54:
 450 000c 0093     		str	r3, [sp]
 451              		.loc 2 221 0
 452 000e 013D     		subs	r5, r5, #1
ARM GAS  C:\Users\jo\AppData\Local\Temp\cccBxJSN.s 			page 9


 453              		.loc 2 208 0
 454 0010 284B     		ldr	r3, .L48
 455              		.loc 2 210 0
 456 0012 2949     		ldr	r1, .L48+4
 457              	.LVL55:
 458              		.loc 2 208 0
 459 0014 1C80     		strh	r4, [r3]	@ movhi
 460              		.loc 2 199 0
 461 0016 1746     		mov	r7, r2
 462 0018 8246     		mov	r10, r0
 463              		.loc 2 210 0
 464 001a 2246     		mov	r2, r4
 465              	.LVL56:
 466 001c 2748     		ldr	r0, .L48+8
 467              	.LVL57:
 468              		.loc 2 221 0
 469 001e ADB2     		uxth	r5, r5
 470              		.loc 2 210 0
 471 0020 FFF7FEFF 		bl	chprintf.constprop.0
 472              	.LVL58:
 473              		.loc 2 212 0
 474 0024 FFF7FEFF 		bl	ucMBMasterGetDestAddress
 475              	.LVL59:
 476              		.loc 2 224 0
 477 0028 EB19     		adds	r3, r5, r7
 478 002a B3F5FA7F 		cmp	r3, #500
 479 002e 3CDC     		bgt	.L40
 480              		.loc 2 212 0
 481 0030 0138     		subs	r0, r0, #1
 482              	.LVL60:
 483 0032 234E     		ldr	r6, .L48+12
 484              		.loc 2 227 0
 485 0034 234B     		ldr	r3, .L48+16
 486              		.loc 2 226 0
 487 0036 4FEAD50B 		lsr	fp, r5, #3
 488              	.LVL61:
 489              		.loc 2 212 0
 490 003a C0EB8010 		rsb	r0, r0, r0, lsl #6
 491              		.loc 2 249 0
 492 003e 012C     		cmp	r4, #1
 493              		.loc 2 212 0
 494 0040 0644     		add	r6, r6, r0
 495              		.loc 2 227 0
 496 0042 A3F800B0 		strh	fp, [r3]	@ movhi
 497              		.loc 2 228 0
 498 0046 05F00705 		and	r5, r5, #7
 499              	.LVL62:
 500              		.loc 2 249 0
 501 004a 1CD0     		beq	.L38
 502 004c 009B     		ldr	r3, [sp]
 503 004e 013B     		subs	r3, r3, #1
 504 0050 9BB2     		uxth	r3, r3
 505 0052 0193     		str	r3, [sp, #4]
 506 0054 0AEB0308 		add	r8, r10, r3
 507 0058 0AF1FF39 		add	r9, r10, #-1
 508 005c 5846     		mov	r0, fp
 509              	.LVL63:
ARM GAS  C:\Users\jo\AppData\Local\Temp\cccBxJSN.s 			page 10


 510              	.L39:
 511              		.loc 2 251 0
 512 005e 19F8013F 		ldrb	r3, [r9, #1]!	@ zero_extendqisi2
 513              	.LVL64:
 514 0062 441C     		adds	r4, r0, #1
 515 0064 2946     		mov	r1, r5
 516 0066 3044     		add	r0, r0, r6
 517              	.LVL65:
 518 0068 0822     		movs	r2, #8
 519 006a FFF7FEFF 		bl	xMBUtilSetBits
 520              	.LVL66:
 521 006e A4B2     		uxth	r4, r4
 522              	.LVL67:
 523              		.loc 2 249 0
 524 0070 C145     		cmp	r9, r8
 525              		.loc 2 251 0
 526 0072 2046     		mov	r0, r4
 527              		.loc 2 249 0
 528 0074 F3D1     		bne	.L39
 529 0076 009B     		ldr	r3, [sp]
 530 0078 5B44     		add	r3, r3, fp
 531 007a 9B46     		mov	fp, r3
 532 007c 019B     		ldr	r3, [sp, #4]
 533 007e 0133     		adds	r3, r3, #1
 534 0080 1FFA8BFB 		uxth	fp, fp
 535 0084 9A44     		add	r10, r10, r3
 536              	.LVL68:
 537              	.L38:
 538              		.loc 2 258 0
 539 0086 17F00702 		ands	r2, r7, #7
 540 008a 03D1     		bne	.L47
 541              		.loc 2 200 0
 542 008c 1046     		mov	r0, r2
 543              	.LVL69:
 544              		.loc 2 271 0
 545 008e 03B0     		add	sp, sp, #12
 546              		.cfi_remember_state
 547              		.cfi_def_cfa_offset 36
 548              		@ sp needed
 549 0090 BDE8F08F 		pop	{r4, r5, r6, r7, r8, r9, r10, fp, pc}
 550              	.LVL70:
 551              	.L47:
 552              		.cfi_restore_state
 553              		.loc 2 260 0
 554 0094 06EB0B00 		add	r0, r6, fp
 555 0098 2946     		mov	r1, r5
 556 009a 9AF80030 		ldrb	r3, [r10]	@ zero_extendqisi2
 557 009e FFF7FEFF 		bl	xMBUtilSetBits
 558              	.LVL71:
 559              		.loc 2 200 0
 560 00a2 0020     		movs	r0, #0
 561              	.LVL72:
 562              		.loc 2 271 0
 563 00a4 03B0     		add	sp, sp, #12
 564              		.cfi_remember_state
 565              		.cfi_def_cfa_offset 36
 566              		@ sp needed
ARM GAS  C:\Users\jo\AppData\Local\Temp\cccBxJSN.s 			page 11


 567 00a6 BDE8F08F 		pop	{r4, r5, r6, r7, r8, r9, r10, fp, pc}
 568              	.LVL73:
 569              	.L40:
 570              		.cfi_restore_state
 571              		.loc 2 268 0
 572 00aa 0120     		movs	r0, #1
 573              	.LVL74:
 574              		.loc 2 271 0
 575 00ac 03B0     		add	sp, sp, #12
 576              		.cfi_def_cfa_offset 36
 577              		@ sp needed
 578 00ae BDE8F08F 		pop	{r4, r5, r6, r7, r8, r9, r10, fp, pc}
 579              	.LVL75:
 580              	.L49:
 581 00b2 00BF     		.align	2
 582              	.L48:
 583 00b4 00000000 		.word	.LANCHOR8
 584 00b8 44000000 		.word	.LC3
 585 00bc 00000000 		.word	itm_port
 586 00c0 00000000 		.word	.LANCHOR7
 587 00c4 00000000 		.word	.LANCHOR6
 588              		.cfi_endproc
 589              	.LFE259:
 590              		.size	eMBMasterRegCoilsCB, .-eMBMasterRegCoilsCB
 591 00c8 AFF30080 		.section	.text.eMBMasterRegDiscreteCB,"ax",%progbits
 591      AFF30080 
 592              		.align	2
 593              		.p2align 4,,15
 594              		.global	eMBMasterRegDiscreteCB
 595              		.thumb
 596              		.thumb_func
 597              		.type	eMBMasterRegDiscreteCB, %function
 598              	eMBMasterRegDiscreteCB:
 599              	.LFB260:
 600              		.loc 2 283 0
 601              		.cfi_startproc
 602              		@ args = 0, pretend = 0, frame = 8
 603              		@ frame_needed = 0, uses_anonymous_args = 0
 604              	.LVL76:
 605 0000 2DE9F04F 		push	{r4, r5, r6, r7, r8, r9, r10, fp, lr}
 606              		.cfi_def_cfa_offset 36
 607              		.cfi_offset 4, -36
 608              		.cfi_offset 5, -32
 609              		.cfi_offset 6, -28
 610              		.cfi_offset 7, -24
 611              		.cfi_offset 8, -20
 612              		.cfi_offset 9, -16
 613              		.cfi_offset 10, -12
 614              		.cfi_offset 11, -8
 615              		.cfi_offset 14, -4
 616 0004 0C46     		mov	r4, r1
 617 0006 83B0     		sub	sp, sp, #12
 618              		.cfi_def_cfa_offset 48
 619              		.loc 2 283 0
 620 0008 1746     		mov	r7, r2
 621              	.LVL77:
 622 000a 8146     		mov	r9, r0
ARM GAS  C:\Users\jo\AppData\Local\Temp\cccBxJSN.s 			page 12


 623              		.loc 2 292 0
 624 000c FFF7FEFF 		bl	ucMBMasterGetDestAddress
 625              	.LVL78:
 626              		.loc 2 298 0
 627 0010 611E     		subs	r1, r4, #1
 628 0012 89B2     		uxth	r1, r1
 629              		.loc 2 295 0
 630 0014 224A     		ldr	r2, .L62
 631              		.loc 2 301 0
 632 0016 CB19     		adds	r3, r1, r7
 633 0018 B3F5FA7F 		cmp	r3, #500
 634              		.loc 2 295 0
 635 001c 1588     		ldrh	r5, [r2]
 636              	.LVL79:
 637              		.loc 2 301 0
 638 001e 3ADC     		bgt	.L54
 639              		.loc 2 292 0
 640 0020 0138     		subs	r0, r0, #1
 641              	.LVL80:
 642              		.loc 2 303 0
 643 0022 4D1B     		subs	r5, r1, r5
 644              	.LVL81:
 645              		.loc 2 292 0
 646 0024 1F4E     		ldr	r6, .L62+4
 647              		.loc 2 303 0
 648 0026 ADB2     		uxth	r5, r5
 649              		.loc 2 292 0
 650 0028 C0EB8010 		rsb	r0, r0, r0, lsl #6
 651              		.loc 2 307 0
 652 002c FB08     		lsrs	r3, r7, #3
 653              		.loc 2 303 0
 654 002e 4FEAD50B 		lsr	fp, r5, #3
 655              	.LVL82:
 656              		.loc 2 292 0
 657 0032 0644     		add	r6, r6, r0
 658              		.loc 2 304 0
 659 0034 05F00705 		and	r5, r5, #7
 660              	.LVL83:
 661              		.loc 2 307 0
 662 0038 0093     		str	r3, [sp]
 663 003a 1AD0     		beq	.L52
 664 003c 013B     		subs	r3, r3, #1
 665 003e 9BB2     		uxth	r3, r3
 666 0040 0193     		str	r3, [sp, #4]
 667 0042 09EB0308 		add	r8, r9, r3
 668 0046 09F1FF3A 		add	r10, r9, #-1
 669 004a 5846     		mov	r0, fp
 670              	.LVL84:
 671              	.L53:
 672              		.loc 2 309 0
 673 004c 1AF8013F 		ldrb	r3, [r10, #1]!	@ zero_extendqisi2
 674              	.LVL85:
 675 0050 441C     		adds	r4, r0, #1
 676 0052 2946     		mov	r1, r5
 677 0054 3044     		add	r0, r0, r6
 678              	.LVL86:
 679 0056 0822     		movs	r2, #8
ARM GAS  C:\Users\jo\AppData\Local\Temp\cccBxJSN.s 			page 13


 680 0058 FFF7FEFF 		bl	xMBUtilSetBits
 681              	.LVL87:
 682 005c A4B2     		uxth	r4, r4
 683              	.LVL88:
 684              		.loc 2 307 0
 685 005e C245     		cmp	r10, r8
 686              		.loc 2 309 0
 687 0060 2046     		mov	r0, r4
 688              		.loc 2 307 0
 689 0062 F3D1     		bne	.L53
 690 0064 009B     		ldr	r3, [sp]
 691 0066 9B44     		add	fp, fp, r3
 692 0068 019B     		ldr	r3, [sp, #4]
 693 006a 0133     		adds	r3, r3, #1
 694 006c 1FFA8BFB 		uxth	fp, fp
 695 0070 9944     		add	r9, r9, r3
 696              	.LVL89:
 697              	.L52:
 698              		.loc 2 316 0
 699 0072 17F00702 		ands	r2, r7, #7
 700 0076 03D1     		bne	.L61
 701              		.loc 2 284 0
 702 0078 1046     		mov	r0, r2
 703              	.LVL90:
 704              		.loc 2 328 0
 705 007a 03B0     		add	sp, sp, #12
 706              		.cfi_remember_state
 707              		.cfi_def_cfa_offset 36
 708              		@ sp needed
 709 007c BDE8F08F 		pop	{r4, r5, r6, r7, r8, r9, r10, fp, pc}
 710              	.LVL91:
 711              	.L61:
 712              		.cfi_restore_state
 713              		.loc 2 318 0
 714 0080 06EB0B00 		add	r0, r6, fp
 715 0084 2946     		mov	r1, r5
 716 0086 99F80030 		ldrb	r3, [r9]	@ zero_extendqisi2
 717 008a FFF7FEFF 		bl	xMBUtilSetBits
 718              	.LVL92:
 719              		.loc 2 284 0
 720 008e 0020     		movs	r0, #0
 721              	.LVL93:
 722              		.loc 2 328 0
 723 0090 03B0     		add	sp, sp, #12
 724              		.cfi_remember_state
 725              		.cfi_def_cfa_offset 36
 726              		@ sp needed
 727 0092 BDE8F08F 		pop	{r4, r5, r6, r7, r8, r9, r10, fp, pc}
 728              	.LVL94:
 729              	.L54:
 730              		.cfi_restore_state
 731              		.loc 2 324 0
 732 0096 0120     		movs	r0, #1
 733              	.LVL95:
 734              		.loc 2 328 0
 735 0098 03B0     		add	sp, sp, #12
 736              		.cfi_def_cfa_offset 36
ARM GAS  C:\Users\jo\AppData\Local\Temp\cccBxJSN.s 			page 14


 737              		@ sp needed
 738 009a BDE8F08F 		pop	{r4, r5, r6, r7, r8, r9, r10, fp, pc}
 739              	.LVL96:
 740              	.L63:
 741 009e 00BF     		.align	2
 742              	.L62:
 743 00a0 00000000 		.word	.LANCHOR9
 744 00a4 00000000 		.word	.LANCHOR10
 745              		.cfi_endproc
 746              	.LFE260:
 747              		.size	eMBMasterRegDiscreteCB, .-eMBMasterRegDiscreteCB
 748              		.global	ucMDiscInBuf
 749              		.global	usMDiscInStart
 750 00a8 AFF30080 		.section	.bss.xtCoilRegIndex,"aw",%nobits
 750      AFF30080 
 751              		.align	1
 752              		.set	.LANCHOR6,. + 0
 753              		.type	xtCoilRegIndex, %object
 754              		.size	xtCoilRegIndex, 2
 755              	xtCoilRegIndex:
 756 0000 0000     		.space	2
 757              		.section	.bss.usMRegInBuf,"aw",%nobits
 758              		.align	2
 759              		.set	.LANCHOR4,. + 0
 760              		.type	usMRegInBuf, %object
 761              		.size	usMRegInBuf, 19200
 762              	usMRegInBuf:
 763 0000 00000000 		.space	19200
 763      00000000 
 763      00000000 
 763      00000000 
 763      00000000 
 764              		.section	.bss.xtholdingNRegs,"aw",%nobits
 765              		.align	1
 766              		.set	.LANCHOR2,. + 0
 767              		.type	xtholdingNRegs, %object
 768              		.size	xtholdingNRegs, 2
 769              	xtholdingNRegs:
 770 0000 0000     		.space	2
 771              		.section	.bss.ucMDiscInBuf,"aw",%nobits
 772              		.align	2
 773              		.set	.LANCHOR10,. + 0
 774              		.type	ucMDiscInBuf, %object
 775              		.size	ucMDiscInBuf, 1008
 776              	ucMDiscInBuf:
 777 0000 00000000 		.space	1008
 777      00000000 
 777      00000000 
 777      00000000 
 777      00000000 
 778              		.section	.rodata.str1.4,"aMS",%progbits,1
 779              		.align	2
 780              	.LC0:
 781 0000 75734D52 		.ascii	"usMRegHoldBuf[%d]: %d\012\000"
 781      6567486F 
 781      6C644275 
 781      665B2564 
ARM GAS  C:\Users\jo\AppData\Local\Temp\cccBxJSN.s 			page 15


 781      5D3A2025 
 782 0017 00       		.space	1
 783              	.LC1:
 784 0018 75734D52 		.ascii	"usMRegInBuf[%d]: %d\012\000"
 784      6567496E 
 784      4275665B 
 784      25645D3A 
 784      2025640A 
 785 002d 000000   		.space	3
 786              	.LC2:
 787 0030 75634D43 		.ascii	"ucMCoilBuf[%d]: %d\012\000"
 787      6F696C42 
 787      75665B25 
 787      645D3A20 
 787      25640A00 
 788              	.LC3:
 789 0044 7874436F 		.ascii	"xtCoilNRegs[%d]: %d\012\000"
 789      696C4E52 
 789      6567735B 
 789      25645D3A 
 789      2025640A 
 790 0059 000000   		.section	.bss.xtCoilNRegs,"aw",%nobits
 791              		.align	1
 792              		.set	.LANCHOR8,. + 0
 793              		.type	xtCoilNRegs, %object
 794              		.size	xtCoilNRegs, 2
 795              	xtCoilNRegs:
 796 0000 0000     		.space	2
 797              		.section	.bss.xtinputNRegs,"aw",%nobits
 798              		.align	1
 799              		.set	.LANCHOR5,. + 0
 800              		.type	xtinputNRegs, %object
 801              		.size	xtinputNRegs, 2
 802              	xtinputNRegs:
 803 0000 0000     		.space	2
 804              		.section	.bss.xtinputRegIndex,"aw",%nobits
 805              		.align	1
 806              		.set	.LANCHOR3,. + 0
 807              		.type	xtinputRegIndex, %object
 808              		.size	xtinputRegIndex, 2
 809              	xtinputRegIndex:
 810 0000 0000     		.space	2
 811              		.section	.bss.xtholdingRegIndex,"aw",%nobits
 812              		.align	1
 813              		.set	.LANCHOR0,. + 0
 814              		.type	xtholdingRegIndex, %object
 815              		.size	xtholdingRegIndex, 2
 816              	xtholdingRegIndex:
 817 0000 0000     		.space	2
 818              		.section	.bss.usMRegHoldBuf,"aw",%nobits
 819              		.align	2
 820              		.set	.LANCHOR1,. + 0
 821              		.type	usMRegHoldBuf, %object
 822              		.size	usMRegHoldBuf, 19200
 823              	usMRegHoldBuf:
 824 0000 00000000 		.space	19200
 824      00000000 
ARM GAS  C:\Users\jo\AppData\Local\Temp\cccBxJSN.s 			page 16


 824      00000000 
 824      00000000 
 824      00000000 
 825              		.section	.bss.usMDiscInStart,"aw",%nobits
 826              		.align	1
 827              		.set	.LANCHOR9,. + 0
 828              		.type	usMDiscInStart, %object
 829              		.size	usMDiscInStart, 2
 830              	usMDiscInStart:
 831 0000 0000     		.space	2
 832              		.section	.bss.ucMCoilBuf,"aw",%nobits
 833              		.align	2
 834              		.set	.LANCHOR7,. + 0
 835              		.type	ucMCoilBuf, %object
 836              		.size	ucMCoilBuf, 1008
 837              	ucMCoilBuf:
 838 0000 00000000 		.space	1008
 838      00000000 
 838      00000000 
 838      00000000 
 838      00000000 
 839              		.text
 840              	.Letext0:
 841              		.file 3 "c:\\program files\\gnu tools arm embedded\\4.9 2014q4\\lib\\gcc\\arm-none-eabi\\4.9.3\\in
 842              		.file 4 "c:\\program files\\gnu tools arm embedded\\4.9 2014q4\\arm-none-eabi\\include\\machine\\_
 843              		.file 5 "c:\\program files\\gnu tools arm embedded\\4.9 2014q4\\arm-none-eabi\\include\\stdint.h"
 844              		.file 6 "../../../os/rt/ports/ARMCMx/compilers/GCC/chtypes.h"
 845              		.file 7 "../../../os/rt/include/chsystypes.h"
 846              		.file 8 "../../../os/rt/include/chschd.h"
 847              		.file 9 "../../../os/rt/ports/ARMCMx/chcore.h"
 848              		.file 10 "../../../os/rt/ports/ARMCMx/chcore_v7m.h"
 849              		.file 11 "c:\\program files\\gnu tools arm embedded\\4.9 2014q4\\lib\\gcc\\arm-none-eabi\\4.9.3\\i
 850              		.file 12 "<built-in>"
 851              		.file 13 "../../../os/rt/include/chtm.h"
 852              		.file 14 "../../../os/rt/include/chmtx.h"
 853              		.file 15 "../../../os/rt/include/chstreams.h"
 854              		.file 16 "./ITM_trace.h"
 855              		.file 17 "FreeModbus/port/port.h"
 856              		.file 18 "FreeModbus/modbus/include/mb.h"
 857              		.file 19 "../../../os/ext/CMSIS/include/core_cm4.h"
 858              		.file 20 "FreeModbus/modbus/include/mb_m.h"
 859              		.file 21 "FreeModbus/modbus/include/mbutils.h"