ARM GAS  C:\Users\jo\AppData\Local\Temp\cc1bin1j.s 			page 1


   1              		.syntax unified
   2              		.cpu cortex-m4
   3              		.eabi_attribute 27, 3
   4              		.eabi_attribute 28, 1
   5              		.fpu fpv4-sp-d16
   6              		.eabi_attribute 20, 1
   7              		.eabi_attribute 21, 1
   8              		.eabi_attribute 23, 3
   9              		.eabi_attribute 24, 1
  10              		.eabi_attribute 25, 1
  11              		.eabi_attribute 26, 1
  12              		.eabi_attribute 30, 2
  13              		.eabi_attribute 34, 1
  14              		.eabi_attribute 18, 4
  15              		.thumb
  16              		.file	"web.c"
  17              		.text
  18              	.Ltext0:
  19              		.cfi_sections	.debug_frame
  20              		.section	.text.chprintf.constprop.0,"ax",%progbits
  21              		.align	2
  22              		.p2align 4,,15
  23              		.thumb
  24              		.thumb_func
  25              		.type	chprintf.constprop.0, %function
  26              	chprintf.constprop.0:
  27              	.LFB262:
  28              		.file 1 "../../../os/hal/lib/streams/chprintf.h"
  29              		.loc 1 69 0
  30              		.cfi_startproc
  31              		@ args = 4, pretend = 12, frame = 8
  32              		@ frame_needed = 0, uses_anonymous_args = 1
  33              	.LVL0:
  34 0000 0EB4     		push	{r1, r2, r3}
  35              		.cfi_def_cfa_offset 12
  36              		.cfi_offset 1, -12
  37              		.cfi_offset 2, -8
  38              		.cfi_offset 3, -4
  39 0002 00B5     		push	{lr}
  40              		.cfi_def_cfa_offset 16
  41              		.cfi_offset 14, -16
  42 0004 82B0     		sub	sp, sp, #8
  43              		.cfi_def_cfa_offset 24
  44              		.loc 1 69 0
  45 0006 03AA     		add	r2, sp, #12
  46              		.loc 1 74 0
  47 0008 0548     		ldr	r0, .L3
  48              	.LVL1:
  49              		.loc 1 69 0
  50 000a 52F8041B 		ldr	r1, [r2], #4
  51              		.loc 1 73 0
  52 000e 0192     		str	r2, [sp, #4]
  53              		.loc 1 74 0
  54 0010 FFF7FEFF 		bl	chvprintf
  55              	.LVL2:
  56              		.loc 1 78 0
  57 0014 02B0     		add	sp, sp, #8
ARM GAS  C:\Users\jo\AppData\Local\Temp\cc1bin1j.s 			page 2


  58              		.cfi_def_cfa_offset 16
  59              		@ sp needed
  60 0016 5DF804EB 		ldr	lr, [sp], #4
  61              		.cfi_restore 14
  62              		.cfi_def_cfa_offset 12
  63 001a 03B0     		add	sp, sp, #12
  64              		.cfi_restore 3
  65              		.cfi_restore 2
  66              		.cfi_restore 1
  67              		.cfi_def_cfa_offset 0
  68 001c 7047     		bx	lr
  69              	.L4:
  70 001e 00BF     		.align	2
  71              	.L3:
  72 0020 00000000 		.word	itm_port
  73              		.cfi_endproc
  74              	.LFE262:
  75              		.size	chprintf.constprop.0, .-chprintf.constprop.0
  76 0024 AFF30080 		.section	.text.itoa,"ax",%progbits
  76      AFF30080 
  76      AFF30080 
  77              		.align	2
  78              		.p2align 4,,15
  79              		.global	itoa
  80              		.thumb
  81              		.thumb_func
  82              		.type	itoa, %function
  83              	itoa:
  84              	.LFB256:
  85              		.file 2 "web/web.c"
  86              		.loc 2 74 0
  87              		.cfi_startproc
  88              		@ args = 0, pretend = 0, frame = 0
  89              		@ frame_needed = 0, uses_anonymous_args = 0
  90              	.LVL3:
  91 0000 F8B5     		push	{r3, r4, r5, r6, r7, lr}
  92              		.cfi_def_cfa_offset 24
  93              		.cfi_offset 3, -24
  94              		.cfi_offset 4, -20
  95              		.cfi_offset 5, -16
  96              		.cfi_offset 6, -12
  97              		.cfi_offset 7, -8
  98              		.cfi_offset 14, -4
  99 0002 80EAE073 		eor	r3, r0, r0, asr #31
 100              		.loc 2 95 0
 101 0006 194F     		ldr	r7, .L15
 102              		.loc 2 74 0
 103 0008 0C46     		mov	r4, r1
 104 000a 4D1E     		subs	r5, r1, #1
 105 000c A3EBE073 		sub	r3, r3, r0, asr #31
 106 0010 0021     		movs	r1, #0
 107              	.LVL4:
 108              	.L6:
 109              		.loc 2 95 0 discriminator 1
 110 0012 87FB0326 		smull	r2, r6, r7, r3
 111 0016 DA17     		asrs	r2, r3, #31
 112 0018 C2EBA602 		rsb	r2, r2, r6, asr #2
ARM GAS  C:\Users\jo\AppData\Local\Temp\cc1bin1j.s 			page 3


 113 001c 02EB8206 		add	r6, r2, r2, lsl #2
 114 0020 A3EB4603 		sub	r3, r3, r6, lsl #1
 115              	.LVL5:
 116 0024 3033     		adds	r3, r3, #48
 117 0026 05F8013F 		strb	r3, [r5, #1]!
 118 002a 0131     		adds	r1, r1, #1
 119              	.LVL6:
 120              		.loc 2 96 0 discriminator 1
 121 002c 1346     		mov	r3, r2
 122 002e 002A     		cmp	r2, #0
 123 0030 EFD1     		bne	.L6
 124              		.loc 2 97 0
 125 0032 0028     		cmp	r0, #0
 126 0034 02DA     		bge	.L7
 127              		.loc 2 98 0
 128 0036 2D22     		movs	r2, #45
 129              	.LVL7:
 130 0038 6254     		strb	r2, [r4, r1]
 131 003a 0131     		adds	r1, r1, #1
 132              	.LVL8:
 133              	.L7:
 134              		.loc 2 99 0
 135 003c 0025     		movs	r5, #0
 136 003e 6554     		strb	r5, [r4, r1]
 137              	.LVL9:
 138              	.LBB6:
 139              	.LBB7:
 140              		.loc 2 81 0
 141 0040 2046     		mov	r0, r4
 142              	.LVL10:
 143 0042 FFF7FEFF 		bl	strlen
 144              	.LVL11:
 145 0046 421E     		subs	r2, r0, #1
 146              	.LVL12:
 147 0048 AA42     		cmp	r2, r5
 148 004a 0DDD     		ble	.L5
 149 004c 2146     		mov	r1, r4
 150 004e 2044     		add	r0, r0, r4
 151 0050 2B46     		mov	r3, r5
 152              	.LVL13:
 153              	.L9:
 154 0052 0133     		adds	r3, r3, #1
 155              	.LVL14:
 156 0054 013A     		subs	r2, r2, #1
 157              	.LVL15:
 158              		.loc 2 83 0
 159 0056 0C78     		ldrb	r4, [r1]	@ zero_extendqisi2
 160              	.LVL16:
 161              		.loc 2 84 0
 162 0058 10F8015C 		ldrb	r5, [r0, #-1]	@ zero_extendqisi2
 163 005c 01F8015B 		strb	r5, [r1], #1
 164              		.loc 2 81 0
 165 0060 9342     		cmp	r3, r2
 166              		.loc 2 85 0
 167 0062 00F8014D 		strb	r4, [r0, #-1]!
 168              		.loc 2 81 0
 169 0066 F4DB     		blt	.L9
ARM GAS  C:\Users\jo\AppData\Local\Temp\cc1bin1j.s 			page 4


 170              	.LVL17:
 171              	.L5:
 172 0068 F8BD     		pop	{r3, r4, r5, r6, r7, pc}
 173              	.L16:
 174 006a 00BF     		.align	2
 175              	.L15:
 176 006c 67666666 		.word	1717986919
 177              	.LBE7:
 178              	.LBE6:
 179              		.cfi_endproc
 180              	.LFE256:
 181              		.size	itoa, .-itoa
 182              		.section	.text.DynWebPage,"ax",%progbits
 183              		.align	2
 184              		.p2align 4,,15
 185              		.global	DynWebPage
 186              		.thumb
 187              		.thumb_func
 188              		.type	DynWebPage, %function
 189              	DynWebPage:
 190              	.LFB258:
 191              		.loc 2 281 0
 192              		.cfi_startproc
 193              		@ args = 0, pretend = 0, frame = 1232
 194              		@ frame_needed = 0, uses_anonymous_args = 0
 195              	.LVL18:
 196 0000 2DE9F04F 		push	{r4, r5, r6, r7, r8, r9, r10, fp, lr}
 197              		.cfi_def_cfa_offset 36
 198              		.cfi_offset 4, -36
 199              		.cfi_offset 5, -32
 200              		.cfi_offset 6, -28
 201              		.cfi_offset 7, -24
 202              		.cfi_offset 8, -20
 203              		.cfi_offset 9, -16
 204              		.cfi_offset 10, -12
 205              		.cfi_offset 11, -8
 206              		.cfi_offset 14, -4
 207 0004 ADF2DC4D 		subw	sp, sp, #1244
 208              		.cfi_def_cfa_offset 1280
 209              		.loc 2 283 0
 210 0008 0025     		movs	r5, #0
 211              		.loc 2 284 0
 212 000a 36AC     		add	r4, sp, #216
 213 000c 2946     		mov	r1, r5
 214              		.loc 2 281 0
 215 000e 0390     		str	r0, [sp, #12]
 216              		.loc 2 284 0
 217 0010 4FF48062 		mov	r2, #1024
 218 0014 2046     		mov	r0, r4
 219              	.LVL19:
 220              		.loc 2 283 0
 221 0016 0695     		str	r5, [sp, #24]
 222 0018 ADF81C50 		strh	r5, [sp, #28]	@ movhi
 223 001c 0595     		str	r5, [sp, #20]
 224              		.loc 2 284 0
 225 001e FFF7FEFF 		bl	memset
 226              	.LVL20:
ARM GAS  C:\Users\jo\AppData\Local\Temp\cc1bin1j.s 			page 5


 227              		.loc 2 287 0
 228 0022 2946     		mov	r1, r5
 229 0024 8222     		movs	r2, #130
 230 0026 15A8     		add	r0, sp, #84
 231 0028 FFF7FEFF 		bl	memset
 232              	.LVL21:
 233              		.loc 2 290 0
 234 002c 5F4A     		ldr	r2, .L21
 235 002e 604E     		ldr	r6, .L21+4
 236 0030 1368     		ldr	r3, [r2]
 237 0032 DFF89481 		ldr	r8, .L21+28
 238 0036 0133     		adds	r3, r3, #1
 239              		.loc 2 292 0
 240 0038 1846     		mov	r0, r3
 241 003a 05A9     		add	r1, sp, #20
 242              		.loc 2 290 0
 243 003c 1360     		str	r3, [r2]
 244              		.loc 2 292 0
 245 003e FFF7FEFF 		bl	itoa
 246              	.LVL22:
 247 0042 15A8     		add	r0, sp, #84
 248 0044 FFF7FEFF 		bl	strlen
 249              	.LVL23:
 250              		.loc 2 293 0
 251 0048 15AB     		add	r3, sp, #84
 252 004a 05A9     		add	r1, sp, #20
 253 004c 1844     		add	r0, r0, r3
 254 004e FFF7FEFF 		bl	stpcpy
 255              	.LVL24:
 256              		.loc 2 294 0
 257 0052 584B     		ldr	r3, .L21+8
 258              		.loc 2 293 0
 259 0054 0546     		mov	r5, r0
 260              		.loc 2 294 0
 261 0056 03CB     		ldmia	r3!, {r0, r1}
 262              		.loc 2 296 0
 263 0058 7322     		movs	r2, #115
 264              		.loc 2 294 0
 265 005a 2860     		str	r0, [r5]	@ unaligned
 266 005c 6960     		str	r1, [r5, #4]	@ unaligned
 267              		.loc 2 296 0
 268 005e 05F10800 		add	r0, r5, #8
 269 0062 5549     		ldr	r1, .L21+12
 270 0064 FFF7FEFF 		bl	memcpy
 271              	.LVL25:
 272              		.loc 2 305 0
 273 0068 FFF7FEFF 		bl	chRegFirstThread
 274              	.LVL26:
 275 006c 534B     		ldr	r3, .L21+16
 276              		.loc 2 309 0
 277 006e D6F800B0 		ldr	fp, [r6]	@ unaligned
 278              		.loc 2 307 0
 279 0072 D3F800A0 		ldr	r10, [r3]	@ unaligned
 280              		.loc 2 309 0
 281 0076 3779     		ldrb	r7, [r6, #4]	@ zero_extendqisi2
 282              		.loc 2 305 0
 283 0078 0546     		mov	r5, r0
ARM GAS  C:\Users\jo\AppData\Local\Temp\cc1bin1j.s 			page 6


 284              	.LVL27:
 285 007a C4F10409 		rsb	r9, r4, #4
 286              	.L18:
 287              		.loc 2 307 0 discriminator 1
 288 007e 2046     		mov	r0, r4
 289              	.LVL28:
 290 0080 FFF7FEFF 		bl	strlen
 291              	.LVL29:
 292              		.loc 2 309 0 discriminator 1
 293 0084 031D     		adds	r3, r0, #4
 294 0086 E218     		adds	r2, r4, r3
 295              		.loc 2 307 0 discriminator 1
 296 0088 44F800A0 		str	r10, [r4, r0]	@ unaligned
 297              		.loc 2 309 0 discriminator 1
 298 008c 44F803B0 		str	fp, [r4, r3]	@ unaligned
 299 0090 0830     		adds	r0, r0, #8
 300 0092 1771     		strb	r7, [r2, #4]
 301              		.loc 2 310 0 discriminator 1
 302 0094 A969     		ldr	r1, [r5, #24]
 303 0096 2044     		add	r0, r0, r4
 304 0098 FFF7FEFF 		bl	stpcpy
 305              	.LVL30:
 306 009c 0346     		mov	r3, r0
 307              		.loc 2 312 0 discriminator 1
 308 009e 3068     		ldr	r0, [r6]	@ unaligned
 309 00a0 1860     		str	r0, [r3]	@ unaligned
 310 00a2 1F71     		strb	r7, [r3, #4]
 311              		.loc 2 313 0 discriminator 1
 312 00a4 08A9     		add	r1, sp, #32
 313 00a6 2846     		mov	r0, r5
 314 00a8 FFF7FEFF 		bl	itoa
 315              	.LVL31:
 316 00ac 2046     		mov	r0, r4
 317 00ae FFF7FEFF 		bl	strlen
 318              	.LVL32:
 319              		.loc 2 314 0 discriminator 1
 320 00b2 08A9     		add	r1, sp, #32
 321 00b4 2044     		add	r0, r0, r4
 322 00b6 FFF7FEFF 		bl	stpcpy
 323              	.LVL33:
 324 00ba 0346     		mov	r3, r0
 325              		.loc 2 316 0 discriminator 1
 326 00bc 3068     		ldr	r0, [r6]	@ unaligned
 327 00be 1F71     		strb	r7, [r3, #4]
 328 00c0 1860     		str	r0, [r3]	@ unaligned
 329              		.loc 2 317 0 discriminator 1
 330 00c2 E868     		ldr	r0, [r5, #12]
 331 00c4 08A9     		add	r1, sp, #32
 332 00c6 FFF7FEFF 		bl	itoa
 333              	.LVL34:
 334 00ca 2046     		mov	r0, r4
 335 00cc FFF7FEFF 		bl	strlen
 336              	.LVL35:
 337              		.loc 2 318 0 discriminator 1
 338 00d0 08A9     		add	r1, sp, #32
 339 00d2 2044     		add	r0, r0, r4
 340 00d4 FFF7FEFF 		bl	stpcpy
ARM GAS  C:\Users\jo\AppData\Local\Temp\cc1bin1j.s 			page 7


 341              	.LVL36:
 342 00d8 0346     		mov	r3, r0
 343              		.loc 2 320 0 discriminator 1
 344 00da 3068     		ldr	r0, [r6]	@ unaligned
 345 00dc 1F71     		strb	r7, [r3, #4]
 346 00de 1860     		str	r0, [r3]	@ unaligned
 347              		.loc 2 321 0 discriminator 1
 348 00e0 A868     		ldr	r0, [r5, #8]
 349 00e2 08A9     		add	r1, sp, #32
 350 00e4 FFF7FEFF 		bl	itoa
 351              	.LVL37:
 352 00e8 2046     		mov	r0, r4
 353 00ea FFF7FEFF 		bl	strlen
 354              	.LVL38:
 355              		.loc 2 322 0 discriminator 1
 356 00ee 08A9     		add	r1, sp, #32
 357 00f0 2044     		add	r0, r0, r4
 358 00f2 FFF7FEFF 		bl	stpcpy
 359              	.LVL39:
 360 00f6 0346     		mov	r3, r0
 361              		.loc 2 324 0 discriminator 1
 362 00f8 3068     		ldr	r0, [r6]	@ unaligned
 363 00fa 1F71     		strb	r7, [r3, #4]
 364 00fc 1860     		str	r0, [r3]	@ unaligned
 365              		.loc 2 325 0 discriminator 1
 366 00fe A87F     		ldrb	r0, [r5, #30]	@ zero_extendqisi2
 367 0100 08A9     		add	r1, sp, #32
 368 0102 0138     		subs	r0, r0, #1
 369 0104 FFF7FEFF 		bl	itoa
 370              	.LVL40:
 371 0108 2046     		mov	r0, r4
 372 010a FFF7FEFF 		bl	strlen
 373              	.LVL41:
 374              		.loc 2 326 0 discriminator 1
 375 010e 08A9     		add	r1, sp, #32
 376 0110 2044     		add	r0, r0, r4
 377 0112 FFF7FEFF 		bl	stpcpy
 378              	.LVL42:
 379 0116 0246     		mov	r2, r0
 380              		.loc 2 330 0 discriminator 1
 381 0118 00EB0903 		add	r3, r0, r9
 382              		.loc 2 328 0 discriminator 1
 383 011c 3068     		ldr	r0, [r6]	@ unaligned
 384 011e 1060     		str	r0, [r2]	@ unaligned
 385              		.loc 2 332 0 discriminator 1
 386 0120 591C     		adds	r1, r3, #1
 387              		.loc 2 330 0 discriminator 1
 388 0122 2022     		movs	r2, #32
 389 0124 E254     		strb	r2, [r4, r3]
 390              		.loc 2 332 0 discriminator 1
 391 0126 0533     		adds	r3, r3, #5
 392 0128 6050     		str	r0, [r4, r1]	@ unaligned
 393              		.loc 2 334 0 discriminator 1
 394 012a 0DEB0201 		add	r1, sp, r2
 395 012e E018     		adds	r0, r4, r3
 396 0130 FFF7FEFF 		bl	stpcpy
 397              	.LVL43:
ARM GAS  C:\Users\jo\AppData\Local\Temp\cc1bin1j.s 			page 8


 398 0134 0246     		mov	r2, r0
 399              		.loc 2 336 0 discriminator 1
 400 0136 B8F80430 		ldrh	r3, [r8, #4]	@ unaligned
 401 013a D8F80000 		ldr	r0, [r8]	@ unaligned
 402 013e 1060     		str	r0, [r2]	@ unaligned
 403 0140 9380     		strh	r3, [r2, #4]	@ unaligned
 404              		.loc 2 338 0 discriminator 1
 405 0142 2846     		mov	r0, r5
 406 0144 FFF7FEFF 		bl	chRegNextThread
 407              	.LVL44:
 408              		.loc 2 340 0 discriminator 1
 409 0148 0546     		mov	r5, r0
 410 014a 0028     		cmp	r0, #0
 411 014c 97D1     		bne	.L18
 412              		.loc 2 341 0
 413 014e 2046     		mov	r0, r4
 414              	.LVL45:
 415 0150 FFF7FEFF 		bl	strlen
 416              	.LVL46:
 417 0154 1A4B     		ldr	r3, .L21+20
 418 0156 0646     		mov	r6, r0
 419 0158 03CB     		ldmia	r3!, {r0, r1}
 420 015a A219     		adds	r2, r4, r6
 421 015c 1B78     		ldrb	r3, [r3]	@ zero_extendqisi2
 422 015e A051     		str	r0, [r4, r6]	@ unaligned
 423 0160 1372     		strb	r3, [r2, #8]
 424 0162 5160     		str	r1, [r2, #4]	@ unaligned
 425              		.loc 2 344 0
 426 0164 1748     		ldr	r0, .L21+24
 427 0166 FFF7FEFF 		bl	strlen
 428              	.LVL47:
 429 016a 039E     		ldr	r6, [sp, #12]
 430 016c 1549     		ldr	r1, .L21+24
 431 016e 0095     		str	r5, [sp]
 432 0170 0246     		mov	r2, r0
 433 0172 0123     		movs	r3, #1
 434 0174 3046     		mov	r0, r6
 435 0176 FFF7FEFF 		bl	netconn_write_partly
 436              	.LVL48:
 437              		.loc 2 345 0
 438 017a 15A8     		add	r0, sp, #84
 439 017c FFF7FEFF 		bl	strlen
 440              	.LVL49:
 441 0180 15A9     		add	r1, sp, #84
 442 0182 0246     		mov	r2, r0
 443 0184 0123     		movs	r3, #1
 444 0186 0095     		str	r5, [sp]
 445 0188 3046     		mov	r0, r6
 446 018a FFF7FEFF 		bl	netconn_write_partly
 447              	.LVL50:
 448              		.loc 2 346 0
 449 018e 2046     		mov	r0, r4
 450 0190 FFF7FEFF 		bl	strlen
 451              	.LVL51:
 452 0194 0095     		str	r5, [sp]
 453 0196 0246     		mov	r2, r0
 454 0198 2146     		mov	r1, r4
ARM GAS  C:\Users\jo\AppData\Local\Temp\cc1bin1j.s 			page 9


 455 019a 3046     		mov	r0, r6
 456 019c 0123     		movs	r3, #1
 457 019e FFF7FEFF 		bl	netconn_write_partly
 458              	.LVL52:
 459              		.loc 2 347 0
 460 01a2 0DF2DC4D 		addw	sp, sp, #1244
 461              		.cfi_def_cfa_offset 36
 462              		@ sp needed
 463 01a6 BDE8F08F 		pop	{r4, r5, r6, r7, r8, r9, r10, fp, pc}
 464              	.LVL53:
 465              	.L22:
 466 01aa 00BF     		.align	2
 467              	.L21:
 468 01ac 00000000 		.word	.LANCHOR0
 469 01b0 88000000 		.word	.LC3
 470 01b4 00000000 		.word	.LC0
 471 01b8 0C000000 		.word	.LC1
 472 01bc 80000000 		.word	.LC2
 473 01c0 98000000 		.word	.LC5
 474 01c4 00000000 		.word	.LANCHOR1
 475 01c8 90000000 		.word	.LC4
 476              		.cfi_endproc
 477              	.LFE258:
 478              		.size	DynWebPage, .-DynWebPage
 479 01cc AFF30080 		.section	.text.DynWebPage_ModbusStat,"ax",%progbits
 480              		.align	2
 481              		.p2align 4,,15
 482              		.global	DynWebPage_ModbusStat
 483              		.thumb
 484              		.thumb_func
 485              		.type	DynWebPage_ModbusStat, %function
 486              	DynWebPage_ModbusStat:
 487              	.LFB259:
 488              		.loc 2 356 0
 489              		.cfi_startproc
 490              		@ args = 0, pretend = 0, frame = 1352
 491              		@ frame_needed = 0, uses_anonymous_args = 0
 492              	.LVL54:
 493 0000 2DE9F04F 		push	{r4, r5, r6, r7, r8, r9, r10, fp, lr}
 494              		.cfi_def_cfa_offset 36
 495              		.cfi_offset 4, -36
 496              		.cfi_offset 5, -32
 497              		.cfi_offset 6, -28
 498              		.cfi_offset 7, -24
 499              		.cfi_offset 8, -20
 500              		.cfi_offset 9, -16
 501              		.cfi_offset 10, -12
 502              		.cfi_offset 11, -8
 503              		.cfi_offset 14, -4
 504 0004 ADF2545D 		subw	sp, sp, #1364
 505              		.cfi_def_cfa_offset 1400
 506              		.loc 2 361 0
 507 0008 0027     		movs	r7, #0
 508              		.loc 2 362 0
 509 000a 54AC     		add	r4, sp, #336
 510              		.loc 2 356 0
 511 000c 0390     		str	r0, [sp, #12]
ARM GAS  C:\Users\jo\AppData\Local\Temp\cc1bin1j.s 			page 10


 512              		.loc 2 362 0
 513 000e 3946     		mov	r1, r7
 514 0010 4FF48062 		mov	r2, #1024
 515 0014 2046     		mov	r0, r4
 516              	.LVL55:
 517              		.loc 2 361 0
 518 0016 0597     		str	r7, [sp, #20]
 519 0018 ADF81870 		strh	r7, [sp, #24]	@ movhi
 520 001c 0497     		str	r7, [sp, #16]
 521              		.loc 2 362 0
 522 001e FFF7FEFF 		bl	memset
 523              	.LVL56:
 524              		.loc 2 365 0
 525 0022 3946     		mov	r1, r7
 526 0024 4FF48072 		mov	r2, #256
 527 0028 14A8     		add	r0, sp, #80
 528 002a FFF7FEFF 		bl	memset
 529              	.LVL57:
 530              		.loc 2 368 0
 531 002e B84A     		ldr	r2, .L31
 532 0030 B84E     		ldr	r6, .L31+4
 533 0032 1368     		ldr	r3, [r2]
 534 0034 B84D     		ldr	r5, .L31+8
 535 0036 0133     		adds	r3, r3, #1
 536              		.loc 2 370 0
 537 0038 1846     		mov	r0, r3
 538 003a 04A9     		add	r1, sp, #16
 539              		.loc 2 368 0
 540 003c 1360     		str	r3, [r2]
 541              		.loc 2 370 0
 542 003e FFF7FEFF 		bl	itoa
 543              	.LVL58:
 544 0042 14A8     		add	r0, sp, #80
 545 0044 FFF7FEFF 		bl	strlen
 546              	.LVL59:
 547              		.loc 2 371 0
 548 0048 14AB     		add	r3, sp, #80
 549 004a 04A9     		add	r1, sp, #16
 550 004c 1844     		add	r0, r0, r3
 551 004e FFF7FEFF 		bl	stpcpy
 552              	.LVL60:
 553              		.loc 2 372 0
 554 0052 B24B     		ldr	r3, .L31+12
 555              		.loc 2 371 0
 556 0054 8646     		mov	lr, r0
 557              		.loc 2 372 0
 558 0056 03CB     		ldmia	r3!, {r0, r1}
 559              		.loc 2 374 0
 560 0058 8822     		movs	r2, #136
 561              		.loc 2 372 0
 562 005a CEF80000 		str	r0, [lr]	@ unaligned
 563 005e CEF80410 		str	r1, [lr, #4]	@ unaligned
 564              		.loc 2 374 0
 565 0062 0EF10800 		add	r0, lr, #8
 566 0066 AE49     		ldr	r1, .L31+16
 567 0068 FFF7FEFF 		bl	memcpy
 568              	.LVL61:
ARM GAS  C:\Users\jo\AppData\Local\Temp\cc1bin1j.s 			page 11


 569              		.loc 2 358 0
 570 006c BB46     		mov	fp, r7
 571 006e C4F10509 		rsb	r9, r4, #5
 572 0072 C1E0     		b	.L26
 573              	.LVL62:
 574              	.L30:
 575              		.loc 2 400 0
 576 0074 AB4A     		ldr	r2, .L31+20
 577 0076 03CA     		ldmia	r2!, {r0, r1}
 578 0078 0433     		adds	r3, r3, #4
 579 007a E718     		adds	r7, r4, r3
 580 007c 1288     		ldrh	r2, [r2]	@ unaligned
 581 007e E050     		str	r0, [r4, r3]	@ unaligned
 582 0080 3A81     		strh	r2, [r7, #8]	@ unaligned
 583 0082 7960     		str	r1, [r7, #4]	@ unaligned
 584              	.L25:
 585              		.loc 2 404 0
 586 0084 2046     		mov	r0, r4
 587 0086 FFF7FEFF 		bl	strlen
 588              	.LVL63:
 589 008a 0346     		mov	r3, r0
 590 008c 2218     		adds	r2, r4, r0
 591 008e 2868     		ldr	r0, [r5]	@ unaligned
 592 0090 2F79     		ldrb	r7, [r5, #4]	@ zero_extendqisi2
 593 0092 E050     		str	r0, [r4, r3]	@ unaligned
 594              		.loc 2 406 0
 595 0094 0533     		adds	r3, r3, #5
 596              		.loc 2 404 0
 597 0096 1771     		strb	r7, [r2, #4]
 598              		.loc 2 406 0
 599 0098 3068     		ldr	r0, [r6]	@ unaligned
 600 009a 96F804A0 		ldrb	r10, [r6, #4]	@ zero_extendqisi2
 601 009e E050     		str	r0, [r4, r3]	@ unaligned
 602 00a0 E218     		adds	r2, r4, r3
 603              		.loc 2 407 0
 604 00a2 07A9     		add	r1, sp, #28
 605              		.loc 2 406 0
 606 00a4 82F804A0 		strb	r10, [r2, #4]
 607              		.loc 2 407 0
 608 00a8 B8F80A00 		ldrh	r0, [r8, #10]
 609 00ac FFF7FEFF 		bl	itoa
 610              	.LVL64:
 611 00b0 2046     		mov	r0, r4
 612 00b2 FFF7FEFF 		bl	strlen
 613              	.LVL65:
 614              		.loc 2 408 0
 615 00b6 07A9     		add	r1, sp, #28
 616 00b8 2044     		add	r0, r0, r4
 617 00ba FFF7FEFF 		bl	stpcpy
 618              	.LVL66:
 619 00be 0346     		mov	r3, r0
 620              		.loc 2 411 0
 621 00c0 03EB0902 		add	r2, r3, r9
 622              		.loc 2 409 0
 623 00c4 2868     		ldr	r0, [r5]	@ unaligned
 624 00c6 1860     		str	r0, [r3]	@ unaligned
 625 00c8 1F71     		strb	r7, [r3, #4]
ARM GAS  C:\Users\jo\AppData\Local\Temp\cc1bin1j.s 			page 12


 626              		.loc 2 411 0
 627 00ca 3068     		ldr	r0, [r6]	@ unaligned
 628 00cc A050     		str	r0, [r4, r2]	@ unaligned
 629 00ce A318     		adds	r3, r4, r2
 630              		.loc 2 412 0
 631 00d0 07A9     		add	r1, sp, #28
 632              		.loc 2 411 0
 633 00d2 83F804A0 		strb	r10, [r3, #4]
 634              		.loc 2 412 0
 635 00d6 B8F80C00 		ldrh	r0, [r8, #12]
 636 00da FFF7FEFF 		bl	itoa
 637              	.LVL67:
 638 00de 2046     		mov	r0, r4
 639 00e0 FFF7FEFF 		bl	strlen
 640              	.LVL68:
 641              		.loc 2 413 0
 642 00e4 07A9     		add	r1, sp, #28
 643 00e6 2044     		add	r0, r0, r4
 644 00e8 FFF7FEFF 		bl	stpcpy
 645              	.LVL69:
 646 00ec 0346     		mov	r3, r0
 647              		.loc 2 416 0
 648 00ee 03EB0902 		add	r2, r3, r9
 649              		.loc 2 414 0
 650 00f2 2868     		ldr	r0, [r5]	@ unaligned
 651 00f4 1860     		str	r0, [r3]	@ unaligned
 652 00f6 1F71     		strb	r7, [r3, #4]
 653              		.loc 2 416 0
 654 00f8 3068     		ldr	r0, [r6]	@ unaligned
 655 00fa A050     		str	r0, [r4, r2]	@ unaligned
 656 00fc A318     		adds	r3, r4, r2
 657              		.loc 2 417 0
 658 00fe 07A9     		add	r1, sp, #28
 659              		.loc 2 416 0
 660 0100 83F804A0 		strb	r10, [r3, #4]
 661              		.loc 2 417 0
 662 0104 98F80E00 		ldrb	r0, [r8, #14]	@ zero_extendqisi2
 663 0108 FFF7FEFF 		bl	itoa
 664              	.LVL70:
 665 010c 2046     		mov	r0, r4
 666 010e FFF7FEFF 		bl	strlen
 667              	.LVL71:
 668              		.loc 2 418 0
 669 0112 07A9     		add	r1, sp, #28
 670 0114 2044     		add	r0, r0, r4
 671 0116 FFF7FEFF 		bl	stpcpy
 672              	.LVL72:
 673 011a 0346     		mov	r3, r0
 674              		.loc 2 421 0
 675 011c 03EB0902 		add	r2, r3, r9
 676              		.loc 2 419 0
 677 0120 2868     		ldr	r0, [r5]	@ unaligned
 678 0122 1860     		str	r0, [r3]	@ unaligned
 679 0124 1F71     		strb	r7, [r3, #4]
 680              		.loc 2 421 0
 681 0126 3068     		ldr	r0, [r6]	@ unaligned
 682 0128 A050     		str	r0, [r4, r2]	@ unaligned
ARM GAS  C:\Users\jo\AppData\Local\Temp\cc1bin1j.s 			page 13


 683 012a A318     		adds	r3, r4, r2
 684              		.loc 2 422 0
 685 012c 07A9     		add	r1, sp, #28
 686              		.loc 2 421 0
 687 012e 83F804A0 		strb	r10, [r3, #4]
 688              		.loc 2 422 0
 689 0132 B8F81000 		ldrh	r0, [r8, #16]
 690 0136 FFF7FEFF 		bl	itoa
 691              	.LVL73:
 692 013a 2046     		mov	r0, r4
 693 013c FFF7FEFF 		bl	strlen
 694              	.LVL74:
 695              		.loc 2 423 0
 696 0140 07A9     		add	r1, sp, #28
 697 0142 2044     		add	r0, r0, r4
 698 0144 FFF7FEFF 		bl	stpcpy
 699              	.LVL75:
 700 0148 0346     		mov	r3, r0
 701              		.loc 2 426 0
 702 014a 03EB0902 		add	r2, r3, r9
 703              		.loc 2 424 0
 704 014e 2868     		ldr	r0, [r5]	@ unaligned
 705 0150 1860     		str	r0, [r3]	@ unaligned
 706 0152 1F71     		strb	r7, [r3, #4]
 707              		.loc 2 426 0
 708 0154 3068     		ldr	r0, [r6]	@ unaligned
 709 0156 A050     		str	r0, [r4, r2]	@ unaligned
 710 0158 A318     		adds	r3, r4, r2
 711              		.loc 2 427 0
 712 015a 07A9     		add	r1, sp, #28
 713              		.loc 2 426 0
 714 015c 83F804A0 		strb	r10, [r3, #4]
 715              		.loc 2 427 0
 716 0160 B8F81200 		ldrh	r0, [r8, #18]
 717 0164 FFF7FEFF 		bl	itoa
 718              	.LVL76:
 719 0168 2046     		mov	r0, r4
 720 016a FFF7FEFF 		bl	strlen
 721              	.LVL77:
 722              		.loc 2 428 0
 723 016e 07A9     		add	r1, sp, #28
 724 0170 2044     		add	r0, r0, r4
 725 0172 FFF7FEFF 		bl	stpcpy
 726              	.LVL78:
 727 0176 0346     		mov	r3, r0
 728              		.loc 2 431 0
 729 0178 03EB0902 		add	r2, r3, r9
 730              		.loc 2 429 0
 731 017c 2868     		ldr	r0, [r5]	@ unaligned
 732 017e 1860     		str	r0, [r3]	@ unaligned
 733 0180 1F71     		strb	r7, [r3, #4]
 734              		.loc 2 431 0
 735 0182 3068     		ldr	r0, [r6]	@ unaligned
 736 0184 A050     		str	r0, [r4, r2]	@ unaligned
 737 0186 A318     		adds	r3, r4, r2
 738              		.loc 2 432 0
 739 0188 07A9     		add	r1, sp, #28
ARM GAS  C:\Users\jo\AppData\Local\Temp\cc1bin1j.s 			page 14


 740              		.loc 2 431 0
 741 018a 83F804A0 		strb	r10, [r3, #4]
 742              		.loc 2 432 0
 743 018e 98F81400 		ldrb	r0, [r8, #20]	@ zero_extendqisi2
 744 0192 FFF7FEFF 		bl	itoa
 745              	.LVL79:
 746 0196 2046     		mov	r0, r4
 747 0198 FFF7FEFF 		bl	strlen
 748              	.LVL80:
 749              		.loc 2 433 0
 750 019c 07A9     		add	r1, sp, #28
 751 019e 2044     		add	r0, r0, r4
 752 01a0 FFF7FEFF 		bl	stpcpy
 753              	.LVL81:
 754 01a4 0346     		mov	r3, r0
 755              		.loc 2 436 0
 756 01a6 03EB0902 		add	r2, r3, r9
 757              		.loc 2 434 0
 758 01aa 2868     		ldr	r0, [r5]	@ unaligned
 759 01ac 1860     		str	r0, [r3]	@ unaligned
 760 01ae 1F71     		strb	r7, [r3, #4]
 761              		.loc 2 436 0
 762 01b0 3068     		ldr	r0, [r6]	@ unaligned
 763 01b2 A050     		str	r0, [r4, r2]	@ unaligned
 764 01b4 A318     		adds	r3, r4, r2
 765              		.loc 2 437 0
 766 01b6 07A9     		add	r1, sp, #28
 767              		.loc 2 436 0
 768 01b8 83F804A0 		strb	r10, [r3, #4]
 769              		.loc 2 437 0
 770 01bc 98F81500 		ldrb	r0, [r8, #21]	@ zero_extendqisi2
 771 01c0 FFF7FEFF 		bl	itoa
 772              	.LVL82:
 773 01c4 2046     		mov	r0, r4
 774 01c6 FFF7FEFF 		bl	strlen
 775              	.LVL83:
 776              		.loc 2 438 0
 777 01ca 07A9     		add	r1, sp, #28
 778 01cc 2044     		add	r0, r0, r4
 779 01ce FFF7FEFF 		bl	stpcpy
 780              	.LVL84:
 781              		.loc 2 443 0
 782 01d2 554A     		ldr	r2, .L31+24
 783              		.loc 2 438 0
 784 01d4 0346     		mov	r3, r0
 785              		.loc 2 441 0
 786 01d6 00EB090E 		add	lr, r0, r9
 787              		.loc 2 439 0
 788 01da 2868     		ldr	r0, [r5]	@ unaligned
 789 01dc 1860     		str	r0, [r3]	@ unaligned
 790 01de 1F71     		strb	r7, [r3, #4]
 791              		.loc 2 443 0
 792 01e0 1268     		ldr	r2, [r2]
 793              		.loc 2 441 0
 794 01e2 5248     		ldr	r0, .L31+28
 795 01e4 514B     		ldr	r3, .L31+28
 796 01e6 0068     		ldr	r0, [r0]	@ unaligned
ARM GAS  C:\Users\jo\AppData\Local\Temp\cc1bin1j.s 			page 15


 797 01e8 9B88     		ldrh	r3, [r3, #4]	@ unaligned
 798 01ea 44F80E00 		str	r0, [r4, lr]	@ unaligned
 799 01ee 04EB0E01 		add	r1, r4, lr
 800              		.loc 2 443 0
 801 01f2 9345     		cmp	fp, r2
 802              		.loc 2 441 0
 803 01f4 8B80     		strh	r3, [r1, #4]	@ unaligned
 804              		.loc 2 443 0
 805 01f6 5CDC     		bgt	.L29
 806              	.LVL85:
 807              	.L26:
 808              		.loc 2 383 0
 809 01f8 5A46     		mov	r2, fp
 810 01fa 4D49     		ldr	r1, .L31+32
 811 01fc 4D48     		ldr	r0, .L31+36
 812 01fe FFF7FEFF 		bl	chprintf.constprop.0
 813              	.LVL86:
 814              		.loc 2 384 0
 815 0202 5946     		mov	r1, fp
 816 0204 4848     		ldr	r0, .L31+24
 817 0206 FFF7FEFF 		bl	get
 818              	.LVL87:
 819 020a 8046     		mov	r8, r0
 820              		.loc 2 386 0
 821 020c 2046     		mov	r0, r4
 822 020e FFF7FEFF 		bl	strlen
 823              	.LVL88:
 824 0212 4949     		ldr	r1, .L31+40
 825              		.loc 2 388 0
 826 0214 96F804A0 		ldrb	r10, [r6, #4]	@ zero_extendqisi2
 827              		.loc 2 386 0
 828 0218 0346     		mov	r3, r0
 829              		.loc 2 388 0
 830 021a 021D     		adds	r2, r0, #4
 831              		.loc 2 386 0
 832 021c 0868     		ldr	r0, [r1]	@ unaligned
 833 021e E050     		str	r0, [r4, r3]	@ unaligned
 834              		.loc 2 388 0
 835 0220 A118     		adds	r1, r4, r2
 836 0222 3068     		ldr	r0, [r6]	@ unaligned
 837 0224 A050     		str	r0, [r4, r2]	@ unaligned
 838 0226 03F10800 		add	r0, r3, #8
 839 022a 81F804A0 		strb	r10, [r1, #4]
 840              		.loc 2 389 0
 841 022e D8F80410 		ldr	r1, [r8, #4]
 842 0232 2044     		add	r0, r0, r4
 843 0234 FFF7FEFF 		bl	stpcpy
 844              	.LVL89:
 845 0238 0346     		mov	r3, r0
 846              		.loc 2 392 0
 847 023a 00EB0902 		add	r2, r0, r9
 848              		.loc 2 390 0
 849 023e 2F79     		ldrb	r7, [r5, #4]	@ zero_extendqisi2
 850 0240 2868     		ldr	r0, [r5]	@ unaligned
 851 0242 1860     		str	r0, [r3]	@ unaligned
 852 0244 1F71     		strb	r7, [r3, #4]
 853              		.loc 2 392 0
ARM GAS  C:\Users\jo\AppData\Local\Temp\cc1bin1j.s 			page 16


 854 0246 3068     		ldr	r0, [r6]	@ unaligned
 855 0248 A050     		str	r0, [r4, r2]	@ unaligned
 856 024a A318     		adds	r3, r4, r2
 857              		.loc 2 393 0
 858 024c 07A9     		add	r1, sp, #28
 859              		.loc 2 392 0
 860 024e 83F804A0 		strb	r10, [r3, #4]
 861              		.loc 2 393 0
 862 0252 98F80000 		ldrb	r0, [r8]	@ zero_extendqisi2
 863 0256 FFF7FEFF 		bl	itoa
 864              	.LVL90:
 865 025a 2046     		mov	r0, r4
 866 025c FFF7FEFF 		bl	strlen
 867              	.LVL91:
 868              		.loc 2 394 0
 869 0260 07A9     		add	r1, sp, #28
 870 0262 2044     		add	r0, r0, r4
 871 0264 FFF7FEFF 		bl	stpcpy
 872              	.LVL92:
 873 0268 0246     		mov	r2, r0
 874              		.loc 2 397 0
 875 026a 00EB0903 		add	r3, r0, r9
 876              		.loc 2 395 0
 877 026e 2868     		ldr	r0, [r5]	@ unaligned
 878 0270 1060     		str	r0, [r2]	@ unaligned
 879              		.loc 2 397 0
 880 0272 E118     		adds	r1, r4, r3
 881 0274 3068     		ldr	r0, [r6]	@ unaligned
 882              		.loc 2 395 0
 883 0276 1771     		strb	r7, [r2, #4]
 884              		.loc 2 397 0
 885 0278 E050     		str	r0, [r4, r3]	@ unaligned
 886 027a 81F804A0 		strb	r10, [r1, #4]
 887              		.loc 2 398 0
 888 027e 98F80820 		ldrb	r2, [r8, #8]	@ zero_extendqisi2
 889              		.loc 2 384 0
 890 0282 0BF1010B 		add	fp, fp, #1
 891              	.LVL93:
 892 0286 5FFA8BFB 		uxtb	fp, fp
 893              	.LVL94:
 894              		.loc 2 398 0
 895 028a 002A     		cmp	r2, #0
 896 028c 3FF4F2AE 		beq	.L30
 897              		.loc 2 402 0
 898 0290 2A4F     		ldr	r7, .L31+44
 899 0292 07CF     		ldmia	r7!, {r0, r1, r2}
 900 0294 0433     		adds	r3, r3, #4
 901 0296 04EB030E 		add	lr, r4, r3
 902 029a E050     		str	r0, [r4, r3]	@ unaligned
 903 029c 3888     		ldrh	r0, [r7]	@ unaligned
 904 029e BB78     		ldrb	r3, [r7, #2]	@ zero_extendqisi2
 905 02a0 CEF80410 		str	r1, [lr, #4]	@ unaligned
 906 02a4 CEF80820 		str	r2, [lr, #8]	@ unaligned
 907 02a8 AEF80C00 		strh	r0, [lr, #12]	@ unaligned
 908 02ac 8EF80E30 		strb	r3, [lr, #14]
 909 02b0 E8E6     		b	.L25
 910              	.L29:
ARM GAS  C:\Users\jo\AppData\Local\Temp\cc1bin1j.s 			page 17


 911              		.loc 2 445 0
 912 02b2 234B     		ldr	r3, .L31+48
 913 02b4 03CB     		ldmia	r3!, {r0, r1}
 914 02b6 0EF1050E 		add	lr, lr, #5
 915 02ba 04EB0E02 		add	r2, r4, lr
 916 02be 1B78     		ldrb	r3, [r3]	@ zero_extendqisi2
 917 02c0 44F80E00 		str	r0, [r4, lr]	@ unaligned
 918 02c4 1372     		strb	r3, [r2, #8]
 919 02c6 5160     		str	r1, [r2, #4]	@ unaligned
 920              		.loc 2 450 0
 921 02c8 1E48     		ldr	r0, .L31+52
 922 02ca FFF7FEFF 		bl	strlen
 923              	.LVL95:
 924 02ce 039E     		ldr	r6, [sp, #12]
 925 02d0 1C49     		ldr	r1, .L31+52
 926 02d2 0025     		movs	r5, #0
 927 02d4 0246     		mov	r2, r0
 928 02d6 0123     		movs	r3, #1
 929 02d8 0095     		str	r5, [sp]
 930 02da 3046     		mov	r0, r6
 931 02dc FFF7FEFF 		bl	netconn_write_partly
 932              	.LVL96:
 933              		.loc 2 451 0
 934 02e0 14A8     		add	r0, sp, #80
 935 02e2 FFF7FEFF 		bl	strlen
 936              	.LVL97:
 937 02e6 14A9     		add	r1, sp, #80
 938 02e8 0246     		mov	r2, r0
 939 02ea 0123     		movs	r3, #1
 940 02ec 0095     		str	r5, [sp]
 941 02ee 3046     		mov	r0, r6
 942 02f0 FFF7FEFF 		bl	netconn_write_partly
 943              	.LVL98:
 944              		.loc 2 452 0
 945 02f4 2046     		mov	r0, r4
 946 02f6 FFF7FEFF 		bl	strlen
 947              	.LVL99:
 948 02fa 0095     		str	r5, [sp]
 949 02fc 0246     		mov	r2, r0
 950 02fe 2146     		mov	r1, r4
 951 0300 3046     		mov	r0, r6
 952 0302 0123     		movs	r3, #1
 953 0304 FFF7FEFF 		bl	netconn_write_partly
 954              	.LVL100:
 955              		.loc 2 453 0
 956 0308 0DF2545D 		addw	sp, sp, #1364
 957              		.cfi_def_cfa_offset 36
 958              		@ sp needed
 959 030c BDE8F08F 		pop	{r4, r5, r6, r7, r8, r9, r10, fp, pc}
 960              	.LVL101:
 961              	.L32:
 962              		.align	2
 963              	.L31:
 964 0310 00000000 		.word	.LANCHOR0
 965 0314 88000000 		.word	.LC3
 966 0318 38010000 		.word	.LC8
 967 031c 00000000 		.word	.LC0
ARM GAS  C:\Users\jo\AppData\Local\Temp\cc1bin1j.s 			page 18


 968 0320 A4000000 		.word	.LC6
 969 0324 40010000 		.word	.LC9
 970 0328 00000000 		.word	list_RTC
 971 032c 90000000 		.word	.LC4
 972 0330 2C010000 		.word	.LC7
 973 0334 00000000 		.word	itm_port
 974 0338 80000000 		.word	.LC2
 975 033c 4C010000 		.word	.LC10
 976 0340 98000000 		.word	.LC5
 977 0344 00000000 		.word	.LANCHOR1
 978              		.cfi_endproc
 979              	.LFE259:
 980              		.size	DynWebPage_ModbusStat, .-DynWebPage_ModbusStat
 981 0348 AFF30080 		.section	.text.http_server_serve,"ax",%progbits
 981      AFF30080 
 982              		.align	2
 983              		.p2align 4,,15
 984              		.global	http_server_serve
 985              		.thumb
 986              		.thumb_func
 987              		.type	http_server_serve, %function
 988              	http_server_serve:
 989              	.LFB260:
 990              		.loc 2 463 0
 991              		.cfi_startproc
 992              		@ args = 0, pretend = 0, frame = 64
 993              		@ frame_needed = 0, uses_anonymous_args = 0
 994              	.LVL102:
 995 0000 2DE9F047 		push	{r4, r5, r6, r7, r8, r9, r10, lr}
 996              		.cfi_def_cfa_offset 32
 997              		.cfi_offset 4, -32
 998              		.cfi_offset 5, -28
 999              		.cfi_offset 6, -24
 1000              		.cfi_offset 7, -20
 1001              		.cfi_offset 8, -16
 1002              		.cfi_offset 9, -12
 1003              		.cfi_offset 10, -8
 1004              		.cfi_offset 14, -4
 1005 0004 92B0     		sub	sp, sp, #72
 1006              		.cfi_def_cfa_offset 104
 1007              		.loc 2 476 0
 1008 0006 03A9     		add	r1, sp, #12
 1009              		.loc 2 463 0
 1010 0008 0746     		mov	r7, r0
 1011              		.loc 2 476 0
 1012 000a FFF7FEFF 		bl	netconn_recv
 1013              	.LVL103:
 1014              		.loc 2 478 0
 1015 000e 039B     		ldr	r3, [sp, #12]
 1016 0010 03B1     		cbz	r3, .L35
 1017              		.loc 2 480 0
 1018 0012 40B1     		cbz	r0, .L107
 1019              	.LVL104:
 1020              	.L35:
 1021              		.loc 2 673 0 discriminator 1
 1022 0014 3846     		mov	r0, r7
 1023 0016 FFF7FEFF 		bl	netconn_close
ARM GAS  C:\Users\jo\AppData\Local\Temp\cc1bin1j.s 			page 19


 1024              	.LVL105:
 1025              		.loc 2 677 0 discriminator 1
 1026 001a 0398     		ldr	r0, [sp, #12]
 1027 001c FFF7FEFF 		bl	netbuf_delete
 1028              	.LVL106:
 1029              	.L33:
 1030              		.loc 2 678 0
 1031 0020 12B0     		add	sp, sp, #72
 1032              		.cfi_remember_state
 1033              		.cfi_def_cfa_offset 32
 1034              		@ sp needed
 1035 0022 BDE8F087 		pop	{r4, r5, r6, r7, r8, r9, r10, pc}
 1036              	.LVL107:
 1037              	.L107:
 1038              		.cfi_restore_state
 1039              		.loc 2 482 0
 1040 0026 1846     		mov	r0, r3
 1041              	.LVL108:
 1042 0028 04A9     		add	r1, sp, #16
 1043 002a 0DF10A02 		add	r2, sp, #10
 1044 002e FFF7FEFF 		bl	netbuf_data
 1045              	.LVL109:
 1046              		.loc 2 483 0
 1047 0032 049B     		ldr	r3, [sp, #16]
 1048 0034 B548     		ldr	r0, .L115
 1049 0036 B649     		ldr	r1, .L115+4
 1050 0038 BDF80A20 		ldrh	r2, [sp, #10]
 1051 003c FFF7FEFF 		bl	chprintf.constprop.0
 1052              	.LVL110:
 1053              		.loc 2 487 0
 1054 0040 BDF80A30 		ldrh	r3, [sp, #10]
 1055 0044 049C     		ldr	r4, [sp, #16]
 1056 0046 042B     		cmp	r3, #4
 1057 0048 45D9     		bls	.L38
 1058              		.loc 2 487 0 is_stmt 0 discriminator 1
 1059 004a B249     		ldr	r1, .L115+8
 1060 004c 2046     		mov	r0, r4
 1061 004e 0522     		movs	r2, #5
 1062 0050 FFF7FEFF 		bl	strncmp
 1063              	.LVL111:
 1064 0054 0028     		cmp	r0, #0
 1065 0056 3ED1     		bne	.L38
 1066              		.loc 2 490 0 is_stmt 1
 1067 0058 2046     		mov	r0, r4
 1068 005a AF49     		ldr	r1, .L115+12
 1069 005c 1922     		movs	r2, #25
 1070 005e FFF7FEFF 		bl	strncmp
 1071              	.LVL112:
 1072 0062 0546     		mov	r5, r0
 1073 0064 0028     		cmp	r0, #0
 1074 0066 00F00C81 		beq	.L108
 1075              		.loc 2 497 0
 1076 006a 2046     		mov	r0, r4
 1077 006c AB49     		ldr	r1, .L115+16
 1078 006e 1822     		movs	r2, #24
 1079 0070 FFF7FEFF 		bl	strncmp
 1080              	.LVL113:
ARM GAS  C:\Users\jo\AppData\Local\Temp\cc1bin1j.s 			page 20


 1081 0074 0028     		cmp	r0, #0
 1082 0076 00F0DB80 		beq	.L109
 1083              		.loc 2 501 0
 1084 007a 2046     		mov	r0, r4
 1085 007c A849     		ldr	r1, .L115+20
 1086 007e 1522     		movs	r2, #21
 1087 0080 FFF7FEFF 		bl	strncmp
 1088              	.LVL114:
 1089 0084 0028     		cmp	r0, #0
 1090 0086 00F02781 		beq	.L110
 1091              		.loc 2 505 0
 1092 008a 2046     		mov	r0, r4
 1093 008c A549     		ldr	r1, .L115+24
 1094 008e 1622     		movs	r2, #22
 1095 0090 FFF7FEFF 		bl	strncmp
 1096              	.LVL115:
 1097 0094 0546     		mov	r5, r0
 1098 0096 0028     		cmp	r0, #0
 1099 0098 00F02E81 		beq	.L111
 1100              		.loc 2 512 0
 1101 009c 2046     		mov	r0, r4
 1102 009e A249     		ldr	r1, .L115+28
 1103 00a0 0F22     		movs	r2, #15
 1104 00a2 FFF7FEFF 		bl	strncmp
 1105              	.LVL116:
 1106 00a6 38B1     		cbz	r0, .L43
 1107              		.loc 2 512 0 is_stmt 0 discriminator 1
 1108 00a8 2046     		mov	r0, r4
 1109 00aa A049     		ldr	r1, .L115+32
 1110 00ac 0622     		movs	r2, #6
 1111 00ae FFF7FEFF 		bl	strncmp
 1112              	.LVL117:
 1113 00b2 0028     		cmp	r0, #0
 1114 00b4 40F02281 		bne	.L44
 1115              	.L43:
 1116              		.loc 2 514 0 is_stmt 1
 1117 00b8 9D48     		ldr	r0, .L115+36
 1118              	.L102:
 1119              		.loc 2 522 0
 1120 00ba FFF7FEFF 		bl	fs_open
 1121              	.LVL118:
 1122              		.loc 2 523 0
 1123 00be 0023     		movs	r3, #0
 1124 00c0 90E80600 		ldmia	r0, {r1, r2}
 1125              		.loc 2 522 0
 1126 00c4 0446     		mov	r4, r0
 1127              	.LVL119:
 1128              		.loc 2 523 0
 1129 00c6 0093     		str	r3, [sp]
 1130 00c8 3846     		mov	r0, r7
 1131              	.LVL120:
 1132 00ca FFF7FEFF 		bl	netconn_write_partly
 1133              	.LVL121:
 1134              		.loc 2 524 0
 1135 00ce 2046     		mov	r0, r4
 1136 00d0 FFF7FEFF 		bl	fs_close
 1137              	.LVL122:
ARM GAS  C:\Users\jo\AppData\Local\Temp\cc1bin1j.s 			page 21


 1138 00d4 9EE7     		b	.L35
 1139              	.LVL123:
 1140              	.L38:
 1141              		.loc 2 529 0
 1142 00d6 9749     		ldr	r1, .L115+40
 1143 00d8 DFF86C82 		ldr	r8, .L115+60
 1144 00dc 2046     		mov	r0, r4
 1145 00de 1022     		movs	r2, #16
 1146 00e0 FFF7FEFF 		bl	strncmp
 1147              	.LVL124:
 1148 00e4 18B1     		cbz	r0, .L45
 1149              		.loc 2 529 0 is_stmt 0 discriminator 1
 1150 00e6 D8F80030 		ldr	r3, [r8]
 1151 00ea 002B     		cmp	r3, #0
 1152 00ec 92D0     		beq	.L35
 1153              	.L45:
 1154              		.loc 2 531 0 is_stmt 1
 1155 00ee 8748     		ldr	r0, .L115
 1156 00f0 9149     		ldr	r1, .L115+44
 1157 00f2 924A     		ldr	r2, .L115+48
 1158 00f4 FFF7FEFF 		bl	chprintf.constprop.0
 1159              	.LVL125:
 1160              		.loc 2 535 0
 1161 00f8 D8F80040 		ldr	r4, [r8]
 1162 00fc BCB9     		cbnz	r4, .L46
 1163              		.loc 2 537 0
 1164 00fe DFF84C92 		ldr	r9, .L115+64
 1165              		.loc 2 538 0
 1166 0102 8F4B     		ldr	r3, .L115+52
 1167              		.loc 2 544 0
 1168 0104 BDF80A50 		ldrh	r5, [sp, #10]
 1169              		.loc 2 537 0
 1170 0108 C9F80040 		str	r4, [r9]
 1171              		.loc 2 538 0
 1172 010c 1C60     		str	r4, [r3]
 1173              		.loc 2 544 0
 1174 010e 002D     		cmp	r5, #0
 1175 0110 4ED0     		beq	.L47
 1176 0112 049E     		ldr	r6, [sp, #16]
 1177 0114 02E0     		b	.L50
 1178              	.LVL126:
 1179              	.L48:
 1180              		.loc 2 544 0 is_stmt 0 discriminator 2
 1181 0116 0134     		adds	r4, r4, #1
 1182              	.LVL127:
 1183 0118 AC42     		cmp	r4, r5
 1184 011a 49D0     		beq	.L47
 1185              	.LVL128:
 1186              	.L50:
 1187              		.loc 2 546 0 is_stmt 1
 1188 011c 3019     		adds	r0, r6, r4
 1189 011e 8949     		ldr	r1, .L115+56
 1190 0120 0D22     		movs	r2, #13
 1191 0122 FFF7FEFF 		bl	strncmp
 1192              	.LVL129:
 1193 0126 0028     		cmp	r0, #0
 1194 0128 F5D1     		bne	.L48
ARM GAS  C:\Users\jo\AppData\Local\Temp\cc1bin1j.s 			page 22


 1195              		.loc 2 548 0
 1196 012a 1034     		adds	r4, r4, #16
 1197              	.LVL130:
 1198 012c 02E0     		b	.L49
 1199              	.LVL131:
 1200              	.L46:
 1201 012e BDF80A50 		ldrh	r5, [sp, #10]
 1202              		.loc 2 532 0
 1203 0132 0024     		movs	r4, #0
 1204              	.LVL132:
 1205              	.L49:
 1206              		.loc 2 567 0
 1207 0134 D8F80030 		ldr	r3, [r8]
 1208 0138 834A     		ldr	r2, .L115+60
 1209 013a 012B     		cmp	r3, #1
 1210 013c 7CD0     		beq	.L112
 1211              	.L51:
 1212              		.loc 2 567 0 is_stmt 0 discriminator 3
 1213 013e D8F80030 		ldr	r3, [r8]
 1214 0142 814A     		ldr	r2, .L115+60
 1215 0144 1BB9     		cbnz	r3, .L53
 1216              		.loc 2 567 0 discriminator 4
 1217 0146 814B     		ldr	r3, .L115+64
 1218 0148 1B68     		ldr	r3, [r3]
 1219 014a 002B     		cmp	r3, #0
 1220 014c 39D0     		beq	.L54
 1221              	.L53:
 1222              		.loc 2 631 0 is_stmt 1
 1223 014e 7C4A     		ldr	r2, .L115+52
 1224 0150 1368     		ldr	r3, [r2]
 1225 0152 2B44     		add	r3, r3, r5
 1226 0154 1360     		str	r3, [r2]
 1227              	.L69:
 1228              	.LVL133:
 1229              		.loc 2 638 0
 1230 0156 DFF818A2 		ldr	r10, .L115+100
 1231              		.loc 2 641 0
 1232 015a 7D49     		ldr	r1, .L115+68
 1233              		.loc 2 638 0
 1234 015c DAF80020 		ldr	r2, [r10]
 1235              		.loc 2 635 0
 1236 0160 2C1B     		subs	r4, r5, r4
 1237              	.LVL134:
 1238 0162 A4B2     		uxth	r4, r4
 1239              		.loc 2 638 0
 1240 0164 2244     		add	r2, r2, r4
 1241 0166 CAF80020 		str	r2, [r10]
 1242              		.loc 2 641 0
 1243 016a 0A68     		ldr	r2, [r1]
 1244              		.loc 2 635 0
 1245 016c ADF80A40 		strh	r4, [sp, #10]	@ movhi
 1246              		.loc 2 641 0
 1247 0170 9A42     		cmp	r2, r3
 1248 0172 17D1     		bne	.L70
 1249 0174 049D     		ldr	r5, [sp, #16]
 1250 0176 0426     		movs	r6, #4
 1251 0178 00E0     		b	.L71
ARM GAS  C:\Users\jo\AppData\Local\Temp\cc1bin1j.s 			page 23


 1252              	.LVL135:
 1253              	.L72:
 1254              		.loc 2 648 0
 1255 017a 0136     		adds	r6, r6, #1
 1256              	.LVL136:
 1257              	.L71:
 1258 017c C6EB0409 		rsb	r9, r6, r4
 1259              		.loc 2 646 0
 1260 0180 05EB0900 		add	r0, r5, r9
 1261 0184 7349     		ldr	r1, .L115+72
 1262 0186 0422     		movs	r2, #4
 1263 0188 FFF7FEFF 		bl	strncmp
 1264              	.LVL137:
 1265 018c 0028     		cmp	r0, #0
 1266 018e F4D1     		bne	.L72
 1267              		.loc 2 652 0
 1268 0190 DAF80030 		ldr	r3, [r10]
 1269              		.loc 2 651 0
 1270 0194 ADF80A90 		strh	r9, [sp, #10]	@ movhi
 1271              		.loc 2 652 0
 1272 0198 9E1B     		subs	r6, r3, r6
 1273              	.LVL138:
 1274 019a CAF80060 		str	r6, [r10]
 1275              		.loc 2 654 0
 1276 019e C8F80000 		str	r0, [r8]
 1277 01a2 37E7     		b	.L35
 1278              	.L70:
 1279              		.loc 2 666 0
 1280 01a4 6449     		ldr	r1, .L115+44
 1281 01a6 6C4A     		ldr	r2, .L115+76
 1282 01a8 5848     		ldr	r0, .L115
 1283 01aa FFF7FEFF 		bl	chprintf.constprop.0
 1284              	.LVL139:
 1285 01ae 31E7     		b	.L35
 1286              	.LVL140:
 1287              	.L47:
 1288              		.loc 2 555 0
 1289 01b0 D8F80030 		ldr	r3, [r8]
 1290              		.loc 2 556 0
 1291 01b4 0122     		movs	r2, #1
 1292              		.loc 2 555 0
 1293 01b6 1344     		add	r3, r3, r2
 1294 01b8 C8F80030 		str	r3, [r8]
 1295              		.loc 2 556 0
 1296 01bc C9F80020 		str	r2, [r9]
 1297              		.loc 2 558 0
 1298 01c0 2EE7     		b	.L33
 1299              	.LVL141:
 1300              	.L54:
 1301              		.loc 2 569 0
 1302 01c2 1368     		ldr	r3, [r2]
 1303 01c4 002B     		cmp	r3, #0
 1304 01c6 40F08580 		bne	.L113
 1305              		.loc 2 571 0
 1306 01ca 1368     		ldr	r3, [r2]
 1307 01cc 0133     		adds	r3, r3, #1
 1308 01ce 1360     		str	r3, [r2]
ARM GAS  C:\Users\jo\AppData\Local\Temp\cc1bin1j.s 			page 24


 1309              	.L55:
 1310              	.LVL142:
 1311              		.loc 2 590 0
 1312 01d0 002D     		cmp	r5, #0
 1313 01d2 6DD0     		beq	.L65
 1314 01d4 DDF81090 		ldr	r9, [sp, #16]
 1315 01d8 0026     		movs	r6, #0
 1316 01da 02E0     		b	.L64
 1317              	.LVL143:
 1318              	.L61:
 1319              		.loc 2 590 0 is_stmt 0 discriminator 2
 1320 01dc 0136     		adds	r6, r6, #1
 1321              	.LVL144:
 1322 01de AE42     		cmp	r6, r5
 1323 01e0 66D0     		beq	.L65
 1324              	.LVL145:
 1325              	.L64:
 1326 01e2 09EB060A 		add	r10, r9, r6
 1327              		.loc 2 592 0 is_stmt 1
 1328 01e6 5046     		mov	r0, r10
 1329 01e8 5C49     		ldr	r1, .L115+80
 1330 01ea 0922     		movs	r2, #9
 1331 01ec FFF7FEFF 		bl	strncmp
 1332              	.LVL146:
 1333 01f0 0028     		cmp	r0, #0
 1334 01f2 F3D1     		bne	.L61
 1335              	.LVL147:
 1336              		.loc 2 603 0
 1337 01f4 9AF80A20 		ldrb	r2, [r10, #10]	@ zero_extendqisi2
 1338 01f8 222A     		cmp	r2, #34
 1339 01fa 51D0     		beq	.L114
 1340 01fc 0A36     		adds	r6, r6, #10
 1341              	.LVL148:
 1342 01fe 4E44     		add	r6, r6, r9
 1343              	.LVL149:
 1344 0200 0346     		mov	r3, r0
 1345 0202 05A9     		add	r1, sp, #20
 1346              	.LVL150:
 1347              	.L67:
 1348              		.loc 2 605 0
 1349 0204 41F8042B 		str	r2, [r1], #4
 1350              	.LVL151:
 1351              		.loc 2 603 0
 1352 0208 16F8012F 		ldrb	r2, [r6, #1]!	@ zero_extendqisi2
 1353 020c 222A     		cmp	r2, #34
 1354              		.loc 2 606 0
 1355 020e 03F10103 		add	r3, r3, #1
 1356              	.LVL152:
 1357              		.loc 2 603 0
 1358 0212 65D0     		beq	.L66
 1359              		.loc 2 603 0 is_stmt 0 discriminator 1
 1360 0214 0D2B     		cmp	r3, #13
 1361 0216 F5D1     		bne	.L67
 1362              		.loc 2 608 0 is_stmt 1
 1363 0218 0025     		movs	r5, #0
 1364              		.loc 2 610 0
 1365 021a 05AA     		add	r2, sp, #20
ARM GAS  C:\Users\jo\AppData\Local\Temp\cc1bin1j.s 			page 25


 1366 021c 3B48     		ldr	r0, .L115
 1367 021e 5049     		ldr	r1, .L115+84
 1368              		.loc 2 608 0
 1369 0220 1295     		str	r5, [sp, #72]
 1370              		.loc 2 610 0
 1371 0222 FFF7FEFF 		bl	chprintf.constprop.0
 1372              	.LVL153:
 1373              	.L80:
 1374 0226 464B     		ldr	r3, .L115+52
 1375 0228 BDF80A50 		ldrh	r5, [sp, #10]
 1376 022c 1B68     		ldr	r3, [r3]
 1377 022e 92E7     		b	.L69
 1378              	.LVL154:
 1379              	.L109:
 1380              		.loc 2 499 0
 1381 0230 3846     		mov	r0, r7
 1382 0232 FFF7FEFF 		bl	DynWebPage
 1383              	.LVL155:
 1384 0236 EDE6     		b	.L35
 1385              	.LVL156:
 1386              	.L112:
 1387              		.loc 2 567 0 discriminator 1
 1388 0238 444B     		ldr	r3, .L115+64
 1389 023a 1B68     		ldr	r3, [r3]
 1390 023c 012B     		cmp	r3, #1
 1391 023e 7FF47EAF 		bne	.L51
 1392              		.loc 2 569 0
 1393 0242 1368     		ldr	r3, [r2]
 1394              		.loc 2 573 0
 1395 0244 1368     		ldr	r3, [r2]
 1396 0246 012B     		cmp	r3, #1
 1397 0248 C2D1     		bne	.L55
 1398              	.LVL157:
 1399              		.loc 2 576 0
 1400 024a 85B1     		cbz	r5, .L57
 1401 024c DDF81090 		ldr	r9, [sp, #16]
 1402 0250 0026     		movs	r6, #0
 1403 0252 02E0     		b	.L58
 1404              	.LVL158:
 1405              	.L56:
 1406              		.loc 2 576 0 is_stmt 0 discriminator 2
 1407 0254 0136     		adds	r6, r6, #1
 1408              	.LVL159:
 1409 0256 AE42     		cmp	r6, r5
 1410 0258 09D0     		beq	.L57
 1411              	.LVL160:
 1412              	.L58:
 1413              		.loc 2 578 0 is_stmt 1
 1414 025a 09EB0600 		add	r0, r9, r6
 1415 025e 3949     		ldr	r1, .L115+56
 1416 0260 0D22     		movs	r2, #13
 1417 0262 FFF7FEFF 		bl	strncmp
 1418              	.LVL161:
 1419 0266 0028     		cmp	r0, #0
 1420 0268 F4D1     		bne	.L56
 1421              		.loc 2 580 0
 1422 026a 06F11004 		add	r4, r6, #16
ARM GAS  C:\Users\jo\AppData\Local\Temp\cc1bin1j.s 			page 26


 1423              	.LVL162:
 1424              	.L57:
 1425              		.loc 2 584 0
 1426 026e 3449     		ldr	r1, .L115+52
 1427              		.loc 2 585 0
 1428 0270 D8F80030 		ldr	r3, [r8]
 1429              		.loc 2 584 0
 1430 0274 0A68     		ldr	r2, [r1]
 1431              		.loc 2 585 0
 1432 0276 0133     		adds	r3, r3, #1
 1433              		.loc 2 584 0
 1434 0278 2A44     		add	r2, r2, r5
 1435 027a 0A60     		str	r2, [r1]
 1436              		.loc 2 585 0
 1437 027c C8F80030 		str	r3, [r8]
 1438 0280 A6E7     		b	.L55
 1439              	.LVL163:
 1440              	.L108:
 1441              		.loc 2 492 0
 1442 0282 3848     		ldr	r0, .L115+88
 1443              	.L101:
 1444              		.loc 2 507 0
 1445 0284 FFF7FEFF 		bl	fs_open
 1446              	.LVL164:
 1447              		.loc 2 508 0
 1448 0288 2B46     		mov	r3, r5
 1449 028a 90E80600 		ldmia	r0, {r1, r2}
 1450              		.loc 2 507 0
 1451 028e 0446     		mov	r4, r0
 1452              	.LVL165:
 1453              		.loc 2 508 0
 1454 0290 0095     		str	r5, [sp]
 1455 0292 3846     		mov	r0, r7
 1456              	.LVL166:
 1457 0294 FFF7FEFF 		bl	netconn_write_partly
 1458              	.LVL167:
 1459              		.loc 2 509 0
 1460 0298 2046     		mov	r0, r4
 1461 029a FFF7FEFF 		bl	fs_close
 1462              	.LVL168:
 1463 029e B9E6     		b	.L35
 1464              	.LVL169:
 1465              	.L114:
 1466              		.loc 2 608 0
 1467 02a0 12AA     		add	r2, sp, #72
 1468              		.loc 2 610 0
 1469 02a2 0346     		mov	r3, r0
 1470              		.loc 2 608 0
 1471 02a4 42F8340D 		str	r0, [r2, #-52]!
 1472              		.loc 2 610 0
 1473 02a8 2D49     		ldr	r1, .L115+84
 1474 02aa 1848     		ldr	r0, .L115
 1475 02ac FFF7FEFF 		bl	chprintf.constprop.0
 1476              	.LVL170:
 1477              	.L65:
 1478              		.loc 2 616 0
 1479 02b0 2D48     		ldr	r0, .L115+92
ARM GAS  C:\Users\jo\AppData\Local\Temp\cc1bin1j.s 			page 27


 1480 02b2 FFF7FEFF 		bl	fs_open
 1481              	.LVL171:
 1482              		.loc 2 617 0
 1483 02b6 0024     		movs	r4, #0
 1484              	.LVL172:
 1485 02b8 90E80600 		ldmia	r0, {r1, r2}
 1486              		.loc 2 616 0
 1487 02bc 0546     		mov	r5, r0
 1488              	.LVL173:
 1489              		.loc 2 617 0
 1490 02be 2346     		mov	r3, r4
 1491 02c0 0094     		str	r4, [sp]
 1492 02c2 3846     		mov	r0, r7
 1493              	.LVL174:
 1494 02c4 FFF7FEFF 		bl	netconn_write_partly
 1495              	.LVL175:
 1496              		.loc 2 618 0
 1497 02c8 2846     		mov	r0, r5
 1498 02ca FFF7FEFF 		bl	fs_close
 1499              	.LVL176:
 1500              		.loc 2 623 0
 1501 02ce C8F80040 		str	r4, [r8]
 1502              		.loc 2 625 0
 1503 02d2 A5E6     		b	.L33
 1504              	.LVL177:
 1505              	.L113:
 1506              		.loc 2 573 0
 1507 02d4 1368     		ldr	r3, [r2]
 1508 02d6 7BE7     		b	.L55
 1509              	.LVL178:
 1510              	.L110:
 1511              		.loc 2 503 0
 1512 02d8 3846     		mov	r0, r7
 1513 02da FFF7FEFF 		bl	DynWebPage_ModbusStat
 1514              	.LVL179:
 1515 02de 99E6     		b	.L35
 1516              	.LVL180:
 1517              	.L66:
 1518              		.loc 2 608 0
 1519 02e0 12AA     		add	r2, sp, #72
 1520 02e2 02EB8305 		add	r5, r2, r3, lsl #2
 1521 02e6 0026     		movs	r6, #0
 1522              		.loc 2 610 0
 1523 02e8 05AA     		add	r2, sp, #20
 1524 02ea 1D49     		ldr	r1, .L115+84
 1525 02ec 0748     		ldr	r0, .L115
 1526              		.loc 2 608 0
 1527 02ee 45F8346C 		str	r6, [r5, #-52]
 1528              		.loc 2 610 0
 1529 02f2 FFF7FEFF 		bl	chprintf.constprop.0
 1530              	.LVL181:
 1531 02f6 96E7     		b	.L80
 1532              	.LVL182:
 1533              	.L111:
 1534              		.loc 2 507 0
 1535 02f8 1B48     		ldr	r0, .L115+92
 1536 02fa C3E7     		b	.L101
ARM GAS  C:\Users\jo\AppData\Local\Temp\cc1bin1j.s 			page 28


 1537              	.L44:
 1538              		.loc 2 521 0
 1539 02fc 0348     		ldr	r0, .L115
 1540 02fe 0E49     		ldr	r1, .L115+44
 1541 0300 1A4A     		ldr	r2, .L115+96
 1542 0302 FFF7FEFF 		bl	chprintf.constprop.0
 1543              	.LVL183:
 1544              		.loc 2 522 0
 1545 0306 1948     		ldr	r0, .L115+96
 1546 0308 D7E6     		b	.L102
 1547              	.L116:
 1548 030a 00BF     		.align	2
 1549              	.L115:
 1550 030c 00000000 		.word	itm_port
 1551 0310 5C010000 		.word	.LC11
 1552 0314 74010000 		.word	.LC12
 1553 0318 7C010000 		.word	.LC13
 1554 031c B4010000 		.word	.LC15
 1555 0320 D0010000 		.word	.LC16
 1556 0324 E8010000 		.word	.LC17
 1557 0328 14020000 		.word	.LC19
 1558 032c 30020000 		.word	.LC20
 1559 0330 38020000 		.word	.LC21
 1560 0334 60020000 		.word	.LC24
 1561 0338 50020000 		.word	.LC22
 1562 033c 74020000 		.word	.LC25
 1563 0340 00000000 		.word	.LANCHOR4
 1564 0344 00000000 		.word	.LANCHOR5
 1565 0348 00000000 		.word	.LANCHOR2
 1566 034c 00000000 		.word	.LANCHOR3
 1567 0350 00000000 		.word	.LANCHOR7
 1568 0354 00000000 		.word	.LANCHOR8
 1569 0358 B8020000 		.word	.LC28
 1570 035c 8C020000 		.word	.LC26
 1571 0360 98020000 		.word	.LC27
 1572 0364 9C010000 		.word	.LC14
 1573 0368 00020000 		.word	.LC18
 1574 036c 54020000 		.word	.LC23
 1575 0370 00000000 		.word	.LANCHOR6
 1576              		.cfi_endproc
 1577              	.LFE260:
 1578              		.size	http_server_serve, .-http_server_serve
 1579 0374 AFF30080 		.section	.text.http_server,"ax",%progbits
 1579      AFF30080 
 1579      AFF30080 
 1580              		.align	2
 1581              		.p2align 4,,15
 1582              		.global	http_server
 1583              		.thumb
 1584              		.thumb_func
 1585              		.type	http_server, %function
 1586              	http_server:
 1587              	.LFB261:
 1588              		.loc 2 690 0
 1589              		.cfi_startproc
 1590              		@ args = 0, pretend = 0, frame = 8
 1591              		@ frame_needed = 0, uses_anonymous_args = 0
ARM GAS  C:\Users\jo\AppData\Local\Temp\cc1bin1j.s 			page 29


 1592              	.LVL184:
 1593 0000 10B5     		push	{r4, lr}
 1594              		.cfi_def_cfa_offset 8
 1595              		.cfi_offset 4, -8
 1596              		.cfi_offset 14, -4
 1597              		.loc 2 696 0
 1598 0002 1A4B     		ldr	r3, .L125
 1599 0004 1A4A     		ldr	r2, .L125+4
 1600 0006 9B69     		ldr	r3, [r3, #24]
 1601              		.loc 2 699 0
 1602 0008 0021     		movs	r1, #0
 1603              		.loc 2 690 0
 1604 000a 84B0     		sub	sp, sp, #16
 1605              		.cfi_def_cfa_offset 24
 1606              		.loc 2 696 0
 1607 000c 9A61     		str	r2, [r3, #24]
 1608              		.loc 2 699 0
 1609 000e 1020     		movs	r0, #16
 1610              	.LVL185:
 1611 0010 0A46     		mov	r2, r1
 1612 0012 FFF7FEFF 		bl	netconn_new_with_proto_and_callback
 1613              	.LVL186:
 1614              		.loc 2 700 0
 1615 0016 C0B1     		cbz	r0, .L123
 1616 0018 0446     		mov	r4, r0
 1617              		.loc 2 703 0
 1618 001a 0021     		movs	r1, #0
 1619 001c 5022     		movs	r2, #80
 1620 001e FFF7FEFF 		bl	netconn_bind
 1621              	.LVL187:
 1622              		.loc 2 706 0
 1623 0022 2046     		mov	r0, r4
 1624 0024 FF21     		movs	r1, #255
 1625 0026 FFF7FEFF 		bl	netconn_listen_with_backlog
 1626              	.LVL188:
 1627              		.loc 2 709 0
 1628 002a 0420     		movs	r0, #4
 1629 002c FFF7FEFF 		bl	chThdSetPriority
 1630              	.LVL189:
 1631              	.L119:
 1632              		.loc 2 712 0
 1633 0030 2046     		mov	r0, r4
 1634 0032 03A9     		add	r1, sp, #12
 1635 0034 FFF7FEFF 		bl	netconn_accept
 1636              	.LVL190:
 1637              		.loc 2 713 0
 1638 0038 0028     		cmp	r0, #0
 1639 003a F9D1     		bne	.L119
 1640              		.loc 2 715 0
 1641 003c 0398     		ldr	r0, [sp, #12]
 1642              	.LVL191:
 1643 003e FFF7FEFF 		bl	http_server_serve
 1644              	.LVL192:
 1645              		.loc 2 716 0
 1646 0042 0398     		ldr	r0, [sp, #12]
 1647 0044 FFF7FEFF 		bl	netconn_delete
 1648              	.LVL193:
ARM GAS  C:\Users\jo\AppData\Local\Temp\cc1bin1j.s 			page 30


 1649 0048 F2E7     		b	.L119
 1650              	.LVL194:
 1651              	.L123:
 1652              		.loc 2 700 0 discriminator 1
 1653 004a 0A4B     		ldr	r3, .L125+8
 1654 004c 0093     		str	r3, [sp]
 1655 004e 0A49     		ldr	r1, .L125+12
 1656 0050 0A4A     		ldr	r2, .L125+16
 1657 0052 0B48     		ldr	r0, .L125+20
 1658              	.LVL195:
 1659 0054 4FF42F73 		mov	r3, #700
 1660 0058 FFF7FEFF 		bl	chprintf.constprop.0
 1661              	.LVL196:
 1662              	.LBB8:
 1663              	.LBB9:
 1664              		.file 3 "../../../os/hal/osal/rt/osal.h"
 1665              		.loc 3 414 0 discriminator 1
 1666 005c 0748     		ldr	r0, .L125+16
 1667 005e FFF7FEFF 		bl	chSysHalt
 1668              	.LVL197:
 1669              	.LBE9:
 1670              	.LBE8:
 1671              		.loc 2 719 0 discriminator 1
 1672 0062 6FF00100 		mvn	r0, #1
 1673 0066 04B0     		add	sp, sp, #16
 1674              		.cfi_def_cfa_offset 8
 1675              		@ sp needed
 1676 0068 10BD     		pop	{r4, pc}
 1677              	.L126:
 1678 006a 00BF     		.align	2
 1679              	.L125:
 1680 006c 00000000 		.word	ch
 1681 0070 D4020000 		.word	.LC29
 1682 0074 24030000 		.word	.LC32
 1683 0078 E0020000 		.word	.LC30
 1684 007c 08030000 		.word	.LC31
 1685 0080 00000000 		.word	itm_port
 1686              		.cfi_endproc
 1687              	.LFE261:
 1688              		.size	http_server, .-http_server
 1689              		.global	wa_http_server
 1690              		.global	nPageHits
 1691 0084 AFF30080 		.section	.bss.nPageHits,"aw",%nobits
 1691      AFF30080 
 1691      AFF30080 
 1692              		.align	2
 1693              		.set	.LANCHOR0,. + 0
 1694              		.type	nPageHits, %object
 1695              		.size	nPageHits, 4
 1696              	nPageHits:
 1697 0000 00000000 		.space	4
 1698              		.section	.bss.TotalData,"aw",%nobits
 1699              		.align	2
 1700              		.set	.LANCHOR6,. + 0
 1701              		.type	TotalData, %object
 1702              		.size	TotalData, 4
 1703              	TotalData:
ARM GAS  C:\Users\jo\AppData\Local\Temp\cc1bin1j.s 			page 31


 1704 0000 00000000 		.space	4
 1705              		.section	.bss.DataFlag,"aw",%nobits
 1706              		.align	2
 1707              		.set	.LANCHOR2,. + 0
 1708              		.type	DataFlag, %object
 1709              		.size	DataFlag, 4
 1710              	DataFlag:
 1711 0000 00000000 		.space	4
 1712              		.section	.rodata.http_crnl_2,"a",%progbits
 1713              		.align	2
 1714              		.set	.LANCHOR8,. + 0
 1715              		.type	http_crnl_2, %object
 1716              		.size	http_crnl_2, 4
 1717              	http_crnl_2:
 1718 0000 0D       		.byte	13
 1719 0001 0A       		.byte	10
 1720 0002 2D       		.byte	45
 1721 0003 2D       		.byte	45
 1722              		.section	.bss.size,"aw",%nobits
 1723              		.align	2
 1724              		.set	.LANCHOR7,. + 0
 1725              		.type	size, %object
 1726              		.size	size, 4
 1727              	size:
 1728 0000 00000000 		.space	4
 1729              		.section	.rodata.PAGE_START,"a",%progbits
 1730              		.align	2
 1731              		.set	.LANCHOR1,. + 0
 1732              		.type	PAGE_START, %object
 1733              		.size	PAGE_START, 1277
 1734              	PAGE_START:
 1735 0000 3C       		.byte	60
 1736 0001 21       		.byte	33
 1737 0002 44       		.byte	68
 1738 0003 4F       		.byte	79
 1739 0004 43       		.byte	67
 1740 0005 54       		.byte	84
 1741 0006 59       		.byte	89
 1742 0007 50       		.byte	80
 1743 0008 45       		.byte	69
 1744 0009 20       		.byte	32
 1745 000a 68       		.byte	104
 1746 000b 74       		.byte	116
 1747 000c 6D       		.byte	109
 1748 000d 6C       		.byte	108
 1749 000e 20       		.byte	32
 1750 000f 50       		.byte	80
 1751 0010 55       		.byte	85
 1752 0011 42       		.byte	66
 1753 0012 4C       		.byte	76
 1754 0013 49       		.byte	73
 1755 0014 43       		.byte	67
 1756 0015 20       		.byte	32
 1757 0016 22       		.byte	34
 1758 0017 2D       		.byte	45
 1759 0018 2F       		.byte	47
 1760 0019 2F       		.byte	47
ARM GAS  C:\Users\jo\AppData\Local\Temp\cc1bin1j.s 			page 32


 1761 001a 57       		.byte	87
 1762 001b 33       		.byte	51
 1763 001c 43       		.byte	67
 1764 001d 2F       		.byte	47
 1765 001e 2F       		.byte	47
 1766 001f 44       		.byte	68
 1767 0020 54       		.byte	84
 1768 0021 44       		.byte	68
 1769 0022 20       		.byte	32
 1770 0023 48       		.byte	72
 1771 0024 54       		.byte	84
 1772 0025 4D       		.byte	77
 1773 0026 4C       		.byte	76
 1774 0027 20       		.byte	32
 1775 0028 34       		.byte	52
 1776 0029 2E       		.byte	46
 1777 002a 30       		.byte	48
 1778 002b 31       		.byte	49
 1779 002c 2F       		.byte	47
 1780 002d 2F       		.byte	47
 1781 002e 45       		.byte	69
 1782 002f 4E       		.byte	78
 1783 0030 22       		.byte	34
 1784 0031 20       		.byte	32
 1785 0032 22       		.byte	34
 1786 0033 68       		.byte	104
 1787 0034 74       		.byte	116
 1788 0035 74       		.byte	116
 1789 0036 70       		.byte	112
 1790 0037 3A       		.byte	58
 1791 0038 2F       		.byte	47
 1792 0039 2F       		.byte	47
 1793 003a 77       		.byte	119
 1794 003b 77       		.byte	119
 1795 003c 77       		.byte	119
 1796 003d 2E       		.byte	46
 1797 003e 77       		.byte	119
 1798 003f 33       		.byte	51
 1799 0040 2E       		.byte	46
 1800 0041 6F       		.byte	111
 1801 0042 72       		.byte	114
 1802 0043 67       		.byte	103
 1803 0044 2F       		.byte	47
 1804 0045 54       		.byte	84
 1805 0046 52       		.byte	82
 1806 0047 2F       		.byte	47
 1807 0048 68       		.byte	104
 1808 0049 74       		.byte	116
 1809 004a 6D       		.byte	109
 1810 004b 6C       		.byte	108
 1811 004c 34       		.byte	52
 1812 004d 2F       		.byte	47
 1813 004e 73       		.byte	115
 1814 004f 74       		.byte	116
 1815 0050 72       		.byte	114
 1816 0051 69       		.byte	105
 1817 0052 63       		.byte	99
ARM GAS  C:\Users\jo\AppData\Local\Temp\cc1bin1j.s 			page 33


 1818 0053 74       		.byte	116
 1819 0054 2E       		.byte	46
 1820 0055 64       		.byte	100
 1821 0056 74       		.byte	116
 1822 0057 64       		.byte	100
 1823 0058 22       		.byte	34
 1824 0059 3E       		.byte	62
 1825 005a 0D       		.byte	13
 1826 005b 0A       		.byte	10
 1827 005c 3C       		.byte	60
 1828 005d 68       		.byte	104
 1829 005e 74       		.byte	116
 1830 005f 6D       		.byte	109
 1831 0060 6C       		.byte	108
 1832 0061 3E       		.byte	62
 1833 0062 0D       		.byte	13
 1834 0063 0A       		.byte	10
 1835 0064 3C       		.byte	60
 1836 0065 68       		.byte	104
 1837 0066 65       		.byte	101
 1838 0067 61       		.byte	97
 1839 0068 64       		.byte	100
 1840 0069 3E       		.byte	62
 1841 006a 0D       		.byte	13
 1842 006b 0A       		.byte	10
 1843 006c 20       		.byte	32
 1844 006d 20       		.byte	32
 1845 006e 3C       		.byte	60
 1846 006f 74       		.byte	116
 1847 0070 69       		.byte	105
 1848 0071 74       		.byte	116
 1849 0072 6C       		.byte	108
 1850 0073 65       		.byte	101
 1851 0074 3E       		.byte	62
 1852 0075 4D       		.byte	77
 1853 0076 6F       		.byte	111
 1854 0077 64       		.byte	100
 1855 0078 42       		.byte	66
 1856 0079 55       		.byte	85
 1857 007a 53       		.byte	83
 1858 007b 54       		.byte	84
 1859 007c 61       		.byte	97
 1860 007d 73       		.byte	115
 1861 007e 6B       		.byte	107
 1862 007f 73       		.byte	115
 1863 0080 56       		.byte	86
 1864 0081 65       		.byte	101
 1865 0082 72       		.byte	114
 1866 0083 76       		.byte	118
 1867 0084 65       		.byte	101
 1868 0085 6E       		.byte	110
 1869 0086 74       		.byte	116
 1870 0087 61       		.byte	97
 1871 0088 3C       		.byte	60
 1872 0089 2F       		.byte	47
 1873 008a 74       		.byte	116
 1874 008b 69       		.byte	105
ARM GAS  C:\Users\jo\AppData\Local\Temp\cc1bin1j.s 			page 34


 1875 008c 74       		.byte	116
 1876 008d 6C       		.byte	108
 1877 008e 65       		.byte	101
 1878 008f 3E       		.byte	62
 1879 0090 0D       		.byte	13
 1880 0091 0A       		.byte	10
 1881 0092 20       		.byte	32
 1882 0093 20       		.byte	32
 1883 0094 3C       		.byte	60
 1884 0095 6D       		.byte	109
 1885 0096 65       		.byte	101
 1886 0097 74       		.byte	116
 1887 0098 61       		.byte	97
 1888 0099 20       		.byte	32
 1889 009a 68       		.byte	104
 1890 009b 74       		.byte	116
 1891 009c 74       		.byte	116
 1892 009d 70       		.byte	112
 1893 009e 2D       		.byte	45
 1894 009f 65       		.byte	101
 1895 00a0 71       		.byte	113
 1896 00a1 75       		.byte	117
 1897 00a2 69       		.byte	105
 1898 00a3 76       		.byte	118
 1899 00a4 3D       		.byte	61
 1900 00a5 22       		.byte	34
 1901 00a6 43       		.byte	67
 1902 00a7 6F       		.byte	111
 1903 00a8 6E       		.byte	110
 1904 00a9 74       		.byte	116
 1905 00aa 65       		.byte	101
 1906 00ab 6E       		.byte	110
 1907 00ac 74       		.byte	116
 1908 00ad 2D       		.byte	45
 1909 00ae 54       		.byte	84
 1910 00af 79       		.byte	121
 1911 00b0 70       		.byte	112
 1912 00b1 65       		.byte	101
 1913 00b2 22       		.byte	34
 1914 00b3 0D       		.byte	13
 1915 00b4 0A       		.byte	10
 1916 00b5 20       		.byte	32
 1917 00b6 63       		.byte	99
 1918 00b7 6F       		.byte	111
 1919 00b8 6E       		.byte	110
 1920 00b9 74       		.byte	116
 1921 00ba 65       		.byte	101
 1922 00bb 6E       		.byte	110
 1923 00bc 74       		.byte	116
 1924 00bd 3D       		.byte	61
 1925 00be 22       		.byte	34
 1926 00bf 74       		.byte	116
 1927 00c0 65       		.byte	101
 1928 00c1 78       		.byte	120
 1929 00c2 74       		.byte	116
 1930 00c3 2F       		.byte	47
 1931 00c4 68       		.byte	104
ARM GAS  C:\Users\jo\AppData\Local\Temp\cc1bin1j.s 			page 35


 1932 00c5 74       		.byte	116
 1933 00c6 6D       		.byte	109
 1934 00c7 6C       		.byte	108
 1935 00c8 3B       		.byte	59
 1936 00c9 20       		.byte	32
 1937 00ca 63       		.byte	99
 1938 00cb 68       		.byte	104
 1939 00cc 61       		.byte	97
 1940 00cd 72       		.byte	114
 1941 00ce 73       		.byte	115
 1942 00cf 65       		.byte	101
 1943 00d0 74       		.byte	116
 1944 00d1 3D       		.byte	61
 1945 00d2 77       		.byte	119
 1946 00d3 69       		.byte	105
 1947 00d4 6E       		.byte	110
 1948 00d5 64       		.byte	100
 1949 00d6 6F       		.byte	111
 1950 00d7 77       		.byte	119
 1951 00d8 73       		.byte	115
 1952 00d9 2D       		.byte	45
 1953 00da 31       		.byte	49
 1954 00db 32       		.byte	50
 1955 00dc 35       		.byte	53
 1956 00dd 32       		.byte	50
 1957 00de 22       		.byte	34
 1958 00df 3E       		.byte	62
 1959 00e0 0D       		.byte	13
 1960 00e1 0A       		.byte	10
 1961 00e2 20       		.byte	32
 1962 00e3 20       		.byte	32
 1963 00e4 3C       		.byte	60
 1964 00e5 6D       		.byte	109
 1965 00e6 65       		.byte	101
 1966 00e7 74       		.byte	116
 1967 00e8 61       		.byte	97
 1968 00e9 20       		.byte	32
 1969 00ea 68       		.byte	104
 1970 00eb 74       		.byte	116
 1971 00ec 74       		.byte	116
 1972 00ed 70       		.byte	112
 1973 00ee 2D       		.byte	45
 1974 00ef 65       		.byte	101
 1975 00f0 71       		.byte	113
 1976 00f1 75       		.byte	117
 1977 00f2 69       		.byte	105
 1978 00f3 76       		.byte	118
 1979 00f4 3D       		.byte	61
 1980 00f5 22       		.byte	34
 1981 00f6 72       		.byte	114
 1982 00f7 65       		.byte	101
 1983 00f8 66       		.byte	102
 1984 00f9 72       		.byte	114
 1985 00fa 65       		.byte	101
 1986 00fb 73       		.byte	115
 1987 00fc 68       		.byte	104
 1988 00fd 22       		.byte	34
ARM GAS  C:\Users\jo\AppData\Local\Temp\cc1bin1j.s 			page 36


 1989 00fe 20       		.byte	32
 1990 00ff 63       		.byte	99
 1991 0100 6F       		.byte	111
 1992 0101 6E       		.byte	110
 1993 0102 74       		.byte	116
 1994 0103 65       		.byte	101
 1995 0104 6E       		.byte	110
 1996 0105 74       		.byte	116
 1997 0106 3D       		.byte	61
 1998 0107 22       		.byte	34
 1999 0108 31       		.byte	49
 2000 0109 22       		.byte	34
 2001 010a 3E       		.byte	62
 2002 010b 0D       		.byte	13
 2003 010c 0A       		.byte	10
 2004 010d 20       		.byte	32
 2005 010e 20       		.byte	32
 2006 010f 3C       		.byte	60
 2007 0110 6D       		.byte	109
 2008 0111 65       		.byte	101
 2009 0112 74       		.byte	116
 2010 0113 61       		.byte	97
 2011 0114 20       		.byte	32
 2012 0115 63       		.byte	99
 2013 0116 6F       		.byte	111
 2014 0117 6E       		.byte	110
 2015 0118 74       		.byte	116
 2016 0119 65       		.byte	101
 2017 011a 6E       		.byte	110
 2018 011b 74       		.byte	116
 2019 011c 3D       		.byte	61
 2020 011d 22       		.byte	34
 2021 011e 4D       		.byte	77
 2022 011f 53       		.byte	83
 2023 0120 48       		.byte	72
 2024 0121 54       		.byte	84
 2025 0122 4D       		.byte	77
 2026 0123 4C       		.byte	76
 2027 0124 20       		.byte	32
 2028 0125 36       		.byte	54
 2029 0126 2E       		.byte	46
 2030 0127 30       		.byte	48
 2031 0128 30       		.byte	48
 2032 0129 2E       		.byte	46
 2033 012a 32       		.byte	50
 2034 012b 38       		.byte	56
 2035 012c 30       		.byte	48
 2036 012d 30       		.byte	48
 2037 012e 2E       		.byte	46
 2038 012f 31       		.byte	49
 2039 0130 35       		.byte	53
 2040 0131 36       		.byte	54
 2041 0132 31       		.byte	49
 2042 0133 22       		.byte	34
 2043 0134 20       		.byte	32
 2044 0135 6E       		.byte	110
 2045 0136 61       		.byte	97
ARM GAS  C:\Users\jo\AppData\Local\Temp\cc1bin1j.s 			page 37


 2046 0137 6D       		.byte	109
 2047 0138 65       		.byte	101
 2048 0139 3D       		.byte	61
 2049 013a 22       		.byte	34
 2050 013b 47       		.byte	71
 2051 013c 45       		.byte	69
 2052 013d 4E       		.byte	78
 2053 013e 45       		.byte	69
 2054 013f 52       		.byte	82
 2055 0140 41       		.byte	65
 2056 0141 54       		.byte	84
 2057 0142 4F       		.byte	79
 2058 0143 52       		.byte	82
 2059 0144 22       		.byte	34
 2060 0145 3E       		.byte	62
 2061 0146 0D       		.byte	13
 2062 0147 0A       		.byte	10
 2063 0148 20       		.byte	32
 2064 0149 20       		.byte	32
 2065 014a 3C       		.byte	60
 2066 014b 73       		.byte	115
 2067 014c 74       		.byte	116
 2068 014d 79       		.byte	121
 2069 014e 6C       		.byte	108
 2070 014f 65       		.byte	101
 2071 0150 20       		.byte	32
 2072 0151 3D       		.byte	61
 2073 0152 22       		.byte	34
 2074 0153 66       		.byte	102
 2075 0154 6F       		.byte	111
 2076 0155 6E       		.byte	110
 2077 0156 74       		.byte	116
 2078 0157 2D       		.byte	45
 2079 0158 77       		.byte	119
 2080 0159 65       		.byte	101
 2081 015a 69       		.byte	105
 2082 015b 67       		.byte	103
 2083 015c 68       		.byte	104
 2084 015d 74       		.byte	116
 2085 015e 3A       		.byte	58
 2086 015f 20       		.byte	32
 2087 0160 6E       		.byte	110
 2088 0161 6F       		.byte	111
 2089 0162 72       		.byte	114
 2090 0163 6D       		.byte	109
 2091 0164 61       		.byte	97
 2092 0165 6C       		.byte	108
 2093 0166 3B       		.byte	59
 2094 0167 20       		.byte	32
 2095 0168 66       		.byte	102
 2096 0169 6F       		.byte	111
 2097 016a 6E       		.byte	110
 2098 016b 74       		.byte	116
 2099 016c 2D       		.byte	45
 2100 016d 66       		.byte	102
 2101 016e 61       		.byte	97
 2102 016f 6D       		.byte	109
ARM GAS  C:\Users\jo\AppData\Local\Temp\cc1bin1j.s 			page 38


 2103 0170 69       		.byte	105
 2104 0171 6C       		.byte	108
 2105 0172 79       		.byte	121
 2106 0173 3A       		.byte	58
 2107 0174 20       		.byte	32
 2108 0175 56       		.byte	86
 2109 0176 65       		.byte	101
 2110 0177 72       		.byte	114
 2111 0178 64       		.byte	100
 2112 0179 61       		.byte	97
 2113 017a 6E       		.byte	110
 2114 017b 61       		.byte	97
 2115 017c 3B       		.byte	59
 2116 017d 22       		.byte	34
 2117 017e 3E       		.byte	62
 2118 017f 3C       		.byte	60
 2119 0180 2F       		.byte	47
 2120 0181 73       		.byte	115
 2121 0182 74       		.byte	116
 2122 0183 79       		.byte	121
 2123 0184 6C       		.byte	108
 2124 0185 65       		.byte	101
 2125 0186 3E       		.byte	62
 2126 0187 0D       		.byte	13
 2127 0188 0A       		.byte	10
 2128 0189 3C       		.byte	60
 2129 018a 2F       		.byte	47
 2130 018b 68       		.byte	104
 2131 018c 65       		.byte	101
 2132 018d 61       		.byte	97
 2133 018e 64       		.byte	100
 2134 018f 3E       		.byte	62
 2135 0190 0D       		.byte	13
 2136 0191 0A       		.byte	10
 2137 0192 3C       		.byte	60
 2138 0193 62       		.byte	98
 2139 0194 6F       		.byte	111
 2140 0195 64       		.byte	100
 2141 0196 79       		.byte	121
 2142 0197 3E       		.byte	62
 2143 0198 0D       		.byte	13
 2144 0199 0A       		.byte	10
 2145 019a 3C       		.byte	60
 2146 019b 68       		.byte	104
 2147 019c 34       		.byte	52
 2148 019d 3E       		.byte	62
 2149 019e 3C       		.byte	60
 2150 019f 73       		.byte	115
 2151 01a0 6D       		.byte	109
 2152 01a1 61       		.byte	97
 2153 01a2 6C       		.byte	108
 2154 01a3 6C       		.byte	108
 2155 01a4 20       		.byte	32
 2156 01a5 73       		.byte	115
 2157 01a6 74       		.byte	116
 2158 01a7 79       		.byte	121
 2159 01a8 6C       		.byte	108
ARM GAS  C:\Users\jo\AppData\Local\Temp\cc1bin1j.s 			page 39


 2160 01a9 65       		.byte	101
 2161 01aa 3D       		.byte	61
 2162 01ab 22       		.byte	34
 2163 01ac 66       		.byte	102
 2164 01ad 6F       		.byte	111
 2165 01ae 6E       		.byte	110
 2166 01af 74       		.byte	116
 2167 01b0 2D       		.byte	45
 2168 01b1 66       		.byte	102
 2169 01b2 61       		.byte	97
 2170 01b3 6D       		.byte	109
 2171 01b4 69       		.byte	105
 2172 01b5 6C       		.byte	108
 2173 01b6 79       		.byte	121
 2174 01b7 3A       		.byte	58
 2175 01b8 20       		.byte	32
 2176 01b9 56       		.byte	86
 2177 01ba 65       		.byte	101
 2178 01bb 72       		.byte	114
 2179 01bc 64       		.byte	100
 2180 01bd 61       		.byte	97
 2181 01be 6E       		.byte	110
 2182 01bf 61       		.byte	97
 2183 01c0 3B       		.byte	59
 2184 01c1 22       		.byte	34
 2185 01c2 3E       		.byte	62
 2186 01c3 3C       		.byte	60
 2187 01c4 73       		.byte	115
 2188 01c5 6D       		.byte	109
 2189 01c6 61       		.byte	97
 2190 01c7 6C       		.byte	108
 2191 01c8 6C       		.byte	108
 2192 01c9 3E       		.byte	62
 2193 01ca 3C       		.byte	60
 2194 01cb 62       		.byte	98
 2195 01cc 69       		.byte	105
 2196 01cd 67       		.byte	103
 2197 01ce 3E       		.byte	62
 2198 01cf 3C       		.byte	60
 2199 01d0 62       		.byte	98
 2200 01d1 69       		.byte	105
 2201 01d2 67       		.byte	103
 2202 01d3 3E       		.byte	62
 2203 01d4 3C       		.byte	60
 2204 01d5 62       		.byte	98
 2205 01d6 69       		.byte	105
 2206 01d7 67       		.byte	103
 2207 01d8 0D       		.byte	13
 2208 01d9 0A       		.byte	10
 2209 01da 20       		.byte	32
 2210 01db 73       		.byte	115
 2211 01dc 74       		.byte	116
 2212 01dd 79       		.byte	121
 2213 01de 6C       		.byte	108
 2214 01df 65       		.byte	101
 2215 01e0 3D       		.byte	61
 2216 01e1 22       		.byte	34
ARM GAS  C:\Users\jo\AppData\Local\Temp\cc1bin1j.s 			page 40


 2217 01e2 66       		.byte	102
 2218 01e3 6F       		.byte	111
 2219 01e4 6E       		.byte	110
 2220 01e5 74       		.byte	116
 2221 01e6 2D       		.byte	45
 2222 01e7 77       		.byte	119
 2223 01e8 65       		.byte	101
 2224 01e9 69       		.byte	105
 2225 01ea 67       		.byte	103
 2226 01eb 68       		.byte	104
 2227 01ec 74       		.byte	116
 2228 01ed 3A       		.byte	58
 2229 01ee 20       		.byte	32
 2230 01ef 62       		.byte	98
 2231 01f0 6F       		.byte	111
 2232 01f1 6C       		.byte	108
 2233 01f2 64       		.byte	100
 2234 01f3 3B       		.byte	59
 2235 01f4 22       		.byte	34
 2236 01f5 3E       		.byte	62
 2237 01f6 3C       		.byte	60
 2238 01f7 62       		.byte	98
 2239 01f8 69       		.byte	105
 2240 01f9 67       		.byte	103
 2241 01fa 3E       		.byte	62
 2242 01fb 3C       		.byte	60
 2243 01fc 73       		.byte	115
 2244 01fd 74       		.byte	116
 2245 01fe 72       		.byte	114
 2246 01ff 6F       		.byte	111
 2247 0200 6E       		.byte	110
 2248 0201 67       		.byte	103
 2249 0202 3E       		.byte	62
 2250 0203 3C       		.byte	60
 2251 0204 65       		.byte	101
 2252 0205 6D       		.byte	109
 2253 0206 3E       		.byte	62
 2254 0207 3C       		.byte	60
 2255 0208 73       		.byte	115
 2256 0209 70       		.byte	112
 2257 020a 61       		.byte	97
 2258 020b 6E       		.byte	110
 2259 020c 0D       		.byte	13
 2260 020d 0A       		.byte	10
 2261 020e 20       		.byte	32
 2262 020f 73       		.byte	115
 2263 0210 74       		.byte	116
 2264 0211 79       		.byte	121
 2265 0212 6C       		.byte	108
 2266 0213 65       		.byte	101
 2267 0214 3D       		.byte	61
 2268 0215 22       		.byte	34
 2269 0216 66       		.byte	102
 2270 0217 6F       		.byte	111
 2271 0218 6E       		.byte	110
 2272 0219 74       		.byte	116
 2273 021a 2D       		.byte	45
ARM GAS  C:\Users\jo\AppData\Local\Temp\cc1bin1j.s 			page 41


 2274 021b 73       		.byte	115
 2275 021c 74       		.byte	116
 2276 021d 79       		.byte	121
 2277 021e 6C       		.byte	108
 2278 021f 65       		.byte	101
 2279 0220 3A       		.byte	58
 2280 0221 20       		.byte	32
 2281 0222 69       		.byte	105
 2282 0223 74       		.byte	116
 2283 0224 61       		.byte	97
 2284 0225 6C       		.byte	108
 2285 0226 69       		.byte	105
 2286 0227 63       		.byte	99
 2287 0228 3B       		.byte	59
 2288 0229 22       		.byte	34
 2289 022a 3E       		.byte	62
 2290 022b 56       		.byte	86
 2291 022c 65       		.byte	101
 2292 022d 72       		.byte	114
 2293 022e 76       		.byte	118
 2294 022f 65       		.byte	101
 2295 0230 6E       		.byte	110
 2296 0231 74       		.byte	116
 2297 0232 61       		.byte	97
 2298 0233 20       		.byte	32
 2299 0234 4D       		.byte	77
 2300 0235 6F       		.byte	111
 2301 0236 64       		.byte	100
 2302 0237 62       		.byte	98
 2303 0238 75       		.byte	117
 2304 0239 73       		.byte	115
 2305 023a 20       		.byte	32
 2306 023b 44       		.byte	68
 2307 023c 65       		.byte	101
 2308 023d 76       		.byte	118
 2309 023e 69       		.byte	105
 2310 023f 63       		.byte	99
 2311 0240 65       		.byte	101
 2312 0241 73       		.byte	115
 2313 0242 20       		.byte	32
 2314 0243 53       		.byte	83
 2315 0244 74       		.byte	116
 2316 0245 61       		.byte	97
 2317 0246 74       		.byte	116
 2318 0247 75       		.byte	117
 2319 0248 73       		.byte	115
 2320 0249 3C       		.byte	60
 2321 024a 2F       		.byte	47
 2322 024b 73       		.byte	115
 2323 024c 70       		.byte	112
 2324 024d 61       		.byte	97
 2325 024e 6E       		.byte	110
 2326 024f 3E       		.byte	62
 2327 0250 3C       		.byte	60
 2328 0251 2F       		.byte	47
 2329 0252 65       		.byte	101
 2330 0253 6D       		.byte	109
ARM GAS  C:\Users\jo\AppData\Local\Temp\cc1bin1j.s 			page 42


 2331 0254 3E       		.byte	62
 2332 0255 3C       		.byte	60
 2333 0256 2F       		.byte	47
 2334 0257 73       		.byte	115
 2335 0258 74       		.byte	116
 2336 0259 72       		.byte	114
 2337 025a 6F       		.byte	111
 2338 025b 6E       		.byte	110
 2339 025c 67       		.byte	103
 2340 025d 3E       		.byte	62
 2341 025e 3C       		.byte	60
 2342 025f 2F       		.byte	47
 2343 0260 62       		.byte	98
 2344 0261 69       		.byte	105
 2345 0262 67       		.byte	103
 2346 0263 3E       		.byte	62
 2347 0264 3C       		.byte	60
 2348 0265 2F       		.byte	47
 2349 0266 62       		.byte	98
 2350 0267 69       		.byte	105
 2351 0268 67       		.byte	103
 2352 0269 3E       		.byte	62
 2353 026a 3C       		.byte	60
 2354 026b 2F       		.byte	47
 2355 026c 62       		.byte	98
 2356 026d 69       		.byte	105
 2357 026e 67       		.byte	103
 2358 026f 3E       		.byte	62
 2359 0270 3C       		.byte	60
 2360 0271 2F       		.byte	47
 2361 0272 62       		.byte	98
 2362 0273 69       		.byte	105
 2363 0274 67       		.byte	103
 2364 0275 3E       		.byte	62
 2365 0276 3C       		.byte	60
 2366 0277 2F       		.byte	47
 2367 0278 73       		.byte	115
 2368 0279 6D       		.byte	109
 2369 027a 61       		.byte	97
 2370 027b 6C       		.byte	108
 2371 027c 6C       		.byte	108
 2372 027d 3E       		.byte	62
 2373 027e 3C       		.byte	60
 2374 027f 2F       		.byte	47
 2375 0280 73       		.byte	115
 2376 0281 6D       		.byte	109
 2377 0282 61       		.byte	97
 2378 0283 6C       		.byte	108
 2379 0284 6C       		.byte	108
 2380 0285 3E       		.byte	62
 2381 0286 3C       		.byte	60
 2382 0287 2F       		.byte	47
 2383 0288 68       		.byte	104
 2384 0289 34       		.byte	52
 2385 028a 3E       		.byte	62
 2386 028b 0D       		.byte	13
 2387 028c 0A       		.byte	10
ARM GAS  C:\Users\jo\AppData\Local\Temp\cc1bin1j.s 			page 43


 2388 028d 3C       		.byte	60
 2389 028e 68       		.byte	104
 2390 028f 72       		.byte	114
 2391 0290 20       		.byte	32
 2392 0291 73       		.byte	115
 2393 0292 74       		.byte	116
 2394 0293 79       		.byte	121
 2395 0294 6C       		.byte	108
 2396 0295 65       		.byte	101
 2397 0296 3D       		.byte	61
 2398 0297 22       		.byte	34
 2399 0298 77       		.byte	119
 2400 0299 69       		.byte	105
 2401 029a 64       		.byte	100
 2402 029b 74       		.byte	116
 2403 029c 68       		.byte	104
 2404 029d 3A       		.byte	58
 2405 029e 20       		.byte	32
 2406 029f 31       		.byte	49
 2407 02a0 30       		.byte	48
 2408 02a1 30       		.byte	48
 2409 02a2 25       		.byte	37
 2410 02a3 3B       		.byte	59
 2411 02a4 20       		.byte	32
 2412 02a5 68       		.byte	104
 2413 02a6 65       		.byte	101
 2414 02a7 69       		.byte	105
 2415 02a8 67       		.byte	103
 2416 02a9 68       		.byte	104
 2417 02aa 74       		.byte	116
 2418 02ab 3A       		.byte	58
 2419 02ac 20       		.byte	32
 2420 02ad 32       		.byte	50
 2421 02ae 70       		.byte	112
 2422 02af 78       		.byte	120
 2423 02b0 3B       		.byte	59
 2424 02b1 22       		.byte	34
 2425 02b2 3E       		.byte	62
 2426 02b3 3C       		.byte	60
 2427 02b4 73       		.byte	115
 2428 02b5 70       		.byte	112
 2429 02b6 61       		.byte	97
 2430 02b7 6E       		.byte	110
 2431 02b8 0D       		.byte	13
 2432 02b9 0A       		.byte	10
 2433 02ba 20       		.byte	32
 2434 02bb 73       		.byte	115
 2435 02bc 74       		.byte	116
 2436 02bd 79       		.byte	121
 2437 02be 6C       		.byte	108
 2438 02bf 65       		.byte	101
 2439 02c0 3D       		.byte	61
 2440 02c1 22       		.byte	34
 2441 02c2 66       		.byte	102
 2442 02c3 6F       		.byte	111
 2443 02c4 6E       		.byte	110
 2444 02c5 74       		.byte	116
ARM GAS  C:\Users\jo\AppData\Local\Temp\cc1bin1j.s 			page 44


 2445 02c6 2D       		.byte	45
 2446 02c7 77       		.byte	119
 2447 02c8 65       		.byte	101
 2448 02c9 69       		.byte	105
 2449 02ca 67       		.byte	103
 2450 02cb 68       		.byte	104
 2451 02cc 74       		.byte	116
 2452 02cd 3A       		.byte	58
 2453 02ce 20       		.byte	32
 2454 02cf 62       		.byte	98
 2455 02d0 6F       		.byte	111
 2456 02d1 6C       		.byte	108
 2457 02d2 64       		.byte	100
 2458 02d3 3B       		.byte	59
 2459 02d4 22       		.byte	34
 2460 02d5 3E       		.byte	62
 2461 02d6 0D       		.byte	13
 2462 02d7 0A       		.byte	10
 2463 02d8 3C       		.byte	60
 2464 02d9 2F       		.byte	47
 2465 02da 73       		.byte	115
 2466 02db 70       		.byte	112
 2467 02dc 61       		.byte	97
 2468 02dd 6E       		.byte	110
 2469 02de 3E       		.byte	62
 2470 02df 3C       		.byte	60
 2471 02e0 73       		.byte	115
 2472 02e1 70       		.byte	112
 2473 02e2 61       		.byte	97
 2474 02e3 6E       		.byte	110
 2475 02e4 20       		.byte	32
 2476 02e5 73       		.byte	115
 2477 02e6 74       		.byte	116
 2478 02e7 79       		.byte	121
 2479 02e8 6C       		.byte	108
 2480 02e9 65       		.byte	101
 2481 02ea 3D       		.byte	61
 2482 02eb 22       		.byte	34
 2483 02ec 66       		.byte	102
 2484 02ed 6F       		.byte	111
 2485 02ee 6E       		.byte	110
 2486 02ef 74       		.byte	116
 2487 02f0 2D       		.byte	45
 2488 02f1 77       		.byte	119
 2489 02f2 65       		.byte	101
 2490 02f3 69       		.byte	105
 2491 02f4 67       		.byte	103
 2492 02f5 68       		.byte	104
 2493 02f6 74       		.byte	116
 2494 02f7 3A       		.byte	58
 2495 02f8 20       		.byte	32
 2496 02f9 62       		.byte	98
 2497 02fa 6F       		.byte	111
 2498 02fb 6C       		.byte	108
 2499 02fc 64       		.byte	100
 2500 02fd 3B       		.byte	59
 2501 02fe 22       		.byte	34
ARM GAS  C:\Users\jo\AppData\Local\Temp\cc1bin1j.s 			page 45


 2502 02ff 3E       		.byte	62
 2503 0300 0D       		.byte	13
 2504 0301 0A       		.byte	10
 2505 0302 3C       		.byte	60
 2506 0303 74       		.byte	116
 2507 0304 61       		.byte	97
 2508 0305 62       		.byte	98
 2509 0306 6C       		.byte	108
 2510 0307 65       		.byte	101
 2511 0308 20       		.byte	32
 2512 0309 73       		.byte	115
 2513 030a 74       		.byte	116
 2514 030b 79       		.byte	121
 2515 030c 6C       		.byte	108
 2516 030d 65       		.byte	101
 2517 030e 3D       		.byte	61
 2518 030f 22       		.byte	34
 2519 0310 77       		.byte	119
 2520 0311 69       		.byte	105
 2521 0312 64       		.byte	100
 2522 0313 74       		.byte	116
 2523 0314 68       		.byte	104
 2524 0315 3A       		.byte	58
 2525 0316 20       		.byte	32
 2526 0317 39       		.byte	57
 2527 0318 36       		.byte	54
 2528 0319 31       		.byte	49
 2529 031a 70       		.byte	112
 2530 031b 78       		.byte	120
 2531 031c 3B       		.byte	59
 2532 031d 20       		.byte	32
 2533 031e 68       		.byte	104
 2534 031f 65       		.byte	101
 2535 0320 69       		.byte	105
 2536 0321 67       		.byte	103
 2537 0322 68       		.byte	104
 2538 0323 74       		.byte	116
 2539 0324 3A       		.byte	58
 2540 0325 20       		.byte	32
 2541 0326 33       		.byte	51
 2542 0327 30       		.byte	48
 2543 0328 70       		.byte	112
 2544 0329 78       		.byte	120
 2545 032a 3B       		.byte	59
 2546 032b 22       		.byte	34
 2547 032c 20       		.byte	32
 2548 032d 62       		.byte	98
 2549 032e 6F       		.byte	111
 2550 032f 72       		.byte	114
 2551 0330 64       		.byte	100
 2552 0331 65       		.byte	101
 2553 0332 72       		.byte	114
 2554 0333 3D       		.byte	61
 2555 0334 22       		.byte	34
 2556 0335 31       		.byte	49
 2557 0336 22       		.byte	34
 2558 0337 0D       		.byte	13
ARM GAS  C:\Users\jo\AppData\Local\Temp\cc1bin1j.s 			page 46


 2559 0338 0A       		.byte	10
 2560 0339 20       		.byte	32
 2561 033a 63       		.byte	99
 2562 033b 65       		.byte	101
 2563 033c 6C       		.byte	108
 2564 033d 6C       		.byte	108
 2565 033e 70       		.byte	112
 2566 033f 61       		.byte	97
 2567 0340 64       		.byte	100
 2568 0341 64       		.byte	100
 2569 0342 69       		.byte	105
 2570 0343 6E       		.byte	110
 2571 0344 67       		.byte	103
 2572 0345 3D       		.byte	61
 2573 0346 22       		.byte	34
 2574 0347 32       		.byte	50
 2575 0348 22       		.byte	34
 2576 0349 20       		.byte	32
 2577 034a 63       		.byte	99
 2578 034b 65       		.byte	101
 2579 034c 6C       		.byte	108
 2580 034d 6C       		.byte	108
 2581 034e 73       		.byte	115
 2582 034f 70       		.byte	112
 2583 0350 61       		.byte	97
 2584 0351 63       		.byte	99
 2585 0352 69       		.byte	105
 2586 0353 6E       		.byte	110
 2587 0354 67       		.byte	103
 2588 0355 3D       		.byte	61
 2589 0356 22       		.byte	34
 2590 0357 32       		.byte	50
 2591 0358 22       		.byte	34
 2592 0359 3E       		.byte	62
 2593 035a 0D       		.byte	13
 2594 035b 0A       		.byte	10
 2595 035c 20       		.byte	32
 2596 035d 20       		.byte	32
 2597 035e 3C       		.byte	60
 2598 035f 74       		.byte	116
 2599 0360 62       		.byte	98
 2600 0361 6F       		.byte	111
 2601 0362 64       		.byte	100
 2602 0363 79       		.byte	121
 2603 0364 3E       		.byte	62
 2604 0365 0D       		.byte	13
 2605 0366 0A       		.byte	10
 2606 0367 20       		.byte	32
 2607 0368 20       		.byte	32
 2608 0369 20       		.byte	32
 2609 036a 20       		.byte	32
 2610 036b 3C       		.byte	60
 2611 036c 74       		.byte	116
 2612 036d 72       		.byte	114
 2613 036e 3E       		.byte	62
 2614 036f 0D       		.byte	13
 2615 0370 0A       		.byte	10
ARM GAS  C:\Users\jo\AppData\Local\Temp\cc1bin1j.s 			page 47


 2616 0371 20       		.byte	32
 2617 0372 20       		.byte	32
 2618 0373 20       		.byte	32
 2619 0374 20       		.byte	32
 2620 0375 20       		.byte	32
 2621 0376 20       		.byte	32
 2622 0377 3C       		.byte	60
 2623 0378 74       		.byte	116
 2624 0379 64       		.byte	100
 2625 037a 0D       		.byte	13
 2626 037b 0A       		.byte	10
 2627 037c 20       		.byte	32
 2628 037d 73       		.byte	115
 2629 037e 74       		.byte	116
 2630 037f 79       		.byte	121
 2631 0380 6C       		.byte	108
 2632 0381 65       		.byte	101
 2633 0382 3D       		.byte	61
 2634 0383 22       		.byte	34
 2635 0384 66       		.byte	102
 2636 0385 6F       		.byte	111
 2637 0386 6E       		.byte	110
 2638 0387 74       		.byte	116
 2639 0388 2D       		.byte	45
 2640 0389 66       		.byte	102
 2641 038a 61       		.byte	97
 2642 038b 6D       		.byte	109
 2643 038c 69       		.byte	105
 2644 038d 6C       		.byte	108
 2645 038e 79       		.byte	121
 2646 038f 3A       		.byte	58
 2647 0390 20       		.byte	32
 2648 0391 56       		.byte	86
 2649 0392 65       		.byte	101
 2650 0393 72       		.byte	114
 2651 0394 64       		.byte	100
 2652 0395 61       		.byte	97
 2653 0396 6E       		.byte	110
 2654 0397 61       		.byte	97
 2655 0398 3B       		.byte	59
 2656 0399 20       		.byte	32
 2657 039a 66       		.byte	102
 2658 039b 6F       		.byte	111
 2659 039c 6E       		.byte	110
 2660 039d 74       		.byte	116
 2661 039e 2D       		.byte	45
 2662 039f 77       		.byte	119
 2663 03a0 65       		.byte	101
 2664 03a1 69       		.byte	105
 2665 03a2 67       		.byte	103
 2666 03a3 68       		.byte	104
 2667 03a4 74       		.byte	116
 2668 03a5 3A       		.byte	58
 2669 03a6 20       		.byte	32
 2670 03a7 62       		.byte	98
 2671 03a8 6F       		.byte	111
 2672 03a9 6C       		.byte	108
ARM GAS  C:\Users\jo\AppData\Local\Temp\cc1bin1j.s 			page 48


 2673 03aa 64       		.byte	100
 2674 03ab 3B       		.byte	59
 2675 03ac 20       		.byte	32
 2676 03ad 66       		.byte	102
 2677 03ae 6F       		.byte	111
 2678 03af 6E       		.byte	110
 2679 03b0 74       		.byte	116
 2680 03b1 2D       		.byte	45
 2681 03b2 73       		.byte	115
 2682 03b3 74       		.byte	116
 2683 03b4 79       		.byte	121
 2684 03b5 6C       		.byte	108
 2685 03b6 65       		.byte	101
 2686 03b7 3A       		.byte	58
 2687 03b8 20       		.byte	32
 2688 03b9 69       		.byte	105
 2689 03ba 74       		.byte	116
 2690 03bb 61       		.byte	97
 2691 03bc 6C       		.byte	108
 2692 03bd 69       		.byte	105
 2693 03be 63       		.byte	99
 2694 03bf 3B       		.byte	59
 2695 03c0 20       		.byte	32
 2696 03c1 62       		.byte	98
 2697 03c2 61       		.byte	97
 2698 03c3 63       		.byte	99
 2699 03c4 6B       		.byte	107
 2700 03c5 67       		.byte	103
 2701 03c6 72       		.byte	114
 2702 03c7 6F       		.byte	111
 2703 03c8 75       		.byte	117
 2704 03c9 6E       		.byte	110
 2705 03ca 64       		.byte	100
 2706 03cb 2D       		.byte	45
 2707 03cc 63       		.byte	99
 2708 03cd 6F       		.byte	111
 2709 03ce 6C       		.byte	108
 2710 03cf 6F       		.byte	111
 2711 03d0 72       		.byte	114
 2712 03d1 3A       		.byte	58
 2713 03d2 20       		.byte	32
 2714 03d3 72       		.byte	114
 2715 03d4 67       		.byte	103
 2716 03d5 62       		.byte	98
 2717 03d6 28       		.byte	40
 2718 03d7 35       		.byte	53
 2719 03d8 31       		.byte	49
 2720 03d9 2C       		.byte	44
 2721 03da 20       		.byte	32
 2722 03db 35       		.byte	53
 2723 03dc 31       		.byte	49
 2724 03dd 2C       		.byte	44
 2725 03de 20       		.byte	32
 2726 03df 32       		.byte	50
 2727 03e0 35       		.byte	53
 2728 03e1 35       		.byte	53
 2729 03e2 29       		.byte	41
ARM GAS  C:\Users\jo\AppData\Local\Temp\cc1bin1j.s 			page 49


 2730 03e3 3B       		.byte	59
 2731 03e4 20       		.byte	32
 2732 03e5 74       		.byte	116
 2733 03e6 65       		.byte	101
 2734 03e7 78       		.byte	120
 2735 03e8 74       		.byte	116
 2736 03e9 2D       		.byte	45
 2737 03ea 61       		.byte	97
 2738 03eb 6C       		.byte	108
 2739 03ec 69       		.byte	105
 2740 03ed 67       		.byte	103
 2741 03ee 6E       		.byte	110
 2742 03ef 3A       		.byte	58
 2743 03f0 20       		.byte	32
 2744 03f1 63       		.byte	99
 2745 03f2 65       		.byte	101
 2746 03f3 6E       		.byte	110
 2747 03f4 74       		.byte	116
 2748 03f5 65       		.byte	101
 2749 03f6 72       		.byte	114
 2750 03f7 3B       		.byte	59
 2751 03f8 22       		.byte	34
 2752 03f9 3E       		.byte	62
 2753 03fa 3C       		.byte	60
 2754 03fb 73       		.byte	115
 2755 03fc 6D       		.byte	109
 2756 03fd 61       		.byte	97
 2757 03fe 6C       		.byte	108
 2758 03ff 6C       		.byte	108
 2759 0400 3E       		.byte	62
 2760 0401 3C       		.byte	60
 2761 0402 61       		.byte	97
 2762 0403 0D       		.byte	13
 2763 0404 0A       		.byte	10
 2764 0405 20       		.byte	32
 2765 0406 68       		.byte	104
 2766 0407 72       		.byte	114
 2767 0408 65       		.byte	101
 2768 0409 66       		.byte	102
 2769 040a 3D       		.byte	61
 2770 040b 22       		.byte	34
 2771 040c 2F       		.byte	47
 2772 040d 56       		.byte	86
 2773 040e 65       		.byte	101
 2774 040f 72       		.byte	114
 2775 0410 76       		.byte	118
 2776 0411 65       		.byte	101
 2777 0412 6E       		.byte	110
 2778 0413 74       		.byte	116
 2779 0414 61       		.byte	97
 2780 0415 5F       		.byte	95
 2781 0416 4D       		.byte	77
 2782 0417 61       		.byte	97
 2783 0418 73       		.byte	115
 2784 0419 74       		.byte	116
 2785 041a 65       		.byte	101
 2786 041b 72       		.byte	114
ARM GAS  C:\Users\jo\AppData\Local\Temp\cc1bin1j.s 			page 50


 2787 041c 2E       		.byte	46
 2788 041d 68       		.byte	104
 2789 041e 74       		.byte	116
 2790 041f 6D       		.byte	109
 2791 0420 6C       		.byte	108
 2792 0421 22       		.byte	34
 2793 0422 3E       		.byte	62
 2794 0423 3C       		.byte	60
 2795 0424 73       		.byte	115
 2796 0425 70       		.byte	112
 2797 0426 61       		.byte	97
 2798 0427 6E       		.byte	110
 2799 0428 20       		.byte	32
 2800 0429 73       		.byte	115
 2801 042a 74       		.byte	116
 2802 042b 79       		.byte	121
 2803 042c 6C       		.byte	108
 2804 042d 65       		.byte	101
 2805 042e 3D       		.byte	61
 2806 042f 22       		.byte	34
 2807 0430 63       		.byte	99
 2808 0431 6F       		.byte	111
 2809 0432 6C       		.byte	108
 2810 0433 6F       		.byte	111
 2811 0434 72       		.byte	114
 2812 0435 3A       		.byte	58
 2813 0436 20       		.byte	32
 2814 0437 77       		.byte	119
 2815 0438 68       		.byte	104
 2816 0439 69       		.byte	105
 2817 043a 74       		.byte	116
 2818 043b 65       		.byte	101
 2819 043c 3B       		.byte	59
 2820 043d 22       		.byte	34
 2821 043e 3E       		.byte	62
 2822 043f 48       		.byte	72
 2823 0440 6F       		.byte	111
 2824 0441 6D       		.byte	109
 2825 0442 65       		.byte	101
 2826 0443 0D       		.byte	13
 2827 0444 0A       		.byte	10
 2828 0445 70       		.byte	112
 2829 0446 61       		.byte	97
 2830 0447 67       		.byte	103
 2831 0448 65       		.byte	101
 2832 0449 3C       		.byte	60
 2833 044a 2F       		.byte	47
 2834 044b 73       		.byte	115
 2835 044c 70       		.byte	112
 2836 044d 61       		.byte	97
 2837 044e 6E       		.byte	110
 2838 044f 3E       		.byte	62
 2839 0450 3C       		.byte	60
 2840 0451 2F       		.byte	47
 2841 0452 61       		.byte	97
 2842 0453 3E       		.byte	62
 2843 0454 3C       		.byte	60
ARM GAS  C:\Users\jo\AppData\Local\Temp\cc1bin1j.s 			page 51


 2844 0455 2F       		.byte	47
 2845 0456 73       		.byte	115
 2846 0457 6D       		.byte	109
 2847 0458 61       		.byte	97
 2848 0459 6C       		.byte	108
 2849 045a 6C       		.byte	108
 2850 045b 3E       		.byte	62
 2851 045c 3C       		.byte	60
 2852 045d 2F       		.byte	47
 2853 045e 74       		.byte	116
 2854 045f 64       		.byte	100
 2855 0460 3E       		.byte	62
 2856 0461 0D       		.byte	13
 2857 0462 0A       		.byte	10
 2858 0463 20       		.byte	32
 2859 0464 20       		.byte	32
 2860 0465 20       		.byte	32
 2861 0466 20       		.byte	32
 2862 0467 3C       		.byte	60
 2863 0468 2F       		.byte	47
 2864 0469 74       		.byte	116
 2865 046a 72       		.byte	114
 2866 046b 3E       		.byte	62
 2867 046c 0D       		.byte	13
 2868 046d 0A       		.byte	10
 2869 046e 20       		.byte	32
 2870 046f 20       		.byte	32
 2871 0470 3C       		.byte	60
 2872 0471 2F       		.byte	47
 2873 0472 74       		.byte	116
 2874 0473 62       		.byte	98
 2875 0474 6F       		.byte	111
 2876 0475 64       		.byte	100
 2877 0476 79       		.byte	121
 2878 0477 3E       		.byte	62
 2879 0478 0D       		.byte	13
 2880 0479 0A       		.byte	10
 2881 047a 3C       		.byte	60
 2882 047b 2F       		.byte	47
 2883 047c 74       		.byte	116
 2884 047d 61       		.byte	97
 2885 047e 62       		.byte	98
 2886 047f 6C       		.byte	108
 2887 0480 65       		.byte	101
 2888 0481 3E       		.byte	62
 2889 0482 0D       		.byte	13
 2890 0483 0A       		.byte	10
 2891 0484 3C       		.byte	60
 2892 0485 62       		.byte	98
 2893 0486 72       		.byte	114
 2894 0487 3E       		.byte	62
 2895 0488 0D       		.byte	13
 2896 0489 0A       		.byte	10
 2897 048a 3C       		.byte	60
 2898 048b 2F       		.byte	47
 2899 048c 73       		.byte	115
 2900 048d 70       		.byte	112
ARM GAS  C:\Users\jo\AppData\Local\Temp\cc1bin1j.s 			page 52


 2901 048e 61       		.byte	97
 2902 048f 6E       		.byte	110
 2903 0490 3E       		.byte	62
 2904 0491 3C       		.byte	60
 2905 0492 73       		.byte	115
 2906 0493 70       		.byte	112
 2907 0494 61       		.byte	97
 2908 0495 6E       		.byte	110
 2909 0496 20       		.byte	32
 2910 0497 73       		.byte	115
 2911 0498 74       		.byte	116
 2912 0499 79       		.byte	121
 2913 049a 6C       		.byte	108
 2914 049b 65       		.byte	101
 2915 049c 3D       		.byte	61
 2916 049d 22       		.byte	34
 2917 049e 66       		.byte	102
 2918 049f 6F       		.byte	111
 2919 04a0 6E       		.byte	110
 2920 04a1 74       		.byte	116
 2921 04a2 2D       		.byte	45
 2922 04a3 77       		.byte	119
 2923 04a4 65       		.byte	101
 2924 04a5 69       		.byte	105
 2925 04a6 67       		.byte	103
 2926 04a7 68       		.byte	104
 2927 04a8 74       		.byte	116
 2928 04a9 3A       		.byte	58
 2929 04aa 20       		.byte	32
 2930 04ab 62       		.byte	98
 2931 04ac 6F       		.byte	111
 2932 04ad 6C       		.byte	108
 2933 04ae 64       		.byte	100
 2934 04af 3B       		.byte	59
 2935 04b0 22       		.byte	34
 2936 04b1 3E       		.byte	62
 2937 04b2 3C       		.byte	60
 2938 04b3 2F       		.byte	47
 2939 04b4 73       		.byte	115
 2940 04b5 70       		.byte	112
 2941 04b6 61       		.byte	97
 2942 04b7 6E       		.byte	110
 2943 04b8 3E       		.byte	62
 2944 04b9 3C       		.byte	60
 2945 04ba 73       		.byte	115
 2946 04bb 6D       		.byte	109
 2947 04bc 61       		.byte	97
 2948 04bd 6C       		.byte	108
 2949 04be 6C       		.byte	108
 2950 04bf 3E       		.byte	62
 2951 04c0 3C       		.byte	60
 2952 04c1 73       		.byte	115
 2953 04c2 70       		.byte	112
 2954 04c3 61       		.byte	97
 2955 04c4 6E       		.byte	110
 2956 04c5 0D       		.byte	13
 2957 04c6 0A       		.byte	10
ARM GAS  C:\Users\jo\AppData\Local\Temp\cc1bin1j.s 			page 53


 2958 04c7 20       		.byte	32
 2959 04c8 73       		.byte	115
 2960 04c9 74       		.byte	116
 2961 04ca 79       		.byte	121
 2962 04cb 6C       		.byte	108
 2963 04cc 65       		.byte	101
 2964 04cd 3D       		.byte	61
 2965 04ce 22       		.byte	34
 2966 04cf 66       		.byte	102
 2967 04d0 6F       		.byte	111
 2968 04d1 6E       		.byte	110
 2969 04d2 74       		.byte	116
 2970 04d3 2D       		.byte	45
 2971 04d4 66       		.byte	102
 2972 04d5 61       		.byte	97
 2973 04d6 6D       		.byte	109
 2974 04d7 69       		.byte	105
 2975 04d8 6C       		.byte	108
 2976 04d9 79       		.byte	121
 2977 04da 3A       		.byte	58
 2978 04db 20       		.byte	32
 2979 04dc 56       		.byte	86
 2980 04dd 65       		.byte	101
 2981 04de 72       		.byte	114
 2982 04df 64       		.byte	100
 2983 04e0 61       		.byte	97
 2984 04e1 6E       		.byte	110
 2985 04e2 61       		.byte	97
 2986 04e3 3B       		.byte	59
 2987 04e4 22       		.byte	34
 2988 04e5 3E       		.byte	62
 2989 04e6 4E       		.byte	78
 2990 04e7 75       		.byte	117
 2991 04e8 6D       		.byte	109
 2992 04e9 62       		.byte	98
 2993 04ea 65       		.byte	101
 2994 04eb 72       		.byte	114
 2995 04ec 20       		.byte	32
 2996 04ed 6F       		.byte	111
 2997 04ee 66       		.byte	102
 2998 04ef 20       		.byte	32
 2999 04f0 70       		.byte	112
 3000 04f1 61       		.byte	97
 3001 04f2 67       		.byte	103
 3002 04f3 65       		.byte	101
 3003 04f4 20       		.byte	32
 3004 04f5 68       		.byte	104
 3005 04f6 69       		.byte	105
 3006 04f7 74       		.byte	116
 3007 04f8 73       		.byte	115
 3008 04f9 3A       		.byte	58
 3009 04fa 0D       		.byte	13
 3010 04fb 0A       		.byte	10
 3011 04fc 00       		.byte	0
 3012 04fd 000000   		.section	.rodata.str1.4,"aMS",%progbits,1
 3013              		.align	2
 3014              	.LC0:
ARM GAS  C:\Users\jo\AppData\Local\Temp\cc1bin1j.s 			page 54


 3015 0000 3C62723E 		.ascii	"<br><br>\000"
 3015      3C62723E 
 3015      00
 3016 0009 000000   		.space	3
 3017              	.LC1:
 3018 000c 3C746162 		.ascii	"<table><thead><tr><td><b>name<td><b>addr<td><b>stac"
 3018      6C653E3C 
 3018      74686561 
 3018      643E3C74 
 3018      723E3C74 
 3019 003f 6B3C7464 		.ascii	"k<td><b>prio<td><b>refs<td><b>state<td><b>time</tr>"
 3019      3E3C623E 
 3019      7072696F 
 3019      3C74643E 
 3019      3C623E72 
 3020 0072 3C2F7468 		.ascii	"</thead></b>\000"
 3020      6561643E 
 3020      3C2F623E 
 3020      00
 3021 007f 00       		.space	1
 3022              	.LC2:
 3023 0080 3C74723E 		.ascii	"<tr>\000"
 3023      00
 3024 0085 000000   		.space	3
 3025              	.LC3:
 3026 0088 3C74643E 		.ascii	"<td>\000"
 3026      00
 3027 008d 000000   		.space	3
 3028              	.LC4:
 3029 0090 3C2F7472 		.ascii	"</tr>\000"
 3029      3E00
 3030 0096 0000     		.space	2
 3031              	.LC5:
 3032 0098 3C2F7461 		.ascii	"</table>\000"
 3032      626C653E 
 3032      00
 3033 00a1 000000   		.space	3
 3034              	.LC6:
 3035 00a4 3C746162 		.ascii	"<table><tr><thead><th>name<th>address<th>state<th>r"
 3035      6C653E3C 
 3035      74723E3C 
 3035      74686561 
 3035      643E3C74 
 3036 00d7 65715469 		.ascii	"eqTimeOut<th>requests<th>function<th>regStart<th>re"
 3036      6D654F75 
 3036      743C7468 
 3036      3E726571 
 3036      75657374 
 3037 010a 67436F75 		.ascii	"gCount<th>AHU<th>HRU</thead></tr>\000"
 3037      6E743C74 
 3037      683E4148 
 3037      553C7468 
 3037      3E485255 
 3038              	.LC7:
 3039 012c 696E6465 		.ascii	"index: %d\012\000"
 3039      783A2025 
 3039      640A00
ARM GAS  C:\Users\jo\AppData\Local\Temp\cc1bin1j.s 			page 55


 3040 0137 00       		.space	1
 3041              	.LC8:
 3042 0138 3C2F7464 		.ascii	"</td>\000"
 3042      3E00
 3043 013e 0000     		.space	2
 3044              	.LC9:
 3045 0140 434F4E4E 		.ascii	"CONNECTED\000"
 3045      45435445 
 3045      4400
 3046 014a 0000     		.space	2
 3047              	.LC10:
 3048 014c 434F4E4E 		.ascii	"CONNECTIONLESS\000"
 3048      45435449 
 3048      4F4E4C45 
 3048      535300
 3049 015b 00       		.space	1
 3050              	.LC11:
 3051 015c 6275666C 		.ascii	"buflen: %i\012 buf: %s\012\000"
 3051      656E3A20 
 3051      25690A20 
 3051      6275663A 
 3051      2025730A 
 3052 0171 000000   		.space	3
 3053              	.LC12:
 3054 0174 47455420 		.ascii	"GET /\000"
 3054      2F00
 3055 017a 0000     		.space	2
 3056              	.LC13:
 3057 017c 47455420 		.ascii	"GET /assets/splash_screen.jpg\000"
 3057      2F617373 
 3057      6574732F 
 3057      73706C61 
 3057      73685F73 
 3058 019a 0000     		.space	2
 3059              	.LC14:
 3060 019c 2F696D67 		.ascii	"/img/splash_screen.jpg\000"
 3060      2F73706C 
 3060      6173685F 
 3060      73637265 
 3060      656E2E6A 
 3061 01b3 00       		.space	1
 3062              	.LC15:
 3063 01b4 47455420 		.ascii	"GET /STM32F4x7TASKS.html\000"
 3063      2F53544D 
 3063      33324634 
 3063      78375441 
 3063      534B532E 
 3064 01cd 000000   		.space	3
 3065              	.LC16:
 3066 01d0 47455420 		.ascii	"GET /MODBUSTASKS.html\000"
 3066      2F4D4F44 
 3066      42555354 
 3066      41534B53 
 3066      2E68746D 
 3067 01e6 0000     		.space	2
 3068              	.LC17:
 3069 01e8 47455420 		.ascii	"GET /uploadconfig.html\000"
ARM GAS  C:\Users\jo\AppData\Local\Temp\cc1bin1j.s 			page 56


 3069      2F75706C 
 3069      6F616463 
 3069      6F6E6669 
 3069      672E6874 
 3070 01ff 00       		.space	1
 3071              	.LC18:
 3072 0200 2F75706C 		.ascii	"/uploadconfig.html\000"
 3072      6F616463 
 3072      6F6E6669 
 3072      672E6874 
 3072      6D6C00
 3073 0213 00       		.space	1
 3074              	.LC19:
 3075 0214 47455420 		.ascii	"GET /Verventa_Master.html\000"
 3075      2F566572 
 3075      76656E74 
 3075      615F4D61 
 3075      73746572 
 3076 022e 0000     		.space	2
 3077              	.LC20:
 3078 0230 47455420 		.ascii	"GET / \000"
 3078      2F2000
 3079 0237 00       		.space	1
 3080              	.LC21:
 3081 0238 2F566572 		.ascii	"/Verventa_Master.html\000"
 3081      76656E74 
 3081      615F4D61 
 3081      73746572 
 3081      2E68746D 
 3082 024e 0000     		.space	2
 3083              	.LC22:
 3084 0250 25730A00 		.ascii	"%s\012\000"
 3085              	.LC23:
 3086 0254 2F343034 		.ascii	"/404.html\000"
 3086      2E68746D 
 3086      6C00
 3087 025e 0000     		.space	2
 3088              	.LC24:
 3089 0260 504F5354 		.ascii	"POST /upload.cgi\000"
 3089      202F7570 
 3089      6C6F6164 
 3089      2E636769 
 3089      00
 3090 0271 000000   		.space	3
 3091              	.LC25:
 3092 0274 73746172 		.ascii	"start upload file...\000"
 3092      74207570 
 3092      6C6F6164 
 3092      2066696C 
 3092      652E2E2E 
 3093 0289 000000   		.space	3
 3094              	.LC26:
 3095 028c 66696C65 		.ascii	"filename=\000"
 3095      6E616D65 
 3095      3D00
 3096 0296 0000     		.space	2
 3097              	.LC27:
ARM GAS  C:\Users\jo\AppData\Local\Temp\cc1bin1j.s 			page 57


 3098 0298 66696C65 		.ascii	"filename: %s with length: %d\012\000"
 3098      6E616D65 
 3098      3A202573 
 3098      20776974 
 3098      68206C65 
 3099 02b6 0000     		.space	2
 3100              	.LC28:
 3101 02b8 6E6F7420 		.ascii	"not last data package...\012\000"
 3101      6C617374 
 3101      20646174 
 3101      61207061 
 3101      636B6167 
 3102 02d2 0000     		.space	2
 3103              	.LC29:
 3104 02d4 68747470 		.ascii	"httpserver\000"
 3104      73657276 
 3104      657200
 3105 02df 00       		.space	1
 3106              	.LC30:
 3107 02e0 41737365 		.ascii	"Assertion \"%s\" failed at line %d in %s\012\000"
 3107      7274696F 
 3107      6E202225 
 3107      73222066 
 3107      61696C65 
 3108              	.LC31:
 3109 0308 68747470 		.ascii	"http_server: invalid conn\000"
 3109      5F736572 
 3109      7665723A 
 3109      20696E76 
 3109      616C6964 
 3110 0322 0000     		.space	2
 3111              	.LC32:
 3112 0324 7765622F 		.ascii	"web/web.c\000"
 3112      7765622E 
 3112      6300
 3113 032e 0000     		.section	.rodata.octet_stream,"a",%progbits
 3114              		.align	2
 3115              		.set	.LANCHOR5,. + 0
 3116              		.type	octet_stream, %object
 3117              		.size	octet_stream, 14
 3118              	octet_stream:
 3119 0000 6F       		.byte	111
 3120 0001 63       		.byte	99
 3121 0002 74       		.byte	116
 3122 0003 65       		.byte	101
 3123 0004 74       		.byte	116
 3124 0005 2D       		.byte	45
 3125 0006 73       		.byte	115
 3126 0007 74       		.byte	116
 3127 0008 72       		.byte	114
 3128 0009 65       		.byte	101
 3129 000a 61       		.byte	97
 3130 000b 6D       		.byte	109
 3131 000c 0D       		.byte	13
 3132 000d 00       		.space	1
 3133 000e 0000     		.section	.bss.BrowserFlag,"aw",%nobits
 3134              		.align	2
ARM GAS  C:\Users\jo\AppData\Local\Temp\cc1bin1j.s 			page 58


 3135              		.set	.LANCHOR3,. + 0
 3136              		.type	BrowserFlag, %object
 3137              		.size	BrowserFlag, 4
 3138              	BrowserFlag:
 3139 0000 00000000 		.space	4
 3140              		.section	.bss.TotalReceived,"aw",%nobits
 3141              		.align	2
 3142              		.set	.LANCHOR4,. + 0
 3143              		.type	TotalReceived, %object
 3144              		.size	TotalReceived, 4
 3145              	TotalReceived:
 3146 0000 00000000 		.space	4
 3147              		.section	.bss.wa_http_server,"aw",%nobits
 3148              		.align	3
 3149              		.type	wa_http_server, %object
 3150              		.size	wa_http_server, 4432
 3151              	wa_http_server:
 3152 0000 00000000 		.space	4432
 3152      00000000 
 3152      00000000 
 3152      00000000 
 3152      00000000 
 3153              		.text
 3154              	.Letext0:
 3155              		.file 4 "c:\\program files\\gnu tools arm embedded\\4.9 2014q4\\lib\\gcc\\arm-none-eabi\\4.9.3\\in
 3156              		.file 5 "c:\\program files\\gnu tools arm embedded\\4.9 2014q4\\arm-none-eabi\\include\\machine\\_
 3157              		.file 6 "c:\\program files\\gnu tools arm embedded\\4.9 2014q4\\arm-none-eabi\\include\\stdint.h"
 3158              		.file 7 "../../../os/rt/ports/ARMCMx/compilers/GCC/chtypes.h"
 3159              		.file 8 "../../../os/rt/include/chsystypes.h"
 3160              		.file 9 "../../../os/rt/include/chschd.h"
 3161              		.file 10 "../../../os/rt/ports/ARMCMx/chcore.h"
 3162              		.file 11 "../../../os/rt/ports/ARMCMx/chcore_v7m.h"
 3163              		.file 12 "c:\\program files\\gnu tools arm embedded\\4.9 2014q4\\lib\\gcc\\arm-none-eabi\\4.9.3\\i
 3164              		.file 13 "<built-in>"
 3165              		.file 14 "../../../os/rt/include/chtm.h"
 3166              		.file 15 "../../../os/rt/include/chmtx.h"
 3167              		.file 16 "../../../os/rt/include/chsem.h"
 3168              		.file 17 "../../../os/rt/include/chmboxes.h"
 3169              		.file 18 "../../../os/rt/include/chstreams.h"
 3170              		.file 19 "./ArrayList.h"
 3171              		.file 20 "./ITM_trace.h"
 3172              		.file 21 "../../../os/various/lwip_bindings/arch/cc.h"
 3173              		.file 22 "../../../os/ext/lwip-1.4.1/src/include/lwip/err.h"
 3174              		.file 23 "../../../os/ext/lwip-1.4.1/src/include/lwip/pbuf.h"
 3175              		.file 24 "../../../os/ext/lwip-1.4.1/src/include/ipv4/lwip/ip_addr.h"
 3176              		.file 25 "../../../os/ext/lwip-1.4.1/src/include/lwip/netbuf.h"
 3177              		.file 26 "../../../os/various/lwip_bindings/arch/sys_arch.h"
 3178              		.file 27 "../../../os/ext/lwip-1.4.1/src/include/lwip/api.h"
 3179              		.file 28 "web/inc/fs.h"
 3180              		.file 29 "../../../os/ext/CMSIS/include/core_cm4.h"
 3181              		.file 30 "c:\\program files\\gnu tools arm embedded\\4.9 2014q4\\arm-none-eabi\\include\\string.h"
 3182              		.file 31 "../../../os/rt/include/chregistry.h"
 3183              		.file 32 "../../../os/rt/include/chsys.h"
 3184              		.file 33 "../../../os/rt/include/chthreads.h"